ARM GAS  /tmp/ccSYR7v5.s 			page 1


   1              		.cpu cortex-m7
   2              		.eabi_attribute 27, 1
   3              		.eabi_attribute 28, 1
   4              		.eabi_attribute 20, 1
   5              		.eabi_attribute 21, 1
   6              		.eabi_attribute 23, 3
   7              		.eabi_attribute 24, 1
   8              		.eabi_attribute 25, 1
   9              		.eabi_attribute 26, 1
  10              		.eabi_attribute 30, 2
  11              		.eabi_attribute 34, 1
  12              		.eabi_attribute 18, 4
  13              		.file	"axoloti_board.c"
  14              		.text
  15              	.Ltext0:
  16              		.cfi_sections	.debug_frame
  17              		.align	1
  18              		.p2align 4,,15
  19              		.global	axoloti_board_init
  20              		.arch armv7e-m
  21              		.syntax unified
  22              		.thumb
  23              		.thumb_func
  24              		.fpu fpv4-sp-d16
  25              		.type	axoloti_board_init, %function
  26              	axoloti_board_init:
  27              	.LFB362:
  28              		.file 1 "../axoloti_board.c"
  29              		.loc 1 26 31 view -0
  30              		.cfi_startproc
  31              		@ args = 0, pretend = 0, frame = 0
  32              		@ frame_needed = 0, uses_anonymous_args = 0
  33              		@ link register save eliminated.
  34              		.loc 1 29 5 view .LVU1
  35              		.loc 1 29 18 is_stmt 0 view .LVU2
  36 0000 094B     		ldr	r3, .L3
  37 0002 D3F8D820 		ldr	r2, [r3, #216]
  38 0006 42F00202 		orr	r2, r2, #2
  39 000a C3F8D820 		str	r2, [r3, #216]
  40              		.loc 1 30 5 is_stmt 1 view .LVU3
  41              		.loc 1 30 19 is_stmt 0 view .LVU4
  42 000e D3F88020 		ldr	r2, [r3, #128]
  43 0012 42F00202 		orr	r2, r2, #2
  44 0016 C3F88020 		str	r2, [r3, #128]
  45              		.loc 1 31 5 is_stmt 1 view .LVU5
  46              		.loc 1 31 19 is_stmt 0 view .LVU6
  47 001a D3F88020 		ldr	r2, [r3, #128]
  48 001e 22F00202 		bic	r2, r2, #2
  49 0022 C3F88020 		str	r2, [r3, #128]
  50              		.loc 1 38 1 view .LVU7
  51 0026 7047     		bx	lr
  52              	.L4:
  53              		.align	2
  54              	.L3:
  55 0028 00440258 		.word	1476543488
  56              		.cfi_endproc
  57              	.LFE362:
ARM GAS  /tmp/ccSYR7v5.s 			page 2


  58              		.size	axoloti_board_init, .-axoloti_board_init
  59              		.align	1
  60 002c AFF30080 		.p2align 4,,15
  61              		.global	adc_configpads
  62              		.syntax unified
  63              		.thumb
  64              		.thumb_func
  65              		.fpu fpv4-sp-d16
  66              		.type	adc_configpads, %function
  67              	adc_configpads:
  68              	.LFB363:
  69              		.loc 1 47 27 is_stmt 1 view -0
  70              		.cfi_startproc
  71              		@ args = 0, pretend = 0, frame = 0
  72              		@ frame_needed = 0, uses_anonymous_args = 0
  73              		.loc 1 48 5 view .LVU9
  74              		.loc 1 47 27 is_stmt 0 view .LVU10
  75 0030 70B5     		push	{r4, r5, r6, lr}
  76              		.cfi_def_cfa_offset 16
  77              		.cfi_offset 4, -16
  78              		.cfi_offset 5, -12
  79              		.cfi_offset 6, -8
  80              		.cfi_offset 14, -4
  81              		.loc 1 48 5 view .LVU11
  82 0032 254D     		ldr	r5, .L7
  83 0034 0322     		movs	r2, #3
  84 0036 0121     		movs	r1, #1
  85              		.loc 1 59 5 view .LVU12
  86 0038 244E     		ldr	r6, .L7+4
  87              		.loc 1 48 5 view .LVU13
  88 003a 2846     		mov	r0, r5
  89              		.loc 1 62 5 view .LVU14
  90 003c 244C     		ldr	r4, .L7+8
  91              		.loc 1 48 5 view .LVU15
  92 003e FFF7FEFF 		bl	_pal_lld_setgroupmode
  93              	.LVL0:
  94              		.loc 1 49 5 is_stmt 1 view .LVU16
  95 0042 2846     		mov	r0, r5
  96 0044 0322     		movs	r2, #3
  97 0046 0221     		movs	r1, #2
  98 0048 FFF7FEFF 		bl	_pal_lld_setgroupmode
  99              	.LVL1:
 100              		.loc 1 54 5 view .LVU17
 101 004c 2846     		mov	r0, r5
 102 004e 0322     		movs	r2, #3
 103 0050 1021     		movs	r1, #16
 104 0052 FFF7FEFF 		bl	_pal_lld_setgroupmode
 105              	.LVL2:
 106              		.loc 1 55 5 view .LVU18
 107 0056 2846     		mov	r0, r5
 108 0058 0322     		movs	r2, #3
 109 005a 2021     		movs	r1, #32
 110 005c FFF7FEFF 		bl	_pal_lld_setgroupmode
 111              	.LVL3:
 112              		.loc 1 56 5 view .LVU19
 113 0060 2846     		mov	r0, r5
 114 0062 0322     		movs	r2, #3
ARM GAS  /tmp/ccSYR7v5.s 			page 3


 115 0064 4021     		movs	r1, #64
 116 0066 FFF7FEFF 		bl	_pal_lld_setgroupmode
 117              	.LVL4:
 118              		.loc 1 57 5 view .LVU20
 119 006a 2846     		mov	r0, r5
 120 006c 0322     		movs	r2, #3
 121 006e 8021     		movs	r1, #128
 122 0070 FFF7FEFF 		bl	_pal_lld_setgroupmode
 123              	.LVL5:
 124              		.loc 1 59 5 view .LVU21
 125 0074 3046     		mov	r0, r6
 126 0076 0322     		movs	r2, #3
 127 0078 0121     		movs	r1, #1
 128 007a FFF7FEFF 		bl	_pal_lld_setgroupmode
 129              	.LVL6:
 130              		.loc 1 60 5 view .LVU22
 131 007e 3046     		mov	r0, r6
 132 0080 0322     		movs	r2, #3
 133 0082 0221     		movs	r1, #2
 134 0084 FFF7FEFF 		bl	_pal_lld_setgroupmode
 135              	.LVL7:
 136              		.loc 1 62 5 view .LVU23
 137 0088 2046     		mov	r0, r4
 138 008a 0322     		movs	r2, #3
 139 008c 0121     		movs	r1, #1
 140 008e FFF7FEFF 		bl	_pal_lld_setgroupmode
 141              	.LVL8:
 142              		.loc 1 63 5 view .LVU24
 143 0092 2046     		mov	r0, r4
 144 0094 0322     		movs	r2, #3
 145 0096 0221     		movs	r1, #2
 146 0098 FFF7FEFF 		bl	_pal_lld_setgroupmode
 147              	.LVL9:
 148              		.loc 1 64 5 view .LVU25
 149 009c 2046     		mov	r0, r4
 150 009e 0322     		movs	r2, #3
 151 00a0 0421     		movs	r1, #4
 152 00a2 FFF7FEFF 		bl	_pal_lld_setgroupmode
 153              	.LVL10:
 154              		.loc 1 65 5 view .LVU26
 155 00a6 2046     		mov	r0, r4
 156 00a8 0322     		movs	r2, #3
 157 00aa 0821     		movs	r1, #8
 158 00ac FFF7FEFF 		bl	_pal_lld_setgroupmode
 159              	.LVL11:
 160              		.loc 1 66 5 view .LVU27
 161 00b0 2046     		mov	r0, r4
 162 00b2 0322     		movs	r2, #3
 163 00b4 1021     		movs	r1, #16
 164 00b6 FFF7FEFF 		bl	_pal_lld_setgroupmode
 165              	.LVL12:
 166              		.loc 1 67 5 view .LVU28
 167 00ba 2046     		mov	r0, r4
 168 00bc 0322     		movs	r2, #3
 169 00be 2021     		movs	r1, #32
 170              		.loc 1 68 1 is_stmt 0 view .LVU29
 171 00c0 BDE87040 		pop	{r4, r5, r6, lr}
ARM GAS  /tmp/ccSYR7v5.s 			page 4


 172              		.cfi_restore 14
 173              		.cfi_restore 6
 174              		.cfi_restore 5
 175              		.cfi_restore 4
 176              		.cfi_def_cfa_offset 0
 177              		.loc 1 67 5 view .LVU30
 178 00c4 FFF7FEBF 		b	_pal_lld_setgroupmode
 179              	.LVL13:
 180              	.L8:
 181              		.align	2
 182              	.L7:
 183 00c8 00000258 		.word	1476526080
 184 00cc 00040258 		.word	1476527104
 185 00d0 00080258 		.word	1476528128
 186              		.cfi_endproc
 187              	.LFE363:
 188              		.size	adc_configpads, .-adc_configpads
 189              		.align	1
 190 00d4 AFF30080 		.p2align 4,,15
 190      AFF30080 
 190      AFF30080 
 191              		.global	adc_init
 192              		.syntax unified
 193              		.thumb
 194              		.thumb_func
 195              		.fpu fpv4-sp-d16
 196              		.type	adc_init, %function
 197              	adc_init:
 198              	.LFB364:
 199              		.loc 1 201 21 is_stmt 1 view -0
 200              		.cfi_startproc
 201              		@ args = 0, pretend = 0, frame = 0
 202              		@ frame_needed = 0, uses_anonymous_args = 0
 203              		.loc 1 202 5 view .LVU32
 204              		.loc 1 201 21 is_stmt 0 view .LVU33
 205 00e0 70B5     		push	{r4, r5, r6, lr}
 206              		.cfi_def_cfa_offset 16
 207              		.cfi_offset 4, -16
 208              		.cfi_offset 5, -12
 209              		.cfi_offset 6, -8
 210              		.cfi_offset 14, -4
 211              		.loc 1 204 5 view .LVU34
 212 00e2 0B4C     		ldr	r4, .L11
 213              		.loc 1 202 5 view .LVU35
 214 00e4 FFF7FEFF 		bl	adc_configpads
 215              	.LVL14:
 216              		.loc 1 204 5 is_stmt 1 view .LVU36
 217 00e8 0A4D     		ldr	r5, .L11+4
 218 00ea 2046     		mov	r0, r4
 219 00ec 2946     		mov	r1, r5
 220 00ee FFF7FEFF 		bl	adcStart
 221              	.LVL15:
 222              		.loc 1 205 5 view .LVU37
 223 00f2 2046     		mov	r0, r4
 224 00f4 FFF7FEFF 		bl	adcSTM32EnableVREF
 225              	.LVL16:
 226              		.loc 1 206 5 view .LVU38
ARM GAS  /tmp/ccSYR7v5.s 			page 5


 227 00f8 2046     		mov	r0, r4
 228 00fa FFF7FEFF 		bl	adcSTM32EnableTS
 229              	.LVL17:
 230              		.loc 1 213 5 view .LVU39
 231 00fe 05F10801 		add	r1, r5, #8
 232 0102 2046     		mov	r0, r4
 233 0104 0123     		movs	r3, #1
 234 0106 044A     		ldr	r2, .L11+8
 235              		.loc 1 214 1 is_stmt 0 view .LVU40
 236 0108 BDE87040 		pop	{r4, r5, r6, lr}
 237              		.cfi_restore 14
 238              		.cfi_restore 6
 239              		.cfi_restore 5
 240              		.cfi_restore 4
 241              		.cfi_def_cfa_offset 0
 242              		.loc 1 213 5 view .LVU41
 243 010c FFF7FEBF 		b	adcStartConversion
 244              	.LVL18:
 245              	.L12:
 246              		.align	2
 247              	.L11:
 248 0110 00000000 		.word	ADCD1
 249 0114 00000000 		.word	.LANCHOR0
 250 0118 00000000 		.word	adcvalues
 251              		.cfi_endproc
 252              	.LFE364:
 253              		.size	adc_init, .-adc_init
 254              		.align	1
 255 011c AFF30080 		.p2align 4,,15
 256              		.global	adc_convert
 257              		.syntax unified
 258              		.thumb
 259              		.thumb_func
 260              		.fpu fpv4-sp-d16
 261              		.type	adc_convert, %function
 262              	adc_convert:
 263              	.LFB365:
 264              		.loc 1 216 24 is_stmt 1 view -0
 265              		.cfi_startproc
 266              		@ args = 0, pretend = 0, frame = 0
 267              		@ frame_needed = 0, uses_anonymous_args = 0
 268              		.loc 1 218 5 view .LVU43
 269              		.loc 1 216 24 is_stmt 0 view .LVU44
 270 0120 10B5     		push	{r4, lr}
 271              		.cfi_def_cfa_offset 8
 272              		.cfi_offset 4, -8
 273              		.cfi_offset 14, -4
 274              		.loc 1 218 5 view .LVU45
 275 0122 084C     		ldr	r4, .L15
 276 0124 0123     		movs	r3, #1
 277 0126 0849     		ldr	r1, .L15+4
 278 0128 2246     		mov	r2, r4
 279 012a 0848     		ldr	r0, .L15+8
 280 012c FFF7FEFF 		bl	adcStartConversion
 281              	.LVL19:
 282              	.LBB9:
 283              		.loc 1 219 5 is_stmt 1 view .LVU46
ARM GAS  /tmp/ccSYR7v5.s 			page 6


 284              		.loc 1 219 5 view .LVU47
 285              		.loc 1 219 5 view .LVU48
 286              	.LBB10:
 287              	.LBI10:
 288              		.file 2 "../../../external/ChibiOS/os/common/ext/ARM/CMSIS/Core/Include/cmsis_gcc.h"
 289              		.loc 2 877 27 view .LVU49
 290              	.LBB11:
 291              		.loc 2 879 3 view .LVU50
 292              		.syntax unified
 293              	@ 879 "../../../external/ChibiOS/os/common/ext/ARM/CMSIS/Core/Include/cmsis_gcc.h" 1
 294 0130 BFF34F8F 		dsb 0xF
 295              	@ 0 "" 2
 296              		.loc 2 879 3 is_stmt 0 view .LVU51
 297              		.thumb
 298              		.syntax unified
 299              	.LBE11:
 300              	.LBE10:
 301              		.loc 1 219 5 is_stmt 1 view .LVU52
 302 0134 064B     		ldr	r3, .L15+12
 303 0136 C3F85C42 		str	r4, [r3, #604]
 304              		.loc 1 219 5 view .LVU53
 305              	.LVL20:
 306              		.loc 1 219 5 view .LVU54
 307              	.LBB12:
 308              	.LBI12:
 309              		.loc 2 877 27 view .LVU55
 310              	.LBB13:
 311              		.loc 2 879 3 view .LVU56
 312              		.syntax unified
 313              	@ 879 "../../../external/ChibiOS/os/common/ext/ARM/CMSIS/Core/Include/cmsis_gcc.h" 1
 314 013a BFF34F8F 		dsb 0xF
 315              	@ 0 "" 2
 316              		.thumb
 317              		.syntax unified
 318              	.LBE13:
 319              	.LBE12:
 320              		.loc 1 219 5 view .LVU57
 321              	.LBB14:
 322              	.LBI14:
 323              		.loc 2 866 27 view .LVU58
 324              	.LBB15:
 325              		.loc 2 868 3 view .LVU59
 326              		.syntax unified
 327              	@ 868 "../../../external/ChibiOS/os/common/ext/ARM/CMSIS/Core/Include/cmsis_gcc.h" 1
 328 013e BFF36F8F 		isb 0xF
 329              	@ 0 "" 2
 330              		.thumb
 331              		.syntax unified
 332              	.LBE15:
 333              	.LBE14:
 334              	.LBE9:
 335              		.loc 1 219 78 view .LVU60
 336              		.loc 1 223 1 is_stmt 0 view .LVU61
 337 0142 10BD     		pop	{r4, pc}
 338              	.L16:
 339              		.align	2
 340              	.L15:
ARM GAS  /tmp/ccSYR7v5.s 			page 7


 341 0144 00000000 		.word	adcvalues
 342 0148 08000000 		.word	.LANCHOR0+8
 343 014c 00000000 		.word	ADCD1
 344 0150 00ED00E0 		.word	-536810240
 345              		.cfi_endproc
 346              	.LFE365:
 347              		.size	adc_convert, .-adc_convert
 348              		.global	adcgrpcfg1
 349              		.global	adccfg1
 350              		.comm	adcvalues,30,32
 351              		.section	.rodata
 352              		.align	2
 353              		.set	.LANCHOR0,. + 0
 354              		.type	adccfg1, %object
 355              		.size	adccfg1, 8
 356              	adccfg1:
 357 0000 00000000 		.space	8
 357      00000000 
 358              		.type	adcgrpcfg1, %object
 359              		.size	adcgrpcfg1, 80
 360              	adcgrpcfg1:
 361 0008 01       		.byte	1
 362 0009 000000   		.space	3
 363 000c 0F000000 		.word	15
 364 0010 00000000 		.word	0
 365 0014 00000000 		.word	0
 366 0018 18000000 		.word	24
 367 001c 00000000 		.word	0
 368 0020 00000000 		.word	0
 369 0024 98FE0F00 		.word	1048216
 370 0028 00000000 		.word	0
 371 002c FFFFFF03 		.word	67108863
 372 0030 00000000 		.word	0
 373 0034 FFFFFF03 		.word	67108863
 374 0038 00000000 		.word	0
 375 003c FFFFFF03 		.word	67108863
 376 0040 B66DDB36 		.word	920350134
 377 0044 B66D0300 		.word	224694
 378 0048 0014390F 		.word	255398912
 379 004c D2341C09 		.word	152843474
 380 0050 CAC2340E 		.word	238338762
 381 0054 04000000 		.word	4
 382              		.text
 383              	.Letext0:
 384              		.file 3 "/home/nicolas/arm/gcc-arm-none-eabi-8-2019-q3-update/lib/gcc/arm-none-eabi/8.3.1/include/
 385              		.file 4 "/home/nicolas/arm/gcc-arm-none-eabi-8-2019-q3-update/arm-none-eabi/include/machine/_defau
 386              		.file 5 "/home/nicolas/arm/gcc-arm-none-eabi-8-2019-q3-update/arm-none-eabi/include/sys/_stdint.h"
 387              		.file 6 "/home/nicolas/arm/gcc-arm-none-eabi-8-2019-q3-update/arm-none-eabi/include/stdint.h"
 388              		.file 7 "../../../external/ChibiOS/os/common/ports/ARMCMx/compilers/GCC/chtypes.h"
 389              		.file 8 "../../../external/ChibiOS/os/rt/include/chsystypes.h"
 390              		.file 9 "../../../external/ChibiOS/os/rt/include/chschd.h"
 391              		.file 10 "../../../external/ChibiOS/os/rt/include/chtime.h"
 392              		.file 11 "../../../external/ChibiOS/os/common/ext/ARM/CMSIS/Core/Include/core_cm7.h"
 393              		.file 12 "../../../external/ChibiOS/os/common/ext/ST/STM32H7xx/system_stm32h7xx.h"
 394              		.file 13 "../../../external/ChibiOS/os/common/ext/ST/STM32H7xx/stm32h753xx.h"
 395              		.file 14 "../../../external/ChibiOS/os/common/ports/ARMCMx/chcore.h"
 396              		.file 15 "../../../external/ChibiOS/os/common/ports/ARMCMx/chcore_v7m.h"
ARM GAS  /tmp/ccSYR7v5.s 			page 8


 397              		.file 16 "../../../external/ChibiOS/os/rt/include/chtrace.h"
 398              		.file 17 "../../../external/ChibiOS/os/rt/include/chtm.h"
 399              		.file 18 "../../../external/ChibiOS/os/rt/include/chsem.h"
 400              		.file 19 "../../../external/ChibiOS/os/rt/include/chmtx.h"
 401              		.file 20 "../../../external/ChibiOS/os/rt/include/chsys.h"
 402              		.file 21 "../../../external/ChibiOS/os/rt/include/chregistry.h"
 403              		.file 22 "../../../external/ChibiOS/os/rt/include/chevents.h"
 404              		.file 23 "../../../external/ChibiOS/os/oslib/include/chmemcore.h"
 405              		.file 24 "../../../external/ChibiOS/os/oslib/include/chmempools.h"
 406              		.file 25 "../../../external/ChibiOS/os/oslib/include/chfactory.h"
 407              		.file 26 "../../../external/ChibiOS/os/hal/ports/STM32/LLD/DMAv2/stm32_dma.h"
 408              		.file 27 "../../../external/ChibiOS/os/hal/ports/STM32/LLD/BDMAv1/stm32_bdma.h"
 409              		.file 28 "../../../external/ChibiOS/os/hal/ports/STM32/LLD/TIMv1/stm32_tim.h"
 410              		.file 29 "../../../external/ChibiOS/os/hal/include/hal_ioblock.h"
 411              		.file 30 "../../../external/ChibiOS/os/hal/include/hal_queues.h"
 412              		.file 31 "../../../external/ChibiOS/os/hal/ports/STM32/LLD/GPIOv2/stm32_gpio.h"
 413              		.file 32 "../../../external/ChibiOS/os/hal/ports/STM32/LLD/GPIOv2/hal_pal_lld.h"
 414              		.file 33 "../../../external/ChibiOS/os/hal/include/hal_adc.h"
 415              		.file 34 "../../../external/ChibiOS/os/hal/ports/STM32/LLD/ADCv4/hal_adc_lld.h"
 416              		.file 35 "../../../external/ChibiOS/os/hal/include/hal_i2c.h"
 417              		.file 36 "../../../external/ChibiOS/os/hal/ports/STM32/LLD/I2Cv3/hal_i2c_lld.h"
 418              		.file 37 "../../../external/ChibiOS/os/hal/include/hal_pwm.h"
 419              		.file 38 "../../../external/ChibiOS/os/hal/ports/STM32/LLD/TIMv1/hal_pwm_lld.h"
 420              		.file 39 "../../../external/ChibiOS/os/hal/include/hal_serial.h"
 421              		.file 40 "../../../external/ChibiOS/os/hal/ports/STM32/LLD/USARTv2/hal_serial_lld.h"
 422              		.file 41 "../../../external/ChibiOS/os/hal/include/hal_sdc.h"
 423              		.file 42 "../../../external/ChibiOS/os/hal/ports/STM32/LLD/SDMMCv2/hal_sdc_lld.h"
 424              		.file 43 "../../../external/ChibiOS/os/hal/include/hal_spi.h"
 425              		.file 44 "../../../external/ChibiOS/os/hal/ports/STM32/LLD/SPIv3/hal_spi_lld.h"
 426              		.file 45 "../../../external/ChibiOS/os/hal/include/hal_trng.h"
 427              		.file 46 "../../../external/ChibiOS/os/hal/ports/STM32/LLD/RNGv1/hal_trng_lld.h"
 428              		.file 47 "../../../external/ChibiOS/os/hal/include/hal_usb.h"
 429              		.file 48 "../../../external/ChibiOS/os/hal/ports/STM32/LLD/OTGv1/hal_usb_lld.h"
 430              		.file 49 "../../../external/ChibiOS/os/hal/ports/STM32/LLD/OTGv1/stm32_otg.h"
 431              		.file 50 "../../../external/ChibiOS-Contrib/os/hal/include/hal_fsmc.h"
 432              		.file 51 "../../../external/ChibiOS-Contrib/os/hal/include/hal_sdram.h"
 433              		.file 52 "../axoloti_board.h"