ARM GAS  /tmp/ccrjo3kL.s 			page 1


   1              		.cpu cortex-m7
   2              		.eabi_attribute 27, 1
   3              		.eabi_attribute 28, 1
   4              		.eabi_attribute 20, 1
   5              		.eabi_attribute 21, 1
   6              		.eabi_attribute 23, 3
   7              		.eabi_attribute 24, 1
   8              		.eabi_attribute 25, 1
   9              		.eabi_attribute 26, 1
  10              		.eabi_attribute 30, 2
  11              		.eabi_attribute 34, 1
  12              		.eabi_attribute 18, 4
  13              		.file	"chcond.c"
  14              		.text
  15              	.Ltext0:
  16              		.cfi_sections	.debug_frame
  17              		.align	1
  18              		.p2align 4,,15
  19              		.global	chCondObjectInit
  20              		.arch armv7e-m
  21              		.syntax unified
  22              		.thumb
  23              		.thumb_func
  24              		.fpu fpv4-sp-d16
  25              		.type	chCondObjectInit, %function
  26              	chCondObjectInit:
  27              	.LVL0:
  28              	.LFB323:
  29              		.file 1 "../../../external/ChibiOS/os/rt/src/chcond.c"
  30              		.loc 1 75 49 view -0
  31              		.cfi_startproc
  32              		@ args = 0, pretend = 0, frame = 0
  33              		@ frame_needed = 0, uses_anonymous_args = 0
  34              		@ link register save eliminated.
  35              		.loc 1 77 3 view .LVU1
  36              		.loc 1 77 3 view .LVU2
  37              		.loc 1 79 3 view .LVU3
  38              	.LBB89:
  39              	.LBI89:
  40              		.file 2 "../../../external/ChibiOS/os/rt/include/chschd.h"
  41              		.loc 2 537 20 view .LVU4
  42              	.LBB90:
  43              		.loc 2 539 3 view .LVU5
  44              		.loc 2 540 13 is_stmt 0 view .LVU6
  45 0000 C0E90000 		strd	r0, r0, [r0]
  46              	.LVL1:
  47              		.loc 2 540 13 view .LVU7
  48              	.LBE90:
  49              	.LBE89:
  50              		.loc 1 80 1 view .LVU8
  51 0004 7047     		bx	lr
  52              		.cfi_endproc
  53              	.LFE323:
  54              		.size	chCondObjectInit, .-chCondObjectInit
  55              		.align	1
  56 0006 00BFAFF3 		.p2align 4,,15
  56      0080AFF3 
ARM GAS  /tmp/ccrjo3kL.s 			page 2


  56      0080
  57              		.global	chCondSignal
  58              		.syntax unified
  59              		.thumb
  60              		.thumb_func
  61              		.fpu fpv4-sp-d16
  62              		.type	chCondSignal, %function
  63              	chCondSignal:
  64              	.LVL2:
  65              	.LFB324:
  66              		.loc 1 89 45 is_stmt 1 view -0
  67              		.cfi_startproc
  68              		@ args = 0, pretend = 0, frame = 0
  69              		@ frame_needed = 0, uses_anonymous_args = 0
  70              		.loc 1 91 3 view .LVU10
  71              		.loc 1 91 3 view .LVU11
  72              		.loc 1 93 3 view .LVU12
  73              	.LBB91:
  74              	.LBI91:
  75              		.file 3 "../../../external/ChibiOS/os/rt/include/chsys.h"
  76              		.loc 3 353 20 view .LVU13
  77              	.LBE91:
  78              		.loc 3 355 3 view .LVU14
  79              	.LBB96:
  80              	.LBB92:
  81              	.LBI92:
  82              		.file 4 "../../../external/ChibiOS/os/common/ports/ARMCMx/chcore_v7m.h"
  83              		.loc 4 669 27 view .LVU15
  84              	.LBE92:
  85              	.LBE96:
  86              		.loc 4 677 3 view .LVU16
  87              	.LBB97:
  88              	.LBB95:
  89              	.LBB93:
  90              	.LBI93:
  91              		.file 5 "../../../external/ChibiOS/os/common/ext/ARM/CMSIS/Core/Include/cmsis_gcc.h"
  92              		.loc 5 491 27 view .LVU17
  93              	.LBB94:
  94              		.loc 5 493 3 view .LVU18
  95 0010 2023     		movs	r3, #32
  96              		.syntax unified
  97              	@ 493 "../../../external/ChibiOS/os/common/ext/ARM/CMSIS/Core/Include/cmsis_gcc.h" 1
  98 0012 83F31188 		MSR basepri, r3
  99              	@ 0 "" 2
 100              	.LVL3:
 101              		.loc 5 493 3 is_stmt 0 view .LVU19
 102              		.thumb
 103              		.syntax unified
 104              	.LBE94:
 105              	.LBE93:
 106              	.LBE95:
 107              	.LBE97:
 108              		.loc 3 356 34 is_stmt 1 view .LVU20
 109              		.loc 3 357 20 view .LVU21
 110              		.loc 1 94 3 view .LVU22
 111              	.LBB98:
 112              	.LBI98:
ARM GAS  /tmp/ccrjo3kL.s 			page 3


 113              		.loc 2 564 20 view .LVU23
 114              	.LBB99:
 115              		.loc 2 566 3 view .LVU24
 116              		.loc 2 566 20 is_stmt 0 view .LVU25
 117 0016 0268     		ldr	r2, [r0]
 118              	.LVL4:
 119              		.loc 2 566 20 view .LVU26
 120              	.LBE99:
 121              	.LBE98:
 122              		.loc 1 94 6 view .LVU27
 123 0018 9042     		cmp	r0, r2
 124 001a 0CD0     		beq	.L6
 125 001c 0346     		mov	r3, r0
 126              		.loc 1 95 5 is_stmt 1 view .LVU28
 127              	.LVL5:
 128              	.LBB100:
 129              	.LBI100:
 130              		.loc 2 606 25 view .LVU29
 131              	.LBB101:
 132              		.loc 2 607 3 view .LVU30
 133              		.loc 2 609 3 view .LVU31
 134              	.LBE101:
 135              	.LBE100:
 136              		.loc 1 95 5 is_stmt 0 view .LVU32
 137 001e 0021     		movs	r1, #0
 138 0020 1046     		mov	r0, r2
 139              	.LVL6:
 140              		.loc 1 89 45 view .LVU33
 141 0022 10B5     		push	{r4, lr}
 142              		.cfi_def_cfa_offset 8
 143              		.cfi_offset 4, -8
 144              		.cfi_offset 14, -4
 145              	.LBB103:
 146              	.LBB102:
 147              		.loc 2 609 36 view .LVU34
 148 0024 1468     		ldr	r4, [r2]
 149              		.loc 2 609 25 view .LVU35
 150 0026 1C60     		str	r4, [r3]
 151              		.loc 2 610 3 is_stmt 1 view .LVU36
 152              		.loc 2 610 25 is_stmt 0 view .LVU37
 153 0028 6360     		str	r3, [r4, #4]
 154              		.loc 2 612 3 is_stmt 1 view .LVU38
 155              	.LVL7:
 156              		.loc 2 612 3 is_stmt 0 view .LVU39
 157              	.LBE102:
 158              	.LBE103:
 159              		.loc 1 95 5 view .LVU40
 160 002a FFF7FEFF 		bl	chSchWakeupS
 161              	.LVL8:
 162              		.loc 1 97 3 is_stmt 1 view .LVU41
 163              	.LBB104:
 164              	.LBI104:
 165              		.loc 3 365 20 view .LVU42
 166              	.LBB105:
 167              		.loc 3 367 22 view .LVU43
 168              		.loc 3 368 33 view .LVU44
 169              		.loc 3 374 3 view .LVU45
ARM GAS  /tmp/ccrjo3kL.s 			page 4


 170              		.loc 3 374 3 view .LVU46
 171              		.loc 3 378 3 view .LVU47
 172              	.LBB106:
 173              	.LBI106:
 174              		.loc 4 693 27 view .LVU48
 175              	.LBE106:
 176              	.LBE105:
 177              	.LBE104:
 178              		.loc 4 696 3 view .LVU49
 179              	.LBB117:
 180              	.LBB114:
 181              	.LBB111:
 182              	.LBB107:
 183              	.LBI107:
 184              		.loc 5 491 27 view .LVU50
 185              	.LBB108:
 186              		.loc 5 493 3 view .LVU51
 187 002e 0023     		movs	r3, #0
 188              		.syntax unified
 189              	@ 493 "../../../external/ChibiOS/os/common/ext/ARM/CMSIS/Core/Include/cmsis_gcc.h" 1
 190 0030 83F31188 		MSR basepri, r3
 191              	@ 0 "" 2
 192              	.LVL9:
 193              		.loc 5 493 3 is_stmt 0 view .LVU52
 194              		.thumb
 195              		.syntax unified
 196              	.LBE108:
 197              	.LBE107:
 198              	.LBE111:
 199              	.LBE114:
 200              	.LBE117:
 201              		.loc 1 98 1 view .LVU53
 202 0034 10BD     		pop	{r4, pc}
 203              	.LVL10:
 204              	.L6:
 205              		.cfi_def_cfa_offset 0
 206              		.cfi_restore 4
 207              		.cfi_restore 14
 208              		.loc 1 97 3 is_stmt 1 view .LVU54
 209              	.LBB118:
 210              		.loc 3 365 20 view .LVU55
 211              	.LBB115:
 212              		.loc 3 367 22 view .LVU56
 213              		.loc 3 368 33 view .LVU57
 214              		.loc 3 374 3 view .LVU58
 215              		.loc 3 374 3 view .LVU59
 216              		.loc 3 378 3 view .LVU60
 217              	.LBB112:
 218              		.loc 4 693 27 view .LVU61
 219              	.LBE112:
 220              	.LBE115:
 221              	.LBE118:
 222              		.loc 4 696 3 view .LVU62
 223              	.LBB119:
 224              	.LBB116:
 225              	.LBB113:
 226              	.LBB110:
ARM GAS  /tmp/ccrjo3kL.s 			page 5


 227              		.loc 5 491 27 view .LVU63
 228              	.LBB109:
 229              		.loc 5 493 3 view .LVU64
 230 0036 0023     		movs	r3, #0
 231              		.syntax unified
 232              	@ 493 "../../../external/ChibiOS/os/common/ext/ARM/CMSIS/Core/Include/cmsis_gcc.h" 1
 233 0038 83F31188 		MSR basepri, r3
 234              	@ 0 "" 2
 235              	.LVL11:
 236              		.loc 5 493 3 is_stmt 0 view .LVU65
 237              		.thumb
 238              		.syntax unified
 239 003c 7047     		bx	lr
 240              	.LBE109:
 241              	.LBE110:
 242              	.LBE113:
 243              	.LBE116:
 244              	.LBE119:
 245              		.cfi_endproc
 246              	.LFE324:
 247              		.size	chCondSignal, .-chCondSignal
 248              		.align	1
 249 003e 00BF     		.p2align 4,,15
 250              		.global	chCondSignalI
 251              		.syntax unified
 252              		.thumb
 253              		.thumb_func
 254              		.fpu fpv4-sp-d16
 255              		.type	chCondSignalI, %function
 256              	chCondSignalI:
 257              	.LVL12:
 258              	.LFB325:
 259              		.loc 1 111 46 is_stmt 1 view -0
 260              		.cfi_startproc
 261              		@ args = 0, pretend = 0, frame = 0
 262              		@ frame_needed = 0, uses_anonymous_args = 0
 263              		@ link register save eliminated.
 264              		.loc 1 113 21 view .LVU67
 265              		.loc 1 114 3 view .LVU68
 266              		.loc 1 114 3 view .LVU69
 267              		.loc 1 116 3 view .LVU70
 268              	.LBB120:
 269              	.LBI120:
 270              		.loc 2 564 20 view .LVU71
 271              	.LBB121:
 272              		.loc 2 566 3 view .LVU72
 273              		.loc 2 566 20 is_stmt 0 view .LVU73
 274 0040 0268     		ldr	r2, [r0]
 275              	.LVL13:
 276              		.loc 2 566 20 view .LVU74
 277              	.LBE121:
 278              	.LBE120:
 279              		.loc 1 116 6 view .LVU75
 280 0042 9042     		cmp	r0, r2
 281 0044 0BD0     		beq	.L9
 282 0046 0346     		mov	r3, r0
 283              	.LBB122:
ARM GAS  /tmp/ccrjo3kL.s 			page 6


 284              		.loc 1 117 5 is_stmt 1 view .LVU76
 285              	.LVL14:
 286              	.LBB123:
 287              	.LBI123:
 288              		.loc 2 606 25 view .LVU77
 289              	.LBB124:
 290              		.loc 2 607 3 view .LVU78
 291              		.loc 2 609 3 view .LVU79
 292              		.loc 2 609 36 is_stmt 0 view .LVU80
 293 0048 1168     		ldr	r1, [r2]
 294              	.LBE124:
 295              	.LBE123:
 296              		.loc 1 119 12 view .LVU81
 297 004a 1046     		mov	r0, r2
 298              	.LVL15:
 299              		.loc 1 119 12 view .LVU82
 300              	.LBE122:
 301              		.loc 1 111 46 view .LVU83
 302 004c 10B4     		push	{r4}
 303              		.cfi_def_cfa_offset 4
 304              		.cfi_offset 4, -4
 305              	.LBB127:
 306              		.loc 1 118 18 view .LVU84
 307 004e 0024     		movs	r4, #0
 308              	.LBB126:
 309              	.LBB125:
 310              		.loc 2 609 25 view .LVU85
 311 0050 1960     		str	r1, [r3]
 312              		.loc 2 610 3 is_stmt 1 view .LVU86
 313              		.loc 2 610 25 is_stmt 0 view .LVU87
 314 0052 4B60     		str	r3, [r1, #4]
 315              		.loc 2 612 3 is_stmt 1 view .LVU88
 316              	.LVL16:
 317              		.loc 2 612 3 is_stmt 0 view .LVU89
 318              	.LBE125:
 319              	.LBE126:
 320              		.loc 1 118 5 is_stmt 1 view .LVU90
 321              		.loc 1 118 18 is_stmt 0 view .LVU91
 322 0054 5462     		str	r4, [r2, #36]
 323              		.loc 1 119 5 is_stmt 1 view .LVU92
 324              	.LBE127:
 325              		.loc 1 121 1 is_stmt 0 view .LVU93
 326 0056 5DF8044B 		ldr	r4, [sp], #4
 327              		.cfi_restore 4
 328              		.cfi_def_cfa_offset 0
 329              	.LBB128:
 330              		.loc 1 119 12 view .LVU94
 331 005a FFF7FEBF 		b	chSchReadyI
 332              	.LVL17:
 333              	.L9:
 334              		.loc 1 119 12 view .LVU95
 335 005e 7047     		bx	lr
 336              	.LBE128:
 337              		.cfi_endproc
 338              	.LFE325:
 339              		.size	chCondSignalI, .-chCondSignalI
 340              		.align	1
ARM GAS  /tmp/ccrjo3kL.s 			page 7


 341              		.p2align 4,,15
 342              		.global	chCondBroadcast
 343              		.syntax unified
 344              		.thumb
 345              		.thumb_func
 346              		.fpu fpv4-sp-d16
 347              		.type	chCondBroadcast, %function
 348              	chCondBroadcast:
 349              	.LVL18:
 350              	.LFB326:
 351              		.loc 1 130 48 is_stmt 1 view -0
 352              		.cfi_startproc
 353              		@ args = 0, pretend = 0, frame = 0
 354              		@ frame_needed = 0, uses_anonymous_args = 0
 355              		.loc 1 132 3 view .LVU97
 356              	.LBB129:
 357              	.LBI129:
 358              		.loc 3 353 20 view .LVU98
 359              	.LBE129:
 360              		.loc 3 355 3 view .LVU99
 361              	.LBB137:
 362              	.LBB130:
 363              	.LBI130:
 364              		.loc 4 669 27 view .LVU100
 365              	.LBE130:
 366              	.LBE137:
 367              		.loc 4 677 3 view .LVU101
 368              	.LBB138:
 369              	.LBB135:
 370              	.LBB131:
 371              	.LBI131:
 372              		.loc 5 491 27 view .LVU102
 373              	.LBB132:
 374              		.loc 5 493 3 view .LVU103
 375              	.LBE132:
 376              	.LBE131:
 377              	.LBE135:
 378              	.LBE138:
 379              		.loc 1 130 48 is_stmt 0 view .LVU104
 380 0060 38B5     		push	{r3, r4, r5, lr}
 381              		.cfi_def_cfa_offset 16
 382              		.cfi_offset 3, -16
 383              		.cfi_offset 4, -12
 384              		.cfi_offset 5, -8
 385              		.cfi_offset 14, -4
 386              	.LBB139:
 387              	.LBB136:
 388              	.LBB134:
 389              	.LBB133:
 390              		.loc 5 493 3 view .LVU105
 391 0062 2023     		movs	r3, #32
 392              		.syntax unified
 393              	@ 493 "../../../external/ChibiOS/os/common/ext/ARM/CMSIS/Core/Include/cmsis_gcc.h" 1
 394 0064 83F31188 		MSR basepri, r3
 395              	@ 0 "" 2
 396              	.LVL19:
 397              		.loc 5 493 3 view .LVU106
ARM GAS  /tmp/ccrjo3kL.s 			page 8


 398              		.thumb
 399              		.syntax unified
 400              	.LBE133:
 401              	.LBE134:
 402              	.LBE136:
 403              	.LBE139:
 404              		.loc 3 356 34 is_stmt 1 view .LVU107
 405              		.loc 3 357 20 view .LVU108
 406              	.LBB140:
 407              	.LBB141:
 408              	.LBB142:
 409              	.LBI142:
 410              		.loc 2 564 20 view .LVU109
 411              	.LBB143:
 412              		.loc 2 566 3 view .LVU110
 413              		.loc 2 566 20 is_stmt 0 view .LVU111
 414 0068 0368     		ldr	r3, [r0]
 415              	.LVL20:
 416              		.loc 2 566 20 view .LVU112
 417              	.LBE143:
 418              	.LBE142:
 419              		.loc 1 157 9 view .LVU113
 420 006a 9842     		cmp	r0, r3
 421 006c 0CD0     		beq	.L15
 422 006e 0446     		mov	r4, r0
 423              		.loc 1 158 58 view .LVU114
 424 0070 6FF00105 		mvn	r5, #1
 425              	.LVL21:
 426              	.L16:
 427              		.loc 1 158 5 is_stmt 1 view .LVU115
 428              	.LBB146:
 429              	.LBI146:
 430              		.loc 2 606 25 view .LVU116
 431              	.LBB147:
 432              		.loc 2 607 3 view .LVU117
 433              		.loc 2 609 3 view .LVU118
 434              		.loc 2 609 36 is_stmt 0 view .LVU119
 435 0074 1A68     		ldr	r2, [r3]
 436              	.LBE147:
 437              	.LBE146:
 438              		.loc 1 158 5 view .LVU120
 439 0076 1846     		mov	r0, r3
 440              	.LBB149:
 441              	.LBB148:
 442              		.loc 2 609 25 view .LVU121
 443 0078 2260     		str	r2, [r4]
 444              		.loc 2 610 3 is_stmt 1 view .LVU122
 445              		.loc 2 610 25 is_stmt 0 view .LVU123
 446 007a 5460     		str	r4, [r2, #4]
 447              		.loc 2 612 3 is_stmt 1 view .LVU124
 448              	.LVL22:
 449              		.loc 2 612 3 is_stmt 0 view .LVU125
 450              	.LBE148:
 451              	.LBE149:
 452              		.loc 1 158 5 view .LVU126
 453 007c FFF7FEFF 		bl	chSchReadyI
 454              	.LVL23:
ARM GAS  /tmp/ccrjo3kL.s 			page 9


 455              	.LBB150:
 456              	.LBB144:
 457              		.loc 2 566 20 view .LVU127
 458 0080 2368     		ldr	r3, [r4]
 459              	.LBE144:
 460              	.LBE150:
 461              		.loc 1 158 58 view .LVU128
 462 0082 4562     		str	r5, [r0, #36]
 463              	.LVL24:
 464              	.LBB151:
 465              		.loc 2 564 20 is_stmt 1 view .LVU129
 466              	.LBB145:
 467              		.loc 2 566 3 view .LVU130
 468              		.loc 2 566 3 is_stmt 0 view .LVU131
 469              	.LBE145:
 470              	.LBE151:
 471              		.loc 1 157 9 view .LVU132
 472 0084 A342     		cmp	r3, r4
 473 0086 F5D1     		bne	.L16
 474              	.LVL25:
 475              	.L15:
 476              		.loc 1 157 9 view .LVU133
 477              	.LBE141:
 478              	.LBE140:
 479              		.loc 1 134 3 is_stmt 1 view .LVU134
 480 0088 FFF7FEFF 		bl	chSchRescheduleS
 481              	.LVL26:
 482              		.loc 1 135 3 view .LVU135
 483              	.LBB152:
 484              	.LBI152:
 485              		.loc 3 365 20 view .LVU136
 486              	.LBB153:
 487              		.loc 3 367 22 view .LVU137
 488              		.loc 3 368 33 view .LVU138
 489              		.loc 3 374 3 view .LVU139
 490              		.loc 3 374 3 view .LVU140
 491              		.loc 3 378 3 view .LVU141
 492              	.LBB154:
 493              	.LBI154:
 494              		.loc 4 693 27 view .LVU142
 495              	.LBE154:
 496              	.LBE153:
 497              	.LBE152:
 498              		.loc 4 696 3 view .LVU143
 499              	.LBB159:
 500              	.LBB158:
 501              	.LBB157:
 502              	.LBB155:
 503              	.LBI155:
 504              		.loc 5 491 27 view .LVU144
 505              	.LBB156:
 506              		.loc 5 493 3 view .LVU145
 507 008c 0023     		movs	r3, #0
 508              		.syntax unified
 509              	@ 493 "../../../external/ChibiOS/os/common/ext/ARM/CMSIS/Core/Include/cmsis_gcc.h" 1
 510 008e 83F31188 		MSR basepri, r3
 511              	@ 0 "" 2
ARM GAS  /tmp/ccrjo3kL.s 			page 10


 512              	.LVL27:
 513              		.loc 5 493 3 is_stmt 0 view .LVU146
 514              		.thumb
 515              		.syntax unified
 516              	.LBE156:
 517              	.LBE155:
 518              	.LBE157:
 519              	.LBE158:
 520              	.LBE159:
 521              		.loc 1 136 1 view .LVU147
 522 0092 38BD     		pop	{r3, r4, r5, pc}
 523              		.cfi_endproc
 524              	.LFE326:
 525              		.size	chCondBroadcast, .-chCondBroadcast
 526              		.align	1
 527 0094 AFF30080 		.p2align 4,,15
 527      AFF30080 
 527      AFF30080 
 528              		.global	chCondBroadcastI
 529              		.syntax unified
 530              		.thumb
 531              		.thumb_func
 532              		.fpu fpv4-sp-d16
 533              		.type	chCondBroadcastI, %function
 534              	chCondBroadcastI:
 535              	.LVL28:
 536              	.LFB327:
 537              		.loc 1 149 49 is_stmt 1 view -0
 538              		.cfi_startproc
 539              		@ args = 0, pretend = 0, frame = 0
 540              		@ frame_needed = 0, uses_anonymous_args = 0
 541              		.loc 1 151 21 view .LVU149
 542              		.loc 1 152 3 view .LVU150
 543              		.loc 1 152 3 view .LVU151
 544              		.loc 1 157 3 view .LVU152
 545              	.LBB160:
 546              	.LBI160:
 547              		.loc 2 564 20 view .LVU153
 548              	.LBB161:
 549              		.loc 2 566 3 view .LVU154
 550              	.LBE161:
 551              	.LBE160:
 552              		.loc 1 149 49 is_stmt 0 view .LVU155
 553 00a0 38B5     		push	{r3, r4, r5, lr}
 554              		.cfi_def_cfa_offset 16
 555              		.cfi_offset 3, -16
 556              		.cfi_offset 4, -12
 557              		.cfi_offset 5, -8
 558              		.cfi_offset 14, -4
 559              	.LBB165:
 560              	.LBB162:
 561              		.loc 2 566 20 view .LVU156
 562 00a2 0368     		ldr	r3, [r0]
 563              	.LVL29:
 564              		.loc 2 566 20 view .LVU157
 565              	.LBE162:
 566              	.LBE165:
ARM GAS  /tmp/ccrjo3kL.s 			page 11


 567              		.loc 1 157 9 view .LVU158
 568 00a4 8342     		cmp	r3, r0
 569 00a6 0CD0     		beq	.L19
 570 00a8 0446     		mov	r4, r0
 571              		.loc 1 158 58 view .LVU159
 572 00aa 6FF00105 		mvn	r5, #1
 573              	.LVL30:
 574              	.L21:
 575              		.loc 1 158 5 is_stmt 1 view .LVU160
 576              	.LBB166:
 577              	.LBI166:
 578              		.loc 2 606 25 view .LVU161
 579              	.LBB167:
 580              		.loc 2 607 3 view .LVU162
 581              		.loc 2 609 3 view .LVU163
 582              		.loc 2 609 36 is_stmt 0 view .LVU164
 583 00ae 1A68     		ldr	r2, [r3]
 584              	.LBE167:
 585              	.LBE166:
 586              		.loc 1 158 5 view .LVU165
 587 00b0 1846     		mov	r0, r3
 588              	.LBB169:
 589              	.LBB168:
 590              		.loc 2 609 25 view .LVU166
 591 00b2 2260     		str	r2, [r4]
 592              		.loc 2 610 3 is_stmt 1 view .LVU167
 593              		.loc 2 610 25 is_stmt 0 view .LVU168
 594 00b4 5460     		str	r4, [r2, #4]
 595              		.loc 2 612 3 is_stmt 1 view .LVU169
 596              	.LVL31:
 597              		.loc 2 612 3 is_stmt 0 view .LVU170
 598              	.LBE168:
 599              	.LBE169:
 600              		.loc 1 158 5 view .LVU171
 601 00b6 FFF7FEFF 		bl	chSchReadyI
 602              	.LVL32:
 603              	.LBB170:
 604              	.LBB163:
 605              		.loc 2 566 20 view .LVU172
 606 00ba 2368     		ldr	r3, [r4]
 607              	.LBE163:
 608              	.LBE170:
 609              		.loc 1 158 58 view .LVU173
 610 00bc 4562     		str	r5, [r0, #36]
 611              	.LVL33:
 612              	.LBB171:
 613              		.loc 2 564 20 is_stmt 1 view .LVU174
 614              	.LBB164:
 615              		.loc 2 566 3 view .LVU175
 616              		.loc 2 566 3 is_stmt 0 view .LVU176
 617              	.LBE164:
 618              	.LBE171:
 619              		.loc 1 157 9 view .LVU177
 620 00be A342     		cmp	r3, r4
 621 00c0 F5D1     		bne	.L21
 622              	.LVL34:
 623              	.L19:
ARM GAS  /tmp/ccrjo3kL.s 			page 12


 624              		.loc 1 160 1 view .LVU178
 625 00c2 38BD     		pop	{r3, r4, r5, pc}
 626              		.cfi_endproc
 627              	.LFE327:
 628              		.size	chCondBroadcastI, .-chCondBroadcastI
 629              		.align	1
 630 00c4 AFF30080 		.p2align 4,,15
 630      AFF30080 
 630      AFF30080 
 631              		.global	chCondWaitS
 632              		.syntax unified
 633              		.thumb
 634              		.thumb_func
 635              		.fpu fpv4-sp-d16
 636              		.type	chCondWaitS, %function
 637              	chCondWaitS:
 638              	.LVL35:
 639              	.LFB329:
 640              		.loc 1 205 45 is_stmt 1 view -0
 641              		.cfi_startproc
 642              		@ args = 0, pretend = 0, frame = 0
 643              		@ frame_needed = 0, uses_anonymous_args = 0
 644              		.loc 1 206 3 view .LVU180
 645              		.loc 1 206 13 is_stmt 0 view .LVU181
 646 00d0 0F4B     		ldr	r3, .L30
 647              		.loc 1 205 45 view .LVU182
 648 00d2 70B5     		push	{r4, r5, r6, lr}
 649              		.cfi_def_cfa_offset 16
 650              		.cfi_offset 4, -16
 651              		.cfi_offset 5, -12
 652              		.cfi_offset 6, -8
 653              		.cfi_offset 14, -4
 654              		.loc 1 206 13 view .LVU183
 655 00d4 9C69     		ldr	r4, [r3, #24]
 656              	.LVL36:
 657              		.loc 1 207 3 is_stmt 1 view .LVU184
 658              	.LBB172:
 659              	.LBI172:
 660              		.file 6 "../../../external/ChibiOS/os/rt/include/chmtx.h"
 661              		.loc 6 159 24 view .LVU185
 662              	.LBB173:
 663              		.loc 6 161 3 view .LVU186
 664              	.LBE173:
 665              	.LBE172:
 666              		.file 7 "../../../external/ChibiOS/os/rt/include/chthreads.h"
 667              		.loc 7 274 3 view .LVU187
 668              		.loc 1 205 45 is_stmt 0 view .LVU188
 669 00d6 0546     		mov	r5, r0
 670              	.LBB175:
 671              	.LBB174:
 672              		.loc 6 161 25 view .LVU189
 673 00d8 A66B     		ldr	r6, [r4, #56]
 674              	.LVL37:
 675              		.loc 6 161 25 view .LVU190
 676              	.LBE174:
 677              	.LBE175:
 678              		.loc 1 208 3 is_stmt 1 view .LVU191
ARM GAS  /tmp/ccrjo3kL.s 			page 13


 679              		.loc 1 210 21 view .LVU192
 680              		.loc 1 211 3 view .LVU193
 681              		.loc 1 211 3 view .LVU194
 682              		.loc 1 212 3 view .LVU195
 683              		.loc 1 212 3 view .LVU196
 684              		.loc 1 215 3 view .LVU197
 685 00da 3046     		mov	r0, r6
 686              	.LVL38:
 687              		.loc 1 215 3 is_stmt 0 view .LVU198
 688 00dc FFF7FEFF 		bl	chMtxUnlockS
 689              	.LVL39:
 690              		.loc 1 219 3 is_stmt 1 view .LVU199
 691              	.LBB176:
 692              	.LBB177:
 693              		.loc 2 588 13 is_stmt 0 view .LVU200
 694 00e0 2B46     		mov	r3, r5
 695              	.LBE177:
 696              	.LBE176:
 697              		.loc 1 219 17 view .LVU201
 698 00e2 6562     		str	r5, [r4, #36]
 699              		.loc 1 220 3 is_stmt 1 view .LVU202
 700              	.LVL40:
 701              	.LBB180:
 702              	.LBI176:
 703              		.loc 2 586 20 view .LVU203
 704 00e4 03E0     		b	.L26
 705              	.LVL41:
 706              	.L29:
 707              	.LBB178:
 708              		.loc 2 591 36 is_stmt 0 view .LVU204
 709 00e6 9968     		ldr	r1, [r3, #8]
 710 00e8 A268     		ldr	r2, [r4, #8]
 711 00ea 9142     		cmp	r1, r2
 712 00ec 02D3     		bcc	.L25
 713              	.LVL42:
 714              	.L26:
 715              		.loc 2 589 3 is_stmt 1 view .LVU205
 716              		.loc 2 590 5 view .LVU206
 717              		.loc 2 590 8 is_stmt 0 view .LVU207
 718 00ee 1B68     		ldr	r3, [r3]
 719              	.LVL43:
 720              		.loc 2 591 3 view .LVU208
 721 00f0 9D42     		cmp	r5, r3
 722 00f2 F8D1     		bne	.L29
 723              	.L25:
 724              		.loc 2 592 3 is_stmt 1 view .LVU209
 725              		.loc 2 593 41 is_stmt 0 view .LVU210
 726 00f4 5A68     		ldr	r2, [r3, #4]
 727              	.LBE178:
 728              	.LBE180:
 729              		.loc 1 221 3 view .LVU211
 730 00f6 0720     		movs	r0, #7
 731              	.LBB181:
 732              	.LBB179:
 733              		.loc 2 593 30 view .LVU212
 734 00f8 C4E90032 		strd	r3, r2, [r4]
 735              		.loc 2 594 3 is_stmt 1 view .LVU213
ARM GAS  /tmp/ccrjo3kL.s 			page 14


 736              		.loc 2 594 30 is_stmt 0 view .LVU214
 737 00fc 1460     		str	r4, [r2]
 738              		.loc 2 595 3 is_stmt 1 view .LVU215
 739              		.loc 2 595 30 is_stmt 0 view .LVU216
 740 00fe 5C60     		str	r4, [r3, #4]
 741              	.LVL44:
 742              		.loc 2 595 30 view .LVU217
 743              	.LBE179:
 744              	.LBE181:
 745              		.loc 1 221 3 is_stmt 1 view .LVU218
 746 0100 FFF7FEFF 		bl	chSchGoSleepS
 747              	.LVL45:
 748              		.loc 1 222 3 view .LVU219
 749              		.loc 1 222 7 is_stmt 0 view .LVU220
 750 0104 646A     		ldr	r4, [r4, #36]
 751              	.LVL46:
 752              		.loc 1 223 3 is_stmt 1 view .LVU221
 753 0106 3046     		mov	r0, r6
 754 0108 FFF7FEFF 		bl	chMtxLockS
 755              	.LVL47:
 756              		.loc 1 225 3 view .LVU222
 757              		.loc 1 226 1 is_stmt 0 view .LVU223
 758 010c 2046     		mov	r0, r4
 759 010e 70BD     		pop	{r4, r5, r6, pc}
 760              	.LVL48:
 761              	.L31:
 762              		.loc 1 226 1 view .LVU224
 763              		.align	2
 764              	.L30:
 765 0110 00000000 		.word	ch
 766              		.cfi_endproc
 767              	.LFE329:
 768              		.size	chCondWaitS, .-chCondWaitS
 769              		.align	1
 770 0114 AFF30080 		.p2align 4,,15
 770      AFF30080 
 770      AFF30080 
 771              		.global	chCondWait
 772              		.syntax unified
 773              		.thumb
 774              		.thumb_func
 775              		.fpu fpv4-sp-d16
 776              		.type	chCondWait, %function
 777              	chCondWait:
 778              	.LVL49:
 779              	.LFB328:
 780              		.loc 1 179 44 is_stmt 1 view -0
 781              		.cfi_startproc
 782              		@ args = 0, pretend = 0, frame = 0
 783              		@ frame_needed = 0, uses_anonymous_args = 0
 784              		.loc 1 180 3 view .LVU226
 785              		.loc 1 182 3 view .LVU227
 786              	.LBB182:
 787              	.LBI182:
 788              		.loc 3 353 20 view .LVU228
 789              	.LBE182:
 790              		.loc 3 355 3 view .LVU229
ARM GAS  /tmp/ccrjo3kL.s 			page 15


 791              	.LBB190:
 792              	.LBB183:
 793              	.LBI183:
 794              		.loc 4 669 27 view .LVU230
 795              	.LBE183:
 796              	.LBE190:
 797              		.loc 4 677 3 view .LVU231
 798              	.LBB191:
 799              	.LBB188:
 800              	.LBB184:
 801              	.LBI184:
 802              		.loc 5 491 27 view .LVU232
 803              	.LBB185:
 804              		.loc 5 493 3 view .LVU233
 805              	.LBE185:
 806              	.LBE184:
 807              	.LBE188:
 808              	.LBE191:
 809              		.loc 1 179 44 is_stmt 0 view .LVU234
 810 0120 08B5     		push	{r3, lr}
 811              		.cfi_def_cfa_offset 8
 812              		.cfi_offset 3, -8
 813              		.cfi_offset 14, -4
 814              	.LBB192:
 815              	.LBB189:
 816              	.LBB187:
 817              	.LBB186:
 818              		.loc 5 493 3 view .LVU235
 819 0122 2023     		movs	r3, #32
 820              		.syntax unified
 821              	@ 493 "../../../external/ChibiOS/os/common/ext/ARM/CMSIS/Core/Include/cmsis_gcc.h" 1
 822 0124 83F31188 		MSR basepri, r3
 823              	@ 0 "" 2
 824              	.LVL50:
 825              		.loc 5 493 3 view .LVU236
 826              		.thumb
 827              		.syntax unified
 828              	.LBE186:
 829              	.LBE187:
 830              	.LBE189:
 831              	.LBE192:
 832              		.loc 3 356 34 is_stmt 1 view .LVU237
 833              		.loc 3 357 20 view .LVU238
 834              		.loc 1 183 3 view .LVU239
 835              		.loc 1 183 9 is_stmt 0 view .LVU240
 836 0128 FFF7FEFF 		bl	chCondWaitS
 837              	.LVL51:
 838              		.loc 1 184 3 is_stmt 1 view .LVU241
 839              	.LBB193:
 840              	.LBI193:
 841              		.loc 3 365 20 view .LVU242
 842              	.LBB194:
 843              		.loc 3 367 22 view .LVU243
 844              		.loc 3 368 33 view .LVU244
 845              		.loc 3 374 3 view .LVU245
 846              		.loc 3 374 3 view .LVU246
 847              		.loc 3 378 3 view .LVU247
ARM GAS  /tmp/ccrjo3kL.s 			page 16


 848              	.LBB195:
 849              	.LBI195:
 850              		.loc 4 693 27 view .LVU248
 851              	.LBE195:
 852              	.LBE194:
 853              	.LBE193:
 854              		.loc 4 696 3 view .LVU249
 855              	.LBB200:
 856              	.LBB199:
 857              	.LBB198:
 858              	.LBB196:
 859              	.LBI196:
 860              		.loc 5 491 27 view .LVU250
 861              	.LBB197:
 862              		.loc 5 493 3 view .LVU251
 863 012c 0023     		movs	r3, #0
 864              		.syntax unified
 865              	@ 493 "../../../external/ChibiOS/os/common/ext/ARM/CMSIS/Core/Include/cmsis_gcc.h" 1
 866 012e 83F31188 		MSR basepri, r3
 867              	@ 0 "" 2
 868              	.LVL52:
 869              		.loc 5 493 3 is_stmt 0 view .LVU252
 870              		.thumb
 871              		.syntax unified
 872              	.LBE197:
 873              	.LBE196:
 874              	.LBE198:
 875              	.LBE199:
 876              	.LBE200:
 877              		.loc 1 185 3 is_stmt 1 view .LVU253
 878              		.loc 1 186 1 is_stmt 0 view .LVU254
 879 0132 08BD     		pop	{r3, pc}
 880              		.cfi_endproc
 881              	.LFE328:
 882              		.size	chCondWait, .-chCondWait
 883              		.align	1
 884 0134 AFF30080 		.p2align 4,,15
 884      AFF30080 
 884      AFF30080 
 885              		.global	chCondWaitTimeoutS
 886              		.syntax unified
 887              		.thumb
 888              		.thumb_func
 889              		.fpu fpv4-sp-d16
 890              		.type	chCondWaitTimeoutS, %function
 891              	chCondWaitTimeoutS:
 892              	.LVL53:
 893              	.LFB331:
 894              		.loc 1 295 75 is_stmt 1 view -0
 895              		.cfi_startproc
 896              		@ args = 0, pretend = 0, frame = 0
 897              		@ frame_needed = 0, uses_anonymous_args = 0
 898              		.loc 1 296 3 view .LVU256
 899              	.LBB201:
 900              	.LBI201:
 901              		.loc 6 159 24 view .LVU257
 902              	.LBB202:
ARM GAS  /tmp/ccrjo3kL.s 			page 17


 903              		.loc 6 161 3 view .LVU258
 904              	.LBB203:
 905              	.LBI203:
 906              		.loc 7 272 25 view .LVU259
 907              	.LBB204:
 908              		.loc 7 274 3 view .LVU260
 909              	.LBE204:
 910              	.LBE203:
 911              	.LBE202:
 912              	.LBE201:
 913              		.loc 1 295 75 is_stmt 0 view .LVU261
 914 0140 F8B5     		push	{r3, r4, r5, r6, r7, lr}
 915              		.cfi_def_cfa_offset 24
 916              		.cfi_offset 3, -24
 917              		.cfi_offset 4, -20
 918              		.cfi_offset 5, -16
 919              		.cfi_offset 6, -12
 920              		.cfi_offset 7, -8
 921              		.cfi_offset 14, -4
 922              	.LBB209:
 923              	.LBB207:
 924              	.LBB206:
 925              	.LBB205:
 926              		.loc 7 274 18 view .LVU262
 927 0142 124C     		ldr	r4, .L44
 928              	.LBE205:
 929              	.LBE206:
 930              	.LBE207:
 931              	.LBE209:
 932              		.loc 1 295 75 view .LVU263
 933 0144 0546     		mov	r5, r0
 934 0146 0F46     		mov	r7, r1
 935              	.LBB210:
 936              	.LBB208:
 937              		.loc 6 161 25 view .LVU264
 938 0148 A369     		ldr	r3, [r4, #24]
 939 014a 9E6B     		ldr	r6, [r3, #56]
 940              	.LVL54:
 941              		.loc 6 161 25 view .LVU265
 942              	.LBE208:
 943              	.LBE210:
 944              		.loc 1 297 3 is_stmt 1 view .LVU266
 945              		.loc 1 299 21 view .LVU267
 946              		.loc 1 300 3 view .LVU268
 947              		.loc 1 300 3 view .LVU269
 948              		.loc 1 301 3 view .LVU270
 949              		.loc 1 301 3 view .LVU271
 950              		.loc 1 304 3 view .LVU272
 951 014c 3046     		mov	r0, r6
 952              	.LVL55:
 953              		.loc 1 304 3 is_stmt 0 view .LVU273
 954 014e FFF7FEFF 		bl	chMtxUnlockS
 955              	.LVL56:
 956              		.loc 1 308 3 is_stmt 1 view .LVU274
 957 0152 A469     		ldr	r4, [r4, #24]
 958              	.LBB211:
 959              	.LBB212:
ARM GAS  /tmp/ccrjo3kL.s 			page 18


 960              		.loc 2 588 13 is_stmt 0 view .LVU275
 961 0154 2B46     		mov	r3, r5
 962              	.LBE212:
 963              	.LBE211:
 964              		.loc 1 308 19 view .LVU276
 965 0156 6562     		str	r5, [r4, #36]
 966              		.loc 1 309 3 is_stmt 1 view .LVU277
 967              	.LVL57:
 968              	.LBB216:
 969              	.LBI211:
 970              		.loc 2 586 20 view .LVU278
 971 0158 03E0     		b	.L36
 972              	.LVL58:
 973              	.L43:
 974              	.LBB213:
 975              		.loc 2 591 36 is_stmt 0 view .LVU279
 976 015a 9868     		ldr	r0, [r3, #8]
 977 015c A268     		ldr	r2, [r4, #8]
 978 015e 9042     		cmp	r0, r2
 979 0160 02D3     		bcc	.L35
 980              	.LVL59:
 981              	.L36:
 982              		.loc 2 589 3 is_stmt 1 view .LVU280
 983              		.loc 2 590 5 view .LVU281
 984              		.loc 2 590 8 is_stmt 0 view .LVU282
 985 0162 1B68     		ldr	r3, [r3]
 986              	.LVL60:
 987              		.loc 2 591 3 view .LVU283
 988 0164 9D42     		cmp	r5, r3
 989 0166 F8D1     		bne	.L43
 990              	.L35:
 991              		.loc 2 592 3 is_stmt 1 view .LVU284
 992              		.loc 2 593 41 is_stmt 0 view .LVU285
 993 0168 5A68     		ldr	r2, [r3, #4]
 994              	.LBE213:
 995              	.LBE216:
 996              		.loc 1 310 9 view .LVU286
 997 016a 3946     		mov	r1, r7
 998              	.LBB217:
 999              	.LBB214:
 1000              		.loc 2 592 30 view .LVU287
 1001 016c 2360     		str	r3, [r4]
 1002              		.loc 2 593 3 is_stmt 1 view .LVU288
 1003              	.LBE214:
 1004              	.LBE217:
 1005              		.loc 1 310 9 is_stmt 0 view .LVU289
 1006 016e 0720     		movs	r0, #7
 1007              	.LBB218:
 1008              	.LBB215:
 1009              		.loc 2 593 30 view .LVU290
 1010 0170 6260     		str	r2, [r4, #4]
 1011              		.loc 2 594 3 is_stmt 1 view .LVU291
 1012              		.loc 2 594 30 is_stmt 0 view .LVU292
 1013 0172 1460     		str	r4, [r2]
 1014              		.loc 2 595 3 is_stmt 1 view .LVU293
 1015              		.loc 2 595 30 is_stmt 0 view .LVU294
 1016 0174 5C60     		str	r4, [r3, #4]
ARM GAS  /tmp/ccrjo3kL.s 			page 19


 1017              	.LVL61:
 1018              		.loc 2 595 30 view .LVU295
 1019              	.LBE215:
 1020              	.LBE218:
 1021              		.loc 1 310 3 is_stmt 1 view .LVU296
 1022              		.loc 1 310 9 is_stmt 0 view .LVU297
 1023 0176 FFF7FEFF 		bl	chSchGoSleepTimeoutS
 1024              	.LVL62:
 1025              		.loc 1 311 6 view .LVU298
 1026 017a 431C     		adds	r3, r0, #1
 1027              		.loc 1 310 9 view .LVU299
 1028 017c 0446     		mov	r4, r0
 1029              	.LVL63:
 1030              		.loc 1 311 3 is_stmt 1 view .LVU300
 1031              		.loc 1 311 6 is_stmt 0 view .LVU301
 1032 017e 02D0     		beq	.L34
 1033              		.loc 1 312 5 is_stmt 1 view .LVU302
 1034 0180 3046     		mov	r0, r6
 1035              	.LVL64:
 1036              		.loc 1 312 5 is_stmt 0 view .LVU303
 1037 0182 FFF7FEFF 		bl	chMtxLockS
 1038              	.LVL65:
 1039              		.loc 1 315 3 is_stmt 1 view .LVU304
 1040              	.L34:
 1041              		.loc 1 316 1 is_stmt 0 view .LVU305
 1042 0186 2046     		mov	r0, r4
 1043 0188 F8BD     		pop	{r3, r4, r5, r6, r7, pc}
 1044              	.LVL66:
 1045              	.L45:
 1046              		.loc 1 316 1 view .LVU306
 1047 018a 00BF     		.align	2
 1048              	.L44:
 1049 018c 00000000 		.word	ch
 1050              		.cfi_endproc
 1051              	.LFE331:
 1052              		.size	chCondWaitTimeoutS, .-chCondWaitTimeoutS
 1053              		.align	1
 1054              		.p2align 4,,15
 1055              		.global	chCondWaitTimeout
 1056              		.syntax unified
 1057              		.thumb
 1058              		.thumb_func
 1059              		.fpu fpv4-sp-d16
 1060              		.type	chCondWaitTimeout, %function
 1061              	chCondWaitTimeout:
 1062              	.LVL67:
 1063              	.LFB330:
 1064              		.loc 1 257 74 is_stmt 1 view -0
 1065              		.cfi_startproc
 1066              		@ args = 0, pretend = 0, frame = 0
 1067              		@ frame_needed = 0, uses_anonymous_args = 0
 1068              		.loc 1 258 3 view .LVU308
 1069              		.loc 1 260 3 view .LVU309
 1070              	.LBB219:
 1071              	.LBI219:
 1072              		.loc 3 353 20 view .LVU310
 1073              	.LBE219:
ARM GAS  /tmp/ccrjo3kL.s 			page 20


 1074              		.loc 3 355 3 view .LVU311
 1075              	.LBB227:
 1076              	.LBB220:
 1077              	.LBI220:
 1078              		.loc 4 669 27 view .LVU312
 1079              	.LBE220:
 1080              	.LBE227:
 1081              		.loc 4 677 3 view .LVU313
 1082              	.LBB228:
 1083              	.LBB225:
 1084              	.LBB221:
 1085              	.LBI221:
 1086              		.loc 5 491 27 view .LVU314
 1087              	.LBB222:
 1088              		.loc 5 493 3 view .LVU315
 1089              	.LBE222:
 1090              	.LBE221:
 1091              	.LBE225:
 1092              	.LBE228:
 1093              		.loc 1 257 74 is_stmt 0 view .LVU316
 1094 0190 08B5     		push	{r3, lr}
 1095              		.cfi_def_cfa_offset 8
 1096              		.cfi_offset 3, -8
 1097              		.cfi_offset 14, -4
 1098              	.LBB229:
 1099              	.LBB226:
 1100              	.LBB224:
 1101              	.LBB223:
 1102              		.loc 5 493 3 view .LVU317
 1103 0192 2023     		movs	r3, #32
 1104              		.syntax unified
 1105              	@ 493 "../../../external/ChibiOS/os/common/ext/ARM/CMSIS/Core/Include/cmsis_gcc.h" 1
 1106 0194 83F31188 		MSR basepri, r3
 1107              	@ 0 "" 2
 1108              	.LVL68:
 1109              		.loc 5 493 3 view .LVU318
 1110              		.thumb
 1111              		.syntax unified
 1112              	.LBE223:
 1113              	.LBE224:
 1114              	.LBE226:
 1115              	.LBE229:
 1116              		.loc 3 356 34 is_stmt 1 view .LVU319
 1117              		.loc 3 357 20 view .LVU320
 1118              		.loc 1 261 3 view .LVU321
 1119              		.loc 1 261 9 is_stmt 0 view .LVU322
 1120 0198 FFF7FEFF 		bl	chCondWaitTimeoutS
 1121              	.LVL69:
 1122              		.loc 1 262 3 is_stmt 1 view .LVU323
 1123              	.LBB230:
 1124              	.LBI230:
 1125              		.loc 3 365 20 view .LVU324
 1126              	.LBB231:
 1127              		.loc 3 367 22 view .LVU325
 1128              		.loc 3 368 33 view .LVU326
 1129              		.loc 3 374 3 view .LVU327
 1130              		.loc 3 374 3 view .LVU328
ARM GAS  /tmp/ccrjo3kL.s 			page 21


 1131              		.loc 3 378 3 view .LVU329
 1132              	.LBB232:
 1133              	.LBI232:
 1134              		.loc 4 693 27 view .LVU330
 1135              	.LBE232:
 1136              	.LBE231:
 1137              	.LBE230:
 1138              		.loc 4 696 3 view .LVU331
 1139              	.LBB237:
 1140              	.LBB236:
 1141              	.LBB235:
 1142              	.LBB233:
 1143              	.LBI233:
 1144              		.loc 5 491 27 view .LVU332
 1145              	.LBB234:
 1146              		.loc 5 493 3 view .LVU333
 1147 019c 0023     		movs	r3, #0
 1148              		.syntax unified
 1149              	@ 493 "../../../external/ChibiOS/os/common/ext/ARM/CMSIS/Core/Include/cmsis_gcc.h" 1
 1150 019e 83F31188 		MSR basepri, r3
 1151              	@ 0 "" 2
 1152              	.LVL70:
 1153              		.loc 5 493 3 is_stmt 0 view .LVU334
 1154              		.thumb
 1155              		.syntax unified
 1156              	.LBE234:
 1157              	.LBE233:
 1158              	.LBE235:
 1159              	.LBE236:
 1160              	.LBE237:
 1161              		.loc 1 264 3 is_stmt 1 view .LVU335
 1162              		.loc 1 265 1 is_stmt 0 view .LVU336
 1163 01a2 08BD     		pop	{r3, pc}
 1164              		.cfi_endproc
 1165              	.LFE330:
 1166              		.size	chCondWaitTimeout, .-chCondWaitTimeout
 1167              	.Letext0:
 1168              		.file 8 "/home/nicolas/arm/gcc-arm-none-eabi-8-2019-q3-update/lib/gcc/arm-none-eabi/8.3.1/include/
 1169              		.file 9 "/home/nicolas/arm/gcc-arm-none-eabi-8-2019-q3-update/arm-none-eabi/include/machine/_defau
 1170              		.file 10 "/home/nicolas/arm/gcc-arm-none-eabi-8-2019-q3-update/arm-none-eabi/include/sys/_stdint.h
 1171              		.file 11 "../../../external/ChibiOS/os/common/ports/ARMCMx/compilers/GCC/chtypes.h"
 1172              		.file 12 "../../../external/ChibiOS/os/rt/include/chsystypes.h"
 1173              		.file 13 "../../../external/ChibiOS/os/rt/include/chtime.h"
 1174              		.file 14 "../../../external/ChibiOS/os/common/ext/ARM/CMSIS/Core/Include/core_cm7.h"
 1175              		.file 15 "../../../external/ChibiOS/os/common/ext/ST/STM32H7xx/system_stm32h7xx.h"
 1176              		.file 16 "../../../external/ChibiOS/os/common/ports/ARMCMx/chcore.h"
 1177              		.file 17 "../../../external/ChibiOS/os/rt/include/chtrace.h"
 1178              		.file 18 "../../../external/ChibiOS/os/rt/include/chtm.h"
 1179              		.file 19 "../../../external/ChibiOS/os/rt/include/chsem.h"
 1180              		.file 20 "../../../external/ChibiOS/os/rt/include/chregistry.h"
 1181              		.file 21 "../../../external/ChibiOS/os/rt/include/chcond.h"
 1182              		.file 22 "../../../external/ChibiOS/os/oslib/include/chmemcore.h"
 1183              		.file 23 "../../../external/ChibiOS/os/oslib/include/chmempools.h"
 1184              		.file 24 "../../../external/ChibiOS/os/oslib/include/chfactory.h"