ARM GAS  /tmp/ccFWkvbl.s 			page 1


   1              		.cpu cortex-m7
   2              		.eabi_attribute 27, 1
   3              		.eabi_attribute 28, 1
   4              		.eabi_attribute 20, 1
   5              		.eabi_attribute 21, 1
   6              		.eabi_attribute 23, 3
   7              		.eabi_attribute 24, 1
   8              		.eabi_attribute 25, 1
   9              		.eabi_attribute 26, 1
  10              		.eabi_attribute 30, 2
  11              		.eabi_attribute 34, 1
  12              		.eabi_attribute 18, 4
  13              		.file	"chdelegates.c"
  14              		.text
  15              	.Ltext0:
  16              		.cfi_sections	.debug_frame
  17              		.align	1
  18              		.p2align 4,,15
  19              		.global	__ch_delegate_fn0
  20              		.arch armv7e-m
  21              		.syntax unified
  22              		.thumb
  23              		.thumb_func
  24              		.fpu fpv4-sp-d16
  25              		.type	__ch_delegate_fn0, %function
  26              	__ch_delegate_fn0:
  27              	.LVL0:
  28              	.LFB323:
  29              		.file 1 "../../../external/ChibiOS/os/oslib/src/chdelegates.c"
  30              		.loc 1 88 41 view -0
  31              		.cfi_startproc
  32              		@ args = 0, pretend = 0, frame = 0
  33              		@ frame_needed = 0, uses_anonymous_args = 0
  34              		@ link register save eliminated.
  35              		.loc 1 89 3 view .LVU1
  36              		.loc 1 89 18 is_stmt 0 view .LVU2
  37 0000 0368     		ldr	r3, [r0]
  38 0002 1A1D     		adds	r2, r3, #4
  39 0004 0260     		str	r2, [r0]
  40              		.loc 1 90 3 is_stmt 1 view .LVU3
  41              		.loc 1 90 10 is_stmt 0 view .LVU4
  42 0006 1B68     		ldr	r3, [r3]
  43 0008 1847     		bx	r3
  44              	.LVL1:
  45              		.loc 1 90 10 view .LVU5
  46              		.cfi_endproc
  47              	.LFE323:
  48              		.size	__ch_delegate_fn0, .-__ch_delegate_fn0
  49              		.align	1
  50 000a 00BFAFF3 		.p2align 4,,15
  50      0080
  51              		.global	__ch_delegate_fn1
  52              		.syntax unified
  53              		.thumb
  54              		.thumb_func
  55              		.fpu fpv4-sp-d16
  56              		.type	__ch_delegate_fn1, %function
ARM GAS  /tmp/ccFWkvbl.s 			page 2


  57              	__ch_delegate_fn1:
  58              	.LVL2:
  59              	.LFB324:
  60              		.loc 1 99 41 is_stmt 1 view -0
  61              		.cfi_startproc
  62              		@ args = 0, pretend = 0, frame = 0
  63              		@ frame_needed = 0, uses_anonymous_args = 0
  64              		@ link register save eliminated.
  65              		.loc 1 100 3 view .LVU7
  66              		.loc 1 100 18 is_stmt 0 view .LVU8
  67 0010 0368     		ldr	r3, [r0]
  68              		.loc 1 99 41 view .LVU9
  69 0012 0246     		mov	r2, r0
  70              		.loc 1 100 18 view .LVU10
  71 0014 191D     		adds	r1, r3, #4
  72              		.loc 1 102 10 view .LVU11
  73 0016 5868     		ldr	r0, [r3, #4]
  74              	.LVL3:
  75              		.loc 1 100 18 view .LVU12
  76 0018 1160     		str	r1, [r2]
  77 001a 53F8081B 		ldr	r1, [r3], #8
  78              		.loc 1 101 3 is_stmt 1 view .LVU13
  79              		.loc 1 101 9 is_stmt 0 view .LVU14
  80 001e 1360     		str	r3, [r2]
  81              		.loc 1 102 3 is_stmt 1 view .LVU15
  82              		.loc 1 102 10 is_stmt 0 view .LVU16
  83 0020 0847     		bx	r1
  84              	.LVL4:
  85              		.loc 1 102 10 view .LVU17
  86              		.cfi_endproc
  87              	.LFE324:
  88              		.size	__ch_delegate_fn1, .-__ch_delegate_fn1
  89              		.align	1
  90 0022 00BFAFF3 		.p2align 4,,15
  90      0080AFF3 
  90      0080AFF3 
  90      0080
  91              		.global	__ch_delegate_fn2
  92              		.syntax unified
  93              		.thumb
  94              		.thumb_func
  95              		.fpu fpv4-sp-d16
  96              		.type	__ch_delegate_fn2, %function
  97              	__ch_delegate_fn2:
  98              	.LVL5:
  99              	.LFB325:
 100              		.loc 1 111 41 is_stmt 1 view -0
 101              		.cfi_startproc
 102              		@ args = 0, pretend = 0, frame = 0
 103              		@ frame_needed = 0, uses_anonymous_args = 0
 104              		@ link register save eliminated.
 105              		.loc 1 112 3 view .LVU19
 106              		.loc 1 112 18 is_stmt 0 view .LVU20
 107 0030 0368     		ldr	r3, [r0]
 108              		.loc 1 111 41 view .LVU21
 109 0032 0246     		mov	r2, r0
 110 0034 30B4     		push	{r4, r5}
ARM GAS  /tmp/ccFWkvbl.s 			page 3


 111              		.cfi_def_cfa_offset 8
 112              		.cfi_offset 4, -8
 113              		.cfi_offset 5, -4
 114              		.loc 1 112 18 view .LVU22
 115 0036 1D1D     		adds	r5, r3, #4
 116              		.loc 1 114 9 view .LVU23
 117 0038 03F10C04 		add	r4, r3, #12
 118              		.loc 1 113 9 view .LVU24
 119 003c 5868     		ldr	r0, [r3, #4]
 120              	.LVL6:
 121              		.loc 1 115 10 view .LVU25
 122 003e 9968     		ldr	r1, [r3, #8]
 123              		.loc 1 112 18 view .LVU26
 124 0040 1560     		str	r5, [r2]
 125 0042 1B68     		ldr	r3, [r3]
 126              		.loc 1 113 3 is_stmt 1 view .LVU27
 127              		.loc 1 114 3 view .LVU28
 128              		.loc 1 114 9 is_stmt 0 view .LVU29
 129 0044 1460     		str	r4, [r2]
 130              		.loc 1 115 3 is_stmt 1 view .LVU30
 131              		.loc 1 116 1 is_stmt 0 view .LVU31
 132 0046 30BC     		pop	{r4, r5}
 133              		.cfi_restore 5
 134              		.cfi_restore 4
 135              		.cfi_def_cfa_offset 0
 136              		.loc 1 115 10 view .LVU32
 137 0048 1847     		bx	r3
 138              	.LVL7:
 139              		.loc 1 115 10 view .LVU33
 140              		.cfi_endproc
 141              	.LFE325:
 142              		.size	__ch_delegate_fn2, .-__ch_delegate_fn2
 143              		.align	1
 144 004a 00BFAFF3 		.p2align 4,,15
 144      0080
 145              		.global	__ch_delegate_fn3
 146              		.syntax unified
 147              		.thumb
 148              		.thumb_func
 149              		.fpu fpv4-sp-d16
 150              		.type	__ch_delegate_fn3, %function
 151              	__ch_delegate_fn3:
 152              	.LVL8:
 153              	.LFB326:
 154              		.loc 1 124 41 is_stmt 1 view -0
 155              		.cfi_startproc
 156              		@ args = 0, pretend = 0, frame = 0
 157              		@ frame_needed = 0, uses_anonymous_args = 0
 158              		@ link register save eliminated.
 159              		.loc 1 125 3 view .LVU35
 160              		.loc 1 125 18 is_stmt 0 view .LVU36
 161 0050 0368     		ldr	r3, [r0]
 162              		.loc 1 124 41 view .LVU37
 163 0052 0246     		mov	r2, r0
 164 0054 30B4     		push	{r4, r5}
 165              		.cfi_def_cfa_offset 8
 166              		.cfi_offset 4, -8
ARM GAS  /tmp/ccFWkvbl.s 			page 4


 167              		.cfi_offset 5, -4
 168              		.loc 1 125 18 view .LVU38
 169 0056 1C1D     		adds	r4, r3, #4
 170              		.loc 1 128 9 view .LVU39
 171 0058 03F11005 		add	r5, r3, #16
 172              		.loc 1 127 9 view .LVU40
 173 005c D3E90101 		ldrd	r0, r1, [r3, #4]
 174              	.LVL9:
 175              		.loc 1 125 18 view .LVU41
 176 0060 1460     		str	r4, [r2]
 177 0062 1C68     		ldr	r4, [r3]
 178              		.loc 1 126 3 is_stmt 1 view .LVU42
 179              		.loc 1 127 3 view .LVU43
 180              		.loc 1 128 3 view .LVU44
 181              		.loc 1 128 9 is_stmt 0 view .LVU45
 182 0064 1560     		str	r5, [r2]
 183              		.loc 1 129 3 is_stmt 1 view .LVU46
 184              		.loc 1 129 10 is_stmt 0 view .LVU47
 185 0066 DA68     		ldr	r2, [r3, #12]
 186              	.LVL10:
 187              		.loc 1 129 10 view .LVU48
 188 0068 2346     		mov	r3, r4
 189              		.loc 1 130 1 view .LVU49
 190 006a 30BC     		pop	{r4, r5}
 191              		.cfi_restore 5
 192              		.cfi_restore 4
 193              		.cfi_def_cfa_offset 0
 194              		.loc 1 129 10 view .LVU50
 195 006c 1847     		bx	r3
 196              	.LVL11:
 197              		.cfi_endproc
 198              	.LFE326:
 199              		.size	__ch_delegate_fn3, .-__ch_delegate_fn3
 200              		.align	1
 201 006e 00BF     		.p2align 4,,15
 202              		.global	__ch_delegate_fn4
 203              		.syntax unified
 204              		.thumb
 205              		.thumb_func
 206              		.fpu fpv4-sp-d16
 207              		.type	__ch_delegate_fn4, %function
 208              	__ch_delegate_fn4:
 209              	.LVL12:
 210              	.LFB327:
 211              		.loc 1 138 41 is_stmt 1 view -0
 212              		.cfi_startproc
 213              		@ args = 0, pretend = 0, frame = 0
 214              		@ frame_needed = 0, uses_anonymous_args = 0
 215              		@ link register save eliminated.
 216              		.loc 1 139 3 view .LVU52
 217              		.loc 1 139 18 is_stmt 0 view .LVU53
 218 0070 0368     		ldr	r3, [r0]
 219              		.loc 1 138 41 view .LVU54
 220 0072 70B4     		push	{r4, r5, r6}
 221              		.cfi_def_cfa_offset 12
 222              		.cfi_offset 4, -12
 223              		.cfi_offset 5, -8
ARM GAS  /tmp/ccFWkvbl.s 			page 5


 224              		.cfi_offset 6, -4
 225              		.loc 1 138 41 view .LVU55
 226 0074 0446     		mov	r4, r0
 227              		.loc 1 139 18 view .LVU56
 228 0076 1D1D     		adds	r5, r3, #4
 229              		.loc 1 143 9 view .LVU57
 230 0078 03F11406 		add	r6, r3, #20
 231              		.loc 1 142 9 view .LVU58
 232 007c DA68     		ldr	r2, [r3, #12]
 233              		.loc 1 141 9 view .LVU59
 234 007e D3E90101 		ldrd	r0, r1, [r3, #4]
 235              	.LVL13:
 236              		.loc 1 139 18 view .LVU60
 237 0082 2560     		str	r5, [r4]
 238 0084 1D68     		ldr	r5, [r3]
 239              		.loc 1 140 3 is_stmt 1 view .LVU61
 240              		.loc 1 141 3 view .LVU62
 241              		.loc 1 142 3 view .LVU63
 242              		.loc 1 143 3 view .LVU64
 243              		.loc 1 143 9 is_stmt 0 view .LVU65
 244 0086 2660     		str	r6, [r4]
 245              		.loc 1 144 3 is_stmt 1 view .LVU66
 246              		.loc 1 144 10 is_stmt 0 view .LVU67
 247 0088 AC46     		mov	ip, r5
 248 008a 1B69     		ldr	r3, [r3, #16]
 249              		.loc 1 145 1 view .LVU68
 250 008c 70BC     		pop	{r4, r5, r6}
 251              		.cfi_restore 6
 252              		.cfi_restore 5
 253              		.cfi_restore 4
 254              		.cfi_def_cfa_offset 0
 255              	.LVL14:
 256              		.loc 1 144 10 view .LVU69
 257 008e 6047     		bx	ip
 258              	.LVL15:
 259              		.cfi_endproc
 260              	.LFE327:
 261              		.size	__ch_delegate_fn4, .-__ch_delegate_fn4
 262              		.align	1
 263              		.p2align 4,,15
 264              		.global	chDelegateCallVeneer
 265              		.syntax unified
 266              		.thumb
 267              		.thumb_func
 268              		.fpu fpv4-sp-d16
 269              		.type	chDelegateCallVeneer, %function
 270              	chDelegateCallVeneer:
 271              	.LVL16:
 272              	.LFB328:
 273              		.loc 1 158 73 is_stmt 1 view -0
 274              		.cfi_startproc
 275              		@ args = 4, pretend = 12, frame = 16
 276              		@ frame_needed = 0, uses_anonymous_args = 1
 277              		.loc 1 159 3 view .LVU71
 278              		.loc 1 160 3 view .LVU72
 279              		.loc 1 161 3 view .LVU73
 280              		.loc 1 163 3 view .LVU74
ARM GAS  /tmp/ccFWkvbl.s 			page 6


 281              		.loc 1 158 73 is_stmt 0 view .LVU75
 282 0090 0EB4     		push	{r1, r2, r3}
 283              		.cfi_def_cfa_offset 12
 284              		.cfi_offset 1, -12
 285              		.cfi_offset 2, -8
 286              		.cfi_offset 3, -4
 287 0092 10B5     		push	{r4, lr}
 288              		.cfi_def_cfa_offset 20
 289              		.cfi_offset 4, -20
 290              		.cfi_offset 14, -16
 291 0094 85B0     		sub	sp, sp, #20
 292              		.cfi_def_cfa_offset 40
 293              		.loc 1 158 73 view .LVU76
 294 0096 07AB     		add	r3, sp, #28
 295              		.loc 1 167 13 view .LVU77
 296 0098 01AC     		add	r4, sp, #4
 297              		.loc 1 172 9 view .LVU78
 298 009a 02A9     		add	r1, sp, #8
 299              		.loc 1 158 73 view .LVU79
 300 009c 53F8042B 		ldr	r2, [r3], #4
 301              		.loc 1 167 13 view .LVU80
 302 00a0 0394     		str	r4, [sp, #12]
 303              		.loc 1 166 13 view .LVU81
 304 00a2 CDE90132 		strd	r3, r2, [sp, #4]
 305              		.loc 1 167 3 is_stmt 1 view .LVU82
 306              		.loc 1 168 3 view .LVU83
 307              		.loc 1 172 3 view .LVU84
 308              		.loc 1 172 9 is_stmt 0 view .LVU85
 309 00a6 FFF7FEFF 		bl	chMsgSend
 310              	.LVL17:
 311              		.loc 1 174 3 is_stmt 1 view .LVU86
 312              		.loc 1 176 3 view .LVU87
 313              		.loc 1 177 1 is_stmt 0 view .LVU88
 314 00aa 05B0     		add	sp, sp, #20
 315              		.cfi_def_cfa_offset 20
 316              		@ sp needed
 317 00ac BDE81040 		pop	{r4, lr}
 318              		.cfi_restore 14
 319              		.cfi_restore 4
 320              		.cfi_def_cfa_offset 12
 321 00b0 03B0     		add	sp, sp, #12
 322              		.cfi_restore 3
 323              		.cfi_restore 2
 324              		.cfi_restore 1
 325              		.cfi_def_cfa_offset 0
 326 00b2 7047     		bx	lr
 327              		.cfi_endproc
 328              	.LFE328:
 329              		.size	chDelegateCallVeneer, .-chDelegateCallVeneer
 330              		.align	1
 331 00b4 AFF30080 		.p2align 4,,15
 331      AFF30080 
 331      AFF30080 
 332              		.global	chDelegateDispatch
 333              		.syntax unified
 334              		.thumb
 335              		.thumb_func
ARM GAS  /tmp/ccFWkvbl.s 			page 7


 336              		.fpu fpv4-sp-d16
 337              		.type	chDelegateDispatch, %function
 338              	chDelegateDispatch:
 339              	.LFB329:
 340              		.loc 1 190 31 is_stmt 1 view -0
 341              		.cfi_startproc
 342              		@ args = 0, pretend = 0, frame = 0
 343              		@ frame_needed = 0, uses_anonymous_args = 0
 344              		.loc 1 191 3 view .LVU90
 345              		.loc 1 192 3 view .LVU91
 346              		.loc 1 193 3 view .LVU92
 347              		.loc 1 195 3 view .LVU93
 348              	.LBB60:
 349              	.LBI60:
 350              		.file 2 "../../../external/ChibiOS/os/rt/include/chmsg.h"
 351              		.loc 2 89 25 view .LVU94
 352              	.LBB61:
 353              		.loc 2 90 3 view .LVU95
 354              		.loc 2 92 3 view .LVU96
 355              	.LBB62:
 356              	.LBI62:
 357              		.file 3 "../../../external/ChibiOS/os/rt/include/chsys.h"
 358              		.loc 3 353 20 view .LVU97
 359              	.LBE62:
 360              	.LBE61:
 361              	.LBE60:
 362              		.loc 3 355 3 view .LVU98
 363              	.LBB91:
 364              	.LBB86:
 365              	.LBB70:
 366              	.LBB63:
 367              	.LBI63:
 368              		.file 4 "../../../external/ChibiOS/os/common/ports/ARMCMx/chcore_v7m.h"
 369              		.loc 4 669 27 view .LVU99
 370              	.LBE63:
 371              	.LBE70:
 372              	.LBE86:
 373              	.LBE91:
 374              		.loc 4 677 3 view .LVU100
 375              	.LVL18:
 376              	.LBB92:
 377              	.LBB87:
 378              	.LBB71:
 379              	.LBB68:
 380              	.LBB64:
 381              	.LBI64:
 382              		.file 5 "../../../external/ChibiOS/os/common/ext/ARM/CMSIS/Core/Include/cmsis_gcc.h"
 383              		.loc 5 491 27 view .LVU101
 384              	.LBB65:
 385              		.loc 5 493 3 view .LVU102
 386              	.LBE65:
 387              	.LBE64:
 388              	.LBE68:
 389              	.LBE71:
 390              	.LBE87:
 391              	.LBE92:
 392              		.loc 1 190 31 is_stmt 0 view .LVU103
ARM GAS  /tmp/ccFWkvbl.s 			page 8


 393 00c0 10B5     		push	{r4, lr}
 394              		.cfi_def_cfa_offset 8
 395              		.cfi_offset 4, -8
 396              		.cfi_offset 14, -4
 397              	.LBB93:
 398              	.LBB88:
 399              	.LBB72:
 400              	.LBB69:
 401              	.LBB67:
 402              	.LBB66:
 403              		.loc 5 493 3 view .LVU104
 404 00c2 2023     		movs	r3, #32
 405              		.syntax unified
 406              	@ 493 "../../../external/ChibiOS/os/common/ext/ARM/CMSIS/Core/Include/cmsis_gcc.h" 1
 407 00c4 83F31188 		MSR basepri, r3
 408              	@ 0 "" 2
 409              	.LVL19:
 410              		.loc 5 493 3 view .LVU105
 411              		.thumb
 412              		.syntax unified
 413              	.LBE66:
 414              	.LBE67:
 415              	.LBE69:
 416              	.LBE72:
 417              	.LBE88:
 418              	.LBE93:
 419              		.loc 3 356 34 is_stmt 1 view .LVU106
 420              		.loc 3 357 20 view .LVU107
 421              	.LBB94:
 422              	.LBB89:
 423              		.loc 2 93 3 view .LVU108
 424              		.loc 2 93 8 is_stmt 0 view .LVU109
 425 00c8 FFF7FEFF 		bl	chMsgWaitS
 426              	.LVL20:
 427              	.LBB73:
 428              	.LBB74:
 429              	.LBB75:
 430              	.LBB76:
 431              	.LBB77:
 432              		.loc 5 493 3 view .LVU110
 433 00cc 0023     		movs	r3, #0
 434              	.LBE77:
 435              	.LBE76:
 436              	.LBE75:
 437              	.LBE74:
 438              	.LBE73:
 439              		.loc 2 93 8 view .LVU111
 440 00ce 0446     		mov	r4, r0
 441              	.LVL21:
 442              		.loc 2 94 3 is_stmt 1 view .LVU112
 443              	.LBB84:
 444              	.LBI73:
 445              		.loc 3 365 20 view .LVU113
 446              	.LBB82:
 447              		.loc 3 367 22 view .LVU114
 448              		.loc 3 368 33 view .LVU115
 449              		.loc 3 374 3 view .LVU116
ARM GAS  /tmp/ccFWkvbl.s 			page 9


 450              		.loc 3 374 3 view .LVU117
 451              		.loc 3 378 3 view .LVU118
 452              	.LBB80:
 453              	.LBI75:
 454              		.loc 4 693 27 view .LVU119
 455              	.LBE80:
 456              	.LBE82:
 457              	.LBE84:
 458              	.LBE89:
 459              	.LBE94:
 460              		.loc 4 696 3 view .LVU120
 461              	.LBB95:
 462              	.LBB90:
 463              	.LBB85:
 464              	.LBB83:
 465              	.LBB81:
 466              	.LBB79:
 467              	.LBI76:
 468              		.loc 5 491 27 view .LVU121
 469              	.LBB78:
 470              		.loc 5 493 3 view .LVU122
 471              		.syntax unified
 472              	@ 493 "../../../external/ChibiOS/os/common/ext/ARM/CMSIS/Core/Include/cmsis_gcc.h" 1
 473 00d0 83F31188 		MSR basepri, r3
 474              	@ 0 "" 2
 475              	.LVL22:
 476              		.loc 5 493 3 is_stmt 0 view .LVU123
 477              		.thumb
 478              		.syntax unified
 479              	.LBE78:
 480              	.LBE79:
 481              	.LBE81:
 482              	.LBE83:
 483              	.LBE85:
 484              		.loc 2 96 3 is_stmt 1 view .LVU124
 485              		.loc 2 96 3 is_stmt 0 view .LVU125
 486              	.LBE90:
 487              	.LBE95:
 488              		.loc 1 196 3 is_stmt 1 view .LVU126
 489              		.loc 2 186 3 view .LVU127
 490              		.loc 2 186 3 view .LVU128
 491              		.loc 2 188 3 view .LVU129
 492              		.loc 1 196 7 is_stmt 0 view .LVU130
 493 00d4 436A     		ldr	r3, [r0, #36]
 494              	.LVL23:
 495              		.loc 1 197 3 is_stmt 1 view .LVU131
 496              		.loc 1 197 9 is_stmt 0 view .LVU132
 497 00d6 D3E90020 		ldrd	r2, r0, [r3]
 498              	.LVL24:
 499              		.loc 1 197 9 view .LVU133
 500 00da 9047     		blx	r2
 501              	.LVL25:
 502              		.loc 1 199 3 is_stmt 1 view .LVU134
 503 00dc 0146     		mov	r1, r0
 504 00de 2046     		mov	r0, r4
 505              	.LVL26:
 506              		.loc 1 200 1 is_stmt 0 view .LVU135
ARM GAS  /tmp/ccFWkvbl.s 			page 10


 507 00e0 BDE81040 		pop	{r4, lr}
 508              		.cfi_restore 14
 509              		.cfi_restore 4
 510              		.cfi_def_cfa_offset 0
 511              	.LVL27:
 512              		.loc 1 199 3 view .LVU136
 513 00e4 FFF7FEBF 		b	chMsgRelease
 514              	.LVL28:
 515              		.loc 1 199 3 view .LVU137
 516              		.cfi_endproc
 517              	.LFE329:
 518              		.size	chDelegateDispatch, .-chDelegateDispatch
 519              		.align	1
 520 00e8 AFF30080 		.p2align 4,,15
 520      AFF30080 
 521              		.global	chDelegateDispatchTimeout
 522              		.syntax unified
 523              		.thumb
 524              		.thumb_func
 525              		.fpu fpv4-sp-d16
 526              		.type	chDelegateDispatchTimeout, %function
 527              	chDelegateDispatchTimeout:
 528              	.LVL29:
 529              	.LFB330:
 530              		.loc 1 219 56 is_stmt 1 view -0
 531              		.cfi_startproc
 532              		@ args = 0, pretend = 0, frame = 0
 533              		@ frame_needed = 0, uses_anonymous_args = 0
 534              		.loc 1 220 3 view .LVU139
 535              		.loc 1 221 3 view .LVU140
 536              		.loc 1 222 3 view .LVU141
 537              		.loc 1 224 3 view .LVU142
 538              	.LBB96:
 539              	.LBI96:
 540              		.loc 2 122 25 view .LVU143
 541              	.LBB97:
 542              		.loc 2 123 3 view .LVU144
 543              		.loc 2 125 3 view .LVU145
 544              	.LBB98:
 545              	.LBI98:
 546              		.loc 3 353 20 view .LVU146
 547              	.LBE98:
 548              	.LBE97:
 549              	.LBE96:
 550              		.loc 3 355 3 view .LVU147
 551              	.LBB122:
 552              	.LBB117:
 553              	.LBB106:
 554              	.LBB99:
 555              	.LBI99:
 556              		.loc 4 669 27 view .LVU148
 557              	.LBE99:
 558              	.LBE106:
 559              	.LBE117:
 560              	.LBE122:
 561              		.loc 4 677 3 view .LVU149
 562              	.LBB123:
ARM GAS  /tmp/ccFWkvbl.s 			page 11


 563              	.LBB118:
 564              	.LBB107:
 565              	.LBB104:
 566              	.LBB100:
 567              	.LBI100:
 568              		.loc 5 491 27 view .LVU150
 569              	.LBB101:
 570              		.loc 5 493 3 view .LVU151
 571              	.LBE101:
 572              	.LBE100:
 573              	.LBE104:
 574              	.LBE107:
 575              	.LBE118:
 576              	.LBE123:
 577              		.loc 1 219 56 is_stmt 0 view .LVU152
 578 00f0 38B5     		push	{r3, r4, r5, lr}
 579              		.cfi_def_cfa_offset 16
 580              		.cfi_offset 3, -16
 581              		.cfi_offset 4, -12
 582              		.cfi_offset 5, -8
 583              		.cfi_offset 14, -4
 584              	.LBB124:
 585              	.LBB119:
 586              	.LBB108:
 587              	.LBB105:
 588              	.LBB103:
 589              	.LBB102:
 590              		.loc 5 493 3 view .LVU153
 591 00f2 2023     		movs	r3, #32
 592              		.syntax unified
 593              	@ 493 "../../../external/ChibiOS/os/common/ext/ARM/CMSIS/Core/Include/cmsis_gcc.h" 1
 594 00f4 83F31188 		MSR basepri, r3
 595              	@ 0 "" 2
 596              	.LVL30:
 597              		.loc 5 493 3 view .LVU154
 598              		.thumb
 599              		.syntax unified
 600              	.LBE102:
 601              	.LBE103:
 602              	.LBE105:
 603              	.LBE108:
 604              	.LBE119:
 605              	.LBE124:
 606              		.loc 3 356 34 is_stmt 1 view .LVU155
 607              		.loc 3 357 20 view .LVU156
 608              	.LBB125:
 609              	.LBB120:
 610              		.loc 2 126 3 view .LVU157
 611              		.loc 2 126 8 is_stmt 0 view .LVU158
 612 00f8 FFF7FEFF 		bl	chMsgWaitTimeoutS
 613              	.LVL31:
 614              		.loc 2 127 3 is_stmt 1 view .LVU159
 615              	.LBB109:
 616              	.LBI109:
 617              		.loc 3 365 20 view .LVU160
 618              	.LBB110:
 619              		.loc 3 367 22 view .LVU161
ARM GAS  /tmp/ccFWkvbl.s 			page 12


 620              		.loc 3 368 33 view .LVU162
 621              		.loc 3 374 3 view .LVU163
 622              		.loc 3 374 3 view .LVU164
 623              		.loc 3 378 3 view .LVU165
 624              	.LBB111:
 625              	.LBI111:
 626              		.loc 4 693 27 view .LVU166
 627              	.LBE111:
 628              	.LBE110:
 629              	.LBE109:
 630              	.LBE120:
 631              	.LBE125:
 632              		.loc 4 696 3 view .LVU167
 633              	.LBB126:
 634              	.LBB121:
 635              	.LBB116:
 636              	.LBB115:
 637              	.LBB114:
 638              	.LBB112:
 639              	.LBI112:
 640              		.loc 5 491 27 view .LVU168
 641              	.LBB113:
 642              		.loc 5 493 3 view .LVU169
 643 00fc 0024     		movs	r4, #0
 644              		.syntax unified
 645              	@ 493 "../../../external/ChibiOS/os/common/ext/ARM/CMSIS/Core/Include/cmsis_gcc.h" 1
 646 00fe 84F31188 		MSR basepri, r4
 647              	@ 0 "" 2
 648              	.LVL32:
 649              		.loc 5 493 3 is_stmt 0 view .LVU170
 650              		.thumb
 651              		.syntax unified
 652              	.LBE113:
 653              	.LBE112:
 654              	.LBE114:
 655              	.LBE115:
 656              	.LBE116:
 657              		.loc 2 129 3 is_stmt 1 view .LVU171
 658              		.loc 2 129 3 is_stmt 0 view .LVU172
 659              	.LBE121:
 660              	.LBE126:
 661              		.loc 1 225 3 is_stmt 1 view .LVU173
 662              		.loc 1 225 6 is_stmt 0 view .LVU174
 663 0102 50B1     		cbz	r0, .L16
 664              		.loc 1 229 3 is_stmt 1 view .LVU175
 665              	.LVL33:
 666              		.loc 2 186 3 view .LVU176
 667              		.loc 2 186 3 view .LVU177
 668              		.loc 2 188 3 view .LVU178
 669              		.loc 1 229 7 is_stmt 0 view .LVU179
 670 0104 436A     		ldr	r3, [r0, #36]
 671              	.LVL34:
 672              		.loc 1 230 3 is_stmt 1 view .LVU180
 673 0106 0546     		mov	r5, r0
 674              		.loc 1 230 9 is_stmt 0 view .LVU181
 675 0108 D3E90020 		ldrd	r2, r0, [r3]
 676              	.LVL35:
ARM GAS  /tmp/ccFWkvbl.s 			page 13


 677              		.loc 1 230 9 view .LVU182
 678 010c 9047     		blx	r2
 679              	.LVL36:
 680              		.loc 1 232 3 is_stmt 1 view .LVU183
 681 010e 0146     		mov	r1, r0
 682 0110 2846     		mov	r0, r5
 683              	.LVL37:
 684              		.loc 1 232 3 is_stmt 0 view .LVU184
 685 0112 FFF7FEFF 		bl	chMsgRelease
 686              	.LVL38:
 687              		.loc 1 234 3 is_stmt 1 view .LVU185
 688              		.loc 1 234 10 is_stmt 0 view .LVU186
 689 0116 2046     		mov	r0, r4
 690              		.loc 1 235 1 view .LVU187
 691 0118 38BD     		pop	{r3, r4, r5, pc}
 692              	.LVL39:
 693              	.L16:
 694              		.loc 1 226 12 view .LVU188
 695 011a 4FF0FF30 		mov	r0, #-1
 696              	.LVL40:
 697              		.loc 1 235 1 view .LVU189
 698 011e 38BD     		pop	{r3, r4, r5, pc}
 699              		.cfi_endproc
 700              	.LFE330:
 701              		.size	chDelegateDispatchTimeout, .-chDelegateDispatchTimeout
 702              	.Letext0:
 703              		.file 6 "/home/nicolas/arm/gcc-arm-none-eabi-8-2019-q3-update/lib/gcc/arm-none-eabi/8.3.1/include/
 704              		.file 7 "/home/nicolas/arm/gcc-arm-none-eabi-8-2019-q3-update/arm-none-eabi/include/machine/_defau
 705              		.file 8 "/home/nicolas/arm/gcc-arm-none-eabi-8-2019-q3-update/arm-none-eabi/include/sys/_stdint.h"
 706              		.file 9 "../../../external/ChibiOS/os/common/ports/ARMCMx/compilers/GCC/chtypes.h"
 707              		.file 10 "../../../external/ChibiOS/os/rt/include/chsystypes.h"
 708              		.file 11 "../../../external/ChibiOS/os/rt/include/chschd.h"
 709              		.file 12 "../../../external/ChibiOS/os/rt/include/chtime.h"
 710              		.file 13 "../../../external/ChibiOS/os/common/ext/ARM/CMSIS/Core/Include/core_cm7.h"
 711              		.file 14 "../../../external/ChibiOS/os/common/ext/ST/STM32H7xx/system_stm32h7xx.h"
 712              		.file 15 "../../../external/ChibiOS/os/common/ports/ARMCMx/chcore.h"
 713              		.file 16 "../../../external/ChibiOS/os/rt/include/chtrace.h"
 714              		.file 17 "../../../external/ChibiOS/os/rt/include/chtm.h"
 715              		.file 18 "../../../external/ChibiOS/os/rt/include/chsem.h"
 716              		.file 19 "../../../external/ChibiOS/os/rt/include/chmtx.h"
 717              		.file 20 "../../../external/ChibiOS/os/rt/include/chregistry.h"
 718              		.file 21 "../../../external/ChibiOS/os/oslib/include/chmemcore.h"
 719              		.file 22 "../../../external/ChibiOS/os/oslib/include/chmempools.h"
 720              		.file 23 "/home/nicolas/arm/gcc-arm-none-eabi-8-2019-q3-update/lib/gcc/arm-none-eabi/8.3.1/include
 721              		.file 24 "../../../external/ChibiOS/os/oslib/include/chdelegates.h"
 722              		.file 25 "../../../external/ChibiOS/os/oslib/include/chfactory.h"
 723              		.file 26 "<built-in>"
 724              		.section	.debug_info,"",%progbits
 725              	.Ldebug_info0:
 726 0000 9E130000 		.4byte	0x139e
 727 0004 0400     		.2byte	0x4
 728 0006 00000000 		.4byte	.Ldebug_abbrev0
 729 000a 04       		.byte	0x4
 730 000b 01       		.uleb128 0x1
 731 000c 08050000 		.4byte	.LASF190
 732 0010 0C       		.byte	0xc
 733 0011 E6070000 		.4byte	.LASF191
ARM GAS  /tmp/ccFWkvbl.s 			page 14


 734 0015 FE010000 		.4byte	.LASF192
 735 0019 00000000 		.4byte	.Ltext0
 736 001d 20010000 		.4byte	.Letext0-.Ltext0
 737 0021 00000000 		.4byte	.Ldebug_line0
 738 0025 02       		.uleb128 0x2
 739 0026 04       		.byte	0x4
 740 0027 05       		.byte	0x5
 741 0028 696E7400 		.ascii	"int\000"
 742 002c 03       		.uleb128 0x3
 743 002d 44020000 		.4byte	.LASF4
 744 0031 06       		.byte	0x6
 745 0032 D8       		.byte	0xd8
 746 0033 17       		.byte	0x17
 747 0034 38000000 		.4byte	0x38
 748 0038 04       		.uleb128 0x4
 749 0039 04       		.byte	0x4
 750 003a 07       		.byte	0x7
 751 003b A6020000 		.4byte	.LASF0
 752 003f 04       		.uleb128 0x4
 753 0040 08       		.byte	0x8
 754 0041 05       		.byte	0x5
 755 0042 2B010000 		.4byte	.LASF1
 756 0046 04       		.uleb128 0x4
 757 0047 08       		.byte	0x8
 758 0048 04       		.byte	0x4
 759 0049 5D070000 		.4byte	.LASF2
 760 004d 04       		.uleb128 0x4
 761 004e 01       		.byte	0x1
 762 004f 06       		.byte	0x6
 763 0050 39010000 		.4byte	.LASF3
 764 0054 03       		.uleb128 0x3
 765 0055 3C000000 		.4byte	.LASF5
 766 0059 07       		.byte	0x7
 767 005a 2B       		.byte	0x2b
 768 005b 18       		.byte	0x18
 769 005c 60000000 		.4byte	0x60
 770 0060 04       		.uleb128 0x4
 771 0061 01       		.byte	0x1
 772 0062 08       		.byte	0x8
 773 0063 2C080000 		.4byte	.LASF6
 774 0067 04       		.uleb128 0x4
 775 0068 02       		.byte	0x2
 776 0069 05       		.byte	0x5
 777 006a 6A060000 		.4byte	.LASF7
 778 006e 03       		.uleb128 0x3
 779 006f 84070000 		.4byte	.LASF8
 780 0073 07       		.byte	0x7
 781 0074 39       		.byte	0x39
 782 0075 19       		.byte	0x19
 783 0076 7A000000 		.4byte	0x7a
 784 007a 04       		.uleb128 0x4
 785 007b 02       		.byte	0x2
 786 007c 07       		.byte	0x7
 787 007d 10010000 		.4byte	.LASF9
 788 0081 03       		.uleb128 0x3
 789 0082 C7030000 		.4byte	.LASF10
 790 0086 07       		.byte	0x7
ARM GAS  /tmp/ccFWkvbl.s 			page 15


 791 0087 4D       		.byte	0x4d
 792 0088 18       		.byte	0x18
 793 0089 8D000000 		.4byte	0x8d
 794 008d 04       		.uleb128 0x4
 795 008e 04       		.byte	0x4
 796 008f 05       		.byte	0x5
 797 0090 6A010000 		.4byte	.LASF11
 798 0094 03       		.uleb128 0x3
 799 0095 EC010000 		.4byte	.LASF12
 800 0099 07       		.byte	0x7
 801 009a 4F       		.byte	0x4f
 802 009b 19       		.byte	0x19
 803 009c A0000000 		.4byte	0xa0
 804 00a0 04       		.uleb128 0x4
 805 00a1 04       		.byte	0x4
 806 00a2 07       		.byte	0x7
 807 00a3 45010000 		.4byte	.LASF13
 808 00a7 03       		.uleb128 0x3
 809 00a8 F3040000 		.4byte	.LASF14
 810 00ac 07       		.byte	0x7
 811 00ad 69       		.byte	0x69
 812 00ae 19       		.byte	0x19
 813 00af B3000000 		.4byte	0xb3
 814 00b3 04       		.uleb128 0x4
 815 00b4 08       		.byte	0x8
 816 00b5 07       		.byte	0x7
 817 00b6 D1030000 		.4byte	.LASF15
 818 00ba 03       		.uleb128 0x3
 819 00bb A2070000 		.4byte	.LASF16
 820 00bf 08       		.byte	0x8
 821 00c0 18       		.byte	0x18
 822 00c1 13       		.byte	0x13
 823 00c2 54000000 		.4byte	0x54
 824 00c6 05       		.uleb128 0x5
 825 00c7 BA000000 		.4byte	0xba
 826 00cb 03       		.uleb128 0x3
 827 00cc BD010000 		.4byte	.LASF17
 828 00d0 08       		.byte	0x8
 829 00d1 24       		.byte	0x24
 830 00d2 14       		.byte	0x14
 831 00d3 6E000000 		.4byte	0x6e
 832 00d7 03       		.uleb128 0x3
 833 00d8 3A060000 		.4byte	.LASF18
 834 00dc 08       		.byte	0x8
 835 00dd 2C       		.byte	0x2c
 836 00de 13       		.byte	0x13
 837 00df 81000000 		.4byte	0x81
 838 00e3 06       		.uleb128 0x6
 839 00e4 D7000000 		.4byte	0xd7
 840 00e8 03       		.uleb128 0x3
 841 00e9 2E070000 		.4byte	.LASF19
 842 00ed 08       		.byte	0x8
 843 00ee 30       		.byte	0x30
 844 00ef 14       		.byte	0x14
 845 00f0 94000000 		.4byte	0x94
 846 00f4 03       		.uleb128 0x3
 847 00f5 27000000 		.4byte	.LASF20
ARM GAS  /tmp/ccFWkvbl.s 			page 16


 848 00f9 08       		.byte	0x8
 849 00fa 3C       		.byte	0x3c
 850 00fb 14       		.byte	0x14
 851 00fc A7000000 		.4byte	0xa7
 852 0100 03       		.uleb128 0x3
 853 0101 31040000 		.4byte	.LASF21
 854 0105 09       		.byte	0x9
 855 0106 27       		.byte	0x27
 856 0107 1D       		.byte	0x1d
 857 0108 E8000000 		.4byte	0xe8
 858 010c 03       		.uleb128 0x3
 859 010d BF030000 		.4byte	.LASF22
 860 0111 09       		.byte	0x9
 861 0112 2A       		.byte	0x2a
 862 0113 1D       		.byte	0x1d
 863 0114 BA000000 		.4byte	0xba
 864 0118 03       		.uleb128 0x3
 865 0119 8C010000 		.4byte	.LASF23
 866 011d 09       		.byte	0x9
 867 011e 2B       		.byte	0x2b
 868 011f 1D       		.byte	0x1d
 869 0120 BA000000 		.4byte	0xba
 870 0124 03       		.uleb128 0x3
 871 0125 E0050000 		.4byte	.LASF24
 872 0129 09       		.byte	0x9
 873 012a 2C       		.byte	0x2c
 874 012b 1D       		.byte	0x1d
 875 012c BA000000 		.4byte	0xba
 876 0130 03       		.uleb128 0x3
 877 0131 17060000 		.4byte	.LASF25
 878 0135 09       		.byte	0x9
 879 0136 2E       		.byte	0x2e
 880 0137 1D       		.byte	0x1d
 881 0138 E8000000 		.4byte	0xe8
 882 013c 03       		.uleb128 0x3
 883 013d 80030000 		.4byte	.LASF26
 884 0141 09       		.byte	0x9
 885 0142 2F       		.byte	0x2f
 886 0143 1D       		.byte	0x1d
 887 0144 D7000000 		.4byte	0xd7
 888 0148 03       		.uleb128 0x3
 889 0149 30000000 		.4byte	.LASF27
 890 014d 09       		.byte	0x9
 891 014e 31       		.byte	0x31
 892 014f 1D       		.byte	0x1d
 893 0150 E8000000 		.4byte	0xe8
 894 0154 03       		.uleb128 0x3
 895 0155 97020000 		.4byte	.LASF28
 896 0159 09       		.byte	0x9
 897 015a 33       		.byte	0x33
 898 015b 1D       		.byte	0x1d
 899 015c D7000000 		.4byte	0xd7
 900 0160 03       		.uleb128 0x3
 901 0161 86030000 		.4byte	.LASF29
 902 0165 09       		.byte	0x9
 903 0166 34       		.byte	0x34
 904 0167 1D       		.byte	0x1d
ARM GAS  /tmp/ccFWkvbl.s 			page 17


 905 0168 E8000000 		.4byte	0xe8
 906 016c 03       		.uleb128 0x3
 907 016d 8F070000 		.4byte	.LASF30
 908 0171 0A       		.byte	0xa
 909 0172 34       		.byte	0x34
 910 0173 1A       		.byte	0x1a
 911 0174 78010000 		.4byte	0x178
 912 0178 07       		.uleb128 0x7
 913 0179 76030000 		.4byte	.LASF48
 914 017d 44       		.byte	0x44
 915 017e 0B       		.byte	0xb
 916 017f 8E       		.byte	0x8e
 917 0180 08       		.byte	0x8
 918 0181 68020000 		.4byte	0x268
 919 0185 08       		.uleb128 0x8
 920 0186 4D030000 		.4byte	.LASF31
 921 018a 0B       		.byte	0xb
 922 018b 8F       		.byte	0x8f
 923 018c 19       		.byte	0x19
 924 018d A1020000 		.4byte	0x2a1
 925 0191 00       		.byte	0
 926 0192 08       		.uleb128 0x8
 927 0193 E6040000 		.4byte	.LASF32
 928 0197 0B       		.byte	0xb
 929 0198 90       		.byte	0x90
 930 0199 19       		.byte	0x19
 931 019a 30010000 		.4byte	0x130
 932 019e 08       		.byte	0x8
 933 019f 09       		.uleb128 0x9
 934 01a0 63747800 		.ascii	"ctx\000"
 935 01a4 0B       		.byte	0xb
 936 01a5 91       		.byte	0x91
 937 01a6 19       		.byte	0x19
 938 01a7 82060000 		.4byte	0x682
 939 01ab 0C       		.byte	0xc
 940 01ac 08       		.uleb128 0x8
 941 01ad 09040000 		.4byte	.LASF33
 942 01b1 0B       		.byte	0xb
 943 01b2 93       		.byte	0x93
 944 01b3 1A       		.byte	0x1a
 945 01b4 74020000 		.4byte	0x274
 946 01b8 10       		.byte	0x10
 947 01b9 08       		.uleb128 0x8
 948 01ba 75070000 		.4byte	.LASF34
 949 01be 0B       		.byte	0xb
 950 01bf 94       		.byte	0x94
 951 01c0 1A       		.byte	0x1a
 952 01c1 74020000 		.4byte	0x274
 953 01c5 14       		.byte	0x14
 954 01c6 08       		.uleb128 0x8
 955 01c7 48030000 		.4byte	.LASF35
 956 01cb 0B       		.byte	0xb
 957 01cc 9B       		.byte	0x9b
 958 01cd 1A       		.byte	0x1a
 959 01ce DF060000 		.4byte	0x6df
 960 01d2 18       		.byte	0x18
 961 01d3 08       		.uleb128 0x8
ARM GAS  /tmp/ccFWkvbl.s 			page 18


 962 01d4 69070000 		.4byte	.LASF36
 963 01d8 0B       		.byte	0xb
 964 01d9 A4       		.byte	0xa4
 965 01da 1A       		.byte	0x1a
 966 01db 26090000 		.4byte	0x926
 967 01df 1C       		.byte	0x1c
 968 01e0 08       		.uleb128 0x8
 969 01e1 64010000 		.4byte	.LASF37
 970 01e5 0B       		.byte	0xb
 971 01e6 A9       		.byte	0xa9
 972 01e7 19       		.byte	0x19
 973 01e8 18010000 		.4byte	0x118
 974 01ec 20       		.byte	0x20
 975 01ed 08       		.uleb128 0x8
 976 01ee D1080000 		.4byte	.LASF38
 977 01f2 0B       		.byte	0xb
 978 01f3 AD       		.byte	0xad
 979 01f4 19       		.byte	0x19
 980 01f5 0C010000 		.4byte	0x10c
 981 01f9 21       		.byte	0x21
 982 01fa 08       		.uleb128 0x8
 983 01fb F3050000 		.4byte	.LASF39
 984 01ff 0B       		.byte	0xb
 985 0200 B2       		.byte	0xb2
 986 0201 19       		.byte	0x19
 987 0202 24010000 		.4byte	0x124
 988 0206 22       		.byte	0x22
 989 0207 0A       		.uleb128 0xa
 990 0208 7500     		.ascii	"u\000"
 991 020a 0B       		.byte	0xb
 992 020b 0301     		.2byte	0x103
 993 020d 19       		.byte	0x19
 994 020e 4C080000 		.4byte	0x84c
 995 0212 24       		.byte	0x24
 996 0213 0B       		.uleb128 0xb
 997 0214 4B020000 		.4byte	.LASF40
 998 0218 0B       		.byte	0xb
 999 0219 0801     		.2byte	0x108
 1000 021b 19       		.byte	0x19
 1001 021c 7A020000 		.4byte	0x27a
 1002 0220 28       		.byte	0x28
 1003 0221 0B       		.uleb128 0xb
 1004 0222 9D020000 		.4byte	.LASF41
 1005 0226 0B       		.byte	0xb
 1006 0227 0E01     		.2byte	0x10e
 1007 0229 19       		.byte	0x19
 1008 022a A1020000 		.4byte	0x2a1
 1009 022e 2C       		.byte	0x2c
 1010 022f 0B       		.uleb128 0xb
 1011 0230 8D030000 		.4byte	.LASF42
 1012 0234 0B       		.byte	0xb
 1013 0235 1401     		.2byte	0x114
 1014 0237 19       		.byte	0x19
 1015 0238 48010000 		.4byte	0x148
 1016 023c 34       		.byte	0x34
 1017 023d 0B       		.uleb128 0xb
 1018 023e 56090000 		.4byte	.LASF43
ARM GAS  /tmp/ccFWkvbl.s 			page 19


 1019 0242 0B       		.byte	0xb
 1020 0243 1B01     		.2byte	0x11b
 1021 0245 1A       		.byte	0x1a
 1022 0246 20090000 		.4byte	0x920
 1023 024a 38       		.byte	0x38
 1024 024b 0B       		.uleb128 0xb
 1025 024c 54070000 		.4byte	.LASF44
 1026 0250 0B       		.byte	0xb
 1027 0251 1F01     		.2byte	0x11f
 1028 0253 19       		.byte	0x19
 1029 0254 30010000 		.4byte	0x130
 1030 0258 3C       		.byte	0x3c
 1031 0259 0B       		.uleb128 0xb
 1032 025a 53030000 		.4byte	.LASF45
 1033 025e 0B       		.byte	0xb
 1034 025f 2601     		.2byte	0x126
 1035 0261 1A       		.byte	0x1a
 1036 0262 61030000 		.4byte	0x361
 1037 0266 40       		.byte	0x40
 1038 0267 00       		.byte	0
 1039 0268 03       		.uleb128 0x3
 1040 0269 E1080000 		.4byte	.LASF46
 1041 026d 0A       		.byte	0xa
 1042 026e 39       		.byte	0x39
 1043 026f 14       		.byte	0x14
 1044 0270 74020000 		.4byte	0x274
 1045 0274 0C       		.uleb128 0xc
 1046 0275 04       		.byte	0x4
 1047 0276 6C010000 		.4byte	0x16c
 1048 027a 03       		.uleb128 0x3
 1049 027b 0C090000 		.4byte	.LASF47
 1050 027f 0A       		.byte	0xa
 1051 0280 3E       		.byte	0x3e
 1052 0281 20       		.byte	0x20
 1053 0282 86020000 		.4byte	0x286
 1054 0286 07       		.uleb128 0x7
 1055 0287 3E070000 		.4byte	.LASF49
 1056 028b 04       		.byte	0x4
 1057 028c 0B       		.byte	0xb
 1058 028d 7C       		.byte	0x7c
 1059 028e 08       		.byte	0x8
 1060 028f A1020000 		.4byte	0x2a1
 1061 0293 08       		.uleb128 0x8
 1062 0294 E3000000 		.4byte	.LASF50
 1063 0298 0B       		.byte	0xb
 1064 0299 7D       		.byte	0x7d
 1065 029a 1A       		.byte	0x1a
 1066 029b 74020000 		.4byte	0x274
 1067 029f 00       		.byte	0
 1068 02a0 00       		.byte	0
 1069 02a1 03       		.uleb128 0x3
 1070 02a2 61080000 		.4byte	.LASF51
 1071 02a6 0A       		.byte	0xa
 1072 02a7 45       		.byte	0x45
 1073 02a8 21       		.byte	0x21
 1074 02a9 AD020000 		.4byte	0x2ad
 1075 02ad 07       		.uleb128 0x7
ARM GAS  /tmp/ccFWkvbl.s 			page 20


 1076 02ae E8000000 		.4byte	.LASF52
 1077 02b2 08       		.byte	0x8
 1078 02b3 0B       		.byte	0xb
 1079 02b4 83       		.byte	0x83
 1080 02b5 08       		.byte	0x8
 1081 02b6 D5020000 		.4byte	0x2d5
 1082 02ba 08       		.uleb128 0x8
 1083 02bb E3000000 		.4byte	.LASF50
 1084 02bf 0B       		.byte	0xb
 1085 02c0 84       		.byte	0x84
 1086 02c1 1A       		.byte	0x1a
 1087 02c2 74020000 		.4byte	0x274
 1088 02c6 00       		.byte	0
 1089 02c7 08       		.uleb128 0x8
 1090 02c8 46000000 		.4byte	.LASF53
 1091 02cc 0B       		.byte	0xb
 1092 02cd 85       		.byte	0x85
 1093 02ce 1A       		.byte	0x1a
 1094 02cf 74020000 		.4byte	0x274
 1095 02d3 04       		.byte	0x4
 1096 02d4 00       		.byte	0
 1097 02d5 03       		.uleb128 0x3
 1098 02d6 00000000 		.4byte	.LASF54
 1099 02da 0A       		.byte	0xa
 1100 02db 4C       		.byte	0x4c
 1101 02dc 1E       		.byte	0x1e
 1102 02dd E1020000 		.4byte	0x2e1
 1103 02e1 0D       		.uleb128 0xd
 1104 02e2 2C030000 		.4byte	.LASF55
 1105 02e6 1C       		.byte	0x1c
 1106 02e7 0B       		.byte	0xb
 1107 02e8 5E01     		.2byte	0x15e
 1108 02ea 08       		.byte	0x8
 1109 02eb 44030000 		.4byte	0x344
 1110 02ef 0B       		.uleb128 0xb
 1111 02f0 4D030000 		.4byte	.LASF31
 1112 02f4 0B       		.byte	0xb
 1113 02f5 5F01     		.2byte	0x15f
 1114 02f7 19       		.byte	0x19
 1115 02f8 A1020000 		.4byte	0x2a1
 1116 02fc 00       		.byte	0
 1117 02fd 0B       		.uleb128 0xb
 1118 02fe E6040000 		.4byte	.LASF32
 1119 0302 0B       		.byte	0xb
 1120 0303 6001     		.2byte	0x160
 1121 0305 19       		.byte	0x19
 1122 0306 30010000 		.4byte	0x130
 1123 030a 08       		.byte	0x8
 1124 030b 0A       		.uleb128 0xa
 1125 030c 63747800 		.ascii	"ctx\000"
 1126 0310 0B       		.byte	0xb
 1127 0311 6201     		.2byte	0x162
 1128 0313 19       		.byte	0x19
 1129 0314 82060000 		.4byte	0x682
 1130 0318 0C       		.byte	0xc
 1131 0319 0B       		.uleb128 0xb
 1132 031a 09040000 		.4byte	.LASF33
ARM GAS  /tmp/ccFWkvbl.s 			page 21


 1133 031e 0B       		.byte	0xb
 1134 031f 6501     		.2byte	0x165
 1135 0321 1A       		.byte	0x1a
 1136 0322 74020000 		.4byte	0x274
 1137 0326 10       		.byte	0x10
 1138 0327 0B       		.uleb128 0xb
 1139 0328 75070000 		.4byte	.LASF34
 1140 032c 0B       		.byte	0xb
 1141 032d 6601     		.2byte	0x166
 1142 032f 1A       		.byte	0x1a
 1143 0330 74020000 		.4byte	0x274
 1144 0334 14       		.byte	0x14
 1145 0335 0B       		.uleb128 0xb
 1146 0336 EB040000 		.4byte	.LASF56
 1147 033a 0B       		.byte	0xb
 1148 033b 6901     		.2byte	0x169
 1149 033d 1A       		.byte	0x1a
 1150 033e 74020000 		.4byte	0x274
 1151 0342 18       		.byte	0x18
 1152 0343 00       		.byte	0
 1153 0344 03       		.uleb128 0x3
 1154 0345 1B090000 		.4byte	.LASF57
 1155 0349 0A       		.byte	0xa
 1156 034a 51       		.byte	0x51
 1157 034b 10       		.byte	0x10
 1158 034c 50030000 		.4byte	0x350
 1159 0350 0C       		.uleb128 0xc
 1160 0351 04       		.byte	0x4
 1161 0352 56030000 		.4byte	0x356
 1162 0356 0E       		.uleb128 0xe
 1163 0357 61030000 		.4byte	0x361
 1164 035b 0F       		.uleb128 0xf
 1165 035c 61030000 		.4byte	0x361
 1166 0360 00       		.byte	0
 1167 0361 10       		.uleb128 0x10
 1168 0362 04       		.byte	0x4
 1169 0363 03       		.uleb128 0x3
 1170 0364 F8050000 		.4byte	.LASF58
 1171 0368 0A       		.byte	0xa
 1172 0369 56       		.byte	0x56
 1173 036a 21       		.byte	0x21
 1174 036b 6F030000 		.4byte	0x36f
 1175 036f 0D       		.uleb128 0xd
 1176 0370 D5060000 		.4byte	.LASF59
 1177 0374 14       		.byte	0x14
 1178 0375 0B       		.byte	0xb
 1179 0376 3901     		.2byte	0x139
 1180 0378 08       		.byte	0x8
 1181 0379 C4030000 		.4byte	0x3c4
 1182 037d 0B       		.uleb128 0xb
 1183 037e E3000000 		.4byte	.LASF50
 1184 0382 0B       		.byte	0xb
 1185 0383 3A01     		.2byte	0x13a
 1186 0385 1A       		.byte	0x1a
 1187 0386 2C090000 		.4byte	0x92c
 1188 038a 00       		.byte	0
 1189 038b 0B       		.uleb128 0xb
ARM GAS  /tmp/ccFWkvbl.s 			page 22


 1190 038c 46000000 		.4byte	.LASF53
 1191 0390 0B       		.byte	0xb
 1192 0391 3B01     		.2byte	0x13b
 1193 0393 1A       		.byte	0x1a
 1194 0394 2C090000 		.4byte	0x92c
 1195 0398 04       		.byte	0x4
 1196 0399 0B       		.uleb128 0xb
 1197 039a C7000000 		.4byte	.LASF60
 1198 039e 0B       		.byte	0xb
 1199 039f 3C01     		.2byte	0x13c
 1200 03a1 19       		.byte	0x19
 1201 03a2 BE040000 		.4byte	0x4be
 1202 03a6 08       		.byte	0x8
 1203 03a7 0B       		.uleb128 0xb
 1204 03a8 B8010000 		.4byte	.LASF61
 1205 03ac 0B       		.byte	0xb
 1206 03ad 3D01     		.2byte	0x13d
 1207 03af 19       		.byte	0x19
 1208 03b0 44030000 		.4byte	0x344
 1209 03b4 0C       		.byte	0xc
 1210 03b5 0A       		.uleb128 0xa
 1211 03b6 70617200 		.ascii	"par\000"
 1212 03ba 0B       		.byte	0xb
 1213 03bb 3F01     		.2byte	0x13f
 1214 03bd 1A       		.byte	0x1a
 1215 03be 61030000 		.4byte	0x361
 1216 03c2 10       		.byte	0x10
 1217 03c3 00       		.byte	0
 1218 03c4 03       		.uleb128 0x3
 1219 03c5 E8030000 		.4byte	.LASF62
 1220 03c9 0A       		.byte	0xa
 1221 03ca 5B       		.byte	0x5b
 1222 03cb 28       		.byte	0x28
 1223 03cc D0030000 		.4byte	0x3d0
 1224 03d0 0D       		.uleb128 0xd
 1225 03d1 80020000 		.4byte	.LASF63
 1226 03d5 10       		.byte	0x10
 1227 03d6 0B       		.byte	0xb
 1228 03d7 4901     		.2byte	0x149
 1229 03d9 08       		.byte	0x8
 1230 03da 17040000 		.4byte	0x417
 1231 03de 0B       		.uleb128 0xb
 1232 03df E3000000 		.4byte	.LASF50
 1233 03e3 0B       		.byte	0xb
 1234 03e4 4A01     		.2byte	0x14a
 1235 03e6 1A       		.byte	0x1a
 1236 03e7 2C090000 		.4byte	0x92c
 1237 03eb 00       		.byte	0
 1238 03ec 0B       		.uleb128 0xb
 1239 03ed 46000000 		.4byte	.LASF53
 1240 03f1 0B       		.byte	0xb
 1241 03f2 4C01     		.2byte	0x14c
 1242 03f4 1A       		.byte	0x1a
 1243 03f5 2C090000 		.4byte	0x92c
 1244 03f9 04       		.byte	0x4
 1245 03fa 0B       		.uleb128 0xb
 1246 03fb C7000000 		.4byte	.LASF60
ARM GAS  /tmp/ccFWkvbl.s 			page 23


 1247 03ff 0B       		.byte	0xb
 1248 0400 4E01     		.2byte	0x14e
 1249 0402 19       		.byte	0x19
 1250 0403 BE040000 		.4byte	0x4be
 1251 0407 08       		.byte	0x8
 1252 0408 0B       		.uleb128 0xb
 1253 0409 74060000 		.4byte	.LASF64
 1254 040d 0B       		.byte	0xb
 1255 040e 5601     		.2byte	0x156
 1256 0410 19       		.byte	0x19
 1257 0411 B2040000 		.4byte	0x4b2
 1258 0415 0C       		.byte	0xc
 1259 0416 00       		.byte	0
 1260 0417 03       		.uleb128 0x3
 1261 0418 EA020000 		.4byte	.LASF65
 1262 041c 0A       		.byte	0xa
 1263 041d 60       		.byte	0x60
 1264 041e 20       		.byte	0x20
 1265 041f 23040000 		.4byte	0x423
 1266 0423 11       		.uleb128 0x11
 1267 0424 24060000 		.4byte	.LASF66
 1268 0428 0C08     		.2byte	0x80c
 1269 042a 0B       		.byte	0xb
 1270 042b 7001     		.2byte	0x170
 1271 042d 08       		.byte	0x8
 1272 042e 4F040000 		.4byte	0x44f
 1273 0432 0B       		.uleb128 0xb
 1274 0433 B8070000 		.4byte	.LASF67
 1275 0437 0B       		.byte	0xb
 1276 0438 7801     		.2byte	0x178
 1277 043a 24       		.byte	0x24
 1278 043b E5060000 		.4byte	0x6e5
 1279 043f 00       		.byte	0
 1280 0440 0B       		.uleb128 0xb
 1281 0441 2E090000 		.4byte	.LASF68
 1282 0445 0B       		.byte	0xb
 1283 0446 8701     		.2byte	0x187
 1284 0448 19       		.byte	0x19
 1285 0449 1D080000 		.4byte	0x81d
 1286 044d 04       		.byte	0x4
 1287 044e 00       		.byte	0
 1288 044f 03       		.uleb128 0x3
 1289 0450 AB030000 		.4byte	.LASF69
 1290 0454 0A       		.byte	0xa
 1291 0455 65       		.byte	0x65
 1292 0456 1A       		.byte	0x1a
 1293 0457 5B040000 		.4byte	0x45b
 1294 045b 11       		.uleb128 0x11
 1295 045c 8B060000 		.4byte	.LASF70
 1296 0460 8008     		.2byte	0x880
 1297 0462 0B       		.byte	0xb
 1298 0463 9001     		.2byte	0x190
 1299 0465 08       		.byte	0x8
 1300 0466 B2040000 		.4byte	0x4b2
 1301 046a 0B       		.uleb128 0xb
 1302 046b 9E080000 		.4byte	.LASF71
 1303 046f 0B       		.byte	0xb
ARM GAS  /tmp/ccFWkvbl.s 			page 24


 1304 0470 9401     		.2byte	0x194
 1305 0472 19       		.byte	0x19
 1306 0473 D5020000 		.4byte	0x2d5
 1307 0477 00       		.byte	0
 1308 0478 0B       		.uleb128 0xb
 1309 0479 5F000000 		.4byte	.LASF72
 1310 047d 0B       		.byte	0xb
 1311 047e 9801     		.2byte	0x198
 1312 0480 19       		.byte	0x19
 1313 0481 C4030000 		.4byte	0x3c4
 1314 0485 1C       		.byte	0x1c
 1315 0486 0A       		.uleb128 0xa
 1316 0487 64626700 		.ascii	"dbg\000"
 1317 048b 0B       		.byte	0xb
 1318 048c 9C01     		.2byte	0x19c
 1319 048e 19       		.byte	0x19
 1320 048f 17040000 		.4byte	0x417
 1321 0493 2C       		.byte	0x2c
 1322 0494 12       		.uleb128 0x12
 1323 0495 A3000000 		.4byte	.LASF73
 1324 0499 0B       		.byte	0xb
 1325 049a A001     		.2byte	0x1a0
 1326 049c 19       		.byte	0x19
 1327 049d 6C010000 		.4byte	0x16c
 1328 04a1 3808     		.2byte	0x838
 1329 04a3 13       		.uleb128 0x13
 1330 04a4 746D00   		.ascii	"tm\000"
 1331 04a7 0B       		.byte	0xb
 1332 04a8 A501     		.2byte	0x1a5
 1333 04aa 19       		.byte	0x19
 1334 04ab 40080000 		.4byte	0x840
 1335 04af 7C08     		.2byte	0x87c
 1336 04b1 00       		.byte	0
 1337 04b2 03       		.uleb128 0x3
 1338 04b3 98070000 		.4byte	.LASF74
 1339 04b7 0C       		.byte	0xc
 1340 04b8 6D       		.byte	0x6d
 1341 04b9 12       		.byte	0x12
 1342 04ba E8000000 		.4byte	0xe8
 1343 04be 03       		.uleb128 0x3
 1344 04bf 72020000 		.4byte	.LASF75
 1345 04c3 0C       		.byte	0xc
 1346 04c4 79       		.byte	0x79
 1347 04c5 12       		.byte	0x12
 1348 04c6 E8000000 		.4byte	0xe8
 1349 04ca 14       		.uleb128 0x14
 1350 04cb CD000000 		.4byte	.LASF76
 1351 04cf 0D       		.byte	0xd
 1352 04d0 220A     		.2byte	0xa22
 1353 04d2 19       		.byte	0x19
 1354 04d3 E3000000 		.4byte	0xe3
 1355 04d7 15       		.uleb128 0x15
 1356 04d8 B3020000 		.4byte	.LASF77
 1357 04dc 0E       		.byte	0xe
 1358 04dd 3A       		.byte	0x3a
 1359 04de 11       		.byte	0x11
 1360 04df E8000000 		.4byte	0xe8
ARM GAS  /tmp/ccFWkvbl.s 			page 25


 1361 04e3 15       		.uleb128 0x15
 1362 04e4 02010000 		.4byte	.LASF78
 1363 04e8 0E       		.byte	0xe
 1364 04e9 3B       		.byte	0x3b
 1365 04ea 11       		.byte	0x11
 1366 04eb E8000000 		.4byte	0xe8
 1367 04ef 16       		.uleb128 0x16
 1368 04f0 C6000000 		.4byte	0xc6
 1369 04f4 FF040000 		.4byte	0x4ff
 1370 04f8 17       		.uleb128 0x17
 1371 04f9 38000000 		.4byte	0x38
 1372 04fd 0F       		.byte	0xf
 1373 04fe 00       		.byte	0
 1374 04ff 05       		.uleb128 0x5
 1375 0500 EF040000 		.4byte	0x4ef
 1376 0504 15       		.uleb128 0x15
 1377 0505 CA020000 		.4byte	.LASF79
 1378 0509 0E       		.byte	0xe
 1379 050a 3C       		.byte	0x3c
 1380 050b 17       		.byte	0x17
 1381 050c FF040000 		.4byte	0x4ff
 1382 0510 03       		.uleb128 0x3
 1383 0511 FE030000 		.4byte	.LASF80
 1384 0515 0F       		.byte	0xf
 1385 0516 68       		.byte	0x68
 1386 0517 12       		.byte	0x12
 1387 0518 F4000000 		.4byte	0xf4
 1388 051c 0D       		.uleb128 0xd
 1389 051d 4B000000 		.4byte	.LASF81
 1390 0521 64       		.byte	0x64
 1391 0522 04       		.byte	0x4
 1392 0523 8501     		.2byte	0x185
 1393 0525 08       		.byte	0x8
 1394 0526 82060000 		.4byte	0x682
 1395 052a 0A       		.uleb128 0xa
 1396 052b 73313600 		.ascii	"s16\000"
 1397 052f 04       		.byte	0x4
 1398 0530 8D01     		.2byte	0x18d
 1399 0532 11       		.byte	0x11
 1400 0533 E8000000 		.4byte	0xe8
 1401 0537 00       		.byte	0
 1402 0538 0A       		.uleb128 0xa
 1403 0539 73313700 		.ascii	"s17\000"
 1404 053d 04       		.byte	0x4
 1405 053e 8E01     		.2byte	0x18e
 1406 0540 11       		.byte	0x11
 1407 0541 E8000000 		.4byte	0xe8
 1408 0545 04       		.byte	0x4
 1409 0546 0A       		.uleb128 0xa
 1410 0547 73313800 		.ascii	"s18\000"
 1411 054b 04       		.byte	0x4
 1412 054c 8F01     		.2byte	0x18f
 1413 054e 11       		.byte	0x11
 1414 054f E8000000 		.4byte	0xe8
 1415 0553 08       		.byte	0x8
 1416 0554 0A       		.uleb128 0xa
 1417 0555 73313900 		.ascii	"s19\000"
ARM GAS  /tmp/ccFWkvbl.s 			page 26


 1418 0559 04       		.byte	0x4
 1419 055a 9001     		.2byte	0x190
 1420 055c 11       		.byte	0x11
 1421 055d E8000000 		.4byte	0xe8
 1422 0561 0C       		.byte	0xc
 1423 0562 0A       		.uleb128 0xa
 1424 0563 73323000 		.ascii	"s20\000"
 1425 0567 04       		.byte	0x4
 1426 0568 9101     		.2byte	0x191
 1427 056a 11       		.byte	0x11
 1428 056b E8000000 		.4byte	0xe8
 1429 056f 10       		.byte	0x10
 1430 0570 0A       		.uleb128 0xa
 1431 0571 73323100 		.ascii	"s21\000"
 1432 0575 04       		.byte	0x4
 1433 0576 9201     		.2byte	0x192
 1434 0578 11       		.byte	0x11
 1435 0579 E8000000 		.4byte	0xe8
 1436 057d 14       		.byte	0x14
 1437 057e 0A       		.uleb128 0xa
 1438 057f 73323200 		.ascii	"s22\000"
 1439 0583 04       		.byte	0x4
 1440 0584 9301     		.2byte	0x193
 1441 0586 11       		.byte	0x11
 1442 0587 E8000000 		.4byte	0xe8
 1443 058b 18       		.byte	0x18
 1444 058c 0A       		.uleb128 0xa
 1445 058d 73323300 		.ascii	"s23\000"
 1446 0591 04       		.byte	0x4
 1447 0592 9401     		.2byte	0x194
 1448 0594 11       		.byte	0x11
 1449 0595 E8000000 		.4byte	0xe8
 1450 0599 1C       		.byte	0x1c
 1451 059a 0A       		.uleb128 0xa
 1452 059b 73323400 		.ascii	"s24\000"
 1453 059f 04       		.byte	0x4
 1454 05a0 9501     		.2byte	0x195
 1455 05a2 11       		.byte	0x11
 1456 05a3 E8000000 		.4byte	0xe8
 1457 05a7 20       		.byte	0x20
 1458 05a8 0A       		.uleb128 0xa
 1459 05a9 73323500 		.ascii	"s25\000"
 1460 05ad 04       		.byte	0x4
 1461 05ae 9601     		.2byte	0x196
 1462 05b0 11       		.byte	0x11
 1463 05b1 E8000000 		.4byte	0xe8
 1464 05b5 24       		.byte	0x24
 1465 05b6 0A       		.uleb128 0xa
 1466 05b7 73323600 		.ascii	"s26\000"
 1467 05bb 04       		.byte	0x4
 1468 05bc 9701     		.2byte	0x197
 1469 05be 11       		.byte	0x11
 1470 05bf E8000000 		.4byte	0xe8
 1471 05c3 28       		.byte	0x28
 1472 05c4 0A       		.uleb128 0xa
 1473 05c5 73323700 		.ascii	"s27\000"
 1474 05c9 04       		.byte	0x4
ARM GAS  /tmp/ccFWkvbl.s 			page 27


 1475 05ca 9801     		.2byte	0x198
 1476 05cc 11       		.byte	0x11
 1477 05cd E8000000 		.4byte	0xe8
 1478 05d1 2C       		.byte	0x2c
 1479 05d2 0A       		.uleb128 0xa
 1480 05d3 73323800 		.ascii	"s28\000"
 1481 05d7 04       		.byte	0x4
 1482 05d8 9901     		.2byte	0x199
 1483 05da 11       		.byte	0x11
 1484 05db E8000000 		.4byte	0xe8
 1485 05df 30       		.byte	0x30
 1486 05e0 0A       		.uleb128 0xa
 1487 05e1 73323900 		.ascii	"s29\000"
 1488 05e5 04       		.byte	0x4
 1489 05e6 9A01     		.2byte	0x19a
 1490 05e8 11       		.byte	0x11
 1491 05e9 E8000000 		.4byte	0xe8
 1492 05ed 34       		.byte	0x34
 1493 05ee 0A       		.uleb128 0xa
 1494 05ef 73333000 		.ascii	"s30\000"
 1495 05f3 04       		.byte	0x4
 1496 05f4 9B01     		.2byte	0x19b
 1497 05f6 11       		.byte	0x11
 1498 05f7 E8000000 		.4byte	0xe8
 1499 05fb 38       		.byte	0x38
 1500 05fc 0A       		.uleb128 0xa
 1501 05fd 73333100 		.ascii	"s31\000"
 1502 0601 04       		.byte	0x4
 1503 0602 9C01     		.2byte	0x19c
 1504 0604 11       		.byte	0x11
 1505 0605 E8000000 		.4byte	0xe8
 1506 0609 3C       		.byte	0x3c
 1507 060a 0A       		.uleb128 0xa
 1508 060b 723400   		.ascii	"r4\000"
 1509 060e 04       		.byte	0x4
 1510 060f 9E01     		.2byte	0x19e
 1511 0611 11       		.byte	0x11
 1512 0612 E8000000 		.4byte	0xe8
 1513 0616 40       		.byte	0x40
 1514 0617 0A       		.uleb128 0xa
 1515 0618 723500   		.ascii	"r5\000"
 1516 061b 04       		.byte	0x4
 1517 061c 9F01     		.2byte	0x19f
 1518 061e 11       		.byte	0x11
 1519 061f E8000000 		.4byte	0xe8
 1520 0623 44       		.byte	0x44
 1521 0624 0A       		.uleb128 0xa
 1522 0625 723600   		.ascii	"r6\000"
 1523 0628 04       		.byte	0x4
 1524 0629 A001     		.2byte	0x1a0
 1525 062b 11       		.byte	0x11
 1526 062c E8000000 		.4byte	0xe8
 1527 0630 48       		.byte	0x48
 1528 0631 0A       		.uleb128 0xa
 1529 0632 723700   		.ascii	"r7\000"
 1530 0635 04       		.byte	0x4
 1531 0636 A101     		.2byte	0x1a1
ARM GAS  /tmp/ccFWkvbl.s 			page 28


 1532 0638 11       		.byte	0x11
 1533 0639 E8000000 		.4byte	0xe8
 1534 063d 4C       		.byte	0x4c
 1535 063e 0A       		.uleb128 0xa
 1536 063f 723800   		.ascii	"r8\000"
 1537 0642 04       		.byte	0x4
 1538 0643 A201     		.2byte	0x1a2
 1539 0645 11       		.byte	0x11
 1540 0646 E8000000 		.4byte	0xe8
 1541 064a 50       		.byte	0x50
 1542 064b 0A       		.uleb128 0xa
 1543 064c 723900   		.ascii	"r9\000"
 1544 064f 04       		.byte	0x4
 1545 0650 A301     		.2byte	0x1a3
 1546 0652 11       		.byte	0x11
 1547 0653 E8000000 		.4byte	0xe8
 1548 0657 54       		.byte	0x54
 1549 0658 0A       		.uleb128 0xa
 1550 0659 72313000 		.ascii	"r10\000"
 1551 065d 04       		.byte	0x4
 1552 065e A401     		.2byte	0x1a4
 1553 0660 11       		.byte	0x11
 1554 0661 E8000000 		.4byte	0xe8
 1555 0665 58       		.byte	0x58
 1556 0666 0A       		.uleb128 0xa
 1557 0667 72313100 		.ascii	"r11\000"
 1558 066b 04       		.byte	0x4
 1559 066c A501     		.2byte	0x1a5
 1560 066e 11       		.byte	0x11
 1561 066f E8000000 		.4byte	0xe8
 1562 0673 5C       		.byte	0x5c
 1563 0674 0A       		.uleb128 0xa
 1564 0675 6C7200   		.ascii	"lr\000"
 1565 0678 04       		.byte	0x4
 1566 0679 A601     		.2byte	0x1a6
 1567 067b 11       		.byte	0x11
 1568 067c E8000000 		.4byte	0xe8
 1569 0680 60       		.byte	0x60
 1570 0681 00       		.byte	0
 1571 0682 0D       		.uleb128 0xd
 1572 0683 C8040000 		.4byte	.LASF82
 1573 0687 04       		.byte	0x4
 1574 0688 04       		.byte	0x4
 1575 0689 A901     		.2byte	0x1a9
 1576 068b 08       		.byte	0x8
 1577 068c 9E060000 		.4byte	0x69e
 1578 0690 0A       		.uleb128 0xa
 1579 0691 737000   		.ascii	"sp\000"
 1580 0694 04       		.byte	0x4
 1581 0695 AA01     		.2byte	0x1aa
 1582 0697 1A       		.byte	0x1a
 1583 0698 9E060000 		.4byte	0x69e
 1584 069c 00       		.byte	0
 1585 069d 00       		.byte	0
 1586 069e 0C       		.uleb128 0xc
 1587 069f 04       		.byte	0x4
 1588 06a0 1C050000 		.4byte	0x51c
ARM GAS  /tmp/ccFWkvbl.s 			page 29


 1589 06a4 18       		.uleb128 0x18
 1590 06a5 08       		.byte	0x8
 1591 06a6 10       		.byte	0x10
 1592 06a7 7F       		.byte	0x7f
 1593 06a8 05       		.byte	0x5
 1594 06a9 C8060000 		.4byte	0x6c8
 1595 06ad 09       		.uleb128 0x9
 1596 06ae 6E747000 		.ascii	"ntp\000"
 1597 06b2 10       		.byte	0x10
 1598 06b3 83       		.byte	0x83
 1599 06b4 1E       		.byte	0x1e
 1600 06b5 74020000 		.4byte	0x274
 1601 06b9 00       		.byte	0
 1602 06ba 08       		.uleb128 0x8
 1603 06bb 7D060000 		.4byte	.LASF83
 1604 06bf 10       		.byte	0x10
 1605 06c0 87       		.byte	0x87
 1606 06c1 1E       		.byte	0x1e
 1607 06c2 61030000 		.4byte	0x361
 1608 06c6 04       		.byte	0x4
 1609 06c7 00       		.byte	0
 1610 06c8 18       		.uleb128 0x18
 1611 06c9 04       		.byte	0x4
 1612 06ca 10       		.byte	0x10
 1613 06cb 8C       		.byte	0x8c
 1614 06cc 05       		.byte	0x5
 1615 06cd DF060000 		.4byte	0x6df
 1616 06d1 08       		.uleb128 0x8
 1617 06d2 48030000 		.4byte	.LASF35
 1618 06d6 10       		.byte	0x10
 1619 06d7 90       		.byte	0x90
 1620 06d8 1E       		.byte	0x1e
 1621 06d9 DF060000 		.4byte	0x6df
 1622 06dd 00       		.byte	0
 1623 06de 00       		.byte	0
 1624 06df 0C       		.uleb128 0xc
 1625 06e0 04       		.byte	0x4
 1626 06e1 F1060000 		.4byte	0x6f1
 1627 06e5 06       		.uleb128 0x6
 1628 06e6 DF060000 		.4byte	0x6df
 1629 06ea 04       		.uleb128 0x4
 1630 06eb 01       		.byte	0x1
 1631 06ec 08       		.byte	0x8
 1632 06ed 70070000 		.4byte	.LASF84
 1633 06f1 05       		.uleb128 0x5
 1634 06f2 EA060000 		.4byte	0x6ea
 1635 06f6 18       		.uleb128 0x18
 1636 06f7 04       		.byte	0x4
 1637 06f8 10       		.byte	0x10
 1638 06f9 95       		.byte	0x95
 1639 06fa 05       		.byte	0x5
 1640 06fb 0D070000 		.4byte	0x70d
 1641 06ff 08       		.uleb128 0x8
 1642 0700 CE060000 		.4byte	.LASF85
 1643 0704 10       		.byte	0x10
 1644 0705 99       		.byte	0x99
 1645 0706 1E       		.byte	0x1e
ARM GAS  /tmp/ccFWkvbl.s 			page 30


 1646 0707 DF060000 		.4byte	0x6df
 1647 070b 00       		.byte	0
 1648 070c 00       		.byte	0
 1649 070d 18       		.uleb128 0x18
 1650 070e 08       		.byte	0x8
 1651 070f 10       		.byte	0x10
 1652 0710 9E       		.byte	0x9e
 1653 0711 05       		.byte	0x5
 1654 0712 31070000 		.4byte	0x731
 1655 0716 09       		.uleb128 0x9
 1656 0717 75703100 		.ascii	"up1\000"
 1657 071b 10       		.byte	0x10
 1658 071c A2       		.byte	0xa2
 1659 071d 1E       		.byte	0x1e
 1660 071e 61030000 		.4byte	0x361
 1661 0722 00       		.byte	0
 1662 0723 09       		.uleb128 0x9
 1663 0724 75703200 		.ascii	"up2\000"
 1664 0728 10       		.byte	0x10
 1665 0729 A6       		.byte	0xa6
 1666 072a 1E       		.byte	0x1e
 1667 072b 61030000 		.4byte	0x361
 1668 072f 04       		.byte	0x4
 1669 0730 00       		.byte	0
 1670 0731 19       		.uleb128 0x19
 1671 0732 08       		.byte	0x8
 1672 0733 10       		.byte	0x10
 1673 0734 7B       		.byte	0x7b
 1674 0735 03       		.byte	0x3
 1675 0736 6A070000 		.4byte	0x76a
 1676 073a 1A       		.uleb128 0x1a
 1677 073b 737700   		.ascii	"sw\000"
 1678 073e 10       		.byte	0x10
 1679 073f 88       		.byte	0x88
 1680 0740 07       		.byte	0x7
 1681 0741 A4060000 		.4byte	0x6a4
 1682 0745 1A       		.uleb128 0x1a
 1683 0746 69737200 		.ascii	"isr\000"
 1684 074a 10       		.byte	0x10
 1685 074b 91       		.byte	0x91
 1686 074c 07       		.byte	0x7
 1687 074d C8060000 		.4byte	0x6c8
 1688 0751 1B       		.uleb128 0x1b
 1689 0752 9E000000 		.4byte	.LASF86
 1690 0756 10       		.byte	0x10
 1691 0757 9A       		.byte	0x9a
 1692 0758 07       		.byte	0x7
 1693 0759 F6060000 		.4byte	0x6f6
 1694 075d 1B       		.uleb128 0x1b
 1695 075e 1F060000 		.4byte	.LASF87
 1696 0762 10       		.byte	0x10
 1697 0763 A7       		.byte	0xa7
 1698 0764 07       		.byte	0x7
 1699 0765 0D070000 		.4byte	0x70d
 1700 0769 00       		.byte	0
 1701 076a 18       		.uleb128 0x18
 1702 076b 10       		.byte	0x10
ARM GAS  /tmp/ccFWkvbl.s 			page 31


 1703 076c 10       		.byte	0x10
 1704 076d 68       		.byte	0x68
 1705 076e 09       		.byte	0x9
 1706 076f BC070000 		.4byte	0x7bc
 1707 0773 1C       		.uleb128 0x1c
 1708 0774 6F000000 		.4byte	.LASF88
 1709 0778 10       		.byte	0x10
 1710 0779 6C       		.byte	0x6c
 1711 077a 19       		.byte	0x19
 1712 077b E8000000 		.4byte	0xe8
 1713 077f 04       		.byte	0x4
 1714 0780 03       		.byte	0x3
 1715 0781 1D       		.byte	0x1d
 1716 0782 00       		.byte	0
 1717 0783 1C       		.uleb128 0x1c
 1718 0784 64010000 		.4byte	.LASF37
 1719 0788 10       		.byte	0x10
 1720 0789 70       		.byte	0x70
 1721 078a 19       		.byte	0x19
 1722 078b E8000000 		.4byte	0xe8
 1723 078f 04       		.byte	0x4
 1724 0790 05       		.byte	0x5
 1725 0791 18       		.byte	0x18
 1726 0792 00       		.byte	0
 1727 0793 1C       		.uleb128 0x1c
 1728 0794 0F040000 		.4byte	.LASF89
 1729 0798 10       		.byte	0x10
 1730 0799 76       		.byte	0x76
 1731 079a 19       		.byte	0x19
 1732 079b E8000000 		.4byte	0xe8
 1733 079f 04       		.byte	0x4
 1734 07a0 18       		.byte	0x18
 1735 07a1 00       		.byte	0
 1736 07a2 00       		.byte	0
 1737 07a3 08       		.uleb128 0x8
 1738 07a4 E1040000 		.4byte	.LASF90
 1739 07a8 10       		.byte	0x10
 1740 07a9 7A       		.byte	0x7a
 1741 07aa 19       		.byte	0x19
 1742 07ab B2040000 		.4byte	0x4b2
 1743 07af 04       		.byte	0x4
 1744 07b0 09       		.uleb128 0x9
 1745 07b1 7500     		.ascii	"u\000"
 1746 07b3 10       		.byte	0x10
 1747 07b4 A8       		.byte	0xa8
 1748 07b5 05       		.byte	0x5
 1749 07b6 31070000 		.4byte	0x731
 1750 07ba 08       		.byte	0x8
 1751 07bb 00       		.byte	0
 1752 07bc 03       		.uleb128 0x3
 1753 07bd 95010000 		.4byte	.LASF91
 1754 07c1 10       		.byte	0x10
 1755 07c2 A9       		.byte	0xa9
 1756 07c3 03       		.byte	0x3
 1757 07c4 6A070000 		.4byte	0x76a
 1758 07c8 1D       		.uleb128 0x1d
 1759 07c9 0808     		.2byte	0x808
ARM GAS  /tmp/ccFWkvbl.s 			page 32


 1760 07cb 10       		.byte	0x10
 1761 07cc AF       		.byte	0xaf
 1762 07cd 09       		.byte	0x9
 1763 07ce 07080000 		.4byte	0x807
 1764 07d2 08       		.uleb128 0x8
 1765 07d3 94000000 		.4byte	.LASF92
 1766 07d7 10       		.byte	0x10
 1767 07d8 B3       		.byte	0xb3
 1768 07d9 19       		.byte	0x19
 1769 07da CB000000 		.4byte	0xcb
 1770 07de 00       		.byte	0
 1771 07df 08       		.uleb128 0x8
 1772 07e0 57010000 		.4byte	.LASF93
 1773 07e4 10       		.byte	0x10
 1774 07e5 B7       		.byte	0xb7
 1775 07e6 19       		.byte	0x19
 1776 07e7 CB000000 		.4byte	0xcb
 1777 07eb 02       		.byte	0x2
 1778 07ec 09       		.uleb128 0x9
 1779 07ed 70747200 		.ascii	"ptr\000"
 1780 07f1 10       		.byte	0x10
 1781 07f2 BB       		.byte	0xbb
 1782 07f3 1A       		.byte	0x1a
 1783 07f4 07080000 		.4byte	0x807
 1784 07f8 04       		.byte	0x4
 1785 07f9 08       		.uleb128 0x8
 1786 07fa DC010000 		.4byte	.LASF94
 1787 07fe 10       		.byte	0x10
 1788 07ff BF       		.byte	0xbf
 1789 0800 19       		.byte	0x19
 1790 0801 0D080000 		.4byte	0x80d
 1791 0805 08       		.byte	0x8
 1792 0806 00       		.byte	0
 1793 0807 0C       		.uleb128 0xc
 1794 0808 04       		.byte	0x4
 1795 0809 BC070000 		.4byte	0x7bc
 1796 080d 16       		.uleb128 0x16
 1797 080e BC070000 		.4byte	0x7bc
 1798 0812 1D080000 		.4byte	0x81d
 1799 0816 17       		.uleb128 0x17
 1800 0817 38000000 		.4byte	0x38
 1801 081b 7F       		.byte	0x7f
 1802 081c 00       		.byte	0
 1803 081d 03       		.uleb128 0x3
 1804 081e 42060000 		.4byte	.LASF95
 1805 0822 10       		.byte	0x10
 1806 0823 C0       		.byte	0xc0
 1807 0824 03       		.byte	0x3
 1808 0825 C8070000 		.4byte	0x7c8
 1809 0829 18       		.uleb128 0x18
 1810 082a 04       		.byte	0x4
 1811 082b 11       		.byte	0x11
 1812 082c 38       		.byte	0x38
 1813 082d 09       		.byte	0x9
 1814 082e 40080000 		.4byte	0x840
 1815 0832 08       		.uleb128 0x8
 1816 0833 D5070000 		.4byte	.LASF96
ARM GAS  /tmp/ccFWkvbl.s 			page 33


 1817 0837 11       		.byte	0x11
 1818 0838 3C       		.byte	0x3c
 1819 0839 19       		.byte	0x19
 1820 083a 00010000 		.4byte	0x100
 1821 083e 00       		.byte	0
 1822 083f 00       		.byte	0
 1823 0840 03       		.uleb128 0x3
 1824 0841 76040000 		.4byte	.LASF97
 1825 0845 11       		.byte	0x11
 1826 0846 3D       		.byte	0x3d
 1827 0847 03       		.byte	0x3
 1828 0848 29080000 		.4byte	0x829
 1829 084c 19       		.uleb128 0x19
 1830 084d 04       		.byte	0x4
 1831 084e 0B       		.byte	0xb
 1832 084f C6       		.byte	0xc6
 1833 0850 03       		.byte	0x3
 1834 0851 B7080000 		.4byte	0x8b7
 1835 0855 1B       		.uleb128 0x1b
 1836 0856 20000000 		.4byte	.LASF98
 1837 085a 0B       		.byte	0xb
 1838 085b CD       		.byte	0xcd
 1839 085c 19       		.byte	0x19
 1840 085d 3C010000 		.4byte	0x13c
 1841 0861 1B       		.uleb128 0x1b
 1842 0862 E3010000 		.4byte	.LASF99
 1843 0866 0B       		.byte	0xb
 1844 0867 D4       		.byte	0xd4
 1845 0868 19       		.byte	0x19
 1846 0869 3C010000 		.4byte	0x13c
 1847 086d 1B       		.uleb128 0x1b
 1848 086e 7D060000 		.4byte	.LASF83
 1849 0872 0B       		.byte	0xb
 1850 0873 DB       		.byte	0xdb
 1851 0874 1A       		.byte	0x1a
 1852 0875 61030000 		.4byte	0x361
 1853 0879 1B       		.uleb128 0x1b
 1854 087a 52040000 		.4byte	.LASF100
 1855 087e 0B       		.byte	0xb
 1856 087f E2       		.byte	0xe2
 1857 0880 1A       		.byte	0x1a
 1858 0881 B7080000 		.4byte	0x8b7
 1859 0885 1B       		.uleb128 0x1b
 1860 0886 AE000000 		.4byte	.LASF101
 1861 088a 0B       		.byte	0xb
 1862 088b E7       		.byte	0xe7
 1863 088c 19       		.byte	0x19
 1864 088d 3C010000 		.4byte	0x13c
 1865 0891 1B       		.uleb128 0x1b
 1866 0892 C3020000 		.4byte	.LASF102
 1867 0896 0B       		.byte	0xb
 1868 0897 F0       		.byte	0xf0
 1869 0898 1A       		.byte	0x1a
 1870 0899 E5080000 		.4byte	0x8e5
 1871 089d 1B       		.uleb128 0x1b
 1872 089e 37070000 		.4byte	.LASF103
 1873 08a2 0B       		.byte	0xb
ARM GAS  /tmp/ccFWkvbl.s 			page 34


 1874 08a3 F9       		.byte	0xf9
 1875 08a4 1A       		.byte	0x1a
 1876 08a5 20090000 		.4byte	0x920
 1877 08a9 1E       		.uleb128 0x1e
 1878 08aa 84060000 		.4byte	.LASF104
 1879 08ae 0B       		.byte	0xb
 1880 08af 0101     		.2byte	0x101
 1881 08b1 19       		.byte	0x19
 1882 08b2 48010000 		.4byte	0x148
 1883 08b6 00       		.byte	0
 1884 08b7 0C       		.uleb128 0xc
 1885 08b8 04       		.byte	0x4
 1886 08b9 68020000 		.4byte	0x268
 1887 08bd 07       		.uleb128 0x7
 1888 08be F3060000 		.4byte	.LASF105
 1889 08c2 0C       		.byte	0xc
 1890 08c3 12       		.byte	0x12
 1891 08c4 34       		.byte	0x34
 1892 08c5 10       		.byte	0x10
 1893 08c6 E5080000 		.4byte	0x8e5
 1894 08ca 08       		.uleb128 0x8
 1895 08cb 4D030000 		.4byte	.LASF31
 1896 08cf 12       		.byte	0x12
 1897 08d0 35       		.byte	0x35
 1898 08d1 19       		.byte	0x19
 1899 08d2 A1020000 		.4byte	0x2a1
 1900 08d6 00       		.byte	0
 1901 08d7 09       		.uleb128 0x9
 1902 08d8 636E7400 		.ascii	"cnt\000"
 1903 08dc 12       		.byte	0x12
 1904 08dd 37       		.byte	0x37
 1905 08de 19       		.byte	0x19
 1906 08df 54010000 		.4byte	0x154
 1907 08e3 08       		.byte	0x8
 1908 08e4 00       		.byte	0
 1909 08e5 0C       		.uleb128 0xc
 1910 08e6 04       		.byte	0x4
 1911 08e7 BD080000 		.4byte	0x8bd
 1912 08eb 07       		.uleb128 0x7
 1913 08ec F4080000 		.4byte	.LASF106
 1914 08f0 10       		.byte	0x10
 1915 08f1 13       		.byte	0x13
 1916 08f2 39       		.byte	0x39
 1917 08f3 08       		.byte	0x8
 1918 08f4 20090000 		.4byte	0x920
 1919 08f8 08       		.uleb128 0x8
 1920 08f9 4D030000 		.4byte	.LASF31
 1921 08fd 13       		.byte	0x13
 1922 08fe 3A       		.byte	0x3a
 1923 08ff 19       		.byte	0x19
 1924 0900 A1020000 		.4byte	0x2a1
 1925 0904 00       		.byte	0
 1926 0905 08       		.uleb128 0x8
 1927 0906 4E070000 		.4byte	.LASF107
 1928 090a 13       		.byte	0x13
 1929 090b 3C       		.byte	0x3c
 1930 090c 1A       		.byte	0x1a
ARM GAS  /tmp/ccFWkvbl.s 			page 35


 1931 090d 74020000 		.4byte	0x274
 1932 0911 08       		.byte	0x8
 1933 0912 08       		.uleb128 0x8
 1934 0913 E3000000 		.4byte	.LASF50
 1935 0917 13       		.byte	0x13
 1936 0918 3E       		.byte	0x3e
 1937 0919 1A       		.byte	0x1a
 1938 091a 830A0000 		.4byte	0xa83
 1939 091e 0C       		.byte	0xc
 1940 091f 00       		.byte	0
 1941 0920 0C       		.uleb128 0xc
 1942 0921 04       		.byte	0x4
 1943 0922 EB080000 		.4byte	0x8eb
 1944 0926 0C       		.uleb128 0xc
 1945 0927 04       		.byte	0x4
 1946 0928 10050000 		.4byte	0x510
 1947 092c 0C       		.uleb128 0xc
 1948 092d 04       		.byte	0x4
 1949 092e 63030000 		.4byte	0x363
 1950 0932 1F       		.uleb128 0x1f
 1951 0933 636800   		.ascii	"ch\000"
 1952 0936 0B       		.byte	0xb
 1953 0937 C701     		.2byte	0x1c7
 1954 0939 14       		.byte	0x14
 1955 093a 4F040000 		.4byte	0x44f
 1956 093e 16       		.uleb128 0x16
 1957 093f 10050000 		.4byte	0x510
 1958 0943 49090000 		.4byte	0x949
 1959 0947 20       		.uleb128 0x20
 1960 0948 00       		.byte	0
 1961 0949 14       		.uleb128 0x14
 1962 094a 09070000 		.4byte	.LASF108
 1963 094e 03       		.byte	0x3
 1964 094f 1701     		.2byte	0x117
 1965 0951 13       		.byte	0x13
 1966 0952 3E090000 		.4byte	0x93e
 1967 0956 18       		.uleb128 0x18
 1968 0957 16       		.byte	0x16
 1969 0958 14       		.byte	0x14
 1970 0959 34       		.byte	0x34
 1971 095a 09       		.byte	0x9
 1972 095b 4A0A0000 		.4byte	0xa4a
 1973 095f 08       		.uleb128 0x8
 1974 0960 3A080000 		.4byte	.LASF109
 1975 0964 14       		.byte	0x14
 1976 0965 35       		.byte	0x35
 1977 0966 0D       		.byte	0xd
 1978 0967 4A0A0000 		.4byte	0xa4a
 1979 096b 00       		.byte	0
 1980 096c 08       		.uleb128 0x8
 1981 096d 5F020000 		.4byte	.LASF110
 1982 0971 14       		.byte	0x14
 1983 0972 36       		.byte	0x36
 1984 0973 0D       		.byte	0xd
 1985 0974 BA000000 		.4byte	0xba
 1986 0978 04       		.byte	0x4
 1987 0979 08       		.uleb128 0x8
ARM GAS  /tmp/ccFWkvbl.s 			page 36


 1988 097a 57010000 		.4byte	.LASF93
 1989 097e 14       		.byte	0x14
 1990 097f 37       		.byte	0x37
 1991 0980 0D       		.byte	0xd
 1992 0981 BA000000 		.4byte	0xba
 1993 0985 05       		.byte	0x5
 1994 0986 08       		.uleb128 0x8
 1995 0987 29040000 		.4byte	.LASF111
 1996 098b 14       		.byte	0x14
 1997 098c 38       		.byte	0x38
 1998 098d 0D       		.byte	0xd
 1999 098e CB000000 		.4byte	0xcb
 2000 0992 06       		.byte	0x6
 2001 0993 08       		.uleb128 0x8
 2002 0994 59080000 		.4byte	.LASF112
 2003 0998 14       		.byte	0x14
 2004 0999 39       		.byte	0x39
 2005 099a 0D       		.byte	0xd
 2006 099b BA000000 		.4byte	0xba
 2007 099f 08       		.byte	0x8
 2008 09a0 08       		.uleb128 0x8
 2009 09a1 1B070000 		.4byte	.LASF113
 2010 09a5 14       		.byte	0x14
 2011 09a6 3A       		.byte	0x3a
 2012 09a7 0D       		.byte	0xd
 2013 09a8 BA000000 		.4byte	0xba
 2014 09ac 09       		.byte	0x9
 2015 09ad 08       		.uleb128 0x8
 2016 09ae E8050000 		.4byte	.LASF114
 2017 09b2 14       		.byte	0x14
 2018 09b3 3B       		.byte	0x3b
 2019 09b4 0D       		.byte	0xd
 2020 09b5 BA000000 		.4byte	0xba
 2021 09b9 0A       		.byte	0xa
 2022 09ba 08       		.uleb128 0x8
 2023 09bb 54060000 		.4byte	.LASF115
 2024 09bf 14       		.byte	0x14
 2025 09c0 3C       		.byte	0x3c
 2026 09c1 0D       		.byte	0xd
 2027 09c2 BA000000 		.4byte	0xba
 2028 09c6 0B       		.byte	0xb
 2029 09c7 08       		.uleb128 0x8
 2030 09c8 B7030000 		.4byte	.LASF116
 2031 09cc 14       		.byte	0x14
 2032 09cd 3D       		.byte	0x3d
 2033 09ce 0D       		.byte	0xd
 2034 09cf BA000000 		.4byte	0xba
 2035 09d3 0C       		.byte	0xc
 2036 09d4 08       		.uleb128 0x8
 2037 09d5 4F080000 		.4byte	.LASF117
 2038 09d9 14       		.byte	0x14
 2039 09da 3E       		.byte	0x3e
 2040 09db 0D       		.byte	0xd
 2041 09dc BA000000 		.4byte	0xba
 2042 09e0 0D       		.byte	0xd
 2043 09e1 08       		.uleb128 0x8
 2044 09e2 DC070000 		.4byte	.LASF118
ARM GAS  /tmp/ccFWkvbl.s 			page 37


 2045 09e6 14       		.byte	0x14
 2046 09e7 3F       		.byte	0x3f
 2047 09e8 0D       		.byte	0xd
 2048 09e9 BA000000 		.4byte	0xba
 2049 09ed 0E       		.byte	0xe
 2050 09ee 08       		.uleb128 0x8
 2051 09ef DA000000 		.4byte	.LASF119
 2052 09f3 14       		.byte	0x14
 2053 09f4 40       		.byte	0x40
 2054 09f5 0D       		.byte	0xd
 2055 09f6 BA000000 		.4byte	0xba
 2056 09fa 0F       		.byte	0xf
 2057 09fb 08       		.uleb128 0x8
 2058 09fc 5D060000 		.4byte	.LASF120
 2059 0a00 14       		.byte	0x14
 2060 0a01 41       		.byte	0x41
 2061 0a02 0D       		.byte	0xd
 2062 0a03 BA000000 		.4byte	0xba
 2063 0a07 10       		.byte	0x10
 2064 0a08 08       		.uleb128 0x8
 2065 0a09 24090000 		.4byte	.LASF121
 2066 0a0d 14       		.byte	0x14
 2067 0a0e 42       		.byte	0x42
 2068 0a0f 0D       		.byte	0xd
 2069 0a10 BA000000 		.4byte	0xba
 2070 0a14 11       		.byte	0x11
 2071 0a15 08       		.uleb128 0x8
 2072 0a16 4C090000 		.4byte	.LASF122
 2073 0a1a 14       		.byte	0x14
 2074 0a1b 43       		.byte	0x43
 2075 0a1c 0D       		.byte	0xd
 2076 0a1d BA000000 		.4byte	0xba
 2077 0a21 12       		.byte	0x12
 2078 0a22 08       		.uleb128 0x8
 2079 0a23 64030000 		.4byte	.LASF123
 2080 0a27 14       		.byte	0x14
 2081 0a28 44       		.byte	0x44
 2082 0a29 0D       		.byte	0xd
 2083 0a2a BA000000 		.4byte	0xba
 2084 0a2e 13       		.byte	0x13
 2085 0a2f 08       		.uleb128 0x8
 2086 0a30 D0010000 		.4byte	.LASF124
 2087 0a34 14       		.byte	0x14
 2088 0a35 45       		.byte	0x45
 2089 0a36 0D       		.byte	0xd
 2090 0a37 BA000000 		.4byte	0xba
 2091 0a3b 14       		.byte	0x14
 2092 0a3c 08       		.uleb128 0x8
 2093 0a3d 00070000 		.4byte	.LASF125
 2094 0a41 14       		.byte	0x14
 2095 0a42 46       		.byte	0x46
 2096 0a43 0D       		.byte	0xd
 2097 0a44 BA000000 		.4byte	0xba
 2098 0a48 15       		.byte	0x15
 2099 0a49 00       		.byte	0
 2100 0a4a 16       		.uleb128 0x16
 2101 0a4b EA060000 		.4byte	0x6ea
ARM GAS  /tmp/ccFWkvbl.s 			page 38


 2102 0a4f 5A0A0000 		.4byte	0xa5a
 2103 0a53 17       		.uleb128 0x17
 2104 0a54 38000000 		.4byte	0x38
 2105 0a58 03       		.byte	0x3
 2106 0a59 00       		.byte	0
 2107 0a5a 03       		.uleb128 0x3
 2108 0a5b C6010000 		.4byte	.LASF126
 2109 0a5f 14       		.byte	0x14
 2110 0a60 47       		.byte	0x47
 2111 0a61 03       		.byte	0x3
 2112 0a62 56090000 		.4byte	0x956
 2113 0a66 05       		.uleb128 0x5
 2114 0a67 5A0A0000 		.4byte	0xa5a
 2115 0a6b 15       		.uleb128 0x15
 2116 0a6c 12030000 		.4byte	.LASF127
 2117 0a70 14       		.byte	0x14
 2118 0a71 6C       		.byte	0x6c
 2119 0a72 1D       		.byte	0x1d
 2120 0a73 660A0000 		.4byte	0xa66
 2121 0a77 03       		.uleb128 0x3
 2122 0a78 64020000 		.4byte	.LASF128
 2123 0a7c 13       		.byte	0x13
 2124 0a7d 34       		.byte	0x34
 2125 0a7e 19       		.byte	0x19
 2126 0a7f EB080000 		.4byte	0x8eb
 2127 0a83 0C       		.uleb128 0xc
 2128 0a84 04       		.byte	0x4
 2129 0a85 770A0000 		.4byte	0xa77
 2130 0a89 04       		.uleb128 0x4
 2131 0a8a 01       		.byte	0x1
 2132 0a8b 02       		.byte	0x2
 2133 0a8c 34060000 		.4byte	.LASF129
 2134 0a90 03       		.uleb128 0x3
 2135 0a91 87000000 		.4byte	.LASF130
 2136 0a95 15       		.byte	0x15
 2137 0a96 47       		.byte	0x47
 2138 0a97 11       		.byte	0x11
 2139 0a98 9C0A0000 		.4byte	0xa9c
 2140 0a9c 0C       		.uleb128 0xc
 2141 0a9d 04       		.byte	0x4
 2142 0a9e A20A0000 		.4byte	0xaa2
 2143 0aa2 21       		.uleb128 0x21
 2144 0aa3 61030000 		.4byte	0x361
 2145 0aa7 B60A0000 		.4byte	0xab6
 2146 0aab 0F       		.uleb128 0xf
 2147 0aac 2C000000 		.4byte	0x2c
 2148 0ab0 0F       		.uleb128 0xf
 2149 0ab1 38000000 		.4byte	0x38
 2150 0ab5 00       		.byte	0
 2151 0ab6 18       		.uleb128 0x18
 2152 0ab7 08       		.byte	0x8
 2153 0ab8 15       		.byte	0x15
 2154 0ab9 51       		.byte	0x51
 2155 0aba 09       		.byte	0x9
 2156 0abb DA0A0000 		.4byte	0xada
 2157 0abf 08       		.uleb128 0x8
 2158 0ac0 23010000 		.4byte	.LASF131
ARM GAS  /tmp/ccFWkvbl.s 			page 39


 2159 0ac4 15       		.byte	0x15
 2160 0ac5 55       		.byte	0x55
 2161 0ac6 0C       		.byte	0xc
 2162 0ac7 DA0A0000 		.4byte	0xada
 2163 0acb 00       		.byte	0
 2164 0acc 08       		.uleb128 0x8
 2165 0acd 0B030000 		.4byte	.LASF132
 2166 0ad1 15       		.byte	0x15
 2167 0ad2 59       		.byte	0x59
 2168 0ad3 0C       		.byte	0xc
 2169 0ad4 DA0A0000 		.4byte	0xada
 2170 0ad8 04       		.byte	0x4
 2171 0ad9 00       		.byte	0
 2172 0ada 0C       		.uleb128 0xc
 2173 0adb 04       		.byte	0x4
 2174 0adc BA000000 		.4byte	0xba
 2175 0ae0 03       		.uleb128 0x3
 2176 0ae1 FE040000 		.4byte	.LASF133
 2177 0ae5 15       		.byte	0x15
 2178 0ae6 5A       		.byte	0x5a
 2179 0ae7 03       		.byte	0x3
 2180 0ae8 B60A0000 		.4byte	0xab6
 2181 0aec 15       		.uleb128 0x15
 2182 0aed 47040000 		.4byte	.LASF134
 2183 0af1 15       		.byte	0x15
 2184 0af2 75       		.byte	0x75
 2185 0af3 12       		.byte	0x12
 2186 0af4 E00A0000 		.4byte	0xae0
 2187 0af8 07       		.uleb128 0x7
 2188 0af9 71080000 		.4byte	.LASF135
 2189 0afd 04       		.byte	0x4
 2190 0afe 16       		.byte	0x16
 2191 0aff 38       		.byte	0x38
 2192 0b00 08       		.byte	0x8
 2193 0b01 130B0000 		.4byte	0xb13
 2194 0b05 08       		.uleb128 0x8
 2195 0b06 E3000000 		.4byte	.LASF50
 2196 0b0a 16       		.byte	0x16
 2197 0b0b 39       		.byte	0x39
 2198 0b0c 1A       		.byte	0x1a
 2199 0b0d 130B0000 		.4byte	0xb13
 2200 0b11 00       		.byte	0
 2201 0b12 00       		.byte	0
 2202 0b13 0C       		.uleb128 0xc
 2203 0b14 04       		.byte	0x4
 2204 0b15 F80A0000 		.4byte	0xaf8
 2205 0b19 18       		.uleb128 0x18
 2206 0b1a 10       		.byte	0x10
 2207 0b1b 16       		.byte	0x16
 2208 0b1c 40       		.byte	0x40
 2209 0b1d 09       		.byte	0x9
 2210 0b1e 570B0000 		.4byte	0xb57
 2211 0b22 08       		.uleb128 0x8
 2212 0b23 E3000000 		.4byte	.LASF50
 2213 0b27 16       		.byte	0x16
 2214 0b28 41       		.byte	0x41
 2215 0b29 1A       		.byte	0x1a
ARM GAS  /tmp/ccFWkvbl.s 			page 40


 2216 0b2a 130B0000 		.4byte	0xb13
 2217 0b2e 00       		.byte	0
 2218 0b2f 08       		.uleb128 0x8
 2219 0b30 D5040000 		.4byte	.LASF136
 2220 0b34 16       		.byte	0x16
 2221 0b35 42       		.byte	0x42
 2222 0b36 19       		.byte	0x19
 2223 0b37 2C000000 		.4byte	0x2c
 2224 0b3b 04       		.byte	0x4
 2225 0b3c 08       		.uleb128 0x8
 2226 0b3d 6C020000 		.4byte	.LASF137
 2227 0b41 16       		.byte	0x16
 2228 0b42 44       		.byte	0x44
 2229 0b43 19       		.byte	0x19
 2230 0b44 38000000 		.4byte	0x38
 2231 0b48 08       		.byte	0x8
 2232 0b49 08       		.uleb128 0x8
 2233 0b4a 66000000 		.4byte	.LASF138
 2234 0b4e 16       		.byte	0x16
 2235 0b4f 45       		.byte	0x45
 2236 0b50 19       		.byte	0x19
 2237 0b51 900A0000 		.4byte	0xa90
 2238 0b55 0C       		.byte	0xc
 2239 0b56 00       		.byte	0
 2240 0b57 03       		.uleb128 0x3
 2241 0b58 3A030000 		.4byte	.LASF139
 2242 0b5c 16       		.byte	0x16
 2243 0b5d 47       		.byte	0x47
 2244 0b5e 03       		.byte	0x3
 2245 0b5f 190B0000 		.4byte	0xb19
 2246 0b63 03       		.uleb128 0x3
 2247 0b64 58040000 		.4byte	.LASF140
 2248 0b68 17       		.byte	0x17
 2249 0b69 28       		.byte	0x28
 2250 0b6a 1B       		.byte	0x1b
 2251 0b6b 6F0B0000 		.4byte	0xb6f
 2252 0b6f 22       		.uleb128 0x22
 2253 0b70 A1030000 		.4byte	.LASF193
 2254 0b74 04       		.byte	0x4
 2255 0b75 1A       		.byte	0x1a
 2256 0b76 00       		.byte	0
 2257 0b77 860B0000 		.4byte	0xb86
 2258 0b7b 23       		.uleb128 0x23
 2259 0b7c 1B080000 		.4byte	.LASF194
 2260 0b80 61030000 		.4byte	0x361
 2261 0b84 00       		.byte	0
 2262 0b85 00       		.byte	0
 2263 0b86 03       		.uleb128 0x3
 2264 0b87 57000000 		.4byte	.LASF141
 2265 0b8b 17       		.byte	0x17
 2266 0b8c 63       		.byte	0x63
 2267 0b8d 18       		.byte	0x18
 2268 0b8e 630B0000 		.4byte	0xb63
 2269 0b92 03       		.uleb128 0x3
 2270 0b93 87040000 		.4byte	.LASF142
 2271 0b97 18       		.byte	0x18
 2272 0b98 3C       		.byte	0x3c
ARM GAS  /tmp/ccFWkvbl.s 			page 41


 2273 0b99 11       		.byte	0x11
 2274 0b9a 9E0B0000 		.4byte	0xb9e
 2275 0b9e 0C       		.uleb128 0xc
 2276 0b9f 04       		.byte	0x4
 2277 0ba0 A40B0000 		.4byte	0xba4
 2278 0ba4 21       		.uleb128 0x21
 2279 0ba5 3C010000 		.4byte	0x13c
 2280 0ba9 B30B0000 		.4byte	0xbb3
 2281 0bad 0F       		.uleb128 0xf
 2282 0bae B30B0000 		.4byte	0xbb3
 2283 0bb2 00       		.byte	0
 2284 0bb3 0C       		.uleb128 0xc
 2285 0bb4 04       		.byte	0x4
 2286 0bb5 860B0000 		.4byte	0xb86
 2287 0bb9 03       		.uleb128 0x3
 2288 0bba 7D080000 		.4byte	.LASF143
 2289 0bbe 18       		.byte	0x18
 2290 0bbf 41       		.byte	0x41
 2291 0bc0 11       		.byte	0x11
 2292 0bc1 C50B0000 		.4byte	0xbc5
 2293 0bc5 0C       		.uleb128 0xc
 2294 0bc6 04       		.byte	0x4
 2295 0bc7 CB0B0000 		.4byte	0xbcb
 2296 0bcb 24       		.uleb128 0x24
 2297 0bcc 3C010000 		.4byte	0x13c
 2298 0bd0 03       		.uleb128 0x3
 2299 0bd1 67040000 		.4byte	.LASF144
 2300 0bd5 18       		.byte	0x18
 2301 0bd6 46       		.byte	0x46
 2302 0bd7 11       		.byte	0x11
 2303 0bd8 DC0B0000 		.4byte	0xbdc
 2304 0bdc 0C       		.uleb128 0xc
 2305 0bdd 04       		.byte	0x4
 2306 0bde E20B0000 		.4byte	0xbe2
 2307 0be2 21       		.uleb128 0x21
 2308 0be3 3C010000 		.4byte	0x13c
 2309 0be7 F10B0000 		.4byte	0xbf1
 2310 0beb 0F       		.uleb128 0xf
 2311 0bec 3C010000 		.4byte	0x13c
 2312 0bf0 00       		.byte	0
 2313 0bf1 03       		.uleb128 0x3
 2314 0bf2 7D010000 		.4byte	.LASF145
 2315 0bf6 18       		.byte	0x18
 2316 0bf7 4B       		.byte	0x4b
 2317 0bf8 11       		.byte	0x11
 2318 0bf9 FD0B0000 		.4byte	0xbfd
 2319 0bfd 0C       		.uleb128 0xc
 2320 0bfe 04       		.byte	0x4
 2321 0bff 030C0000 		.4byte	0xc03
 2322 0c03 21       		.uleb128 0x21
 2323 0c04 3C010000 		.4byte	0x13c
 2324 0c08 170C0000 		.4byte	0xc17
 2325 0c0c 0F       		.uleb128 0xf
 2326 0c0d 3C010000 		.4byte	0x13c
 2327 0c11 0F       		.uleb128 0xf
 2328 0c12 3C010000 		.4byte	0x13c
 2329 0c16 00       		.byte	0
ARM GAS  /tmp/ccFWkvbl.s 			page 42


 2330 0c17 03       		.uleb128 0x3
 2331 0c18 DB020000 		.4byte	.LASF146
 2332 0c1c 18       		.byte	0x18
 2333 0c1d 50       		.byte	0x50
 2334 0c1e 11       		.byte	0x11
 2335 0c1f 230C0000 		.4byte	0xc23
 2336 0c23 0C       		.uleb128 0xc
 2337 0c24 04       		.byte	0x4
 2338 0c25 290C0000 		.4byte	0xc29
 2339 0c29 21       		.uleb128 0x21
 2340 0c2a 3C010000 		.4byte	0x13c
 2341 0c2e 420C0000 		.4byte	0xc42
 2342 0c32 0F       		.uleb128 0xf
 2343 0c33 3C010000 		.4byte	0x13c
 2344 0c37 0F       		.uleb128 0xf
 2345 0c38 3C010000 		.4byte	0x13c
 2346 0c3c 0F       		.uleb128 0xf
 2347 0c3d 3C010000 		.4byte	0x13c
 2348 0c41 00       		.byte	0
 2349 0c42 03       		.uleb128 0x3
 2350 0c43 FD080000 		.4byte	.LASF147
 2351 0c47 18       		.byte	0x18
 2352 0c48 55       		.byte	0x55
 2353 0c49 11       		.byte	0x11
 2354 0c4a 4E0C0000 		.4byte	0xc4e
 2355 0c4e 0C       		.uleb128 0xc
 2356 0c4f 04       		.byte	0x4
 2357 0c50 540C0000 		.4byte	0xc54
 2358 0c54 21       		.uleb128 0x21
 2359 0c55 3C010000 		.4byte	0x13c
 2360 0c59 720C0000 		.4byte	0xc72
 2361 0c5d 0F       		.uleb128 0xf
 2362 0c5e 3C010000 		.4byte	0x13c
 2363 0c62 0F       		.uleb128 0xf
 2364 0c63 3C010000 		.4byte	0x13c
 2365 0c67 0F       		.uleb128 0xf
 2366 0c68 3C010000 		.4byte	0x13c
 2367 0c6c 0F       		.uleb128 0xf
 2368 0c6d 3C010000 		.4byte	0x13c
 2369 0c71 00       		.byte	0
 2370 0c72 07       		.uleb128 0x7
 2371 0c73 08060000 		.4byte	.LASF148
 2372 0c77 10       		.byte	0x10
 2373 0c78 19       		.byte	0x19
 2374 0c79 A9       		.byte	0xa9
 2375 0c7a 10       		.byte	0x10
 2376 0c7b A70C0000 		.4byte	0xca7
 2377 0c7f 08       		.uleb128 0x8
 2378 0c80 E3000000 		.4byte	.LASF50
 2379 0c84 19       		.byte	0x19
 2380 0c85 AD       		.byte	0xad
 2381 0c86 1A       		.byte	0x1a
 2382 0c87 A70C0000 		.4byte	0xca7
 2383 0c8b 00       		.byte	0
 2384 0c8c 08       		.uleb128 0x8
 2385 0c8d F3050000 		.4byte	.LASF39
 2386 0c91 19       		.byte	0x19
ARM GAS  /tmp/ccFWkvbl.s 			page 43


 2387 0c92 B1       		.byte	0xb1
 2388 0c93 19       		.byte	0x19
 2389 0c94 60010000 		.4byte	0x160
 2390 0c98 04       		.byte	0x4
 2391 0c99 08       		.uleb128 0x8
 2392 0c9a 48030000 		.4byte	.LASF35
 2393 0c9e 19       		.byte	0x19
 2394 0c9f B3       		.byte	0xb3
 2395 0ca0 19       		.byte	0x19
 2396 0ca1 AD0C0000 		.4byte	0xcad
 2397 0ca5 08       		.byte	0x8
 2398 0ca6 00       		.byte	0
 2399 0ca7 0C       		.uleb128 0xc
 2400 0ca8 04       		.byte	0x4
 2401 0ca9 720C0000 		.4byte	0xc72
 2402 0cad 16       		.uleb128 0x16
 2403 0cae EA060000 		.4byte	0x6ea
 2404 0cb2 BD0C0000 		.4byte	0xcbd
 2405 0cb6 17       		.uleb128 0x17
 2406 0cb7 38000000 		.4byte	0x38
 2407 0cbb 07       		.byte	0x7
 2408 0cbc 00       		.byte	0
 2409 0cbd 03       		.uleb128 0x3
 2410 0cbe 39040000 		.4byte	.LASF149
 2411 0cc2 19       		.byte	0x19
 2412 0cc3 B7       		.byte	0xb7
 2413 0cc4 03       		.byte	0x3
 2414 0cc5 720C0000 		.4byte	0xc72
 2415 0cc9 07       		.uleb128 0x7
 2416 0cca 20080000 		.4byte	.LASF150
 2417 0cce 04       		.byte	0x4
 2418 0ccf 19       		.byte	0x19
 2419 0cd0 BC       		.byte	0xbc
 2420 0cd1 10       		.byte	0x10
 2421 0cd2 E40C0000 		.4byte	0xce4
 2422 0cd6 08       		.uleb128 0x8
 2423 0cd7 E3000000 		.4byte	.LASF50
 2424 0cdb 19       		.byte	0x19
 2425 0cdc BD       		.byte	0xbd
 2426 0cdd 1A       		.byte	0x1a
 2427 0cde E40C0000 		.4byte	0xce4
 2428 0ce2 00       		.byte	0
 2429 0ce3 00       		.byte	0
 2430 0ce4 0C       		.uleb128 0xc
 2431 0ce5 04       		.byte	0x4
 2432 0ce6 BD0C0000 		.4byte	0xcbd
 2433 0cea 03       		.uleb128 0x3
 2434 0ceb 96030000 		.4byte	.LASF151
 2435 0cef 19       		.byte	0x19
 2436 0cf0 BE       		.byte	0xbe
 2437 0cf1 03       		.byte	0x3
 2438 0cf2 C90C0000 		.4byte	0xcc9
 2439 0cf6 0D       		.uleb128 0xd
 2440 0cf7 0D000000 		.4byte	.LASF152
 2441 0cfb 48       		.byte	0x48
 2442 0cfc 19       		.byte	0x19
 2443 0cfd 2001     		.2byte	0x120
ARM GAS  /tmp/ccFWkvbl.s 			page 44


 2444 0cff 10       		.byte	0x10
 2445 0d00 830D0000 		.4byte	0xd83
 2446 0d04 0A       		.uleb128 0xa
 2447 0d05 6D747800 		.ascii	"mtx\000"
 2448 0d09 19       		.byte	0x19
 2449 0d0a 2501     		.2byte	0x125
 2450 0d0c 19       		.byte	0x19
 2451 0d0d 770A0000 		.4byte	0xa77
 2452 0d11 00       		.byte	0
 2453 0d12 0B       		.uleb128 0xb
 2454 0d13 7B070000 		.4byte	.LASF153
 2455 0d17 19       		.byte	0x19
 2456 0d18 2C01     		.2byte	0x12c
 2457 0d1a 19       		.byte	0x19
 2458 0d1b EA0C0000 		.4byte	0xcea
 2459 0d1f 10       		.byte	0x10
 2460 0d20 0B       		.uleb128 0xb
 2461 0d21 C5060000 		.4byte	.LASF154
 2462 0d25 19       		.byte	0x19
 2463 0d26 3001     		.2byte	0x130
 2464 0d28 19       		.byte	0x19
 2465 0d29 570B0000 		.4byte	0xb57
 2466 0d2d 14       		.byte	0x14
 2467 0d2e 0B       		.uleb128 0xb
 2468 0d2f 6D030000 		.4byte	.LASF155
 2469 0d33 19       		.byte	0x19
 2470 0d34 3501     		.2byte	0x135
 2471 0d36 19       		.byte	0x19
 2472 0d37 EA0C0000 		.4byte	0xcea
 2473 0d3b 24       		.byte	0x24
 2474 0d3c 0B       		.uleb128 0xb
 2475 0d3d 74000000 		.4byte	.LASF156
 2476 0d41 19       		.byte	0x19
 2477 0d42 3B01     		.2byte	0x13b
 2478 0d44 19       		.byte	0x19
 2479 0d45 EA0C0000 		.4byte	0xcea
 2480 0d49 28       		.byte	0x28
 2481 0d4a 0B       		.uleb128 0xb
 2482 0d4b C8080000 		.4byte	.LASF157
 2483 0d4f 19       		.byte	0x19
 2484 0d50 3F01     		.2byte	0x13f
 2485 0d52 19       		.byte	0x19
 2486 0d53 570B0000 		.4byte	0xb57
 2487 0d57 2C       		.byte	0x2c
 2488 0d58 0B       		.uleb128 0xb
 2489 0d59 F9000000 		.4byte	.LASF158
 2490 0d5d 19       		.byte	0x19
 2491 0d5e 4501     		.2byte	0x145
 2492 0d60 19       		.byte	0x19
 2493 0d61 EA0C0000 		.4byte	0xcea
 2494 0d65 3C       		.byte	0x3c
 2495 0d66 0B       		.uleb128 0xb
 2496 0d67 D7080000 		.4byte	.LASF159
 2497 0d6b 19       		.byte	0x19
 2498 0d6c 4B01     		.2byte	0x14b
 2499 0d6e 19       		.byte	0x19
 2500 0d6f EA0C0000 		.4byte	0xcea
ARM GAS  /tmp/ccFWkvbl.s 			page 45


 2501 0d73 40       		.byte	0x40
 2502 0d74 0B       		.uleb128 0xb
 2503 0d75 24070000 		.4byte	.LASF160
 2504 0d79 19       		.byte	0x19
 2505 0d7a 5101     		.2byte	0x151
 2506 0d7c 19       		.byte	0x19
 2507 0d7d EA0C0000 		.4byte	0xcea
 2508 0d81 44       		.byte	0x44
 2509 0d82 00       		.byte	0
 2510 0d83 25       		.uleb128 0x25
 2511 0d84 F9020000 		.4byte	.LASF161
 2512 0d88 19       		.byte	0x19
 2513 0d89 5301     		.2byte	0x153
 2514 0d8b 03       		.byte	0x3
 2515 0d8c F60C0000 		.4byte	0xcf6
 2516 0d90 14       		.uleb128 0x14
 2517 0d91 B0060000 		.4byte	.LASF162
 2518 0d95 19       		.byte	0x19
 2519 0d96 5E01     		.2byte	0x15e
 2520 0d98 1A       		.byte	0x1a
 2521 0d99 830D0000 		.4byte	0xd83
 2522 0d9d 18       		.uleb128 0x18
 2523 0d9e 08       		.byte	0x8
 2524 0d9f 01       		.byte	0x1
 2525 0da0 39       		.byte	0x39
 2526 0da1 09       		.byte	0x9
 2527 0da2 C10D0000 		.4byte	0xdc1
 2528 0da6 08       		.uleb128 0x8
 2529 0da7 F7010000 		.4byte	.LASF163
 2530 0dab 01       		.byte	0x1
 2531 0dac 3D       		.byte	0x3d
 2532 0dad 15       		.byte	0x15
 2533 0dae 920B0000 		.4byte	0xb92
 2534 0db2 00       		.byte	0
 2535 0db3 08       		.uleb128 0x8
 2536 0db4 DA050000 		.4byte	.LASF164
 2537 0db8 01       		.byte	0x1
 2538 0db9 41       		.byte	0x41
 2539 0dba 16       		.byte	0x16
 2540 0dbb B30B0000 		.4byte	0xbb3
 2541 0dbf 04       		.byte	0x4
 2542 0dc0 00       		.byte	0
 2543 0dc1 03       		.uleb128 0x3
 2544 0dc2 35020000 		.4byte	.LASF165
 2545 0dc6 01       		.byte	0x1
 2546 0dc7 42       		.byte	0x42
 2547 0dc8 03       		.byte	0x3
 2548 0dc9 9D0D0000 		.4byte	0xd9d
 2549 0dcd 05       		.uleb128 0x5
 2550 0dce C10D0000 		.4byte	0xdc1
 2551 0dd2 26       		.uleb128 0x26
 2552 0dd3 99040000 		.4byte	.LASF166
 2553 0dd7 01       		.byte	0x1
 2554 0dd8 DB       		.byte	0xdb
 2555 0dd9 07       		.byte	0x7
 2556 0dda 3C010000 		.4byte	0x13c
 2557 0dde F0000000 		.4byte	.LFB330
ARM GAS  /tmp/ccFWkvbl.s 			page 46


 2558 0de2 30000000 		.4byte	.LFE330-.LFB330
 2559 0de6 01       		.uleb128 0x1
 2560 0de7 9C       		.byte	0x9c
 2561 0de8 2F0F0000 		.4byte	0xf2f
 2562 0dec 27       		.uleb128 0x27
 2563 0ded 24030000 		.4byte	.LASF168
 2564 0df1 01       		.byte	0x1
 2565 0df2 DB       		.byte	0xdb
 2566 0df3 2F       		.byte	0x2f
 2567 0df4 BE040000 		.4byte	0x4be
 2568 0df8 04000000 		.4byte	.LLST13
 2569 0dfc 00000000 		.4byte	.LVUS13
 2570 0e00 28       		.uleb128 0x28
 2571 0e01 747000   		.ascii	"tp\000"
 2572 0e04 01       		.byte	0x1
 2573 0e05 DC       		.byte	0xdc
 2574 0e06 0D       		.byte	0xd
 2575 0e07 74020000 		.4byte	0x274
 2576 0e0b 2B000000 		.4byte	.LLST14
 2577 0e0f 25000000 		.4byte	.LVUS14
 2578 0e13 28       		.uleb128 0x28
 2579 0e14 636D7000 		.ascii	"cmp\000"
 2580 0e18 01       		.byte	0x1
 2581 0e19 DD       		.byte	0xdd
 2582 0e1a 19       		.byte	0x19
 2583 0e1b 2F0F0000 		.4byte	0xf2f
 2584 0e1f 56000000 		.4byte	.LLST15
 2585 0e23 54000000 		.4byte	.LVUS15
 2586 0e27 28       		.uleb128 0x28
 2587 0e28 72657400 		.ascii	"ret\000"
 2588 0e2c 01       		.byte	0x1
 2589 0e2d DE       		.byte	0xde
 2590 0e2e 09       		.byte	0x9
 2591 0e2f 3C010000 		.4byte	0x13c
 2592 0e33 6D000000 		.4byte	.LLST16
 2593 0e37 69000000 		.4byte	.LVUS16
 2594 0e3b 29       		.uleb128 0x29
 2595 0e3c C4120000 		.4byte	0x12c4
 2596 0e40 F0000000 		.4byte	.LBI96
 2597 0e44 05       		.byte	.LVU143
 2598 0e45 98000000 		.4byte	.Ldebug_ranges0+0x98
 2599 0e49 01       		.byte	0x1
 2600 0e4a E0       		.byte	0xe0
 2601 0e4b 08       		.byte	0x8
 2602 0e4c 1E0F0000 		.4byte	0xf1e
 2603 0e50 2A       		.uleb128 0x2a
 2604 0e51 D5120000 		.4byte	0x12d5
 2605 0e55 8F000000 		.4byte	.LLST17
 2606 0e59 8B000000 		.4byte	.LVUS17
 2607 0e5d 2B       		.uleb128 0x2b
 2608 0e5e 98000000 		.4byte	.Ldebug_ranges0+0x98
 2609 0e62 2C       		.uleb128 0x2c
 2610 0e63 E1120000 		.4byte	0x12e1
 2611 0e67 B2000000 		.4byte	.LLST18
 2612 0e6b B0000000 		.4byte	.LVUS18
 2613 0e6f 29       		.uleb128 0x29
 2614 0e70 37130000 		.4byte	0x1337
ARM GAS  /tmp/ccFWkvbl.s 			page 47


 2615 0e74 F0000000 		.4byte	.LBI98
 2616 0e78 08       		.byte	.LVU146
 2617 0e79 D0000000 		.4byte	.Ldebug_ranges0+0xd0
 2618 0e7d 02       		.byte	0x2
 2619 0e7e 7D       		.byte	0x7d
 2620 0e7f 03       		.byte	0x3
 2621 0e80 B80E0000 		.4byte	0xeb8
 2622 0e84 2D       		.uleb128 0x2d
 2623 0e85 4B130000 		.4byte	0x134b
 2624 0e89 F0000000 		.4byte	.LBI99
 2625 0e8d 0A       		.byte	.LVU148
 2626 0e8e D8000000 		.4byte	.Ldebug_ranges0+0xd8
 2627 0e92 03       		.byte	0x3
 2628 0e93 6301     		.2byte	0x163
 2629 0e95 03       		.byte	0x3
 2630 0e96 2D       		.uleb128 0x2d
 2631 0e97 55130000 		.4byte	0x1355
 2632 0e9b F0000000 		.4byte	.LBI100
 2633 0e9f 0C       		.byte	.LVU150
 2634 0ea0 E0000000 		.4byte	.Ldebug_ranges0+0xe0
 2635 0ea4 04       		.byte	0x4
 2636 0ea5 A502     		.2byte	0x2a5
 2637 0ea7 03       		.byte	0x3
 2638 0ea8 2A       		.uleb128 0x2a
 2639 0ea9 63130000 		.4byte	0x1363
 2640 0ead C7000000 		.4byte	.LLST19
 2641 0eb1 C5000000 		.4byte	.LVUS19
 2642 0eb5 00       		.byte	0
 2643 0eb6 00       		.byte	0
 2644 0eb7 00       		.byte	0
 2645 0eb8 29       		.uleb128 0x29
 2646 0eb9 0A130000 		.4byte	0x130a
 2647 0ebd FC000000 		.4byte	.LBI109
 2648 0ec1 01       		.byte	.LVU160
 2649 0ec2 F8000000 		.4byte	.Ldebug_ranges0+0xf8
 2650 0ec6 02       		.byte	0x2
 2651 0ec7 7F       		.byte	0x7f
 2652 0ec8 03       		.byte	0x3
 2653 0ec9 0B0F0000 		.4byte	0xf0b
 2654 0ecd 2B       		.uleb128 0x2b
 2655 0ece F8000000 		.4byte	.Ldebug_ranges0+0xf8
 2656 0ed2 2D       		.uleb128 0x2d
 2657 0ed3 41130000 		.4byte	0x1341
 2658 0ed7 FC000000 		.4byte	.LBI111
 2659 0edb 07       		.byte	.LVU166
 2660 0edc F8000000 		.4byte	.Ldebug_ranges0+0xf8
 2661 0ee0 03       		.byte	0x3
 2662 0ee1 7A01     		.2byte	0x17a
 2663 0ee3 03       		.byte	0x3
 2664 0ee4 2E       		.uleb128 0x2e
 2665 0ee5 55130000 		.4byte	0x1355
 2666 0ee9 FC000000 		.4byte	.LBI112
 2667 0eed 09       		.byte	.LVU168
 2668 0eee FC000000 		.4byte	.LBB112
 2669 0ef2 06000000 		.4byte	.LBE112-.LBB112
 2670 0ef6 04       		.byte	0x4
 2671 0ef7 B802     		.2byte	0x2b8
ARM GAS  /tmp/ccFWkvbl.s 			page 48


 2672 0ef9 03       		.byte	0x3
 2673 0efa 2A       		.uleb128 0x2a
 2674 0efb 63130000 		.4byte	0x1363
 2675 0eff DE000000 		.4byte	.LLST20
 2676 0f03 DC000000 		.4byte	.LVUS20
 2677 0f07 00       		.byte	0
 2678 0f08 00       		.byte	0
 2679 0f09 00       		.byte	0
 2680 0f0a 00       		.byte	0
 2681 0f0b 2F       		.uleb128 0x2f
 2682 0f0c FC000000 		.4byte	.LVL31
 2683 0f10 71130000 		.4byte	0x1371
 2684 0f14 30       		.uleb128 0x30
 2685 0f15 01       		.uleb128 0x1
 2686 0f16 50       		.byte	0x50
 2687 0f17 03       		.uleb128 0x3
 2688 0f18 F3       		.byte	0xf3
 2689 0f19 01       		.uleb128 0x1
 2690 0f1a 50       		.byte	0x50
 2691 0f1b 00       		.byte	0
 2692 0f1c 00       		.byte	0
 2693 0f1d 00       		.byte	0
 2694 0f1e 2F       		.uleb128 0x2f
 2695 0f1f 16010000 		.4byte	.LVL38
 2696 0f23 7D130000 		.4byte	0x137d
 2697 0f27 30       		.uleb128 0x30
 2698 0f28 01       		.uleb128 0x1
 2699 0f29 50       		.byte	0x50
 2700 0f2a 02       		.uleb128 0x2
 2701 0f2b 75       		.byte	0x75
 2702 0f2c 00       		.sleb128 0
 2703 0f2d 00       		.byte	0
 2704 0f2e 00       		.byte	0
 2705 0f2f 0C       		.uleb128 0xc
 2706 0f30 04       		.byte	0x4
 2707 0f31 CD0D0000 		.4byte	0xdcd
 2708 0f35 31       		.uleb128 0x31
 2709 0f36 C2070000 		.4byte	.LASF170
 2710 0f3a 01       		.byte	0x1
 2711 0f3b BE       		.byte	0xbe
 2712 0f3c 06       		.byte	0x6
 2713 0f3d C0000000 		.4byte	.LFB329
 2714 0f41 28000000 		.4byte	.LFE329-.LFB329
 2715 0f45 01       		.uleb128 0x1
 2716 0f46 9C       		.byte	0x9c
 2717 0f47 5A100000 		.4byte	0x105a
 2718 0f4b 28       		.uleb128 0x28
 2719 0f4c 747000   		.ascii	"tp\000"
 2720 0f4f 01       		.byte	0x1
 2721 0f50 BF       		.byte	0xbf
 2722 0f51 0D       		.byte	0xd
 2723 0f52 74020000 		.4byte	0x274
 2724 0f56 F8000000 		.4byte	.LLST7
 2725 0f5a F2000000 		.4byte	.LVUS7
 2726 0f5e 28       		.uleb128 0x28
 2727 0f5f 636D7000 		.ascii	"cmp\000"
 2728 0f63 01       		.byte	0x1
ARM GAS  /tmp/ccFWkvbl.s 			page 49


 2729 0f64 C0       		.byte	0xc0
 2730 0f65 19       		.byte	0x19
 2731 0f66 2F0F0000 		.4byte	0xf2f
 2732 0f6a 23010000 		.4byte	.LLST8
 2733 0f6e 21010000 		.4byte	.LVUS8
 2734 0f72 28       		.uleb128 0x28
 2735 0f73 72657400 		.ascii	"ret\000"
 2736 0f77 01       		.byte	0x1
 2737 0f78 C1       		.byte	0xc1
 2738 0f79 09       		.byte	0x9
 2739 0f7a 3C010000 		.4byte	0x13c
 2740 0f7e 3A010000 		.4byte	.LLST9
 2741 0f82 36010000 		.4byte	.LVUS9
 2742 0f86 29       		.uleb128 0x29
 2743 0f87 ED120000 		.4byte	0x12ed
 2744 0f8b C0000000 		.4byte	.LBI60
 2745 0f8f 05       		.byte	.LVU94
 2746 0f90 00000000 		.4byte	.Ldebug_ranges0+0
 2747 0f94 01       		.byte	0x1
 2748 0f95 C3       		.byte	0xc3
 2749 0f96 08       		.byte	0x8
 2750 0f97 50100000 		.4byte	0x1050
 2751 0f9b 2B       		.uleb128 0x2b
 2752 0f9c 00000000 		.4byte	.Ldebug_ranges0+0
 2753 0fa0 2C       		.uleb128 0x2c
 2754 0fa1 FE120000 		.4byte	0x12fe
 2755 0fa5 5A010000 		.4byte	.LLST10
 2756 0fa9 58010000 		.4byte	.LVUS10
 2757 0fad 29       		.uleb128 0x29
 2758 0fae 37130000 		.4byte	0x1337
 2759 0fb2 C0000000 		.4byte	.LBI62
 2760 0fb6 08       		.byte	.LVU97
 2761 0fb7 38000000 		.4byte	.Ldebug_ranges0+0x38
 2762 0fbb 02       		.byte	0x2
 2763 0fbc 5C       		.byte	0x5c
 2764 0fbd 03       		.byte	0x3
 2765 0fbe F60F0000 		.4byte	0xff6
 2766 0fc2 2D       		.uleb128 0x2d
 2767 0fc3 4B130000 		.4byte	0x134b
 2768 0fc7 C0000000 		.4byte	.LBI63
 2769 0fcb 0A       		.byte	.LVU99
 2770 0fcc 40000000 		.4byte	.Ldebug_ranges0+0x40
 2771 0fd0 03       		.byte	0x3
 2772 0fd1 6301     		.2byte	0x163
 2773 0fd3 03       		.byte	0x3
 2774 0fd4 2D       		.uleb128 0x2d
 2775 0fd5 55130000 		.4byte	0x1355
 2776 0fd9 C0000000 		.4byte	.LBI64
 2777 0fdd 0C       		.byte	.LVU101
 2778 0fde 48000000 		.4byte	.Ldebug_ranges0+0x48
 2779 0fe2 04       		.byte	0x4
 2780 0fe3 A502     		.2byte	0x2a5
 2781 0fe5 03       		.byte	0x3
 2782 0fe6 2A       		.uleb128 0x2a
 2783 0fe7 63130000 		.4byte	0x1363
 2784 0feb 6F010000 		.4byte	.LLST11
 2785 0fef 6D010000 		.4byte	.LVUS11
ARM GAS  /tmp/ccFWkvbl.s 			page 50


 2786 0ff3 00       		.byte	0
 2787 0ff4 00       		.byte	0
 2788 0ff5 00       		.byte	0
 2789 0ff6 29       		.uleb128 0x29
 2790 0ff7 0A130000 		.4byte	0x130a
 2791 0ffb D0000000 		.4byte	.LBI73
 2792 0fff 01       		.byte	.LVU113
 2793 1000 60000000 		.4byte	.Ldebug_ranges0+0x60
 2794 1004 02       		.byte	0x2
 2795 1005 5E       		.byte	0x5e
 2796 1006 03       		.byte	0x3
 2797 1007 45100000 		.4byte	0x1045
 2798 100b 2B       		.uleb128 0x2b
 2799 100c 60000000 		.4byte	.Ldebug_ranges0+0x60
 2800 1010 2D       		.uleb128 0x2d
 2801 1011 41130000 		.4byte	0x1341
 2802 1015 D0000000 		.4byte	.LBI75
 2803 1019 07       		.byte	.LVU119
 2804 101a 60000000 		.4byte	.Ldebug_ranges0+0x60
 2805 101e 03       		.byte	0x3
 2806 101f 7A01     		.2byte	0x17a
 2807 1021 03       		.byte	0x3
 2808 1022 2D       		.uleb128 0x2d
 2809 1023 55130000 		.4byte	0x1355
 2810 1027 D0000000 		.4byte	.LBI76
 2811 102b 09       		.byte	.LVU121
 2812 102c 80000000 		.4byte	.Ldebug_ranges0+0x80
 2813 1030 04       		.byte	0x4
 2814 1031 B802     		.2byte	0x2b8
 2815 1033 03       		.byte	0x3
 2816 1034 2A       		.uleb128 0x2a
 2817 1035 63130000 		.4byte	0x1363
 2818 1039 86010000 		.4byte	.LLST12
 2819 103d 84010000 		.4byte	.LVUS12
 2820 1041 00       		.byte	0
 2821 1042 00       		.byte	0
 2822 1043 00       		.byte	0
 2823 1044 00       		.byte	0
 2824 1045 32       		.uleb128 0x32
 2825 1046 CC000000 		.4byte	.LVL20
 2826 104a 89130000 		.4byte	0x1389
 2827 104e 00       		.byte	0
 2828 104f 00       		.byte	0
 2829 1050 33       		.uleb128 0x33
 2830 1051 E8000000 		.4byte	.LVL28
 2831 1055 7D130000 		.4byte	0x137d
 2832 1059 00       		.byte	0
 2833 105a 34       		.uleb128 0x34
 2834 105b B3040000 		.4byte	.LASF167
 2835 105f 01       		.byte	0x1
 2836 1060 9E       		.byte	0x9e
 2837 1061 07       		.byte	0x7
 2838 1062 3C010000 		.4byte	0x13c
 2839 1066 90000000 		.4byte	.LFB328
 2840 106a 24000000 		.4byte	.LFE328-.LFB328
 2841 106e 01       		.uleb128 0x1
 2842 106f 9C       		.byte	0x9c
ARM GAS  /tmp/ccFWkvbl.s 			page 51


 2843 1070 E0100000 		.4byte	0x10e0
 2844 1074 35       		.uleb128 0x35
 2845 1075 747000   		.ascii	"tp\000"
 2846 1078 01       		.byte	0x1
 2847 1079 9E       		.byte	0x9e
 2848 107a 26       		.byte	0x26
 2849 107b 74020000 		.4byte	0x274
 2850 107f 9E010000 		.4byte	.LLST5
 2851 1083 9A010000 		.4byte	.LVUS5
 2852 1087 36       		.uleb128 0x36
 2853 1088 F7010000 		.4byte	.LASF163
 2854 108c 01       		.byte	0x1
 2855 108d 9E       		.byte	0x9e
 2856 108e 3C       		.byte	0x3c
 2857 108f 920B0000 		.4byte	0xb92
 2858 1093 02       		.uleb128 0x2
 2859 1094 91       		.byte	0x91
 2860 1095 74       		.sleb128 -12
 2861 1096 37       		.uleb128 0x37
 2862 1097 38       		.uleb128 0x38
 2863 1098 47090000 		.4byte	.LASF169
 2864 109c 01       		.byte	0x1
 2865 109d 9F       		.byte	0x9f
 2866 109e 0B       		.byte	0xb
 2867 109f 860B0000 		.4byte	0xb86
 2868 10a3 02       		.uleb128 0x2
 2869 10a4 91       		.byte	0x91
 2870 10a5 5C       		.sleb128 -36
 2871 10a6 39       		.uleb128 0x39
 2872 10a7 636D00   		.ascii	"cm\000"
 2873 10aa 01       		.byte	0x1
 2874 10ab A0       		.byte	0xa0
 2875 10ac 12       		.byte	0x12
 2876 10ad C10D0000 		.4byte	0xdc1
 2877 10b1 02       		.uleb128 0x2
 2878 10b2 91       		.byte	0x91
 2879 10b3 60       		.sleb128 -32
 2880 10b4 28       		.uleb128 0x28
 2881 10b5 6D736700 		.ascii	"msg\000"
 2882 10b9 01       		.byte	0x1
 2883 10ba A1       		.byte	0xa1
 2884 10bb 09       		.byte	0x9
 2885 10bc 3C010000 		.4byte	0x13c
 2886 10c0 C1010000 		.4byte	.LLST6
 2887 10c4 BF010000 		.4byte	.LVUS6
 2888 10c8 2F       		.uleb128 0x2f
 2889 10c9 AA000000 		.4byte	.LVL17
 2890 10cd 95130000 		.4byte	0x1395
 2891 10d1 30       		.uleb128 0x30
 2892 10d2 01       		.uleb128 0x1
 2893 10d3 50       		.byte	0x50
 2894 10d4 03       		.uleb128 0x3
 2895 10d5 F3       		.byte	0xf3
 2896 10d6 01       		.uleb128 0x1
 2897 10d7 50       		.byte	0x50
 2898 10d8 30       		.uleb128 0x30
 2899 10d9 01       		.uleb128 0x1
ARM GAS  /tmp/ccFWkvbl.s 			page 52


 2900 10da 51       		.byte	0x51
 2901 10db 02       		.uleb128 0x2
 2902 10dc 91       		.byte	0x91
 2903 10dd 48       		.sleb128 -56
 2904 10de 00       		.byte	0
 2905 10df 00       		.byte	0
 2906 10e0 3A       		.uleb128 0x3a
 2907 10e1 17040000 		.4byte	.LASF171
 2908 10e5 01       		.byte	0x1
 2909 10e6 8A       		.byte	0x8a
 2910 10e7 07       		.byte	0x7
 2911 10e8 3C010000 		.4byte	0x13c
 2912 10ec 70000000 		.4byte	.LFB327
 2913 10f0 20000000 		.4byte	.LFE327-.LFB327
 2914 10f4 01       		.uleb128 0x1
 2915 10f5 9C       		.byte	0x9c
 2916 10f6 4F110000 		.4byte	0x114f
 2917 10fa 27       		.uleb128 0x27
 2918 10fb DA050000 		.4byte	.LASF164
 2919 10ff 01       		.byte	0x1
 2920 1100 8A       		.byte	0x8a
 2921 1101 22       		.byte	0x22
 2922 1102 B30B0000 		.4byte	0xbb3
 2923 1106 DA010000 		.4byte	.LLST4
 2924 110a D4010000 		.4byte	.LVUS4
 2925 110e 39       		.uleb128 0x39
 2926 110f 666E3400 		.ascii	"fn4\000"
 2927 1113 01       		.byte	0x1
 2928 1114 8B       		.byte	0x8b
 2929 1115 12       		.byte	0x12
 2930 1116 420C0000 		.4byte	0xc42
 2931 111a 01       		.uleb128 0x1
 2932 111b 55       		.byte	0x55
 2933 111c 39       		.uleb128 0x39
 2934 111d 703100   		.ascii	"p1\000"
 2935 1120 01       		.byte	0x1
 2936 1121 8C       		.byte	0x8c
 2937 1122 09       		.byte	0x9
 2938 1123 3C010000 		.4byte	0x13c
 2939 1127 01       		.uleb128 0x1
 2940 1128 50       		.byte	0x50
 2941 1129 39       		.uleb128 0x39
 2942 112a 703200   		.ascii	"p2\000"
 2943 112d 01       		.byte	0x1
 2944 112e 8D       		.byte	0x8d
 2945 112f 09       		.byte	0x9
 2946 1130 3C010000 		.4byte	0x13c
 2947 1134 01       		.uleb128 0x1
 2948 1135 51       		.byte	0x51
 2949 1136 39       		.uleb128 0x39
 2950 1137 703300   		.ascii	"p3\000"
 2951 113a 01       		.byte	0x1
 2952 113b 8E       		.byte	0x8e
 2953 113c 09       		.byte	0x9
 2954 113d 3C010000 		.4byte	0x13c
 2955 1141 01       		.uleb128 0x1
 2956 1142 52       		.byte	0x52
ARM GAS  /tmp/ccFWkvbl.s 			page 53


 2957 1143 3B       		.uleb128 0x3b
 2958 1144 703400   		.ascii	"p4\000"
 2959 1147 01       		.byte	0x1
 2960 1148 8F       		.byte	0x8f
 2961 1149 09       		.byte	0x9
 2962 114a 3C010000 		.4byte	0x13c
 2963 114e 00       		.byte	0
 2964 114f 3A       		.uleb128 0x3a
 2965 1150 B6080000 		.4byte	.LASF172
 2966 1154 01       		.byte	0x1
 2967 1155 7C       		.byte	0x7c
 2968 1156 07       		.byte	0x7
 2969 1157 3C010000 		.4byte	0x13c
 2970 115b 50000000 		.4byte	.LFB326
 2971 115f 1E000000 		.4byte	.LFE326-.LFB326
 2972 1163 01       		.uleb128 0x1
 2973 1164 9C       		.byte	0x9c
 2974 1165 B1110000 		.4byte	0x11b1
 2975 1169 27       		.uleb128 0x27
 2976 116a DA050000 		.4byte	.LASF164
 2977 116e 01       		.byte	0x1
 2978 116f 7C       		.byte	0x7c
 2979 1170 22       		.byte	0x22
 2980 1171 B30B0000 		.4byte	0xbb3
 2981 1175 0C020000 		.4byte	.LLST3
 2982 1179 06020000 		.4byte	.LVUS3
 2983 117d 39       		.uleb128 0x39
 2984 117e 666E3300 		.ascii	"fn3\000"
 2985 1182 01       		.byte	0x1
 2986 1183 7D       		.byte	0x7d
 2987 1184 12       		.byte	0x12
 2988 1185 170C0000 		.4byte	0xc17
 2989 1189 01       		.uleb128 0x1
 2990 118a 54       		.byte	0x54
 2991 118b 39       		.uleb128 0x39
 2992 118c 703100   		.ascii	"p1\000"
 2993 118f 01       		.byte	0x1
 2994 1190 7E       		.byte	0x7e
 2995 1191 09       		.byte	0x9
 2996 1192 3C010000 		.4byte	0x13c
 2997 1196 01       		.uleb128 0x1
 2998 1197 50       		.byte	0x50
 2999 1198 39       		.uleb128 0x39
 3000 1199 703200   		.ascii	"p2\000"
 3001 119c 01       		.byte	0x1
 3002 119d 7F       		.byte	0x7f
 3003 119e 09       		.byte	0x9
 3004 119f 3C010000 		.4byte	0x13c
 3005 11a3 01       		.uleb128 0x1
 3006 11a4 51       		.byte	0x51
 3007 11a5 3B       		.uleb128 0x3b
 3008 11a6 703300   		.ascii	"p3\000"
 3009 11a9 01       		.byte	0x1
 3010 11aa 80       		.byte	0x80
 3011 11ab 09       		.byte	0x9
 3012 11ac 3C010000 		.4byte	0x13c
 3013 11b0 00       		.byte	0
ARM GAS  /tmp/ccFWkvbl.s 			page 54


 3014 11b1 3A       		.uleb128 0x3a
 3015 11b2 A4080000 		.4byte	.LASF173
 3016 11b6 01       		.byte	0x1
 3017 11b7 6F       		.byte	0x6f
 3018 11b8 07       		.byte	0x7
 3019 11b9 3C010000 		.4byte	0x13c
 3020 11bd 30000000 		.4byte	.LFB325
 3021 11c1 1A000000 		.4byte	.LFE325-.LFB325
 3022 11c5 01       		.uleb128 0x1
 3023 11c6 9C       		.byte	0x9c
 3024 11c7 06120000 		.4byte	0x1206
 3025 11cb 27       		.uleb128 0x27
 3026 11cc DA050000 		.4byte	.LASF164
 3027 11d0 01       		.byte	0x1
 3028 11d1 6F       		.byte	0x6f
 3029 11d2 22       		.byte	0x22
 3030 11d3 B30B0000 		.4byte	0xbb3
 3031 11d7 3E020000 		.4byte	.LLST2
 3032 11db 38020000 		.4byte	.LVUS2
 3033 11df 39       		.uleb128 0x39
 3034 11e0 666E3200 		.ascii	"fn2\000"
 3035 11e4 01       		.byte	0x1
 3036 11e5 70       		.byte	0x70
 3037 11e6 12       		.byte	0x12
 3038 11e7 F10B0000 		.4byte	0xbf1
 3039 11eb 01       		.uleb128 0x1
 3040 11ec 53       		.byte	0x53
 3041 11ed 39       		.uleb128 0x39
 3042 11ee 703100   		.ascii	"p1\000"
 3043 11f1 01       		.byte	0x1
 3044 11f2 71       		.byte	0x71
 3045 11f3 09       		.byte	0x9
 3046 11f4 3C010000 		.4byte	0x13c
 3047 11f8 01       		.uleb128 0x1
 3048 11f9 50       		.byte	0x50
 3049 11fa 3B       		.uleb128 0x3b
 3050 11fb 703200   		.ascii	"p2\000"
 3051 11fe 01       		.byte	0x1
 3052 11ff 72       		.byte	0x72
 3053 1200 09       		.byte	0x9
 3054 1201 3C010000 		.4byte	0x13c
 3055 1205 00       		.byte	0
 3056 1206 3A       		.uleb128 0x3a
 3057 1207 A6010000 		.4byte	.LASF174
 3058 120b 01       		.byte	0x1
 3059 120c 63       		.byte	0x63
 3060 120d 07       		.byte	0x7
 3061 120e 3C010000 		.4byte	0x13c
 3062 1212 10000000 		.4byte	.LFB324
 3063 1216 12000000 		.4byte	.LFE324-.LFB324
 3064 121a 01       		.uleb128 0x1
 3065 121b 9C       		.byte	0x9c
 3066 121c 4E120000 		.4byte	0x124e
 3067 1220 27       		.uleb128 0x27
 3068 1221 DA050000 		.4byte	.LASF164
 3069 1225 01       		.byte	0x1
 3070 1226 63       		.byte	0x63
ARM GAS  /tmp/ccFWkvbl.s 			page 55


 3071 1227 22       		.byte	0x22
 3072 1228 B30B0000 		.4byte	0xbb3
 3073 122c 70020000 		.4byte	.LLST1
 3074 1230 6A020000 		.4byte	.LVUS1
 3075 1234 39       		.uleb128 0x39
 3076 1235 666E3100 		.ascii	"fn1\000"
 3077 1239 01       		.byte	0x1
 3078 123a 64       		.byte	0x64
 3079 123b 12       		.byte	0x12
 3080 123c D00B0000 		.4byte	0xbd0
 3081 1240 01       		.uleb128 0x1
 3082 1241 51       		.byte	0x51
 3083 1242 3B       		.uleb128 0x3b
 3084 1243 703100   		.ascii	"p1\000"
 3085 1246 01       		.byte	0x1
 3086 1247 65       		.byte	0x65
 3087 1248 09       		.byte	0x9
 3088 1249 3C010000 		.4byte	0x13c
 3089 124d 00       		.byte	0
 3090 124e 3A       		.uleb128 0x3a
 3091 124f 8C080000 		.4byte	.LASF175
 3092 1253 01       		.byte	0x1
 3093 1254 58       		.byte	0x58
 3094 1255 07       		.byte	0x7
 3095 1256 3C010000 		.4byte	0x13c
 3096 125a 00000000 		.4byte	.LFB323
 3097 125e 0A000000 		.4byte	.LFE323-.LFB323
 3098 1262 01       		.uleb128 0x1
 3099 1263 9C       		.byte	0x9c
 3100 1264 89120000 		.4byte	0x1289
 3101 1268 27       		.uleb128 0x27
 3102 1269 DA050000 		.4byte	.LASF164
 3103 126d 01       		.byte	0x1
 3104 126e 58       		.byte	0x58
 3105 126f 22       		.byte	0x22
 3106 1270 B30B0000 		.4byte	0xbb3
 3107 1274 A0020000 		.4byte	.LLST0
 3108 1278 9C020000 		.4byte	.LVUS0
 3109 127c 3B       		.uleb128 0x3b
 3110 127d 666E3000 		.ascii	"fn0\000"
 3111 1281 01       		.byte	0x1
 3112 1282 59       		.byte	0x59
 3113 1283 12       		.byte	0x12
 3114 1284 B90B0000 		.4byte	0xbb9
 3115 1288 00       		.byte	0
 3116 1289 3C       		.uleb128 0x3c
 3117 128a 1B030000 		.4byte	.LASF176
 3118 128e 02       		.byte	0x2
 3119 128f B8       		.byte	0xb8
 3120 1290 15       		.byte	0x15
 3121 1291 3C010000 		.4byte	0x13c
 3122 1295 03       		.byte	0x3
 3123 1296 AF120000 		.4byte	0x12af
 3124 129a 3D       		.uleb128 0x3d
 3125 129b 747000   		.ascii	"tp\000"
 3126 129e 02       		.byte	0x2
 3127 129f B8       		.byte	0xb8
ARM GAS  /tmp/ccFWkvbl.s 			page 56


 3128 12a0 28       		.byte	0x28
 3129 12a1 74020000 		.4byte	0x274
 3130 12a5 3E       		.uleb128 0x3e
 3131 12a6 A7060000 		.4byte	.LASF179
 3132 12aa BF120000 		.4byte	0x12bf
 3133 12ae 00       		.byte	0
 3134 12af 16       		.uleb128 0x16
 3135 12b0 F1060000 		.4byte	0x6f1
 3136 12b4 BF120000 		.4byte	0x12bf
 3137 12b8 17       		.uleb128 0x17
 3138 12b9 38000000 		.4byte	0x38
 3139 12bd 08       		.byte	0x8
 3140 12be 00       		.byte	0
 3141 12bf 05       		.uleb128 0x5
 3142 12c0 AF120000 		.4byte	0x12af
 3143 12c4 3C       		.uleb128 0x3c
 3144 12c5 B6000000 		.4byte	.LASF177
 3145 12c9 02       		.byte	0x2
 3146 12ca 7A       		.byte	0x7a
 3147 12cb 19       		.byte	0x19
 3148 12cc 74020000 		.4byte	0x274
 3149 12d0 03       		.byte	0x3
 3150 12d1 ED120000 		.4byte	0x12ed
 3151 12d5 3F       		.uleb128 0x3f
 3152 12d6 24030000 		.4byte	.LASF168
 3153 12da 02       		.byte	0x2
 3154 12db 7A       		.byte	0x7a
 3155 12dc 38       		.byte	0x38
 3156 12dd BE040000 		.4byte	0x4be
 3157 12e1 3B       		.uleb128 0x3b
 3158 12e2 747000   		.ascii	"tp\000"
 3159 12e5 02       		.byte	0x2
 3160 12e6 7B       		.byte	0x7b
 3161 12e7 0D       		.byte	0xd
 3162 12e8 74020000 		.4byte	0x274
 3163 12ec 00       		.byte	0
 3164 12ed 3C       		.uleb128 0x3c
 3165 12ee 45080000 		.4byte	.LASF178
 3166 12f2 02       		.byte	0x2
 3167 12f3 59       		.byte	0x59
 3168 12f4 19       		.byte	0x19
 3169 12f5 74020000 		.4byte	0x274
 3170 12f9 03       		.byte	0x3
 3171 12fa 0A130000 		.4byte	0x130a
 3172 12fe 3B       		.uleb128 0x3b
 3173 12ff 747000   		.ascii	"tp\000"
 3174 1302 02       		.byte	0x2
 3175 1303 5A       		.byte	0x5a
 3176 1304 0D       		.byte	0xd
 3177 1305 74020000 		.4byte	0x274
 3178 1309 00       		.byte	0
 3179 130a 40       		.uleb128 0x40
 3180 130b 3B090000 		.4byte	.LASF183
 3181 130f 03       		.byte	0x3
 3182 1310 6D01     		.2byte	0x16d
 3183 1312 14       		.byte	0x14
 3184 1313 03       		.byte	0x3
ARM GAS  /tmp/ccFWkvbl.s 			page 57


 3185 1314 22130000 		.4byte	0x1322
 3186 1318 3E       		.uleb128 0x3e
 3187 1319 A7060000 		.4byte	.LASF179
 3188 131d 32130000 		.4byte	0x1332
 3189 1321 00       		.byte	0
 3190 1322 16       		.uleb128 0x16
 3191 1323 F1060000 		.4byte	0x6f1
 3192 1327 32130000 		.4byte	0x1332
 3193 132b 17       		.uleb128 0x17
 3194 132c 38000000 		.4byte	0x38
 3195 1330 0B       		.byte	0xb
 3196 1331 00       		.byte	0
 3197 1332 05       		.uleb128 0x5
 3198 1333 22130000 		.4byte	0x1322
 3199 1337 41       		.uleb128 0x41
 3200 1338 BB060000 		.4byte	.LASF180
 3201 133c 03       		.byte	0x3
 3202 133d 6101     		.2byte	0x161
 3203 133f 14       		.byte	0x14
 3204 1340 03       		.byte	0x3
 3205 1341 41       		.uleb128 0x41
 3206 1342 53020000 		.4byte	.LASF181
 3207 1346 04       		.byte	0x4
 3208 1347 B502     		.2byte	0x2b5
 3209 1349 1B       		.byte	0x1b
 3210 134a 03       		.byte	0x3
 3211 134b 41       		.uleb128 0x41
 3212 134c 7D000000 		.4byte	.LASF182
 3213 1350 04       		.byte	0x4
 3214 1351 9D02     		.2byte	0x29d
 3215 1353 1B       		.byte	0x1b
 3216 1354 03       		.byte	0x3
 3217 1355 40       		.uleb128 0x40
 3218 1356 AA070000 		.4byte	.LASF184
 3219 135a 05       		.byte	0x5
 3220 135b EB01     		.2byte	0x1eb
 3221 135d 1B       		.byte	0x1b
 3222 135e 03       		.byte	0x3
 3223 135f 71130000 		.4byte	0x1371
 3224 1363 42       		.uleb128 0x42
 3225 1364 5C010000 		.4byte	.LASF185
 3226 1368 05       		.byte	0x5
 3227 1369 EB01     		.2byte	0x1eb
 3228 136b 32       		.byte	0x32
 3229 136c E8000000 		.4byte	0xe8
 3230 1370 00       		.byte	0
 3231 1371 43       		.uleb128 0x43
 3232 1372 95060000 		.4byte	.LASF186
 3233 1376 95060000 		.4byte	.LASF186
 3234 137a 02       		.byte	0x2
 3235 137b 3E       		.byte	0x3e
 3236 137c 0D       		.byte	0xd
 3237 137d 43       		.uleb128 0x43
 3238 137e E6060000 		.4byte	.LASF187
 3239 1382 E6060000 		.4byte	.LASF187
 3240 1386 02       		.byte	0x2
 3241 1387 40       		.byte	0x40
ARM GAS  /tmp/ccFWkvbl.s 			page 58


 3242 1388 08       		.byte	0x8
 3243 1389 43       		.uleb128 0x43
 3244 138a 59030000 		.4byte	.LASF188
 3245 138e 59030000 		.4byte	.LASF188
 3246 1392 02       		.byte	0x2
 3247 1393 3D       		.byte	0x3d
 3248 1394 0D       		.byte	0xd
 3249 1395 43       		.uleb128 0x43
 3250 1396 73010000 		.4byte	.LASF189
 3251 139a 73010000 		.4byte	.LASF189
 3252 139e 02       		.byte	0x2
 3253 139f 3C       		.byte	0x3c
 3254 13a0 09       		.byte	0x9
 3255 13a1 00       		.byte	0
 3256              		.section	.debug_abbrev,"",%progbits
 3257              	.Ldebug_abbrev0:
 3258 0000 01       		.uleb128 0x1
 3259 0001 11       		.uleb128 0x11
 3260 0002 01       		.byte	0x1
 3261 0003 25       		.uleb128 0x25
 3262 0004 0E       		.uleb128 0xe
 3263 0005 13       		.uleb128 0x13
 3264 0006 0B       		.uleb128 0xb
 3265 0007 03       		.uleb128 0x3
 3266 0008 0E       		.uleb128 0xe
 3267 0009 1B       		.uleb128 0x1b
 3268 000a 0E       		.uleb128 0xe
 3269 000b 11       		.uleb128 0x11
 3270 000c 01       		.uleb128 0x1
 3271 000d 12       		.uleb128 0x12
 3272 000e 06       		.uleb128 0x6
 3273 000f 10       		.uleb128 0x10
 3274 0010 17       		.uleb128 0x17
 3275 0011 00       		.byte	0
 3276 0012 00       		.byte	0
 3277 0013 02       		.uleb128 0x2
 3278 0014 24       		.uleb128 0x24
 3279 0015 00       		.byte	0
 3280 0016 0B       		.uleb128 0xb
 3281 0017 0B       		.uleb128 0xb
 3282 0018 3E       		.uleb128 0x3e
 3283 0019 0B       		.uleb128 0xb
 3284 001a 03       		.uleb128 0x3
 3285 001b 08       		.uleb128 0x8
 3286 001c 00       		.byte	0
 3287 001d 00       		.byte	0
 3288 001e 03       		.uleb128 0x3
 3289 001f 16       		.uleb128 0x16
 3290 0020 00       		.byte	0
 3291 0021 03       		.uleb128 0x3
 3292 0022 0E       		.uleb128 0xe
 3293 0023 3A       		.uleb128 0x3a
 3294 0024 0B       		.uleb128 0xb
 3295 0025 3B       		.uleb128 0x3b
 3296 0026 0B       		.uleb128 0xb
 3297 0027 39       		.uleb128 0x39
 3298 0028 0B       		.uleb128 0xb
ARM GAS  /tmp/ccFWkvbl.s 			page 59


 3299 0029 49       		.uleb128 0x49
 3300 002a 13       		.uleb128 0x13
 3301 002b 00       		.byte	0
 3302 002c 00       		.byte	0
 3303 002d 04       		.uleb128 0x4
 3304 002e 24       		.uleb128 0x24
 3305 002f 00       		.byte	0
 3306 0030 0B       		.uleb128 0xb
 3307 0031 0B       		.uleb128 0xb
 3308 0032 3E       		.uleb128 0x3e
 3309 0033 0B       		.uleb128 0xb
 3310 0034 03       		.uleb128 0x3
 3311 0035 0E       		.uleb128 0xe
 3312 0036 00       		.byte	0
 3313 0037 00       		.byte	0
 3314 0038 05       		.uleb128 0x5
 3315 0039 26       		.uleb128 0x26
 3316 003a 00       		.byte	0
 3317 003b 49       		.uleb128 0x49
 3318 003c 13       		.uleb128 0x13
 3319 003d 00       		.byte	0
 3320 003e 00       		.byte	0
 3321 003f 06       		.uleb128 0x6
 3322 0040 35       		.uleb128 0x35
 3323 0041 00       		.byte	0
 3324 0042 49       		.uleb128 0x49
 3325 0043 13       		.uleb128 0x13
 3326 0044 00       		.byte	0
 3327 0045 00       		.byte	0
 3328 0046 07       		.uleb128 0x7
 3329 0047 13       		.uleb128 0x13
 3330 0048 01       		.byte	0x1
 3331 0049 03       		.uleb128 0x3
 3332 004a 0E       		.uleb128 0xe
 3333 004b 0B       		.uleb128 0xb
 3334 004c 0B       		.uleb128 0xb
 3335 004d 3A       		.uleb128 0x3a
 3336 004e 0B       		.uleb128 0xb
 3337 004f 3B       		.uleb128 0x3b
 3338 0050 0B       		.uleb128 0xb
 3339 0051 39       		.uleb128 0x39
 3340 0052 0B       		.uleb128 0xb
 3341 0053 01       		.uleb128 0x1
 3342 0054 13       		.uleb128 0x13
 3343 0055 00       		.byte	0
 3344 0056 00       		.byte	0
 3345 0057 08       		.uleb128 0x8
 3346 0058 0D       		.uleb128 0xd
 3347 0059 00       		.byte	0
 3348 005a 03       		.uleb128 0x3
 3349 005b 0E       		.uleb128 0xe
 3350 005c 3A       		.uleb128 0x3a
 3351 005d 0B       		.uleb128 0xb
 3352 005e 3B       		.uleb128 0x3b
 3353 005f 0B       		.uleb128 0xb
 3354 0060 39       		.uleb128 0x39
 3355 0061 0B       		.uleb128 0xb
ARM GAS  /tmp/ccFWkvbl.s 			page 60


 3356 0062 49       		.uleb128 0x49
 3357 0063 13       		.uleb128 0x13
 3358 0064 38       		.uleb128 0x38
 3359 0065 0B       		.uleb128 0xb
 3360 0066 00       		.byte	0
 3361 0067 00       		.byte	0
 3362 0068 09       		.uleb128 0x9
 3363 0069 0D       		.uleb128 0xd
 3364 006a 00       		.byte	0
 3365 006b 03       		.uleb128 0x3
 3366 006c 08       		.uleb128 0x8
 3367 006d 3A       		.uleb128 0x3a
 3368 006e 0B       		.uleb128 0xb
 3369 006f 3B       		.uleb128 0x3b
 3370 0070 0B       		.uleb128 0xb
 3371 0071 39       		.uleb128 0x39
 3372 0072 0B       		.uleb128 0xb
 3373 0073 49       		.uleb128 0x49
 3374 0074 13       		.uleb128 0x13
 3375 0075 38       		.uleb128 0x38
 3376 0076 0B       		.uleb128 0xb
 3377 0077 00       		.byte	0
 3378 0078 00       		.byte	0
 3379 0079 0A       		.uleb128 0xa
 3380 007a 0D       		.uleb128 0xd
 3381 007b 00       		.byte	0
 3382 007c 03       		.uleb128 0x3
 3383 007d 08       		.uleb128 0x8
 3384 007e 3A       		.uleb128 0x3a
 3385 007f 0B       		.uleb128 0xb
 3386 0080 3B       		.uleb128 0x3b
 3387 0081 05       		.uleb128 0x5
 3388 0082 39       		.uleb128 0x39
 3389 0083 0B       		.uleb128 0xb
 3390 0084 49       		.uleb128 0x49
 3391 0085 13       		.uleb128 0x13
 3392 0086 38       		.uleb128 0x38
 3393 0087 0B       		.uleb128 0xb
 3394 0088 00       		.byte	0
 3395 0089 00       		.byte	0
 3396 008a 0B       		.uleb128 0xb
 3397 008b 0D       		.uleb128 0xd
 3398 008c 00       		.byte	0
 3399 008d 03       		.uleb128 0x3
 3400 008e 0E       		.uleb128 0xe
 3401 008f 3A       		.uleb128 0x3a
 3402 0090 0B       		.uleb128 0xb
 3403 0091 3B       		.uleb128 0x3b
 3404 0092 05       		.uleb128 0x5
 3405 0093 39       		.uleb128 0x39
 3406 0094 0B       		.uleb128 0xb
 3407 0095 49       		.uleb128 0x49
 3408 0096 13       		.uleb128 0x13
 3409 0097 38       		.uleb128 0x38
 3410 0098 0B       		.uleb128 0xb
 3411 0099 00       		.byte	0
 3412 009a 00       		.byte	0
ARM GAS  /tmp/ccFWkvbl.s 			page 61


 3413 009b 0C       		.uleb128 0xc
 3414 009c 0F       		.uleb128 0xf
 3415 009d 00       		.byte	0
 3416 009e 0B       		.uleb128 0xb
 3417 009f 0B       		.uleb128 0xb
 3418 00a0 49       		.uleb128 0x49
 3419 00a1 13       		.uleb128 0x13
 3420 00a2 00       		.byte	0
 3421 00a3 00       		.byte	0
 3422 00a4 0D       		.uleb128 0xd
 3423 00a5 13       		.uleb128 0x13
 3424 00a6 01       		.byte	0x1
 3425 00a7 03       		.uleb128 0x3
 3426 00a8 0E       		.uleb128 0xe
 3427 00a9 0B       		.uleb128 0xb
 3428 00aa 0B       		.uleb128 0xb
 3429 00ab 3A       		.uleb128 0x3a
 3430 00ac 0B       		.uleb128 0xb
 3431 00ad 3B       		.uleb128 0x3b
 3432 00ae 05       		.uleb128 0x5
 3433 00af 39       		.uleb128 0x39
 3434 00b0 0B       		.uleb128 0xb
 3435 00b1 01       		.uleb128 0x1
 3436 00b2 13       		.uleb128 0x13
 3437 00b3 00       		.byte	0
 3438 00b4 00       		.byte	0
 3439 00b5 0E       		.uleb128 0xe
 3440 00b6 15       		.uleb128 0x15
 3441 00b7 01       		.byte	0x1
 3442 00b8 27       		.uleb128 0x27
 3443 00b9 19       		.uleb128 0x19
 3444 00ba 01       		.uleb128 0x1
 3445 00bb 13       		.uleb128 0x13
 3446 00bc 00       		.byte	0
 3447 00bd 00       		.byte	0
 3448 00be 0F       		.uleb128 0xf
 3449 00bf 05       		.uleb128 0x5
 3450 00c0 00       		.byte	0
 3451 00c1 49       		.uleb128 0x49
 3452 00c2 13       		.uleb128 0x13
 3453 00c3 00       		.byte	0
 3454 00c4 00       		.byte	0
 3455 00c5 10       		.uleb128 0x10
 3456 00c6 0F       		.uleb128 0xf
 3457 00c7 00       		.byte	0
 3458 00c8 0B       		.uleb128 0xb
 3459 00c9 0B       		.uleb128 0xb
 3460 00ca 00       		.byte	0
 3461 00cb 00       		.byte	0
 3462 00cc 11       		.uleb128 0x11
 3463 00cd 13       		.uleb128 0x13
 3464 00ce 01       		.byte	0x1
 3465 00cf 03       		.uleb128 0x3
 3466 00d0 0E       		.uleb128 0xe
 3467 00d1 0B       		.uleb128 0xb
 3468 00d2 05       		.uleb128 0x5
 3469 00d3 3A       		.uleb128 0x3a
ARM GAS  /tmp/ccFWkvbl.s 			page 62


 3470 00d4 0B       		.uleb128 0xb
 3471 00d5 3B       		.uleb128 0x3b
 3472 00d6 05       		.uleb128 0x5
 3473 00d7 39       		.uleb128 0x39
 3474 00d8 0B       		.uleb128 0xb
 3475 00d9 01       		.uleb128 0x1
 3476 00da 13       		.uleb128 0x13
 3477 00db 00       		.byte	0
 3478 00dc 00       		.byte	0
 3479 00dd 12       		.uleb128 0x12
 3480 00de 0D       		.uleb128 0xd
 3481 00df 00       		.byte	0
 3482 00e0 03       		.uleb128 0x3
 3483 00e1 0E       		.uleb128 0xe
 3484 00e2 3A       		.uleb128 0x3a
 3485 00e3 0B       		.uleb128 0xb
 3486 00e4 3B       		.uleb128 0x3b
 3487 00e5 05       		.uleb128 0x5
 3488 00e6 39       		.uleb128 0x39
 3489 00e7 0B       		.uleb128 0xb
 3490 00e8 49       		.uleb128 0x49
 3491 00e9 13       		.uleb128 0x13
 3492 00ea 38       		.uleb128 0x38
 3493 00eb 05       		.uleb128 0x5
 3494 00ec 00       		.byte	0
 3495 00ed 00       		.byte	0
 3496 00ee 13       		.uleb128 0x13
 3497 00ef 0D       		.uleb128 0xd
 3498 00f0 00       		.byte	0
 3499 00f1 03       		.uleb128 0x3
 3500 00f2 08       		.uleb128 0x8
 3501 00f3 3A       		.uleb128 0x3a
 3502 00f4 0B       		.uleb128 0xb
 3503 00f5 3B       		.uleb128 0x3b
 3504 00f6 05       		.uleb128 0x5
 3505 00f7 39       		.uleb128 0x39
 3506 00f8 0B       		.uleb128 0xb
 3507 00f9 49       		.uleb128 0x49
 3508 00fa 13       		.uleb128 0x13
 3509 00fb 38       		.uleb128 0x38
 3510 00fc 05       		.uleb128 0x5
 3511 00fd 00       		.byte	0
 3512 00fe 00       		.byte	0
 3513 00ff 14       		.uleb128 0x14
 3514 0100 34       		.uleb128 0x34
 3515 0101 00       		.byte	0
 3516 0102 03       		.uleb128 0x3
 3517 0103 0E       		.uleb128 0xe
 3518 0104 3A       		.uleb128 0x3a
 3519 0105 0B       		.uleb128 0xb
 3520 0106 3B       		.uleb128 0x3b
 3521 0107 05       		.uleb128 0x5
 3522 0108 39       		.uleb128 0x39
 3523 0109 0B       		.uleb128 0xb
 3524 010a 49       		.uleb128 0x49
 3525 010b 13       		.uleb128 0x13
 3526 010c 3F       		.uleb128 0x3f
ARM GAS  /tmp/ccFWkvbl.s 			page 63


 3527 010d 19       		.uleb128 0x19
 3528 010e 3C       		.uleb128 0x3c
 3529 010f 19       		.uleb128 0x19
 3530 0110 00       		.byte	0
 3531 0111 00       		.byte	0
 3532 0112 15       		.uleb128 0x15
 3533 0113 34       		.uleb128 0x34
 3534 0114 00       		.byte	0
 3535 0115 03       		.uleb128 0x3
 3536 0116 0E       		.uleb128 0xe
 3537 0117 3A       		.uleb128 0x3a
 3538 0118 0B       		.uleb128 0xb
 3539 0119 3B       		.uleb128 0x3b
 3540 011a 0B       		.uleb128 0xb
 3541 011b 39       		.uleb128 0x39
 3542 011c 0B       		.uleb128 0xb
 3543 011d 49       		.uleb128 0x49
 3544 011e 13       		.uleb128 0x13
 3545 011f 3F       		.uleb128 0x3f
 3546 0120 19       		.uleb128 0x19
 3547 0121 3C       		.uleb128 0x3c
 3548 0122 19       		.uleb128 0x19
 3549 0123 00       		.byte	0
 3550 0124 00       		.byte	0
 3551 0125 16       		.uleb128 0x16
 3552 0126 01       		.uleb128 0x1
 3553 0127 01       		.byte	0x1
 3554 0128 49       		.uleb128 0x49
 3555 0129 13       		.uleb128 0x13
 3556 012a 01       		.uleb128 0x1
 3557 012b 13       		.uleb128 0x13
 3558 012c 00       		.byte	0
 3559 012d 00       		.byte	0
 3560 012e 17       		.uleb128 0x17
 3561 012f 21       		.uleb128 0x21
 3562 0130 00       		.byte	0
 3563 0131 49       		.uleb128 0x49
 3564 0132 13       		.uleb128 0x13
 3565 0133 2F       		.uleb128 0x2f
 3566 0134 0B       		.uleb128 0xb
 3567 0135 00       		.byte	0
 3568 0136 00       		.byte	0
 3569 0137 18       		.uleb128 0x18
 3570 0138 13       		.uleb128 0x13
 3571 0139 01       		.byte	0x1
 3572 013a 0B       		.uleb128 0xb
 3573 013b 0B       		.uleb128 0xb
 3574 013c 3A       		.uleb128 0x3a
 3575 013d 0B       		.uleb128 0xb
 3576 013e 3B       		.uleb128 0x3b
 3577 013f 0B       		.uleb128 0xb
 3578 0140 39       		.uleb128 0x39
 3579 0141 0B       		.uleb128 0xb
 3580 0142 01       		.uleb128 0x1
 3581 0143 13       		.uleb128 0x13
 3582 0144 00       		.byte	0
 3583 0145 00       		.byte	0
ARM GAS  /tmp/ccFWkvbl.s 			page 64


 3584 0146 19       		.uleb128 0x19
 3585 0147 17       		.uleb128 0x17
 3586 0148 01       		.byte	0x1
 3587 0149 0B       		.uleb128 0xb
 3588 014a 0B       		.uleb128 0xb
 3589 014b 3A       		.uleb128 0x3a
 3590 014c 0B       		.uleb128 0xb
 3591 014d 3B       		.uleb128 0x3b
 3592 014e 0B       		.uleb128 0xb
 3593 014f 39       		.uleb128 0x39
 3594 0150 0B       		.uleb128 0xb
 3595 0151 01       		.uleb128 0x1
 3596 0152 13       		.uleb128 0x13
 3597 0153 00       		.byte	0
 3598 0154 00       		.byte	0
 3599 0155 1A       		.uleb128 0x1a
 3600 0156 0D       		.uleb128 0xd
 3601 0157 00       		.byte	0
 3602 0158 03       		.uleb128 0x3
 3603 0159 08       		.uleb128 0x8
 3604 015a 3A       		.uleb128 0x3a
 3605 015b 0B       		.uleb128 0xb
 3606 015c 3B       		.uleb128 0x3b
 3607 015d 0B       		.uleb128 0xb
 3608 015e 39       		.uleb128 0x39
 3609 015f 0B       		.uleb128 0xb
 3610 0160 49       		.uleb128 0x49
 3611 0161 13       		.uleb128 0x13
 3612 0162 00       		.byte	0
 3613 0163 00       		.byte	0
 3614 0164 1B       		.uleb128 0x1b
 3615 0165 0D       		.uleb128 0xd
 3616 0166 00       		.byte	0
 3617 0167 03       		.uleb128 0x3
 3618 0168 0E       		.uleb128 0xe
 3619 0169 3A       		.uleb128 0x3a
 3620 016a 0B       		.uleb128 0xb
 3621 016b 3B       		.uleb128 0x3b
 3622 016c 0B       		.uleb128 0xb
 3623 016d 39       		.uleb128 0x39
 3624 016e 0B       		.uleb128 0xb
 3625 016f 49       		.uleb128 0x49
 3626 0170 13       		.uleb128 0x13
 3627 0171 00       		.byte	0
 3628 0172 00       		.byte	0
 3629 0173 1C       		.uleb128 0x1c
 3630 0174 0D       		.uleb128 0xd
 3631 0175 00       		.byte	0
 3632 0176 03       		.uleb128 0x3
 3633 0177 0E       		.uleb128 0xe
 3634 0178 3A       		.uleb128 0x3a
 3635 0179 0B       		.uleb128 0xb
 3636 017a 3B       		.uleb128 0x3b
 3637 017b 0B       		.uleb128 0xb
 3638 017c 39       		.uleb128 0x39
 3639 017d 0B       		.uleb128 0xb
 3640 017e 49       		.uleb128 0x49
ARM GAS  /tmp/ccFWkvbl.s 			page 65


 3641 017f 13       		.uleb128 0x13
 3642 0180 0B       		.uleb128 0xb
 3643 0181 0B       		.uleb128 0xb
 3644 0182 0D       		.uleb128 0xd
 3645 0183 0B       		.uleb128 0xb
 3646 0184 0C       		.uleb128 0xc
 3647 0185 0B       		.uleb128 0xb
 3648 0186 38       		.uleb128 0x38
 3649 0187 0B       		.uleb128 0xb
 3650 0188 00       		.byte	0
 3651 0189 00       		.byte	0
 3652 018a 1D       		.uleb128 0x1d
 3653 018b 13       		.uleb128 0x13
 3654 018c 01       		.byte	0x1
 3655 018d 0B       		.uleb128 0xb
 3656 018e 05       		.uleb128 0x5
 3657 018f 3A       		.uleb128 0x3a
 3658 0190 0B       		.uleb128 0xb
 3659 0191 3B       		.uleb128 0x3b
 3660 0192 0B       		.uleb128 0xb
 3661 0193 39       		.uleb128 0x39
 3662 0194 0B       		.uleb128 0xb
 3663 0195 01       		.uleb128 0x1
 3664 0196 13       		.uleb128 0x13
 3665 0197 00       		.byte	0
 3666 0198 00       		.byte	0
 3667 0199 1E       		.uleb128 0x1e
 3668 019a 0D       		.uleb128 0xd
 3669 019b 00       		.byte	0
 3670 019c 03       		.uleb128 0x3
 3671 019d 0E       		.uleb128 0xe
 3672 019e 3A       		.uleb128 0x3a
 3673 019f 0B       		.uleb128 0xb
 3674 01a0 3B       		.uleb128 0x3b
 3675 01a1 05       		.uleb128 0x5
 3676 01a2 39       		.uleb128 0x39
 3677 01a3 0B       		.uleb128 0xb
 3678 01a4 49       		.uleb128 0x49
 3679 01a5 13       		.uleb128 0x13
 3680 01a6 00       		.byte	0
 3681 01a7 00       		.byte	0
 3682 01a8 1F       		.uleb128 0x1f
 3683 01a9 34       		.uleb128 0x34
 3684 01aa 00       		.byte	0
 3685 01ab 03       		.uleb128 0x3
 3686 01ac 08       		.uleb128 0x8
 3687 01ad 3A       		.uleb128 0x3a
 3688 01ae 0B       		.uleb128 0xb
 3689 01af 3B       		.uleb128 0x3b
 3690 01b0 05       		.uleb128 0x5
 3691 01b1 39       		.uleb128 0x39
 3692 01b2 0B       		.uleb128 0xb
 3693 01b3 49       		.uleb128 0x49
 3694 01b4 13       		.uleb128 0x13
 3695 01b5 3F       		.uleb128 0x3f
 3696 01b6 19       		.uleb128 0x19
 3697 01b7 3C       		.uleb128 0x3c
ARM GAS  /tmp/ccFWkvbl.s 			page 66


 3698 01b8 19       		.uleb128 0x19
 3699 01b9 00       		.byte	0
 3700 01ba 00       		.byte	0
 3701 01bb 20       		.uleb128 0x20
 3702 01bc 21       		.uleb128 0x21
 3703 01bd 00       		.byte	0
 3704 01be 00       		.byte	0
 3705 01bf 00       		.byte	0
 3706 01c0 21       		.uleb128 0x21
 3707 01c1 15       		.uleb128 0x15
 3708 01c2 01       		.byte	0x1
 3709 01c3 27       		.uleb128 0x27
 3710 01c4 19       		.uleb128 0x19
 3711 01c5 49       		.uleb128 0x49
 3712 01c6 13       		.uleb128 0x13
 3713 01c7 01       		.uleb128 0x1
 3714 01c8 13       		.uleb128 0x13
 3715 01c9 00       		.byte	0
 3716 01ca 00       		.byte	0
 3717 01cb 22       		.uleb128 0x22
 3718 01cc 13       		.uleb128 0x13
 3719 01cd 01       		.byte	0x1
 3720 01ce 03       		.uleb128 0x3
 3721 01cf 0E       		.uleb128 0xe
 3722 01d0 0B       		.uleb128 0xb
 3723 01d1 0B       		.uleb128 0xb
 3724 01d2 3A       		.uleb128 0x3a
 3725 01d3 0B       		.uleb128 0xb
 3726 01d4 3B       		.uleb128 0x3b
 3727 01d5 0B       		.uleb128 0xb
 3728 01d6 01       		.uleb128 0x1
 3729 01d7 13       		.uleb128 0x13
 3730 01d8 00       		.byte	0
 3731 01d9 00       		.byte	0
 3732 01da 23       		.uleb128 0x23
 3733 01db 0D       		.uleb128 0xd
 3734 01dc 00       		.byte	0
 3735 01dd 03       		.uleb128 0x3
 3736 01de 0E       		.uleb128 0xe
 3737 01df 49       		.uleb128 0x49
 3738 01e0 13       		.uleb128 0x13
 3739 01e1 38       		.uleb128 0x38
 3740 01e2 0B       		.uleb128 0xb
 3741 01e3 34       		.uleb128 0x34
 3742 01e4 19       		.uleb128 0x19
 3743 01e5 00       		.byte	0
 3744 01e6 00       		.byte	0
 3745 01e7 24       		.uleb128 0x24
 3746 01e8 15       		.uleb128 0x15
 3747 01e9 00       		.byte	0
 3748 01ea 27       		.uleb128 0x27
 3749 01eb 19       		.uleb128 0x19
 3750 01ec 49       		.uleb128 0x49
 3751 01ed 13       		.uleb128 0x13
 3752 01ee 00       		.byte	0
 3753 01ef 00       		.byte	0
 3754 01f0 25       		.uleb128 0x25
ARM GAS  /tmp/ccFWkvbl.s 			page 67


 3755 01f1 16       		.uleb128 0x16
 3756 01f2 00       		.byte	0
 3757 01f3 03       		.uleb128 0x3
 3758 01f4 0E       		.uleb128 0xe
 3759 01f5 3A       		.uleb128 0x3a
 3760 01f6 0B       		.uleb128 0xb
 3761 01f7 3B       		.uleb128 0x3b
 3762 01f8 05       		.uleb128 0x5
 3763 01f9 39       		.uleb128 0x39
 3764 01fa 0B       		.uleb128 0xb
 3765 01fb 49       		.uleb128 0x49
 3766 01fc 13       		.uleb128 0x13
 3767 01fd 00       		.byte	0
 3768 01fe 00       		.byte	0
 3769 01ff 26       		.uleb128 0x26
 3770 0200 2E       		.uleb128 0x2e
 3771 0201 01       		.byte	0x1
 3772 0202 3F       		.uleb128 0x3f
 3773 0203 19       		.uleb128 0x19
 3774 0204 03       		.uleb128 0x3
 3775 0205 0E       		.uleb128 0xe
 3776 0206 3A       		.uleb128 0x3a
 3777 0207 0B       		.uleb128 0xb
 3778 0208 3B       		.uleb128 0x3b
 3779 0209 0B       		.uleb128 0xb
 3780 020a 39       		.uleb128 0x39
 3781 020b 0B       		.uleb128 0xb
 3782 020c 27       		.uleb128 0x27
 3783 020d 19       		.uleb128 0x19
 3784 020e 49       		.uleb128 0x49
 3785 020f 13       		.uleb128 0x13
 3786 0210 11       		.uleb128 0x11
 3787 0211 01       		.uleb128 0x1
 3788 0212 12       		.uleb128 0x12
 3789 0213 06       		.uleb128 0x6
 3790 0214 40       		.uleb128 0x40
 3791 0215 18       		.uleb128 0x18
 3792 0216 9642     		.uleb128 0x2116
 3793 0218 19       		.uleb128 0x19
 3794 0219 01       		.uleb128 0x1
 3795 021a 13       		.uleb128 0x13
 3796 021b 00       		.byte	0
 3797 021c 00       		.byte	0
 3798 021d 27       		.uleb128 0x27
 3799 021e 05       		.uleb128 0x5
 3800 021f 00       		.byte	0
 3801 0220 03       		.uleb128 0x3
 3802 0221 0E       		.uleb128 0xe
 3803 0222 3A       		.uleb128 0x3a
 3804 0223 0B       		.uleb128 0xb
 3805 0224 3B       		.uleb128 0x3b
 3806 0225 0B       		.uleb128 0xb
 3807 0226 39       		.uleb128 0x39
 3808 0227 0B       		.uleb128 0xb
 3809 0228 49       		.uleb128 0x49
 3810 0229 13       		.uleb128 0x13
 3811 022a 02       		.uleb128 0x2
ARM GAS  /tmp/ccFWkvbl.s 			page 68


 3812 022b 17       		.uleb128 0x17
 3813 022c B742     		.uleb128 0x2137
 3814 022e 17       		.uleb128 0x17
 3815 022f 00       		.byte	0
 3816 0230 00       		.byte	0
 3817 0231 28       		.uleb128 0x28
 3818 0232 34       		.uleb128 0x34
 3819 0233 00       		.byte	0
 3820 0234 03       		.uleb128 0x3
 3821 0235 08       		.uleb128 0x8
 3822 0236 3A       		.uleb128 0x3a
 3823 0237 0B       		.uleb128 0xb
 3824 0238 3B       		.uleb128 0x3b
 3825 0239 0B       		.uleb128 0xb
 3826 023a 39       		.uleb128 0x39
 3827 023b 0B       		.uleb128 0xb
 3828 023c 49       		.uleb128 0x49
 3829 023d 13       		.uleb128 0x13
 3830 023e 02       		.uleb128 0x2
 3831 023f 17       		.uleb128 0x17
 3832 0240 B742     		.uleb128 0x2137
 3833 0242 17       		.uleb128 0x17
 3834 0243 00       		.byte	0
 3835 0244 00       		.byte	0
 3836 0245 29       		.uleb128 0x29
 3837 0246 1D       		.uleb128 0x1d
 3838 0247 01       		.byte	0x1
 3839 0248 31       		.uleb128 0x31
 3840 0249 13       		.uleb128 0x13
 3841 024a 52       		.uleb128 0x52
 3842 024b 01       		.uleb128 0x1
 3843 024c B842     		.uleb128 0x2138
 3844 024e 0B       		.uleb128 0xb
 3845 024f 55       		.uleb128 0x55
 3846 0250 17       		.uleb128 0x17
 3847 0251 58       		.uleb128 0x58
 3848 0252 0B       		.uleb128 0xb
 3849 0253 59       		.uleb128 0x59
 3850 0254 0B       		.uleb128 0xb
 3851 0255 57       		.uleb128 0x57
 3852 0256 0B       		.uleb128 0xb
 3853 0257 01       		.uleb128 0x1
 3854 0258 13       		.uleb128 0x13
 3855 0259 00       		.byte	0
 3856 025a 00       		.byte	0
 3857 025b 2A       		.uleb128 0x2a
 3858 025c 05       		.uleb128 0x5
 3859 025d 00       		.byte	0
 3860 025e 31       		.uleb128 0x31
 3861 025f 13       		.uleb128 0x13
 3862 0260 02       		.uleb128 0x2
 3863 0261 17       		.uleb128 0x17
 3864 0262 B742     		.uleb128 0x2137
 3865 0264 17       		.uleb128 0x17
 3866 0265 00       		.byte	0
 3867 0266 00       		.byte	0
 3868 0267 2B       		.uleb128 0x2b
ARM GAS  /tmp/ccFWkvbl.s 			page 69


 3869 0268 0B       		.uleb128 0xb
 3870 0269 01       		.byte	0x1
 3871 026a 55       		.uleb128 0x55
 3872 026b 17       		.uleb128 0x17
 3873 026c 00       		.byte	0
 3874 026d 00       		.byte	0
 3875 026e 2C       		.uleb128 0x2c
 3876 026f 34       		.uleb128 0x34
 3877 0270 00       		.byte	0
 3878 0271 31       		.uleb128 0x31
 3879 0272 13       		.uleb128 0x13
 3880 0273 02       		.uleb128 0x2
 3881 0274 17       		.uleb128 0x17
 3882 0275 B742     		.uleb128 0x2137
 3883 0277 17       		.uleb128 0x17
 3884 0278 00       		.byte	0
 3885 0279 00       		.byte	0
 3886 027a 2D       		.uleb128 0x2d
 3887 027b 1D       		.uleb128 0x1d
 3888 027c 01       		.byte	0x1
 3889 027d 31       		.uleb128 0x31
 3890 027e 13       		.uleb128 0x13
 3891 027f 52       		.uleb128 0x52
 3892 0280 01       		.uleb128 0x1
 3893 0281 B842     		.uleb128 0x2138
 3894 0283 0B       		.uleb128 0xb
 3895 0284 55       		.uleb128 0x55
 3896 0285 17       		.uleb128 0x17
 3897 0286 58       		.uleb128 0x58
 3898 0287 0B       		.uleb128 0xb
 3899 0288 59       		.uleb128 0x59
 3900 0289 05       		.uleb128 0x5
 3901 028a 57       		.uleb128 0x57
 3902 028b 0B       		.uleb128 0xb
 3903 028c 00       		.byte	0
 3904 028d 00       		.byte	0
 3905 028e 2E       		.uleb128 0x2e
 3906 028f 1D       		.uleb128 0x1d
 3907 0290 01       		.byte	0x1
 3908 0291 31       		.uleb128 0x31
 3909 0292 13       		.uleb128 0x13
 3910 0293 52       		.uleb128 0x52
 3911 0294 01       		.uleb128 0x1
 3912 0295 B842     		.uleb128 0x2138
 3913 0297 0B       		.uleb128 0xb
 3914 0298 11       		.uleb128 0x11
 3915 0299 01       		.uleb128 0x1
 3916 029a 12       		.uleb128 0x12
 3917 029b 06       		.uleb128 0x6
 3918 029c 58       		.uleb128 0x58
 3919 029d 0B       		.uleb128 0xb
 3920 029e 59       		.uleb128 0x59
 3921 029f 05       		.uleb128 0x5
 3922 02a0 57       		.uleb128 0x57
 3923 02a1 0B       		.uleb128 0xb
 3924 02a2 00       		.byte	0
 3925 02a3 00       		.byte	0
ARM GAS  /tmp/ccFWkvbl.s 			page 70


 3926 02a4 2F       		.uleb128 0x2f
 3927 02a5 898201   		.uleb128 0x4109
 3928 02a8 01       		.byte	0x1
 3929 02a9 11       		.uleb128 0x11
 3930 02aa 01       		.uleb128 0x1
 3931 02ab 31       		.uleb128 0x31
 3932 02ac 13       		.uleb128 0x13
 3933 02ad 00       		.byte	0
 3934 02ae 00       		.byte	0
 3935 02af 30       		.uleb128 0x30
 3936 02b0 8A8201   		.uleb128 0x410a
 3937 02b3 00       		.byte	0
 3938 02b4 02       		.uleb128 0x2
 3939 02b5 18       		.uleb128 0x18
 3940 02b6 9142     		.uleb128 0x2111
 3941 02b8 18       		.uleb128 0x18
 3942 02b9 00       		.byte	0
 3943 02ba 00       		.byte	0
 3944 02bb 31       		.uleb128 0x31
 3945 02bc 2E       		.uleb128 0x2e
 3946 02bd 01       		.byte	0x1
 3947 02be 3F       		.uleb128 0x3f
 3948 02bf 19       		.uleb128 0x19
 3949 02c0 03       		.uleb128 0x3
 3950 02c1 0E       		.uleb128 0xe
 3951 02c2 3A       		.uleb128 0x3a
 3952 02c3 0B       		.uleb128 0xb
 3953 02c4 3B       		.uleb128 0x3b
 3954 02c5 0B       		.uleb128 0xb
 3955 02c6 39       		.uleb128 0x39
 3956 02c7 0B       		.uleb128 0xb
 3957 02c8 27       		.uleb128 0x27
 3958 02c9 19       		.uleb128 0x19
 3959 02ca 11       		.uleb128 0x11
 3960 02cb 01       		.uleb128 0x1
 3961 02cc 12       		.uleb128 0x12
 3962 02cd 06       		.uleb128 0x6
 3963 02ce 40       		.uleb128 0x40
 3964 02cf 18       		.uleb128 0x18
 3965 02d0 9642     		.uleb128 0x2116
 3966 02d2 19       		.uleb128 0x19
 3967 02d3 01       		.uleb128 0x1
 3968 02d4 13       		.uleb128 0x13
 3969 02d5 00       		.byte	0
 3970 02d6 00       		.byte	0
 3971 02d7 32       		.uleb128 0x32
 3972 02d8 898201   		.uleb128 0x4109
 3973 02db 00       		.byte	0
 3974 02dc 11       		.uleb128 0x11
 3975 02dd 01       		.uleb128 0x1
 3976 02de 31       		.uleb128 0x31
 3977 02df 13       		.uleb128 0x13
 3978 02e0 00       		.byte	0
 3979 02e1 00       		.byte	0
 3980 02e2 33       		.uleb128 0x33
 3981 02e3 898201   		.uleb128 0x4109
 3982 02e6 00       		.byte	0
ARM GAS  /tmp/ccFWkvbl.s 			page 71


 3983 02e7 11       		.uleb128 0x11
 3984 02e8 01       		.uleb128 0x1
 3985 02e9 9542     		.uleb128 0x2115
 3986 02eb 19       		.uleb128 0x19
 3987 02ec 31       		.uleb128 0x31
 3988 02ed 13       		.uleb128 0x13
 3989 02ee 00       		.byte	0
 3990 02ef 00       		.byte	0
 3991 02f0 34       		.uleb128 0x34
 3992 02f1 2E       		.uleb128 0x2e
 3993 02f2 01       		.byte	0x1
 3994 02f3 3F       		.uleb128 0x3f
 3995 02f4 19       		.uleb128 0x19
 3996 02f5 03       		.uleb128 0x3
 3997 02f6 0E       		.uleb128 0xe
 3998 02f7 3A       		.uleb128 0x3a
 3999 02f8 0B       		.uleb128 0xb
 4000 02f9 3B       		.uleb128 0x3b
 4001 02fa 0B       		.uleb128 0xb
 4002 02fb 39       		.uleb128 0x39
 4003 02fc 0B       		.uleb128 0xb
 4004 02fd 27       		.uleb128 0x27
 4005 02fe 19       		.uleb128 0x19
 4006 02ff 49       		.uleb128 0x49
 4007 0300 13       		.uleb128 0x13
 4008 0301 11       		.uleb128 0x11
 4009 0302 01       		.uleb128 0x1
 4010 0303 12       		.uleb128 0x12
 4011 0304 06       		.uleb128 0x6
 4012 0305 40       		.uleb128 0x40
 4013 0306 18       		.uleb128 0x18
 4014 0307 9742     		.uleb128 0x2117
 4015 0309 19       		.uleb128 0x19
 4016 030a 01       		.uleb128 0x1
 4017 030b 13       		.uleb128 0x13
 4018 030c 00       		.byte	0
 4019 030d 00       		.byte	0
 4020 030e 35       		.uleb128 0x35
 4021 030f 05       		.uleb128 0x5
 4022 0310 00       		.byte	0
 4023 0311 03       		.uleb128 0x3
 4024 0312 08       		.uleb128 0x8
 4025 0313 3A       		.uleb128 0x3a
 4026 0314 0B       		.uleb128 0xb
 4027 0315 3B       		.uleb128 0x3b
 4028 0316 0B       		.uleb128 0xb
 4029 0317 39       		.uleb128 0x39
 4030 0318 0B       		.uleb128 0xb
 4031 0319 49       		.uleb128 0x49
 4032 031a 13       		.uleb128 0x13
 4033 031b 02       		.uleb128 0x2
 4034 031c 17       		.uleb128 0x17
 4035 031d B742     		.uleb128 0x2137
 4036 031f 17       		.uleb128 0x17
 4037 0320 00       		.byte	0
 4038 0321 00       		.byte	0
 4039 0322 36       		.uleb128 0x36
ARM GAS  /tmp/ccFWkvbl.s 			page 72


 4040 0323 05       		.uleb128 0x5
 4041 0324 00       		.byte	0
 4042 0325 03       		.uleb128 0x3
 4043 0326 0E       		.uleb128 0xe
 4044 0327 3A       		.uleb128 0x3a
 4045 0328 0B       		.uleb128 0xb
 4046 0329 3B       		.uleb128 0x3b
 4047 032a 0B       		.uleb128 0xb
 4048 032b 39       		.uleb128 0x39
 4049 032c 0B       		.uleb128 0xb
 4050 032d 49       		.uleb128 0x49
 4051 032e 13       		.uleb128 0x13
 4052 032f 02       		.uleb128 0x2
 4053 0330 18       		.uleb128 0x18
 4054 0331 00       		.byte	0
 4055 0332 00       		.byte	0
 4056 0333 37       		.uleb128 0x37
 4057 0334 18       		.uleb128 0x18
 4058 0335 00       		.byte	0
 4059 0336 00       		.byte	0
 4060 0337 00       		.byte	0
 4061 0338 38       		.uleb128 0x38
 4062 0339 34       		.uleb128 0x34
 4063 033a 00       		.byte	0
 4064 033b 03       		.uleb128 0x3
 4065 033c 0E       		.uleb128 0xe
 4066 033d 3A       		.uleb128 0x3a
 4067 033e 0B       		.uleb128 0xb
 4068 033f 3B       		.uleb128 0x3b
 4069 0340 0B       		.uleb128 0xb
 4070 0341 39       		.uleb128 0x39
 4071 0342 0B       		.uleb128 0xb
 4072 0343 49       		.uleb128 0x49
 4073 0344 13       		.uleb128 0x13
 4074 0345 02       		.uleb128 0x2
 4075 0346 18       		.uleb128 0x18
 4076 0347 00       		.byte	0
 4077 0348 00       		.byte	0
 4078 0349 39       		.uleb128 0x39
 4079 034a 34       		.uleb128 0x34
 4080 034b 00       		.byte	0
 4081 034c 03       		.uleb128 0x3
 4082 034d 08       		.uleb128 0x8
 4083 034e 3A       		.uleb128 0x3a
 4084 034f 0B       		.uleb128 0xb
 4085 0350 3B       		.uleb128 0x3b
 4086 0351 0B       		.uleb128 0xb
 4087 0352 39       		.uleb128 0x39
 4088 0353 0B       		.uleb128 0xb
 4089 0354 49       		.uleb128 0x49
 4090 0355 13       		.uleb128 0x13
 4091 0356 02       		.uleb128 0x2
 4092 0357 18       		.uleb128 0x18
 4093 0358 00       		.byte	0
 4094 0359 00       		.byte	0
 4095 035a 3A       		.uleb128 0x3a
 4096 035b 2E       		.uleb128 0x2e
ARM GAS  /tmp/ccFWkvbl.s 			page 73


 4097 035c 01       		.byte	0x1
 4098 035d 3F       		.uleb128 0x3f
 4099 035e 19       		.uleb128 0x19
 4100 035f 03       		.uleb128 0x3
 4101 0360 0E       		.uleb128 0xe
 4102 0361 3A       		.uleb128 0x3a
 4103 0362 0B       		.uleb128 0xb
 4104 0363 3B       		.uleb128 0x3b
 4105 0364 0B       		.uleb128 0xb
 4106 0365 39       		.uleb128 0x39
 4107 0366 0B       		.uleb128 0xb
 4108 0367 27       		.uleb128 0x27
 4109 0368 19       		.uleb128 0x19
 4110 0369 49       		.uleb128 0x49
 4111 036a 13       		.uleb128 0x13
 4112 036b 11       		.uleb128 0x11
 4113 036c 01       		.uleb128 0x1
 4114 036d 12       		.uleb128 0x12
 4115 036e 06       		.uleb128 0x6
 4116 036f 40       		.uleb128 0x40
 4117 0370 18       		.uleb128 0x18
 4118 0371 01       		.uleb128 0x1
 4119 0372 13       		.uleb128 0x13
 4120 0373 00       		.byte	0
 4121 0374 00       		.byte	0
 4122 0375 3B       		.uleb128 0x3b
 4123 0376 34       		.uleb128 0x34
 4124 0377 00       		.byte	0
 4125 0378 03       		.uleb128 0x3
 4126 0379 08       		.uleb128 0x8
 4127 037a 3A       		.uleb128 0x3a
 4128 037b 0B       		.uleb128 0xb
 4129 037c 3B       		.uleb128 0x3b
 4130 037d 0B       		.uleb128 0xb
 4131 037e 39       		.uleb128 0x39
 4132 037f 0B       		.uleb128 0xb
 4133 0380 49       		.uleb128 0x49
 4134 0381 13       		.uleb128 0x13
 4135 0382 00       		.byte	0
 4136 0383 00       		.byte	0
 4137 0384 3C       		.uleb128 0x3c
 4138 0385 2E       		.uleb128 0x2e
 4139 0386 01       		.byte	0x1
 4140 0387 03       		.uleb128 0x3
 4141 0388 0E       		.uleb128 0xe
 4142 0389 3A       		.uleb128 0x3a
 4143 038a 0B       		.uleb128 0xb
 4144 038b 3B       		.uleb128 0x3b
 4145 038c 0B       		.uleb128 0xb
 4146 038d 39       		.uleb128 0x39
 4147 038e 0B       		.uleb128 0xb
 4148 038f 27       		.uleb128 0x27
 4149 0390 19       		.uleb128 0x19
 4150 0391 49       		.uleb128 0x49
 4151 0392 13       		.uleb128 0x13
 4152 0393 20       		.uleb128 0x20
 4153 0394 0B       		.uleb128 0xb
ARM GAS  /tmp/ccFWkvbl.s 			page 74


 4154 0395 01       		.uleb128 0x1
 4155 0396 13       		.uleb128 0x13
 4156 0397 00       		.byte	0
 4157 0398 00       		.byte	0
 4158 0399 3D       		.uleb128 0x3d
 4159 039a 05       		.uleb128 0x5
 4160 039b 00       		.byte	0
 4161 039c 03       		.uleb128 0x3
 4162 039d 08       		.uleb128 0x8
 4163 039e 3A       		.uleb128 0x3a
 4164 039f 0B       		.uleb128 0xb
 4165 03a0 3B       		.uleb128 0x3b
 4166 03a1 0B       		.uleb128 0xb
 4167 03a2 39       		.uleb128 0x39
 4168 03a3 0B       		.uleb128 0xb
 4169 03a4 49       		.uleb128 0x49
 4170 03a5 13       		.uleb128 0x13
 4171 03a6 00       		.byte	0
 4172 03a7 00       		.byte	0
 4173 03a8 3E       		.uleb128 0x3e
 4174 03a9 34       		.uleb128 0x34
 4175 03aa 00       		.byte	0
 4176 03ab 03       		.uleb128 0x3
 4177 03ac 0E       		.uleb128 0xe
 4178 03ad 49       		.uleb128 0x49
 4179 03ae 13       		.uleb128 0x13
 4180 03af 34       		.uleb128 0x34
 4181 03b0 19       		.uleb128 0x19
 4182 03b1 00       		.byte	0
 4183 03b2 00       		.byte	0
 4184 03b3 3F       		.uleb128 0x3f
 4185 03b4 05       		.uleb128 0x5
 4186 03b5 00       		.byte	0
 4187 03b6 03       		.uleb128 0x3
 4188 03b7 0E       		.uleb128 0xe
 4189 03b8 3A       		.uleb128 0x3a
 4190 03b9 0B       		.uleb128 0xb
 4191 03ba 3B       		.uleb128 0x3b
 4192 03bb 0B       		.uleb128 0xb
 4193 03bc 39       		.uleb128 0x39
 4194 03bd 0B       		.uleb128 0xb
 4195 03be 49       		.uleb128 0x49
 4196 03bf 13       		.uleb128 0x13
 4197 03c0 00       		.byte	0
 4198 03c1 00       		.byte	0
 4199 03c2 40       		.uleb128 0x40
 4200 03c3 2E       		.uleb128 0x2e
 4201 03c4 01       		.byte	0x1
 4202 03c5 03       		.uleb128 0x3
 4203 03c6 0E       		.uleb128 0xe
 4204 03c7 3A       		.uleb128 0x3a
 4205 03c8 0B       		.uleb128 0xb
 4206 03c9 3B       		.uleb128 0x3b
 4207 03ca 05       		.uleb128 0x5
 4208 03cb 39       		.uleb128 0x39
 4209 03cc 0B       		.uleb128 0xb
 4210 03cd 27       		.uleb128 0x27
ARM GAS  /tmp/ccFWkvbl.s 			page 75


 4211 03ce 19       		.uleb128 0x19
 4212 03cf 20       		.uleb128 0x20
 4213 03d0 0B       		.uleb128 0xb
 4214 03d1 01       		.uleb128 0x1
 4215 03d2 13       		.uleb128 0x13
 4216 03d3 00       		.byte	0
 4217 03d4 00       		.byte	0
 4218 03d5 41       		.uleb128 0x41
 4219 03d6 2E       		.uleb128 0x2e
 4220 03d7 00       		.byte	0
 4221 03d8 03       		.uleb128 0x3
 4222 03d9 0E       		.uleb128 0xe
 4223 03da 3A       		.uleb128 0x3a
 4224 03db 0B       		.uleb128 0xb
 4225 03dc 3B       		.uleb128 0x3b
 4226 03dd 05       		.uleb128 0x5
 4227 03de 39       		.uleb128 0x39
 4228 03df 0B       		.uleb128 0xb
 4229 03e0 27       		.uleb128 0x27
 4230 03e1 19       		.uleb128 0x19
 4231 03e2 20       		.uleb128 0x20
 4232 03e3 0B       		.uleb128 0xb
 4233 03e4 00       		.byte	0
 4234 03e5 00       		.byte	0
 4235 03e6 42       		.uleb128 0x42
 4236 03e7 05       		.uleb128 0x5
 4237 03e8 00       		.byte	0
 4238 03e9 03       		.uleb128 0x3
 4239 03ea 0E       		.uleb128 0xe
 4240 03eb 3A       		.uleb128 0x3a
 4241 03ec 0B       		.uleb128 0xb
 4242 03ed 3B       		.uleb128 0x3b
 4243 03ee 05       		.uleb128 0x5
 4244 03ef 39       		.uleb128 0x39
 4245 03f0 0B       		.uleb128 0xb
 4246 03f1 49       		.uleb128 0x49
 4247 03f2 13       		.uleb128 0x13
 4248 03f3 00       		.byte	0
 4249 03f4 00       		.byte	0
 4250 03f5 43       		.uleb128 0x43
 4251 03f6 2E       		.uleb128 0x2e
 4252 03f7 00       		.byte	0
 4253 03f8 3F       		.uleb128 0x3f
 4254 03f9 19       		.uleb128 0x19
 4255 03fa 3C       		.uleb128 0x3c
 4256 03fb 19       		.uleb128 0x19
 4257 03fc 6E       		.uleb128 0x6e
 4258 03fd 0E       		.uleb128 0xe
 4259 03fe 03       		.uleb128 0x3
 4260 03ff 0E       		.uleb128 0xe
 4261 0400 3A       		.uleb128 0x3a
 4262 0401 0B       		.uleb128 0xb
 4263 0402 3B       		.uleb128 0x3b
 4264 0403 0B       		.uleb128 0xb
 4265 0404 39       		.uleb128 0x39
 4266 0405 0B       		.uleb128 0xb
 4267 0406 00       		.byte	0
ARM GAS  /tmp/ccFWkvbl.s 			page 76


 4268 0407 00       		.byte	0
 4269 0408 00       		.byte	0
 4270              		.section	.debug_loc,"",%progbits
 4271              	.Ldebug_loc0:
 4272              	.LVUS13:
 4273 0000 00       		.uleb128 0
 4274 0001 00       		.uleb128 .LVU159
 4275 0002 00       		.uleb128 .LVU159
 4276 0003 00       		.uleb128 0
 4277              	.LLST13:
 4278 0004 F0000000 		.4byte	.LVL29-.Ltext0
 4279 0008 FB000000 		.4byte	.LVL31-1-.Ltext0
 4280 000c 0100     		.2byte	0x1
 4281 000e 50       		.byte	0x50
 4282 000f FB000000 		.4byte	.LVL31-1-.Ltext0
 4283 0013 20010000 		.4byte	.LFE330-.Ltext0
 4284 0017 0400     		.2byte	0x4
 4285 0019 F3       		.byte	0xf3
 4286 001a 01       		.uleb128 0x1
 4287 001b 50       		.byte	0x50
 4288 001c 9F       		.byte	0x9f
 4289 001d 00000000 		.4byte	0
 4290 0021 00000000 		.4byte	0
 4291              	.LVUS14:
 4292 0025 02       		.uleb128 .LVU172
 4293 0026 00       		.uleb128 .LVU182
 4294 0027 00       		.uleb128 .LVU182
 4295 0028 00       		.uleb128 .LVU188
 4296 0029 00       		.uleb128 .LVU188
 4297 002a 00       		.uleb128 .LVU189
 4298              	.LLST14:
 4299 002b 02010000 		.4byte	.LVL32-.Ltext0
 4300 002f 0C010000 		.4byte	.LVL35-.Ltext0
 4301 0033 0100     		.2byte	0x1
 4302 0035 50       		.byte	0x50
 4303 0036 0C010000 		.4byte	.LVL35-.Ltext0
 4304 003a 1A010000 		.4byte	.LVL39-.Ltext0
 4305 003e 0100     		.2byte	0x1
 4306 0040 55       		.byte	0x55
 4307 0041 1A010000 		.4byte	.LVL39-.Ltext0
 4308 0045 1E010000 		.4byte	.LVL40-.Ltext0
 4309 0049 0100     		.2byte	0x1
 4310 004b 50       		.byte	0x50
 4311 004c 00000000 		.4byte	0
 4312 0050 00000000 		.4byte	0
 4313              	.LVUS15:
 4314 0054 00       		.uleb128 .LVU180
 4315 0055 00       		.uleb128 .LVU183
 4316              	.LLST15:
 4317 0056 06010000 		.4byte	.LVL34-.Ltext0
 4318 005a 0D010000 		.4byte	.LVL36-1-.Ltext0
 4319 005e 0100     		.2byte	0x1
 4320 0060 53       		.byte	0x53
 4321 0061 00000000 		.4byte	0
 4322 0065 00000000 		.4byte	0
 4323              	.LVUS16:
 4324 0069 00       		.uleb128 .LVU183
ARM GAS  /tmp/ccFWkvbl.s 			page 77


 4325 006a 00       		.uleb128 .LVU184
 4326 006b 00       		.uleb128 .LVU184
 4327 006c 00       		.uleb128 .LVU185
 4328              	.LLST16:
 4329 006d 0E010000 		.4byte	.LVL36-.Ltext0
 4330 0071 12010000 		.4byte	.LVL37-.Ltext0
 4331 0075 0100     		.2byte	0x1
 4332 0077 50       		.byte	0x50
 4333 0078 12010000 		.4byte	.LVL37-.Ltext0
 4334 007c 15010000 		.4byte	.LVL38-1-.Ltext0
 4335 0080 0100     		.2byte	0x1
 4336 0082 51       		.byte	0x51
 4337 0083 00000000 		.4byte	0
 4338 0087 00000000 		.4byte	0
 4339              	.LVUS17:
 4340 008b 05       		.uleb128 .LVU143
 4341 008c 00       		.uleb128 .LVU159
 4342 008d 00       		.uleb128 .LVU159
 4343 008e 02       		.uleb128 .LVU172
 4344              	.LLST17:
 4345 008f F0000000 		.4byte	.LVL29-.Ltext0
 4346 0093 FB000000 		.4byte	.LVL31-1-.Ltext0
 4347 0097 0100     		.2byte	0x1
 4348 0099 50       		.byte	0x50
 4349 009a FB000000 		.4byte	.LVL31-1-.Ltext0
 4350 009e 02010000 		.4byte	.LVL32-.Ltext0
 4351 00a2 0400     		.2byte	0x4
 4352 00a4 F3       		.byte	0xf3
 4353 00a5 01       		.uleb128 0x1
 4354 00a6 50       		.byte	0x50
 4355 00a7 9F       		.byte	0x9f
 4356 00a8 00000000 		.4byte	0
 4357 00ac 00000000 		.4byte	0
 4358              	.LVUS18:
 4359 00b0 00       		.uleb128 .LVU159
 4360 00b1 02       		.uleb128 .LVU172
 4361              	.LLST18:
 4362 00b2 FC000000 		.4byte	.LVL31-.Ltext0
 4363 00b6 02010000 		.4byte	.LVL32-.Ltext0
 4364 00ba 0100     		.2byte	0x1
 4365 00bc 50       		.byte	0x50
 4366 00bd 00000000 		.4byte	0
 4367 00c1 00000000 		.4byte	0
 4368              	.LVUS19:
 4369 00c5 0C       		.uleb128 .LVU150
 4370 00c6 00       		.uleb128 .LVU154
 4371              	.LLST19:
 4372 00c7 F0000000 		.4byte	.LVL29-.Ltext0
 4373 00cb F8000000 		.4byte	.LVL30-.Ltext0
 4374 00cf 0300     		.2byte	0x3
 4375 00d1 08       		.byte	0x8
 4376 00d2 20       		.byte	0x20
 4377 00d3 9F       		.byte	0x9f
 4378 00d4 00000000 		.4byte	0
 4379 00d8 00000000 		.4byte	0
 4380              	.LVUS20:
 4381 00dc 09       		.uleb128 .LVU168
ARM GAS  /tmp/ccFWkvbl.s 			page 78


 4382 00dd 00       		.uleb128 .LVU170
 4383              	.LLST20:
 4384 00de FC000000 		.4byte	.LVL31-.Ltext0
 4385 00e2 02010000 		.4byte	.LVL32-.Ltext0
 4386 00e6 0200     		.2byte	0x2
 4387 00e8 30       		.byte	0x30
 4388 00e9 9F       		.byte	0x9f
 4389 00ea 00000000 		.4byte	0
 4390 00ee 00000000 		.4byte	0
 4391              	.LVUS7:
 4392 00f2 02       		.uleb128 .LVU125
 4393 00f3 00       		.uleb128 .LVU133
 4394 00f4 00       		.uleb128 .LVU133
 4395 00f5 00       		.uleb128 .LVU136
 4396 00f6 00       		.uleb128 .LVU136
 4397 00f7 00       		.uleb128 .LVU137
 4398              	.LLST7:
 4399 00f8 D4000000 		.4byte	.LVL22-.Ltext0
 4400 00fc DA000000 		.4byte	.LVL24-.Ltext0
 4401 0100 0100     		.2byte	0x1
 4402 0102 50       		.byte	0x50
 4403 0103 DA000000 		.4byte	.LVL24-.Ltext0
 4404 0107 E4000000 		.4byte	.LVL27-.Ltext0
 4405 010b 0100     		.2byte	0x1
 4406 010d 54       		.byte	0x54
 4407 010e E4000000 		.4byte	.LVL27-.Ltext0
 4408 0112 E7000000 		.4byte	.LVL28-1-.Ltext0
 4409 0116 0100     		.2byte	0x1
 4410 0118 50       		.byte	0x50
 4411 0119 00000000 		.4byte	0
 4412 011d 00000000 		.4byte	0
 4413              	.LVUS8:
 4414 0121 00       		.uleb128 .LVU131
 4415 0122 00       		.uleb128 .LVU134
 4416              	.LLST8:
 4417 0123 D6000000 		.4byte	.LVL23-.Ltext0
 4418 0127 DB000000 		.4byte	.LVL25-1-.Ltext0
 4419 012b 0100     		.2byte	0x1
 4420 012d 53       		.byte	0x53
 4421 012e 00000000 		.4byte	0
 4422 0132 00000000 		.4byte	0
 4423              	.LVUS9:
 4424 0136 00       		.uleb128 .LVU134
 4425 0137 00       		.uleb128 .LVU135
 4426 0138 00       		.uleb128 .LVU135
 4427 0139 00       		.uleb128 .LVU137
 4428              	.LLST9:
 4429 013a DC000000 		.4byte	.LVL25-.Ltext0
 4430 013e E0000000 		.4byte	.LVL26-.Ltext0
 4431 0142 0100     		.2byte	0x1
 4432 0144 50       		.byte	0x50
 4433 0145 E0000000 		.4byte	.LVL26-.Ltext0
 4434 0149 E7000000 		.4byte	.LVL28-1-.Ltext0
 4435 014d 0100     		.2byte	0x1
 4436 014f 51       		.byte	0x51
 4437 0150 00000000 		.4byte	0
 4438 0154 00000000 		.4byte	0
ARM GAS  /tmp/ccFWkvbl.s 			page 79


 4439              	.LVUS10:
 4440 0158 00       		.uleb128 .LVU112
 4441 0159 02       		.uleb128 .LVU125
 4442              	.LLST10:
 4443 015a D0000000 		.4byte	.LVL21-.Ltext0
 4444 015e D4000000 		.4byte	.LVL22-.Ltext0
 4445 0162 0100     		.2byte	0x1
 4446 0164 50       		.byte	0x50
 4447 0165 00000000 		.4byte	0
 4448 0169 00000000 		.4byte	0
 4449              	.LVUS11:
 4450 016d 0C       		.uleb128 .LVU101
 4451 016e 00       		.uleb128 .LVU105
 4452              	.LLST11:
 4453 016f C0000000 		.4byte	.LVL18-.Ltext0
 4454 0173 C8000000 		.4byte	.LVL19-.Ltext0
 4455 0177 0300     		.2byte	0x3
 4456 0179 08       		.byte	0x8
 4457 017a 20       		.byte	0x20
 4458 017b 9F       		.byte	0x9f
 4459 017c 00000000 		.4byte	0
 4460 0180 00000000 		.4byte	0
 4461              	.LVUS12:
 4462 0184 09       		.uleb128 .LVU121
 4463 0185 00       		.uleb128 .LVU123
 4464              	.LLST12:
 4465 0186 D0000000 		.4byte	.LVL21-.Ltext0
 4466 018a D4000000 		.4byte	.LVL22-.Ltext0
 4467 018e 0200     		.2byte	0x2
 4468 0190 30       		.byte	0x30
 4469 0191 9F       		.byte	0x9f
 4470 0192 00000000 		.4byte	0
 4471 0196 00000000 		.4byte	0
 4472              	.LVUS5:
 4473 019a 00       		.uleb128 0
 4474 019b 00       		.uleb128 .LVU86
 4475 019c 00       		.uleb128 .LVU86
 4476 019d 00       		.uleb128 0
 4477              	.LLST5:
 4478 019e 90000000 		.4byte	.LVL16-.Ltext0
 4479 01a2 A9000000 		.4byte	.LVL17-1-.Ltext0
 4480 01a6 0100     		.2byte	0x1
 4481 01a8 50       		.byte	0x50
 4482 01a9 A9000000 		.4byte	.LVL17-1-.Ltext0
 4483 01ad B4000000 		.4byte	.LFE328-.Ltext0
 4484 01b1 0400     		.2byte	0x4
 4485 01b3 F3       		.byte	0xf3
 4486 01b4 01       		.uleb128 0x1
 4487 01b5 50       		.byte	0x50
 4488 01b6 9F       		.byte	0x9f
 4489 01b7 00000000 		.4byte	0
 4490 01bb 00000000 		.4byte	0
 4491              	.LVUS6:
 4492 01bf 00       		.uleb128 .LVU86
 4493 01c0 00       		.uleb128 0
 4494              	.LLST6:
 4495 01c1 AA000000 		.4byte	.LVL17-.Ltext0
ARM GAS  /tmp/ccFWkvbl.s 			page 80


 4496 01c5 B4000000 		.4byte	.LFE328-.Ltext0
 4497 01c9 0100     		.2byte	0x1
 4498 01cb 50       		.byte	0x50
 4499 01cc 00000000 		.4byte	0
 4500 01d0 00000000 		.4byte	0
 4501              	.LVUS4:
 4502 01d4 00       		.uleb128 0
 4503 01d5 00       		.uleb128 .LVU60
 4504 01d6 00       		.uleb128 .LVU60
 4505 01d7 00       		.uleb128 .LVU69
 4506 01d8 00       		.uleb128 .LVU69
 4507 01d9 00       		.uleb128 0
 4508              	.LLST4:
 4509 01da 70000000 		.4byte	.LVL12-.Ltext0
 4510 01de 82000000 		.4byte	.LVL13-.Ltext0
 4511 01e2 0100     		.2byte	0x1
 4512 01e4 50       		.byte	0x50
 4513 01e5 82000000 		.4byte	.LVL13-.Ltext0
 4514 01e9 8E000000 		.4byte	.LVL14-.Ltext0
 4515 01ed 0100     		.2byte	0x1
 4516 01ef 54       		.byte	0x54
 4517 01f0 8E000000 		.4byte	.LVL14-.Ltext0
 4518 01f4 90000000 		.4byte	.LFE327-.Ltext0
 4519 01f8 0400     		.2byte	0x4
 4520 01fa F3       		.byte	0xf3
 4521 01fb 01       		.uleb128 0x1
 4522 01fc 50       		.byte	0x50
 4523 01fd 9F       		.byte	0x9f
 4524 01fe 00000000 		.4byte	0
 4525 0202 00000000 		.4byte	0
 4526              	.LVUS3:
 4527 0206 00       		.uleb128 0
 4528 0207 00       		.uleb128 .LVU41
 4529 0208 00       		.uleb128 .LVU41
 4530 0209 00       		.uleb128 .LVU48
 4531 020a 00       		.uleb128 .LVU48
 4532 020b 00       		.uleb128 0
 4533              	.LLST3:
 4534 020c 50000000 		.4byte	.LVL8-.Ltext0
 4535 0210 60000000 		.4byte	.LVL9-.Ltext0
 4536 0214 0100     		.2byte	0x1
 4537 0216 50       		.byte	0x50
 4538 0217 60000000 		.4byte	.LVL9-.Ltext0
 4539 021b 68000000 		.4byte	.LVL10-.Ltext0
 4540 021f 0100     		.2byte	0x1
 4541 0221 52       		.byte	0x52
 4542 0222 68000000 		.4byte	.LVL10-.Ltext0
 4543 0226 6E000000 		.4byte	.LFE326-.Ltext0
 4544 022a 0400     		.2byte	0x4
 4545 022c F3       		.byte	0xf3
 4546 022d 01       		.uleb128 0x1
 4547 022e 50       		.byte	0x50
 4548 022f 9F       		.byte	0x9f
 4549 0230 00000000 		.4byte	0
 4550 0234 00000000 		.4byte	0
 4551              	.LVUS2:
 4552 0238 00       		.uleb128 0
ARM GAS  /tmp/ccFWkvbl.s 			page 81


 4553 0239 00       		.uleb128 .LVU25
 4554 023a 00       		.uleb128 .LVU25
 4555 023b 00       		.uleb128 .LVU33
 4556 023c 00       		.uleb128 .LVU33
 4557 023d 00       		.uleb128 0
 4558              	.LLST2:
 4559 023e 30000000 		.4byte	.LVL5-.Ltext0
 4560 0242 3E000000 		.4byte	.LVL6-.Ltext0
 4561 0246 0100     		.2byte	0x1
 4562 0248 50       		.byte	0x50
 4563 0249 3E000000 		.4byte	.LVL6-.Ltext0
 4564 024d 49000000 		.4byte	.LVL7-1-.Ltext0
 4565 0251 0100     		.2byte	0x1
 4566 0253 52       		.byte	0x52
 4567 0254 49000000 		.4byte	.LVL7-1-.Ltext0
 4568 0258 4A000000 		.4byte	.LFE325-.Ltext0
 4569 025c 0400     		.2byte	0x4
 4570 025e F3       		.byte	0xf3
 4571 025f 01       		.uleb128 0x1
 4572 0260 50       		.byte	0x50
 4573 0261 9F       		.byte	0x9f
 4574 0262 00000000 		.4byte	0
 4575 0266 00000000 		.4byte	0
 4576              	.LVUS1:
 4577 026a 00       		.uleb128 0
 4578 026b 00       		.uleb128 .LVU12
 4579 026c 00       		.uleb128 .LVU12
 4580 026d 00       		.uleb128 .LVU17
 4581 026e 00       		.uleb128 .LVU17
 4582 026f 00       		.uleb128 0
 4583              	.LLST1:
 4584 0270 10000000 		.4byte	.LVL2-.Ltext0
 4585 0274 18000000 		.4byte	.LVL3-.Ltext0
 4586 0278 0100     		.2byte	0x1
 4587 027a 50       		.byte	0x50
 4588 027b 18000000 		.4byte	.LVL3-.Ltext0
 4589 027f 21000000 		.4byte	.LVL4-1-.Ltext0
 4590 0283 0100     		.2byte	0x1
 4591 0285 52       		.byte	0x52
 4592 0286 21000000 		.4byte	.LVL4-1-.Ltext0
 4593 028a 22000000 		.4byte	.LFE324-.Ltext0
 4594 028e 0400     		.2byte	0x4
 4595 0290 F3       		.byte	0xf3
 4596 0291 01       		.uleb128 0x1
 4597 0292 50       		.byte	0x50
 4598 0293 9F       		.byte	0x9f
 4599 0294 00000000 		.4byte	0
 4600 0298 00000000 		.4byte	0
 4601              	.LVUS0:
 4602 029c 00       		.uleb128 0
 4603 029d 00       		.uleb128 .LVU5
 4604 029e 00       		.uleb128 .LVU5
 4605 029f 00       		.uleb128 0
 4606              	.LLST0:
 4607 02a0 00000000 		.4byte	.LVL0-.Ltext0
 4608 02a4 09000000 		.4byte	.LVL1-1-.Ltext0
 4609 02a8 0100     		.2byte	0x1
ARM GAS  /tmp/ccFWkvbl.s 			page 82


 4610 02aa 50       		.byte	0x50
 4611 02ab 09000000 		.4byte	.LVL1-1-.Ltext0
 4612 02af 0A000000 		.4byte	.LFE323-.Ltext0
 4613 02b3 0400     		.2byte	0x4
 4614 02b5 F3       		.byte	0xf3
 4615 02b6 01       		.uleb128 0x1
 4616 02b7 50       		.byte	0x50
 4617 02b8 9F       		.byte	0x9f
 4618 02b9 00000000 		.4byte	0
 4619 02bd 00000000 		.4byte	0
 4620              		.section	.debug_aranges,"",%progbits
 4621 0000 1C000000 		.4byte	0x1c
 4622 0004 0200     		.2byte	0x2
 4623 0006 00000000 		.4byte	.Ldebug_info0
 4624 000a 04       		.byte	0x4
 4625 000b 00       		.byte	0
 4626 000c 0000     		.2byte	0
 4627 000e 0000     		.2byte	0
 4628 0010 00000000 		.4byte	.Ltext0
 4629 0014 20010000 		.4byte	.Letext0-.Ltext0
 4630 0018 00000000 		.4byte	0
 4631 001c 00000000 		.4byte	0
 4632              		.section	.debug_ranges,"",%progbits
 4633              	.Ldebug_ranges0:
 4634 0000 C0000000 		.4byte	.LBB60-.Ltext0
 4635 0004 C0000000 		.4byte	.LBE60-.Ltext0
 4636 0008 C0000000 		.4byte	.LBB91-.Ltext0
 4637 000c C0000000 		.4byte	.LBE91-.Ltext0
 4638 0010 C0000000 		.4byte	.LBB92-.Ltext0
 4639 0014 C0000000 		.4byte	.LBE92-.Ltext0
 4640 0018 C2000000 		.4byte	.LBB93-.Ltext0
 4641 001c C8000000 		.4byte	.LBE93-.Ltext0
 4642 0020 C8000000 		.4byte	.LBB94-.Ltext0
 4643 0024 D0000000 		.4byte	.LBE94-.Ltext0
 4644 0028 D0000000 		.4byte	.LBB95-.Ltext0
 4645 002c D4000000 		.4byte	.LBE95-.Ltext0
 4646 0030 00000000 		.4byte	0
 4647 0034 00000000 		.4byte	0
 4648 0038 C0000000 		.4byte	.LBB62-.Ltext0
 4649 003c C0000000 		.4byte	.LBE62-.Ltext0
 4650 0040 C0000000 		.4byte	.LBB70-.Ltext0
 4651 0044 C0000000 		.4byte	.LBE70-.Ltext0
 4652 0048 C0000000 		.4byte	.LBB71-.Ltext0
 4653 004c C0000000 		.4byte	.LBE71-.Ltext0
 4654 0050 C2000000 		.4byte	.LBB72-.Ltext0
 4655 0054 C8000000 		.4byte	.LBE72-.Ltext0
 4656 0058 00000000 		.4byte	0
 4657 005c 00000000 		.4byte	0
 4658 0060 CC000000 		.4byte	.LBB73-.Ltext0
 4659 0064 CE000000 		.4byte	.LBE73-.Ltext0
 4660 0068 D0000000 		.4byte	.LBB84-.Ltext0
 4661 006c D0000000 		.4byte	.LBE84-.Ltext0
 4662 0070 D0000000 		.4byte	.LBB85-.Ltext0
 4663 0074 D4000000 		.4byte	.LBE85-.Ltext0
 4664 0078 00000000 		.4byte	0
 4665 007c 00000000 		.4byte	0
 4666 0080 CC000000 		.4byte	.LBB76-.Ltext0
ARM GAS  /tmp/ccFWkvbl.s 			page 83


 4667 0084 CE000000 		.4byte	.LBE76-.Ltext0
 4668 0088 D0000000 		.4byte	.LBB79-.Ltext0
 4669 008c D4000000 		.4byte	.LBE79-.Ltext0
 4670 0090 00000000 		.4byte	0
 4671 0094 00000000 		.4byte	0
 4672 0098 F0000000 		.4byte	.LBB96-.Ltext0
 4673 009c F0000000 		.4byte	.LBE96-.Ltext0
 4674 00a0 F0000000 		.4byte	.LBB122-.Ltext0
 4675 00a4 F0000000 		.4byte	.LBE122-.Ltext0
 4676 00a8 F0000000 		.4byte	.LBB123-.Ltext0
 4677 00ac F0000000 		.4byte	.LBE123-.Ltext0
 4678 00b0 F2000000 		.4byte	.LBB124-.Ltext0
 4679 00b4 F8000000 		.4byte	.LBE124-.Ltext0
 4680 00b8 F8000000 		.4byte	.LBB125-.Ltext0
 4681 00bc FC000000 		.4byte	.LBE125-.Ltext0
 4682 00c0 FC000000 		.4byte	.LBB126-.Ltext0
 4683 00c4 02010000 		.4byte	.LBE126-.Ltext0
 4684 00c8 00000000 		.4byte	0
 4685 00cc 00000000 		.4byte	0
 4686 00d0 F0000000 		.4byte	.LBB98-.Ltext0
 4687 00d4 F0000000 		.4byte	.LBE98-.Ltext0
 4688 00d8 F0000000 		.4byte	.LBB106-.Ltext0
 4689 00dc F0000000 		.4byte	.LBE106-.Ltext0
 4690 00e0 F0000000 		.4byte	.LBB107-.Ltext0
 4691 00e4 F0000000 		.4byte	.LBE107-.Ltext0
 4692 00e8 F2000000 		.4byte	.LBB108-.Ltext0
 4693 00ec F8000000 		.4byte	.LBE108-.Ltext0
 4694 00f0 00000000 		.4byte	0
 4695 00f4 00000000 		.4byte	0
 4696 00f8 FC000000 		.4byte	.LBB109-.Ltext0
 4697 00fc FC000000 		.4byte	.LBE109-.Ltext0
 4698 0100 FC000000 		.4byte	.LBB116-.Ltext0
 4699 0104 02010000 		.4byte	.LBE116-.Ltext0
 4700 0108 00000000 		.4byte	0
 4701 010c 00000000 		.4byte	0
 4702              		.section	.debug_line,"",%progbits
 4703              	.Ldebug_line0:
 4704 0000 DD060000 		.section	.debug_str,"MS",%progbits,1
 4704      0300DA03 
 4704      00000201 
 4704      FB0E0D00 
 4704      01010101 
 4705              	.LASF54:
 4706 0000 72656164 		.ascii	"ready_list_t\000"
 4706      795F6C69 
 4706      73745F74 
 4706      00
 4707              	.LASF152:
 4708 000d 63685F6F 		.ascii	"ch_objects_factory\000"
 4708      626A6563 
 4708      74735F66 
 4708      6163746F 
 4708      727900
 4709              	.LASF98:
 4710 0020 7264796D 		.ascii	"rdymsg\000"
 4710      736700
 4711              	.LASF20:
ARM GAS  /tmp/ccFWkvbl.s 			page 84


 4712 0027 75696E74 		.ascii	"uint64_t\000"
 4712      36345F74 
 4712      00
 4713              	.LASF27:
 4714 0030 6576656E 		.ascii	"eventmask_t\000"
 4714      746D6173 
 4714      6B5F7400 
 4715              	.LASF5:
 4716 003c 5F5F7569 		.ascii	"__uint8_t\000"
 4716      6E74385F 
 4716      7400
 4717              	.LASF53:
 4718 0046 70726576 		.ascii	"prev\000"
 4718      00
 4719              	.LASF81:
 4720 004b 706F7274 		.ascii	"port_intctx\000"
 4720      5F696E74 
 4720      63747800 
 4721              	.LASF141:
 4722 0057 76615F6C 		.ascii	"va_list\000"
 4722      69737400 
 4723              	.LASF72:
 4724 005f 76746C69 		.ascii	"vtlist\000"
 4724      737400
 4725              	.LASF138:
 4726 0066 70726F76 		.ascii	"provider\000"
 4726      69646572 
 4726      00
 4727              	.LASF88:
 4728 006f 74797065 		.ascii	"type\000"
 4728      00
 4729              	.LASF156:
 4730 0074 73656D5F 		.ascii	"sem_list\000"
 4730      6C697374 
 4730      00
 4731              	.LASF182:
 4732 007d 706F7274 		.ascii	"port_lock\000"
 4732      5F6C6F63 
 4732      6B00
 4733              	.LASF130:
 4734 0087 6D656D67 		.ascii	"memgetfunc_t\000"
 4734      65746675 
 4734      6E635F74 
 4734      00
 4735              	.LASF92:
 4736 0094 73757370 		.ascii	"suspended\000"
 4736      656E6465 
 4736      6400
 4737              	.LASF86:
 4738 009e 68616C74 		.ascii	"halt\000"
 4738      00
 4739              	.LASF73:
 4740 00a3 6D61696E 		.ascii	"mainthread\000"
 4740      74687265 
 4740      616400
 4741              	.LASF101:
 4742 00ae 73656E74 		.ascii	"sentmsg\000"
ARM GAS  /tmp/ccFWkvbl.s 			page 85


 4742      6D736700 
 4743              	.LASF177:
 4744 00b6 63684D73 		.ascii	"chMsgWaitTimeout\000"
 4744      67576169 
 4744      7454696D 
 4744      656F7574 
 4744      00
 4745              	.LASF60:
 4746 00c7 64656C74 		.ascii	"delta\000"
 4746      6100
 4747              	.LASF76:
 4748 00cd 49544D5F 		.ascii	"ITM_RxBuffer\000"
 4748      52784275 
 4748      66666572 
 4748      00
 4749              	.LASF119:
 4750 00da 6F66665F 		.ascii	"off_name\000"
 4750      6E616D65 
 4750      00
 4751              	.LASF50:
 4752 00e3 6E657874 		.ascii	"next\000"
 4752      00
 4753              	.LASF52:
 4754 00e8 63685F74 		.ascii	"ch_threads_queue\000"
 4754      68726561 
 4754      64735F71 
 4754      75657565 
 4754      00
 4755              	.LASF158:
 4756 00f9 6D62785F 		.ascii	"mbx_list\000"
 4756      6C697374 
 4756      00
 4757              	.LASF78:
 4758 0102 53797374 		.ascii	"SystemD2Clock\000"
 4758      656D4432 
 4758      436C6F63 
 4758      6B00
 4759              	.LASF9:
 4760 0110 73686F72 		.ascii	"short unsigned int\000"
 4760      7420756E 
 4760      7369676E 
 4760      65642069 
 4760      6E7400
 4761              	.LASF131:
 4762 0123 62617365 		.ascii	"basemem\000"
 4762      6D656D00 
 4763              	.LASF1:
 4764 012b 6C6F6E67 		.ascii	"long long int\000"
 4764      206C6F6E 
 4764      6720696E 
 4764      7400
 4765              	.LASF3:
 4766 0139 7369676E 		.ascii	"signed char\000"
 4766      65642063 
 4766      68617200 
 4767              	.LASF13:
 4768 0145 6C6F6E67 		.ascii	"long unsigned int\000"
ARM GAS  /tmp/ccFWkvbl.s 			page 86


 4768      20756E73 
 4768      69676E65 
 4768      6420696E 
 4768      7400
 4769              	.LASF93:
 4770 0157 73697A65 		.ascii	"size\000"
 4770      00
 4771              	.LASF185:
 4772 015c 62617365 		.ascii	"basePri\000"
 4772      50726900 
 4773              	.LASF37:
 4774 0164 73746174 		.ascii	"state\000"
 4774      6500
 4775              	.LASF11:
 4776 016a 6C6F6E67 		.ascii	"long int\000"
 4776      20696E74 
 4776      00
 4777              	.LASF189:
 4778 0173 63684D73 		.ascii	"chMsgSend\000"
 4778      6753656E 
 4778      6400
 4779              	.LASF145:
 4780 017d 64656C65 		.ascii	"delegate_fn2_t\000"
 4780      67617465 
 4780      5F666E32 
 4780      5F7400
 4781              	.LASF23:
 4782 018c 74737461 		.ascii	"tstate_t\000"
 4782      74655F74 
 4782      00
 4783              	.LASF91:
 4784 0195 63685F74 		.ascii	"ch_trace_event_t\000"
 4784      72616365 
 4784      5F657665 
 4784      6E745F74 
 4784      00
 4785              	.LASF174:
 4786 01a6 5F5F6368 		.ascii	"__ch_delegate_fn1\000"
 4786      5F64656C 
 4786      65676174 
 4786      655F666E 
 4786      3100
 4787              	.LASF61:
 4788 01b8 66756E63 		.ascii	"func\000"
 4788      00
 4789              	.LASF17:
 4790 01bd 75696E74 		.ascii	"uint16_t\000"
 4790      31365F74 
 4790      00
 4791              	.LASF126:
 4792 01c6 63686465 		.ascii	"chdebug_t\000"
 4792      6275675F 
 4792      7400
 4793              	.LASF124:
 4794 01d0 6F66665F 		.ascii	"off_preempt\000"
 4794      70726565 
 4794      6D707400 
ARM GAS  /tmp/ccFWkvbl.s 			page 87


 4795              	.LASF94:
 4796 01dc 62756666 		.ascii	"buffer\000"
 4796      657200
 4797              	.LASF99:
 4798 01e3 65786974 		.ascii	"exitcode\000"
 4798      636F6465 
 4798      00
 4799              	.LASF12:
 4800 01ec 5F5F7569 		.ascii	"__uint32_t\000"
 4800      6E743332 
 4800      5F7400
 4801              	.LASF163:
 4802 01f7 76656E65 		.ascii	"veneer\000"
 4802      657200
 4803              	.LASF192:
 4804 01fe 2F686F6D 		.ascii	"/home/nicolas/source/akso-sub/axoloti/firmware/moun"
 4804      652F6E69 
 4804      636F6C61 
 4804      732F736F 
 4804      75726365 
 4805 0231 74657200 		.ascii	"ter\000"
 4806              	.LASF165:
 4807 0235 63616C6C 		.ascii	"call_message_t\000"
 4807      5F6D6573 
 4807      73616765 
 4807      5F7400
 4808              	.LASF4:
 4809 0244 73697A65 		.ascii	"size_t\000"
 4809      5F7400
 4810              	.LASF40:
 4811 024b 77616974 		.ascii	"waiting\000"
 4811      696E6700 
 4812              	.LASF181:
 4813 0253 706F7274 		.ascii	"port_unlock\000"
 4813      5F756E6C 
 4813      6F636B00 
 4814              	.LASF110:
 4815 025f 7A65726F 		.ascii	"zero\000"
 4815      00
 4816              	.LASF128:
 4817 0264 6D757465 		.ascii	"mutex_t\000"
 4817      785F7400 
 4818              	.LASF137:
 4819 026c 616C6967 		.ascii	"align\000"
 4819      6E00
 4820              	.LASF75:
 4821 0272 73797369 		.ascii	"sysinterval_t\000"
 4821      6E746572 
 4821      76616C5F 
 4821      7400
 4822              	.LASF63:
 4823 0280 63685F76 		.ascii	"ch_virtual_timers_list\000"
 4823      69727475 
 4823      616C5F74 
 4823      696D6572 
 4823      735F6C69 
 4824              	.LASF28:
ARM GAS  /tmp/ccFWkvbl.s 			page 88


 4825 0297 636E745F 		.ascii	"cnt_t\000"
 4825      7400
 4826              	.LASF41:
 4827 029d 6D736771 		.ascii	"msgqueue\000"
 4827      75657565 
 4827      00
 4828              	.LASF0:
 4829 02a6 756E7369 		.ascii	"unsigned int\000"
 4829      676E6564 
 4829      20696E74 
 4829      00
 4830              	.LASF77:
 4831 02b3 53797374 		.ascii	"SystemCoreClock\000"
 4831      656D436F 
 4831      7265436C 
 4831      6F636B00 
 4832              	.LASF102:
 4833 02c3 77747365 		.ascii	"wtsemp\000"
 4833      6D7000
 4834              	.LASF79:
 4835 02ca 4431436F 		.ascii	"D1CorePrescTable\000"
 4835      72655072 
 4835      65736354 
 4835      61626C65 
 4835      00
 4836              	.LASF146:
 4837 02db 64656C65 		.ascii	"delegate_fn3_t\000"
 4837      67617465 
 4837      5F666E33 
 4837      5F7400
 4838              	.LASF65:
 4839 02ea 73797374 		.ascii	"system_debug_t\000"
 4839      656D5F64 
 4839      65627567 
 4839      5F7400
 4840              	.LASF161:
 4841 02f9 6F626A65 		.ascii	"objects_factory_t\000"
 4841      6374735F 
 4841      66616374 
 4841      6F72795F 
 4841      7400
 4842              	.LASF132:
 4843 030b 746F706D 		.ascii	"topmem\000"
 4843      656D00
 4844              	.LASF127:
 4845 0312 63685F64 		.ascii	"ch_debug\000"
 4845      65627567 
 4845      00
 4846              	.LASF176:
 4847 031b 63684D73 		.ascii	"chMsgGet\000"
 4847      67476574 
 4847      00
 4848              	.LASF168:
 4849 0324 74696D65 		.ascii	"timeout\000"
 4849      6F757400 
 4850              	.LASF55:
 4851 032c 63685F72 		.ascii	"ch_ready_list\000"
ARM GAS  /tmp/ccFWkvbl.s 			page 89


 4851      65616479 
 4851      5F6C6973 
 4851      7400
 4852              	.LASF139:
 4853 033a 6D656D6F 		.ascii	"memory_pool_t\000"
 4853      72795F70 
 4853      6F6F6C5F 
 4853      7400
 4854              	.LASF35:
 4855 0348 6E616D65 		.ascii	"name\000"
 4855      00
 4856              	.LASF31:
 4857 034d 71756575 		.ascii	"queue\000"
 4857      6500
 4858              	.LASF45:
 4859 0353 6D706F6F 		.ascii	"mpool\000"
 4859      6C00
 4860              	.LASF188:
 4861 0359 63684D73 		.ascii	"chMsgWaitS\000"
 4861      67576169 
 4861      745300
 4862              	.LASF123:
 4863 0364 6F66665F 		.ascii	"off_refs\000"
 4863      72656673 
 4863      00
 4864              	.LASF155:
 4865 036d 6275665F 		.ascii	"buf_list\000"
 4865      6C697374 
 4865      00
 4866              	.LASF48:
 4867 0376 63685F74 		.ascii	"ch_thread\000"
 4867      68726561 
 4867      6400
 4868              	.LASF26:
 4869 0380 6D73675F 		.ascii	"msg_t\000"
 4869      7400
 4870              	.LASF29:
 4871 0386 75636E74 		.ascii	"ucnt_t\000"
 4871      5F7400
 4872              	.LASF42:
 4873 038d 6570656E 		.ascii	"epending\000"
 4873      64696E67 
 4873      00
 4874              	.LASF151:
 4875 0396 64796E5F 		.ascii	"dyn_list_t\000"
 4875      6C697374 
 4875      5F7400
 4876              	.LASF193:
 4877 03a1 5F5F7661 		.ascii	"__va_list\000"
 4877      5F6C6973 
 4877      7400
 4878              	.LASF69:
 4879 03ab 63685F73 		.ascii	"ch_system_t\000"
 4879      79737465 
 4879      6D5F7400 
 4880              	.LASF116:
 4881 03b7 6F66665F 		.ascii	"off_ctx\000"
ARM GAS  /tmp/ccFWkvbl.s 			page 90


 4881      63747800 
 4882              	.LASF22:
 4883 03bf 746D6F64 		.ascii	"tmode_t\000"
 4883      655F7400 
 4884              	.LASF10:
 4885 03c7 5F5F696E 		.ascii	"__int32_t\000"
 4885      7433325F 
 4885      7400
 4886              	.LASF15:
 4887 03d1 6C6F6E67 		.ascii	"long long unsigned int\000"
 4887      206C6F6E 
 4887      6720756E 
 4887      7369676E 
 4887      65642069 
 4888              	.LASF62:
 4889 03e8 76697274 		.ascii	"virtual_timers_list_t\000"
 4889      75616C5F 
 4889      74696D65 
 4889      72735F6C 
 4889      6973745F 
 4890              	.LASF80:
 4891 03fe 73746B61 		.ascii	"stkalign_t\000"
 4891      6C69676E 
 4891      5F7400
 4892              	.LASF33:
 4893 0409 6E657765 		.ascii	"newer\000"
 4893      7200
 4894              	.LASF89:
 4895 040f 72747374 		.ascii	"rtstamp\000"
 4895      616D7000 
 4896              	.LASF171:
 4897 0417 5F5F6368 		.ascii	"__ch_delegate_fn4\000"
 4897      5F64656C 
 4897      65676174 
 4897      655F666E 
 4897      3400
 4898              	.LASF111:
 4899 0429 76657273 		.ascii	"version\000"
 4899      696F6E00 
 4900              	.LASF21:
 4901 0431 7274636E 		.ascii	"rtcnt_t\000"
 4901      745F7400 
 4902              	.LASF149:
 4903 0439 64796E5F 		.ascii	"dyn_element_t\000"
 4903      656C656D 
 4903      656E745F 
 4903      7400
 4904              	.LASF134:
 4905 0447 63685F6D 		.ascii	"ch_memcore\000"
 4905      656D636F 
 4905      726500
 4906              	.LASF100:
 4907 0452 77747472 		.ascii	"wttrp\000"
 4907      7000
 4908              	.LASF140:
 4909 0458 5F5F676E 		.ascii	"__gnuc_va_list\000"
 4909      75635F76 
ARM GAS  /tmp/ccFWkvbl.s 			page 91


 4909      615F6C69 
 4909      737400
 4910              	.LASF144:
 4911 0467 64656C65 		.ascii	"delegate_fn1_t\000"
 4911      67617465 
 4911      5F666E31 
 4911      5F7400
 4912              	.LASF97:
 4913 0476 746D5F63 		.ascii	"tm_calibration_t\000"
 4913      616C6962 
 4913      72617469 
 4913      6F6E5F74 
 4913      00
 4914              	.LASF142:
 4915 0487 64656C65 		.ascii	"delegate_veneer_t\000"
 4915      67617465 
 4915      5F76656E 
 4915      6565725F 
 4915      7400
 4916              	.LASF166:
 4917 0499 63684465 		.ascii	"chDelegateDispatchTimeout\000"
 4917      6C656761 
 4917      74654469 
 4917      73706174 
 4917      63685469 
 4918              	.LASF167:
 4919 04b3 63684465 		.ascii	"chDelegateCallVeneer\000"
 4919      6C656761 
 4919      74654361 
 4919      6C6C5665 
 4919      6E656572 
 4920              	.LASF82:
 4921 04c8 706F7274 		.ascii	"port_context\000"
 4921      5F636F6E 
 4921      74657874 
 4921      00
 4922              	.LASF136:
 4923 04d5 6F626A65 		.ascii	"object_size\000"
 4923      63745F73 
 4923      697A6500 
 4924              	.LASF90:
 4925 04e1 74696D65 		.ascii	"time\000"
 4925      00
 4926              	.LASF32:
 4927 04e6 7072696F 		.ascii	"prio\000"
 4927      00
 4928              	.LASF56:
 4929 04eb 63757272 		.ascii	"current\000"
 4929      656E7400 
 4930              	.LASF14:
 4931 04f3 5F5F7569 		.ascii	"__uint64_t\000"
 4931      6E743634 
 4931      5F7400
 4932              	.LASF133:
 4933 04fe 6D656D63 		.ascii	"memcore_t\000"
 4933      6F72655F 
 4933      7400
ARM GAS  /tmp/ccFWkvbl.s 			page 92


 4934              	.LASF190:
 4935 0508 474E5520 		.ascii	"GNU C17 8.3.1 20190703 (release) [gcc-8-branch revi"
 4935      43313720 
 4935      382E332E 
 4935      31203230 
 4935      31393037 
 4936 053b 73696F6E 		.ascii	"sion 273027] -mcpu=cortex-m7 -mthumb -mfloat-abi=ha"
 4936      20323733 
 4936      3032375D 
 4936      202D6D63 
 4936      70753D63 
 4937 056e 7264202D 		.ascii	"rd -mfpu=fpv4-sp-d16 -march=armv7e-m+fp -ggdb -O2 -"
 4937      6D667075 
 4937      3D667076 
 4937      342D7370 
 4937      2D643136 
 4938 05a1 666F6D69 		.ascii	"fomit-frame-pointer -falign-functions=16 -fno-math-"
 4938      742D6672 
 4938      616D652D 
 4938      706F696E 
 4938      74657220 
 4939 05d4 6572726E 		.ascii	"errno\000"
 4939      6F00
 4940              	.LASF164:
 4941 05da 61726773 		.ascii	"argsp\000"
 4941      7000
 4942              	.LASF24:
 4943 05e0 74726566 		.ascii	"trefs_t\000"
 4943      735F7400 
 4944              	.LASF114:
 4945 05e8 74687265 		.ascii	"threadsize\000"
 4945      61647369 
 4945      7A6500
 4946              	.LASF39:
 4947 05f3 72656673 		.ascii	"refs\000"
 4947      00
 4948              	.LASF58:
 4949 05f8 76697274 		.ascii	"virtual_timer_t\000"
 4949      75616C5F 
 4949      74696D65 
 4949      725F7400 
 4950              	.LASF148:
 4951 0608 63685F64 		.ascii	"ch_dyn_element\000"
 4951      796E5F65 
 4951      6C656D65 
 4951      6E7400
 4952              	.LASF25:
 4953 0617 74707269 		.ascii	"tprio_t\000"
 4953      6F5F7400 
 4954              	.LASF87:
 4955 061f 75736572 		.ascii	"user\000"
 4955      00
 4956              	.LASF66:
 4957 0624 63685F73 		.ascii	"ch_system_debug\000"
 4957      79737465 
 4957      6D5F6465 
 4957      62756700 
ARM GAS  /tmp/ccFWkvbl.s 			page 93


 4958              	.LASF129:
 4959 0634 5F426F6F 		.ascii	"_Bool\000"
 4959      6C00
 4960              	.LASF18:
 4961 063a 696E7433 		.ascii	"int32_t\000"
 4961      325F7400 
 4962              	.LASF95:
 4963 0642 63685F74 		.ascii	"ch_trace_buffer_t\000"
 4963      72616365 
 4963      5F627566 
 4963      6665725F 
 4963      7400
 4964              	.LASF115:
 4965 0654 6F66665F 		.ascii	"off_prio\000"
 4965      7072696F 
 4965      00
 4966              	.LASF120:
 4967 065d 6F66665F 		.ascii	"off_stklimit\000"
 4967      73746B6C 
 4967      696D6974 
 4967      00
 4968              	.LASF7:
 4969 066a 73686F72 		.ascii	"short int\000"
 4969      7420696E 
 4969      7400
 4970              	.LASF64:
 4971 0674 6C617374 		.ascii	"lasttime\000"
 4971      74696D65 
 4971      00
 4972              	.LASF83:
 4973 067d 77746F62 		.ascii	"wtobjp\000"
 4973      6A7000
 4974              	.LASF104:
 4975 0684 65776D61 		.ascii	"ewmask\000"
 4975      736B00
 4976              	.LASF70:
 4977 068b 63685F73 		.ascii	"ch_system\000"
 4977      79737465 
 4977      6D00
 4978              	.LASF186:
 4979 0695 63684D73 		.ascii	"chMsgWaitTimeoutS\000"
 4979      67576169 
 4979      7454696D 
 4979      656F7574 
 4979      5300
 4980              	.LASF179:
 4981 06a7 5F5F6675 		.ascii	"__func__\000"
 4981      6E635F5F 
 4981      00
 4982              	.LASF162:
 4983 06b0 63685F66 		.ascii	"ch_factory\000"
 4983      6163746F 
 4983      727900
 4984              	.LASF180:
 4985 06bb 63685379 		.ascii	"chSysLock\000"
 4985      734C6F63 
 4985      6B00
ARM GAS  /tmp/ccFWkvbl.s 			page 94


 4986              	.LASF154:
 4987 06c5 6F626A5F 		.ascii	"obj_pool\000"
 4987      706F6F6C 
 4987      00
 4988              	.LASF85:
 4989 06ce 72656173 		.ascii	"reason\000"
 4989      6F6E00
 4990              	.LASF59:
 4991 06d5 63685F76 		.ascii	"ch_virtual_timer\000"
 4991      69727475 
 4991      616C5F74 
 4991      696D6572 
 4991      00
 4992              	.LASF187:
 4993 06e6 63684D73 		.ascii	"chMsgRelease\000"
 4993      6752656C 
 4993      65617365 
 4993      00
 4994              	.LASF105:
 4995 06f3 63685F73 		.ascii	"ch_semaphore\000"
 4995      656D6170 
 4995      686F7265 
 4995      00
 4996              	.LASF125:
 4997 0700 6F66665F 		.ascii	"off_time\000"
 4997      74696D65 
 4997      00
 4998              	.LASF108:
 4999 0709 63685F69 		.ascii	"ch_idle_thread_wa\000"
 4999      646C655F 
 4999      74687265 
 4999      61645F77 
 4999      6100
 5000              	.LASF113:
 5001 071b 74696D65 		.ascii	"timesize\000"
 5001      73697A65 
 5001      00
 5002              	.LASF160:
 5003 0724 70697065 		.ascii	"pipe_list\000"
 5003      5F6C6973 
 5003      7400
 5004              	.LASF19:
 5005 072e 75696E74 		.ascii	"uint32_t\000"
 5005      33325F74 
 5005      00
 5006              	.LASF103:
 5007 0737 77746D74 		.ascii	"wtmtxp\000"
 5007      787000
 5008              	.LASF49:
 5009 073e 63685F74 		.ascii	"ch_threads_list\000"
 5009      68726561 
 5009      64735F6C 
 5009      69737400 
 5010              	.LASF107:
 5011 074e 6F776E65 		.ascii	"owner\000"
 5011      7200
 5012              	.LASF44:
ARM GAS  /tmp/ccFWkvbl.s 			page 95


 5013 0754 7265616C 		.ascii	"realprio\000"
 5013      7072696F 
 5013      00
 5014              	.LASF2:
 5015 075d 6C6F6E67 		.ascii	"long double\000"
 5015      20646F75 
 5015      626C6500 
 5016              	.LASF36:
 5017 0769 77616261 		.ascii	"wabase\000"
 5017      736500
 5018              	.LASF84:
 5019 0770 63686172 		.ascii	"char\000"
 5019      00
 5020              	.LASF34:
 5021 0775 6F6C6465 		.ascii	"older\000"
 5021      7200
 5022              	.LASF153:
 5023 077b 6F626A5F 		.ascii	"obj_list\000"
 5023      6C697374 
 5023      00
 5024              	.LASF8:
 5025 0784 5F5F7569 		.ascii	"__uint16_t\000"
 5025      6E743136 
 5025      5F7400
 5026              	.LASF30:
 5027 078f 74687265 		.ascii	"thread_t\000"
 5027      61645F74 
 5027      00
 5028              	.LASF74:
 5029 0798 73797374 		.ascii	"systime_t\000"
 5029      696D655F 
 5029      7400
 5030              	.LASF16:
 5031 07a2 75696E74 		.ascii	"uint8_t\000"
 5031      385F7400 
 5032              	.LASF184:
 5033 07aa 5F5F7365 		.ascii	"__set_BASEPRI\000"
 5033      745F4241 
 5033      53455052 
 5033      4900
 5034              	.LASF67:
 5035 07b8 70616E69 		.ascii	"panic_msg\000"
 5035      635F6D73 
 5035      6700
 5036              	.LASF170:
 5037 07c2 63684465 		.ascii	"chDelegateDispatch\000"
 5037      6C656761 
 5037      74654469 
 5037      73706174 
 5037      636800
 5038              	.LASF96:
 5039 07d5 6F666673 		.ascii	"offset\000"
 5039      657400
 5040              	.LASF118:
 5041 07dc 6F66665F 		.ascii	"off_older\000"
 5041      6F6C6465 
 5041      7200
ARM GAS  /tmp/ccFWkvbl.s 			page 96


 5042              	.LASF191:
 5043 07e6 2E2E2F2E 		.ascii	"../../../external/ChibiOS/os/oslib/src/chdelegates."
 5043      2E2F2E2E 
 5043      2F657874 
 5043      65726E61 
 5043      6C2F4368 
 5044 0819 6300     		.ascii	"c\000"
 5045              	.LASF194:
 5046 081b 5F5F6170 		.ascii	"__ap\000"
 5046      00
 5047              	.LASF150:
 5048 0820 63685F64 		.ascii	"ch_dyn_list\000"
 5048      796E5F6C 
 5048      69737400 
 5049              	.LASF6:
 5050 082c 756E7369 		.ascii	"unsigned char\000"
 5050      676E6564 
 5050      20636861 
 5050      7200
 5051              	.LASF109:
 5052 083a 6964656E 		.ascii	"identifier\000"
 5052      74696669 
 5052      657200
 5053              	.LASF178:
 5054 0845 63684D73 		.ascii	"chMsgWait\000"
 5054      67576169 
 5054      7400
 5055              	.LASF117:
 5056 084f 6F66665F 		.ascii	"off_newer\000"
 5056      6E657765 
 5056      7200
 5057              	.LASF112:
 5058 0859 70747273 		.ascii	"ptrsize\000"
 5058      697A6500 
 5059              	.LASF51:
 5060 0861 74687265 		.ascii	"threads_queue_t\000"
 5060      6164735F 
 5060      71756575 
 5060      655F7400 
 5061              	.LASF135:
 5062 0871 706F6F6C 		.ascii	"pool_header\000"
 5062      5F686561 
 5062      64657200 
 5063              	.LASF143:
 5064 087d 64656C65 		.ascii	"delegate_fn0_t\000"
 5064      67617465 
 5064      5F666E30 
 5064      5F7400
 5065              	.LASF175:
 5066 088c 5F5F6368 		.ascii	"__ch_delegate_fn0\000"
 5066      5F64656C 
 5066      65676174 
 5066      655F666E 
 5066      3000
 5067              	.LASF71:
 5068 089e 726C6973 		.ascii	"rlist\000"
 5068      7400
ARM GAS  /tmp/ccFWkvbl.s 			page 97


 5069              	.LASF173:
 5070 08a4 5F5F6368 		.ascii	"__ch_delegate_fn2\000"
 5070      5F64656C 
 5070      65676174 
 5070      655F666E 
 5070      3200
 5071              	.LASF172:
 5072 08b6 5F5F6368 		.ascii	"__ch_delegate_fn3\000"
 5072      5F64656C 
 5072      65676174 
 5072      655F666E 
 5072      3300
 5073              	.LASF157:
 5074 08c8 73656D5F 		.ascii	"sem_pool\000"
 5074      706F6F6C 
 5074      00
 5075              	.LASF38:
 5076 08d1 666C6167 		.ascii	"flags\000"
 5076      7300
 5077              	.LASF159:
 5078 08d7 6669666F 		.ascii	"fifo_list\000"
 5078      5F6C6973 
 5078      7400
 5079              	.LASF46:
 5080 08e1 74687265 		.ascii	"thread_reference_t\000"
 5080      61645F72 
 5080      65666572 
 5080      656E6365 
 5080      5F7400
 5081              	.LASF106:
 5082 08f4 63685F6D 		.ascii	"ch_mutex\000"
 5082      75746578 
 5082      00
 5083              	.LASF147:
 5084 08fd 64656C65 		.ascii	"delegate_fn4_t\000"
 5084      67617465 
 5084      5F666E34 
 5084      5F7400
 5085              	.LASF47:
 5086 090c 74687265 		.ascii	"threads_list_t\000"
 5086      6164735F 
 5086      6C697374 
 5086      5F7400
 5087              	.LASF57:
 5088 091b 76746675 		.ascii	"vtfunc_t\000"
 5088      6E635F74 
 5088      00
 5089              	.LASF121:
 5090 0924 6F66665F 		.ascii	"off_state\000"
 5090      73746174 
 5090      6500
 5091              	.LASF68:
 5092 092e 74726163 		.ascii	"trace_buffer\000"
 5092      655F6275 
 5092      66666572 
 5092      00
 5093              	.LASF183:
ARM GAS  /tmp/ccFWkvbl.s 			page 98


 5094 093b 63685379 		.ascii	"chSysUnlock\000"
 5094      73556E6C 
 5094      6F636B00 
 5095              	.LASF169:
 5096 0947 61726773 		.ascii	"args\000"
 5096      00
 5097              	.LASF122:
 5098 094c 6F66665F 		.ascii	"off_flags\000"
 5098      666C6167 
 5098      7300
 5099              	.LASF43:
 5100 0956 6D74786C 		.ascii	"mtxlist\000"
 5100      69737400 
 5101              		.ident	"GCC: (GNU Tools for Arm Embedded Processors 8-2019-q3-update) 8.3.1 20190703 (release) [gc
ARM GAS  /tmp/ccFWkvbl.s 			page 99


DEFINED SYMBOLS
                            *ABS*:0000000000000000 chdelegates.c
     /tmp/ccFWkvbl.s:17     .text:0000000000000000 $t
     /tmp/ccFWkvbl.s:26     .text:0000000000000000 __ch_delegate_fn0
     /tmp/ccFWkvbl.s:57     .text:0000000000000010 __ch_delegate_fn1
     /tmp/ccFWkvbl.s:97     .text:0000000000000030 __ch_delegate_fn2
     /tmp/ccFWkvbl.s:151    .text:0000000000000050 __ch_delegate_fn3
     /tmp/ccFWkvbl.s:208    .text:0000000000000070 __ch_delegate_fn4
     /tmp/ccFWkvbl.s:270    .text:0000000000000090 chDelegateCallVeneer
     /tmp/ccFWkvbl.s:338    .text:00000000000000c0 chDelegateDispatch
     /tmp/ccFWkvbl.s:527    .text:00000000000000f0 chDelegateDispatchTimeout

UNDEFINED SYMBOLS
chMsgSend
chMsgWaitS
chMsgRelease
chMsgWaitTimeoutS
