ARM GAS  /tmp/ccFWkvbl.s 			page 1


   1              		.cpu cortex-m7
   2              		.eabi_attribute 27, 1
   3              		.eabi_attribute 28, 1
   4              		.eabi_attribute 20, 1
   5              		.eabi_attribute 21, 1
   6              		.eabi_attribute 23, 3
   7              		.eabi_attribute 24, 1
   8              		.eabi_attribute 25, 1
   9              		.eabi_attribute 26, 1
  10              		.eabi_attribute 30, 2
  11              		.eabi_attribute 34, 1
  12              		.eabi_attribute 18, 4
  13              		.file	"chdelegates.c"
  14              		.text
  15              	.Ltext0:
  16              		.cfi_sections	.debug_frame
  17              		.align	1
  18              		.p2align 4,,15
  19              		.global	__ch_delegate_fn0
  20              		.arch armv7e-m
  21              		.syntax unified
  22              		.thumb
  23              		.thumb_func
  24              		.fpu fpv4-sp-d16
  25              		.type	__ch_delegate_fn0, %function
  26              	__ch_delegate_fn0:
  27              	.LVL0:
  28              	.LFB323:
  29              		.file 1 "../../../external/ChibiOS/os/oslib/src/chdelegates.c"
  30              		.loc 1 88 41 view -0
  31              		.cfi_startproc
  32              		@ args = 0, pretend = 0, frame = 0
  33              		@ frame_needed = 0, uses_anonymous_args = 0
  34              		@ link register save eliminated.
  35              		.loc 1 89 3 view .LVU1
  36              		.loc 1 89 18 is_stmt 0 view .LVU2
  37 0000 0368     		ldr	r3, [r0]
  38 0002 1A1D     		adds	r2, r3, #4
  39 0004 0260     		str	r2, [r0]
  40              		.loc 1 90 3 is_stmt 1 view .LVU3
  41              		.loc 1 90 10 is_stmt 0 view .LVU4
  42 0006 1B68     		ldr	r3, [r3]
  43 0008 1847     		bx	r3
  44              	.LVL1:
  45              		.loc 1 90 10 view .LVU5
  46              		.cfi_endproc
  47              	.LFE323:
  48              		.size	__ch_delegate_fn0, .-__ch_delegate_fn0
  49              		.align	1
  50 000a 00BFAFF3 		.p2align 4,,15
  50      0080
  51              		.global	__ch_delegate_fn1
  52              		.syntax unified
  53              		.thumb
  54              		.thumb_func
  55              		.fpu fpv4-sp-d16
  56              		.type	__ch_delegate_fn1, %function
ARM GAS  /tmp/ccFWkvbl.s 			page 2


  57              	__ch_delegate_fn1:
  58              	.LVL2:
  59              	.LFB324:
  60              		.loc 1 99 41 is_stmt 1 view -0
  61              		.cfi_startproc
  62              		@ args = 0, pretend = 0, frame = 0
  63              		@ frame_needed = 0, uses_anonymous_args = 0
  64              		@ link register save eliminated.
  65              		.loc 1 100 3 view .LVU7
  66              		.loc 1 100 18 is_stmt 0 view .LVU8
  67 0010 0368     		ldr	r3, [r0]
  68              		.loc 1 99 41 view .LVU9
  69 0012 0246     		mov	r2, r0
  70              		.loc 1 100 18 view .LVU10
  71 0014 191D     		adds	r1, r3, #4
  72              		.loc 1 102 10 view .LVU11
  73 0016 5868     		ldr	r0, [r3, #4]
  74              	.LVL3:
  75              		.loc 1 100 18 view .LVU12
  76 0018 1160     		str	r1, [r2]
  77 001a 53F8081B 		ldr	r1, [r3], #8
  78              		.loc 1 101 3 is_stmt 1 view .LVU13
  79              		.loc 1 101 9 is_stmt 0 view .LVU14
  80 001e 1360     		str	r3, [r2]
  81              		.loc 1 102 3 is_stmt 1 view .LVU15
  82              		.loc 1 102 10 is_stmt 0 view .LVU16
  83 0020 0847     		bx	r1
  84              	.LVL4:
  85              		.loc 1 102 10 view .LVU17
  86              		.cfi_endproc
  87              	.LFE324:
  88              		.size	__ch_delegate_fn1, .-__ch_delegate_fn1
  89              		.align	1
  90 0022 00BFAFF3 		.p2align 4,,15
  90      0080AFF3 
  90      0080AFF3 
  90      0080
  91              		.global	__ch_delegate_fn2
  92              		.syntax unified
  93              		.thumb
  94              		.thumb_func
  95              		.fpu fpv4-sp-d16
  96              		.type	__ch_delegate_fn2, %function
  97              	__ch_delegate_fn2:
  98              	.LVL5:
  99              	.LFB325:
 100              		.loc 1 111 41 is_stmt 1 view -0
 101              		.cfi_startproc
 102              		@ args = 0, pretend = 0, frame = 0
 103              		@ frame_needed = 0, uses_anonymous_args = 0
 104              		@ link register save eliminated.
 105              		.loc 1 112 3 view .LVU19
 106              		.loc 1 112 18 is_stmt 0 view .LVU20
 107 0030 0368     		ldr	r3, [r0]
 108              		.loc 1 111 41 view .LVU21
 109 0032 0246     		mov	r2, r0
 110 0034 30B4     		push	{r4, r5}
ARM GAS  /tmp/ccFWkvbl.s 			page 3


 111              		.cfi_def_cfa_offset 8
 112              		.cfi_offset 4, -8
 113              		.cfi_offset 5, -4
 114              		.loc 1 112 18 view .LVU22
 115 0036 1D1D     		adds	r5, r3, #4
 116              		.loc 1 114 9 view .LVU23
 117 0038 03F10C04 		add	r4, r3, #12
 118              		.loc 1 113 9 view .LVU24
 119 003c 5868     		ldr	r0, [r3, #4]
 120              	.LVL6:
 121              		.loc 1 115 10 view .LVU25
 122 003e 9968     		ldr	r1, [r3, #8]
 123              		.loc 1 112 18 view .LVU26
 124 0040 1560     		str	r5, [r2]
 125 0042 1B68     		ldr	r3, [r3]
 126              		.loc 1 113 3 is_stmt 1 view .LVU27
 127              		.loc 1 114 3 view .LVU28
 128              		.loc 1 114 9 is_stmt 0 view .LVU29
 129 0044 1460     		str	r4, [r2]
 130              		.loc 1 115 3 is_stmt 1 view .LVU30
 131              		.loc 1 116 1 is_stmt 0 view .LVU31
 132 0046 30BC     		pop	{r4, r5}
 133              		.cfi_restore 5
 134              		.cfi_restore 4
 135              		.cfi_def_cfa_offset 0
 136              		.loc 1 115 10 view .LVU32
 137 0048 1847     		bx	r3
 138              	.LVL7:
 139              		.loc 1 115 10 view .LVU33
 140              		.cfi_endproc
 141              	.LFE325:
 142              		.size	__ch_delegate_fn2, .-__ch_delegate_fn2
 143              		.align	1
 144 004a 00BFAFF3 		.p2align 4,,15
 144      0080
 145              		.global	__ch_delegate_fn3
 146              		.syntax unified
 147              		.thumb
 148              		.thumb_func
 149              		.fpu fpv4-sp-d16
 150              		.type	__ch_delegate_fn3, %function
 151              	__ch_delegate_fn3:
 152              	.LVL8:
 153              	.LFB326:
 154              		.loc 1 124 41 is_stmt 1 view -0
 155              		.cfi_startproc
 156              		@ args = 0, pretend = 0, frame = 0
 157              		@ frame_needed = 0, uses_anonymous_args = 0
 158              		@ link register save eliminated.
 159              		.loc 1 125 3 view .LVU35
 160              		.loc 1 125 18 is_stmt 0 view .LVU36
 161 0050 0368     		ldr	r3, [r0]
 162              		.loc 1 124 41 view .LVU37
 163 0052 0246     		mov	r2, r0
 164 0054 30B4     		push	{r4, r5}
 165              		.cfi_def_cfa_offset 8
 166              		.cfi_offset 4, -8
ARM GAS  /tmp/ccFWkvbl.s 			page 4


 167              		.cfi_offset 5, -4
 168              		.loc 1 125 18 view .LVU38
 169 0056 1C1D     		adds	r4, r3, #4
 170              		.loc 1 128 9 view .LVU39
 171 0058 03F11005 		add	r5, r3, #16
 172              		.loc 1 127 9 view .LVU40
 173 005c D3E90101 		ldrd	r0, r1, [r3, #4]
 174              	.LVL9:
 175              		.loc 1 125 18 view .LVU41
 176 0060 1460     		str	r4, [r2]
 177 0062 1C68     		ldr	r4, [r3]
 178              		.loc 1 126 3 is_stmt 1 view .LVU42
 179              		.loc 1 127 3 view .LVU43
 180              		.loc 1 128 3 view .LVU44
 181              		.loc 1 128 9 is_stmt 0 view .LVU45
 182 0064 1560     		str	r5, [r2]
 183              		.loc 1 129 3 is_stmt 1 view .LVU46
 184              		.loc 1 129 10 is_stmt 0 view .LVU47
 185 0066 DA68     		ldr	r2, [r3, #12]
 186              	.LVL10:
 187              		.loc 1 129 10 view .LVU48
 188 0068 2346     		mov	r3, r4
 189              		.loc 1 130 1 view .LVU49
 190 006a 30BC     		pop	{r4, r5}
 191              		.cfi_restore 5
 192              		.cfi_restore 4
 193              		.cfi_def_cfa_offset 0
 194              		.loc 1 129 10 view .LVU50
 195 006c 1847     		bx	r3
 196              	.LVL11:
 197              		.cfi_endproc
 198              	.LFE326:
 199              		.size	__ch_delegate_fn3, .-__ch_delegate_fn3
 200              		.align	1
 201 006e 00BF     		.p2align 4,,15
 202              		.global	__ch_delegate_fn4
 203              		.syntax unified
 204              		.thumb
 205              		.thumb_func
 206              		.fpu fpv4-sp-d16
 207              		.type	__ch_delegate_fn4, %function
 208              	__ch_delegate_fn4:
 209              	.LVL12:
 210              	.LFB327:
 211              		.loc 1 138 41 is_stmt 1 view -0
 212              		.cfi_startproc
 213              		@ args = 0, pretend = 0, frame = 0
 214              		@ frame_needed = 0, uses_anonymous_args = 0
 215              		@ link register save eliminated.
 216              		.loc 1 139 3 view .LVU52
 217              		.loc 1 139 18 is_stmt 0 view .LVU53
 218 0070 0368     		ldr	r3, [r0]
 219              		.loc 1 138 41 view .LVU54
 220 0072 70B4     		push	{r4, r5, r6}
 221              		.cfi_def_cfa_offset 12
 222              		.cfi_offset 4, -12
 223              		.cfi_offset 5, -8
ARM GAS  /tmp/ccFWkvbl.s 			page 5


 224              		.cfi_offset 6, -4
 225              		.loc 1 138 41 view .LVU55
 226 0074 0446     		mov	r4, r0
 227              		.loc 1 139 18 view .LVU56
 228 0076 1D1D     		adds	r5, r3, #4
 229              		.loc 1 143 9 view .LVU57
 230 0078 03F11406 		add	r6, r3, #20
 231              		.loc 1 142 9 view .LVU58
 232 007c DA68     		ldr	r2, [r3, #12]
 233              		.loc 1 141 9 view .LVU59
 234 007e D3E90101 		ldrd	r0, r1, [r3, #4]
 235              	.LVL13:
 236              		.loc 1 139 18 view .LVU60
 237 0082 2560     		str	r5, [r4]
 238 0084 1D68     		ldr	r5, [r3]
 239              		.loc 1 140 3 is_stmt 1 view .LVU61
 240              		.loc 1 141 3 view .LVU62
 241              		.loc 1 142 3 view .LVU63
 242              		.loc 1 143 3 view .LVU64
 243              		.loc 1 143 9 is_stmt 0 view .LVU65
 244 0086 2660     		str	r6, [r4]
 245              		.loc 1 144 3 is_stmt 1 view .LVU66
 246              		.loc 1 144 10 is_stmt 0 view .LVU67
 247 0088 AC46     		mov	ip, r5
 248 008a 1B69     		ldr	r3, [r3, #16]
 249              		.loc 1 145 1 view .LVU68
 250 008c 70BC     		pop	{r4, r5, r6}
 251              		.cfi_restore 6
 252              		.cfi_restore 5
 253              		.cfi_restore 4
 254              		.cfi_def_cfa_offset 0
 255              	.LVL14:
 256              		.loc 1 144 10 view .LVU69
 257 008e 6047     		bx	ip
 258              	.LVL15:
 259              		.cfi_endproc
 260              	.LFE327:
 261              		.size	__ch_delegate_fn4, .-__ch_delegate_fn4
 262              		.align	1
 263              		.p2align 4,,15
 264              		.global	chDelegateCallVeneer
 265              		.syntax unified
 266              		.thumb
 267              		.thumb_func
 268              		.fpu fpv4-sp-d16
 269              		.type	chDelegateCallVeneer, %function
 270              	chDelegateCallVeneer:
 271              	.LVL16:
 272              	.LFB328:
 273              		.loc 1 158 73 is_stmt 1 view -0
 274              		.cfi_startproc
 275              		@ args = 4, pretend = 12, frame = 16
 276              		@ frame_needed = 0, uses_anonymous_args = 1
 277              		.loc 1 159 3 view .LVU71
 278              		.loc 1 160 3 view .LVU72
 279              		.loc 1 161 3 view .LVU73
 280              		.loc 1 163 3 view .LVU74
ARM GAS  /tmp/ccFWkvbl.s 			page 6


 281              		.loc 1 158 73 is_stmt 0 view .LVU75
 282 0090 0EB4     		push	{r1, r2, r3}
 283              		.cfi_def_cfa_offset 12
 284              		.cfi_offset 1, -12
 285              		.cfi_offset 2, -8
 286              		.cfi_offset 3, -4
 287 0092 10B5     		push	{r4, lr}
 288              		.cfi_def_cfa_offset 20
 289              		.cfi_offset 4, -20
 290              		.cfi_offset 14, -16
 291 0094 85B0     		sub	sp, sp, #20
 292              		.cfi_def_cfa_offset 40
 293              		.loc 1 158 73 view .LVU76
 294 0096 07AB     		add	r3, sp, #28
 295              		.loc 1 167 13 view .LVU77
 296 0098 01AC     		add	r4, sp, #4
 297              		.loc 1 172 9 view .LVU78
 298 009a 02A9     		add	r1, sp, #8
 299              		.loc 1 158 73 view .LVU79
 300 009c 53F8042B 		ldr	r2, [r3], #4
 301              		.loc 1 167 13 view .LVU80
 302 00a0 0394     		str	r4, [sp, #12]
 303              		.loc 1 166 13 view .LVU81
 304 00a2 CDE90132 		strd	r3, r2, [sp, #4]
 305              		.loc 1 167 3 is_stmt 1 view .LVU82
 306              		.loc 1 168 3 view .LVU83
 307              		.loc 1 172 3 view .LVU84
 308              		.loc 1 172 9 is_stmt 0 view .LVU85
 309 00a6 FFF7FEFF 		bl	chMsgSend
 310              	.LVL17:
 311              		.loc 1 174 3 is_stmt 1 view .LVU86
 312              		.loc 1 176 3 view .LVU87
 313              		.loc 1 177 1 is_stmt 0 view .LVU88
 314 00aa 05B0     		add	sp, sp, #20
 315              		.cfi_def_cfa_offset 20
 316              		@ sp needed
 317 00ac BDE81040 		pop	{r4, lr}
 318              		.cfi_restore 14
 319              		.cfi_restore 4
 320              		.cfi_def_cfa_offset 12
 321 00b0 03B0     		add	sp, sp, #12
 322              		.cfi_restore 3
 323              		.cfi_restore 2
 324              		.cfi_restore 1
 325              		.cfi_def_cfa_offset 0
 326 00b2 7047     		bx	lr
 327              		.cfi_endproc
 328              	.LFE328:
 329              		.size	chDelegateCallVeneer, .-chDelegateCallVeneer
 330              		.align	1
 331 00b4 AFF30080 		.p2align 4,,15
 331      AFF30080 
 331      AFF30080 
 332              		.global	chDelegateDispatch
 333              		.syntax unified
 334              		.thumb
 335              		.thumb_func
ARM GAS  /tmp/ccFWkvbl.s 			page 7


 336              		.fpu fpv4-sp-d16
 337              		.type	chDelegateDispatch, %function
 338              	chDelegateDispatch:
 339              	.LFB329:
 340              		.loc 1 190 31 is_stmt 1 view -0
 341              		.cfi_startproc
 342              		@ args = 0, pretend = 0, frame = 0
 343              		@ frame_needed = 0, uses_anonymous_args = 0
 344              		.loc 1 191 3 view .LVU90
 345              		.loc 1 192 3 view .LVU91
 346              		.loc 1 193 3 view .LVU92
 347              		.loc 1 195 3 view .LVU93
 348              	.LBB60:
 349              	.LBI60:
 350              		.file 2 "../../../external/ChibiOS/os/rt/include/chmsg.h"
 351              		.loc 2 89 25 view .LVU94
 352              	.LBB61:
 353              		.loc 2 90 3 view .LVU95
 354              		.loc 2 92 3 view .LVU96
 355              	.LBB62:
 356              	.LBI62:
 357              		.file 3 "../../../external/ChibiOS/os/rt/include/chsys.h"
 358              		.loc 3 353 20 view .LVU97
 359              	.LBE62:
 360              	.LBE61:
 361              	.LBE60:
 362              		.loc 3 355 3 view .LVU98
 363              	.LBB91:
 364              	.LBB86:
 365              	.LBB70:
 366              	.LBB63:
 367              	.LBI63:
 368              		.file 4 "../../../external/ChibiOS/os/common/ports/ARMCMx/chcore_v7m.h"
 369              		.loc 4 669 27 view .LVU99
 370              	.LBE63:
 371              	.LBE70:
 372              	.LBE86:
 373              	.LBE91:
 374              		.loc 4 677 3 view .LVU100
 375              	.LVL18:
 376              	.LBB92:
 377              	.LBB87:
 378              	.LBB71:
 379              	.LBB68:
 380              	.LBB64:
 381              	.LBI64:
 382              		.file 5 "../../../external/ChibiOS/os/common/ext/ARM/CMSIS/Core/Include/cmsis_gcc.h"
 383              		.loc 5 491 27 view .LVU101
 384              	.LBB65:
 385              		.loc 5 493 3 view .LVU102
 386              	.LBE65:
 387              	.LBE64:
 388              	.LBE68:
 389              	.LBE71:
 390              	.LBE87:
 391              	.LBE92:
 392              		.loc 1 190 31 is_stmt 0 view .LVU103
ARM GAS  /tmp/ccFWkvbl.s 			page 8


 393 00c0 10B5     		push	{r4, lr}
 394              		.cfi_def_cfa_offset 8
 395              		.cfi_offset 4, -8
 396              		.cfi_offset 14, -4
 397              	.LBB93:
 398              	.LBB88:
 399              	.LBB72:
 400              	.LBB69:
 401              	.LBB67:
 402              	.LBB66:
 403              		.loc 5 493 3 view .LVU104
 404 00c2 2023     		movs	r3, #32
 405              		.syntax unified
 406              	@ 493 "../../../external/ChibiOS/os/common/ext/ARM/CMSIS/Core/Include/cmsis_gcc.h" 1
 407 00c4 83F31188 		MSR basepri, r3
 408              	@ 0 "" 2
 409              	.LVL19:
 410              		.loc 5 493 3 view .LVU105
 411              		.thumb
 412              		.syntax unified
 413              	.LBE66:
 414              	.LBE67:
 415              	.LBE69:
 416              	.LBE72:
 417              	.LBE88:
 418              	.LBE93:
 419              		.loc 3 356 34 is_stmt 1 view .LVU106
 420              		.loc 3 357 20 view .LVU107
 421              	.LBB94:
 422              	.LBB89:
 423              		.loc 2 93 3 view .LVU108
 424              		.loc 2 93 8 is_stmt 0 view .LVU109
 425 00c8 FFF7FEFF 		bl	chMsgWaitS
 426              	.LVL20:
 427              	.LBB73:
 428              	.LBB74:
 429              	.LBB75:
 430              	.LBB76:
 431              	.LBB77:
 432              		.loc 5 493 3 view .LVU110
 433 00cc 0023     		movs	r3, #0
 434              	.LBE77:
 435              	.LBE76:
 436              	.LBE75:
 437              	.LBE74:
 438              	.LBE73:
 439              		.loc 2 93 8 view .LVU111
 440 00ce 0446     		mov	r4, r0
 441              	.LVL21:
 442              		.loc 2 94 3 is_stmt 1 view .LVU112
 443              	.LBB84:
 444              	.LBI73:
 445              		.loc 3 365 20 view .LVU113
 446              	.LBB82:
 447              		.loc 3 367 22 view .LVU114
 448              		.loc 3 368 33 view .LVU115
 449              		.loc 3 374 3 view .LVU116
ARM GAS  /tmp/ccFWkvbl.s 			page 9


 450              		.loc 3 374 3 view .LVU117
 451              		.loc 3 378 3 view .LVU118
 452              	.LBB80:
 453              	.LBI75:
 454              		.loc 4 693 27 view .LVU119
 455              	.LBE80:
 456              	.LBE82:
 457              	.LBE84:
 458              	.LBE89:
 459              	.LBE94:
 460              		.loc 4 696 3 view .LVU120
 461              	.LBB95:
 462              	.LBB90:
 463              	.LBB85:
 464              	.LBB83:
 465              	.LBB81:
 466              	.LBB79:
 467              	.LBI76:
 468              		.loc 5 491 27 view .LVU121
 469              	.LBB78:
 470              		.loc 5 493 3 view .LVU122
 471              		.syntax unified
 472              	@ 493 "../../../external/ChibiOS/os/common/ext/ARM/CMSIS/Core/Include/cmsis_gcc.h" 1
 473 00d0 83F31188 		MSR basepri, r3
 474              	@ 0 "" 2
 475              	.LVL22:
 476              		.loc 5 493 3 is_stmt 0 view .LVU123
 477              		.thumb
 478              		.syntax unified
 479              	.LBE78:
 480              	.LBE79:
 481              	.LBE81:
 482              	.LBE83:
 483              	.LBE85:
 484              		.loc 2 96 3 is_stmt 1 view .LVU124
 485              		.loc 2 96 3 is_stmt 0 view .LVU125
 486              	.LBE90:
 487              	.LBE95:
 488              		.loc 1 196 3 is_stmt 1 view .LVU126
 489              		.loc 2 186 3 view .LVU127
 490              		.loc 2 186 3 view .LVU128
 491              		.loc 2 188 3 view .LVU129
 492              		.loc 1 196 7 is_stmt 0 view .LVU130
 493 00d4 436A     		ldr	r3, [r0, #36]
 494              	.LVL23:
 495              		.loc 1 197 3 is_stmt 1 view .LVU131
 496              		.loc 1 197 9 is_stmt 0 view .LVU132
 497 00d6 D3E90020 		ldrd	r2, r0, [r3]
 498              	.LVL24:
 499              		.loc 1 197 9 view .LVU133
 500 00da 9047     		blx	r2
 501              	.LVL25:
 502              		.loc 1 199 3 is_stmt 1 view .LVU134
 503 00dc 0146     		mov	r1, r0
 504 00de 2046     		mov	r0, r4
 505              	.LVL26:
 506              		.loc 1 200 1 is_stmt 0 view .LVU135
ARM GAS  /tmp/ccFWkvbl.s 			page 10


 507 00e0 BDE81040 		pop	{r4, lr}
 508              		.cfi_restore 14
 509              		.cfi_restore 4
 510              		.cfi_def_cfa_offset 0
 511              	.LVL27:
 512              		.loc 1 199 3 view .LVU136
 513 00e4 FFF7FEBF 		b	chMsgRelease
 514              	.LVL28:
 515              		.loc 1 199 3 view .LVU137
 516              		.cfi_endproc
 517              	.LFE329:
 518              		.size	chDelegateDispatch, .-chDelegateDispatch
 519              		.align	1
 520 00e8 AFF30080 		.p2align 4,,15
 520      AFF30080 
 521              		.global	chDelegateDispatchTimeout
 522              		.syntax unified
 523              		.thumb
 524              		.thumb_func
 525              		.fpu fpv4-sp-d16
 526              		.type	chDelegateDispatchTimeout, %function
 527              	chDelegateDispatchTimeout:
 528              	.LVL29:
 529              	.LFB330:
 530              		.loc 1 219 56 is_stmt 1 view -0
 531              		.cfi_startproc
 532              		@ args = 0, pretend = 0, frame = 0
 533              		@ frame_needed = 0, uses_anonymous_args = 0
 534              		.loc 1 220 3 view .LVU139
 535              		.loc 1 221 3 view .LVU140
 536              		.loc 1 222 3 view .LVU141
 537              		.loc 1 224 3 view .LVU142
 538              	.LBB96:
 539              	.LBI96:
 540              		.loc 2 122 25 view .LVU143
 541              	.LBB97:
 542              		.loc 2 123 3 view .LVU144
 543              		.loc 2 125 3 view .LVU145
 544              	.LBB98:
 545              	.LBI98:
 546              		.loc 3 353 20 view .LVU146
 547              	.LBE98:
 548              	.LBE97:
 549              	.LBE96:
 550              		.loc 3 355 3 view .LVU147
 551              	.LBB122:
 552              	.LBB117:
 553              	.LBB106:
 554              	.LBB99:
 555              	.LBI99:
 556              		.loc 4 669 27 view .LVU148
 557              	.LBE99:
 558              	.LBE106:
 559              	.LBE117:
 560              	.LBE122:
 561              		.loc 4 677 3 view .LVU149
 562              	.LBB123:
ARM GAS  /tmp/ccFWkvbl.s 			page 11


 563              	.LBB118:
 564              	.LBB107:
 565              	.LBB104:
 566              	.LBB100:
 567              	.LBI100:
 568              		.loc 5 491 27 view .LVU150
 569              	.LBB101:
 570              		.loc 5 493 3 view .LVU151
 571              	.LBE101:
 572              	.LBE100:
 573              	.LBE104:
 574              	.LBE107:
 575              	.LBE118:
 576              	.LBE123:
 577              		.loc 1 219 56 is_stmt 0 view .LVU152
 578 00f0 38B5     		push	{r3, r4, r5, lr}
 579              		.cfi_def_cfa_offset 16
 580              		.cfi_offset 3, -16
 581              		.cfi_offset 4, -12
 582              		.cfi_offset 5, -8
 583              		.cfi_offset 14, -4
 584              	.LBB124:
 585              	.LBB119:
 586              	.LBB108:
 587              	.LBB105:
 588              	.LBB103:
 589              	.LBB102:
 590              		.loc 5 493 3 view .LVU153
 591 00f2 2023     		movs	r3, #32
 592              		.syntax unified
 593              	@ 493 "../../../external/ChibiOS/os/common/ext/ARM/CMSIS/Core/Include/cmsis_gcc.h" 1
 594 00f4 83F31188 		MSR basepri, r3
 595              	@ 0 "" 2
 596              	.LVL30:
 597              		.loc 5 493 3 view .LVU154
 598              		.thumb
 599              		.syntax unified
 600              	.LBE102:
 601              	.LBE103:
 602              	.LBE105:
 603              	.LBE108:
 604              	.LBE119:
 605              	.LBE124:
 606              		.loc 3 356 34 is_stmt 1 view .LVU155
 607              		.loc 3 357 20 view .LVU156
 608              	.LBB125:
 609              	.LBB120:
 610              		.loc 2 126 3 view .LVU157
 611              		.loc 2 126 8 is_stmt 0 view .LVU158
 612 00f8 FFF7FEFF 		bl	chMsgWaitTimeoutS
 613              	.LVL31:
 614              		.loc 2 127 3 is_stmt 1 view .LVU159
 615              	.LBB109:
 616              	.LBI109:
 617              		.loc 3 365 20 view .LVU160
 618              	.LBB110:
 619              		.loc 3 367 22 view .LVU161
ARM GAS  /tmp/ccFWkvbl.s 			page 12


 620              		.loc 3 368 33 view .LVU162
 621              		.loc 3 374 3 view .LVU163
 622              		.loc 3 374 3 view .LVU164
 623              		.loc 3 378 3 view .LVU165
 624              	.LBB111:
 625              	.LBI111:
 626              		.loc 4 693 27 view .LVU166
 627              	.LBE111:
 628              	.LBE110:
 629              	.LBE109:
 630              	.LBE120:
 631              	.LBE125:
 632              		.loc 4 696 3 view .LVU167
 633              	.LBB126:
 634              	.LBB121:
 635              	.LBB116:
 636              	.LBB115:
 637              	.LBB114:
 638              	.LBB112:
 639              	.LBI112:
 640              		.loc 5 491 27 view .LVU168
 641              	.LBB113:
 642              		.loc 5 493 3 view .LVU169
 643 00fc 0024     		movs	r4, #0
 644              		.syntax unified
 645              	@ 493 "../../../external/ChibiOS/os/common/ext/ARM/CMSIS/Core/Include/cmsis_gcc.h" 1
 646 00fe 84F31188 		MSR basepri, r4
 647              	@ 0 "" 2
 648              	.LVL32:
 649              		.loc 5 493 3 is_stmt 0 view .LVU170
 650              		.thumb
 651              		.syntax unified
 652              	.LBE113:
 653              	.LBE112:
 654              	.LBE114:
 655              	.LBE115:
 656              	.LBE116:
 657              		.loc 2 129 3 is_stmt 1 view .LVU171
 658              		.loc 2 129 3 is_stmt 0 view .LVU172
 659              	.LBE121:
 660              	.LBE126:
 661              		.loc 1 225 3 is_stmt 1 view .LVU173
 662              		.loc 1 225 6 is_stmt 0 view .LVU174
 663 0102 50B1     		cbz	r0, .L16
 664              		.loc 1 229 3 is_stmt 1 view .LVU175
 665              	.LVL33:
 666              		.loc 2 186 3 view .LVU176
 667              		.loc 2 186 3 view .LVU177
 668              		.loc 2 188 3 view .LVU178
 669              		.loc 1 229 7 is_stmt 0 view .LVU179
 670 0104 436A     		ldr	r3, [r0, #36]
 671              	.LVL34:
 672              		.loc 1 230 3 is_stmt 1 view .LVU180
 673 0106 0546     		mov	r5, r0
 674              		.loc 1 230 9 is_stmt 0 view .LVU181
 675 0108 D3E90020 		ldrd	r2, r0, [r3]
 676              	.LVL35:
ARM GAS  /tmp/ccFWkvbl.s 			page 13


 677              		.loc 1 230 9 view .LVU182
 678 010c 9047     		blx	r2
 679              	.LVL36:
 680              		.loc 1 232 3 is_stmt 1 view .LVU183
 681 010e 0146     		mov	r1, r0
 682 0110 2846     		mov	r0, r5
 683              	.LVL37:
 684              		.loc 1 232 3 is_stmt 0 view .LVU184
 685 0112 FFF7FEFF 		bl	chMsgRelease
 686              	.LVL38:
 687              		.loc 1 234 3 is_stmt 1 view .LVU185
 688              		.loc 1 234 10 is_stmt 0 view .LVU186
 689 0116 2046     		mov	r0, r4
 690              		.loc 1 235 1 view .LVU187
 691 0118 38BD     		pop	{r3, r4, r5, pc}
 692              	.LVL39:
 693              	.L16:
 694              		.loc 1 226 12 view .LVU188
 695 011a 4FF0FF30 		mov	r0, #-1
 696              	.LVL40:
 697              		.loc 1 235 1 view .LVU189
 698 011e 38BD     		pop	{r3, r4, r5, pc}
 699              		.cfi_endproc
 700              	.LFE330:
 701              		.size	chDelegateDispatchTimeout, .-chDelegateDispatchTimeout
 702              	.Letext0:
 703              		.file 6 "/home/nicolas/arm/gcc-arm-none-eabi-8-2019-q3-update/lib/gcc/arm-none-eabi/8.3.1/include/
 704              		.file 7 "/home/nicolas/arm/gcc-arm-none-eabi-8-2019-q3-update/arm-none-eabi/include/machine/_defau
 705              		.file 8 "/home/nicolas/arm/gcc-arm-none-eabi-8-2019-q3-update/arm-none-eabi/include/sys/_stdint.h"
 706              		.file 9 "../../../external/ChibiOS/os/common/ports/ARMCMx/compilers/GCC/chtypes.h"
 707              		.file 10 "../../../external/ChibiOS/os/rt/include/chsystypes.h"
 708              		.file 11 "../../../external/ChibiOS/os/rt/include/chschd.h"
 709              		.file 12 "../../../external/ChibiOS/os/rt/include/chtime.h"
 710              		.file 13 "../../../external/ChibiOS/os/common/ext/ARM/CMSIS/Core/Include/core_cm7.h"
 711              		.file 14 "../../../external/ChibiOS/os/common/ext/ST/STM32H7xx/system_stm32h7xx.h"
 712              		.file 15 "../../../external/ChibiOS/os/common/ports/ARMCMx/chcore.h"
 713              		.file 16 "../../../external/ChibiOS/os/rt/include/chtrace.h"
 714              		.file 17 "../../../external/ChibiOS/os/rt/include/chtm.h"
 715              		.file 18 "../../../external/ChibiOS/os/rt/include/chsem.h"
 716              		.file 19 "../../../external/ChibiOS/os/rt/include/chmtx.h"
 717              		.file 20 "../../../external/ChibiOS/os/rt/include/chregistry.h"
 718              		.file 21 "../../../external/ChibiOS/os/oslib/include/chmemcore.h"
 719              		.file 22 "../../../external/ChibiOS/os/oslib/include/chmempools.h"
 720              		.file 23 "/home/nicolas/arm/gcc-arm-none-eabi-8-2019-q3-update/lib/gcc/arm-none-eabi/8.3.1/include
 721              		.file 24 "../../../external/ChibiOS/os/oslib/include/chdelegates.h"
 722              		.file 25 "../../../external/ChibiOS/os/oslib/include/chfactory.h"
 723              		.file 26 "<built-in>"