ARM GAS  /tmp/ccI4Rg6S.s 			page 1


   1              		.cpu cortex-m7
   2              		.eabi_attribute 27, 1
   3              		.eabi_attribute 28, 1
   4              		.eabi_attribute 20, 1
   5              		.eabi_attribute 21, 1
   6              		.eabi_attribute 23, 3
   7              		.eabi_attribute 24, 1
   8              		.eabi_attribute 25, 1
   9              		.eabi_attribute 26, 1
  10              		.eabi_attribute 30, 2
  11              		.eabi_attribute 34, 1
  12              		.eabi_attribute 18, 4
  13              		.file	"chdynamic.c"
  14              		.text
  15              	.Ltext0:
  16              		.cfi_sections	.debug_frame
  17              		.align	1
  18              		.p2align 4,,15
  19              		.global	chThdCreateFromHeap
  20              		.arch armv7e-m
  21              		.syntax unified
  22              		.thumb
  23              		.thumb_func
  24              		.fpu fpv4-sp-d16
  25              		.type	chThdCreateFromHeap, %function
  26              	chThdCreateFromHeap:
  27              	.LVL0:
  28              	.LFB323:
  29              		.file 1 "../../../external/ChibiOS/os/rt/src/chdynamic.c"
  30              		.loc 1 84 54 view -0
  31              		.cfi_startproc
  32              		@ args = 8, pretend = 0, frame = 24
  33              		@ frame_needed = 0, uses_anonymous_args = 0
  34              		.loc 1 85 3 view .LVU1
  35              		.loc 1 86 3 view .LVU2
  36              		.loc 1 88 3 view .LVU3
  37              		.loc 1 84 54 is_stmt 0 view .LVU4
  38 0000 F0B5     		push	{r4, r5, r6, r7, lr}
  39              		.cfi_def_cfa_offset 20
  40              		.cfi_offset 4, -20
  41              		.cfi_offset 5, -16
  42              		.cfi_offset 6, -12
  43              		.cfi_offset 7, -8
  44              		.cfi_offset 14, -4
  45 0002 1746     		mov	r7, r2
  46 0004 87B0     		sub	sp, sp, #28
  47              		.cfi_def_cfa_offset 48
  48              		.loc 1 88 9 view .LVU5
  49 0006 0822     		movs	r2, #8
  50              	.LVL1:
  51              		.loc 1 84 54 view .LVU6
  52 0008 1E46     		mov	r6, r3
  53 000a 0D46     		mov	r5, r1
  54              		.loc 1 88 9 view .LVU7
  55 000c FFF7FEFF 		bl	chHeapAllocAligned
  56              	.LVL2:
  57              		.loc 1 89 3 is_stmt 1 view .LVU8
ARM GAS  /tmp/ccI4Rg6S.s 			page 2


  58              		.loc 1 89 6 is_stmt 0 view .LVU9
  59 0010 0446     		mov	r4, r0
  60 0012 C0B1     		cbz	r0, .L1
  61              		.loc 1 93 3 is_stmt 1 view .LVU10
  62              		.loc 1 93 23 is_stmt 0 view .LVU11
  63 0014 0C9A     		ldr	r2, [sp, #48]
  64              		.loc 1 96 5 view .LVU12
  65 0016 0544     		add	r5, r5, r0
  66              	.LVL3:
  67              	.LBB34:
  68              	.LBB35:
  69              	.LBB36:
  70              	.LBB37:
  71              		.file 2 "../../../external/ChibiOS/os/common/ext/ARM/CMSIS/Core/Include/cmsis_gcc.h"
  72              		.loc 2 493 3 view .LVU13
  73 0018 2023     		movs	r3, #32
  74              	.LBE37:
  75              	.LBE36:
  76              	.LBE35:
  77              	.LBE34:
  78              		.loc 1 93 23 view .LVU14
  79 001a 0492     		str	r2, [sp, #16]
  80 001c 0D9A     		ldr	r2, [sp, #52]
  81 001e CDE90070 		strd	r7, r0, [sp]
  82 0022 CDE90256 		strd	r5, r6, [sp, #8]
  83 0026 0592     		str	r2, [sp, #20]
  84              		.loc 1 108 3 is_stmt 1 view .LVU15
  85              	.LBB42:
  86              	.LBI34:
  87              		.file 3 "../../../external/ChibiOS/os/rt/include/chsys.h"
  88              		.loc 3 353 20 view .LVU16
  89              	.LBE42:
  90              		.loc 3 355 3 view .LVU17
  91              	.LBB43:
  92              	.LBB40:
  93              	.LBI35:
  94              		.file 4 "../../../external/ChibiOS/os/common/ports/ARMCMx/chcore_v7m.h"
  95              		.loc 4 669 27 view .LVU18
  96              	.LBE40:
  97              	.LBE43:
  98              		.loc 4 677 3 view .LVU19
  99              	.LVL4:
 100              	.LBB44:
 101              	.LBB41:
 102              	.LBB39:
 103              	.LBI36:
 104              		.loc 2 491 27 view .LVU20
 105              	.LBB38:
 106              		.loc 2 493 3 view .LVU21
 107              		.syntax unified
 108              	@ 493 "../../../external/ChibiOS/os/common/ext/ARM/CMSIS/Core/Include/cmsis_gcc.h" 1
 109 0028 83F31188 		MSR basepri, r3
 110              	@ 0 "" 2
 111              	.LVL5:
 112              		.loc 2 493 3 is_stmt 0 view .LVU22
 113              		.thumb
 114              		.syntax unified
ARM GAS  /tmp/ccI4Rg6S.s 			page 3


 115              	.LBE38:
 116              	.LBE39:
 117              	.LBE41:
 118              	.LBE44:
 119              		.loc 3 356 34 is_stmt 1 view .LVU23
 120              		.loc 3 357 20 view .LVU24
 121              		.loc 1 109 3 view .LVU25
 122              		.loc 1 109 8 is_stmt 0 view .LVU26
 123 002c 6846     		mov	r0, sp
 124              	.LVL6:
 125              		.loc 1 109 8 view .LVU27
 126 002e FFF7FEFF 		bl	chThdCreateSuspendedI
 127              	.LVL7:
 128              		.loc 1 110 13 view .LVU28
 129 0032 0123     		movs	r3, #1
 130              		.loc 1 111 3 view .LVU29
 131 0034 0021     		movs	r1, #0
 132              		.loc 1 109 8 view .LVU30
 133 0036 0446     		mov	r4, r0
 134              	.LVL8:
 135              		.loc 1 110 3 is_stmt 1 view .LVU31
 136              		.loc 1 110 13 is_stmt 0 view .LVU32
 137 0038 80F82130 		strb	r3, [r0, #33]
 138              		.loc 1 111 3 is_stmt 1 view .LVU33
 139 003c FFF7FEFF 		bl	chSchWakeupS
 140              	.LVL9:
 141              		.loc 1 112 3 view .LVU34
 142              	.LBB45:
 143              	.LBI45:
 144              		.loc 3 365 20 view .LVU35
 145              	.LBB46:
 146              		.loc 3 367 22 view .LVU36
 147              		.loc 3 368 33 view .LVU37
 148              		.loc 3 374 3 view .LVU38
 149              		.loc 3 374 3 view .LVU39
 150              		.loc 3 378 3 view .LVU40
 151              	.LBB47:
 152              	.LBI47:
 153              		.loc 4 693 27 view .LVU41
 154              	.LBE47:
 155              	.LBE46:
 156              	.LBE45:
 157              		.loc 4 696 3 view .LVU42
 158              	.LBB52:
 159              	.LBB51:
 160              	.LBB50:
 161              	.LBB48:
 162              	.LBI48:
 163              		.loc 2 491 27 view .LVU43
 164              	.LBB49:
 165              		.loc 2 493 3 view .LVU44
 166 0040 0023     		movs	r3, #0
 167              		.syntax unified
 168              	@ 493 "../../../external/ChibiOS/os/common/ext/ARM/CMSIS/Core/Include/cmsis_gcc.h" 1
 169 0042 83F31188 		MSR basepri, r3
 170              	@ 0 "" 2
 171              	.LVL10:
ARM GAS  /tmp/ccI4Rg6S.s 			page 4


 172              		.loc 2 493 3 is_stmt 0 view .LVU45
 173              		.thumb
 174              		.syntax unified
 175              	.LBE49:
 176              	.LBE48:
 177              	.LBE50:
 178              	.LBE51:
 179              	.LBE52:
 180              		.loc 1 114 3 is_stmt 1 view .LVU46
 181              	.L1:
 182              		.loc 1 115 1 is_stmt 0 view .LVU47
 183 0046 2046     		mov	r0, r4
 184 0048 07B0     		add	sp, sp, #28
 185              		.cfi_def_cfa_offset 20
 186              		@ sp needed
 187 004a F0BD     		pop	{r4, r5, r6, r7, pc}
 188              		.loc 1 115 1 view .LVU48
 189              		.cfi_endproc
 190              	.LFE323:
 191              		.size	chThdCreateFromHeap, .-chThdCreateFromHeap
 192              		.align	1
 193 004c AFF30080 		.p2align 4,,15
 194              		.global	chThdCreateFromMemoryPool
 195              		.syntax unified
 196              		.thumb
 197              		.thumb_func
 198              		.fpu fpv4-sp-d16
 199              		.type	chThdCreateFromMemoryPool, %function
 200              	chThdCreateFromMemoryPool:
 201              	.LVL11:
 202              	.LFB324:
 203              		.loc 1 146 74 is_stmt 1 view -0
 204              		.cfi_startproc
 205              		@ args = 4, pretend = 0, frame = 24
 206              		@ frame_needed = 0, uses_anonymous_args = 0
 207              		.loc 1 147 3 view .LVU50
 208              		.loc 1 148 3 view .LVU51
 209              		.loc 1 150 3 view .LVU52
 210              		.loc 1 150 3 view .LVU53
 211              		.loc 1 152 3 view .LVU54
 212              		.loc 1 146 74 is_stmt 0 view .LVU55
 213 0050 2DE9F041 		push	{r4, r5, r6, r7, r8, lr}
 214              		.cfi_def_cfa_offset 24
 215              		.cfi_offset 4, -24
 216              		.cfi_offset 5, -20
 217              		.cfi_offset 6, -16
 218              		.cfi_offset 7, -12
 219              		.cfi_offset 8, -8
 220              		.cfi_offset 14, -4
 221 0054 86B0     		sub	sp, sp, #24
 222              		.cfi_def_cfa_offset 48
 223              		.loc 1 146 74 view .LVU56
 224 0056 8846     		mov	r8, r1
 225 0058 1746     		mov	r7, r2
 226 005a 1E46     		mov	r6, r3
 227 005c 0546     		mov	r5, r0
 228              		.loc 1 152 9 view .LVU57
ARM GAS  /tmp/ccI4Rg6S.s 			page 5


 229 005e FFF7FEFF 		bl	chPoolAlloc
 230              	.LVL12:
 231              		.loc 1 153 3 is_stmt 1 view .LVU58
 232              		.loc 1 153 6 is_stmt 0 view .LVU59
 233 0062 0446     		mov	r4, r0
 234 0064 D0B1     		cbz	r0, .L8
 235              		.loc 1 157 3 is_stmt 1 view .LVU60
 236              		.loc 1 160 5 is_stmt 0 view .LVU61
 237 0066 6868     		ldr	r0, [r5, #4]
 238              	.LVL13:
 239              	.LBB53:
 240              	.LBB54:
 241              	.LBB55:
 242              	.LBB56:
 243              		.loc 2 493 3 view .LVU62
 244 0068 2023     		movs	r3, #32
 245              	.LBE56:
 246              	.LBE55:
 247              	.LBE54:
 248              	.LBE53:
 249              		.loc 1 157 23 view .LVU63
 250 006a 0C9A     		ldr	r2, [sp, #48]
 251              		.loc 1 160 5 view .LVU64
 252 006c 2044     		add	r0, r0, r4
 253              		.loc 1 157 23 view .LVU65
 254 006e CDF80080 		str	r8, [sp]
 255 0072 0194     		str	r4, [sp, #4]
 256 0074 0592     		str	r2, [sp, #20]
 257              		.loc 1 172 3 is_stmt 1 view .LVU66
 258              	.LBB64:
 259              	.LBI53:
 260              		.loc 3 353 20 view .LVU67
 261              	.LBE64:
 262              		.loc 3 355 3 view .LVU68
 263              	.LBB65:
 264              	.LBB61:
 265              	.LBI54:
 266              		.loc 4 669 27 view .LVU69
 267              	.LBE61:
 268              	.LBE65:
 269              		.loc 4 677 3 view .LVU70
 270              	.LVL14:
 271              	.LBB66:
 272              	.LBB62:
 273              	.LBB59:
 274              	.LBI55:
 275              		.loc 2 491 27 view .LVU71
 276              	.LBB57:
 277              		.loc 2 493 3 view .LVU72
 278              	.LBE57:
 279              	.LBE59:
 280              	.LBE62:
 281              	.LBE66:
 282              		.loc 1 157 23 is_stmt 0 view .LVU73
 283 0076 0290     		str	r0, [sp, #8]
 284 0078 CDE90376 		strd	r7, r6, [sp, #12]
 285              	.LBB67:
ARM GAS  /tmp/ccI4Rg6S.s 			page 6


 286              	.LBB63:
 287              	.LBB60:
 288              	.LBB58:
 289              		.loc 2 493 3 view .LVU74
 290              		.syntax unified
 291              	@ 493 "../../../external/ChibiOS/os/common/ext/ARM/CMSIS/Core/Include/cmsis_gcc.h" 1
 292 007c 83F31188 		MSR basepri, r3
 293              	@ 0 "" 2
 294              	.LVL15:
 295              		.loc 2 493 3 view .LVU75
 296              		.thumb
 297              		.syntax unified
 298              	.LBE58:
 299              	.LBE60:
 300              	.LBE63:
 301              	.LBE67:
 302              		.loc 3 356 34 is_stmt 1 view .LVU76
 303              		.loc 3 357 20 view .LVU77
 304              		.loc 1 173 3 view .LVU78
 305              		.loc 1 173 8 is_stmt 0 view .LVU79
 306 0080 6846     		mov	r0, sp
 307 0082 FFF7FEFF 		bl	chThdCreateSuspendedI
 308              	.LVL16:
 309              		.loc 1 174 13 view .LVU80
 310 0086 0223     		movs	r3, #2
 311              		.loc 1 176 3 view .LVU81
 312 0088 0021     		movs	r1, #0
 313              		.loc 1 175 13 view .LVU82
 314 008a 0564     		str	r5, [r0, #64]
 315              		.loc 1 174 13 view .LVU83
 316 008c 80F82130 		strb	r3, [r0, #33]
 317              		.loc 1 173 8 view .LVU84
 318 0090 0446     		mov	r4, r0
 319              	.LVL17:
 320              		.loc 1 174 3 is_stmt 1 view .LVU85
 321              		.loc 1 175 3 view .LVU86
 322              		.loc 1 176 3 view .LVU87
 323 0092 FFF7FEFF 		bl	chSchWakeupS
 324              	.LVL18:
 325              		.loc 1 177 3 view .LVU88
 326              	.LBB68:
 327              	.LBI68:
 328              		.loc 3 365 20 view .LVU89
 329              	.LBB69:
 330              		.loc 3 367 22 view .LVU90
 331              		.loc 3 368 33 view .LVU91
 332              		.loc 3 374 3 view .LVU92
 333              		.loc 3 374 3 view .LVU93
 334              		.loc 3 378 3 view .LVU94
 335              	.LBB70:
 336              	.LBI70:
 337              		.loc 4 693 27 view .LVU95
 338              	.LBE70:
 339              	.LBE69:
 340              	.LBE68:
 341              		.loc 4 696 3 view .LVU96
 342              	.LBB75:
ARM GAS  /tmp/ccI4Rg6S.s 			page 7


 343              	.LBB74:
 344              	.LBB73:
 345              	.LBB71:
 346              	.LBI71:
 347              		.loc 2 491 27 view .LVU97
 348              	.LBB72:
 349              		.loc 2 493 3 view .LVU98
 350 0096 0023     		movs	r3, #0
 351              		.syntax unified
 352              	@ 493 "../../../external/ChibiOS/os/common/ext/ARM/CMSIS/Core/Include/cmsis_gcc.h" 1
 353 0098 83F31188 		MSR basepri, r3
 354              	@ 0 "" 2
 355              	.LVL19:
 356              		.loc 2 493 3 is_stmt 0 view .LVU99
 357              		.thumb
 358              		.syntax unified
 359              	.LBE72:
 360              	.LBE71:
 361              	.LBE73:
 362              	.LBE74:
 363              	.LBE75:
 364              		.loc 1 179 3 is_stmt 1 view .LVU100
 365              	.L8:
 366              		.loc 1 180 1 is_stmt 0 view .LVU101
 367 009c 2046     		mov	r0, r4
 368 009e 06B0     		add	sp, sp, #24
 369              		.cfi_def_cfa_offset 24
 370              		@ sp needed
 371 00a0 BDE8F081 		pop	{r4, r5, r6, r7, r8, pc}
 372              		.loc 1 180 1 view .LVU102
 373              		.cfi_endproc
 374              	.LFE324:
 375              		.size	chThdCreateFromMemoryPool, .-chThdCreateFromMemoryPool
 376              	.Letext0:
 377              		.file 5 "/home/nicolas/arm/gcc-arm-none-eabi-8-2019-q3-update/lib/gcc/arm-none-eabi/8.3.1/include/
 378              		.file 6 "/home/nicolas/arm/gcc-arm-none-eabi-8-2019-q3-update/arm-none-eabi/include/machine/_defau
 379              		.file 7 "/home/nicolas/arm/gcc-arm-none-eabi-8-2019-q3-update/arm-none-eabi/include/sys/_stdint.h"
 380              		.file 8 "../../../external/ChibiOS/os/common/ports/ARMCMx/compilers/GCC/chtypes.h"
 381              		.file 9 "../../../external/ChibiOS/os/rt/include/chsystypes.h"
 382              		.file 10 "../../../external/ChibiOS/os/rt/include/chschd.h"
 383              		.file 11 "../../../external/ChibiOS/os/rt/include/chtime.h"
 384              		.file 12 "../../../external/ChibiOS/os/common/ext/ARM/CMSIS/Core/Include/core_cm7.h"
 385              		.file 13 "../../../external/ChibiOS/os/common/ext/ST/STM32H7xx/system_stm32h7xx.h"
 386              		.file 14 "../../../external/ChibiOS/os/common/ports/ARMCMx/chcore.h"
 387              		.file 15 "../../../external/ChibiOS/os/rt/include/chtrace.h"
 388              		.file 16 "../../../external/ChibiOS/os/rt/include/chtm.h"
 389              		.file 17 "../../../external/ChibiOS/os/rt/include/chsem.h"
 390              		.file 18 "../../../external/ChibiOS/os/rt/include/chmtx.h"
 391              		.file 19 "../../../external/ChibiOS/os/rt/include/chthreads.h"
 392              		.file 20 "../../../external/ChibiOS/os/rt/include/chregistry.h"
 393              		.file 21 "../../../external/ChibiOS/os/oslib/include/chmemcore.h"
 394              		.file 22 "../../../external/ChibiOS/os/oslib/include/chmemheaps.h"
 395              		.file 23 "../../../external/ChibiOS/os/oslib/include/chmempools.h"
 396              		.file 24 "../../../external/ChibiOS/os/oslib/include/chfactory.h"