ARM GAS  /tmp/ccI4Rg6S.s 			page 1


   1              		.cpu cortex-m7
   2              		.eabi_attribute 27, 1
   3              		.eabi_attribute 28, 1
   4              		.eabi_attribute 20, 1
   5              		.eabi_attribute 21, 1
   6              		.eabi_attribute 23, 3
   7              		.eabi_attribute 24, 1
   8              		.eabi_attribute 25, 1
   9              		.eabi_attribute 26, 1
  10              		.eabi_attribute 30, 2
  11              		.eabi_attribute 34, 1
  12              		.eabi_attribute 18, 4
  13              		.file	"chdynamic.c"
  14              		.text
  15              	.Ltext0:
  16              		.cfi_sections	.debug_frame
  17              		.align	1
  18              		.p2align 4,,15
  19              		.global	chThdCreateFromHeap
  20              		.arch armv7e-m
  21              		.syntax unified
  22              		.thumb
  23              		.thumb_func
  24              		.fpu fpv4-sp-d16
  25              		.type	chThdCreateFromHeap, %function
  26              	chThdCreateFromHeap:
  27              	.LVL0:
  28              	.LFB323:
  29              		.file 1 "../../../external/ChibiOS/os/rt/src/chdynamic.c"
  30              		.loc 1 84 54 view -0
  31              		.cfi_startproc
  32              		@ args = 8, pretend = 0, frame = 24
  33              		@ frame_needed = 0, uses_anonymous_args = 0
  34              		.loc 1 85 3 view .LVU1
  35              		.loc 1 86 3 view .LVU2
  36              		.loc 1 88 3 view .LVU3
  37              		.loc 1 84 54 is_stmt 0 view .LVU4
  38 0000 F0B5     		push	{r4, r5, r6, r7, lr}
  39              		.cfi_def_cfa_offset 20
  40              		.cfi_offset 4, -20
  41              		.cfi_offset 5, -16
  42              		.cfi_offset 6, -12
  43              		.cfi_offset 7, -8
  44              		.cfi_offset 14, -4
  45 0002 1746     		mov	r7, r2
  46 0004 87B0     		sub	sp, sp, #28
  47              		.cfi_def_cfa_offset 48
  48              		.loc 1 88 9 view .LVU5
  49 0006 0822     		movs	r2, #8
  50              	.LVL1:
  51              		.loc 1 84 54 view .LVU6
  52 0008 1E46     		mov	r6, r3
  53 000a 0D46     		mov	r5, r1
  54              		.loc 1 88 9 view .LVU7
  55 000c FFF7FEFF 		bl	chHeapAllocAligned
  56              	.LVL2:
  57              		.loc 1 89 3 is_stmt 1 view .LVU8
ARM GAS  /tmp/ccI4Rg6S.s 			page 2


  58              		.loc 1 89 6 is_stmt 0 view .LVU9
  59 0010 0446     		mov	r4, r0
  60 0012 C0B1     		cbz	r0, .L1
  61              		.loc 1 93 3 is_stmt 1 view .LVU10
  62              		.loc 1 93 23 is_stmt 0 view .LVU11
  63 0014 0C9A     		ldr	r2, [sp, #48]
  64              		.loc 1 96 5 view .LVU12
  65 0016 0544     		add	r5, r5, r0
  66              	.LVL3:
  67              	.LBB34:
  68              	.LBB35:
  69              	.LBB36:
  70              	.LBB37:
  71              		.file 2 "../../../external/ChibiOS/os/common/ext/ARM/CMSIS/Core/Include/cmsis_gcc.h"
  72              		.loc 2 493 3 view .LVU13
  73 0018 2023     		movs	r3, #32
  74              	.LBE37:
  75              	.LBE36:
  76              	.LBE35:
  77              	.LBE34:
  78              		.loc 1 93 23 view .LVU14
  79 001a 0492     		str	r2, [sp, #16]
  80 001c 0D9A     		ldr	r2, [sp, #52]
  81 001e CDE90070 		strd	r7, r0, [sp]
  82 0022 CDE90256 		strd	r5, r6, [sp, #8]
  83 0026 0592     		str	r2, [sp, #20]
  84              		.loc 1 108 3 is_stmt 1 view .LVU15
  85              	.LBB42:
  86              	.LBI34:
  87              		.file 3 "../../../external/ChibiOS/os/rt/include/chsys.h"
  88              		.loc 3 353 20 view .LVU16
  89              	.LBE42:
  90              		.loc 3 355 3 view .LVU17
  91              	.LBB43:
  92              	.LBB40:
  93              	.LBI35:
  94              		.file 4 "../../../external/ChibiOS/os/common/ports/ARMCMx/chcore_v7m.h"
  95              		.loc 4 669 27 view .LVU18
  96              	.LBE40:
  97              	.LBE43:
  98              		.loc 4 677 3 view .LVU19
  99              	.LVL4:
 100              	.LBB44:
 101              	.LBB41:
 102              	.LBB39:
 103              	.LBI36:
 104              		.loc 2 491 27 view .LVU20
 105              	.LBB38:
 106              		.loc 2 493 3 view .LVU21
 107              		.syntax unified
 108              	@ 493 "../../../external/ChibiOS/os/common/ext/ARM/CMSIS/Core/Include/cmsis_gcc.h" 1
 109 0028 83F31188 		MSR basepri, r3
 110              	@ 0 "" 2
 111              	.LVL5:
 112              		.loc 2 493 3 is_stmt 0 view .LVU22
 113              		.thumb
 114              		.syntax unified
ARM GAS  /tmp/ccI4Rg6S.s 			page 3


 115              	.LBE38:
 116              	.LBE39:
 117              	.LBE41:
 118              	.LBE44:
 119              		.loc 3 356 34 is_stmt 1 view .LVU23
 120              		.loc 3 357 20 view .LVU24
 121              		.loc 1 109 3 view .LVU25
 122              		.loc 1 109 8 is_stmt 0 view .LVU26
 123 002c 6846     		mov	r0, sp
 124              	.LVL6:
 125              		.loc 1 109 8 view .LVU27
 126 002e FFF7FEFF 		bl	chThdCreateSuspendedI
 127              	.LVL7:
 128              		.loc 1 110 13 view .LVU28
 129 0032 0123     		movs	r3, #1
 130              		.loc 1 111 3 view .LVU29
 131 0034 0021     		movs	r1, #0
 132              		.loc 1 109 8 view .LVU30
 133 0036 0446     		mov	r4, r0
 134              	.LVL8:
 135              		.loc 1 110 3 is_stmt 1 view .LVU31
 136              		.loc 1 110 13 is_stmt 0 view .LVU32
 137 0038 80F82130 		strb	r3, [r0, #33]
 138              		.loc 1 111 3 is_stmt 1 view .LVU33
 139 003c FFF7FEFF 		bl	chSchWakeupS
 140              	.LVL9:
 141              		.loc 1 112 3 view .LVU34
 142              	.LBB45:
 143              	.LBI45:
 144              		.loc 3 365 20 view .LVU35
 145              	.LBB46:
 146              		.loc 3 367 22 view .LVU36
 147              		.loc 3 368 33 view .LVU37
 148              		.loc 3 374 3 view .LVU38
 149              		.loc 3 374 3 view .LVU39
 150              		.loc 3 378 3 view .LVU40
 151              	.LBB47:
 152              	.LBI47:
 153              		.loc 4 693 27 view .LVU41
 154              	.LBE47:
 155              	.LBE46:
 156              	.LBE45:
 157              		.loc 4 696 3 view .LVU42
 158              	.LBB52:
 159              	.LBB51:
 160              	.LBB50:
 161              	.LBB48:
 162              	.LBI48:
 163              		.loc 2 491 27 view .LVU43
 164              	.LBB49:
 165              		.loc 2 493 3 view .LVU44
 166 0040 0023     		movs	r3, #0
 167              		.syntax unified
 168              	@ 493 "../../../external/ChibiOS/os/common/ext/ARM/CMSIS/Core/Include/cmsis_gcc.h" 1
 169 0042 83F31188 		MSR basepri, r3
 170              	@ 0 "" 2
 171              	.LVL10:
ARM GAS  /tmp/ccI4Rg6S.s 			page 4


 172              		.loc 2 493 3 is_stmt 0 view .LVU45
 173              		.thumb
 174              		.syntax unified
 175              	.LBE49:
 176              	.LBE48:
 177              	.LBE50:
 178              	.LBE51:
 179              	.LBE52:
 180              		.loc 1 114 3 is_stmt 1 view .LVU46
 181              	.L1:
 182              		.loc 1 115 1 is_stmt 0 view .LVU47
 183 0046 2046     		mov	r0, r4
 184 0048 07B0     		add	sp, sp, #28
 185              		.cfi_def_cfa_offset 20
 186              		@ sp needed
 187 004a F0BD     		pop	{r4, r5, r6, r7, pc}
 188              		.loc 1 115 1 view .LVU48
 189              		.cfi_endproc
 190              	.LFE323:
 191              		.size	chThdCreateFromHeap, .-chThdCreateFromHeap
 192              		.align	1
 193 004c AFF30080 		.p2align 4,,15
 194              		.global	chThdCreateFromMemoryPool
 195              		.syntax unified
 196              		.thumb
 197              		.thumb_func
 198              		.fpu fpv4-sp-d16
 199              		.type	chThdCreateFromMemoryPool, %function
 200              	chThdCreateFromMemoryPool:
 201              	.LVL11:
 202              	.LFB324:
 203              		.loc 1 146 74 is_stmt 1 view -0
 204              		.cfi_startproc
 205              		@ args = 4, pretend = 0, frame = 24
 206              		@ frame_needed = 0, uses_anonymous_args = 0
 207              		.loc 1 147 3 view .LVU50
 208              		.loc 1 148 3 view .LVU51
 209              		.loc 1 150 3 view .LVU52
 210              		.loc 1 150 3 view .LVU53
 211              		.loc 1 152 3 view .LVU54
 212              		.loc 1 146 74 is_stmt 0 view .LVU55
 213 0050 2DE9F041 		push	{r4, r5, r6, r7, r8, lr}
 214              		.cfi_def_cfa_offset 24
 215              		.cfi_offset 4, -24
 216              		.cfi_offset 5, -20
 217              		.cfi_offset 6, -16
 218              		.cfi_offset 7, -12
 219              		.cfi_offset 8, -8
 220              		.cfi_offset 14, -4
 221 0054 86B0     		sub	sp, sp, #24
 222              		.cfi_def_cfa_offset 48
 223              		.loc 1 146 74 view .LVU56
 224 0056 8846     		mov	r8, r1
 225 0058 1746     		mov	r7, r2
 226 005a 1E46     		mov	r6, r3
 227 005c 0546     		mov	r5, r0
 228              		.loc 1 152 9 view .LVU57
ARM GAS  /tmp/ccI4Rg6S.s 			page 5


 229 005e FFF7FEFF 		bl	chPoolAlloc
 230              	.LVL12:
 231              		.loc 1 153 3 is_stmt 1 view .LVU58
 232              		.loc 1 153 6 is_stmt 0 view .LVU59
 233 0062 0446     		mov	r4, r0
 234 0064 D0B1     		cbz	r0, .L8
 235              		.loc 1 157 3 is_stmt 1 view .LVU60
 236              		.loc 1 160 5 is_stmt 0 view .LVU61
 237 0066 6868     		ldr	r0, [r5, #4]
 238              	.LVL13:
 239              	.LBB53:
 240              	.LBB54:
 241              	.LBB55:
 242              	.LBB56:
 243              		.loc 2 493 3 view .LVU62
 244 0068 2023     		movs	r3, #32
 245              	.LBE56:
 246              	.LBE55:
 247              	.LBE54:
 248              	.LBE53:
 249              		.loc 1 157 23 view .LVU63
 250 006a 0C9A     		ldr	r2, [sp, #48]
 251              		.loc 1 160 5 view .LVU64
 252 006c 2044     		add	r0, r0, r4
 253              		.loc 1 157 23 view .LVU65
 254 006e CDF80080 		str	r8, [sp]
 255 0072 0194     		str	r4, [sp, #4]
 256 0074 0592     		str	r2, [sp, #20]
 257              		.loc 1 172 3 is_stmt 1 view .LVU66
 258              	.LBB64:
 259              	.LBI53:
 260              		.loc 3 353 20 view .LVU67
 261              	.LBE64:
 262              		.loc 3 355 3 view .LVU68
 263              	.LBB65:
 264              	.LBB61:
 265              	.LBI54:
 266              		.loc 4 669 27 view .LVU69
 267              	.LBE61:
 268              	.LBE65:
 269              		.loc 4 677 3 view .LVU70
 270              	.LVL14:
 271              	.LBB66:
 272              	.LBB62:
 273              	.LBB59:
 274              	.LBI55:
 275              		.loc 2 491 27 view .LVU71
 276              	.LBB57:
 277              		.loc 2 493 3 view .LVU72
 278              	.LBE57:
 279              	.LBE59:
 280              	.LBE62:
 281              	.LBE66:
 282              		.loc 1 157 23 is_stmt 0 view .LVU73
 283 0076 0290     		str	r0, [sp, #8]
 284 0078 CDE90376 		strd	r7, r6, [sp, #12]
 285              	.LBB67:
ARM GAS  /tmp/ccI4Rg6S.s 			page 6


 286              	.LBB63:
 287              	.LBB60:
 288              	.LBB58:
 289              		.loc 2 493 3 view .LVU74
 290              		.syntax unified
 291              	@ 493 "../../../external/ChibiOS/os/common/ext/ARM/CMSIS/Core/Include/cmsis_gcc.h" 1
 292 007c 83F31188 		MSR basepri, r3
 293              	@ 0 "" 2
 294              	.LVL15:
 295              		.loc 2 493 3 view .LVU75
 296              		.thumb
 297              		.syntax unified
 298              	.LBE58:
 299              	.LBE60:
 300              	.LBE63:
 301              	.LBE67:
 302              		.loc 3 356 34 is_stmt 1 view .LVU76
 303              		.loc 3 357 20 view .LVU77
 304              		.loc 1 173 3 view .LVU78
 305              		.loc 1 173 8 is_stmt 0 view .LVU79
 306 0080 6846     		mov	r0, sp
 307 0082 FFF7FEFF 		bl	chThdCreateSuspendedI
 308              	.LVL16:
 309              		.loc 1 174 13 view .LVU80
 310 0086 0223     		movs	r3, #2
 311              		.loc 1 176 3 view .LVU81
 312 0088 0021     		movs	r1, #0
 313              		.loc 1 175 13 view .LVU82
 314 008a 0564     		str	r5, [r0, #64]
 315              		.loc 1 174 13 view .LVU83
 316 008c 80F82130 		strb	r3, [r0, #33]
 317              		.loc 1 173 8 view .LVU84
 318 0090 0446     		mov	r4, r0
 319              	.LVL17:
 320              		.loc 1 174 3 is_stmt 1 view .LVU85
 321              		.loc 1 175 3 view .LVU86
 322              		.loc 1 176 3 view .LVU87
 323 0092 FFF7FEFF 		bl	chSchWakeupS
 324              	.LVL18:
 325              		.loc 1 177 3 view .LVU88
 326              	.LBB68:
 327              	.LBI68:
 328              		.loc 3 365 20 view .LVU89
 329              	.LBB69:
 330              		.loc 3 367 22 view .LVU90
 331              		.loc 3 368 33 view .LVU91
 332              		.loc 3 374 3 view .LVU92
 333              		.loc 3 374 3 view .LVU93
 334              		.loc 3 378 3 view .LVU94
 335              	.LBB70:
 336              	.LBI70:
 337              		.loc 4 693 27 view .LVU95
 338              	.LBE70:
 339              	.LBE69:
 340              	.LBE68:
 341              		.loc 4 696 3 view .LVU96
 342              	.LBB75:
ARM GAS  /tmp/ccI4Rg6S.s 			page 7


 343              	.LBB74:
 344              	.LBB73:
 345              	.LBB71:
 346              	.LBI71:
 347              		.loc 2 491 27 view .LVU97
 348              	.LBB72:
 349              		.loc 2 493 3 view .LVU98
 350 0096 0023     		movs	r3, #0
 351              		.syntax unified
 352              	@ 493 "../../../external/ChibiOS/os/common/ext/ARM/CMSIS/Core/Include/cmsis_gcc.h" 1
 353 0098 83F31188 		MSR basepri, r3
 354              	@ 0 "" 2
 355              	.LVL19:
 356              		.loc 2 493 3 is_stmt 0 view .LVU99
 357              		.thumb
 358              		.syntax unified
 359              	.LBE72:
 360              	.LBE71:
 361              	.LBE73:
 362              	.LBE74:
 363              	.LBE75:
 364              		.loc 1 179 3 is_stmt 1 view .LVU100
 365              	.L8:
 366              		.loc 1 180 1 is_stmt 0 view .LVU101
 367 009c 2046     		mov	r0, r4
 368 009e 06B0     		add	sp, sp, #24
 369              		.cfi_def_cfa_offset 24
 370              		@ sp needed
 371 00a0 BDE8F081 		pop	{r4, r5, r6, r7, r8, pc}
 372              		.loc 1 180 1 view .LVU102
 373              		.cfi_endproc
 374              	.LFE324:
 375              		.size	chThdCreateFromMemoryPool, .-chThdCreateFromMemoryPool
 376              	.Letext0:
 377              		.file 5 "/home/nicolas/arm/gcc-arm-none-eabi-8-2019-q3-update/lib/gcc/arm-none-eabi/8.3.1/include/
 378              		.file 6 "/home/nicolas/arm/gcc-arm-none-eabi-8-2019-q3-update/arm-none-eabi/include/machine/_defau
 379              		.file 7 "/home/nicolas/arm/gcc-arm-none-eabi-8-2019-q3-update/arm-none-eabi/include/sys/_stdint.h"
 380              		.file 8 "../../../external/ChibiOS/os/common/ports/ARMCMx/compilers/GCC/chtypes.h"
 381              		.file 9 "../../../external/ChibiOS/os/rt/include/chsystypes.h"
 382              		.file 10 "../../../external/ChibiOS/os/rt/include/chschd.h"
 383              		.file 11 "../../../external/ChibiOS/os/rt/include/chtime.h"
 384              		.file 12 "../../../external/ChibiOS/os/common/ext/ARM/CMSIS/Core/Include/core_cm7.h"
 385              		.file 13 "../../../external/ChibiOS/os/common/ext/ST/STM32H7xx/system_stm32h7xx.h"
 386              		.file 14 "../../../external/ChibiOS/os/common/ports/ARMCMx/chcore.h"
 387              		.file 15 "../../../external/ChibiOS/os/rt/include/chtrace.h"
 388              		.file 16 "../../../external/ChibiOS/os/rt/include/chtm.h"
 389              		.file 17 "../../../external/ChibiOS/os/rt/include/chsem.h"
 390              		.file 18 "../../../external/ChibiOS/os/rt/include/chmtx.h"
 391              		.file 19 "../../../external/ChibiOS/os/rt/include/chthreads.h"
 392              		.file 20 "../../../external/ChibiOS/os/rt/include/chregistry.h"
 393              		.file 21 "../../../external/ChibiOS/os/oslib/include/chmemcore.h"
 394              		.file 22 "../../../external/ChibiOS/os/oslib/include/chmemheaps.h"
 395              		.file 23 "../../../external/ChibiOS/os/oslib/include/chmempools.h"
 396              		.file 24 "../../../external/ChibiOS/os/oslib/include/chfactory.h"
 397              		.section	.debug_info,"",%progbits
 398              	.Ldebug_info0:
 399 0000 D1110000 		.4byte	0x11d1
ARM GAS  /tmp/ccI4Rg6S.s 			page 8


 400 0004 0400     		.2byte	0x4
 401 0006 00000000 		.4byte	.Ldebug_abbrev0
 402 000a 04       		.byte	0x4
 403 000b 01       		.uleb128 0x1
 404 000c AE040000 		.4byte	.LASF182
 405 0010 0C       		.byte	0xc
 406 0011 85050000 		.4byte	.LASF183
 407 0015 2E020000 		.4byte	.LASF184
 408 0019 00000000 		.4byte	.Ltext0
 409 001d A4000000 		.4byte	.Letext0-.Ltext0
 410 0021 00000000 		.4byte	.Ldebug_line0
 411 0025 02       		.uleb128 0x2
 412 0026 04       		.byte	0x4
 413 0027 05       		.byte	0x5
 414 0028 696E7400 		.ascii	"int\000"
 415 002c 03       		.uleb128 0x3
 416 002d 65020000 		.4byte	.LASF4
 417 0031 05       		.byte	0x5
 418 0032 D8       		.byte	0xd8
 419 0033 17       		.byte	0x17
 420 0034 38000000 		.4byte	0x38
 421 0038 04       		.uleb128 0x4
 422 0039 04       		.byte	0x4
 423 003a 07       		.byte	0x7
 424 003b C6020000 		.4byte	.LASF0
 425 003f 04       		.uleb128 0x4
 426 0040 08       		.byte	0x8
 427 0041 05       		.byte	0x5
 428 0042 4C010000 		.4byte	.LASF1
 429 0046 04       		.uleb128 0x4
 430 0047 08       		.byte	0x8
 431 0048 04       		.byte	0x4
 432 0049 31070000 		.4byte	.LASF2
 433 004d 04       		.uleb128 0x4
 434 004e 01       		.byte	0x1
 435 004f 06       		.byte	0x6
 436 0050 5A010000 		.4byte	.LASF3
 437 0054 03       		.uleb128 0x3
 438 0055 4C000000 		.4byte	.LASF5
 439 0059 06       		.byte	0x6
 440 005a 2B       		.byte	0x2b
 441 005b 18       		.byte	0x18
 442 005c 60000000 		.4byte	0x60
 443 0060 04       		.uleb128 0x4
 444 0061 01       		.byte	0x1
 445 0062 08       		.byte	0x8
 446 0063 08000000 		.4byte	.LASF6
 447 0067 04       		.uleb128 0x4
 448 0068 02       		.byte	0x2
 449 0069 05       		.byte	0x5
 450 006a 4D060000 		.4byte	.LASF7
 451 006e 03       		.uleb128 0x3
 452 006f 58070000 		.4byte	.LASF8
 453 0073 06       		.byte	0x6
 454 0074 39       		.byte	0x39
 455 0075 19       		.byte	0x19
 456 0076 7A000000 		.4byte	0x7a
ARM GAS  /tmp/ccI4Rg6S.s 			page 9


 457 007a 04       		.uleb128 0x4
 458 007b 02       		.byte	0x2
 459 007c 07       		.byte	0x7
 460 007d 31010000 		.4byte	.LASF9
 461 0081 03       		.uleb128 0x3
 462 0082 C1030000 		.4byte	.LASF10
 463 0086 06       		.byte	0x6
 464 0087 4D       		.byte	0x4d
 465 0088 18       		.byte	0x18
 466 0089 8D000000 		.4byte	0x8d
 467 008d 04       		.uleb128 0x4
 468 008e 04       		.byte	0x4
 469 008f 05       		.byte	0x5
 470 0090 B8010000 		.4byte	.LASF11
 471 0094 03       		.uleb128 0x3
 472 0095 23020000 		.4byte	.LASF12
 473 0099 06       		.byte	0x6
 474 009a 4F       		.byte	0x4f
 475 009b 19       		.byte	0x19
 476 009c A0000000 		.4byte	0xa0
 477 00a0 04       		.uleb128 0x4
 478 00a1 04       		.byte	0x4
 479 00a2 07       		.byte	0x7
 480 00a3 66010000 		.4byte	.LASF13
 481 00a7 03       		.uleb128 0x3
 482 00a8 99040000 		.4byte	.LASF14
 483 00ac 06       		.byte	0x6
 484 00ad 69       		.byte	0x69
 485 00ae 19       		.byte	0x19
 486 00af B3000000 		.4byte	0xb3
 487 00b3 04       		.uleb128 0x4
 488 00b4 08       		.byte	0x8
 489 00b5 07       		.byte	0x7
 490 00b6 7D010000 		.4byte	.LASF15
 491 00ba 03       		.uleb128 0x3
 492 00bb 84060000 		.4byte	.LASF16
 493 00bf 07       		.byte	0x7
 494 00c0 18       		.byte	0x18
 495 00c1 13       		.byte	0x13
 496 00c2 54000000 		.4byte	0x54
 497 00c6 05       		.uleb128 0x5
 498 00c7 BA000000 		.4byte	0xba
 499 00cb 03       		.uleb128 0x3
 500 00cc F4010000 		.4byte	.LASF17
 501 00d0 07       		.byte	0x7
 502 00d1 24       		.byte	0x24
 503 00d2 14       		.byte	0x14
 504 00d3 6E000000 		.4byte	0x6e
 505 00d7 03       		.uleb128 0x3
 506 00d8 1D060000 		.4byte	.LASF18
 507 00dc 07       		.byte	0x7
 508 00dd 2C       		.byte	0x2c
 509 00de 13       		.byte	0x13
 510 00df 81000000 		.4byte	0x81
 511 00e3 06       		.uleb128 0x6
 512 00e4 D7000000 		.4byte	0xd7
 513 00e8 03       		.uleb128 0x3
ARM GAS  /tmp/ccI4Rg6S.s 			page 10


 514 00e9 06070000 		.4byte	.LASF19
 515 00ed 07       		.byte	0x7
 516 00ee 30       		.byte	0x30
 517 00ef 14       		.byte	0x14
 518 00f0 94000000 		.4byte	0x94
 519 00f4 03       		.uleb128 0x3
 520 00f5 43000000 		.4byte	.LASF20
 521 00f9 07       		.byte	0x7
 522 00fa 3C       		.byte	0x3c
 523 00fb 14       		.byte	0x14
 524 00fc A7000000 		.4byte	0xa7
 525 0100 03       		.uleb128 0x3
 526 0101 0B040000 		.4byte	.LASF21
 527 0105 08       		.byte	0x8
 528 0106 27       		.byte	0x27
 529 0107 1D       		.byte	0x1d
 530 0108 E8000000 		.4byte	0xe8
 531 010c 03       		.uleb128 0x3
 532 010d 96030000 		.4byte	.LASF22
 533 0111 08       		.byte	0x8
 534 0112 2A       		.byte	0x2a
 535 0113 1D       		.byte	0x1d
 536 0114 BA000000 		.4byte	0xba
 537 0118 03       		.uleb128 0x3
 538 0119 D5010000 		.4byte	.LASF23
 539 011d 08       		.byte	0x8
 540 011e 2B       		.byte	0x2b
 541 011f 1D       		.byte	0x1d
 542 0120 BA000000 		.4byte	0xba
 543 0124 03       		.uleb128 0x3
 544 0125 B5050000 		.4byte	.LASF24
 545 0129 08       		.byte	0x8
 546 012a 2C       		.byte	0x2c
 547 012b 1D       		.byte	0x1d
 548 012c BA000000 		.4byte	0xba
 549 0130 03       		.uleb128 0x3
 550 0131 FA050000 		.4byte	.LASF25
 551 0135 08       		.byte	0x8
 552 0136 2E       		.byte	0x2e
 553 0137 1D       		.byte	0x1d
 554 0138 E8000000 		.4byte	0xe8
 555 013c 03       		.uleb128 0x3
 556 013d 61030000 		.4byte	.LASF26
 557 0141 08       		.byte	0x8
 558 0142 2F       		.byte	0x2f
 559 0143 1D       		.byte	0x1d
 560 0144 D7000000 		.4byte	0xd7
 561 0148 03       		.uleb128 0x3
 562 0149 AC030000 		.4byte	.LASF27
 563 014d 08       		.byte	0x8
 564 014e 31       		.byte	0x31
 565 014f 1D       		.byte	0x1d
 566 0150 E8000000 		.4byte	0xe8
 567 0154 03       		.uleb128 0x3
 568 0155 B7020000 		.4byte	.LASF28
 569 0159 08       		.byte	0x8
 570 015a 33       		.byte	0x33
ARM GAS  /tmp/ccI4Rg6S.s 			page 11


 571 015b 1D       		.byte	0x1d
 572 015c D7000000 		.4byte	0xd7
 573 0160 03       		.uleb128 0x3
 574 0161 67030000 		.4byte	.LASF29
 575 0165 08       		.byte	0x8
 576 0166 34       		.byte	0x34
 577 0167 1D       		.byte	0x1d
 578 0168 E8000000 		.4byte	0xe8
 579 016c 03       		.uleb128 0x3
 580 016d 63070000 		.4byte	.LASF30
 581 0171 09       		.byte	0x9
 582 0172 34       		.byte	0x34
 583 0173 1A       		.byte	0x1a
 584 0174 78010000 		.4byte	0x178
 585 0178 07       		.uleb128 0x7
 586 0179 57030000 		.4byte	.LASF48
 587 017d 44       		.byte	0x44
 588 017e 0A       		.byte	0xa
 589 017f 8E       		.byte	0x8e
 590 0180 08       		.byte	0x8
 591 0181 68020000 		.4byte	0x268
 592 0185 08       		.uleb128 0x8
 593 0186 3A030000 		.4byte	.LASF31
 594 018a 0A       		.byte	0xa
 595 018b 8F       		.byte	0x8f
 596 018c 19       		.byte	0x19
 597 018d A1020000 		.4byte	0x2a1
 598 0191 00       		.byte	0
 599 0192 08       		.uleb128 0x8
 600 0193 8C040000 		.4byte	.LASF32
 601 0197 0A       		.byte	0xa
 602 0198 90       		.byte	0x90
 603 0199 19       		.byte	0x19
 604 019a 30010000 		.4byte	0x130
 605 019e 08       		.byte	0x8
 606 019f 09       		.uleb128 0x9
 607 01a0 63747800 		.ascii	"ctx\000"
 608 01a4 0A       		.byte	0xa
 609 01a5 91       		.byte	0x91
 610 01a6 19       		.byte	0x19
 611 01a7 82060000 		.4byte	0x682
 612 01ab 0C       		.byte	0xc
 613 01ac 08       		.uleb128 0x8
 614 01ad EC030000 		.4byte	.LASF33
 615 01b1 0A       		.byte	0xa
 616 01b2 93       		.byte	0x93
 617 01b3 1A       		.byte	0x1a
 618 01b4 74020000 		.4byte	0x274
 619 01b8 10       		.byte	0x10
 620 01b9 08       		.uleb128 0x8
 621 01ba 49070000 		.4byte	.LASF34
 622 01be 0A       		.byte	0xa
 623 01bf 94       		.byte	0x94
 624 01c0 1A       		.byte	0x1a
 625 01c1 74020000 		.4byte	0x274
 626 01c5 14       		.byte	0x14
 627 01c6 08       		.uleb128 0x8
ARM GAS  /tmp/ccI4Rg6S.s 			page 12


 628 01c7 40030000 		.4byte	.LASF35
 629 01cb 0A       		.byte	0xa
 630 01cc 9B       		.byte	0x9b
 631 01cd 1A       		.byte	0x1a
 632 01ce DF060000 		.4byte	0x6df
 633 01d2 18       		.byte	0x18
 634 01d3 08       		.uleb128 0x8
 635 01d4 3D070000 		.4byte	.LASF36
 636 01d8 0A       		.byte	0xa
 637 01d9 A4       		.byte	0xa4
 638 01da 1A       		.byte	0x1a
 639 01db 26090000 		.4byte	0x926
 640 01df 1C       		.byte	0x1c
 641 01e0 08       		.uleb128 0x8
 642 01e1 B2010000 		.4byte	.LASF37
 643 01e5 0A       		.byte	0xa
 644 01e6 A9       		.byte	0xa9
 645 01e7 19       		.byte	0x19
 646 01e8 18010000 		.4byte	0x118
 647 01ec 20       		.byte	0x20
 648 01ed 08       		.uleb128 0x8
 649 01ee 2E080000 		.4byte	.LASF38
 650 01f2 0A       		.byte	0xa
 651 01f3 AD       		.byte	0xad
 652 01f4 19       		.byte	0x19
 653 01f5 0C010000 		.4byte	0x10c
 654 01f9 21       		.byte	0x21
 655 01fa 08       		.uleb128 0x8
 656 01fb C8050000 		.4byte	.LASF39
 657 01ff 0A       		.byte	0xa
 658 0200 B2       		.byte	0xb2
 659 0201 19       		.byte	0x19
 660 0202 24010000 		.4byte	0x124
 661 0206 22       		.byte	0x22
 662 0207 0A       		.uleb128 0xa
 663 0208 7500     		.ascii	"u\000"
 664 020a 0A       		.byte	0xa
 665 020b 0301     		.2byte	0x103
 666 020d 19       		.byte	0x19
 667 020e 4C080000 		.4byte	0x84c
 668 0212 24       		.byte	0x24
 669 0213 0B       		.uleb128 0xb
 670 0214 6C020000 		.4byte	.LASF40
 671 0218 0A       		.byte	0xa
 672 0219 0801     		.2byte	0x108
 673 021b 19       		.byte	0x19
 674 021c 7A020000 		.4byte	0x27a
 675 0220 28       		.byte	0x28
 676 0221 0B       		.uleb128 0xb
 677 0222 BD020000 		.4byte	.LASF41
 678 0226 0A       		.byte	0xa
 679 0227 0E01     		.2byte	0x10e
 680 0229 19       		.byte	0x19
 681 022a A1020000 		.4byte	0x2a1
 682 022e 2C       		.byte	0x2c
 683 022f 0B       		.uleb128 0xb
 684 0230 6E030000 		.4byte	.LASF42
ARM GAS  /tmp/ccI4Rg6S.s 			page 13


 685 0234 0A       		.byte	0xa
 686 0235 1401     		.2byte	0x114
 687 0237 19       		.byte	0x19
 688 0238 48010000 		.4byte	0x148
 689 023c 34       		.byte	0x34
 690 023d 0B       		.uleb128 0xb
 691 023e 9F080000 		.4byte	.LASF43
 692 0242 0A       		.byte	0xa
 693 0243 1B01     		.2byte	0x11b
 694 0245 1A       		.byte	0x1a
 695 0246 20090000 		.4byte	0x920
 696 024a 38       		.byte	0x38
 697 024b 0B       		.uleb128 0xb
 698 024c FA030000 		.4byte	.LASF44
 699 0250 0A       		.byte	0xa
 700 0251 1F01     		.2byte	0x11f
 701 0253 19       		.byte	0x19
 702 0254 30010000 		.4byte	0x130
 703 0258 3C       		.byte	0x3c
 704 0259 0B       		.uleb128 0xb
 705 025a E9070000 		.4byte	.LASF45
 706 025e 0A       		.byte	0xa
 707 025f 2601     		.2byte	0x126
 708 0261 1A       		.byte	0x1a
 709 0262 61030000 		.4byte	0x361
 710 0266 40       		.byte	0x40
 711 0267 00       		.byte	0
 712 0268 03       		.uleb128 0x3
 713 0269 3E080000 		.4byte	.LASF46
 714 026d 09       		.byte	0x9
 715 026e 39       		.byte	0x39
 716 026f 14       		.byte	0x14
 717 0270 74020000 		.4byte	0x274
 718 0274 0C       		.uleb128 0xc
 719 0275 04       		.byte	0x4
 720 0276 6C010000 		.4byte	0x16c
 721 027a 03       		.uleb128 0x3
 722 027b 5A080000 		.4byte	.LASF47
 723 027f 09       		.byte	0x9
 724 0280 3E       		.byte	0x3e
 725 0281 20       		.byte	0x20
 726 0282 86020000 		.4byte	0x286
 727 0286 07       		.uleb128 0x7
 728 0287 16070000 		.4byte	.LASF49
 729 028b 04       		.byte	0x4
 730 028c 0A       		.byte	0xa
 731 028d 7C       		.byte	0x7c
 732 028e 08       		.byte	0x8
 733 028f A1020000 		.4byte	0x2a1
 734 0293 08       		.uleb128 0x8
 735 0294 04010000 		.4byte	.LASF50
 736 0298 0A       		.byte	0xa
 737 0299 7D       		.byte	0x7d
 738 029a 1A       		.byte	0x1a
 739 029b 74020000 		.4byte	0x274
 740 029f 00       		.byte	0
 741 02a0 00       		.byte	0
ARM GAS  /tmp/ccI4Rg6S.s 			page 14


 742 02a1 03       		.uleb128 0x3
 743 02a2 F7070000 		.4byte	.LASF51
 744 02a6 09       		.byte	0x9
 745 02a7 45       		.byte	0x45
 746 02a8 21       		.byte	0x21
 747 02a9 AD020000 		.4byte	0x2ad
 748 02ad 07       		.uleb128 0x7
 749 02ae 09010000 		.4byte	.LASF52
 750 02b2 08       		.byte	0x8
 751 02b3 0A       		.byte	0xa
 752 02b4 83       		.byte	0x83
 753 02b5 08       		.byte	0x8
 754 02b6 D5020000 		.4byte	0x2d5
 755 02ba 08       		.uleb128 0x8
 756 02bb 04010000 		.4byte	.LASF50
 757 02bf 0A       		.byte	0xa
 758 02c0 84       		.byte	0x84
 759 02c1 1A       		.byte	0x1a
 760 02c2 74020000 		.4byte	0x274
 761 02c6 00       		.byte	0
 762 02c7 08       		.uleb128 0x8
 763 02c8 56000000 		.4byte	.LASF53
 764 02cc 0A       		.byte	0xa
 765 02cd 85       		.byte	0x85
 766 02ce 1A       		.byte	0x1a
 767 02cf 74020000 		.4byte	0x274
 768 02d3 04       		.byte	0x4
 769 02d4 00       		.byte	0
 770 02d5 03       		.uleb128 0x3
 771 02d6 16000000 		.4byte	.LASF54
 772 02da 09       		.byte	0x9
 773 02db 4C       		.byte	0x4c
 774 02dc 1E       		.byte	0x1e
 775 02dd E1020000 		.4byte	0x2e1
 776 02e1 0D       		.uleb128 0xd
 777 02e2 9E030000 		.4byte	.LASF55
 778 02e6 1C       		.byte	0x1c
 779 02e7 0A       		.byte	0xa
 780 02e8 5E01     		.2byte	0x15e
 781 02ea 08       		.byte	0x8
 782 02eb 44030000 		.4byte	0x344
 783 02ef 0B       		.uleb128 0xb
 784 02f0 3A030000 		.4byte	.LASF31
 785 02f4 0A       		.byte	0xa
 786 02f5 5F01     		.2byte	0x15f
 787 02f7 19       		.byte	0x19
 788 02f8 A1020000 		.4byte	0x2a1
 789 02fc 00       		.byte	0
 790 02fd 0B       		.uleb128 0xb
 791 02fe 8C040000 		.4byte	.LASF32
 792 0302 0A       		.byte	0xa
 793 0303 6001     		.2byte	0x160
 794 0305 19       		.byte	0x19
 795 0306 30010000 		.4byte	0x130
 796 030a 08       		.byte	0x8
 797 030b 0A       		.uleb128 0xa
 798 030c 63747800 		.ascii	"ctx\000"
ARM GAS  /tmp/ccI4Rg6S.s 			page 15


 799 0310 0A       		.byte	0xa
 800 0311 6201     		.2byte	0x162
 801 0313 19       		.byte	0x19
 802 0314 82060000 		.4byte	0x682
 803 0318 0C       		.byte	0xc
 804 0319 0B       		.uleb128 0xb
 805 031a EC030000 		.4byte	.LASF33
 806 031e 0A       		.byte	0xa
 807 031f 6501     		.2byte	0x165
 808 0321 1A       		.byte	0x1a
 809 0322 74020000 		.4byte	0x274
 810 0326 10       		.byte	0x10
 811 0327 0B       		.uleb128 0xb
 812 0328 49070000 		.4byte	.LASF34
 813 032c 0A       		.byte	0xa
 814 032d 6601     		.2byte	0x166
 815 032f 1A       		.byte	0x1a
 816 0330 74020000 		.4byte	0x274
 817 0334 14       		.byte	0x14
 818 0335 0B       		.uleb128 0xb
 819 0336 91040000 		.4byte	.LASF56
 820 033a 0A       		.byte	0xa
 821 033b 6901     		.2byte	0x169
 822 033d 1A       		.byte	0x1a
 823 033e 74020000 		.4byte	0x274
 824 0342 18       		.byte	0x18
 825 0343 00       		.byte	0
 826 0344 03       		.uleb128 0x3
 827 0345 69080000 		.4byte	.LASF57
 828 0349 09       		.byte	0x9
 829 034a 51       		.byte	0x51
 830 034b 10       		.byte	0x10
 831 034c 50030000 		.4byte	0x350
 832 0350 0C       		.uleb128 0xc
 833 0351 04       		.byte	0x4
 834 0352 56030000 		.4byte	0x356
 835 0356 0E       		.uleb128 0xe
 836 0357 61030000 		.4byte	0x361
 837 035b 0F       		.uleb128 0xf
 838 035c 61030000 		.4byte	0x361
 839 0360 00       		.byte	0
 840 0361 10       		.uleb128 0x10
 841 0362 04       		.byte	0x4
 842 0363 03       		.uleb128 0x3
 843 0364 CD050000 		.4byte	.LASF58
 844 0368 09       		.byte	0x9
 845 0369 56       		.byte	0x56
 846 036a 21       		.byte	0x21
 847 036b 6F030000 		.4byte	0x36f
 848 036f 0D       		.uleb128 0xd
 849 0370 BA060000 		.4byte	.LASF59
 850 0374 14       		.byte	0x14
 851 0375 0A       		.byte	0xa
 852 0376 3901     		.2byte	0x139
 853 0378 08       		.byte	0x8
 854 0379 C4030000 		.4byte	0x3c4
 855 037d 0B       		.uleb128 0xb
ARM GAS  /tmp/ccI4Rg6S.s 			page 16


 856 037e 04010000 		.4byte	.LASF50
 857 0382 0A       		.byte	0xa
 858 0383 3A01     		.2byte	0x13a
 859 0385 1A       		.byte	0x1a
 860 0386 2C090000 		.4byte	0x92c
 861 038a 00       		.byte	0
 862 038b 0B       		.uleb128 0xb
 863 038c 56000000 		.4byte	.LASF53
 864 0390 0A       		.byte	0xa
 865 0391 3B01     		.2byte	0x13b
 866 0393 1A       		.byte	0x1a
 867 0394 2C090000 		.4byte	0x92c
 868 0398 04       		.byte	0x4
 869 0399 0B       		.uleb128 0xb
 870 039a DD000000 		.4byte	.LASF60
 871 039e 0A       		.byte	0xa
 872 039f 3C01     		.2byte	0x13c
 873 03a1 19       		.byte	0x19
 874 03a2 BE040000 		.4byte	0x4be
 875 03a6 08       		.byte	0x8
 876 03a7 0B       		.uleb128 0xb
 877 03a8 EF010000 		.4byte	.LASF61
 878 03ac 0A       		.byte	0xa
 879 03ad 3D01     		.2byte	0x13d
 880 03af 19       		.byte	0x19
 881 03b0 44030000 		.4byte	0x344
 882 03b4 0C       		.byte	0xc
 883 03b5 0A       		.uleb128 0xa
 884 03b6 70617200 		.ascii	"par\000"
 885 03ba 0A       		.byte	0xa
 886 03bb 3F01     		.2byte	0x13f
 887 03bd 1A       		.byte	0x1a
 888 03be 61030000 		.4byte	0x361
 889 03c2 10       		.byte	0x10
 890 03c3 00       		.byte	0
 891 03c4 03       		.uleb128 0x3
 892 03c5 CB030000 		.4byte	.LASF62
 893 03c9 09       		.byte	0x9
 894 03ca 5B       		.byte	0x5b
 895 03cb 28       		.byte	0x28
 896 03cc D0030000 		.4byte	0x3d0
 897 03d0 0D       		.uleb128 0xd
 898 03d1 A0020000 		.4byte	.LASF63
 899 03d5 10       		.byte	0x10
 900 03d6 0A       		.byte	0xa
 901 03d7 4901     		.2byte	0x149
 902 03d9 08       		.byte	0x8
 903 03da 17040000 		.4byte	0x417
 904 03de 0B       		.uleb128 0xb
 905 03df 04010000 		.4byte	.LASF50
 906 03e3 0A       		.byte	0xa
 907 03e4 4A01     		.2byte	0x14a
 908 03e6 1A       		.byte	0x1a
 909 03e7 2C090000 		.4byte	0x92c
 910 03eb 00       		.byte	0
 911 03ec 0B       		.uleb128 0xb
 912 03ed 56000000 		.4byte	.LASF53
ARM GAS  /tmp/ccI4Rg6S.s 			page 17


 913 03f1 0A       		.byte	0xa
 914 03f2 4C01     		.2byte	0x14c
 915 03f4 1A       		.byte	0x1a
 916 03f5 2C090000 		.4byte	0x92c
 917 03f9 04       		.byte	0x4
 918 03fa 0B       		.uleb128 0xb
 919 03fb DD000000 		.4byte	.LASF60
 920 03ff 0A       		.byte	0xa
 921 0400 4E01     		.2byte	0x14e
 922 0402 19       		.byte	0x19
 923 0403 BE040000 		.4byte	0x4be
 924 0407 08       		.byte	0x8
 925 0408 0B       		.uleb128 0xb
 926 0409 57060000 		.4byte	.LASF64
 927 040d 0A       		.byte	0xa
 928 040e 5601     		.2byte	0x156
 929 0410 19       		.byte	0x19
 930 0411 B2040000 		.4byte	0x4b2
 931 0415 0C       		.byte	0xc
 932 0416 00       		.byte	0
 933 0417 03       		.uleb128 0x3
 934 0418 FB020000 		.4byte	.LASF65
 935 041c 09       		.byte	0x9
 936 041d 60       		.byte	0x60
 937 041e 20       		.byte	0x20
 938 041f 23040000 		.4byte	0x423
 939 0423 11       		.uleb128 0x11
 940 0424 07060000 		.4byte	.LASF66
 941 0428 0C08     		.2byte	0x80c
 942 042a 0A       		.byte	0xa
 943 042b 7001     		.2byte	0x170
 944 042d 08       		.byte	0x8
 945 042e 4F040000 		.4byte	0x44f
 946 0432 0B       		.uleb128 0xb
 947 0433 92070000 		.4byte	.LASF67
 948 0437 0A       		.byte	0xa
 949 0438 7801     		.2byte	0x178
 950 043a 24       		.byte	0x24
 951 043b E5060000 		.4byte	0x6e5
 952 043f 00       		.byte	0
 953 0440 0B       		.uleb128 0xb
 954 0441 7C080000 		.4byte	.LASF68
 955 0445 0A       		.byte	0xa
 956 0446 8701     		.2byte	0x187
 957 0448 19       		.byte	0x19
 958 0449 1D080000 		.4byte	0x81d
 959 044d 04       		.byte	0x4
 960 044e 00       		.byte	0
 961 044f 03       		.uleb128 0x3
 962 0450 82030000 		.4byte	.LASF69
 963 0454 09       		.byte	0x9
 964 0455 65       		.byte	0x65
 965 0456 1A       		.byte	0x1a
 966 0457 5B040000 		.4byte	0x45b
 967 045b 11       		.uleb128 0x11
 968 045c 7A060000 		.4byte	.LASF70
 969 0460 8008     		.2byte	0x880
ARM GAS  /tmp/ccI4Rg6S.s 			page 18


 970 0462 0A       		.byte	0xa
 971 0463 9001     		.2byte	0x190
 972 0465 08       		.byte	0x8
 973 0466 B2040000 		.4byte	0x4b2
 974 046a 0B       		.uleb128 0xb
 975 046b 13080000 		.4byte	.LASF71
 976 046f 0A       		.byte	0xa
 977 0470 9401     		.2byte	0x194
 978 0472 19       		.byte	0x19
 979 0473 D5020000 		.4byte	0x2d5
 980 0477 00       		.byte	0
 981 0478 0B       		.uleb128 0xb
 982 0479 6D000000 		.4byte	.LASF72
 983 047d 0A       		.byte	0xa
 984 047e 9801     		.2byte	0x198
 985 0480 19       		.byte	0x19
 986 0481 C4030000 		.4byte	0x3c4
 987 0485 1C       		.byte	0x1c
 988 0486 0A       		.uleb128 0xa
 989 0487 64626700 		.ascii	"dbg\000"
 990 048b 0A       		.byte	0xa
 991 048c 9C01     		.2byte	0x19c
 992 048e 19       		.byte	0x19
 993 048f 17040000 		.4byte	0x417
 994 0493 2C       		.byte	0x2c
 995 0494 12       		.uleb128 0x12
 996 0495 CA000000 		.4byte	.LASF73
 997 0499 0A       		.byte	0xa
 998 049a A001     		.2byte	0x1a0
 999 049c 19       		.byte	0x19
 1000 049d 6C010000 		.4byte	0x16c
 1001 04a1 3808     		.2byte	0x838
 1002 04a3 13       		.uleb128 0x13
 1003 04a4 746D00   		.ascii	"tm\000"
 1004 04a7 0A       		.byte	0xa
 1005 04a8 A501     		.2byte	0x1a5
 1006 04aa 19       		.byte	0x19
 1007 04ab 40080000 		.4byte	0x840
 1008 04af 7C08     		.2byte	0x87c
 1009 04b1 00       		.byte	0
 1010 04b2 03       		.uleb128 0x3
 1011 04b3 6C070000 		.4byte	.LASF74
 1012 04b7 0B       		.byte	0xb
 1013 04b8 6D       		.byte	0x6d
 1014 04b9 12       		.byte	0x12
 1015 04ba E8000000 		.4byte	0xe8
 1016 04be 03       		.uleb128 0x3
 1017 04bf F6000000 		.4byte	.LASF75
 1018 04c3 0B       		.byte	0xb
 1019 04c4 79       		.byte	0x79
 1020 04c5 12       		.byte	0x12
 1021 04c6 E8000000 		.4byte	0xe8
 1022 04ca 14       		.uleb128 0x14
 1023 04cb E3000000 		.4byte	.LASF76
 1024 04cf 0C       		.byte	0xc
 1025 04d0 220A     		.2byte	0xa22
 1026 04d2 19       		.byte	0x19
ARM GAS  /tmp/ccI4Rg6S.s 			page 19


 1027 04d3 E3000000 		.4byte	0xe3
 1028 04d7 15       		.uleb128 0x15
 1029 04d8 D3020000 		.4byte	.LASF77
 1030 04dc 0D       		.byte	0xd
 1031 04dd 3A       		.byte	0x3a
 1032 04de 11       		.byte	0x11
 1033 04df E8000000 		.4byte	0xe8
 1034 04e3 15       		.uleb128 0x15
 1035 04e4 23010000 		.4byte	.LASF78
 1036 04e8 0D       		.byte	0xd
 1037 04e9 3B       		.byte	0x3b
 1038 04ea 11       		.byte	0x11
 1039 04eb E8000000 		.4byte	0xe8
 1040 04ef 16       		.uleb128 0x16
 1041 04f0 C6000000 		.4byte	0xc6
 1042 04f4 FF040000 		.4byte	0x4ff
 1043 04f8 17       		.uleb128 0x17
 1044 04f9 38000000 		.4byte	0x38
 1045 04fd 0F       		.byte	0xf
 1046 04fe 00       		.byte	0
 1047 04ff 05       		.uleb128 0x5
 1048 0500 EF040000 		.4byte	0x4ef
 1049 0504 15       		.uleb128 0x15
 1050 0505 EA020000 		.4byte	.LASF79
 1051 0509 0D       		.byte	0xd
 1052 050a 3C       		.byte	0x3c
 1053 050b 17       		.byte	0x17
 1054 050c FF040000 		.4byte	0x4ff
 1055 0510 03       		.uleb128 0x3
 1056 0511 E1030000 		.4byte	.LASF80
 1057 0515 0E       		.byte	0xe
 1058 0516 68       		.byte	0x68
 1059 0517 12       		.byte	0x12
 1060 0518 F4000000 		.4byte	0xf4
 1061 051c 0D       		.uleb128 0xd
 1062 051d 5B000000 		.4byte	.LASF81
 1063 0521 64       		.byte	0x64
 1064 0522 04       		.byte	0x4
 1065 0523 8501     		.2byte	0x185
 1066 0525 08       		.byte	0x8
 1067 0526 82060000 		.4byte	0x682
 1068 052a 0A       		.uleb128 0xa
 1069 052b 73313600 		.ascii	"s16\000"
 1070 052f 04       		.byte	0x4
 1071 0530 8D01     		.2byte	0x18d
 1072 0532 11       		.byte	0x11
 1073 0533 E8000000 		.4byte	0xe8
 1074 0537 00       		.byte	0
 1075 0538 0A       		.uleb128 0xa
 1076 0539 73313700 		.ascii	"s17\000"
 1077 053d 04       		.byte	0x4
 1078 053e 8E01     		.2byte	0x18e
 1079 0540 11       		.byte	0x11
 1080 0541 E8000000 		.4byte	0xe8
 1081 0545 04       		.byte	0x4
 1082 0546 0A       		.uleb128 0xa
 1083 0547 73313800 		.ascii	"s18\000"
ARM GAS  /tmp/ccI4Rg6S.s 			page 20


 1084 054b 04       		.byte	0x4
 1085 054c 8F01     		.2byte	0x18f
 1086 054e 11       		.byte	0x11
 1087 054f E8000000 		.4byte	0xe8
 1088 0553 08       		.byte	0x8
 1089 0554 0A       		.uleb128 0xa
 1090 0555 73313900 		.ascii	"s19\000"
 1091 0559 04       		.byte	0x4
 1092 055a 9001     		.2byte	0x190
 1093 055c 11       		.byte	0x11
 1094 055d E8000000 		.4byte	0xe8
 1095 0561 0C       		.byte	0xc
 1096 0562 0A       		.uleb128 0xa
 1097 0563 73323000 		.ascii	"s20\000"
 1098 0567 04       		.byte	0x4
 1099 0568 9101     		.2byte	0x191
 1100 056a 11       		.byte	0x11
 1101 056b E8000000 		.4byte	0xe8
 1102 056f 10       		.byte	0x10
 1103 0570 0A       		.uleb128 0xa
 1104 0571 73323100 		.ascii	"s21\000"
 1105 0575 04       		.byte	0x4
 1106 0576 9201     		.2byte	0x192
 1107 0578 11       		.byte	0x11
 1108 0579 E8000000 		.4byte	0xe8
 1109 057d 14       		.byte	0x14
 1110 057e 0A       		.uleb128 0xa
 1111 057f 73323200 		.ascii	"s22\000"
 1112 0583 04       		.byte	0x4
 1113 0584 9301     		.2byte	0x193
 1114 0586 11       		.byte	0x11
 1115 0587 E8000000 		.4byte	0xe8
 1116 058b 18       		.byte	0x18
 1117 058c 0A       		.uleb128 0xa
 1118 058d 73323300 		.ascii	"s23\000"
 1119 0591 04       		.byte	0x4
 1120 0592 9401     		.2byte	0x194
 1121 0594 11       		.byte	0x11
 1122 0595 E8000000 		.4byte	0xe8
 1123 0599 1C       		.byte	0x1c
 1124 059a 0A       		.uleb128 0xa
 1125 059b 73323400 		.ascii	"s24\000"
 1126 059f 04       		.byte	0x4
 1127 05a0 9501     		.2byte	0x195
 1128 05a2 11       		.byte	0x11
 1129 05a3 E8000000 		.4byte	0xe8
 1130 05a7 20       		.byte	0x20
 1131 05a8 0A       		.uleb128 0xa
 1132 05a9 73323500 		.ascii	"s25\000"
 1133 05ad 04       		.byte	0x4
 1134 05ae 9601     		.2byte	0x196
 1135 05b0 11       		.byte	0x11
 1136 05b1 E8000000 		.4byte	0xe8
 1137 05b5 24       		.byte	0x24
 1138 05b6 0A       		.uleb128 0xa
 1139 05b7 73323600 		.ascii	"s26\000"
 1140 05bb 04       		.byte	0x4
ARM GAS  /tmp/ccI4Rg6S.s 			page 21


 1141 05bc 9701     		.2byte	0x197
 1142 05be 11       		.byte	0x11
 1143 05bf E8000000 		.4byte	0xe8
 1144 05c3 28       		.byte	0x28
 1145 05c4 0A       		.uleb128 0xa
 1146 05c5 73323700 		.ascii	"s27\000"
 1147 05c9 04       		.byte	0x4
 1148 05ca 9801     		.2byte	0x198
 1149 05cc 11       		.byte	0x11
 1150 05cd E8000000 		.4byte	0xe8
 1151 05d1 2C       		.byte	0x2c
 1152 05d2 0A       		.uleb128 0xa
 1153 05d3 73323800 		.ascii	"s28\000"
 1154 05d7 04       		.byte	0x4
 1155 05d8 9901     		.2byte	0x199
 1156 05da 11       		.byte	0x11
 1157 05db E8000000 		.4byte	0xe8
 1158 05df 30       		.byte	0x30
 1159 05e0 0A       		.uleb128 0xa
 1160 05e1 73323900 		.ascii	"s29\000"
 1161 05e5 04       		.byte	0x4
 1162 05e6 9A01     		.2byte	0x19a
 1163 05e8 11       		.byte	0x11
 1164 05e9 E8000000 		.4byte	0xe8
 1165 05ed 34       		.byte	0x34
 1166 05ee 0A       		.uleb128 0xa
 1167 05ef 73333000 		.ascii	"s30\000"
 1168 05f3 04       		.byte	0x4
 1169 05f4 9B01     		.2byte	0x19b
 1170 05f6 11       		.byte	0x11
 1171 05f7 E8000000 		.4byte	0xe8
 1172 05fb 38       		.byte	0x38
 1173 05fc 0A       		.uleb128 0xa
 1174 05fd 73333100 		.ascii	"s31\000"
 1175 0601 04       		.byte	0x4
 1176 0602 9C01     		.2byte	0x19c
 1177 0604 11       		.byte	0x11
 1178 0605 E8000000 		.4byte	0xe8
 1179 0609 3C       		.byte	0x3c
 1180 060a 0A       		.uleb128 0xa
 1181 060b 723400   		.ascii	"r4\000"
 1182 060e 04       		.byte	0x4
 1183 060f 9E01     		.2byte	0x19e
 1184 0611 11       		.byte	0x11
 1185 0612 E8000000 		.4byte	0xe8
 1186 0616 40       		.byte	0x40
 1187 0617 0A       		.uleb128 0xa
 1188 0618 723500   		.ascii	"r5\000"
 1189 061b 04       		.byte	0x4
 1190 061c 9F01     		.2byte	0x19f
 1191 061e 11       		.byte	0x11
 1192 061f E8000000 		.4byte	0xe8
 1193 0623 44       		.byte	0x44
 1194 0624 0A       		.uleb128 0xa
 1195 0625 723600   		.ascii	"r6\000"
 1196 0628 04       		.byte	0x4
 1197 0629 A001     		.2byte	0x1a0
ARM GAS  /tmp/ccI4Rg6S.s 			page 22


 1198 062b 11       		.byte	0x11
 1199 062c E8000000 		.4byte	0xe8
 1200 0630 48       		.byte	0x48
 1201 0631 0A       		.uleb128 0xa
 1202 0632 723700   		.ascii	"r7\000"
 1203 0635 04       		.byte	0x4
 1204 0636 A101     		.2byte	0x1a1
 1205 0638 11       		.byte	0x11
 1206 0639 E8000000 		.4byte	0xe8
 1207 063d 4C       		.byte	0x4c
 1208 063e 0A       		.uleb128 0xa
 1209 063f 723800   		.ascii	"r8\000"
 1210 0642 04       		.byte	0x4
 1211 0643 A201     		.2byte	0x1a2
 1212 0645 11       		.byte	0x11
 1213 0646 E8000000 		.4byte	0xe8
 1214 064a 50       		.byte	0x50
 1215 064b 0A       		.uleb128 0xa
 1216 064c 723900   		.ascii	"r9\000"
 1217 064f 04       		.byte	0x4
 1218 0650 A301     		.2byte	0x1a3
 1219 0652 11       		.byte	0x11
 1220 0653 E8000000 		.4byte	0xe8
 1221 0657 54       		.byte	0x54
 1222 0658 0A       		.uleb128 0xa
 1223 0659 72313000 		.ascii	"r10\000"
 1224 065d 04       		.byte	0x4
 1225 065e A401     		.2byte	0x1a4
 1226 0660 11       		.byte	0x11
 1227 0661 E8000000 		.4byte	0xe8
 1228 0665 58       		.byte	0x58
 1229 0666 0A       		.uleb128 0xa
 1230 0667 72313100 		.ascii	"r11\000"
 1231 066b 04       		.byte	0x4
 1232 066c A501     		.2byte	0x1a5
 1233 066e 11       		.byte	0x11
 1234 066f E8000000 		.4byte	0xe8
 1235 0673 5C       		.byte	0x5c
 1236 0674 0A       		.uleb128 0xa
 1237 0675 6C7200   		.ascii	"lr\000"
 1238 0678 04       		.byte	0x4
 1239 0679 A601     		.2byte	0x1a6
 1240 067b 11       		.byte	0x11
 1241 067c E8000000 		.4byte	0xe8
 1242 0680 60       		.byte	0x60
 1243 0681 00       		.byte	0
 1244 0682 0D       		.uleb128 0xd
 1245 0683 93020000 		.4byte	.LASF82
 1246 0687 04       		.byte	0x4
 1247 0688 04       		.byte	0x4
 1248 0689 A901     		.2byte	0x1a9
 1249 068b 08       		.byte	0x8
 1250 068c 9E060000 		.4byte	0x69e
 1251 0690 0A       		.uleb128 0xa
 1252 0691 737000   		.ascii	"sp\000"
 1253 0694 04       		.byte	0x4
 1254 0695 AA01     		.2byte	0x1aa
ARM GAS  /tmp/ccI4Rg6S.s 			page 23


 1255 0697 1A       		.byte	0x1a
 1256 0698 9E060000 		.4byte	0x69e
 1257 069c 00       		.byte	0
 1258 069d 00       		.byte	0
 1259 069e 0C       		.uleb128 0xc
 1260 069f 04       		.byte	0x4
 1261 06a0 1C050000 		.4byte	0x51c
 1262 06a4 18       		.uleb128 0x18
 1263 06a5 08       		.byte	0x8
 1264 06a6 0F       		.byte	0xf
 1265 06a7 7F       		.byte	0x7f
 1266 06a8 05       		.byte	0x5
 1267 06a9 C8060000 		.4byte	0x6c8
 1268 06ad 09       		.uleb128 0x9
 1269 06ae 6E747000 		.ascii	"ntp\000"
 1270 06b2 0F       		.byte	0xf
 1271 06b3 83       		.byte	0x83
 1272 06b4 1E       		.byte	0x1e
 1273 06b5 74020000 		.4byte	0x274
 1274 06b9 00       		.byte	0
 1275 06ba 08       		.uleb128 0x8
 1276 06bb 6C060000 		.4byte	.LASF83
 1277 06bf 0F       		.byte	0xf
 1278 06c0 87       		.byte	0x87
 1279 06c1 1E       		.byte	0x1e
 1280 06c2 61030000 		.4byte	0x361
 1281 06c6 04       		.byte	0x4
 1282 06c7 00       		.byte	0
 1283 06c8 18       		.uleb128 0x18
 1284 06c9 04       		.byte	0x4
 1285 06ca 0F       		.byte	0xf
 1286 06cb 8C       		.byte	0x8c
 1287 06cc 05       		.byte	0x5
 1288 06cd DF060000 		.4byte	0x6df
 1289 06d1 08       		.uleb128 0x8
 1290 06d2 40030000 		.4byte	.LASF35
 1291 06d6 0F       		.byte	0xf
 1292 06d7 90       		.byte	0x90
 1293 06d8 1E       		.byte	0x1e
 1294 06d9 DF060000 		.4byte	0x6df
 1295 06dd 00       		.byte	0
 1296 06de 00       		.byte	0
 1297 06df 0C       		.uleb128 0xc
 1298 06e0 04       		.byte	0x4
 1299 06e1 F1060000 		.4byte	0x6f1
 1300 06e5 06       		.uleb128 0x6
 1301 06e6 DF060000 		.4byte	0x6df
 1302 06ea 04       		.uleb128 0x4
 1303 06eb 01       		.byte	0x1
 1304 06ec 08       		.byte	0x8
 1305 06ed 44070000 		.4byte	.LASF84
 1306 06f1 05       		.uleb128 0x5
 1307 06f2 EA060000 		.4byte	0x6ea
 1308 06f6 18       		.uleb128 0x18
 1309 06f7 04       		.byte	0x4
 1310 06f8 0F       		.byte	0xf
 1311 06f9 95       		.byte	0x95
ARM GAS  /tmp/ccI4Rg6S.s 			page 24


 1312 06fa 05       		.byte	0x5
 1313 06fb 0D070000 		.4byte	0x70d
 1314 06ff 08       		.uleb128 0x8
 1315 0700 B3060000 		.4byte	.LASF85
 1316 0704 0F       		.byte	0xf
 1317 0705 99       		.byte	0x99
 1318 0706 1E       		.byte	0x1e
 1319 0707 DF060000 		.4byte	0x6df
 1320 070b 00       		.byte	0
 1321 070c 00       		.byte	0
 1322 070d 18       		.uleb128 0x18
 1323 070e 08       		.byte	0x8
 1324 070f 0F       		.byte	0xf
 1325 0710 9E       		.byte	0x9e
 1326 0711 05       		.byte	0x5
 1327 0712 31070000 		.4byte	0x731
 1328 0716 09       		.uleb128 0x9
 1329 0717 75703100 		.ascii	"up1\000"
 1330 071b 0F       		.byte	0xf
 1331 071c A2       		.byte	0xa2
 1332 071d 1E       		.byte	0x1e
 1333 071e 61030000 		.4byte	0x361
 1334 0722 00       		.byte	0
 1335 0723 09       		.uleb128 0x9
 1336 0724 75703200 		.ascii	"up2\000"
 1337 0728 0F       		.byte	0xf
 1338 0729 A6       		.byte	0xa6
 1339 072a 1E       		.byte	0x1e
 1340 072b 61030000 		.4byte	0x361
 1341 072f 04       		.byte	0x4
 1342 0730 00       		.byte	0
 1343 0731 19       		.uleb128 0x19
 1344 0732 08       		.byte	0x8
 1345 0733 0F       		.byte	0xf
 1346 0734 7B       		.byte	0x7b
 1347 0735 03       		.byte	0x3
 1348 0736 6A070000 		.4byte	0x76a
 1349 073a 1A       		.uleb128 0x1a
 1350 073b 737700   		.ascii	"sw\000"
 1351 073e 0F       		.byte	0xf
 1352 073f 88       		.byte	0x88
 1353 0740 07       		.byte	0x7
 1354 0741 A4060000 		.4byte	0x6a4
 1355 0745 1A       		.uleb128 0x1a
 1356 0746 69737200 		.ascii	"isr\000"
 1357 074a 0F       		.byte	0xf
 1358 074b 91       		.byte	0x91
 1359 074c 07       		.byte	0x7
 1360 074d C8060000 		.4byte	0x6c8
 1361 0751 1B       		.uleb128 0x1b
 1362 0752 C5000000 		.4byte	.LASF86
 1363 0756 0F       		.byte	0xf
 1364 0757 9A       		.byte	0x9a
 1365 0758 07       		.byte	0x7
 1366 0759 F6060000 		.4byte	0x6f6
 1367 075d 1B       		.uleb128 0x1b
 1368 075e 02060000 		.4byte	.LASF87
ARM GAS  /tmp/ccI4Rg6S.s 			page 25


 1369 0762 0F       		.byte	0xf
 1370 0763 A7       		.byte	0xa7
 1371 0764 07       		.byte	0x7
 1372 0765 0D070000 		.4byte	0x70d
 1373 0769 00       		.byte	0
 1374 076a 18       		.uleb128 0x18
 1375 076b 10       		.byte	0x10
 1376 076c 0F       		.byte	0xf
 1377 076d 68       		.byte	0x68
 1378 076e 09       		.byte	0x9
 1379 076f BC070000 		.4byte	0x7bc
 1380 0773 1C       		.uleb128 0x1c
 1381 0774 7D000000 		.4byte	.LASF88
 1382 0778 0F       		.byte	0xf
 1383 0779 6C       		.byte	0x6c
 1384 077a 19       		.byte	0x19
 1385 077b E8000000 		.4byte	0xe8
 1386 077f 04       		.byte	0x4
 1387 0780 03       		.byte	0x3
 1388 0781 1D       		.byte	0x1d
 1389 0782 00       		.byte	0
 1390 0783 1C       		.uleb128 0x1c
 1391 0784 B2010000 		.4byte	.LASF37
 1392 0788 0F       		.byte	0xf
 1393 0789 70       		.byte	0x70
 1394 078a 19       		.byte	0x19
 1395 078b E8000000 		.4byte	0xe8
 1396 078f 04       		.byte	0x4
 1397 0790 05       		.byte	0x5
 1398 0791 18       		.byte	0x18
 1399 0792 00       		.byte	0
 1400 0793 1C       		.uleb128 0x1c
 1401 0794 F2030000 		.4byte	.LASF89
 1402 0798 0F       		.byte	0xf
 1403 0799 76       		.byte	0x76
 1404 079a 19       		.byte	0x19
 1405 079b E8000000 		.4byte	0xe8
 1406 079f 04       		.byte	0x4
 1407 07a0 18       		.byte	0x18
 1408 07a1 00       		.byte	0
 1409 07a2 00       		.byte	0
 1410 07a3 08       		.uleb128 0x8
 1411 07a4 87040000 		.4byte	.LASF90
 1412 07a8 0F       		.byte	0xf
 1413 07a9 7A       		.byte	0x7a
 1414 07aa 19       		.byte	0x19
 1415 07ab B2040000 		.4byte	0x4b2
 1416 07af 04       		.byte	0x4
 1417 07b0 09       		.uleb128 0x9
 1418 07b1 7500     		.ascii	"u\000"
 1419 07b3 0F       		.byte	0xf
 1420 07b4 A8       		.byte	0xa8
 1421 07b5 05       		.byte	0x5
 1422 07b6 31070000 		.4byte	0x731
 1423 07ba 08       		.byte	0x8
 1424 07bb 00       		.byte	0
 1425 07bc 03       		.uleb128 0x3
ARM GAS  /tmp/ccI4Rg6S.s 			page 26


 1426 07bd DE010000 		.4byte	.LASF91
 1427 07c1 0F       		.byte	0xf
 1428 07c2 A9       		.byte	0xa9
 1429 07c3 03       		.byte	0x3
 1430 07c4 6A070000 		.4byte	0x76a
 1431 07c8 1D       		.uleb128 0x1d
 1432 07c9 0808     		.2byte	0x808
 1433 07cb 0F       		.byte	0xf
 1434 07cc AF       		.byte	0xaf
 1435 07cd 09       		.byte	0x9
 1436 07ce 07080000 		.4byte	0x807
 1437 07d2 08       		.uleb128 0x8
 1438 07d3 B6000000 		.4byte	.LASF92
 1439 07d7 0F       		.byte	0xf
 1440 07d8 B3       		.byte	0xb3
 1441 07d9 19       		.byte	0x19
 1442 07da CB000000 		.4byte	0xcb
 1443 07de 00       		.byte	0
 1444 07df 08       		.uleb128 0x8
 1445 07e0 78010000 		.4byte	.LASF93
 1446 07e4 0F       		.byte	0xf
 1447 07e5 B7       		.byte	0xb7
 1448 07e6 19       		.byte	0x19
 1449 07e7 CB000000 		.4byte	0xcb
 1450 07eb 02       		.byte	0x2
 1451 07ec 09       		.uleb128 0x9
 1452 07ed 70747200 		.ascii	"ptr\000"
 1453 07f1 0F       		.byte	0xf
 1454 07f2 BB       		.byte	0xbb
 1455 07f3 1A       		.byte	0x1a
 1456 07f4 07080000 		.4byte	0x807
 1457 07f8 04       		.byte	0x4
 1458 07f9 08       		.uleb128 0x8
 1459 07fa 13020000 		.4byte	.LASF94
 1460 07fe 0F       		.byte	0xf
 1461 07ff BF       		.byte	0xbf
 1462 0800 19       		.byte	0x19
 1463 0801 0D080000 		.4byte	0x80d
 1464 0805 08       		.byte	0x8
 1465 0806 00       		.byte	0
 1466 0807 0C       		.uleb128 0xc
 1467 0808 04       		.byte	0x4
 1468 0809 BC070000 		.4byte	0x7bc
 1469 080d 16       		.uleb128 0x16
 1470 080e BC070000 		.4byte	0x7bc
 1471 0812 1D080000 		.4byte	0x81d
 1472 0816 17       		.uleb128 0x17
 1473 0817 38000000 		.4byte	0x38
 1474 081b 7F       		.byte	0x7f
 1475 081c 00       		.byte	0
 1476 081d 03       		.uleb128 0x3
 1477 081e 25060000 		.4byte	.LASF95
 1478 0822 0F       		.byte	0xf
 1479 0823 C0       		.byte	0xc0
 1480 0824 03       		.byte	0x3
 1481 0825 C8070000 		.4byte	0x7c8
 1482 0829 18       		.uleb128 0x18
ARM GAS  /tmp/ccI4Rg6S.s 			page 27


 1483 082a 04       		.byte	0x4
 1484 082b 10       		.byte	0x10
 1485 082c 38       		.byte	0x38
 1486 082d 09       		.byte	0x9
 1487 082e 40080000 		.4byte	0x840
 1488 0832 08       		.uleb128 0x8
 1489 0833 9C070000 		.4byte	.LASF96
 1490 0837 10       		.byte	0x10
 1491 0838 3C       		.byte	0x3c
 1492 0839 19       		.byte	0x19
 1493 083a 00010000 		.4byte	0x100
 1494 083e 00       		.byte	0
 1495 083f 00       		.byte	0
 1496 0840 03       		.uleb128 0x3
 1497 0841 3C040000 		.4byte	.LASF97
 1498 0845 10       		.byte	0x10
 1499 0846 3D       		.byte	0x3d
 1500 0847 03       		.byte	0x3
 1501 0848 29080000 		.4byte	0x829
 1502 084c 19       		.uleb128 0x19
 1503 084d 04       		.byte	0x4
 1504 084e 0A       		.byte	0xa
 1505 084f C6       		.byte	0xc6
 1506 0850 03       		.byte	0x3
 1507 0851 B7080000 		.4byte	0x8b7
 1508 0855 1B       		.uleb128 0x1b
 1509 0856 36000000 		.4byte	.LASF98
 1510 085a 0A       		.byte	0xa
 1511 085b CD       		.byte	0xcd
 1512 085c 19       		.byte	0x19
 1513 085d 3C010000 		.4byte	0x13c
 1514 0861 1B       		.uleb128 0x1b
 1515 0862 1A020000 		.4byte	.LASF99
 1516 0866 0A       		.byte	0xa
 1517 0867 D4       		.byte	0xd4
 1518 0868 19       		.byte	0x19
 1519 0869 3C010000 		.4byte	0x13c
 1520 086d 1B       		.uleb128 0x1b
 1521 086e 6C060000 		.4byte	.LASF83
 1522 0872 0A       		.byte	0xa
 1523 0873 DB       		.byte	0xdb
 1524 0874 1A       		.byte	0x1a
 1525 0875 61030000 		.4byte	0x361
 1526 0879 1B       		.uleb128 0x1b
 1527 087a 2C040000 		.4byte	.LASF100
 1528 087e 0A       		.byte	0xa
 1529 087f E2       		.byte	0xe2
 1530 0880 1A       		.byte	0x1a
 1531 0881 B7080000 		.4byte	0x8b7
 1532 0885 1B       		.uleb128 0x1b
 1533 0886 D5000000 		.4byte	.LASF101
 1534 088a 0A       		.byte	0xa
 1535 088b E7       		.byte	0xe7
 1536 088c 19       		.byte	0x19
 1537 088d 3C010000 		.4byte	0x13c
 1538 0891 1B       		.uleb128 0x1b
 1539 0892 E3020000 		.4byte	.LASF102
ARM GAS  /tmp/ccI4Rg6S.s 			page 28


 1540 0896 0A       		.byte	0xa
 1541 0897 F0       		.byte	0xf0
 1542 0898 1A       		.byte	0x1a
 1543 0899 E5080000 		.4byte	0x8e5
 1544 089d 1B       		.uleb128 0x1b
 1545 089e 0F070000 		.4byte	.LASF103
 1546 08a2 0A       		.byte	0xa
 1547 08a3 F9       		.byte	0xf9
 1548 08a4 1A       		.byte	0x1a
 1549 08a5 20090000 		.4byte	0x920
 1550 08a9 1E       		.uleb128 0x1e
 1551 08aa 73060000 		.4byte	.LASF104
 1552 08ae 0A       		.byte	0xa
 1553 08af 0101     		.2byte	0x101
 1554 08b1 19       		.byte	0x19
 1555 08b2 48010000 		.4byte	0x148
 1556 08b6 00       		.byte	0
 1557 08b7 0C       		.uleb128 0xc
 1558 08b8 04       		.byte	0x4
 1559 08b9 68020000 		.4byte	0x268
 1560 08bd 07       		.uleb128 0x7
 1561 08be CB060000 		.4byte	.LASF105
 1562 08c2 0C       		.byte	0xc
 1563 08c3 11       		.byte	0x11
 1564 08c4 34       		.byte	0x34
 1565 08c5 10       		.byte	0x10
 1566 08c6 E5080000 		.4byte	0x8e5
 1567 08ca 08       		.uleb128 0x8
 1568 08cb 3A030000 		.4byte	.LASF31
 1569 08cf 11       		.byte	0x11
 1570 08d0 35       		.byte	0x35
 1571 08d1 19       		.byte	0x19
 1572 08d2 A1020000 		.4byte	0x2a1
 1573 08d6 00       		.byte	0
 1574 08d7 09       		.uleb128 0x9
 1575 08d8 636E7400 		.ascii	"cnt\000"
 1576 08dc 11       		.byte	0x11
 1577 08dd 37       		.byte	0x37
 1578 08de 19       		.byte	0x19
 1579 08df 54010000 		.4byte	0x154
 1580 08e3 08       		.byte	0x8
 1581 08e4 00       		.byte	0
 1582 08e5 0C       		.uleb128 0xc
 1583 08e6 04       		.byte	0x4
 1584 08e7 BD080000 		.4byte	0x8bd
 1585 08eb 07       		.uleb128 0x7
 1586 08ec 51080000 		.4byte	.LASF106
 1587 08f0 10       		.byte	0x10
 1588 08f1 12       		.byte	0x12
 1589 08f2 39       		.byte	0x39
 1590 08f3 08       		.byte	0x8
 1591 08f4 20090000 		.4byte	0x920
 1592 08f8 08       		.uleb128 0x8
 1593 08f9 3A030000 		.4byte	.LASF31
 1594 08fd 12       		.byte	0x12
 1595 08fe 3A       		.byte	0x3a
 1596 08ff 19       		.byte	0x19
ARM GAS  /tmp/ccI4Rg6S.s 			page 29


 1597 0900 A1020000 		.4byte	0x2a1
 1598 0904 00       		.byte	0
 1599 0905 08       		.uleb128 0x8
 1600 0906 26070000 		.4byte	.LASF107
 1601 090a 12       		.byte	0x12
 1602 090b 3C       		.byte	0x3c
 1603 090c 1A       		.byte	0x1a
 1604 090d 74020000 		.4byte	0x274
 1605 0911 08       		.byte	0x8
 1606 0912 08       		.uleb128 0x8
 1607 0913 04010000 		.4byte	.LASF50
 1608 0917 12       		.byte	0x12
 1609 0918 3E       		.byte	0x3e
 1610 0919 1A       		.byte	0x1a
 1611 091a F30A0000 		.4byte	0xaf3
 1612 091e 0C       		.byte	0xc
 1613 091f 00       		.byte	0
 1614 0920 0C       		.uleb128 0xc
 1615 0921 04       		.byte	0x4
 1616 0922 EB080000 		.4byte	0x8eb
 1617 0926 0C       		.uleb128 0xc
 1618 0927 04       		.byte	0x4
 1619 0928 10050000 		.4byte	0x510
 1620 092c 0C       		.uleb128 0xc
 1621 092d 04       		.byte	0x4
 1622 092e 63030000 		.4byte	0x363
 1623 0932 1F       		.uleb128 0x1f
 1624 0933 636800   		.ascii	"ch\000"
 1625 0936 0A       		.byte	0xa
 1626 0937 C701     		.2byte	0x1c7
 1627 0939 14       		.byte	0x14
 1628 093a 4F040000 		.4byte	0x44f
 1629 093e 16       		.uleb128 0x16
 1630 093f 10050000 		.4byte	0x510
 1631 0943 49090000 		.4byte	0x949
 1632 0947 20       		.uleb128 0x20
 1633 0948 00       		.byte	0
 1634 0949 14       		.uleb128 0x14
 1635 094a E1060000 		.4byte	.LASF108
 1636 094e 03       		.byte	0x3
 1637 094f 1701     		.2byte	0x117
 1638 0951 13       		.byte	0x13
 1639 0952 3E090000 		.4byte	0x93e
 1640 0956 03       		.uleb128 0x3
 1641 0957 00000000 		.4byte	.LASF109
 1642 095b 13       		.byte	0x13
 1643 095c 34       		.byte	0x34
 1644 095d 10       		.byte	0x10
 1645 095e 50030000 		.4byte	0x350
 1646 0962 18       		.uleb128 0x18
 1647 0963 18       		.byte	0x18
 1648 0964 13       		.byte	0x13
 1649 0965 39       		.byte	0x39
 1650 0966 09       		.byte	0x9
 1651 0967 BA090000 		.4byte	0x9ba
 1652 096b 08       		.uleb128 0x8
 1653 096c 40030000 		.4byte	.LASF35
ARM GAS  /tmp/ccI4Rg6S.s 			page 30


 1654 0970 13       		.byte	0x13
 1655 0971 3D       		.byte	0x3d
 1656 0972 16       		.byte	0x16
 1657 0973 DF060000 		.4byte	0x6df
 1658 0977 00       		.byte	0
 1659 0978 08       		.uleb128 0x8
 1660 0979 67040000 		.4byte	.LASF110
 1661 097d 13       		.byte	0x13
 1662 097e 41       		.byte	0x41
 1663 097f 16       		.byte	0x16
 1664 0980 26090000 		.4byte	0x926
 1665 0984 04       		.byte	0x4
 1666 0985 08       		.uleb128 0x8
 1667 0986 C0000000 		.4byte	.LASF111
 1668 098a 13       		.byte	0x13
 1669 098b 45       		.byte	0x45
 1670 098c 16       		.byte	0x16
 1671 098d 26090000 		.4byte	0x926
 1672 0991 08       		.byte	0x8
 1673 0992 08       		.uleb128 0x8
 1674 0993 8C040000 		.4byte	.LASF32
 1675 0997 13       		.byte	0x13
 1676 0998 49       		.byte	0x49
 1677 0999 15       		.byte	0x15
 1678 099a 30010000 		.4byte	0x130
 1679 099e 0C       		.byte	0xc
 1680 099f 08       		.uleb128 0x8
 1681 09a0 3D000000 		.4byte	.LASF112
 1682 09a4 13       		.byte	0x13
 1683 09a5 4D       		.byte	0x4d
 1684 09a6 15       		.byte	0x15
 1685 09a7 56090000 		.4byte	0x956
 1686 09ab 10       		.byte	0x10
 1687 09ac 09       		.uleb128 0x9
 1688 09ad 61726700 		.ascii	"arg\000"
 1689 09b1 13       		.byte	0x13
 1690 09b2 51       		.byte	0x51
 1691 09b3 16       		.byte	0x16
 1692 09b4 61030000 		.4byte	0x361
 1693 09b8 14       		.byte	0x14
 1694 09b9 00       		.byte	0
 1695 09ba 03       		.uleb128 0x3
 1696 09bb 82000000 		.4byte	.LASF113
 1697 09bf 13       		.byte	0x13
 1698 09c0 52       		.byte	0x52
 1699 09c1 03       		.byte	0x3
 1700 09c2 62090000 		.4byte	0x962
 1701 09c6 18       		.uleb128 0x18
 1702 09c7 16       		.byte	0x16
 1703 09c8 14       		.byte	0x14
 1704 09c9 34       		.byte	0x34
 1705 09ca 09       		.byte	0x9
 1706 09cb BA0A0000 		.4byte	0xaba
 1707 09cf 08       		.uleb128 0x8
 1708 09d0 D1070000 		.4byte	.LASF114
 1709 09d4 14       		.byte	0x14
 1710 09d5 35       		.byte	0x35
ARM GAS  /tmp/ccI4Rg6S.s 			page 31


 1711 09d6 0D       		.byte	0xd
 1712 09d7 BA0A0000 		.4byte	0xaba
 1713 09db 00       		.byte	0
 1714 09dc 08       		.uleb128 0x8
 1715 09dd 80020000 		.4byte	.LASF115
 1716 09e1 14       		.byte	0x14
 1717 09e2 36       		.byte	0x36
 1718 09e3 0D       		.byte	0xd
 1719 09e4 BA000000 		.4byte	0xba
 1720 09e8 04       		.byte	0x4
 1721 09e9 08       		.uleb128 0x8
 1722 09ea 78010000 		.4byte	.LASF93
 1723 09ee 14       		.byte	0x14
 1724 09ef 37       		.byte	0x37
 1725 09f0 0D       		.byte	0xd
 1726 09f1 BA000000 		.4byte	0xba
 1727 09f5 05       		.byte	0x5
 1728 09f6 08       		.uleb128 0x8
 1729 09f7 03040000 		.4byte	.LASF116
 1730 09fb 14       		.byte	0x14
 1731 09fc 38       		.byte	0x38
 1732 09fd 0D       		.byte	0xd
 1733 09fe CB000000 		.4byte	0xcb
 1734 0a02 06       		.byte	0x6
 1735 0a03 08       		.uleb128 0x8
 1736 0a04 EF070000 		.4byte	.LASF117
 1737 0a08 14       		.byte	0x14
 1738 0a09 39       		.byte	0x39
 1739 0a0a 0D       		.byte	0xd
 1740 0a0b BA000000 		.4byte	0xba
 1741 0a0f 08       		.byte	0x8
 1742 0a10 08       		.uleb128 0x8
 1743 0a11 F3060000 		.4byte	.LASF118
 1744 0a15 14       		.byte	0x14
 1745 0a16 3A       		.byte	0x3a
 1746 0a17 0D       		.byte	0xd
 1747 0a18 BA000000 		.4byte	0xba
 1748 0a1c 09       		.byte	0x9
 1749 0a1d 08       		.uleb128 0x8
 1750 0a1e BD050000 		.4byte	.LASF119
 1751 0a22 14       		.byte	0x14
 1752 0a23 3B       		.byte	0x3b
 1753 0a24 0D       		.byte	0xd
 1754 0a25 BA000000 		.4byte	0xba
 1755 0a29 0A       		.byte	0xa
 1756 0a2a 08       		.uleb128 0x8
 1757 0a2b 37060000 		.4byte	.LASF120
 1758 0a2f 14       		.byte	0x14
 1759 0a30 3C       		.byte	0x3c
 1760 0a31 0D       		.byte	0xd
 1761 0a32 BA000000 		.4byte	0xba
 1762 0a36 0B       		.byte	0xb
 1763 0a37 08       		.uleb128 0x8
 1764 0a38 8E030000 		.4byte	.LASF121
 1765 0a3c 14       		.byte	0x14
 1766 0a3d 3D       		.byte	0x3d
 1767 0a3e 0D       		.byte	0xd
ARM GAS  /tmp/ccI4Rg6S.s 			page 32


 1768 0a3f BA000000 		.4byte	0xba
 1769 0a43 0C       		.byte	0xc
 1770 0a44 08       		.uleb128 0x8
 1771 0a45 32040000 		.4byte	.LASF122
 1772 0a49 14       		.byte	0x14
 1773 0a4a 3E       		.byte	0x3e
 1774 0a4b 0D       		.byte	0xd
 1775 0a4c BA000000 		.4byte	0xba
 1776 0a50 0D       		.byte	0xd
 1777 0a51 08       		.uleb128 0x8
 1778 0a52 B6070000 		.4byte	.LASF123
 1779 0a56 14       		.byte	0x14
 1780 0a57 3F       		.byte	0x3f
 1781 0a58 0D       		.byte	0xd
 1782 0a59 BA000000 		.4byte	0xba
 1783 0a5d 0E       		.byte	0xe
 1784 0a5e 08       		.uleb128 0x8
 1785 0a5f B8030000 		.4byte	.LASF124
 1786 0a63 14       		.byte	0x14
 1787 0a64 40       		.byte	0x40
 1788 0a65 0D       		.byte	0xd
 1789 0a66 BA000000 		.4byte	0xba
 1790 0a6a 0F       		.byte	0xf
 1791 0a6b 08       		.uleb128 0x8
 1792 0a6c 40060000 		.4byte	.LASF125
 1793 0a70 14       		.byte	0x14
 1794 0a71 41       		.byte	0x41
 1795 0a72 0D       		.byte	0xd
 1796 0a73 BA000000 		.4byte	0xba
 1797 0a77 10       		.byte	0x10
 1798 0a78 08       		.uleb128 0x8
 1799 0a79 72080000 		.4byte	.LASF126
 1800 0a7d 14       		.byte	0x14
 1801 0a7e 42       		.byte	0x42
 1802 0a7f 0D       		.byte	0xd
 1803 0a80 BA000000 		.4byte	0xba
 1804 0a84 11       		.byte	0x11
 1805 0a85 08       		.uleb128 0x8
 1806 0a86 95080000 		.4byte	.LASF127
 1807 0a8a 14       		.byte	0x14
 1808 0a8b 43       		.byte	0x43
 1809 0a8c 0D       		.byte	0xd
 1810 0a8d BA000000 		.4byte	0xba
 1811 0a91 12       		.byte	0x12
 1812 0a92 08       		.uleb128 0x8
 1813 0a93 45030000 		.4byte	.LASF128
 1814 0a97 14       		.byte	0x14
 1815 0a98 44       		.byte	0x44
 1816 0a99 0D       		.byte	0xd
 1817 0a9a BA000000 		.4byte	0xba
 1818 0a9e 13       		.byte	0x13
 1819 0a9f 08       		.uleb128 0x8
 1820 0aa0 07020000 		.4byte	.LASF129
 1821 0aa4 14       		.byte	0x14
 1822 0aa5 45       		.byte	0x45
 1823 0aa6 0D       		.byte	0xd
 1824 0aa7 BA000000 		.4byte	0xba
ARM GAS  /tmp/ccI4Rg6S.s 			page 33


 1825 0aab 14       		.byte	0x14
 1826 0aac 08       		.uleb128 0x8
 1827 0aad D8060000 		.4byte	.LASF130
 1828 0ab1 14       		.byte	0x14
 1829 0ab2 46       		.byte	0x46
 1830 0ab3 0D       		.byte	0xd
 1831 0ab4 BA000000 		.4byte	0xba
 1832 0ab8 15       		.byte	0x15
 1833 0ab9 00       		.byte	0
 1834 0aba 16       		.uleb128 0x16
 1835 0abb EA060000 		.4byte	0x6ea
 1836 0abf CA0A0000 		.4byte	0xaca
 1837 0ac3 17       		.uleb128 0x17
 1838 0ac4 38000000 		.4byte	0x38
 1839 0ac8 03       		.byte	0x3
 1840 0ac9 00       		.byte	0
 1841 0aca 03       		.uleb128 0x3
 1842 0acb FD010000 		.4byte	.LASF131
 1843 0acf 14       		.byte	0x14
 1844 0ad0 47       		.byte	0x47
 1845 0ad1 03       		.byte	0x3
 1846 0ad2 C6090000 		.4byte	0x9c6
 1847 0ad6 05       		.uleb128 0x5
 1848 0ad7 CA0A0000 		.4byte	0xaca
 1849 0adb 15       		.uleb128 0x15
 1850 0adc 23030000 		.4byte	.LASF132
 1851 0ae0 14       		.byte	0x14
 1852 0ae1 6C       		.byte	0x6c
 1853 0ae2 1D       		.byte	0x1d
 1854 0ae3 D60A0000 		.4byte	0xad6
 1855 0ae7 03       		.uleb128 0x3
 1856 0ae8 85020000 		.4byte	.LASF133
 1857 0aec 12       		.byte	0x12
 1858 0aed 34       		.byte	0x34
 1859 0aee 19       		.byte	0x19
 1860 0aef EB080000 		.4byte	0x8eb
 1861 0af3 0C       		.uleb128 0xc
 1862 0af4 04       		.byte	0x4
 1863 0af5 E70A0000 		.4byte	0xae7
 1864 0af9 04       		.uleb128 0x4
 1865 0afa 01       		.byte	0x1
 1866 0afb 02       		.byte	0x2
 1867 0afc 17060000 		.4byte	.LASF134
 1868 0b00 03       		.uleb128 0x3
 1869 0b01 A9000000 		.4byte	.LASF135
 1870 0b05 15       		.byte	0x15
 1871 0b06 47       		.byte	0x47
 1872 0b07 11       		.byte	0x11
 1873 0b08 0C0B0000 		.4byte	0xb0c
 1874 0b0c 0C       		.uleb128 0xc
 1875 0b0d 04       		.byte	0x4
 1876 0b0e 120B0000 		.4byte	0xb12
 1877 0b12 21       		.uleb128 0x21
 1878 0b13 61030000 		.4byte	0x361
 1879 0b17 260B0000 		.4byte	0xb26
 1880 0b1b 0F       		.uleb128 0xf
 1881 0b1c 2C000000 		.4byte	0x2c
ARM GAS  /tmp/ccI4Rg6S.s 			page 34


 1882 0b20 0F       		.uleb128 0xf
 1883 0b21 38000000 		.4byte	0x38
 1884 0b25 00       		.byte	0
 1885 0b26 03       		.uleb128 0x3
 1886 0b27 79040000 		.4byte	.LASF136
 1887 0b2b 15       		.byte	0x15
 1888 0b2c 4C       		.byte	0x4c
 1889 0b2d 11       		.byte	0x11
 1890 0b2e 320B0000 		.4byte	0xb32
 1891 0b32 0C       		.uleb128 0xc
 1892 0b33 04       		.byte	0x4
 1893 0b34 380B0000 		.4byte	0xb38
 1894 0b38 21       		.uleb128 0x21
 1895 0b39 61030000 		.4byte	0x361
 1896 0b3d 510B0000 		.4byte	0xb51
 1897 0b41 0F       		.uleb128 0xf
 1898 0b42 2C000000 		.4byte	0x2c
 1899 0b46 0F       		.uleb128 0xf
 1900 0b47 38000000 		.4byte	0x38
 1901 0b4b 0F       		.uleb128 0xf
 1902 0b4c 2C000000 		.4byte	0x2c
 1903 0b50 00       		.byte	0
 1904 0b51 18       		.uleb128 0x18
 1905 0b52 08       		.byte	0x8
 1906 0b53 15       		.byte	0x15
 1907 0b54 51       		.byte	0x51
 1908 0b55 09       		.byte	0x9
 1909 0b56 750B0000 		.4byte	0xb75
 1910 0b5a 08       		.uleb128 0x8
 1911 0b5b 44010000 		.4byte	.LASF137
 1912 0b5f 15       		.byte	0x15
 1913 0b60 55       		.byte	0x55
 1914 0b61 0C       		.byte	0xc
 1915 0b62 750B0000 		.4byte	0xb75
 1916 0b66 00       		.byte	0
 1917 0b67 08       		.uleb128 0x8
 1918 0b68 1C030000 		.4byte	.LASF138
 1919 0b6c 15       		.byte	0x15
 1920 0b6d 59       		.byte	0x59
 1921 0b6e 0C       		.byte	0xc
 1922 0b6f 750B0000 		.4byte	0xb75
 1923 0b73 04       		.byte	0x4
 1924 0b74 00       		.byte	0
 1925 0b75 0C       		.uleb128 0xc
 1926 0b76 04       		.byte	0x4
 1927 0b77 BA000000 		.4byte	0xba
 1928 0b7b 03       		.uleb128 0x3
 1929 0b7c A4040000 		.4byte	.LASF139
 1930 0b80 15       		.byte	0x15
 1931 0b81 5A       		.byte	0x5a
 1932 0b82 03       		.byte	0x3
 1933 0b83 510B0000 		.4byte	0xb51
 1934 0b87 15       		.uleb128 0x15
 1935 0b88 21040000 		.4byte	.LASF140
 1936 0b8c 15       		.byte	0x15
 1937 0b8d 75       		.byte	0x75
 1938 0b8e 12       		.byte	0x12
ARM GAS  /tmp/ccI4Rg6S.s 			page 35


 1939 0b8f 7B0B0000 		.4byte	0xb7b
 1940 0b93 03       		.uleb128 0x3
 1941 0b94 EC050000 		.4byte	.LASF141
 1942 0b98 16       		.byte	0x16
 1943 0b99 48       		.byte	0x48
 1944 0b9a 1C       		.byte	0x1c
 1945 0b9b 9F0B0000 		.4byte	0xb9f
 1946 0b9f 07       		.uleb128 0x7
 1947 0ba0 AE080000 		.4byte	.LASF142
 1948 0ba4 1C       		.byte	0x1c
 1949 0ba5 16       		.byte	0x16
 1950 0ba6 60       		.byte	0x60
 1951 0ba7 08       		.byte	0x8
 1952 0ba8 D40B0000 		.4byte	0xbd4
 1953 0bac 08       		.uleb128 0x8
 1954 0bad 74000000 		.4byte	.LASF143
 1955 0bb1 16       		.byte	0x16
 1956 0bb2 61       		.byte	0x61
 1957 0bb3 19       		.byte	0x19
 1958 0bb4 260B0000 		.4byte	0xb26
 1959 0bb8 00       		.byte	0
 1960 0bb9 08       		.uleb128 0x8
 1961 0bba A7080000 		.4byte	.LASF144
 1962 0bbe 16       		.byte	0x16
 1963 0bbf 63       		.byte	0x63
 1964 0bc0 19       		.byte	0x19
 1965 0bc1 D40B0000 		.4byte	0xbd4
 1966 0bc5 04       		.byte	0x4
 1967 0bc6 09       		.uleb128 0x9
 1968 0bc7 6D747800 		.ascii	"mtx\000"
 1969 0bcb 16       		.byte	0x16
 1970 0bcc 65       		.byte	0x65
 1971 0bcd 19       		.byte	0x19
 1972 0bce E70A0000 		.4byte	0xae7
 1973 0bd2 0C       		.byte	0xc
 1974 0bd3 00       		.byte	0
 1975 0bd4 03       		.uleb128 0x3
 1976 0bd5 76070000 		.4byte	.LASF145
 1977 0bd9 16       		.byte	0x16
 1978 0bda 4D       		.byte	0x4d
 1979 0bdb 1B       		.byte	0x1b
 1980 0bdc E00B0000 		.4byte	0xbe0
 1981 0be0 22       		.uleb128 0x22
 1982 0be1 60060000 		.4byte	.LASF185
 1983 0be5 08       		.byte	0x8
 1984 0be6 16       		.byte	0x16
 1985 0be7 52       		.byte	0x52
 1986 0be8 07       		.byte	0x7
 1987 0be9 060C0000 		.4byte	0xc06
 1988 0bed 1B       		.uleb128 0x1b
 1989 0bee CC070000 		.4byte	.LASF146
 1990 0bf2 16       		.byte	0x16
 1991 0bf3 56       		.byte	0x56
 1992 0bf4 05       		.byte	0x5
 1993 0bf5 060C0000 		.4byte	0xc06
 1994 0bf9 1B       		.uleb128 0x1b
 1995 0bfa 80050000 		.4byte	.LASF147
ARM GAS  /tmp/ccI4Rg6S.s 			page 36


 1996 0bfe 16       		.byte	0x16
 1997 0bff 5A       		.byte	0x5a
 1998 0c00 05       		.byte	0x5
 1999 0c01 300C0000 		.4byte	0xc30
 2000 0c05 00       		.byte	0
 2001 0c06 18       		.uleb128 0x18
 2002 0c07 08       		.byte	0x8
 2003 0c08 16       		.byte	0x16
 2004 0c09 53       		.byte	0x53
 2005 0c0a 03       		.byte	0x3
 2006 0c0b 2A0C0000 		.4byte	0xc2a
 2007 0c0f 08       		.uleb128 0x8
 2008 0c10 04010000 		.4byte	.LASF50
 2009 0c14 16       		.byte	0x16
 2010 0c15 54       		.byte	0x54
 2011 0c16 1A       		.byte	0x1a
 2012 0c17 2A0C0000 		.4byte	0xc2a
 2013 0c1b 00       		.byte	0
 2014 0c1c 08       		.uleb128 0x8
 2015 0c1d 67000000 		.4byte	.LASF148
 2016 0c21 16       		.byte	0x16
 2017 0c22 55       		.byte	0x55
 2018 0c23 19       		.byte	0x19
 2019 0c24 2C000000 		.4byte	0x2c
 2020 0c28 04       		.byte	0x4
 2021 0c29 00       		.byte	0
 2022 0c2a 0C       		.uleb128 0xc
 2023 0c2b 04       		.byte	0x4
 2024 0c2c D40B0000 		.4byte	0xbd4
 2025 0c30 18       		.uleb128 0x18
 2026 0c31 08       		.byte	0x8
 2027 0c32 16       		.byte	0x16
 2028 0c33 57       		.byte	0x57
 2029 0c34 03       		.byte	0x3
 2030 0c35 540C0000 		.4byte	0xc54
 2031 0c39 08       		.uleb128 0x8
 2032 0c3a 2C070000 		.4byte	.LASF149
 2033 0c3e 16       		.byte	0x16
 2034 0c3f 58       		.byte	0x58
 2035 0c40 1A       		.byte	0x1a
 2036 0c41 540C0000 		.4byte	0xc54
 2037 0c45 00       		.byte	0
 2038 0c46 08       		.uleb128 0x8
 2039 0c47 78010000 		.4byte	.LASF93
 2040 0c4b 16       		.byte	0x16
 2041 0c4c 59       		.byte	0x59
 2042 0c4d 19       		.byte	0x19
 2043 0c4e 2C000000 		.4byte	0x2c
 2044 0c52 04       		.byte	0x4
 2045 0c53 00       		.byte	0
 2046 0c54 0C       		.uleb128 0xc
 2047 0c55 04       		.byte	0x4
 2048 0c56 930B0000 		.4byte	0xb93
 2049 0c5a 07       		.uleb128 0x7
 2050 0c5b 07080000 		.4byte	.LASF150
 2051 0c5f 04       		.byte	0x4
 2052 0c60 17       		.byte	0x17
ARM GAS  /tmp/ccI4Rg6S.s 			page 37


 2053 0c61 38       		.byte	0x38
 2054 0c62 08       		.byte	0x8
 2055 0c63 750C0000 		.4byte	0xc75
 2056 0c67 08       		.uleb128 0x8
 2057 0c68 04010000 		.4byte	.LASF50
 2058 0c6c 17       		.byte	0x17
 2059 0c6d 39       		.byte	0x39
 2060 0c6e 1A       		.byte	0x1a
 2061 0c6f 750C0000 		.4byte	0xc75
 2062 0c73 00       		.byte	0
 2063 0c74 00       		.byte	0
 2064 0c75 0C       		.uleb128 0xc
 2065 0c76 04       		.byte	0x4
 2066 0c77 5A0C0000 		.4byte	0xc5a
 2067 0c7b 18       		.uleb128 0x18
 2068 0c7c 10       		.byte	0x10
 2069 0c7d 17       		.byte	0x17
 2070 0c7e 40       		.byte	0x40
 2071 0c7f 09       		.byte	0x9
 2072 0c80 B90C0000 		.4byte	0xcb9
 2073 0c84 08       		.uleb128 0x8
 2074 0c85 04010000 		.4byte	.LASF50
 2075 0c89 17       		.byte	0x17
 2076 0c8a 41       		.byte	0x41
 2077 0c8b 1A       		.byte	0x1a
 2078 0c8c 750C0000 		.4byte	0xc75
 2079 0c90 00       		.byte	0
 2080 0c91 08       		.uleb128 0x8
 2081 0c92 6D040000 		.4byte	.LASF151
 2082 0c96 17       		.byte	0x17
 2083 0c97 42       		.byte	0x42
 2084 0c98 19       		.byte	0x19
 2085 0c99 2C000000 		.4byte	0x2c
 2086 0c9d 04       		.byte	0x4
 2087 0c9e 08       		.uleb128 0x8
 2088 0c9f 8D020000 		.4byte	.LASF152
 2089 0ca3 17       		.byte	0x17
 2090 0ca4 44       		.byte	0x44
 2091 0ca5 19       		.byte	0x19
 2092 0ca6 38000000 		.4byte	0x38
 2093 0caa 08       		.byte	0x8
 2094 0cab 08       		.uleb128 0x8
 2095 0cac 74000000 		.4byte	.LASF143
 2096 0cb0 17       		.byte	0x17
 2097 0cb1 45       		.byte	0x45
 2098 0cb2 19       		.byte	0x19
 2099 0cb3 000B0000 		.4byte	0xb00
 2100 0cb7 0C       		.byte	0xc
 2101 0cb8 00       		.byte	0
 2102 0cb9 03       		.uleb128 0x3
 2103 0cba 2C030000 		.4byte	.LASF153
 2104 0cbe 17       		.byte	0x17
 2105 0cbf 47       		.byte	0x47
 2106 0cc0 03       		.byte	0x3
 2107 0cc1 7B0C0000 		.4byte	0xc7b
 2108 0cc5 07       		.uleb128 0x7
 2109 0cc6 DD050000 		.4byte	.LASF154
ARM GAS  /tmp/ccI4Rg6S.s 			page 38


 2110 0cca 10       		.byte	0x10
 2111 0ccb 18       		.byte	0x18
 2112 0ccc A9       		.byte	0xa9
 2113 0ccd 10       		.byte	0x10
 2114 0cce FA0C0000 		.4byte	0xcfa
 2115 0cd2 08       		.uleb128 0x8
 2116 0cd3 04010000 		.4byte	.LASF50
 2117 0cd7 18       		.byte	0x18
 2118 0cd8 AD       		.byte	0xad
 2119 0cd9 1A       		.byte	0x1a
 2120 0cda FA0C0000 		.4byte	0xcfa
 2121 0cde 00       		.byte	0
 2122 0cdf 08       		.uleb128 0x8
 2123 0ce0 C8050000 		.4byte	.LASF39
 2124 0ce4 18       		.byte	0x18
 2125 0ce5 B1       		.byte	0xb1
 2126 0ce6 19       		.byte	0x19
 2127 0ce7 60010000 		.4byte	0x160
 2128 0ceb 04       		.byte	0x4
 2129 0cec 08       		.uleb128 0x8
 2130 0ced 40030000 		.4byte	.LASF35
 2131 0cf1 18       		.byte	0x18
 2132 0cf2 B3       		.byte	0xb3
 2133 0cf3 19       		.byte	0x19
 2134 0cf4 000D0000 		.4byte	0xd00
 2135 0cf8 08       		.byte	0x8
 2136 0cf9 00       		.byte	0
 2137 0cfa 0C       		.uleb128 0xc
 2138 0cfb 04       		.byte	0x4
 2139 0cfc C50C0000 		.4byte	0xcc5
 2140 0d00 16       		.uleb128 0x16
 2141 0d01 EA060000 		.4byte	0x6ea
 2142 0d05 100D0000 		.4byte	0xd10
 2143 0d09 17       		.uleb128 0x17
 2144 0d0a 38000000 		.4byte	0x38
 2145 0d0e 07       		.byte	0x7
 2146 0d0f 00       		.byte	0
 2147 0d10 03       		.uleb128 0x3
 2148 0d11 13040000 		.4byte	.LASF155
 2149 0d15 18       		.byte	0x18
 2150 0d16 B7       		.byte	0xb7
 2151 0d17 03       		.byte	0x3
 2152 0d18 C50C0000 		.4byte	0xcc5
 2153 0d1c 07       		.uleb128 0x7
 2154 0d1d C0070000 		.4byte	.LASF156
 2155 0d21 04       		.byte	0x4
 2156 0d22 18       		.byte	0x18
 2157 0d23 BC       		.byte	0xbc
 2158 0d24 10       		.byte	0x10
 2159 0d25 370D0000 		.4byte	0xd37
 2160 0d29 08       		.uleb128 0x8
 2161 0d2a 04010000 		.4byte	.LASF50
 2162 0d2e 18       		.byte	0x18
 2163 0d2f BD       		.byte	0xbd
 2164 0d30 1A       		.byte	0x1a
 2165 0d31 370D0000 		.4byte	0xd37
 2166 0d35 00       		.byte	0
ARM GAS  /tmp/ccI4Rg6S.s 			page 39


 2167 0d36 00       		.byte	0
 2168 0d37 0C       		.uleb128 0xc
 2169 0d38 04       		.byte	0x4
 2170 0d39 100D0000 		.4byte	0xd10
 2171 0d3d 03       		.uleb128 0x3
 2172 0d3e 77030000 		.4byte	.LASF157
 2173 0d42 18       		.byte	0x18
 2174 0d43 BE       		.byte	0xbe
 2175 0d44 03       		.byte	0x3
 2176 0d45 1C0D0000 		.4byte	0xd1c
 2177 0d49 0D       		.uleb128 0xd
 2178 0d4a 23000000 		.4byte	.LASF158
 2179 0d4e 48       		.byte	0x48
 2180 0d4f 18       		.byte	0x18
 2181 0d50 2001     		.2byte	0x120
 2182 0d52 10       		.byte	0x10
 2183 0d53 D60D0000 		.4byte	0xdd6
 2184 0d57 0A       		.uleb128 0xa
 2185 0d58 6D747800 		.ascii	"mtx\000"
 2186 0d5c 18       		.byte	0x18
 2187 0d5d 2501     		.2byte	0x125
 2188 0d5f 19       		.byte	0x19
 2189 0d60 E70A0000 		.4byte	0xae7
 2190 0d64 00       		.byte	0
 2191 0d65 0B       		.uleb128 0xb
 2192 0d66 4F070000 		.4byte	.LASF159
 2193 0d6a 18       		.byte	0x18
 2194 0d6b 2C01     		.2byte	0x12c
 2195 0d6d 19       		.byte	0x19
 2196 0d6e 3D0D0000 		.4byte	0xd3d
 2197 0d72 10       		.byte	0x10
 2198 0d73 0B       		.uleb128 0xb
 2199 0d74 AA060000 		.4byte	.LASF160
 2200 0d78 18       		.byte	0x18
 2201 0d79 3001     		.2byte	0x130
 2202 0d7b 19       		.byte	0x19
 2203 0d7c B90C0000 		.4byte	0xcb9
 2204 0d80 14       		.byte	0x14
 2205 0d81 0B       		.uleb128 0xb
 2206 0d82 4E030000 		.4byte	.LASF161
 2207 0d86 18       		.byte	0x18
 2208 0d87 3501     		.2byte	0x135
 2209 0d89 19       		.byte	0x19
 2210 0d8a 3D0D0000 		.4byte	0xd3d
 2211 0d8e 24       		.byte	0x24
 2212 0d8f 0B       		.uleb128 0xb
 2213 0d90 96000000 		.4byte	.LASF162
 2214 0d94 18       		.byte	0x18
 2215 0d95 3B01     		.2byte	0x13b
 2216 0d97 19       		.byte	0x19
 2217 0d98 3D0D0000 		.4byte	0xd3d
 2218 0d9c 28       		.byte	0x28
 2219 0d9d 0B       		.uleb128 0xb
 2220 0d9e 19080000 		.4byte	.LASF163
 2221 0da2 18       		.byte	0x18
 2222 0da3 3F01     		.2byte	0x13f
 2223 0da5 19       		.byte	0x19
ARM GAS  /tmp/ccI4Rg6S.s 			page 40


 2224 0da6 B90C0000 		.4byte	0xcb9
 2225 0daa 2C       		.byte	0x2c
 2226 0dab 0B       		.uleb128 0xb
 2227 0dac 1A010000 		.4byte	.LASF164
 2228 0db0 18       		.byte	0x18
 2229 0db1 4501     		.2byte	0x145
 2230 0db3 19       		.byte	0x19
 2231 0db4 3D0D0000 		.4byte	0xd3d
 2232 0db8 3C       		.byte	0x3c
 2233 0db9 0B       		.uleb128 0xb
 2234 0dba 34080000 		.4byte	.LASF165
 2235 0dbe 18       		.byte	0x18
 2236 0dbf 4B01     		.2byte	0x14b
 2237 0dc1 19       		.byte	0x19
 2238 0dc2 3D0D0000 		.4byte	0xd3d
 2239 0dc6 40       		.byte	0x40
 2240 0dc7 0B       		.uleb128 0xb
 2241 0dc8 FC060000 		.4byte	.LASF166
 2242 0dcc 18       		.byte	0x18
 2243 0dcd 5101     		.2byte	0x151
 2244 0dcf 19       		.byte	0x19
 2245 0dd0 3D0D0000 		.4byte	0xd3d
 2246 0dd4 44       		.byte	0x44
 2247 0dd5 00       		.byte	0
 2248 0dd6 23       		.uleb128 0x23
 2249 0dd7 0A030000 		.4byte	.LASF167
 2250 0ddb 18       		.byte	0x18
 2251 0ddc 5301     		.2byte	0x153
 2252 0dde 03       		.byte	0x3
 2253 0ddf 490D0000 		.4byte	0xd49
 2254 0de3 14       		.uleb128 0x14
 2255 0de4 95060000 		.4byte	.LASF168
 2256 0de8 18       		.byte	0x18
 2257 0de9 5E01     		.2byte	0x15e
 2258 0deb 1A       		.byte	0x1a
 2259 0dec D60D0000 		.4byte	0xdd6
 2260 0df0 24       		.uleb128 0x24
 2261 0df1 4D040000 		.4byte	.LASF169
 2262 0df5 01       		.byte	0x1
 2263 0df6 91       		.byte	0x91
 2264 0df7 0B       		.byte	0xb
 2265 0df8 74020000 		.4byte	0x274
 2266 0dfc 50000000 		.4byte	.LFB324
 2267 0e00 54000000 		.4byte	.LFE324-.LFB324
 2268 0e04 01       		.uleb128 0x1
 2269 0e05 9C       		.byte	0x9c
 2270 0e06 7F0F0000 		.4byte	0xf7f
 2271 0e0a 25       		.uleb128 0x25
 2272 0e0b 6D7000   		.ascii	"mp\000"
 2273 0e0e 01       		.byte	0x1
 2274 0e0f 91       		.byte	0x91
 2275 0e10 34       		.byte	0x34
 2276 0e11 7F0F0000 		.4byte	0xf7f
 2277 0e15 04000000 		.4byte	.LLST8
 2278 0e19 00000000 		.4byte	.LVUS8
 2279 0e1d 26       		.uleb128 0x26
 2280 0e1e 40030000 		.4byte	.LASF35
ARM GAS  /tmp/ccI4Rg6S.s 			page 41


 2281 0e22 01       		.byte	0x1
 2282 0e23 91       		.byte	0x91
 2283 0e24 44       		.byte	0x44
 2284 0e25 DF060000 		.4byte	0x6df
 2285 0e29 26000000 		.4byte	.LLST9
 2286 0e2d 22000000 		.4byte	.LVUS9
 2287 0e31 26       		.uleb128 0x26
 2288 0e32 8C040000 		.4byte	.LASF32
 2289 0e36 01       		.byte	0x1
 2290 0e37 92       		.byte	0x92
 2291 0e38 2D       		.byte	0x2d
 2292 0e39 30010000 		.4byte	0x130
 2293 0e3d 48000000 		.4byte	.LLST10
 2294 0e41 44000000 		.4byte	.LVUS10
 2295 0e45 25       		.uleb128 0x25
 2296 0e46 706600   		.ascii	"pf\000"
 2297 0e49 01       		.byte	0x1
 2298 0e4a 92       		.byte	0x92
 2299 0e4b 3B       		.byte	0x3b
 2300 0e4c 56090000 		.4byte	0x956
 2301 0e50 6A000000 		.4byte	.LLST11
 2302 0e54 66000000 		.4byte	.LVUS11
 2303 0e58 27       		.uleb128 0x27
 2304 0e59 61726700 		.ascii	"arg\000"
 2305 0e5d 01       		.byte	0x1
 2306 0e5e 92       		.byte	0x92
 2307 0e5f 45       		.byte	0x45
 2308 0e60 61030000 		.4byte	0x361
 2309 0e64 02       		.uleb128 0x2
 2310 0e65 91       		.byte	0x91
 2311 0e66 00       		.sleb128 0
 2312 0e67 28       		.uleb128 0x28
 2313 0e68 747000   		.ascii	"tp\000"
 2314 0e6b 01       		.byte	0x1
 2315 0e6c 93       		.byte	0x93
 2316 0e6d 0D       		.byte	0xd
 2317 0e6e 74020000 		.4byte	0x274
 2318 0e72 8C000000 		.4byte	.LLST12
 2319 0e76 88000000 		.4byte	.LVUS12
 2320 0e7a 28       		.uleb128 0x28
 2321 0e7b 77737000 		.ascii	"wsp\000"
 2322 0e7f 01       		.byte	0x1
 2323 0e80 94       		.byte	0x94
 2324 0e81 09       		.byte	0x9
 2325 0e82 61030000 		.4byte	0x361
 2326 0e86 AE000000 		.4byte	.LLST13
 2327 0e8a AA000000 		.4byte	.LVUS13
 2328 0e8e 29       		.uleb128 0x29
 2329 0e8f 8C060000 		.4byte	.LASF172
 2330 0e93 950F0000 		.4byte	0xf95
 2331 0e97 2A       		.uleb128 0x2a
 2332 0e98 746400   		.ascii	"td\000"
 2333 0e9b 01       		.byte	0x1
 2334 0e9c 9D       		.byte	0x9d
 2335 0e9d 17       		.byte	0x17
 2336 0e9e BA090000 		.4byte	0x9ba
 2337 0ea2 02       		.uleb128 0x2
ARM GAS  /tmp/ccI4Rg6S.s 			page 42


 2338 0ea3 91       		.byte	0x91
 2339 0ea4 50       		.sleb128 -48
 2340 0ea5 2B       		.uleb128 0x2b
 2341 0ea6 69110000 		.4byte	0x1169
 2342 0eaa 76000000 		.4byte	.LBI53
 2343 0eae 01       		.byte	.LVU67
 2344 0eaf 78000000 		.4byte	.Ldebug_ranges0+0x78
 2345 0eb3 01       		.byte	0x1
 2346 0eb4 AC       		.byte	0xac
 2347 0eb5 03       		.byte	0x3
 2348 0eb6 EE0E0000 		.4byte	0xeee
 2349 0eba 2C       		.uleb128 0x2c
 2350 0ebb 7D110000 		.4byte	0x117d
 2351 0ebf 76000000 		.4byte	.LBI54
 2352 0ec3 03       		.byte	.LVU69
 2353 0ec4 A8000000 		.4byte	.Ldebug_ranges0+0xa8
 2354 0ec8 03       		.byte	0x3
 2355 0ec9 6301     		.2byte	0x163
 2356 0ecb 03       		.byte	0x3
 2357 0ecc 2C       		.uleb128 0x2c
 2358 0ecd 87110000 		.4byte	0x1187
 2359 0ed1 76000000 		.4byte	.LBI55
 2360 0ed5 05       		.byte	.LVU71
 2361 0ed6 D0000000 		.4byte	.Ldebug_ranges0+0xd0
 2362 0eda 04       		.byte	0x4
 2363 0edb A502     		.2byte	0x2a5
 2364 0edd 03       		.byte	0x3
 2365 0ede 2D       		.uleb128 0x2d
 2366 0edf 95110000 		.4byte	0x1195
 2367 0ee3 CE000000 		.4byte	.LLST14
 2368 0ee7 CC000000 		.4byte	.LVUS14
 2369 0eeb 00       		.byte	0
 2370 0eec 00       		.byte	0
 2371 0eed 00       		.byte	0
 2372 0eee 2B       		.uleb128 0x2b
 2373 0eef 3C110000 		.4byte	0x113c
 2374 0ef3 96000000 		.4byte	.LBI68
 2375 0ef7 01       		.byte	.LVU89
 2376 0ef8 F0000000 		.4byte	.Ldebug_ranges0+0xf0
 2377 0efc 01       		.byte	0x1
 2378 0efd B1       		.byte	0xb1
 2379 0efe 03       		.byte	0x3
 2380 0eff 410F0000 		.4byte	0xf41
 2381 0f03 2E       		.uleb128 0x2e
 2382 0f04 F0000000 		.4byte	.Ldebug_ranges0+0xf0
 2383 0f08 2C       		.uleb128 0x2c
 2384 0f09 73110000 		.4byte	0x1173
 2385 0f0d 96000000 		.4byte	.LBI70
 2386 0f11 07       		.byte	.LVU95
 2387 0f12 F0000000 		.4byte	.Ldebug_ranges0+0xf0
 2388 0f16 03       		.byte	0x3
 2389 0f17 7A01     		.2byte	0x17a
 2390 0f19 03       		.byte	0x3
 2391 0f1a 2F       		.uleb128 0x2f
 2392 0f1b 87110000 		.4byte	0x1187
 2393 0f1f 96000000 		.4byte	.LBI71
 2394 0f23 09       		.byte	.LVU97
ARM GAS  /tmp/ccI4Rg6S.s 			page 43


 2395 0f24 96000000 		.4byte	.LBB71
 2396 0f28 06000000 		.4byte	.LBE71-.LBB71
 2397 0f2c 04       		.byte	0x4
 2398 0f2d B802     		.2byte	0x2b8
 2399 0f2f 03       		.byte	0x3
 2400 0f30 2D       		.uleb128 0x2d
 2401 0f31 95110000 		.4byte	0x1195
 2402 0f35 E5000000 		.4byte	.LLST15
 2403 0f39 E3000000 		.4byte	.LVUS15
 2404 0f3d 00       		.byte	0
 2405 0f3e 00       		.byte	0
 2406 0f3f 00       		.byte	0
 2407 0f40 00       		.byte	0
 2408 0f41 30       		.uleb128 0x30
 2409 0f42 62000000 		.4byte	.LVL12
 2410 0f46 A3110000 		.4byte	0x11a3
 2411 0f4a 550F0000 		.4byte	0xf55
 2412 0f4e 31       		.uleb128 0x31
 2413 0f4f 01       		.uleb128 0x1
 2414 0f50 50       		.byte	0x50
 2415 0f51 02       		.uleb128 0x2
 2416 0f52 75       		.byte	0x75
 2417 0f53 00       		.sleb128 0
 2418 0f54 00       		.byte	0
 2419 0f55 30       		.uleb128 0x30
 2420 0f56 86000000 		.4byte	.LVL16
 2421 0f5a AF110000 		.4byte	0x11af
 2422 0f5e 690F0000 		.4byte	0xf69
 2423 0f62 31       		.uleb128 0x31
 2424 0f63 01       		.uleb128 0x1
 2425 0f64 50       		.byte	0x50
 2426 0f65 02       		.uleb128 0x2
 2427 0f66 7D       		.byte	0x7d
 2428 0f67 00       		.sleb128 0
 2429 0f68 00       		.byte	0
 2430 0f69 32       		.uleb128 0x32
 2431 0f6a 96000000 		.4byte	.LVL18
 2432 0f6e BB110000 		.4byte	0x11bb
 2433 0f72 31       		.uleb128 0x31
 2434 0f73 01       		.uleb128 0x1
 2435 0f74 50       		.byte	0x50
 2436 0f75 02       		.uleb128 0x2
 2437 0f76 74       		.byte	0x74
 2438 0f77 00       		.sleb128 0
 2439 0f78 31       		.uleb128 0x31
 2440 0f79 01       		.uleb128 0x1
 2441 0f7a 51       		.byte	0x51
 2442 0f7b 01       		.uleb128 0x1
 2443 0f7c 30       		.byte	0x30
 2444 0f7d 00       		.byte	0
 2445 0f7e 00       		.byte	0
 2446 0f7f 0C       		.uleb128 0xc
 2447 0f80 04       		.byte	0x4
 2448 0f81 B90C0000 		.4byte	0xcb9
 2449 0f85 16       		.uleb128 0x16
 2450 0f86 F1060000 		.4byte	0x6f1
 2451 0f8a 950F0000 		.4byte	0xf95
ARM GAS  /tmp/ccI4Rg6S.s 			page 44


 2452 0f8e 17       		.uleb128 0x17
 2453 0f8f 38000000 		.4byte	0x38
 2454 0f93 19       		.byte	0x19
 2455 0f94 00       		.byte	0
 2456 0f95 05       		.uleb128 0x5
 2457 0f96 850F0000 		.4byte	0xf85
 2458 0f9a 24       		.uleb128 0x24
 2459 0f9b C1010000 		.4byte	.LASF170
 2460 0f9f 01       		.byte	0x1
 2461 0fa0 52       		.byte	0x52
 2462 0fa1 0B       		.byte	0xb
 2463 0fa2 74020000 		.4byte	0x274
 2464 0fa6 00000000 		.4byte	.LFB323
 2465 0faa 4C000000 		.4byte	.LFE323-.LFB323
 2466 0fae 01       		.uleb128 0x1
 2467 0faf 9C       		.byte	0x9c
 2468 0fb0 3C110000 		.4byte	0x113c
 2469 0fb4 26       		.uleb128 0x26
 2470 0fb5 F0000000 		.4byte	.LASF171
 2471 0fb9 01       		.byte	0x1
 2472 0fba 52       		.byte	0x52
 2473 0fbb 2E       		.byte	0x2e
 2474 0fbc 540C0000 		.4byte	0xc54
 2475 0fc0 FD000000 		.4byte	.LLST0
 2476 0fc4 F9000000 		.4byte	.LVUS0
 2477 0fc8 26       		.uleb128 0x26
 2478 0fc9 78010000 		.4byte	.LASF93
 2479 0fcd 01       		.byte	0x1
 2480 0fce 52       		.byte	0x52
 2481 0fcf 3C       		.byte	0x3c
 2482 0fd0 2C000000 		.4byte	0x2c
 2483 0fd4 24010000 		.4byte	.LLST1
 2484 0fd8 1E010000 		.4byte	.LVUS1
 2485 0fdc 26       		.uleb128 0x26
 2486 0fdd 40030000 		.4byte	.LASF35
 2487 0fe1 01       		.byte	0x1
 2488 0fe2 53       		.byte	0x53
 2489 0fe3 2B       		.byte	0x2b
 2490 0fe4 DF060000 		.4byte	0x6df
 2491 0fe8 54010000 		.4byte	.LLST2
 2492 0fec 50010000 		.4byte	.LVUS2
 2493 0ff0 26       		.uleb128 0x26
 2494 0ff1 8C040000 		.4byte	.LASF32
 2495 0ff5 01       		.byte	0x1
 2496 0ff6 53       		.byte	0x53
 2497 0ff7 39       		.byte	0x39
 2498 0ff8 30010000 		.4byte	0x130
 2499 0ffc 76010000 		.4byte	.LLST3
 2500 1000 72010000 		.4byte	.LVUS3
 2501 1004 27       		.uleb128 0x27
 2502 1005 706600   		.ascii	"pf\000"
 2503 1008 01       		.byte	0x1
 2504 1009 54       		.byte	0x54
 2505 100a 27       		.byte	0x27
 2506 100b 56090000 		.4byte	0x956
 2507 100f 02       		.uleb128 0x2
 2508 1010 91       		.byte	0x91
ARM GAS  /tmp/ccI4Rg6S.s 			page 45


 2509 1011 00       		.sleb128 0
 2510 1012 27       		.uleb128 0x27
 2511 1013 61726700 		.ascii	"arg\000"
 2512 1017 01       		.byte	0x1
 2513 1018 54       		.byte	0x54
 2514 1019 31       		.byte	0x31
 2515 101a 61030000 		.4byte	0x361
 2516 101e 02       		.uleb128 0x2
 2517 101f 91       		.byte	0x91
 2518 1020 04       		.sleb128 4
 2519 1021 28       		.uleb128 0x28
 2520 1022 747000   		.ascii	"tp\000"
 2521 1025 01       		.byte	0x1
 2522 1026 55       		.byte	0x55
 2523 1027 0D       		.byte	0xd
 2524 1028 74020000 		.4byte	0x274
 2525 102c 98010000 		.4byte	.LLST4
 2526 1030 94010000 		.4byte	.LVUS4
 2527 1034 28       		.uleb128 0x28
 2528 1035 77737000 		.ascii	"wsp\000"
 2529 1039 01       		.byte	0x1
 2530 103a 56       		.byte	0x56
 2531 103b 09       		.byte	0x9
 2532 103c 61030000 		.4byte	0x361
 2533 1040 BA010000 		.4byte	.LLST5
 2534 1044 B6010000 		.4byte	.LVUS5
 2535 1048 2A       		.uleb128 0x2a
 2536 1049 746400   		.ascii	"td\000"
 2537 104c 01       		.byte	0x1
 2538 104d 5D       		.byte	0x5d
 2539 104e 17       		.byte	0x17
 2540 104f BA090000 		.4byte	0x9ba
 2541 1053 02       		.uleb128 0x2
 2542 1054 91       		.byte	0x91
 2543 1055 50       		.sleb128 -48
 2544 1056 2B       		.uleb128 0x2b
 2545 1057 69110000 		.4byte	0x1169
 2546 105b 28000000 		.4byte	.LBI34
 2547 105f 01       		.byte	.LVU16
 2548 1060 00000000 		.4byte	.Ldebug_ranges0+0
 2549 1064 01       		.byte	0x1
 2550 1065 6C       		.byte	0x6c
 2551 1066 03       		.byte	0x3
 2552 1067 9F100000 		.4byte	0x109f
 2553 106b 2C       		.uleb128 0x2c
 2554 106c 7D110000 		.4byte	0x117d
 2555 1070 28000000 		.4byte	.LBI35
 2556 1074 03       		.byte	.LVU18
 2557 1075 28000000 		.4byte	.Ldebug_ranges0+0x28
 2558 1079 03       		.byte	0x3
 2559 107a 6301     		.2byte	0x163
 2560 107c 03       		.byte	0x3
 2561 107d 2C       		.uleb128 0x2c
 2562 107e 87110000 		.4byte	0x1187
 2563 1082 28000000 		.4byte	.LBI36
 2564 1086 05       		.byte	.LVU20
 2565 1087 48000000 		.4byte	.Ldebug_ranges0+0x48
ARM GAS  /tmp/ccI4Rg6S.s 			page 46


 2566 108b 04       		.byte	0x4
 2567 108c A502     		.2byte	0x2a5
 2568 108e 03       		.byte	0x3
 2569 108f 2D       		.uleb128 0x2d
 2570 1090 95110000 		.4byte	0x1195
 2571 1094 DA010000 		.4byte	.LLST6
 2572 1098 D8010000 		.4byte	.LVUS6
 2573 109c 00       		.byte	0
 2574 109d 00       		.byte	0
 2575 109e 00       		.byte	0
 2576 109f 2B       		.uleb128 0x2b
 2577 10a0 3C110000 		.4byte	0x113c
 2578 10a4 40000000 		.4byte	.LBI45
 2579 10a8 01       		.byte	.LVU35
 2580 10a9 60000000 		.4byte	.Ldebug_ranges0+0x60
 2581 10ad 01       		.byte	0x1
 2582 10ae 70       		.byte	0x70
 2583 10af 03       		.byte	0x3
 2584 10b0 F2100000 		.4byte	0x10f2
 2585 10b4 2E       		.uleb128 0x2e
 2586 10b5 60000000 		.4byte	.Ldebug_ranges0+0x60
 2587 10b9 2C       		.uleb128 0x2c
 2588 10ba 73110000 		.4byte	0x1173
 2589 10be 40000000 		.4byte	.LBI47
 2590 10c2 07       		.byte	.LVU41
 2591 10c3 60000000 		.4byte	.Ldebug_ranges0+0x60
 2592 10c7 03       		.byte	0x3
 2593 10c8 7A01     		.2byte	0x17a
 2594 10ca 03       		.byte	0x3
 2595 10cb 2F       		.uleb128 0x2f
 2596 10cc 87110000 		.4byte	0x1187
 2597 10d0 40000000 		.4byte	.LBI48
 2598 10d4 09       		.byte	.LVU43
 2599 10d5 40000000 		.4byte	.LBB48
 2600 10d9 06000000 		.4byte	.LBE48-.LBB48
 2601 10dd 04       		.byte	0x4
 2602 10de B802     		.2byte	0x2b8
 2603 10e0 03       		.byte	0x3
 2604 10e1 2D       		.uleb128 0x2d
 2605 10e2 95110000 		.4byte	0x1195
 2606 10e6 F1010000 		.4byte	.LLST7
 2607 10ea EF010000 		.4byte	.LVUS7
 2608 10ee 00       		.byte	0
 2609 10ef 00       		.byte	0
 2610 10f0 00       		.byte	0
 2611 10f1 00       		.byte	0
 2612 10f2 30       		.uleb128 0x30
 2613 10f3 10000000 		.4byte	.LVL2
 2614 10f7 C8110000 		.4byte	0x11c8
 2615 10fb 12110000 		.4byte	0x1112
 2616 10ff 31       		.uleb128 0x31
 2617 1100 01       		.uleb128 0x1
 2618 1101 50       		.byte	0x50
 2619 1102 03       		.uleb128 0x3
 2620 1103 F3       		.byte	0xf3
 2621 1104 01       		.uleb128 0x1
 2622 1105 50       		.byte	0x50
ARM GAS  /tmp/ccI4Rg6S.s 			page 47


 2623 1106 31       		.uleb128 0x31
 2624 1107 01       		.uleb128 0x1
 2625 1108 51       		.byte	0x51
 2626 1109 02       		.uleb128 0x2
 2627 110a 75       		.byte	0x75
 2628 110b 00       		.sleb128 0
 2629 110c 31       		.uleb128 0x31
 2630 110d 01       		.uleb128 0x1
 2631 110e 52       		.byte	0x52
 2632 110f 01       		.uleb128 0x1
 2633 1110 38       		.byte	0x38
 2634 1111 00       		.byte	0
 2635 1112 30       		.uleb128 0x30
 2636 1113 32000000 		.4byte	.LVL7
 2637 1117 AF110000 		.4byte	0x11af
 2638 111b 26110000 		.4byte	0x1126
 2639 111f 31       		.uleb128 0x31
 2640 1120 01       		.uleb128 0x1
 2641 1121 50       		.byte	0x50
 2642 1122 02       		.uleb128 0x2
 2643 1123 7D       		.byte	0x7d
 2644 1124 00       		.sleb128 0
 2645 1125 00       		.byte	0
 2646 1126 32       		.uleb128 0x32
 2647 1127 40000000 		.4byte	.LVL9
 2648 112b BB110000 		.4byte	0x11bb
 2649 112f 31       		.uleb128 0x31
 2650 1130 01       		.uleb128 0x1
 2651 1131 50       		.byte	0x50
 2652 1132 02       		.uleb128 0x2
 2653 1133 74       		.byte	0x74
 2654 1134 00       		.sleb128 0
 2655 1135 31       		.uleb128 0x31
 2656 1136 01       		.uleb128 0x1
 2657 1137 51       		.byte	0x51
 2658 1138 01       		.uleb128 0x1
 2659 1139 30       		.byte	0x30
 2660 113a 00       		.byte	0
 2661 113b 00       		.byte	0
 2662 113c 33       		.uleb128 0x33
 2663 113d 89080000 		.4byte	.LASF176
 2664 1141 03       		.byte	0x3
 2665 1142 6D01     		.2byte	0x16d
 2666 1144 14       		.byte	0x14
 2667 1145 03       		.byte	0x3
 2668 1146 54110000 		.4byte	0x1154
 2669 114a 29       		.uleb128 0x29
 2670 114b 8C060000 		.4byte	.LASF172
 2671 114f 64110000 		.4byte	0x1164
 2672 1153 00       		.byte	0
 2673 1154 16       		.uleb128 0x16
 2674 1155 F1060000 		.4byte	0x6f1
 2675 1159 64110000 		.4byte	0x1164
 2676 115d 17       		.uleb128 0x17
 2677 115e 38000000 		.4byte	0x38
 2678 1162 0B       		.byte	0xb
 2679 1163 00       		.byte	0
ARM GAS  /tmp/ccI4Rg6S.s 			page 48


 2680 1164 05       		.uleb128 0x5
 2681 1165 54110000 		.4byte	0x1154
 2682 1169 34       		.uleb128 0x34
 2683 116a A0060000 		.4byte	.LASF173
 2684 116e 03       		.byte	0x3
 2685 116f 6101     		.2byte	0x161
 2686 1171 14       		.byte	0x14
 2687 1172 03       		.byte	0x3
 2688 1173 34       		.uleb128 0x34
 2689 1174 74020000 		.4byte	.LASF174
 2690 1178 04       		.byte	0x4
 2691 1179 B502     		.2byte	0x2b5
 2692 117b 1B       		.byte	0x1b
 2693 117c 03       		.byte	0x3
 2694 117d 34       		.uleb128 0x34
 2695 117e 9F000000 		.4byte	.LASF175
 2696 1182 04       		.byte	0x4
 2697 1183 9D02     		.2byte	0x29d
 2698 1185 1B       		.byte	0x1b
 2699 1186 03       		.byte	0x3
 2700 1187 33       		.uleb128 0x33
 2701 1188 84070000 		.4byte	.LASF177
 2702 118c 02       		.byte	0x2
 2703 118d EB01     		.2byte	0x1eb
 2704 118f 1B       		.byte	0x1b
 2705 1190 03       		.byte	0x3
 2706 1191 A3110000 		.4byte	0x11a3
 2707 1195 35       		.uleb128 0x35
 2708 1196 AA010000 		.4byte	.LASF186
 2709 119a 02       		.byte	0x2
 2710 119b EB01     		.2byte	0x1eb
 2711 119d 32       		.byte	0x32
 2712 119e E8000000 		.4byte	0xe8
 2713 11a2 00       		.byte	0
 2714 11a3 36       		.uleb128 0x36
 2715 11a4 22080000 		.4byte	.LASF178
 2716 11a8 22080000 		.4byte	.LASF178
 2717 11ac 17       		.byte	0x17
 2718 11ad 9A       		.byte	0x9a
 2719 11ae 09       		.byte	0x9
 2720 11af 36       		.uleb128 0x36
 2721 11b0 94010000 		.4byte	.LASF179
 2722 11b4 94010000 		.4byte	.LASF179
 2723 11b8 13       		.byte	0x13
 2724 11b9 E3       		.byte	0xe3
 2725 11ba 0D       		.byte	0xd
 2726 11bb 37       		.uleb128 0x37
 2727 11bc DC070000 		.4byte	.LASF180
 2728 11c0 DC070000 		.4byte	.LASF180
 2729 11c4 0A       		.byte	0xa
 2730 11c5 D501     		.2byte	0x1d5
 2731 11c7 08       		.byte	0x8
 2732 11c8 36       		.uleb128 0x36
 2733 11c9 A3070000 		.4byte	.LASF181
 2734 11cd A3070000 		.4byte	.LASF181
 2735 11d1 16       		.byte	0x16
 2736 11d2 7F       		.byte	0x7f
ARM GAS  /tmp/ccI4Rg6S.s 			page 49


 2737 11d3 09       		.byte	0x9
 2738 11d4 00       		.byte	0
 2739              		.section	.debug_abbrev,"",%progbits
 2740              	.Ldebug_abbrev0:
 2741 0000 01       		.uleb128 0x1
 2742 0001 11       		.uleb128 0x11
 2743 0002 01       		.byte	0x1
 2744 0003 25       		.uleb128 0x25
 2745 0004 0E       		.uleb128 0xe
 2746 0005 13       		.uleb128 0x13
 2747 0006 0B       		.uleb128 0xb
 2748 0007 03       		.uleb128 0x3
 2749 0008 0E       		.uleb128 0xe
 2750 0009 1B       		.uleb128 0x1b
 2751 000a 0E       		.uleb128 0xe
 2752 000b 11       		.uleb128 0x11
 2753 000c 01       		.uleb128 0x1
 2754 000d 12       		.uleb128 0x12
 2755 000e 06       		.uleb128 0x6
 2756 000f 10       		.uleb128 0x10
 2757 0010 17       		.uleb128 0x17
 2758 0011 00       		.byte	0
 2759 0012 00       		.byte	0
 2760 0013 02       		.uleb128 0x2
 2761 0014 24       		.uleb128 0x24
 2762 0015 00       		.byte	0
 2763 0016 0B       		.uleb128 0xb
 2764 0017 0B       		.uleb128 0xb
 2765 0018 3E       		.uleb128 0x3e
 2766 0019 0B       		.uleb128 0xb
 2767 001a 03       		.uleb128 0x3
 2768 001b 08       		.uleb128 0x8
 2769 001c 00       		.byte	0
 2770 001d 00       		.byte	0
 2771 001e 03       		.uleb128 0x3
 2772 001f 16       		.uleb128 0x16
 2773 0020 00       		.byte	0
 2774 0021 03       		.uleb128 0x3
 2775 0022 0E       		.uleb128 0xe
 2776 0023 3A       		.uleb128 0x3a
 2777 0024 0B       		.uleb128 0xb
 2778 0025 3B       		.uleb128 0x3b
 2779 0026 0B       		.uleb128 0xb
 2780 0027 39       		.uleb128 0x39
 2781 0028 0B       		.uleb128 0xb
 2782 0029 49       		.uleb128 0x49
 2783 002a 13       		.uleb128 0x13
 2784 002b 00       		.byte	0
 2785 002c 00       		.byte	0
 2786 002d 04       		.uleb128 0x4
 2787 002e 24       		.uleb128 0x24
 2788 002f 00       		.byte	0
 2789 0030 0B       		.uleb128 0xb
 2790 0031 0B       		.uleb128 0xb
 2791 0032 3E       		.uleb128 0x3e
 2792 0033 0B       		.uleb128 0xb
 2793 0034 03       		.uleb128 0x3
ARM GAS  /tmp/ccI4Rg6S.s 			page 50


 2794 0035 0E       		.uleb128 0xe
 2795 0036 00       		.byte	0
 2796 0037 00       		.byte	0
 2797 0038 05       		.uleb128 0x5
 2798 0039 26       		.uleb128 0x26
 2799 003a 00       		.byte	0
 2800 003b 49       		.uleb128 0x49
 2801 003c 13       		.uleb128 0x13
 2802 003d 00       		.byte	0
 2803 003e 00       		.byte	0
 2804 003f 06       		.uleb128 0x6
 2805 0040 35       		.uleb128 0x35
 2806 0041 00       		.byte	0
 2807 0042 49       		.uleb128 0x49
 2808 0043 13       		.uleb128 0x13
 2809 0044 00       		.byte	0
 2810 0045 00       		.byte	0
 2811 0046 07       		.uleb128 0x7
 2812 0047 13       		.uleb128 0x13
 2813 0048 01       		.byte	0x1
 2814 0049 03       		.uleb128 0x3
 2815 004a 0E       		.uleb128 0xe
 2816 004b 0B       		.uleb128 0xb
 2817 004c 0B       		.uleb128 0xb
 2818 004d 3A       		.uleb128 0x3a
 2819 004e 0B       		.uleb128 0xb
 2820 004f 3B       		.uleb128 0x3b
 2821 0050 0B       		.uleb128 0xb
 2822 0051 39       		.uleb128 0x39
 2823 0052 0B       		.uleb128 0xb
 2824 0053 01       		.uleb128 0x1
 2825 0054 13       		.uleb128 0x13
 2826 0055 00       		.byte	0
 2827 0056 00       		.byte	0
 2828 0057 08       		.uleb128 0x8
 2829 0058 0D       		.uleb128 0xd
 2830 0059 00       		.byte	0
 2831 005a 03       		.uleb128 0x3
 2832 005b 0E       		.uleb128 0xe
 2833 005c 3A       		.uleb128 0x3a
 2834 005d 0B       		.uleb128 0xb
 2835 005e 3B       		.uleb128 0x3b
 2836 005f 0B       		.uleb128 0xb
 2837 0060 39       		.uleb128 0x39
 2838 0061 0B       		.uleb128 0xb
 2839 0062 49       		.uleb128 0x49
 2840 0063 13       		.uleb128 0x13
 2841 0064 38       		.uleb128 0x38
 2842 0065 0B       		.uleb128 0xb
 2843 0066 00       		.byte	0
 2844 0067 00       		.byte	0
 2845 0068 09       		.uleb128 0x9
 2846 0069 0D       		.uleb128 0xd
 2847 006a 00       		.byte	0
 2848 006b 03       		.uleb128 0x3
 2849 006c 08       		.uleb128 0x8
 2850 006d 3A       		.uleb128 0x3a
ARM GAS  /tmp/ccI4Rg6S.s 			page 51


 2851 006e 0B       		.uleb128 0xb
 2852 006f 3B       		.uleb128 0x3b
 2853 0070 0B       		.uleb128 0xb
 2854 0071 39       		.uleb128 0x39
 2855 0072 0B       		.uleb128 0xb
 2856 0073 49       		.uleb128 0x49
 2857 0074 13       		.uleb128 0x13
 2858 0075 38       		.uleb128 0x38
 2859 0076 0B       		.uleb128 0xb
 2860 0077 00       		.byte	0
 2861 0078 00       		.byte	0
 2862 0079 0A       		.uleb128 0xa
 2863 007a 0D       		.uleb128 0xd
 2864 007b 00       		.byte	0
 2865 007c 03       		.uleb128 0x3
 2866 007d 08       		.uleb128 0x8
 2867 007e 3A       		.uleb128 0x3a
 2868 007f 0B       		.uleb128 0xb
 2869 0080 3B       		.uleb128 0x3b
 2870 0081 05       		.uleb128 0x5
 2871 0082 39       		.uleb128 0x39
 2872 0083 0B       		.uleb128 0xb
 2873 0084 49       		.uleb128 0x49
 2874 0085 13       		.uleb128 0x13
 2875 0086 38       		.uleb128 0x38
 2876 0087 0B       		.uleb128 0xb
 2877 0088 00       		.byte	0
 2878 0089 00       		.byte	0
 2879 008a 0B       		.uleb128 0xb
 2880 008b 0D       		.uleb128 0xd
 2881 008c 00       		.byte	0
 2882 008d 03       		.uleb128 0x3
 2883 008e 0E       		.uleb128 0xe
 2884 008f 3A       		.uleb128 0x3a
 2885 0090 0B       		.uleb128 0xb
 2886 0091 3B       		.uleb128 0x3b
 2887 0092 05       		.uleb128 0x5
 2888 0093 39       		.uleb128 0x39
 2889 0094 0B       		.uleb128 0xb
 2890 0095 49       		.uleb128 0x49
 2891 0096 13       		.uleb128 0x13
 2892 0097 38       		.uleb128 0x38
 2893 0098 0B       		.uleb128 0xb
 2894 0099 00       		.byte	0
 2895 009a 00       		.byte	0
 2896 009b 0C       		.uleb128 0xc
 2897 009c 0F       		.uleb128 0xf
 2898 009d 00       		.byte	0
 2899 009e 0B       		.uleb128 0xb
 2900 009f 0B       		.uleb128 0xb
 2901 00a0 49       		.uleb128 0x49
 2902 00a1 13       		.uleb128 0x13
 2903 00a2 00       		.byte	0
 2904 00a3 00       		.byte	0
 2905 00a4 0D       		.uleb128 0xd
 2906 00a5 13       		.uleb128 0x13
 2907 00a6 01       		.byte	0x1
ARM GAS  /tmp/ccI4Rg6S.s 			page 52


 2908 00a7 03       		.uleb128 0x3
 2909 00a8 0E       		.uleb128 0xe
 2910 00a9 0B       		.uleb128 0xb
 2911 00aa 0B       		.uleb128 0xb
 2912 00ab 3A       		.uleb128 0x3a
 2913 00ac 0B       		.uleb128 0xb
 2914 00ad 3B       		.uleb128 0x3b
 2915 00ae 05       		.uleb128 0x5
 2916 00af 39       		.uleb128 0x39
 2917 00b0 0B       		.uleb128 0xb
 2918 00b1 01       		.uleb128 0x1
 2919 00b2 13       		.uleb128 0x13
 2920 00b3 00       		.byte	0
 2921 00b4 00       		.byte	0
 2922 00b5 0E       		.uleb128 0xe
 2923 00b6 15       		.uleb128 0x15
 2924 00b7 01       		.byte	0x1
 2925 00b8 27       		.uleb128 0x27
 2926 00b9 19       		.uleb128 0x19
 2927 00ba 01       		.uleb128 0x1
 2928 00bb 13       		.uleb128 0x13
 2929 00bc 00       		.byte	0
 2930 00bd 00       		.byte	0
 2931 00be 0F       		.uleb128 0xf
 2932 00bf 05       		.uleb128 0x5
 2933 00c0 00       		.byte	0
 2934 00c1 49       		.uleb128 0x49
 2935 00c2 13       		.uleb128 0x13
 2936 00c3 00       		.byte	0
 2937 00c4 00       		.byte	0
 2938 00c5 10       		.uleb128 0x10
 2939 00c6 0F       		.uleb128 0xf
 2940 00c7 00       		.byte	0
 2941 00c8 0B       		.uleb128 0xb
 2942 00c9 0B       		.uleb128 0xb
 2943 00ca 00       		.byte	0
 2944 00cb 00       		.byte	0
 2945 00cc 11       		.uleb128 0x11
 2946 00cd 13       		.uleb128 0x13
 2947 00ce 01       		.byte	0x1
 2948 00cf 03       		.uleb128 0x3
 2949 00d0 0E       		.uleb128 0xe
 2950 00d1 0B       		.uleb128 0xb
 2951 00d2 05       		.uleb128 0x5
 2952 00d3 3A       		.uleb128 0x3a
 2953 00d4 0B       		.uleb128 0xb
 2954 00d5 3B       		.uleb128 0x3b
 2955 00d6 05       		.uleb128 0x5
 2956 00d7 39       		.uleb128 0x39
 2957 00d8 0B       		.uleb128 0xb
 2958 00d9 01       		.uleb128 0x1
 2959 00da 13       		.uleb128 0x13
 2960 00db 00       		.byte	0
 2961 00dc 00       		.byte	0
 2962 00dd 12       		.uleb128 0x12
 2963 00de 0D       		.uleb128 0xd
 2964 00df 00       		.byte	0
ARM GAS  /tmp/ccI4Rg6S.s 			page 53


 2965 00e0 03       		.uleb128 0x3
 2966 00e1 0E       		.uleb128 0xe
 2967 00e2 3A       		.uleb128 0x3a
 2968 00e3 0B       		.uleb128 0xb
 2969 00e4 3B       		.uleb128 0x3b
 2970 00e5 05       		.uleb128 0x5
 2971 00e6 39       		.uleb128 0x39
 2972 00e7 0B       		.uleb128 0xb
 2973 00e8 49       		.uleb128 0x49
 2974 00e9 13       		.uleb128 0x13
 2975 00ea 38       		.uleb128 0x38
 2976 00eb 05       		.uleb128 0x5
 2977 00ec 00       		.byte	0
 2978 00ed 00       		.byte	0
 2979 00ee 13       		.uleb128 0x13
 2980 00ef 0D       		.uleb128 0xd
 2981 00f0 00       		.byte	0
 2982 00f1 03       		.uleb128 0x3
 2983 00f2 08       		.uleb128 0x8
 2984 00f3 3A       		.uleb128 0x3a
 2985 00f4 0B       		.uleb128 0xb
 2986 00f5 3B       		.uleb128 0x3b
 2987 00f6 05       		.uleb128 0x5
 2988 00f7 39       		.uleb128 0x39
 2989 00f8 0B       		.uleb128 0xb
 2990 00f9 49       		.uleb128 0x49
 2991 00fa 13       		.uleb128 0x13
 2992 00fb 38       		.uleb128 0x38
 2993 00fc 05       		.uleb128 0x5
 2994 00fd 00       		.byte	0
 2995 00fe 00       		.byte	0
 2996 00ff 14       		.uleb128 0x14
 2997 0100 34       		.uleb128 0x34
 2998 0101 00       		.byte	0
 2999 0102 03       		.uleb128 0x3
 3000 0103 0E       		.uleb128 0xe
 3001 0104 3A       		.uleb128 0x3a
 3002 0105 0B       		.uleb128 0xb
 3003 0106 3B       		.uleb128 0x3b
 3004 0107 05       		.uleb128 0x5
 3005 0108 39       		.uleb128 0x39
 3006 0109 0B       		.uleb128 0xb
 3007 010a 49       		.uleb128 0x49
 3008 010b 13       		.uleb128 0x13
 3009 010c 3F       		.uleb128 0x3f
 3010 010d 19       		.uleb128 0x19
 3011 010e 3C       		.uleb128 0x3c
 3012 010f 19       		.uleb128 0x19
 3013 0110 00       		.byte	0
 3014 0111 00       		.byte	0
 3015 0112 15       		.uleb128 0x15
 3016 0113 34       		.uleb128 0x34
 3017 0114 00       		.byte	0
 3018 0115 03       		.uleb128 0x3
 3019 0116 0E       		.uleb128 0xe
 3020 0117 3A       		.uleb128 0x3a
 3021 0118 0B       		.uleb128 0xb
ARM GAS  /tmp/ccI4Rg6S.s 			page 54


 3022 0119 3B       		.uleb128 0x3b
 3023 011a 0B       		.uleb128 0xb
 3024 011b 39       		.uleb128 0x39
 3025 011c 0B       		.uleb128 0xb
 3026 011d 49       		.uleb128 0x49
 3027 011e 13       		.uleb128 0x13
 3028 011f 3F       		.uleb128 0x3f
 3029 0120 19       		.uleb128 0x19
 3030 0121 3C       		.uleb128 0x3c
 3031 0122 19       		.uleb128 0x19
 3032 0123 00       		.byte	0
 3033 0124 00       		.byte	0
 3034 0125 16       		.uleb128 0x16
 3035 0126 01       		.uleb128 0x1
 3036 0127 01       		.byte	0x1
 3037 0128 49       		.uleb128 0x49
 3038 0129 13       		.uleb128 0x13
 3039 012a 01       		.uleb128 0x1
 3040 012b 13       		.uleb128 0x13
 3041 012c 00       		.byte	0
 3042 012d 00       		.byte	0
 3043 012e 17       		.uleb128 0x17
 3044 012f 21       		.uleb128 0x21
 3045 0130 00       		.byte	0
 3046 0131 49       		.uleb128 0x49
 3047 0132 13       		.uleb128 0x13
 3048 0133 2F       		.uleb128 0x2f
 3049 0134 0B       		.uleb128 0xb
 3050 0135 00       		.byte	0
 3051 0136 00       		.byte	0
 3052 0137 18       		.uleb128 0x18
 3053 0138 13       		.uleb128 0x13
 3054 0139 01       		.byte	0x1
 3055 013a 0B       		.uleb128 0xb
 3056 013b 0B       		.uleb128 0xb
 3057 013c 3A       		.uleb128 0x3a
 3058 013d 0B       		.uleb128 0xb
 3059 013e 3B       		.uleb128 0x3b
 3060 013f 0B       		.uleb128 0xb
 3061 0140 39       		.uleb128 0x39
 3062 0141 0B       		.uleb128 0xb
 3063 0142 01       		.uleb128 0x1
 3064 0143 13       		.uleb128 0x13
 3065 0144 00       		.byte	0
 3066 0145 00       		.byte	0
 3067 0146 19       		.uleb128 0x19
 3068 0147 17       		.uleb128 0x17
 3069 0148 01       		.byte	0x1
 3070 0149 0B       		.uleb128 0xb
 3071 014a 0B       		.uleb128 0xb
 3072 014b 3A       		.uleb128 0x3a
 3073 014c 0B       		.uleb128 0xb
 3074 014d 3B       		.uleb128 0x3b
 3075 014e 0B       		.uleb128 0xb
 3076 014f 39       		.uleb128 0x39
 3077 0150 0B       		.uleb128 0xb
 3078 0151 01       		.uleb128 0x1
ARM GAS  /tmp/ccI4Rg6S.s 			page 55


 3079 0152 13       		.uleb128 0x13
 3080 0153 00       		.byte	0
 3081 0154 00       		.byte	0
 3082 0155 1A       		.uleb128 0x1a
 3083 0156 0D       		.uleb128 0xd
 3084 0157 00       		.byte	0
 3085 0158 03       		.uleb128 0x3
 3086 0159 08       		.uleb128 0x8
 3087 015a 3A       		.uleb128 0x3a
 3088 015b 0B       		.uleb128 0xb
 3089 015c 3B       		.uleb128 0x3b
 3090 015d 0B       		.uleb128 0xb
 3091 015e 39       		.uleb128 0x39
 3092 015f 0B       		.uleb128 0xb
 3093 0160 49       		.uleb128 0x49
 3094 0161 13       		.uleb128 0x13
 3095 0162 00       		.byte	0
 3096 0163 00       		.byte	0
 3097 0164 1B       		.uleb128 0x1b
 3098 0165 0D       		.uleb128 0xd
 3099 0166 00       		.byte	0
 3100 0167 03       		.uleb128 0x3
 3101 0168 0E       		.uleb128 0xe
 3102 0169 3A       		.uleb128 0x3a
 3103 016a 0B       		.uleb128 0xb
 3104 016b 3B       		.uleb128 0x3b
 3105 016c 0B       		.uleb128 0xb
 3106 016d 39       		.uleb128 0x39
 3107 016e 0B       		.uleb128 0xb
 3108 016f 49       		.uleb128 0x49
 3109 0170 13       		.uleb128 0x13
 3110 0171 00       		.byte	0
 3111 0172 00       		.byte	0
 3112 0173 1C       		.uleb128 0x1c
 3113 0174 0D       		.uleb128 0xd
 3114 0175 00       		.byte	0
 3115 0176 03       		.uleb128 0x3
 3116 0177 0E       		.uleb128 0xe
 3117 0178 3A       		.uleb128 0x3a
 3118 0179 0B       		.uleb128 0xb
 3119 017a 3B       		.uleb128 0x3b
 3120 017b 0B       		.uleb128 0xb
 3121 017c 39       		.uleb128 0x39
 3122 017d 0B       		.uleb128 0xb
 3123 017e 49       		.uleb128 0x49
 3124 017f 13       		.uleb128 0x13
 3125 0180 0B       		.uleb128 0xb
 3126 0181 0B       		.uleb128 0xb
 3127 0182 0D       		.uleb128 0xd
 3128 0183 0B       		.uleb128 0xb
 3129 0184 0C       		.uleb128 0xc
 3130 0185 0B       		.uleb128 0xb
 3131 0186 38       		.uleb128 0x38
 3132 0187 0B       		.uleb128 0xb
 3133 0188 00       		.byte	0
 3134 0189 00       		.byte	0
 3135 018a 1D       		.uleb128 0x1d
ARM GAS  /tmp/ccI4Rg6S.s 			page 56


 3136 018b 13       		.uleb128 0x13
 3137 018c 01       		.byte	0x1
 3138 018d 0B       		.uleb128 0xb
 3139 018e 05       		.uleb128 0x5
 3140 018f 3A       		.uleb128 0x3a
 3141 0190 0B       		.uleb128 0xb
 3142 0191 3B       		.uleb128 0x3b
 3143 0192 0B       		.uleb128 0xb
 3144 0193 39       		.uleb128 0x39
 3145 0194 0B       		.uleb128 0xb
 3146 0195 01       		.uleb128 0x1
 3147 0196 13       		.uleb128 0x13
 3148 0197 00       		.byte	0
 3149 0198 00       		.byte	0
 3150 0199 1E       		.uleb128 0x1e
 3151 019a 0D       		.uleb128 0xd
 3152 019b 00       		.byte	0
 3153 019c 03       		.uleb128 0x3
 3154 019d 0E       		.uleb128 0xe
 3155 019e 3A       		.uleb128 0x3a
 3156 019f 0B       		.uleb128 0xb
 3157 01a0 3B       		.uleb128 0x3b
 3158 01a1 05       		.uleb128 0x5
 3159 01a2 39       		.uleb128 0x39
 3160 01a3 0B       		.uleb128 0xb
 3161 01a4 49       		.uleb128 0x49
 3162 01a5 13       		.uleb128 0x13
 3163 01a6 00       		.byte	0
 3164 01a7 00       		.byte	0
 3165 01a8 1F       		.uleb128 0x1f
 3166 01a9 34       		.uleb128 0x34
 3167 01aa 00       		.byte	0
 3168 01ab 03       		.uleb128 0x3
 3169 01ac 08       		.uleb128 0x8
 3170 01ad 3A       		.uleb128 0x3a
 3171 01ae 0B       		.uleb128 0xb
 3172 01af 3B       		.uleb128 0x3b
 3173 01b0 05       		.uleb128 0x5
 3174 01b1 39       		.uleb128 0x39
 3175 01b2 0B       		.uleb128 0xb
 3176 01b3 49       		.uleb128 0x49
 3177 01b4 13       		.uleb128 0x13
 3178 01b5 3F       		.uleb128 0x3f
 3179 01b6 19       		.uleb128 0x19
 3180 01b7 3C       		.uleb128 0x3c
 3181 01b8 19       		.uleb128 0x19
 3182 01b9 00       		.byte	0
 3183 01ba 00       		.byte	0
 3184 01bb 20       		.uleb128 0x20
 3185 01bc 21       		.uleb128 0x21
 3186 01bd 00       		.byte	0
 3187 01be 00       		.byte	0
 3188 01bf 00       		.byte	0
 3189 01c0 21       		.uleb128 0x21
 3190 01c1 15       		.uleb128 0x15
 3191 01c2 01       		.byte	0x1
 3192 01c3 27       		.uleb128 0x27
ARM GAS  /tmp/ccI4Rg6S.s 			page 57


 3193 01c4 19       		.uleb128 0x19
 3194 01c5 49       		.uleb128 0x49
 3195 01c6 13       		.uleb128 0x13
 3196 01c7 01       		.uleb128 0x1
 3197 01c8 13       		.uleb128 0x13
 3198 01c9 00       		.byte	0
 3199 01ca 00       		.byte	0
 3200 01cb 22       		.uleb128 0x22
 3201 01cc 17       		.uleb128 0x17
 3202 01cd 01       		.byte	0x1
 3203 01ce 03       		.uleb128 0x3
 3204 01cf 0E       		.uleb128 0xe
 3205 01d0 0B       		.uleb128 0xb
 3206 01d1 0B       		.uleb128 0xb
 3207 01d2 3A       		.uleb128 0x3a
 3208 01d3 0B       		.uleb128 0xb
 3209 01d4 3B       		.uleb128 0x3b
 3210 01d5 0B       		.uleb128 0xb
 3211 01d6 39       		.uleb128 0x39
 3212 01d7 0B       		.uleb128 0xb
 3213 01d8 01       		.uleb128 0x1
 3214 01d9 13       		.uleb128 0x13
 3215 01da 00       		.byte	0
 3216 01db 00       		.byte	0
 3217 01dc 23       		.uleb128 0x23
 3218 01dd 16       		.uleb128 0x16
 3219 01de 00       		.byte	0
 3220 01df 03       		.uleb128 0x3
 3221 01e0 0E       		.uleb128 0xe
 3222 01e1 3A       		.uleb128 0x3a
 3223 01e2 0B       		.uleb128 0xb
 3224 01e3 3B       		.uleb128 0x3b
 3225 01e4 05       		.uleb128 0x5
 3226 01e5 39       		.uleb128 0x39
 3227 01e6 0B       		.uleb128 0xb
 3228 01e7 49       		.uleb128 0x49
 3229 01e8 13       		.uleb128 0x13
 3230 01e9 00       		.byte	0
 3231 01ea 00       		.byte	0
 3232 01eb 24       		.uleb128 0x24
 3233 01ec 2E       		.uleb128 0x2e
 3234 01ed 01       		.byte	0x1
 3235 01ee 3F       		.uleb128 0x3f
 3236 01ef 19       		.uleb128 0x19
 3237 01f0 03       		.uleb128 0x3
 3238 01f1 0E       		.uleb128 0xe
 3239 01f2 3A       		.uleb128 0x3a
 3240 01f3 0B       		.uleb128 0xb
 3241 01f4 3B       		.uleb128 0x3b
 3242 01f5 0B       		.uleb128 0xb
 3243 01f6 39       		.uleb128 0x39
 3244 01f7 0B       		.uleb128 0xb
 3245 01f8 27       		.uleb128 0x27
 3246 01f9 19       		.uleb128 0x19
 3247 01fa 49       		.uleb128 0x49
 3248 01fb 13       		.uleb128 0x13
 3249 01fc 11       		.uleb128 0x11
ARM GAS  /tmp/ccI4Rg6S.s 			page 58


 3250 01fd 01       		.uleb128 0x1
 3251 01fe 12       		.uleb128 0x12
 3252 01ff 06       		.uleb128 0x6
 3253 0200 40       		.uleb128 0x40
 3254 0201 18       		.uleb128 0x18
 3255 0202 9742     		.uleb128 0x2117
 3256 0204 19       		.uleb128 0x19
 3257 0205 01       		.uleb128 0x1
 3258 0206 13       		.uleb128 0x13
 3259 0207 00       		.byte	0
 3260 0208 00       		.byte	0
 3261 0209 25       		.uleb128 0x25
 3262 020a 05       		.uleb128 0x5
 3263 020b 00       		.byte	0
 3264 020c 03       		.uleb128 0x3
 3265 020d 08       		.uleb128 0x8
 3266 020e 3A       		.uleb128 0x3a
 3267 020f 0B       		.uleb128 0xb
 3268 0210 3B       		.uleb128 0x3b
 3269 0211 0B       		.uleb128 0xb
 3270 0212 39       		.uleb128 0x39
 3271 0213 0B       		.uleb128 0xb
 3272 0214 49       		.uleb128 0x49
 3273 0215 13       		.uleb128 0x13
 3274 0216 02       		.uleb128 0x2
 3275 0217 17       		.uleb128 0x17
 3276 0218 B742     		.uleb128 0x2137
 3277 021a 17       		.uleb128 0x17
 3278 021b 00       		.byte	0
 3279 021c 00       		.byte	0
 3280 021d 26       		.uleb128 0x26
 3281 021e 05       		.uleb128 0x5
 3282 021f 00       		.byte	0
 3283 0220 03       		.uleb128 0x3
 3284 0221 0E       		.uleb128 0xe
 3285 0222 3A       		.uleb128 0x3a
 3286 0223 0B       		.uleb128 0xb
 3287 0224 3B       		.uleb128 0x3b
 3288 0225 0B       		.uleb128 0xb
 3289 0226 39       		.uleb128 0x39
 3290 0227 0B       		.uleb128 0xb
 3291 0228 49       		.uleb128 0x49
 3292 0229 13       		.uleb128 0x13
 3293 022a 02       		.uleb128 0x2
 3294 022b 17       		.uleb128 0x17
 3295 022c B742     		.uleb128 0x2137
 3296 022e 17       		.uleb128 0x17
 3297 022f 00       		.byte	0
 3298 0230 00       		.byte	0
 3299 0231 27       		.uleb128 0x27
 3300 0232 05       		.uleb128 0x5
 3301 0233 00       		.byte	0
 3302 0234 03       		.uleb128 0x3
 3303 0235 08       		.uleb128 0x8
 3304 0236 3A       		.uleb128 0x3a
 3305 0237 0B       		.uleb128 0xb
 3306 0238 3B       		.uleb128 0x3b
ARM GAS  /tmp/ccI4Rg6S.s 			page 59


 3307 0239 0B       		.uleb128 0xb
 3308 023a 39       		.uleb128 0x39
 3309 023b 0B       		.uleb128 0xb
 3310 023c 49       		.uleb128 0x49
 3311 023d 13       		.uleb128 0x13
 3312 023e 02       		.uleb128 0x2
 3313 023f 18       		.uleb128 0x18
 3314 0240 00       		.byte	0
 3315 0241 00       		.byte	0
 3316 0242 28       		.uleb128 0x28
 3317 0243 34       		.uleb128 0x34
 3318 0244 00       		.byte	0
 3319 0245 03       		.uleb128 0x3
 3320 0246 08       		.uleb128 0x8
 3321 0247 3A       		.uleb128 0x3a
 3322 0248 0B       		.uleb128 0xb
 3323 0249 3B       		.uleb128 0x3b
 3324 024a 0B       		.uleb128 0xb
 3325 024b 39       		.uleb128 0x39
 3326 024c 0B       		.uleb128 0xb
 3327 024d 49       		.uleb128 0x49
 3328 024e 13       		.uleb128 0x13
 3329 024f 02       		.uleb128 0x2
 3330 0250 17       		.uleb128 0x17
 3331 0251 B742     		.uleb128 0x2137
 3332 0253 17       		.uleb128 0x17
 3333 0254 00       		.byte	0
 3334 0255 00       		.byte	0
 3335 0256 29       		.uleb128 0x29
 3336 0257 34       		.uleb128 0x34
 3337 0258 00       		.byte	0
 3338 0259 03       		.uleb128 0x3
 3339 025a 0E       		.uleb128 0xe
 3340 025b 49       		.uleb128 0x49
 3341 025c 13       		.uleb128 0x13
 3342 025d 34       		.uleb128 0x34
 3343 025e 19       		.uleb128 0x19
 3344 025f 00       		.byte	0
 3345 0260 00       		.byte	0
 3346 0261 2A       		.uleb128 0x2a
 3347 0262 34       		.uleb128 0x34
 3348 0263 00       		.byte	0
 3349 0264 03       		.uleb128 0x3
 3350 0265 08       		.uleb128 0x8
 3351 0266 3A       		.uleb128 0x3a
 3352 0267 0B       		.uleb128 0xb
 3353 0268 3B       		.uleb128 0x3b
 3354 0269 0B       		.uleb128 0xb
 3355 026a 39       		.uleb128 0x39
 3356 026b 0B       		.uleb128 0xb
 3357 026c 49       		.uleb128 0x49
 3358 026d 13       		.uleb128 0x13
 3359 026e 02       		.uleb128 0x2
 3360 026f 18       		.uleb128 0x18
 3361 0270 00       		.byte	0
 3362 0271 00       		.byte	0
 3363 0272 2B       		.uleb128 0x2b
ARM GAS  /tmp/ccI4Rg6S.s 			page 60


 3364 0273 1D       		.uleb128 0x1d
 3365 0274 01       		.byte	0x1
 3366 0275 31       		.uleb128 0x31
 3367 0276 13       		.uleb128 0x13
 3368 0277 52       		.uleb128 0x52
 3369 0278 01       		.uleb128 0x1
 3370 0279 B842     		.uleb128 0x2138
 3371 027b 0B       		.uleb128 0xb
 3372 027c 55       		.uleb128 0x55
 3373 027d 17       		.uleb128 0x17
 3374 027e 58       		.uleb128 0x58
 3375 027f 0B       		.uleb128 0xb
 3376 0280 59       		.uleb128 0x59
 3377 0281 0B       		.uleb128 0xb
 3378 0282 57       		.uleb128 0x57
 3379 0283 0B       		.uleb128 0xb
 3380 0284 01       		.uleb128 0x1
 3381 0285 13       		.uleb128 0x13
 3382 0286 00       		.byte	0
 3383 0287 00       		.byte	0
 3384 0288 2C       		.uleb128 0x2c
 3385 0289 1D       		.uleb128 0x1d
 3386 028a 01       		.byte	0x1
 3387 028b 31       		.uleb128 0x31
 3388 028c 13       		.uleb128 0x13
 3389 028d 52       		.uleb128 0x52
 3390 028e 01       		.uleb128 0x1
 3391 028f B842     		.uleb128 0x2138
 3392 0291 0B       		.uleb128 0xb
 3393 0292 55       		.uleb128 0x55
 3394 0293 17       		.uleb128 0x17
 3395 0294 58       		.uleb128 0x58
 3396 0295 0B       		.uleb128 0xb
 3397 0296 59       		.uleb128 0x59
 3398 0297 05       		.uleb128 0x5
 3399 0298 57       		.uleb128 0x57
 3400 0299 0B       		.uleb128 0xb
 3401 029a 00       		.byte	0
 3402 029b 00       		.byte	0
 3403 029c 2D       		.uleb128 0x2d
 3404 029d 05       		.uleb128 0x5
 3405 029e 00       		.byte	0
 3406 029f 31       		.uleb128 0x31
 3407 02a0 13       		.uleb128 0x13
 3408 02a1 02       		.uleb128 0x2
 3409 02a2 17       		.uleb128 0x17
 3410 02a3 B742     		.uleb128 0x2137
 3411 02a5 17       		.uleb128 0x17
 3412 02a6 00       		.byte	0
 3413 02a7 00       		.byte	0
 3414 02a8 2E       		.uleb128 0x2e
 3415 02a9 0B       		.uleb128 0xb
 3416 02aa 01       		.byte	0x1
 3417 02ab 55       		.uleb128 0x55
 3418 02ac 17       		.uleb128 0x17
 3419 02ad 00       		.byte	0
 3420 02ae 00       		.byte	0
ARM GAS  /tmp/ccI4Rg6S.s 			page 61


 3421 02af 2F       		.uleb128 0x2f
 3422 02b0 1D       		.uleb128 0x1d
 3423 02b1 01       		.byte	0x1
 3424 02b2 31       		.uleb128 0x31
 3425 02b3 13       		.uleb128 0x13
 3426 02b4 52       		.uleb128 0x52
 3427 02b5 01       		.uleb128 0x1
 3428 02b6 B842     		.uleb128 0x2138
 3429 02b8 0B       		.uleb128 0xb
 3430 02b9 11       		.uleb128 0x11
 3431 02ba 01       		.uleb128 0x1
 3432 02bb 12       		.uleb128 0x12
 3433 02bc 06       		.uleb128 0x6
 3434 02bd 58       		.uleb128 0x58
 3435 02be 0B       		.uleb128 0xb
 3436 02bf 59       		.uleb128 0x59
 3437 02c0 05       		.uleb128 0x5
 3438 02c1 57       		.uleb128 0x57
 3439 02c2 0B       		.uleb128 0xb
 3440 02c3 00       		.byte	0
 3441 02c4 00       		.byte	0
 3442 02c5 30       		.uleb128 0x30
 3443 02c6 898201   		.uleb128 0x4109
 3444 02c9 01       		.byte	0x1
 3445 02ca 11       		.uleb128 0x11
 3446 02cb 01       		.uleb128 0x1
 3447 02cc 31       		.uleb128 0x31
 3448 02cd 13       		.uleb128 0x13
 3449 02ce 01       		.uleb128 0x1
 3450 02cf 13       		.uleb128 0x13
 3451 02d0 00       		.byte	0
 3452 02d1 00       		.byte	0
 3453 02d2 31       		.uleb128 0x31
 3454 02d3 8A8201   		.uleb128 0x410a
 3455 02d6 00       		.byte	0
 3456 02d7 02       		.uleb128 0x2
 3457 02d8 18       		.uleb128 0x18
 3458 02d9 9142     		.uleb128 0x2111
 3459 02db 18       		.uleb128 0x18
 3460 02dc 00       		.byte	0
 3461 02dd 00       		.byte	0
 3462 02de 32       		.uleb128 0x32
 3463 02df 898201   		.uleb128 0x4109
 3464 02e2 01       		.byte	0x1
 3465 02e3 11       		.uleb128 0x11
 3466 02e4 01       		.uleb128 0x1
 3467 02e5 31       		.uleb128 0x31
 3468 02e6 13       		.uleb128 0x13
 3469 02e7 00       		.byte	0
 3470 02e8 00       		.byte	0
 3471 02e9 33       		.uleb128 0x33
 3472 02ea 2E       		.uleb128 0x2e
 3473 02eb 01       		.byte	0x1
 3474 02ec 03       		.uleb128 0x3
 3475 02ed 0E       		.uleb128 0xe
 3476 02ee 3A       		.uleb128 0x3a
 3477 02ef 0B       		.uleb128 0xb
ARM GAS  /tmp/ccI4Rg6S.s 			page 62


 3478 02f0 3B       		.uleb128 0x3b
 3479 02f1 05       		.uleb128 0x5
 3480 02f2 39       		.uleb128 0x39
 3481 02f3 0B       		.uleb128 0xb
 3482 02f4 27       		.uleb128 0x27
 3483 02f5 19       		.uleb128 0x19
 3484 02f6 20       		.uleb128 0x20
 3485 02f7 0B       		.uleb128 0xb
 3486 02f8 01       		.uleb128 0x1
 3487 02f9 13       		.uleb128 0x13
 3488 02fa 00       		.byte	0
 3489 02fb 00       		.byte	0
 3490 02fc 34       		.uleb128 0x34
 3491 02fd 2E       		.uleb128 0x2e
 3492 02fe 00       		.byte	0
 3493 02ff 03       		.uleb128 0x3
 3494 0300 0E       		.uleb128 0xe
 3495 0301 3A       		.uleb128 0x3a
 3496 0302 0B       		.uleb128 0xb
 3497 0303 3B       		.uleb128 0x3b
 3498 0304 05       		.uleb128 0x5
 3499 0305 39       		.uleb128 0x39
 3500 0306 0B       		.uleb128 0xb
 3501 0307 27       		.uleb128 0x27
 3502 0308 19       		.uleb128 0x19
 3503 0309 20       		.uleb128 0x20
 3504 030a 0B       		.uleb128 0xb
 3505 030b 00       		.byte	0
 3506 030c 00       		.byte	0
 3507 030d 35       		.uleb128 0x35
 3508 030e 05       		.uleb128 0x5
 3509 030f 00       		.byte	0
 3510 0310 03       		.uleb128 0x3
 3511 0311 0E       		.uleb128 0xe
 3512 0312 3A       		.uleb128 0x3a
 3513 0313 0B       		.uleb128 0xb
 3514 0314 3B       		.uleb128 0x3b
 3515 0315 05       		.uleb128 0x5
 3516 0316 39       		.uleb128 0x39
 3517 0317 0B       		.uleb128 0xb
 3518 0318 49       		.uleb128 0x49
 3519 0319 13       		.uleb128 0x13
 3520 031a 00       		.byte	0
 3521 031b 00       		.byte	0
 3522 031c 36       		.uleb128 0x36
 3523 031d 2E       		.uleb128 0x2e
 3524 031e 00       		.byte	0
 3525 031f 3F       		.uleb128 0x3f
 3526 0320 19       		.uleb128 0x19
 3527 0321 3C       		.uleb128 0x3c
 3528 0322 19       		.uleb128 0x19
 3529 0323 6E       		.uleb128 0x6e
 3530 0324 0E       		.uleb128 0xe
 3531 0325 03       		.uleb128 0x3
 3532 0326 0E       		.uleb128 0xe
 3533 0327 3A       		.uleb128 0x3a
 3534 0328 0B       		.uleb128 0xb
ARM GAS  /tmp/ccI4Rg6S.s 			page 63


 3535 0329 3B       		.uleb128 0x3b
 3536 032a 0B       		.uleb128 0xb
 3537 032b 39       		.uleb128 0x39
 3538 032c 0B       		.uleb128 0xb
 3539 032d 00       		.byte	0
 3540 032e 00       		.byte	0
 3541 032f 37       		.uleb128 0x37
 3542 0330 2E       		.uleb128 0x2e
 3543 0331 00       		.byte	0
 3544 0332 3F       		.uleb128 0x3f
 3545 0333 19       		.uleb128 0x19
 3546 0334 3C       		.uleb128 0x3c
 3547 0335 19       		.uleb128 0x19
 3548 0336 6E       		.uleb128 0x6e
 3549 0337 0E       		.uleb128 0xe
 3550 0338 03       		.uleb128 0x3
 3551 0339 0E       		.uleb128 0xe
 3552 033a 3A       		.uleb128 0x3a
 3553 033b 0B       		.uleb128 0xb
 3554 033c 3B       		.uleb128 0x3b
 3555 033d 05       		.uleb128 0x5
 3556 033e 39       		.uleb128 0x39
 3557 033f 0B       		.uleb128 0xb
 3558 0340 00       		.byte	0
 3559 0341 00       		.byte	0
 3560 0342 00       		.byte	0
 3561              		.section	.debug_loc,"",%progbits
 3562              	.Ldebug_loc0:
 3563              	.LVUS8:
 3564 0000 00       		.uleb128 0
 3565 0001 00       		.uleb128 .LVU58
 3566 0002 00       		.uleb128 .LVU58
 3567 0003 00       		.uleb128 0
 3568              	.LLST8:
 3569 0004 50000000 		.4byte	.LVL11-.Ltext0
 3570 0008 61000000 		.4byte	.LVL12-1-.Ltext0
 3571 000c 0100     		.2byte	0x1
 3572 000e 50       		.byte	0x50
 3573 000f 61000000 		.4byte	.LVL12-1-.Ltext0
 3574 0013 A4000000 		.4byte	.LFE324-.Ltext0
 3575 0017 0100     		.2byte	0x1
 3576 0019 55       		.byte	0x55
 3577 001a 00000000 		.4byte	0
 3578 001e 00000000 		.4byte	0
 3579              	.LVUS9:
 3580 0022 00       		.uleb128 0
 3581 0023 00       		.uleb128 .LVU58
 3582 0024 00       		.uleb128 .LVU58
 3583 0025 00       		.uleb128 0
 3584              	.LLST9:
 3585 0026 50000000 		.4byte	.LVL11-.Ltext0
 3586 002a 61000000 		.4byte	.LVL12-1-.Ltext0
 3587 002e 0100     		.2byte	0x1
 3588 0030 51       		.byte	0x51
 3589 0031 61000000 		.4byte	.LVL12-1-.Ltext0
 3590 0035 A4000000 		.4byte	.LFE324-.Ltext0
 3591 0039 0100     		.2byte	0x1
ARM GAS  /tmp/ccI4Rg6S.s 			page 64


 3592 003b 58       		.byte	0x58
 3593 003c 00000000 		.4byte	0
 3594 0040 00000000 		.4byte	0
 3595              	.LVUS10:
 3596 0044 00       		.uleb128 0
 3597 0045 00       		.uleb128 .LVU58
 3598 0046 00       		.uleb128 .LVU58
 3599 0047 00       		.uleb128 0
 3600              	.LLST10:
 3601 0048 50000000 		.4byte	.LVL11-.Ltext0
 3602 004c 61000000 		.4byte	.LVL12-1-.Ltext0
 3603 0050 0100     		.2byte	0x1
 3604 0052 52       		.byte	0x52
 3605 0053 61000000 		.4byte	.LVL12-1-.Ltext0
 3606 0057 A4000000 		.4byte	.LFE324-.Ltext0
 3607 005b 0100     		.2byte	0x1
 3608 005d 57       		.byte	0x57
 3609 005e 00000000 		.4byte	0
 3610 0062 00000000 		.4byte	0
 3611              	.LVUS11:
 3612 0066 00       		.uleb128 0
 3613 0067 00       		.uleb128 .LVU58
 3614 0068 00       		.uleb128 .LVU58
 3615 0069 00       		.uleb128 0
 3616              	.LLST11:
 3617 006a 50000000 		.4byte	.LVL11-.Ltext0
 3618 006e 61000000 		.4byte	.LVL12-1-.Ltext0
 3619 0072 0100     		.2byte	0x1
 3620 0074 53       		.byte	0x53
 3621 0075 61000000 		.4byte	.LVL12-1-.Ltext0
 3622 0079 A4000000 		.4byte	.LFE324-.Ltext0
 3623 007d 0100     		.2byte	0x1
 3624 007f 56       		.byte	0x56
 3625 0080 00000000 		.4byte	0
 3626 0084 00000000 		.4byte	0
 3627              	.LVUS12:
 3628 0088 00       		.uleb128 .LVU85
 3629 0089 00       		.uleb128 .LVU88
 3630 008a 00       		.uleb128 .LVU88
 3631 008b 02       		.uleb128 .LVU101
 3632              	.LLST12:
 3633 008c 92000000 		.4byte	.LVL17-.Ltext0
 3634 0090 95000000 		.4byte	.LVL18-1-.Ltext0
 3635 0094 0100     		.2byte	0x1
 3636 0096 50       		.byte	0x50
 3637 0097 95000000 		.4byte	.LVL18-1-.Ltext0
 3638 009b 9C000000 		.4byte	.LVL19-.Ltext0
 3639 009f 0100     		.2byte	0x1
 3640 00a1 54       		.byte	0x54
 3641 00a2 00000000 		.4byte	0
 3642 00a6 00000000 		.4byte	0
 3643              	.LVUS13:
 3644 00aa 00       		.uleb128 .LVU58
 3645 00ab 00       		.uleb128 .LVU62
 3646 00ac 00       		.uleb128 .LVU62
 3647 00ad 00       		.uleb128 .LVU85
 3648              	.LLST13:
ARM GAS  /tmp/ccI4Rg6S.s 			page 65


 3649 00ae 62000000 		.4byte	.LVL12-.Ltext0
 3650 00b2 68000000 		.4byte	.LVL13-.Ltext0
 3651 00b6 0100     		.2byte	0x1
 3652 00b8 50       		.byte	0x50
 3653 00b9 68000000 		.4byte	.LVL13-.Ltext0
 3654 00bd 92000000 		.4byte	.LVL17-.Ltext0
 3655 00c1 0100     		.2byte	0x1
 3656 00c3 54       		.byte	0x54
 3657 00c4 00000000 		.4byte	0
 3658 00c8 00000000 		.4byte	0
 3659              	.LVUS14:
 3660 00cc 05       		.uleb128 .LVU71
 3661 00cd 00       		.uleb128 .LVU75
 3662              	.LLST14:
 3663 00ce 76000000 		.4byte	.LVL14-.Ltext0
 3664 00d2 80000000 		.4byte	.LVL15-.Ltext0
 3665 00d6 0300     		.2byte	0x3
 3666 00d8 08       		.byte	0x8
 3667 00d9 20       		.byte	0x20
 3668 00da 9F       		.byte	0x9f
 3669 00db 00000000 		.4byte	0
 3670 00df 00000000 		.4byte	0
 3671              	.LVUS15:
 3672 00e3 09       		.uleb128 .LVU97
 3673 00e4 00       		.uleb128 .LVU99
 3674              	.LLST15:
 3675 00e5 96000000 		.4byte	.LVL18-.Ltext0
 3676 00e9 9C000000 		.4byte	.LVL19-.Ltext0
 3677 00ed 0200     		.2byte	0x2
 3678 00ef 30       		.byte	0x30
 3679 00f0 9F       		.byte	0x9f
 3680 00f1 00000000 		.4byte	0
 3681 00f5 00000000 		.4byte	0
 3682              	.LVUS0:
 3683 00f9 00       		.uleb128 0
 3684 00fa 00       		.uleb128 .LVU8
 3685 00fb 00       		.uleb128 .LVU8
 3686 00fc 00       		.uleb128 0
 3687              	.LLST0:
 3688 00fd 00000000 		.4byte	.LVL0-.Ltext0
 3689 0101 0F000000 		.4byte	.LVL2-1-.Ltext0
 3690 0105 0100     		.2byte	0x1
 3691 0107 50       		.byte	0x50
 3692 0108 0F000000 		.4byte	.LVL2-1-.Ltext0
 3693 010c 4C000000 		.4byte	.LFE323-.Ltext0
 3694 0110 0400     		.2byte	0x4
 3695 0112 F3       		.byte	0xf3
 3696 0113 01       		.uleb128 0x1
 3697 0114 50       		.byte	0x50
 3698 0115 9F       		.byte	0x9f
 3699 0116 00000000 		.4byte	0
 3700 011a 00000000 		.4byte	0
 3701              	.LVUS1:
 3702 011e 00       		.uleb128 0
 3703 011f 00       		.uleb128 .LVU8
 3704 0120 00       		.uleb128 .LVU8
 3705 0121 00       		.uleb128 .LVU13
ARM GAS  /tmp/ccI4Rg6S.s 			page 66


 3706 0122 00       		.uleb128 .LVU13
 3707 0123 00       		.uleb128 0
 3708              	.LLST1:
 3709 0124 00000000 		.4byte	.LVL0-.Ltext0
 3710 0128 0F000000 		.4byte	.LVL2-1-.Ltext0
 3711 012c 0100     		.2byte	0x1
 3712 012e 51       		.byte	0x51
 3713 012f 0F000000 		.4byte	.LVL2-1-.Ltext0
 3714 0133 18000000 		.4byte	.LVL3-.Ltext0
 3715 0137 0100     		.2byte	0x1
 3716 0139 55       		.byte	0x55
 3717 013a 18000000 		.4byte	.LVL3-.Ltext0
 3718 013e 4C000000 		.4byte	.LFE323-.Ltext0
 3719 0142 0400     		.2byte	0x4
 3720 0144 F3       		.byte	0xf3
 3721 0145 01       		.uleb128 0x1
 3722 0146 51       		.byte	0x51
 3723 0147 9F       		.byte	0x9f
 3724 0148 00000000 		.4byte	0
 3725 014c 00000000 		.4byte	0
 3726              	.LVUS2:
 3727 0150 00       		.uleb128 0
 3728 0151 00       		.uleb128 .LVU6
 3729 0152 00       		.uleb128 .LVU6
 3730 0153 00       		.uleb128 0
 3731              	.LLST2:
 3732 0154 00000000 		.4byte	.LVL0-.Ltext0
 3733 0158 08000000 		.4byte	.LVL1-.Ltext0
 3734 015c 0100     		.2byte	0x1
 3735 015e 52       		.byte	0x52
 3736 015f 08000000 		.4byte	.LVL1-.Ltext0
 3737 0163 4C000000 		.4byte	.LFE323-.Ltext0
 3738 0167 0100     		.2byte	0x1
 3739 0169 57       		.byte	0x57
 3740 016a 00000000 		.4byte	0
 3741 016e 00000000 		.4byte	0
 3742              	.LVUS3:
 3743 0172 00       		.uleb128 0
 3744 0173 00       		.uleb128 .LVU8
 3745 0174 00       		.uleb128 .LVU8
 3746 0175 00       		.uleb128 0
 3747              	.LLST3:
 3748 0176 00000000 		.4byte	.LVL0-.Ltext0
 3749 017a 0F000000 		.4byte	.LVL2-1-.Ltext0
 3750 017e 0100     		.2byte	0x1
 3751 0180 53       		.byte	0x53
 3752 0181 0F000000 		.4byte	.LVL2-1-.Ltext0
 3753 0185 4C000000 		.4byte	.LFE323-.Ltext0
 3754 0189 0100     		.2byte	0x1
 3755 018b 56       		.byte	0x56
 3756 018c 00000000 		.4byte	0
 3757 0190 00000000 		.4byte	0
 3758              	.LVUS4:
 3759 0194 00       		.uleb128 .LVU31
 3760 0195 00       		.uleb128 .LVU34
 3761 0196 00       		.uleb128 .LVU34
 3762 0197 02       		.uleb128 .LVU47
ARM GAS  /tmp/ccI4Rg6S.s 			page 67


 3763              	.LLST4:
 3764 0198 38000000 		.4byte	.LVL8-.Ltext0
 3765 019c 3F000000 		.4byte	.LVL9-1-.Ltext0
 3766 01a0 0100     		.2byte	0x1
 3767 01a2 50       		.byte	0x50
 3768 01a3 3F000000 		.4byte	.LVL9-1-.Ltext0
 3769 01a7 46000000 		.4byte	.LVL10-.Ltext0
 3770 01ab 0100     		.2byte	0x1
 3771 01ad 54       		.byte	0x54
 3772 01ae 00000000 		.4byte	0
 3773 01b2 00000000 		.4byte	0
 3774              	.LVUS5:
 3775 01b6 00       		.uleb128 .LVU8
 3776 01b7 00       		.uleb128 .LVU27
 3777 01b8 00       		.uleb128 .LVU27
 3778 01b9 00       		.uleb128 .LVU31
 3779              	.LLST5:
 3780 01ba 10000000 		.4byte	.LVL2-.Ltext0
 3781 01be 2E000000 		.4byte	.LVL6-.Ltext0
 3782 01c2 0100     		.2byte	0x1
 3783 01c4 50       		.byte	0x50
 3784 01c5 2E000000 		.4byte	.LVL6-.Ltext0
 3785 01c9 38000000 		.4byte	.LVL8-.Ltext0
 3786 01cd 0100     		.2byte	0x1
 3787 01cf 54       		.byte	0x54
 3788 01d0 00000000 		.4byte	0
 3789 01d4 00000000 		.4byte	0
 3790              	.LVUS6:
 3791 01d8 05       		.uleb128 .LVU20
 3792 01d9 00       		.uleb128 .LVU22
 3793              	.LLST6:
 3794 01da 28000000 		.4byte	.LVL4-.Ltext0
 3795 01de 2C000000 		.4byte	.LVL5-.Ltext0
 3796 01e2 0300     		.2byte	0x3
 3797 01e4 08       		.byte	0x8
 3798 01e5 20       		.byte	0x20
 3799 01e6 9F       		.byte	0x9f
 3800 01e7 00000000 		.4byte	0
 3801 01eb 00000000 		.4byte	0
 3802              	.LVUS7:
 3803 01ef 09       		.uleb128 .LVU43
 3804 01f0 00       		.uleb128 .LVU45
 3805              	.LLST7:
 3806 01f1 40000000 		.4byte	.LVL9-.Ltext0
 3807 01f5 46000000 		.4byte	.LVL10-.Ltext0
 3808 01f9 0200     		.2byte	0x2
 3809 01fb 30       		.byte	0x30
 3810 01fc 9F       		.byte	0x9f
 3811 01fd 00000000 		.4byte	0
 3812 0201 00000000 		.4byte	0
 3813              		.section	.debug_aranges,"",%progbits
 3814 0000 1C000000 		.4byte	0x1c
 3815 0004 0200     		.2byte	0x2
 3816 0006 00000000 		.4byte	.Ldebug_info0
 3817 000a 04       		.byte	0x4
 3818 000b 00       		.byte	0
 3819 000c 0000     		.2byte	0
ARM GAS  /tmp/ccI4Rg6S.s 			page 68


 3820 000e 0000     		.2byte	0
 3821 0010 00000000 		.4byte	.Ltext0
 3822 0014 A4000000 		.4byte	.Letext0-.Ltext0
 3823 0018 00000000 		.4byte	0
 3824 001c 00000000 		.4byte	0
 3825              		.section	.debug_ranges,"",%progbits
 3826              	.Ldebug_ranges0:
 3827 0000 18000000 		.4byte	.LBB34-.Ltext0
 3828 0004 1A000000 		.4byte	.LBE34-.Ltext0
 3829 0008 28000000 		.4byte	.LBB42-.Ltext0
 3830 000c 28000000 		.4byte	.LBE42-.Ltext0
 3831 0010 28000000 		.4byte	.LBB43-.Ltext0
 3832 0014 28000000 		.4byte	.LBE43-.Ltext0
 3833 0018 28000000 		.4byte	.LBB44-.Ltext0
 3834 001c 2C000000 		.4byte	.LBE44-.Ltext0
 3835 0020 00000000 		.4byte	0
 3836 0024 00000000 		.4byte	0
 3837 0028 18000000 		.4byte	.LBB35-.Ltext0
 3838 002c 1A000000 		.4byte	.LBE35-.Ltext0
 3839 0030 28000000 		.4byte	.LBB40-.Ltext0
 3840 0034 28000000 		.4byte	.LBE40-.Ltext0
 3841 0038 28000000 		.4byte	.LBB41-.Ltext0
 3842 003c 2C000000 		.4byte	.LBE41-.Ltext0
 3843 0040 00000000 		.4byte	0
 3844 0044 00000000 		.4byte	0
 3845 0048 18000000 		.4byte	.LBB36-.Ltext0
 3846 004c 1A000000 		.4byte	.LBE36-.Ltext0
 3847 0050 28000000 		.4byte	.LBB39-.Ltext0
 3848 0054 2C000000 		.4byte	.LBE39-.Ltext0
 3849 0058 00000000 		.4byte	0
 3850 005c 00000000 		.4byte	0
 3851 0060 40000000 		.4byte	.LBB45-.Ltext0
 3852 0064 40000000 		.4byte	.LBE45-.Ltext0
 3853 0068 40000000 		.4byte	.LBB52-.Ltext0
 3854 006c 46000000 		.4byte	.LBE52-.Ltext0
 3855 0070 00000000 		.4byte	0
 3856 0074 00000000 		.4byte	0
 3857 0078 68000000 		.4byte	.LBB53-.Ltext0
 3858 007c 6A000000 		.4byte	.LBE53-.Ltext0
 3859 0080 76000000 		.4byte	.LBB64-.Ltext0
 3860 0084 76000000 		.4byte	.LBE64-.Ltext0
 3861 0088 76000000 		.4byte	.LBB65-.Ltext0
 3862 008c 76000000 		.4byte	.LBE65-.Ltext0
 3863 0090 76000000 		.4byte	.LBB66-.Ltext0
 3864 0094 76000000 		.4byte	.LBE66-.Ltext0
 3865 0098 7C000000 		.4byte	.LBB67-.Ltext0
 3866 009c 80000000 		.4byte	.LBE67-.Ltext0
 3867 00a0 00000000 		.4byte	0
 3868 00a4 00000000 		.4byte	0
 3869 00a8 68000000 		.4byte	.LBB54-.Ltext0
 3870 00ac 6A000000 		.4byte	.LBE54-.Ltext0
 3871 00b0 76000000 		.4byte	.LBB61-.Ltext0
 3872 00b4 76000000 		.4byte	.LBE61-.Ltext0
 3873 00b8 76000000 		.4byte	.LBB62-.Ltext0
 3874 00bc 76000000 		.4byte	.LBE62-.Ltext0
 3875 00c0 7C000000 		.4byte	.LBB63-.Ltext0
 3876 00c4 80000000 		.4byte	.LBE63-.Ltext0
ARM GAS  /tmp/ccI4Rg6S.s 			page 69


 3877 00c8 00000000 		.4byte	0
 3878 00cc 00000000 		.4byte	0
 3879 00d0 68000000 		.4byte	.LBB55-.Ltext0
 3880 00d4 6A000000 		.4byte	.LBE55-.Ltext0
 3881 00d8 76000000 		.4byte	.LBB59-.Ltext0
 3882 00dc 76000000 		.4byte	.LBE59-.Ltext0
 3883 00e0 7C000000 		.4byte	.LBB60-.Ltext0
 3884 00e4 80000000 		.4byte	.LBE60-.Ltext0
 3885 00e8 00000000 		.4byte	0
 3886 00ec 00000000 		.4byte	0
 3887 00f0 96000000 		.4byte	.LBB68-.Ltext0
 3888 00f4 96000000 		.4byte	.LBE68-.Ltext0
 3889 00f8 96000000 		.4byte	.LBB75-.Ltext0
 3890 00fc 9C000000 		.4byte	.LBE75-.Ltext0
 3891 0100 00000000 		.4byte	0
 3892 0104 00000000 		.4byte	0
 3893              		.section	.debug_line,"",%progbits
 3894              	.Ldebug_line0:
 3895 0000 7A050000 		.section	.debug_str,"MS",%progbits,1
 3895      0300BE03 
 3895      00000201 
 3895      FB0E0D00 
 3895      01010101 
 3896              	.LASF109:
 3897 0000 7466756E 		.ascii	"tfunc_t\000"
 3897      635F7400 
 3898              	.LASF6:
 3899 0008 756E7369 		.ascii	"unsigned char\000"
 3899      676E6564 
 3899      20636861 
 3899      7200
 3900              	.LASF54:
 3901 0016 72656164 		.ascii	"ready_list_t\000"
 3901      795F6C69 
 3901      73745F74 
 3901      00
 3902              	.LASF158:
 3903 0023 63685F6F 		.ascii	"ch_objects_factory\000"
 3903      626A6563 
 3903      74735F66 
 3903      6163746F 
 3903      727900
 3904              	.LASF98:
 3905 0036 7264796D 		.ascii	"rdymsg\000"
 3905      736700
 3906              	.LASF112:
 3907 003d 66756E63 		.ascii	"funcp\000"
 3907      7000
 3908              	.LASF20:
 3909 0043 75696E74 		.ascii	"uint64_t\000"
 3909      36345F74 
 3909      00
 3910              	.LASF5:
 3911 004c 5F5F7569 		.ascii	"__uint8_t\000"
 3911      6E74385F 
 3911      7400
 3912              	.LASF53:
ARM GAS  /tmp/ccI4Rg6S.s 			page 70


 3913 0056 70726576 		.ascii	"prev\000"
 3913      00
 3914              	.LASF81:
 3915 005b 706F7274 		.ascii	"port_intctx\000"
 3915      5F696E74 
 3915      63747800 
 3916              	.LASF148:
 3917 0067 70616765 		.ascii	"pages\000"
 3917      7300
 3918              	.LASF72:
 3919 006d 76746C69 		.ascii	"vtlist\000"
 3919      737400
 3920              	.LASF143:
 3921 0074 70726F76 		.ascii	"provider\000"
 3921      69646572 
 3921      00
 3922              	.LASF88:
 3923 007d 74797065 		.ascii	"type\000"
 3923      00
 3924              	.LASF113:
 3925 0082 74687265 		.ascii	"thread_descriptor_t\000"
 3925      61645F64 
 3925      65736372 
 3925      6970746F 
 3925      725F7400 
 3926              	.LASF162:
 3927 0096 73656D5F 		.ascii	"sem_list\000"
 3927      6C697374 
 3927      00
 3928              	.LASF175:
 3929 009f 706F7274 		.ascii	"port_lock\000"
 3929      5F6C6F63 
 3929      6B00
 3930              	.LASF135:
 3931 00a9 6D656D67 		.ascii	"memgetfunc_t\000"
 3931      65746675 
 3931      6E635F74 
 3931      00
 3932              	.LASF92:
 3933 00b6 73757370 		.ascii	"suspended\000"
 3933      656E6465 
 3933      6400
 3934              	.LASF111:
 3935 00c0 77656E64 		.ascii	"wend\000"
 3935      00
 3936              	.LASF86:
 3937 00c5 68616C74 		.ascii	"halt\000"
 3937      00
 3938              	.LASF73:
 3939 00ca 6D61696E 		.ascii	"mainthread\000"
 3939      74687265 
 3939      616400
 3940              	.LASF101:
 3941 00d5 73656E74 		.ascii	"sentmsg\000"
 3941      6D736700 
 3942              	.LASF60:
 3943 00dd 64656C74 		.ascii	"delta\000"
ARM GAS  /tmp/ccI4Rg6S.s 			page 71


 3943      6100
 3944              	.LASF76:
 3945 00e3 49544D5F 		.ascii	"ITM_RxBuffer\000"
 3945      52784275 
 3945      66666572 
 3945      00
 3946              	.LASF171:
 3947 00f0 68656170 		.ascii	"heapp\000"
 3947      7000
 3948              	.LASF75:
 3949 00f6 73797369 		.ascii	"sysinterval_t\000"
 3949      6E746572 
 3949      76616C5F 
 3949      7400
 3950              	.LASF50:
 3951 0104 6E657874 		.ascii	"next\000"
 3951      00
 3952              	.LASF52:
 3953 0109 63685F74 		.ascii	"ch_threads_queue\000"
 3953      68726561 
 3953      64735F71 
 3953      75657565 
 3953      00
 3954              	.LASF164:
 3955 011a 6D62785F 		.ascii	"mbx_list\000"
 3955      6C697374 
 3955      00
 3956              	.LASF78:
 3957 0123 53797374 		.ascii	"SystemD2Clock\000"
 3957      656D4432 
 3957      436C6F63 
 3957      6B00
 3958              	.LASF9:
 3959 0131 73686F72 		.ascii	"short unsigned int\000"
 3959      7420756E 
 3959      7369676E 
 3959      65642069 
 3959      6E7400
 3960              	.LASF137:
 3961 0144 62617365 		.ascii	"basemem\000"
 3961      6D656D00 
 3962              	.LASF1:
 3963 014c 6C6F6E67 		.ascii	"long long int\000"
 3963      206C6F6E 
 3963      6720696E 
 3963      7400
 3964              	.LASF3:
 3965 015a 7369676E 		.ascii	"signed char\000"
 3965      65642063 
 3965      68617200 
 3966              	.LASF13:
 3967 0166 6C6F6E67 		.ascii	"long unsigned int\000"
 3967      20756E73 
 3967      69676E65 
 3967      6420696E 
 3967      7400
 3968              	.LASF93:
ARM GAS  /tmp/ccI4Rg6S.s 			page 72


 3969 0178 73697A65 		.ascii	"size\000"
 3969      00
 3970              	.LASF15:
 3971 017d 6C6F6E67 		.ascii	"long long unsigned int\000"
 3971      206C6F6E 
 3971      6720756E 
 3971      7369676E 
 3971      65642069 
 3972              	.LASF179:
 3973 0194 63685468 		.ascii	"chThdCreateSuspendedI\000"
 3973      64437265 
 3973      61746553 
 3973      75737065 
 3973      6E646564 
 3974              	.LASF186:
 3975 01aa 62617365 		.ascii	"basePri\000"
 3975      50726900 
 3976              	.LASF37:
 3977 01b2 73746174 		.ascii	"state\000"
 3977      6500
 3978              	.LASF11:
 3979 01b8 6C6F6E67 		.ascii	"long int\000"
 3979      20696E74 
 3979      00
 3980              	.LASF170:
 3981 01c1 63685468 		.ascii	"chThdCreateFromHeap\000"
 3981      64437265 
 3981      61746546 
 3981      726F6D48 
 3981      65617000 
 3982              	.LASF23:
 3983 01d5 74737461 		.ascii	"tstate_t\000"
 3983      74655F74 
 3983      00
 3984              	.LASF91:
 3985 01de 63685F74 		.ascii	"ch_trace_event_t\000"
 3985      72616365 
 3985      5F657665 
 3985      6E745F74 
 3985      00
 3986              	.LASF61:
 3987 01ef 66756E63 		.ascii	"func\000"
 3987      00
 3988              	.LASF17:
 3989 01f4 75696E74 		.ascii	"uint16_t\000"
 3989      31365F74 
 3989      00
 3990              	.LASF131:
 3991 01fd 63686465 		.ascii	"chdebug_t\000"
 3991      6275675F 
 3991      7400
 3992              	.LASF129:
 3993 0207 6F66665F 		.ascii	"off_preempt\000"
 3993      70726565 
 3993      6D707400 
 3994              	.LASF94:
 3995 0213 62756666 		.ascii	"buffer\000"
ARM GAS  /tmp/ccI4Rg6S.s 			page 73


 3995      657200
 3996              	.LASF99:
 3997 021a 65786974 		.ascii	"exitcode\000"
 3997      636F6465 
 3997      00
 3998              	.LASF12:
 3999 0223 5F5F7569 		.ascii	"__uint32_t\000"
 3999      6E743332 
 3999      5F7400
 4000              	.LASF184:
 4001 022e 2F686F6D 		.ascii	"/home/nicolas/source/akso-sub/axoloti/firmware/moun"
 4001      652F6E69 
 4001      636F6C61 
 4001      732F736F 
 4001      75726365 
 4002 0261 74657200 		.ascii	"ter\000"
 4003              	.LASF4:
 4004 0265 73697A65 		.ascii	"size_t\000"
 4004      5F7400
 4005              	.LASF40:
 4006 026c 77616974 		.ascii	"waiting\000"
 4006      696E6700 
 4007              	.LASF174:
 4008 0274 706F7274 		.ascii	"port_unlock\000"
 4008      5F756E6C 
 4008      6F636B00 
 4009              	.LASF115:
 4010 0280 7A65726F 		.ascii	"zero\000"
 4010      00
 4011              	.LASF133:
 4012 0285 6D757465 		.ascii	"mutex_t\000"
 4012      785F7400 
 4013              	.LASF152:
 4014 028d 616C6967 		.ascii	"align\000"
 4014      6E00
 4015              	.LASF82:
 4016 0293 706F7274 		.ascii	"port_context\000"
 4016      5F636F6E 
 4016      74657874 
 4016      00
 4017              	.LASF63:
 4018 02a0 63685F76 		.ascii	"ch_virtual_timers_list\000"
 4018      69727475 
 4018      616C5F74 
 4018      696D6572 
 4018      735F6C69 
 4019              	.LASF28:
 4020 02b7 636E745F 		.ascii	"cnt_t\000"
 4020      7400
 4021              	.LASF41:
 4022 02bd 6D736771 		.ascii	"msgqueue\000"
 4022      75657565 
 4022      00
 4023              	.LASF0:
 4024 02c6 756E7369 		.ascii	"unsigned int\000"
 4024      676E6564 
 4024      20696E74 
ARM GAS  /tmp/ccI4Rg6S.s 			page 74


 4024      00
 4025              	.LASF77:
 4026 02d3 53797374 		.ascii	"SystemCoreClock\000"
 4026      656D436F 
 4026      7265436C 
 4026      6F636B00 
 4027              	.LASF102:
 4028 02e3 77747365 		.ascii	"wtsemp\000"
 4028      6D7000
 4029              	.LASF79:
 4030 02ea 4431436F 		.ascii	"D1CorePrescTable\000"
 4030      72655072 
 4030      65736354 
 4030      61626C65 
 4030      00
 4031              	.LASF65:
 4032 02fb 73797374 		.ascii	"system_debug_t\000"
 4032      656D5F64 
 4032      65627567 
 4032      5F7400
 4033              	.LASF167:
 4034 030a 6F626A65 		.ascii	"objects_factory_t\000"
 4034      6374735F 
 4034      66616374 
 4034      6F72795F 
 4034      7400
 4035              	.LASF138:
 4036 031c 746F706D 		.ascii	"topmem\000"
 4036      656D00
 4037              	.LASF132:
 4038 0323 63685F64 		.ascii	"ch_debug\000"
 4038      65627567 
 4038      00
 4039              	.LASF153:
 4040 032c 6D656D6F 		.ascii	"memory_pool_t\000"
 4040      72795F70 
 4040      6F6F6C5F 
 4040      7400
 4041              	.LASF31:
 4042 033a 71756575 		.ascii	"queue\000"
 4042      6500
 4043              	.LASF35:
 4044 0340 6E616D65 		.ascii	"name\000"
 4044      00
 4045              	.LASF128:
 4046 0345 6F66665F 		.ascii	"off_refs\000"
 4046      72656673 
 4046      00
 4047              	.LASF161:
 4048 034e 6275665F 		.ascii	"buf_list\000"
 4048      6C697374 
 4048      00
 4049              	.LASF48:
 4050 0357 63685F74 		.ascii	"ch_thread\000"
 4050      68726561 
 4050      6400
 4051              	.LASF26:
ARM GAS  /tmp/ccI4Rg6S.s 			page 75


 4052 0361 6D73675F 		.ascii	"msg_t\000"
 4052      7400
 4053              	.LASF29:
 4054 0367 75636E74 		.ascii	"ucnt_t\000"
 4054      5F7400
 4055              	.LASF42:
 4056 036e 6570656E 		.ascii	"epending\000"
 4056      64696E67 
 4056      00
 4057              	.LASF157:
 4058 0377 64796E5F 		.ascii	"dyn_list_t\000"
 4058      6C697374 
 4058      5F7400
 4059              	.LASF69:
 4060 0382 63685F73 		.ascii	"ch_system_t\000"
 4060      79737465 
 4060      6D5F7400 
 4061              	.LASF121:
 4062 038e 6F66665F 		.ascii	"off_ctx\000"
 4062      63747800 
 4063              	.LASF22:
 4064 0396 746D6F64 		.ascii	"tmode_t\000"
 4064      655F7400 
 4065              	.LASF55:
 4066 039e 63685F72 		.ascii	"ch_ready_list\000"
 4066      65616479 
 4066      5F6C6973 
 4066      7400
 4067              	.LASF27:
 4068 03ac 6576656E 		.ascii	"eventmask_t\000"
 4068      746D6173 
 4068      6B5F7400 
 4069              	.LASF124:
 4070 03b8 6F66665F 		.ascii	"off_name\000"
 4070      6E616D65 
 4070      00
 4071              	.LASF10:
 4072 03c1 5F5F696E 		.ascii	"__int32_t\000"
 4072      7433325F 
 4072      7400
 4073              	.LASF62:
 4074 03cb 76697274 		.ascii	"virtual_timers_list_t\000"
 4074      75616C5F 
 4074      74696D65 
 4074      72735F6C 
 4074      6973745F 
 4075              	.LASF80:
 4076 03e1 73746B61 		.ascii	"stkalign_t\000"
 4076      6C69676E 
 4076      5F7400
 4077              	.LASF33:
 4078 03ec 6E657765 		.ascii	"newer\000"
 4078      7200
 4079              	.LASF89:
 4080 03f2 72747374 		.ascii	"rtstamp\000"
 4080      616D7000 
 4081              	.LASF44:
ARM GAS  /tmp/ccI4Rg6S.s 			page 76


 4082 03fa 7265616C 		.ascii	"realprio\000"
 4082      7072696F 
 4082      00
 4083              	.LASF116:
 4084 0403 76657273 		.ascii	"version\000"
 4084      696F6E00 
 4085              	.LASF21:
 4086 040b 7274636E 		.ascii	"rtcnt_t\000"
 4086      745F7400 
 4087              	.LASF155:
 4088 0413 64796E5F 		.ascii	"dyn_element_t\000"
 4088      656C656D 
 4088      656E745F 
 4088      7400
 4089              	.LASF140:
 4090 0421 63685F6D 		.ascii	"ch_memcore\000"
 4090      656D636F 
 4090      726500
 4091              	.LASF100:
 4092 042c 77747472 		.ascii	"wttrp\000"
 4092      7000
 4093              	.LASF122:
 4094 0432 6F66665F 		.ascii	"off_newer\000"
 4094      6E657765 
 4094      7200
 4095              	.LASF97:
 4096 043c 746D5F63 		.ascii	"tm_calibration_t\000"
 4096      616C6962 
 4096      72617469 
 4096      6F6E5F74 
 4096      00
 4097              	.LASF169:
 4098 044d 63685468 		.ascii	"chThdCreateFromMemoryPool\000"
 4098      64437265 
 4098      61746546 
 4098      726F6D4D 
 4098      656D6F72 
 4099              	.LASF110:
 4100 0467 77626173 		.ascii	"wbase\000"
 4100      6500
 4101              	.LASF151:
 4102 046d 6F626A65 		.ascii	"object_size\000"
 4102      63745F73 
 4102      697A6500 
 4103              	.LASF136:
 4104 0479 6D656D67 		.ascii	"memgetfunc2_t\000"
 4104      65746675 
 4104      6E63325F 
 4104      7400
 4105              	.LASF90:
 4106 0487 74696D65 		.ascii	"time\000"
 4106      00
 4107              	.LASF32:
 4108 048c 7072696F 		.ascii	"prio\000"
 4108      00
 4109              	.LASF56:
 4110 0491 63757272 		.ascii	"current\000"
ARM GAS  /tmp/ccI4Rg6S.s 			page 77


 4110      656E7400 
 4111              	.LASF14:
 4112 0499 5F5F7569 		.ascii	"__uint64_t\000"
 4112      6E743634 
 4112      5F7400
 4113              	.LASF139:
 4114 04a4 6D656D63 		.ascii	"memcore_t\000"
 4114      6F72655F 
 4114      7400
 4115              	.LASF182:
 4116 04ae 474E5520 		.ascii	"GNU C17 8.3.1 20190703 (release) [gcc-8-branch revi"
 4116      43313720 
 4116      382E332E 
 4116      31203230 
 4116      31393037 
 4117 04e1 73696F6E 		.ascii	"sion 273027] -mcpu=cortex-m7 -mthumb -mfloat-abi=ha"
 4117      20323733 
 4117      3032375D 
 4117      202D6D63 
 4117      70753D63 
 4118 0514 7264202D 		.ascii	"rd -mfpu=fpv4-sp-d16 -march=armv7e-m+fp -ggdb -O2 -"
 4118      6D667075 
 4118      3D667076 
 4118      342D7370 
 4118      2D643136 
 4119 0547 666F6D69 		.ascii	"fomit-frame-pointer -falign-functions=16 -fno-math-"
 4119      742D6672 
 4119      616D652D 
 4119      706F696E 
 4119      74657220 
 4120 057a 6572726E 		.ascii	"errno\000"
 4120      6F00
 4121              	.LASF147:
 4122 0580 75736564 		.ascii	"used\000"
 4122      00
 4123              	.LASF183:
 4124 0585 2E2E2F2E 		.ascii	"../../../external/ChibiOS/os/rt/src/chdynamic.c\000"
 4124      2E2F2E2E 
 4124      2F657874 
 4124      65726E61 
 4124      6C2F4368 
 4125              	.LASF24:
 4126 05b5 74726566 		.ascii	"trefs_t\000"
 4126      735F7400 
 4127              	.LASF119:
 4128 05bd 74687265 		.ascii	"threadsize\000"
 4128      61647369 
 4128      7A6500
 4129              	.LASF39:
 4130 05c8 72656673 		.ascii	"refs\000"
 4130      00
 4131              	.LASF58:
 4132 05cd 76697274 		.ascii	"virtual_timer_t\000"
 4132      75616C5F 
 4132      74696D65 
 4132      725F7400 
 4133              	.LASF154:
ARM GAS  /tmp/ccI4Rg6S.s 			page 78


 4134 05dd 63685F64 		.ascii	"ch_dyn_element\000"
 4134      796E5F65 
 4134      6C656D65 
 4134      6E7400
 4135              	.LASF141:
 4136 05ec 6D656D6F 		.ascii	"memory_heap_t\000"
 4136      72795F68 
 4136      6561705F 
 4136      7400
 4137              	.LASF25:
 4138 05fa 74707269 		.ascii	"tprio_t\000"
 4138      6F5F7400 
 4139              	.LASF87:
 4140 0602 75736572 		.ascii	"user\000"
 4140      00
 4141              	.LASF66:
 4142 0607 63685F73 		.ascii	"ch_system_debug\000"
 4142      79737465 
 4142      6D5F6465 
 4142      62756700 
 4143              	.LASF134:
 4144 0617 5F426F6F 		.ascii	"_Bool\000"
 4144      6C00
 4145              	.LASF18:
 4146 061d 696E7433 		.ascii	"int32_t\000"
 4146      325F7400 
 4147              	.LASF95:
 4148 0625 63685F74 		.ascii	"ch_trace_buffer_t\000"
 4148      72616365 
 4148      5F627566 
 4148      6665725F 
 4148      7400
 4149              	.LASF120:
 4150 0637 6F66665F 		.ascii	"off_prio\000"
 4150      7072696F 
 4150      00
 4151              	.LASF125:
 4152 0640 6F66665F 		.ascii	"off_stklimit\000"
 4152      73746B6C 
 4152      696D6974 
 4152      00
 4153              	.LASF7:
 4154 064d 73686F72 		.ascii	"short int\000"
 4154      7420696E 
 4154      7400
 4155              	.LASF64:
 4156 0657 6C617374 		.ascii	"lasttime\000"
 4156      74696D65 
 4156      00
 4157              	.LASF185:
 4158 0660 68656170 		.ascii	"heap_header\000"
 4158      5F686561 
 4158      64657200 
 4159              	.LASF83:
 4160 066c 77746F62 		.ascii	"wtobjp\000"
 4160      6A7000
 4161              	.LASF104:
ARM GAS  /tmp/ccI4Rg6S.s 			page 79


 4162 0673 65776D61 		.ascii	"ewmask\000"
 4162      736B00
 4163              	.LASF70:
 4164 067a 63685F73 		.ascii	"ch_system\000"
 4164      79737465 
 4164      6D00
 4165              	.LASF16:
 4166 0684 75696E74 		.ascii	"uint8_t\000"
 4166      385F7400 
 4167              	.LASF172:
 4168 068c 5F5F6675 		.ascii	"__func__\000"
 4168      6E635F5F 
 4168      00
 4169              	.LASF168:
 4170 0695 63685F66 		.ascii	"ch_factory\000"
 4170      6163746F 
 4170      727900
 4171              	.LASF173:
 4172 06a0 63685379 		.ascii	"chSysLock\000"
 4172      734C6F63 
 4172      6B00
 4173              	.LASF160:
 4174 06aa 6F626A5F 		.ascii	"obj_pool\000"
 4174      706F6F6C 
 4174      00
 4175              	.LASF85:
 4176 06b3 72656173 		.ascii	"reason\000"
 4176      6F6E00
 4177              	.LASF59:
 4178 06ba 63685F76 		.ascii	"ch_virtual_timer\000"
 4178      69727475 
 4178      616C5F74 
 4178      696D6572 
 4178      00
 4179              	.LASF105:
 4180 06cb 63685F73 		.ascii	"ch_semaphore\000"
 4180      656D6170 
 4180      686F7265 
 4180      00
 4181              	.LASF130:
 4182 06d8 6F66665F 		.ascii	"off_time\000"
 4182      74696D65 
 4182      00
 4183              	.LASF108:
 4184 06e1 63685F69 		.ascii	"ch_idle_thread_wa\000"
 4184      646C655F 
 4184      74687265 
 4184      61645F77 
 4184      6100
 4185              	.LASF118:
 4186 06f3 74696D65 		.ascii	"timesize\000"
 4186      73697A65 
 4186      00
 4187              	.LASF166:
 4188 06fc 70697065 		.ascii	"pipe_list\000"
 4188      5F6C6973 
 4188      7400
ARM GAS  /tmp/ccI4Rg6S.s 			page 80


 4189              	.LASF19:
 4190 0706 75696E74 		.ascii	"uint32_t\000"
 4190      33325F74 
 4190      00
 4191              	.LASF103:
 4192 070f 77746D74 		.ascii	"wtmtxp\000"
 4192      787000
 4193              	.LASF49:
 4194 0716 63685F74 		.ascii	"ch_threads_list\000"
 4194      68726561 
 4194      64735F6C 
 4194      69737400 
 4195              	.LASF107:
 4196 0726 6F776E65 		.ascii	"owner\000"
 4196      7200
 4197              	.LASF149:
 4198 072c 68656170 		.ascii	"heap\000"
 4198      00
 4199              	.LASF2:
 4200 0731 6C6F6E67 		.ascii	"long double\000"
 4200      20646F75 
 4200      626C6500 
 4201              	.LASF36:
 4202 073d 77616261 		.ascii	"wabase\000"
 4202      736500
 4203              	.LASF84:
 4204 0744 63686172 		.ascii	"char\000"
 4204      00
 4205              	.LASF34:
 4206 0749 6F6C6465 		.ascii	"older\000"
 4206      7200
 4207              	.LASF159:
 4208 074f 6F626A5F 		.ascii	"obj_list\000"
 4208      6C697374 
 4208      00
 4209              	.LASF8:
 4210 0758 5F5F7569 		.ascii	"__uint16_t\000"
 4210      6E743136 
 4210      5F7400
 4211              	.LASF30:
 4212 0763 74687265 		.ascii	"thread_t\000"
 4212      61645F74 
 4212      00
 4213              	.LASF74:
 4214 076c 73797374 		.ascii	"systime_t\000"
 4214      696D655F 
 4214      7400
 4215              	.LASF145:
 4216 0776 68656170 		.ascii	"heap_header_t\000"
 4216      5F686561 
 4216      6465725F 
 4216      7400
 4217              	.LASF177:
 4218 0784 5F5F7365 		.ascii	"__set_BASEPRI\000"
 4218      745F4241 
 4218      53455052 
 4218      4900
ARM GAS  /tmp/ccI4Rg6S.s 			page 81


 4219              	.LASF67:
 4220 0792 70616E69 		.ascii	"panic_msg\000"
 4220      635F6D73 
 4220      6700
 4221              	.LASF96:
 4222 079c 6F666673 		.ascii	"offset\000"
 4222      657400
 4223              	.LASF181:
 4224 07a3 63684865 		.ascii	"chHeapAllocAligned\000"
 4224      6170416C 
 4224      6C6F6341 
 4224      6C69676E 
 4224      656400
 4225              	.LASF123:
 4226 07b6 6F66665F 		.ascii	"off_older\000"
 4226      6F6C6465 
 4226      7200
 4227              	.LASF156:
 4228 07c0 63685F64 		.ascii	"ch_dyn_list\000"
 4228      796E5F6C 
 4228      69737400 
 4229              	.LASF146:
 4230 07cc 66726565 		.ascii	"free\000"
 4230      00
 4231              	.LASF114:
 4232 07d1 6964656E 		.ascii	"identifier\000"
 4232      74696669 
 4232      657200
 4233              	.LASF180:
 4234 07dc 63685363 		.ascii	"chSchWakeupS\000"
 4234      6857616B 
 4234      65757053 
 4234      00
 4235              	.LASF45:
 4236 07e9 6D706F6F 		.ascii	"mpool\000"
 4236      6C00
 4237              	.LASF117:
 4238 07ef 70747273 		.ascii	"ptrsize\000"
 4238      697A6500 
 4239              	.LASF51:
 4240 07f7 74687265 		.ascii	"threads_queue_t\000"
 4240      6164735F 
 4240      71756575 
 4240      655F7400 
 4241              	.LASF150:
 4242 0807 706F6F6C 		.ascii	"pool_header\000"
 4242      5F686561 
 4242      64657200 
 4243              	.LASF71:
 4244 0813 726C6973 		.ascii	"rlist\000"
 4244      7400
 4245              	.LASF163:
 4246 0819 73656D5F 		.ascii	"sem_pool\000"
 4246      706F6F6C 
 4246      00
 4247              	.LASF178:
 4248 0822 6368506F 		.ascii	"chPoolAlloc\000"
ARM GAS  /tmp/ccI4Rg6S.s 			page 82


 4248      6F6C416C 
 4248      6C6F6300 
 4249              	.LASF38:
 4250 082e 666C6167 		.ascii	"flags\000"
 4250      7300
 4251              	.LASF165:
 4252 0834 6669666F 		.ascii	"fifo_list\000"
 4252      5F6C6973 
 4252      7400
 4253              	.LASF46:
 4254 083e 74687265 		.ascii	"thread_reference_t\000"
 4254      61645F72 
 4254      65666572 
 4254      656E6365 
 4254      5F7400
 4255              	.LASF106:
 4256 0851 63685F6D 		.ascii	"ch_mutex\000"
 4256      75746578 
 4256      00
 4257              	.LASF47:
 4258 085a 74687265 		.ascii	"threads_list_t\000"
 4258      6164735F 
 4258      6C697374 
 4258      5F7400
 4259              	.LASF57:
 4260 0869 76746675 		.ascii	"vtfunc_t\000"
 4260      6E635F74 
 4260      00
 4261              	.LASF126:
 4262 0872 6F66665F 		.ascii	"off_state\000"
 4262      73746174 
 4262      6500
 4263              	.LASF68:
 4264 087c 74726163 		.ascii	"trace_buffer\000"
 4264      655F6275 
 4264      66666572 
 4264      00
 4265              	.LASF176:
 4266 0889 63685379 		.ascii	"chSysUnlock\000"
 4266      73556E6C 
 4266      6F636B00 
 4267              	.LASF127:
 4268 0895 6F66665F 		.ascii	"off_flags\000"
 4268      666C6167 
 4268      7300
 4269              	.LASF43:
 4270 089f 6D74786C 		.ascii	"mtxlist\000"
 4270      69737400 
 4271              	.LASF144:
 4272 08a7 68656164 		.ascii	"header\000"
 4272      657200
 4273              	.LASF142:
 4274 08ae 6D656D6F 		.ascii	"memory_heap\000"
 4274      72795F68 
 4274      65617000 
 4275              		.ident	"GCC: (GNU Tools for Arm Embedded Processors 8-2019-q3-update) 8.3.1 20190703 (release) [gc
ARM GAS  /tmp/ccI4Rg6S.s 			page 83


DEFINED SYMBOLS
                            *ABS*:0000000000000000 chdynamic.c
     /tmp/ccI4Rg6S.s:17     .text:0000000000000000 $t
     /tmp/ccI4Rg6S.s:26     .text:0000000000000000 chThdCreateFromHeap
     /tmp/ccI4Rg6S.s:200    .text:0000000000000050 chThdCreateFromMemoryPool

UNDEFINED SYMBOLS
chHeapAllocAligned
chThdCreateSuspendedI
chSchWakeupS
chPoolAlloc
