ARM GAS  /tmp/ccMG5vnh.s 			page 1


   1              		.cpu cortex-m7
   2              		.eabi_attribute 27, 1
   3              		.eabi_attribute 28, 1
   4              		.eabi_attribute 20, 1
   5              		.eabi_attribute 21, 1
   6              		.eabi_attribute 23, 3
   7              		.eabi_attribute 24, 1
   8              		.eabi_attribute 25, 1
   9              		.eabi_attribute 26, 1
  10              		.eabi_attribute 30, 2
  11              		.eabi_attribute 34, 1
  12              		.eabi_attribute 18, 4
  13              		.file	"chevents.c"
  14              		.text
  15              	.Ltext0:
  16              		.cfi_sections	.debug_frame
  17              		.align	1
  18              		.p2align 4,,15
  19              		.global	chEvtRegisterMaskWithFlags
  20              		.arch armv7e-m
  21              		.syntax unified
  22              		.thumb
  23              		.thumb_func
  24              		.fpu fpv4-sp-d16
  25              		.type	chEvtRegisterMaskWithFlags, %function
  26              	chEvtRegisterMaskWithFlags:
  27              	.LVL0:
  28              	.LFB323:
  29              		.file 1 "../../../external/ChibiOS/os/rt/src/chevents.c"
  30              		.loc 1 106 54 view -0
  31              		.cfi_startproc
  32              		@ args = 0, pretend = 0, frame = 0
  33              		@ frame_needed = 0, uses_anonymous_args = 0
  34              		@ link register save eliminated.
  35              		.loc 1 108 3 view .LVU1
  36              		.loc 1 108 3 view .LVU2
  37              		.loc 1 110 3 view .LVU3
  38              	.LBB178:
  39              	.LBI178:
  40              		.file 2 "../../../external/ChibiOS/os/rt/include/chsys.h"
  41              		.loc 2 353 20 view .LVU4
  42              	.LBE178:
  43              		.loc 2 355 3 view .LVU5
  44              	.LBB186:
  45              	.LBB179:
  46              	.LBI179:
  47              		.file 3 "../../../external/ChibiOS/os/common/ports/ARMCMx/chcore_v7m.h"
  48              		.loc 3 669 27 view .LVU6
  49              	.LBE179:
  50              	.LBE186:
  51              		.loc 3 677 3 view .LVU7
  52              	.LBB187:
  53              	.LBB184:
  54              	.LBB180:
  55              	.LBI180:
  56              		.file 4 "../../../external/ChibiOS/os/common/ext/ARM/CMSIS/Core/Include/cmsis_gcc.h"
  57              		.loc 4 491 27 view .LVU8
ARM GAS  /tmp/ccMG5vnh.s 			page 2


  58              	.LBB181:
  59              		.loc 4 493 3 view .LVU9
  60              	.LBE181:
  61              	.LBE180:
  62              	.LBE184:
  63              	.LBE187:
  64              		.loc 1 106 54 is_stmt 0 view .LVU10
  65 0000 70B4     		push	{r4, r5, r6}
  66              		.cfi_def_cfa_offset 12
  67              		.cfi_offset 4, -12
  68              		.cfi_offset 5, -8
  69              		.cfi_offset 6, -4
  70              	.LBB188:
  71              	.LBB185:
  72              	.LBB183:
  73              	.LBB182:
  74              		.loc 4 493 3 view .LVU11
  75 0002 2024     		movs	r4, #32
  76              		.syntax unified
  77              	@ 493 "../../../external/ChibiOS/os/common/ext/ARM/CMSIS/Core/Include/cmsis_gcc.h" 1
  78 0004 84F31188 		MSR basepri, r4
  79              	@ 0 "" 2
  80              	.LVL1:
  81              		.loc 4 493 3 view .LVU12
  82              		.thumb
  83              		.syntax unified
  84              	.LBE182:
  85              	.LBE183:
  86              	.LBE185:
  87              	.LBE188:
  88              		.loc 2 356 34 is_stmt 1 view .LVU13
  89              		.loc 2 357 20 view .LVU14
  90              		.loc 1 111 3 view .LVU15
  91              		.loc 1 113 19 is_stmt 0 view .LVU16
  92 0008 064D     		ldr	r5, .L4
  93              		.loc 1 115 17 view .LVU17
  94 000a 0024     		movs	r4, #0
  95              		.loc 1 111 17 view .LVU18
  96 000c 0668     		ldr	r6, [r0]
  97              		.loc 1 113 17 view .LVU19
  98 000e AD69     		ldr	r5, [r5, #24]
  99              		.loc 1 111 17 view .LVU20
 100 0010 0E60     		str	r6, [r1]
 101              		.loc 1 112 3 is_stmt 1 view .LVU21
 102              		.loc 1 112 17 is_stmt 0 view .LVU22
 103 0012 0160     		str	r1, [r0]
 104              		.loc 1 113 3 is_stmt 1 view .LVU23
 105              		.loc 1 114 17 is_stmt 0 view .LVU24
 106 0014 C1E90152 		strd	r5, r2, [r1, #4]
 107              		.loc 1 115 3 is_stmt 1 view .LVU25
 108              		.loc 1 115 17 is_stmt 0 view .LVU26
 109 0018 C1E90343 		strd	r4, r3, [r1, #12]
 110              		.loc 1 116 3 is_stmt 1 view .LVU27
 111              		.loc 1 117 3 view .LVU28
 112              	.LBB189:
 113              	.LBI189:
 114              		.loc 2 365 20 view .LVU29
ARM GAS  /tmp/ccMG5vnh.s 			page 3


 115              	.LBB190:
 116              		.loc 2 367 22 view .LVU30
 117              		.loc 2 368 33 view .LVU31
 118              		.loc 2 374 3 view .LVU32
 119              		.loc 2 374 3 view .LVU33
 120              		.loc 2 378 3 view .LVU34
 121              	.LBB191:
 122              	.LBI191:
 123              		.loc 3 693 27 view .LVU35
 124              	.LBE191:
 125              	.LBE190:
 126              	.LBE189:
 127              		.loc 3 696 3 view .LVU36
 128              	.LVL2:
 129              	.LBB196:
 130              	.LBB195:
 131              	.LBB194:
 132              	.LBB192:
 133              	.LBI192:
 134              		.loc 4 491 27 view .LVU37
 135              	.LBB193:
 136              		.loc 4 493 3 view .LVU38
 137              		.syntax unified
 138              	@ 493 "../../../external/ChibiOS/os/common/ext/ARM/CMSIS/Core/Include/cmsis_gcc.h" 1
 139 001c 84F31188 		MSR basepri, r4
 140              	@ 0 "" 2
 141              	.LVL3:
 142              		.loc 4 493 3 is_stmt 0 view .LVU39
 143              		.thumb
 144              		.syntax unified
 145              	.LBE193:
 146              	.LBE192:
 147              	.LBE194:
 148              	.LBE195:
 149              	.LBE196:
 150              		.loc 1 118 1 view .LVU40
 151 0020 70BC     		pop	{r4, r5, r6}
 152              		.cfi_restore 6
 153              		.cfi_restore 5
 154              		.cfi_restore 4
 155              		.cfi_def_cfa_offset 0
 156 0022 7047     		bx	lr
 157              	.L5:
 158              		.align	2
 159              	.L4:
 160 0024 00000000 		.word	ch
 161              		.cfi_endproc
 162              	.LFE323:
 163              		.size	chEvtRegisterMaskWithFlags, .-chEvtRegisterMaskWithFlags
 164              		.align	1
 165 0028 AFF30080 		.p2align 4,,15
 165      AFF30080 
 166              		.global	chEvtUnregister
 167              		.syntax unified
 168              		.thumb
 169              		.thumb_func
 170              		.fpu fpv4-sp-d16
ARM GAS  /tmp/ccMG5vnh.s 			page 4


 171              		.type	chEvtUnregister, %function
 172              	chEvtUnregister:
 173              	.LVL4:
 174              	.LFB324:
 175              		.loc 1 133 66 is_stmt 1 view -0
 176              		.cfi_startproc
 177              		@ args = 0, pretend = 0, frame = 0
 178              		@ frame_needed = 0, uses_anonymous_args = 0
 179              		@ link register save eliminated.
 180              		.loc 1 134 3 view .LVU42
 181              		.loc 1 136 3 view .LVU43
 182              		.loc 1 136 3 view .LVU44
 183              		.loc 1 139 3 view .LVU45
 184              		.loc 1 141 3 view .LVU46
 185              	.LBB197:
 186              	.LBI197:
 187              		.loc 2 353 20 view .LVU47
 188              	.LBE197:
 189              		.loc 2 355 3 view .LVU48
 190              	.LBB202:
 191              	.LBB198:
 192              	.LBI198:
 193              		.loc 3 669 27 view .LVU49
 194              	.LBE198:
 195              	.LBE202:
 196              		.loc 3 677 3 view .LVU50
 197              	.LBB203:
 198              	.LBB201:
 199              	.LBB199:
 200              	.LBI199:
 201              		.loc 4 491 27 view .LVU51
 202              	.LBB200:
 203              		.loc 4 493 3 view .LVU52
 204 0030 2023     		movs	r3, #32
 205              		.syntax unified
 206              	@ 493 "../../../external/ChibiOS/os/common/ext/ARM/CMSIS/Core/Include/cmsis_gcc.h" 1
 207 0032 83F31188 		MSR basepri, r3
 208              	@ 0 "" 2
 209              	.LVL5:
 210              		.loc 4 493 3 is_stmt 0 view .LVU53
 211              		.thumb
 212              		.syntax unified
 213              	.LBE200:
 214              	.LBE199:
 215              	.LBE201:
 216              	.LBE203:
 217              		.loc 2 356 34 is_stmt 1 view .LVU54
 218              		.loc 2 357 20 view .LVU55
 219              		.loc 1 139 5 is_stmt 0 view .LVU56
 220 0036 0246     		mov	r2, r0
 221 0038 02E0     		b	.L7
 222              	.LVL6:
 223              	.L9:
 224              		.loc 1 145 8 view .LVU57
 225 003a 8B42     		cmp	r3, r1
 226 003c 07D0     		beq	.L11
 227 003e 1A46     		mov	r2, r3
ARM GAS  /tmp/ccMG5vnh.s 			page 5


 228              	.LVL7:
 229              	.L7:
 230              		.loc 1 145 5 is_stmt 1 view .LVU58
 231              		.loc 1 143 11 is_stmt 0 view .LVU59
 232 0040 1368     		ldr	r3, [r2]
 233              		.loc 1 143 9 view .LVU60
 234 0042 9842     		cmp	r0, r3
 235 0044 F9D1     		bne	.L9
 236              		.loc 1 151 3 is_stmt 1 view .LVU61
 237              	.LBB204:
 238              	.LBI204:
 239              		.loc 2 365 20 view .LVU62
 240              	.LBB205:
 241              		.loc 2 367 22 view .LVU63
 242              		.loc 2 368 33 view .LVU64
 243              		.loc 2 374 3 view .LVU65
 244              		.loc 2 374 3 view .LVU66
 245              		.loc 2 378 3 view .LVU67
 246              	.LBB206:
 247              	.LBI206:
 248              		.loc 3 693 27 view .LVU68
 249              	.LBE206:
 250              	.LBE205:
 251              	.LBE204:
 252              		.loc 3 696 3 view .LVU69
 253              	.LVL8:
 254              	.LBB217:
 255              	.LBB214:
 256              	.LBB211:
 257              	.LBB207:
 258              	.LBI207:
 259              		.loc 4 491 27 view .LVU70
 260              	.LBB208:
 261              		.loc 4 493 3 view .LVU71
 262 0046 0023     		movs	r3, #0
 263              		.syntax unified
 264              	@ 493 "../../../external/ChibiOS/os/common/ext/ARM/CMSIS/Core/Include/cmsis_gcc.h" 1
 265 0048 83F31188 		MSR basepri, r3
 266              	@ 0 "" 2
 267              	.LVL9:
 268              		.loc 4 493 3 is_stmt 0 view .LVU72
 269              		.thumb
 270              		.syntax unified
 271              	.LBE208:
 272              	.LBE207:
 273              	.LBE211:
 274              	.LBE214:
 275              	.LBE217:
 276              		.loc 1 152 1 view .LVU73
 277 004c 7047     		bx	lr
 278              	.L11:
 279              		.loc 1 146 7 is_stmt 1 view .LVU74
 280              		.loc 1 146 20 is_stmt 0 view .LVU75
 281 004e 0B68     		ldr	r3, [r1]
 282              		.loc 1 146 15 view .LVU76
 283 0050 1360     		str	r3, [r2]
 284              		.loc 1 147 7 is_stmt 1 view .LVU77
ARM GAS  /tmp/ccMG5vnh.s 			page 6


 285              		.loc 1 151 3 view .LVU78
 286              	.LBB218:
 287              		.loc 2 365 20 view .LVU79
 288              	.LBB215:
 289              		.loc 2 367 22 view .LVU80
 290              		.loc 2 368 33 view .LVU81
 291              		.loc 2 374 3 view .LVU82
 292              		.loc 2 374 3 view .LVU83
 293              		.loc 2 378 3 view .LVU84
 294              	.LBB212:
 295              		.loc 3 693 27 view .LVU85
 296              	.LBE212:
 297              	.LBE215:
 298              	.LBE218:
 299              		.loc 3 696 3 view .LVU86
 300              	.LVL10:
 301              	.LBB219:
 302              	.LBB216:
 303              	.LBB213:
 304              	.LBB210:
 305              		.loc 4 491 27 view .LVU87
 306              	.LBB209:
 307              		.loc 4 493 3 view .LVU88
 308 0052 0023     		movs	r3, #0
 309              		.syntax unified
 310              	@ 493 "../../../external/ChibiOS/os/common/ext/ARM/CMSIS/Core/Include/cmsis_gcc.h" 1
 311 0054 83F31188 		MSR basepri, r3
 312              	@ 0 "" 2
 313              	.LVL11:
 314              		.loc 4 493 3 is_stmt 0 view .LVU89
 315              		.thumb
 316              		.syntax unified
 317              	.LBE209:
 318              	.LBE210:
 319              	.LBE213:
 320              	.LBE216:
 321              	.LBE219:
 322              		.loc 1 152 1 view .LVU90
 323 0058 7047     		bx	lr
 324              		.cfi_endproc
 325              	.LFE324:
 326              		.size	chEvtUnregister, .-chEvtUnregister
 327              		.align	1
 328 005a 00BFAFF3 		.p2align 4,,15
 328      0080
 329              		.global	chEvtGetAndClearEventsI
 330              		.syntax unified
 331              		.thumb
 332              		.thumb_func
 333              		.fpu fpv4-sp-d16
 334              		.type	chEvtGetAndClearEventsI, %function
 335              	chEvtGetAndClearEventsI:
 336              	.LVL12:
 337              	.LFB325:
 338              		.loc 1 162 57 is_stmt 1 view -0
 339              		.cfi_startproc
 340              		@ args = 0, pretend = 0, frame = 0
ARM GAS  /tmp/ccMG5vnh.s 			page 7


 341              		@ frame_needed = 0, uses_anonymous_args = 0
 342              		@ link register save eliminated.
 343              		.loc 1 163 3 view .LVU92
 344              		.loc 1 165 3 view .LVU93
 345              		.loc 1 165 7 is_stmt 0 view .LVU94
 346 0060 034B     		ldr	r3, .L13
 347 0062 9B69     		ldr	r3, [r3, #24]
 348              		.loc 1 165 12 view .LVU95
 349 0064 5A6B     		ldr	r2, [r3, #52]
 350              	.LVL13:
 351              		.loc 1 166 3 is_stmt 1 view .LVU96
 352              		.loc 1 166 19 is_stmt 0 view .LVU97
 353 0066 22EA0001 		bic	r1, r2, r0
 354              		.loc 1 169 1 view .LVU98
 355 006a 1040     		ands	r0, r0, r2
 356              	.LVL14:
 357              		.loc 1 166 19 view .LVU99
 358 006c 5963     		str	r1, [r3, #52]
 359              		.loc 1 168 3 is_stmt 1 view .LVU100
 360              		.loc 1 169 1 is_stmt 0 view .LVU101
 361 006e 7047     		bx	lr
 362              	.L14:
 363              		.align	2
 364              	.L13:
 365 0070 00000000 		.word	ch
 366              		.cfi_endproc
 367              	.LFE325:
 368              		.size	chEvtGetAndClearEventsI, .-chEvtGetAndClearEventsI
 369              		.align	1
 370 0074 AFF30080 		.p2align 4,,15
 370      AFF30080 
 370      AFF30080 
 371              		.global	chEvtGetAndClearEvents
 372              		.syntax unified
 373              		.thumb
 374              		.thumb_func
 375              		.fpu fpv4-sp-d16
 376              		.type	chEvtGetAndClearEvents, %function
 377              	chEvtGetAndClearEvents:
 378              	.LVL15:
 379              	.LFB326:
 380              		.loc 1 179 56 is_stmt 1 view -0
 381              		.cfi_startproc
 382              		@ args = 0, pretend = 0, frame = 0
 383              		@ frame_needed = 0, uses_anonymous_args = 0
 384              		@ link register save eliminated.
 385              		.loc 1 180 3 view .LVU103
 386              		.loc 1 182 3 view .LVU104
 387              	.LBB220:
 388              	.LBI220:
 389              		.loc 2 353 20 view .LVU105
 390              	.LBE220:
 391              		.loc 2 355 3 view .LVU106
 392              	.LBB228:
 393              	.LBB221:
 394              	.LBI221:
 395              		.loc 3 669 27 view .LVU107
ARM GAS  /tmp/ccMG5vnh.s 			page 8


 396              	.LBE221:
 397              	.LBE228:
 398              		.loc 3 677 3 view .LVU108
 399              	.LBB229:
 400              	.LBB226:
 401              	.LBB222:
 402              	.LBI222:
 403              		.loc 4 491 27 view .LVU109
 404              	.LBB223:
 405              		.loc 4 493 3 view .LVU110
 406              	.LBE223:
 407              	.LBE222:
 408              	.LBE226:
 409              	.LBE229:
 410              		.loc 1 179 56 is_stmt 0 view .LVU111
 411 0080 10B4     		push	{r4}
 412              		.cfi_def_cfa_offset 4
 413              		.cfi_offset 4, -4
 414              	.LBB230:
 415              	.LBB227:
 416              	.LBB225:
 417              	.LBB224:
 418              		.loc 4 493 3 view .LVU112
 419 0082 2023     		movs	r3, #32
 420              		.syntax unified
 421              	@ 493 "../../../external/ChibiOS/os/common/ext/ARM/CMSIS/Core/Include/cmsis_gcc.h" 1
 422 0084 83F31188 		MSR basepri, r3
 423              	@ 0 "" 2
 424              	.LVL16:
 425              		.loc 4 493 3 view .LVU113
 426              		.thumb
 427              		.syntax unified
 428              	.LBE224:
 429              	.LBE225:
 430              	.LBE227:
 431              	.LBE230:
 432              		.loc 2 356 34 is_stmt 1 view .LVU114
 433              		.loc 2 357 20 view .LVU115
 434              		.loc 1 183 3 view .LVU116
 435              	.LBB231:
 436              	.LBI231:
 437              		.loc 1 162 13 view .LVU117
 438              	.LBB232:
 439              		.loc 1 163 3 view .LVU118
 440              		.loc 1 165 3 view .LVU119
 441              		.loc 1 165 7 is_stmt 0 view .LVU120
 442 0088 064B     		ldr	r3, .L17
 443              	.LBE232:
 444              	.LBE231:
 445              	.LBB234:
 446              	.LBB235:
 447              	.LBB236:
 448              	.LBB237:
 449              	.LBB238:
 450              		.loc 4 493 3 view .LVU121
 451 008a 0021     		movs	r1, #0
 452              	.LBE238:
ARM GAS  /tmp/ccMG5vnh.s 			page 9


 453              	.LBE237:
 454              	.LBE236:
 455              	.LBE235:
 456              	.LBE234:
 457              	.LBB245:
 458              	.LBB233:
 459              		.loc 1 165 7 view .LVU122
 460 008c 9A69     		ldr	r2, [r3, #24]
 461              		.loc 1 165 12 view .LVU123
 462 008e 536B     		ldr	r3, [r2, #52]
 463              	.LVL17:
 464              		.loc 1 166 3 is_stmt 1 view .LVU124
 465              		.loc 1 166 19 is_stmt 0 view .LVU125
 466 0090 23EA0004 		bic	r4, r3, r0
 467 0094 5463     		str	r4, [r2, #52]
 468              		.loc 1 168 3 is_stmt 1 view .LVU126
 469              	.LVL18:
 470              		.loc 1 168 3 is_stmt 0 view .LVU127
 471              	.LBE233:
 472              	.LBE245:
 473              		.loc 1 184 3 is_stmt 1 view .LVU128
 474              	.LBB246:
 475              	.LBI234:
 476              		.loc 2 365 20 view .LVU129
 477              	.LBB243:
 478              		.loc 2 367 22 view .LVU130
 479              		.loc 2 368 33 view .LVU131
 480              		.loc 2 374 3 view .LVU132
 481              		.loc 2 374 3 view .LVU133
 482              		.loc 2 378 3 view .LVU134
 483              	.LBB241:
 484              	.LBI236:
 485              		.loc 3 693 27 view .LVU135
 486              	.LBE241:
 487              	.LBE243:
 488              	.LBE246:
 489              		.loc 3 696 3 view .LVU136
 490              	.LBB247:
 491              	.LBB244:
 492              	.LBB242:
 493              	.LBB240:
 494              	.LBI237:
 495              		.loc 4 491 27 view .LVU137
 496              	.LBB239:
 497              		.loc 4 493 3 view .LVU138
 498              		.syntax unified
 499              	@ 493 "../../../external/ChibiOS/os/common/ext/ARM/CMSIS/Core/Include/cmsis_gcc.h" 1
 500 0096 81F31188 		MSR basepri, r1
 501              	@ 0 "" 2
 502              	.LVL19:
 503              		.loc 4 493 3 is_stmt 0 view .LVU139
 504              		.thumb
 505              		.syntax unified
 506              	.LBE239:
 507              	.LBE240:
 508              	.LBE242:
 509              	.LBE244:
ARM GAS  /tmp/ccMG5vnh.s 			page 10


 510              	.LBE247:
 511              		.loc 1 186 3 is_stmt 1 view .LVU140
 512              		.loc 1 187 1 is_stmt 0 view .LVU141
 513 009a 1840     		ands	r0, r0, r3
 514              	.LVL20:
 515              		.loc 1 187 1 view .LVU142
 516 009c 5DF8044B 		ldr	r4, [sp], #4
 517              		.cfi_restore 4
 518              		.cfi_def_cfa_offset 0
 519 00a0 7047     		bx	lr
 520              	.L18:
 521 00a2 00BF     		.align	2
 522              	.L17:
 523 00a4 00000000 		.word	ch
 524              		.cfi_endproc
 525              	.LFE326:
 526              		.size	chEvtGetAndClearEvents, .-chEvtGetAndClearEvents
 527              		.align	1
 528 00a8 AFF30080 		.p2align 4,,15
 528      AFF30080 
 529              		.global	chEvtAddEvents
 530              		.syntax unified
 531              		.thumb
 532              		.thumb_func
 533              		.fpu fpv4-sp-d16
 534              		.type	chEvtAddEvents, %function
 535              	chEvtAddEvents:
 536              	.LVL21:
 537              	.LFB327:
 538              		.loc 1 198 48 is_stmt 1 view -0
 539              		.cfi_startproc
 540              		@ args = 0, pretend = 0, frame = 0
 541              		@ frame_needed = 0, uses_anonymous_args = 0
 542              		@ link register save eliminated.
 543              		.loc 1 199 3 view .LVU144
 544              		.loc 1 201 3 view .LVU145
 545              	.LBB248:
 546              	.LBI248:
 547              		.loc 2 353 20 view .LVU146
 548              	.LBE248:
 549              		.loc 2 355 3 view .LVU147
 550              	.LBB253:
 551              	.LBB249:
 552              	.LBI249:
 553              		.loc 3 669 27 view .LVU148
 554              	.LBE249:
 555              	.LBE253:
 556              		.loc 3 677 3 view .LVU149
 557              	.LBB254:
 558              	.LBB252:
 559              	.LBB250:
 560              	.LBI250:
 561              		.loc 4 491 27 view .LVU150
 562              	.LBB251:
 563              		.loc 4 493 3 view .LVU151
 564 00b0 2023     		movs	r3, #32
 565              		.syntax unified
ARM GAS  /tmp/ccMG5vnh.s 			page 11


 566              	@ 493 "../../../external/ChibiOS/os/common/ext/ARM/CMSIS/Core/Include/cmsis_gcc.h" 1
 567 00b2 83F31188 		MSR basepri, r3
 568              	@ 0 "" 2
 569              	.LVL22:
 570              		.loc 4 493 3 is_stmt 0 view .LVU152
 571              		.thumb
 572              		.syntax unified
 573              	.LBE251:
 574              	.LBE250:
 575              	.LBE252:
 576              	.LBE254:
 577              		.loc 2 356 34 is_stmt 1 view .LVU153
 578              		.loc 2 357 20 view .LVU154
 579              		.loc 1 202 3 view .LVU155
 580              	.LBB255:
 581              	.LBI255:
 582              		.file 5 "../../../external/ChibiOS/os/rt/include/chevents.h"
 583              		.loc 5 269 27 view .LVU156
 584              	.LBB256:
 585              		.loc 5 271 3 view .LVU157
 586              		.loc 5 271 10 is_stmt 0 view .LVU158
 587 00b6 044B     		ldr	r3, .L20
 588              	.LBE256:
 589              	.LBE255:
 590              	.LBB258:
 591              	.LBB259:
 592              	.LBB260:
 593              	.LBB261:
 594              	.LBB262:
 595              		.loc 4 493 3 view .LVU159
 596 00b8 0022     		movs	r2, #0
 597              	.LBE262:
 598              	.LBE261:
 599              	.LBE260:
 600              	.LBE259:
 601              	.LBE258:
 602              	.LBB269:
 603              	.LBB257:
 604              		.loc 5 271 10 view .LVU160
 605 00ba 9B69     		ldr	r3, [r3, #24]
 606              		.loc 5 271 26 view .LVU161
 607 00bc 596B     		ldr	r1, [r3, #52]
 608 00be 0843     		orrs	r0, r0, r1
 609              	.LVL23:
 610              		.loc 5 271 26 view .LVU162
 611 00c0 5863     		str	r0, [r3, #52]
 612              	.LVL24:
 613              		.loc 5 271 26 view .LVU163
 614              	.LBE257:
 615              	.LBE269:
 616              		.loc 1 203 3 is_stmt 1 view .LVU164
 617              	.LBB270:
 618              	.LBI258:
 619              		.loc 2 365 20 view .LVU165
 620              	.LBB267:
 621              		.loc 2 367 22 view .LVU166
 622              		.loc 2 368 33 view .LVU167
ARM GAS  /tmp/ccMG5vnh.s 			page 12


 623              		.loc 2 374 3 view .LVU168
 624              		.loc 2 374 3 view .LVU169
 625              		.loc 2 378 3 view .LVU170
 626              	.LBB265:
 627              	.LBI260:
 628              		.loc 3 693 27 view .LVU171
 629              	.LBE265:
 630              	.LBE267:
 631              	.LBE270:
 632              		.loc 3 696 3 view .LVU172
 633              	.LBB271:
 634              	.LBB268:
 635              	.LBB266:
 636              	.LBB264:
 637              	.LBI261:
 638              		.loc 4 491 27 view .LVU173
 639              	.LBB263:
 640              		.loc 4 493 3 view .LVU174
 641              		.syntax unified
 642              	@ 493 "../../../external/ChibiOS/os/common/ext/ARM/CMSIS/Core/Include/cmsis_gcc.h" 1
 643 00c2 82F31188 		MSR basepri, r2
 644              	@ 0 "" 2
 645              	.LVL25:
 646              		.loc 4 493 3 is_stmt 0 view .LVU175
 647              		.thumb
 648              		.syntax unified
 649              	.LBE263:
 650              	.LBE264:
 651              	.LBE266:
 652              	.LBE268:
 653              	.LBE271:
 654              		.loc 1 205 3 is_stmt 1 view .LVU176
 655              		.loc 1 206 1 is_stmt 0 view .LVU177
 656 00c6 7047     		bx	lr
 657              	.L21:
 658              		.align	2
 659              	.L20:
 660 00c8 00000000 		.word	ch
 661              		.cfi_endproc
 662              	.LFE327:
 663              		.size	chEvtAddEvents, .-chEvtAddEvents
 664              		.align	1
 665 00cc AFF30080 		.p2align 4,,15
 666              		.global	chEvtGetAndClearFlags
 667              		.syntax unified
 668              		.thumb
 669              		.thumb_func
 670              		.fpu fpv4-sp-d16
 671              		.type	chEvtGetAndClearFlags, %function
 672              	chEvtGetAndClearFlags:
 673              	.LVL26:
 674              	.LFB329:
 675              		.loc 1 257 59 is_stmt 1 view -0
 676              		.cfi_startproc
 677              		@ args = 0, pretend = 0, frame = 0
 678              		@ frame_needed = 0, uses_anonymous_args = 0
 679              		@ link register save eliminated.
ARM GAS  /tmp/ccMG5vnh.s 			page 13


 680              		.loc 1 258 3 view .LVU179
 681              		.loc 1 260 3 view .LVU180
 682              	.LBB272:
 683              	.LBI272:
 684              		.loc 2 353 20 view .LVU181
 685              	.LBE272:
 686              		.loc 2 355 3 view .LVU182
 687              	.LBB277:
 688              	.LBB273:
 689              	.LBI273:
 690              		.loc 3 669 27 view .LVU183
 691              	.LBE273:
 692              	.LBE277:
 693              		.loc 3 677 3 view .LVU184
 694              	.LBB278:
 695              	.LBB276:
 696              	.LBB274:
 697              	.LBI274:
 698              		.loc 4 491 27 view .LVU185
 699              	.LBB275:
 700              		.loc 4 493 3 view .LVU186
 701 00d0 2023     		movs	r3, #32
 702              		.syntax unified
 703              	@ 493 "../../../external/ChibiOS/os/common/ext/ARM/CMSIS/Core/Include/cmsis_gcc.h" 1
 704 00d2 83F31188 		MSR basepri, r3
 705              	@ 0 "" 2
 706              	.LVL27:
 707              		.loc 4 493 3 is_stmt 0 view .LVU187
 708              		.thumb
 709              		.syntax unified
 710              	.LBE275:
 711              	.LBE274:
 712              	.LBE276:
 713              	.LBE278:
 714              		.loc 2 356 34 is_stmt 1 view .LVU188
 715              		.loc 2 357 20 view .LVU189
 716              		.loc 1 261 3 view .LVU190
 717              		.loc 1 262 14 is_stmt 0 view .LVU191
 718 00d6 0023     		movs	r3, #0
 719              		.loc 1 261 9 view .LVU192
 720 00d8 C268     		ldr	r2, [r0, #12]
 721              	.LVL28:
 722              		.loc 1 262 3 is_stmt 1 view .LVU193
 723              		.loc 1 262 14 is_stmt 0 view .LVU194
 724 00da C360     		str	r3, [r0, #12]
 725              		.loc 1 263 3 is_stmt 1 view .LVU195
 726              	.LBB279:
 727              	.LBI279:
 728              		.loc 2 365 20 view .LVU196
 729              	.LBB280:
 730              		.loc 2 367 22 view .LVU197
 731              		.loc 2 368 33 view .LVU198
 732              		.loc 2 374 3 view .LVU199
 733              		.loc 2 374 3 view .LVU200
 734              		.loc 2 378 3 view .LVU201
 735              	.LBB281:
 736              	.LBI281:
ARM GAS  /tmp/ccMG5vnh.s 			page 14


 737              		.loc 3 693 27 view .LVU202
 738              	.LBE281:
 739              	.LBE280:
 740              	.LBE279:
 741              		.loc 3 696 3 view .LVU203
 742              	.LVL29:
 743              	.LBB286:
 744              	.LBB285:
 745              	.LBB284:
 746              	.LBB282:
 747              	.LBI282:
 748              		.loc 4 491 27 view .LVU204
 749              	.LBB283:
 750              		.loc 4 493 3 view .LVU205
 751              		.syntax unified
 752              	@ 493 "../../../external/ChibiOS/os/common/ext/ARM/CMSIS/Core/Include/cmsis_gcc.h" 1
 753 00dc 83F31188 		MSR basepri, r3
 754              	@ 0 "" 2
 755              	.LVL30:
 756              		.loc 4 493 3 is_stmt 0 view .LVU206
 757              		.thumb
 758              		.syntax unified
 759              	.LBE283:
 760              	.LBE282:
 761              	.LBE284:
 762              	.LBE285:
 763              	.LBE286:
 764              		.loc 1 265 3 is_stmt 1 view .LVU207
 765              		.loc 1 265 16 is_stmt 0 view .LVU208
 766 00e0 0069     		ldr	r0, [r0, #16]
 767              	.LVL31:
 768              		.loc 1 266 1 view .LVU209
 769 00e2 1040     		ands	r0, r0, r2
 770 00e4 7047     		bx	lr
 771              		.cfi_endproc
 772              	.LFE329:
 773              		.size	chEvtGetAndClearFlags, .-chEvtGetAndClearFlags
 774              		.align	1
 775 00e6 00BFAFF3 		.p2align 4,,15
 775      0080AFF3 
 775      0080
 776              		.global	chEvtSignalI
 777              		.syntax unified
 778              		.thumb
 779              		.thumb_func
 780              		.fpu fpv4-sp-d16
 781              		.type	chEvtSignalI, %function
 782              	chEvtSignalI:
 783              	.LVL32:
 784              	.LFB331:
 785              		.loc 1 298 53 is_stmt 1 view -0
 786              		.cfi_startproc
 787              		@ args = 0, pretend = 0, frame = 0
 788              		@ frame_needed = 0, uses_anonymous_args = 0
 789              		@ link register save eliminated.
 790              		.loc 1 300 21 view .LVU211
 791              		.loc 1 301 3 view .LVU212
ARM GAS  /tmp/ccMG5vnh.s 			page 15


 792              		.loc 1 301 3 view .LVU213
 793              		.loc 1 303 3 view .LVU214
 794              		.loc 1 303 16 is_stmt 0 view .LVU215
 795 00f0 426B     		ldr	r2, [r0, #52]
 796              		.loc 1 298 53 view .LVU216
 797 00f2 0346     		mov	r3, r0
 798              		.loc 1 305 11 view .LVU217
 799 00f4 90F82000 		ldrb	r0, [r0, #32]	@ zero_extendqisi2
 800              	.LVL33:
 801              		.loc 1 303 16 view .LVU218
 802 00f8 1143     		orrs	r1, r1, r2
 803              	.LVL34:
 804              		.loc 1 305 6 view .LVU219
 805 00fa 0A28     		cmp	r0, #10
 806              		.loc 1 303 16 view .LVU220
 807 00fc 5963     		str	r1, [r3, #52]
 808              		.loc 1 305 3 is_stmt 1 view .LVU221
 809              		.loc 1 305 6 is_stmt 0 view .LVU222
 810 00fe 0AD0     		beq	.L27
 811              		.loc 1 306 59 view .LVU223
 812 0100 0B28     		cmp	r0, #11
 813 0102 00D0     		beq	.L28
 814              	.L23:
 815              		.loc 1 312 1 view .LVU224
 816 0104 7047     		bx	lr
 817              	.L28:
 818              		.loc 1 308 30 view .LVU225
 819 0106 5A6A     		ldr	r2, [r3, #36]
 820              		.loc 1 307 41 view .LVU226
 821 0108 8A43     		bics	r2, r2, r1
 822 010a FBD1     		bne	.L23
 823              	.L25:
 824              		.loc 1 309 5 is_stmt 1 view .LVU227
 825              		.loc 1 309 18 is_stmt 0 view .LVU228
 826 010c 0022     		movs	r2, #0
 827              		.loc 1 310 12 view .LVU229
 828 010e 1846     		mov	r0, r3
 829              		.loc 1 309 18 view .LVU230
 830 0110 5A62     		str	r2, [r3, #36]
 831              		.loc 1 310 5 is_stmt 1 view .LVU231
 832              		.loc 1 310 12 is_stmt 0 view .LVU232
 833 0112 FFF7FEBF 		b	chSchReadyI
 834              	.LVL35:
 835              	.L27:
 836              		.loc 1 306 23 discriminator 1 view .LVU233
 837 0116 5A6A     		ldr	r2, [r3, #36]
 838              		.loc 1 305 40 discriminator 1 view .LVU234
 839 0118 1142     		tst	r1, r2
 840 011a F7D1     		bne	.L25
 841 011c 7047     		bx	lr
 842              		.cfi_endproc
 843              	.LFE331:
 844              		.size	chEvtSignalI, .-chEvtSignalI
 845              		.align	1
 846 011e 00BF     		.p2align 4,,15
 847              		.global	chEvtBroadcastFlagsI
 848              		.syntax unified
ARM GAS  /tmp/ccMG5vnh.s 			page 16


 849              		.thumb
 850              		.thumb_func
 851              		.fpu fpv4-sp-d16
 852              		.type	chEvtBroadcastFlagsI, %function
 853              	chEvtBroadcastFlagsI:
 854              	.LVL36:
 855              	.LFB328:
 856              		.loc 1 225 68 is_stmt 1 view -0
 857              		.cfi_startproc
 858              		@ args = 0, pretend = 0, frame = 0
 859              		@ frame_needed = 0, uses_anonymous_args = 0
 860              		.loc 1 226 3 view .LVU236
 861              		.loc 1 228 21 view .LVU237
 862              		.loc 1 229 3 view .LVU238
 863              		.loc 1 229 3 view .LVU239
 864              		.loc 1 231 3 view .LVU240
 865              		.loc 1 225 68 is_stmt 0 view .LVU241
 866 0120 70B5     		push	{r4, r5, r6, lr}
 867              		.cfi_def_cfa_offset 16
 868              		.cfi_offset 4, -16
 869              		.cfi_offset 5, -12
 870              		.cfi_offset 6, -8
 871              		.cfi_offset 14, -4
 872              		.loc 1 231 7 view .LVU242
 873 0122 0468     		ldr	r4, [r0]
 874              	.LVL37:
 875              		.loc 1 233 3 is_stmt 1 view .LVU243
 876              		.loc 1 233 9 is_stmt 0 view .LVU244
 877 0124 A042     		cmp	r0, r4
 878 0126 0FD0     		beq	.L29
 879 0128 0646     		mov	r6, r0
 880 012a 0D46     		mov	r5, r1
 881              	.LVL38:
 882              	.L33:
 883              		.loc 1 235 5 is_stmt 1 view .LVU245
 884              		.loc 1 240 7 view .LVU246
 885              		.loc 1 235 16 is_stmt 0 view .LVU247
 886 012c E368     		ldr	r3, [r4, #12]
 887 012e 2B43     		orrs	r3, r3, r5
 888 0130 E360     		str	r3, [r4, #12]
 889              		.loc 1 238 5 is_stmt 1 view .LVU248
 890              		.loc 1 238 8 is_stmt 0 view .LVU249
 891 0132 15B1     		cbz	r5, .L31
 892              		.loc 1 239 17 discriminator 1 view .LVU250
 893 0134 2369     		ldr	r3, [r4, #16]
 894              		.loc 1 238 36 discriminator 1 view .LVU251
 895 0136 1D42     		tst	r5, r3
 896 0138 03D0     		beq	.L32
 897              	.L31:
 898              		.loc 1 240 7 view .LVU252
 899 013a D4E90101 		ldrd	r0, r1, [r4, #4]
 900 013e FFF7FEFF 		bl	chEvtSignalI
 901              	.LVL39:
 902              	.L32:
 903              		.loc 1 242 5 is_stmt 1 view .LVU253
 904              		.loc 1 242 9 is_stmt 0 view .LVU254
 905 0142 2468     		ldr	r4, [r4]
ARM GAS  /tmp/ccMG5vnh.s 			page 17


 906              	.LVL40:
 907              		.loc 1 233 9 view .LVU255
 908 0144 A642     		cmp	r6, r4
 909 0146 F1D1     		bne	.L33
 910              	.LVL41:
 911              	.L29:
 912              		.loc 1 244 1 view .LVU256
 913 0148 70BD     		pop	{r4, r5, r6, pc}
 914              		.loc 1 244 1 view .LVU257
 915              		.cfi_endproc
 916              	.LFE328:
 917              		.size	chEvtBroadcastFlagsI, .-chEvtBroadcastFlagsI
 918              		.align	1
 919 014a 00BFAFF3 		.p2align 4,,15
 919      0080
 920              		.global	chEvtSignal
 921              		.syntax unified
 922              		.thumb
 923              		.thumb_func
 924              		.fpu fpv4-sp-d16
 925              		.type	chEvtSignal, %function
 926              	chEvtSignal:
 927              	.LVL42:
 928              	.LFB330:
 929              		.loc 1 276 52 is_stmt 1 view -0
 930              		.cfi_startproc
 931              		@ args = 0, pretend = 0, frame = 0
 932              		@ frame_needed = 0, uses_anonymous_args = 0
 933              		.loc 1 278 3 view .LVU259
 934              		.loc 1 278 3 view .LVU260
 935              		.loc 1 280 3 view .LVU261
 936              	.LBB287:
 937              	.LBI287:
 938              		.loc 2 353 20 view .LVU262
 939              	.LBE287:
 940              		.loc 2 355 3 view .LVU263
 941              	.LBB295:
 942              	.LBB288:
 943              	.LBI288:
 944              		.loc 3 669 27 view .LVU264
 945              	.LBE288:
 946              	.LBE295:
 947              		.loc 3 677 3 view .LVU265
 948              	.LBB296:
 949              	.LBB293:
 950              	.LBB289:
 951              	.LBI289:
 952              		.loc 4 491 27 view .LVU266
 953              	.LBB290:
 954              		.loc 4 493 3 view .LVU267
 955              	.LBE290:
 956              	.LBE289:
 957              	.LBE293:
 958              	.LBE296:
 959              		.loc 1 276 52 is_stmt 0 view .LVU268
 960 0150 08B5     		push	{r3, lr}
 961              		.cfi_def_cfa_offset 8
ARM GAS  /tmp/ccMG5vnh.s 			page 18


 962              		.cfi_offset 3, -8
 963              		.cfi_offset 14, -4
 964              	.LBB297:
 965              	.LBB294:
 966              	.LBB292:
 967              	.LBB291:
 968              		.loc 4 493 3 view .LVU269
 969 0152 2023     		movs	r3, #32
 970              		.syntax unified
 971              	@ 493 "../../../external/ChibiOS/os/common/ext/ARM/CMSIS/Core/Include/cmsis_gcc.h" 1
 972 0154 83F31188 		MSR basepri, r3
 973              	@ 0 "" 2
 974              	.LVL43:
 975              		.loc 4 493 3 view .LVU270
 976              		.thumb
 977              		.syntax unified
 978              	.LBE291:
 979              	.LBE292:
 980              	.LBE294:
 981              	.LBE297:
 982              		.loc 2 356 34 is_stmt 1 view .LVU271
 983              		.loc 2 357 20 view .LVU272
 984              		.loc 1 281 3 view .LVU273
 985 0158 FFF7FEFF 		bl	chEvtSignalI
 986              	.LVL44:
 987              		.loc 1 282 3 view .LVU274
 988 015c FFF7FEFF 		bl	chSchRescheduleS
 989              	.LVL45:
 990              		.loc 1 283 3 view .LVU275
 991              	.LBB298:
 992              	.LBI298:
 993              		.loc 2 365 20 view .LVU276
 994              	.LBB299:
 995              		.loc 2 367 22 view .LVU277
 996              		.loc 2 368 33 view .LVU278
 997              		.loc 2 374 3 view .LVU279
 998              		.loc 2 374 3 view .LVU280
 999              		.loc 2 378 3 view .LVU281
 1000              	.LBB300:
 1001              	.LBI300:
 1002              		.loc 3 693 27 view .LVU282
 1003              	.LBE300:
 1004              	.LBE299:
 1005              	.LBE298:
 1006              		.loc 3 696 3 view .LVU283
 1007              	.LBB305:
 1008              	.LBB304:
 1009              	.LBB303:
 1010              	.LBB301:
 1011              	.LBI301:
 1012              		.loc 4 491 27 view .LVU284
 1013              	.LBB302:
 1014              		.loc 4 493 3 view .LVU285
 1015 0160 0023     		movs	r3, #0
 1016              		.syntax unified
 1017              	@ 493 "../../../external/ChibiOS/os/common/ext/ARM/CMSIS/Core/Include/cmsis_gcc.h" 1
 1018 0162 83F31188 		MSR basepri, r3
ARM GAS  /tmp/ccMG5vnh.s 			page 19


 1019              	@ 0 "" 2
 1020              	.LVL46:
 1021              		.loc 4 493 3 is_stmt 0 view .LVU286
 1022              		.thumb
 1023              		.syntax unified
 1024              	.LBE302:
 1025              	.LBE301:
 1026              	.LBE303:
 1027              	.LBE304:
 1028              	.LBE305:
 1029              		.loc 1 284 1 view .LVU287
 1030 0166 08BD     		pop	{r3, pc}
 1031              		.cfi_endproc
 1032              	.LFE330:
 1033              		.size	chEvtSignal, .-chEvtSignal
 1034              		.align	1
 1035 0168 AFF30080 		.p2align 4,,15
 1035      AFF30080 
 1036              		.global	chEvtBroadcastFlags
 1037              		.syntax unified
 1038              		.thumb
 1039              		.thumb_func
 1040              		.fpu fpv4-sp-d16
 1041              		.type	chEvtBroadcastFlags, %function
 1042              	chEvtBroadcastFlags:
 1043              	.LVL47:
 1044              	.LFB332:
 1045              		.loc 1 327 67 is_stmt 1 view -0
 1046              		.cfi_startproc
 1047              		@ args = 0, pretend = 0, frame = 0
 1048              		@ frame_needed = 0, uses_anonymous_args = 0
 1049              		.loc 1 329 3 view .LVU289
 1050              	.LBB306:
 1051              	.LBI306:
 1052              		.loc 2 353 20 view .LVU290
 1053              	.LBE306:
 1054              		.loc 2 355 3 view .LVU291
 1055              	.LBB314:
 1056              	.LBB307:
 1057              	.LBI307:
 1058              		.loc 3 669 27 view .LVU292
 1059              	.LBE307:
 1060              	.LBE314:
 1061              		.loc 3 677 3 view .LVU293
 1062              	.LBB315:
 1063              	.LBB312:
 1064              	.LBB308:
 1065              	.LBI308:
 1066              		.loc 4 491 27 view .LVU294
 1067              	.LBB309:
 1068              		.loc 4 493 3 view .LVU295
 1069              	.LBE309:
 1070              	.LBE308:
 1071              	.LBE312:
 1072              	.LBE315:
 1073              		.loc 1 327 67 is_stmt 0 view .LVU296
 1074 0170 08B5     		push	{r3, lr}
ARM GAS  /tmp/ccMG5vnh.s 			page 20


 1075              		.cfi_def_cfa_offset 8
 1076              		.cfi_offset 3, -8
 1077              		.cfi_offset 14, -4
 1078              	.LBB316:
 1079              	.LBB313:
 1080              	.LBB311:
 1081              	.LBB310:
 1082              		.loc 4 493 3 view .LVU297
 1083 0172 2023     		movs	r3, #32
 1084              		.syntax unified
 1085              	@ 493 "../../../external/ChibiOS/os/common/ext/ARM/CMSIS/Core/Include/cmsis_gcc.h" 1
 1086 0174 83F31188 		MSR basepri, r3
 1087              	@ 0 "" 2
 1088              	.LVL48:
 1089              		.loc 4 493 3 view .LVU298
 1090              		.thumb
 1091              		.syntax unified
 1092              	.LBE310:
 1093              	.LBE311:
 1094              	.LBE313:
 1095              	.LBE316:
 1096              		.loc 2 356 34 is_stmt 1 view .LVU299
 1097              		.loc 2 357 20 view .LVU300
 1098              		.loc 1 330 3 view .LVU301
 1099 0178 FFF7FEFF 		bl	chEvtBroadcastFlagsI
 1100              	.LVL49:
 1101              		.loc 1 331 3 view .LVU302
 1102 017c FFF7FEFF 		bl	chSchRescheduleS
 1103              	.LVL50:
 1104              		.loc 1 332 3 view .LVU303
 1105              	.LBB317:
 1106              	.LBI317:
 1107              		.loc 2 365 20 view .LVU304
 1108              	.LBB318:
 1109              		.loc 2 367 22 view .LVU305
 1110              		.loc 2 368 33 view .LVU306
 1111              		.loc 2 374 3 view .LVU307
 1112              		.loc 2 374 3 view .LVU308
 1113              		.loc 2 378 3 view .LVU309
 1114              	.LBB319:
 1115              	.LBI319:
 1116              		.loc 3 693 27 view .LVU310
 1117              	.LBE319:
 1118              	.LBE318:
 1119              	.LBE317:
 1120              		.loc 3 696 3 view .LVU311
 1121              	.LBB324:
 1122              	.LBB323:
 1123              	.LBB322:
 1124              	.LBB320:
 1125              	.LBI320:
 1126              		.loc 4 491 27 view .LVU312
 1127              	.LBB321:
 1128              		.loc 4 493 3 view .LVU313
 1129 0180 0023     		movs	r3, #0
 1130              		.syntax unified
 1131              	@ 493 "../../../external/ChibiOS/os/common/ext/ARM/CMSIS/Core/Include/cmsis_gcc.h" 1
ARM GAS  /tmp/ccMG5vnh.s 			page 21


 1132 0182 83F31188 		MSR basepri, r3
 1133              	@ 0 "" 2
 1134              	.LVL51:
 1135              		.loc 4 493 3 is_stmt 0 view .LVU314
 1136              		.thumb
 1137              		.syntax unified
 1138              	.LBE321:
 1139              	.LBE320:
 1140              	.LBE322:
 1141              	.LBE323:
 1142              	.LBE324:
 1143              		.loc 1 333 1 view .LVU315
 1144 0186 08BD     		pop	{r3, pc}
 1145              		.cfi_endproc
 1146              	.LFE332:
 1147              		.size	chEvtBroadcastFlags, .-chEvtBroadcastFlags
 1148              		.align	1
 1149 0188 AFF30080 		.p2align 4,,15
 1149      AFF30080 
 1150              		.global	chEvtGetAndClearFlagsI
 1151              		.syntax unified
 1152              		.thumb
 1153              		.thumb_func
 1154              		.fpu fpv4-sp-d16
 1155              		.type	chEvtGetAndClearFlagsI, %function
 1156              	chEvtGetAndClearFlagsI:
 1157              	.LVL52:
 1158              	.LFB333:
 1159              		.loc 1 346 60 is_stmt 1 view -0
 1160              		.cfi_startproc
 1161              		@ args = 0, pretend = 0, frame = 0
 1162              		@ frame_needed = 0, uses_anonymous_args = 0
 1163              		@ link register save eliminated.
 1164              		.loc 1 347 3 view .LVU317
 1165              		.loc 1 349 3 view .LVU318
 1166              		.loc 1 352 16 is_stmt 0 view .LVU319
 1167 0190 D0E90323 		ldrd	r2, r3, [r0, #12]
 1168              		.loc 1 350 14 view .LVU320
 1169 0194 0021     		movs	r1, #0
 1170 0196 C160     		str	r1, [r0, #12]
 1171              		.loc 1 352 3 is_stmt 1 view .LVU321
 1172              		.loc 1 353 1 is_stmt 0 view .LVU322
 1173 0198 02EA0300 		and	r0, r2, r3
 1174              	.LVL53:
 1175              		.loc 1 353 1 view .LVU323
 1176 019c 7047     		bx	lr
 1177              		.cfi_endproc
 1178              	.LFE333:
 1179              		.size	chEvtGetAndClearFlagsI, .-chEvtGetAndClearFlagsI
 1180              		.align	1
 1181 019e 00BF     		.p2align 4,,15
 1182              		.global	chEvtDispatch
 1183              		.syntax unified
 1184              		.thumb
 1185              		.thumb_func
 1186              		.fpu fpv4-sp-d16
 1187              		.type	chEvtDispatch, %function
ARM GAS  /tmp/ccMG5vnh.s 			page 22


 1188              	chEvtDispatch:
 1189              	.LVL54:
 1190              	.LFB334:
 1191              		.loc 1 364 69 is_stmt 1 view -0
 1192              		.cfi_startproc
 1193              		@ args = 0, pretend = 0, frame = 0
 1194              		@ frame_needed = 0, uses_anonymous_args = 0
 1195              		.loc 1 365 3 view .LVU325
 1196              		.loc 1 367 3 view .LVU326
 1197              		.loc 1 367 3 view .LVU327
 1198              		.loc 1 369 3 view .LVU328
 1199              		.loc 1 370 3 view .LVU329
 1200              		.loc 1 370 9 is_stmt 0 view .LVU330
 1201 01a0 B1B1     		cbz	r1, .L59
 1202              		.loc 1 364 69 view .LVU331
 1203 01a2 F8B5     		push	{r3, r4, r5, r6, r7, lr}
 1204              		.cfi_def_cfa_offset 24
 1205              		.cfi_offset 3, -24
 1206              		.cfi_offset 4, -20
 1207              		.cfi_offset 5, -16
 1208              		.cfi_offset 6, -12
 1209              		.cfi_offset 7, -8
 1210              		.cfi_offset 14, -4
 1211 01a4 0746     		mov	r7, r0
 1212 01a6 0D46     		mov	r5, r1
 1213              		.loc 1 369 7 view .LVU332
 1214 01a8 0024     		movs	r4, #0
 1215              		.loc 1 373 18 view .LVU333
 1216 01aa 0126     		movs	r6, #1
 1217              	.LVL55:
 1218              	.L50:
 1219              		.loc 1 371 5 is_stmt 1 view .LVU334
 1220              		.loc 1 372 7 view .LVU335
 1221              		.loc 1 372 7 view .LVU336
 1222              		.loc 1 373 7 view .LVU337
 1223              		.loc 1 376 5 view .LVU338
 1224              		.loc 1 371 36 is_stmt 0 view .LVU339
 1225 01ac 25FA04F3 		lsr	r3, r5, r4
 1226              		.loc 1 373 18 view .LVU340
 1227 01b0 06FA04F2 		lsl	r2, r6, r4
 1228              		.loc 1 374 7 view .LVU341
 1229 01b4 2046     		mov	r0, r4
 1230              		.loc 1 371 8 view .LVU342
 1231 01b6 DB07     		lsls	r3, r3, #31
 1232 01b8 08D5     		bpl	.L49
 1233              		.loc 1 373 14 view .LVU343
 1234 01ba 25EA0205 		bic	r5, r5, r2
 1235              	.LVL56:
 1236              		.loc 1 374 7 is_stmt 1 view .LVU344
 1237 01be 57F82430 		ldr	r3, [r7, r4, lsl #2]
 1238 01c2 9847     		blx	r3
 1239              	.LVL57:
 1240              		.loc 1 376 5 view .LVU345
 1241              		.loc 1 376 8 is_stmt 0 view .LVU346
 1242 01c4 0134     		adds	r4, r4, #1
 1243              	.LVL58:
 1244              		.loc 1 370 9 view .LVU347
ARM GAS  /tmp/ccMG5vnh.s 			page 23


 1245 01c6 002D     		cmp	r5, #0
 1246 01c8 F0D1     		bne	.L50
 1247              		.loc 1 378 1 view .LVU348
 1248 01ca F8BD     		pop	{r3, r4, r5, r6, r7, pc}
 1249              	.LVL59:
 1250              	.L49:
 1251              		.loc 1 376 8 view .LVU349
 1252 01cc 0134     		adds	r4, r4, #1
 1253              	.LVL60:
 1254              		.loc 1 376 8 view .LVU350
 1255 01ce EDE7     		b	.L50
 1256              	.LVL61:
 1257              	.L59:
 1258              		.cfi_def_cfa_offset 0
 1259              		.cfi_restore 3
 1260              		.cfi_restore 4
 1261              		.cfi_restore 5
 1262              		.cfi_restore 6
 1263              		.cfi_restore 7
 1264              		.cfi_restore 14
 1265              		.loc 1 376 8 view .LVU351
 1266 01d0 7047     		bx	lr
 1267              		.cfi_endproc
 1268              	.LFE334:
 1269              		.size	chEvtDispatch, .-chEvtDispatch
 1270              		.align	1
 1271 01d2 00BFAFF3 		.p2align 4,,15
 1271      0080AFF3 
 1271      0080AFF3 
 1271      0080
 1272              		.global	chEvtWaitOne
 1273              		.syntax unified
 1274              		.thumb
 1275              		.thumb_func
 1276              		.fpu fpv4-sp-d16
 1277              		.type	chEvtWaitOne, %function
 1278              	chEvtWaitOne:
 1279              	.LVL62:
 1280              	.LFB335:
 1281              		.loc 1 399 46 is_stmt 1 view -0
 1282              		.cfi_startproc
 1283              		@ args = 0, pretend = 0, frame = 0
 1284              		@ frame_needed = 0, uses_anonymous_args = 0
 1285              		.loc 1 400 3 view .LVU353
 1286              		.loc 1 400 13 is_stmt 0 view .LVU354
 1287 01e0 0D4A     		ldr	r2, .L66
 1288              		.loc 1 399 46 view .LVU355
 1289 01e2 38B5     		push	{r3, r4, r5, lr}
 1290              		.cfi_def_cfa_offset 16
 1291              		.cfi_offset 3, -16
 1292              		.cfi_offset 4, -12
 1293              		.cfi_offset 5, -8
 1294              		.cfi_offset 14, -4
 1295              	.LBB325:
 1296              	.LBB326:
 1297              	.LBB327:
 1298              	.LBB328:
ARM GAS  /tmp/ccMG5vnh.s 			page 24


 1299              		.loc 4 493 3 view .LVU356
 1300 01e4 2023     		movs	r3, #32
 1301              	.LBE328:
 1302              	.LBE327:
 1303              	.LBE326:
 1304              	.LBE325:
 1305              		.loc 1 400 13 view .LVU357
 1306 01e6 9569     		ldr	r5, [r2, #24]
 1307              	.LVL63:
 1308              		.loc 1 401 3 is_stmt 1 view .LVU358
 1309              		.loc 1 403 3 view .LVU359
 1310              	.LBB333:
 1311              	.LBI325:
 1312              		.loc 2 353 20 view .LVU360
 1313              	.LBE333:
 1314              		.loc 2 355 3 view .LVU361
 1315              	.LBB334:
 1316              	.LBB331:
 1317              	.LBI326:
 1318              		.loc 3 669 27 view .LVU362
 1319              	.LBE331:
 1320              	.LBE334:
 1321              		.loc 3 677 3 view .LVU363
 1322              	.LBB335:
 1323              	.LBB332:
 1324              	.LBB330:
 1325              	.LBI327:
 1326              		.loc 4 491 27 view .LVU364
 1327              	.LBB329:
 1328              		.loc 4 493 3 view .LVU365
 1329              		.syntax unified
 1330              	@ 493 "../../../external/ChibiOS/os/common/ext/ARM/CMSIS/Core/Include/cmsis_gcc.h" 1
 1331 01e8 83F31188 		MSR basepri, r3
 1332              	@ 0 "" 2
 1333              	.LVL64:
 1334              		.loc 4 493 3 is_stmt 0 view .LVU366
 1335              		.thumb
 1336              		.syntax unified
 1337              	.LBE329:
 1338              	.LBE330:
 1339              	.LBE332:
 1340              	.LBE335:
 1341              		.loc 2 356 34 is_stmt 1 view .LVU367
 1342              		.loc 2 357 20 view .LVU368
 1343              		.loc 1 404 3 view .LVU369
 1344              		.loc 1 404 10 is_stmt 0 view .LVU370
 1345 01ec 6B6B     		ldr	r3, [r5, #52]
 1346              	.LVL65:
 1347              		.loc 1 405 3 is_stmt 1 view .LVU371
 1348              		.loc 1 405 6 is_stmt 0 view .LVU372
 1349 01ee 13EA0004 		ands	r4, r3, r0
 1350              	.LVL66:
 1351              		.loc 1 405 6 view .LVU373
 1352 01f2 08D0     		beq	.L65
 1353              	.LVL67:
 1354              	.L63:
 1355              		.loc 1 410 3 is_stmt 1 view .LVU374
ARM GAS  /tmp/ccMG5vnh.s 			page 25


 1356              		.loc 1 410 5 is_stmt 0 view .LVU375
 1357 01f4 6042     		rsbs	r0, r4, #0
 1358              	.LBB336:
 1359              	.LBB337:
 1360              	.LBB338:
 1361              	.LBB339:
 1362              	.LBB340:
 1363              		.loc 4 493 3 view .LVU376
 1364 01f6 0022     		movs	r2, #0
 1365              	.LBE340:
 1366              	.LBE339:
 1367              	.LBE338:
 1368              	.LBE337:
 1369              	.LBE336:
 1370              		.loc 1 410 5 view .LVU377
 1371 01f8 2040     		ands	r0, r0, r4
 1372              	.LVL68:
 1373              		.loc 1 411 3 is_stmt 1 view .LVU378
 1374              		.loc 1 411 17 is_stmt 0 view .LVU379
 1375 01fa 23EA0003 		bic	r3, r3, r0
 1376 01fe 6B63     		str	r3, [r5, #52]
 1377              		.loc 1 412 3 is_stmt 1 view .LVU380
 1378              	.LBB347:
 1379              	.LBI336:
 1380              		.loc 2 365 20 view .LVU381
 1381              	.LBB345:
 1382              		.loc 2 367 22 view .LVU382
 1383              		.loc 2 368 33 view .LVU383
 1384              		.loc 2 374 3 view .LVU384
 1385              		.loc 2 374 3 view .LVU385
 1386              		.loc 2 378 3 view .LVU386
 1387              	.LBB343:
 1388              	.LBI338:
 1389              		.loc 3 693 27 view .LVU387
 1390              	.LBE343:
 1391              	.LBE345:
 1392              	.LBE347:
 1393              		.loc 3 696 3 view .LVU388
 1394              	.LVL69:
 1395              	.LBB348:
 1396              	.LBB346:
 1397              	.LBB344:
 1398              	.LBB342:
 1399              	.LBI339:
 1400              		.loc 4 491 27 view .LVU389
 1401              	.LBB341:
 1402              		.loc 4 493 3 view .LVU390
 1403              		.syntax unified
 1404              	@ 493 "../../../external/ChibiOS/os/common/ext/ARM/CMSIS/Core/Include/cmsis_gcc.h" 1
 1405 0200 82F31188 		MSR basepri, r2
 1406              	@ 0 "" 2
 1407              	.LVL70:
 1408              		.loc 4 493 3 is_stmt 0 view .LVU391
 1409              		.thumb
 1410              		.syntax unified
 1411              	.LBE341:
 1412              	.LBE342:
ARM GAS  /tmp/ccMG5vnh.s 			page 26


 1413              	.LBE344:
 1414              	.LBE346:
 1415              	.LBE348:
 1416              		.loc 1 414 3 is_stmt 1 view .LVU392
 1417              		.loc 1 415 1 is_stmt 0 view .LVU393
 1418 0204 38BD     		pop	{r3, r4, r5, pc}
 1419              	.LVL71:
 1420              	.L65:
 1421              		.loc 1 415 1 view .LVU394
 1422 0206 0446     		mov	r4, r0
 1423              	.LVL72:
 1424              		.loc 1 406 5 is_stmt 1 view .LVU395
 1425              		.loc 1 406 19 is_stmt 0 view .LVU396
 1426 0208 6862     		str	r0, [r5, #36]
 1427              		.loc 1 407 5 is_stmt 1 view .LVU397
 1428 020a 0A20     		movs	r0, #10
 1429              	.LVL73:
 1430              		.loc 1 407 5 is_stmt 0 view .LVU398
 1431 020c FFF7FEFF 		bl	chSchGoSleepS
 1432              	.LVL74:
 1433              		.loc 1 408 5 is_stmt 1 view .LVU399
 1434              		.loc 1 408 12 is_stmt 0 view .LVU400
 1435 0210 6B6B     		ldr	r3, [r5, #52]
 1436              		.loc 1 408 7 view .LVU401
 1437 0212 1C40     		ands	r4, r4, r3
 1438              	.LVL75:
 1439              		.loc 1 408 7 view .LVU402
 1440 0214 EEE7     		b	.L63
 1441              	.L67:
 1442 0216 00BF     		.align	2
 1443              	.L66:
 1444 0218 00000000 		.word	ch
 1445              		.cfi_endproc
 1446              	.LFE335:
 1447              		.size	chEvtWaitOne, .-chEvtWaitOne
 1448              		.align	1
 1449 021c AFF30080 		.p2align 4,,15
 1450              		.global	chEvtWaitAny
 1451              		.syntax unified
 1452              		.thumb
 1453              		.thumb_func
 1454              		.fpu fpv4-sp-d16
 1455              		.type	chEvtWaitAny, %function
 1456              	chEvtWaitAny:
 1457              	.LVL76:
 1458              	.LFB336:
 1459              		.loc 1 429 46 is_stmt 1 view -0
 1460              		.cfi_startproc
 1461              		@ args = 0, pretend = 0, frame = 0
 1462              		@ frame_needed = 0, uses_anonymous_args = 0
 1463              		.loc 1 430 3 view .LVU404
 1464              		.loc 1 430 13 is_stmt 0 view .LVU405
 1465 0220 0C4A     		ldr	r2, .L72
 1466              		.loc 1 429 46 view .LVU406
 1467 0222 38B5     		push	{r3, r4, r5, lr}
 1468              		.cfi_def_cfa_offset 16
 1469              		.cfi_offset 3, -16
ARM GAS  /tmp/ccMG5vnh.s 			page 27


 1470              		.cfi_offset 4, -12
 1471              		.cfi_offset 5, -8
 1472              		.cfi_offset 14, -4
 1473              	.LBB349:
 1474              	.LBB350:
 1475              	.LBB351:
 1476              	.LBB352:
 1477              		.loc 4 493 3 view .LVU407
 1478 0224 2023     		movs	r3, #32
 1479              	.LBE352:
 1480              	.LBE351:
 1481              	.LBE350:
 1482              	.LBE349:
 1483              		.loc 1 430 13 view .LVU408
 1484 0226 9569     		ldr	r5, [r2, #24]
 1485              	.LVL77:
 1486              		.loc 1 431 3 is_stmt 1 view .LVU409
 1487              		.loc 1 433 3 view .LVU410
 1488              	.LBB357:
 1489              	.LBI349:
 1490              		.loc 2 353 20 view .LVU411
 1491              	.LBE357:
 1492              		.loc 2 355 3 view .LVU412
 1493              	.LBB358:
 1494              	.LBB355:
 1495              	.LBI350:
 1496              		.loc 3 669 27 view .LVU413
 1497              	.LBE355:
 1498              	.LBE358:
 1499              		.loc 3 677 3 view .LVU414
 1500              	.LBB359:
 1501              	.LBB356:
 1502              	.LBB354:
 1503              	.LBI351:
 1504              		.loc 4 491 27 view .LVU415
 1505              	.LBB353:
 1506              		.loc 4 493 3 view .LVU416
 1507              		.syntax unified
 1508              	@ 493 "../../../external/ChibiOS/os/common/ext/ARM/CMSIS/Core/Include/cmsis_gcc.h" 1
 1509 0228 83F31188 		MSR basepri, r3
 1510              	@ 0 "" 2
 1511              	.LVL78:
 1512              		.loc 4 493 3 is_stmt 0 view .LVU417
 1513              		.thumb
 1514              		.syntax unified
 1515              	.LBE353:
 1516              	.LBE354:
 1517              	.LBE356:
 1518              	.LBE359:
 1519              		.loc 2 356 34 is_stmt 1 view .LVU418
 1520              		.loc 2 357 20 view .LVU419
 1521              		.loc 1 434 3 view .LVU420
 1522              		.loc 1 434 10 is_stmt 0 view .LVU421
 1523 022c 6B6B     		ldr	r3, [r5, #52]
 1524              	.LVL79:
 1525              		.loc 1 435 3 is_stmt 1 view .LVU422
 1526              		.loc 1 435 6 is_stmt 0 view .LVU423
ARM GAS  /tmp/ccMG5vnh.s 			page 28


 1527 022e 13EA0004 		ands	r4, r3, r0
 1528              	.LVL80:
 1529              		.loc 1 435 6 view .LVU424
 1530 0232 07D0     		beq	.L71
 1531              	.LVL81:
 1532              	.L69:
 1533              		.loc 1 440 3 is_stmt 1 view .LVU425
 1534              		.loc 1 440 17 is_stmt 0 view .LVU426
 1535 0234 23EA0403 		bic	r3, r3, r4
 1536              	.LBB360:
 1537              	.LBB361:
 1538              	.LBB362:
 1539              	.LBB363:
 1540              	.LBB364:
 1541              		.loc 4 493 3 view .LVU427
 1542 0238 0022     		movs	r2, #0
 1543              	.LBE364:
 1544              	.LBE363:
 1545              	.LBE362:
 1546              	.LBE361:
 1547              	.LBE360:
 1548              		.loc 1 440 17 view .LVU428
 1549 023a 6B63     		str	r3, [r5, #52]
 1550              		.loc 1 441 3 is_stmt 1 view .LVU429
 1551              	.LBB371:
 1552              	.LBI360:
 1553              		.loc 2 365 20 view .LVU430
 1554              	.LBB369:
 1555              		.loc 2 367 22 view .LVU431
 1556              		.loc 2 368 33 view .LVU432
 1557              		.loc 2 374 3 view .LVU433
 1558              		.loc 2 374 3 view .LVU434
 1559              		.loc 2 378 3 view .LVU435
 1560              	.LBB367:
 1561              	.LBI362:
 1562              		.loc 3 693 27 view .LVU436
 1563              	.LBE367:
 1564              	.LBE369:
 1565              	.LBE371:
 1566              		.loc 3 696 3 view .LVU437
 1567              	.LVL82:
 1568              	.LBB372:
 1569              	.LBB370:
 1570              	.LBB368:
 1571              	.LBB366:
 1572              	.LBI363:
 1573              		.loc 4 491 27 view .LVU438
 1574              	.LBB365:
 1575              		.loc 4 493 3 view .LVU439
 1576              		.syntax unified
 1577              	@ 493 "../../../external/ChibiOS/os/common/ext/ARM/CMSIS/Core/Include/cmsis_gcc.h" 1
 1578 023c 82F31188 		MSR basepri, r2
 1579              	@ 0 "" 2
 1580              	.LVL83:
 1581              		.loc 4 493 3 is_stmt 0 view .LVU440
 1582              		.thumb
 1583              		.syntax unified
ARM GAS  /tmp/ccMG5vnh.s 			page 29


 1584              	.LBE365:
 1585              	.LBE366:
 1586              	.LBE368:
 1587              	.LBE370:
 1588              	.LBE372:
 1589              		.loc 1 443 3 is_stmt 1 view .LVU441
 1590              		.loc 1 444 1 is_stmt 0 view .LVU442
 1591 0240 2046     		mov	r0, r4
 1592 0242 38BD     		pop	{r3, r4, r5, pc}
 1593              	.LVL84:
 1594              	.L71:
 1595              		.loc 1 444 1 view .LVU443
 1596 0244 0446     		mov	r4, r0
 1597              	.LVL85:
 1598              		.loc 1 436 5 is_stmt 1 view .LVU444
 1599              		.loc 1 436 19 is_stmt 0 view .LVU445
 1600 0246 6862     		str	r0, [r5, #36]
 1601              		.loc 1 437 5 is_stmt 1 view .LVU446
 1602 0248 0A20     		movs	r0, #10
 1603              	.LVL86:
 1604              		.loc 1 437 5 is_stmt 0 view .LVU447
 1605 024a FFF7FEFF 		bl	chSchGoSleepS
 1606              	.LVL87:
 1607              		.loc 1 438 5 is_stmt 1 view .LVU448
 1608              		.loc 1 438 12 is_stmt 0 view .LVU449
 1609 024e 6B6B     		ldr	r3, [r5, #52]
 1610              		.loc 1 438 7 view .LVU450
 1611 0250 1C40     		ands	r4, r4, r3
 1612              	.LVL88:
 1613              		.loc 1 438 7 view .LVU451
 1614 0252 EFE7     		b	.L69
 1615              	.L73:
 1616              		.align	2
 1617              	.L72:
 1618 0254 00000000 		.word	ch
 1619              		.cfi_endproc
 1620              	.LFE336:
 1621              		.size	chEvtWaitAny, .-chEvtWaitAny
 1622              		.align	1
 1623 0258 AFF30080 		.p2align 4,,15
 1623      AFF30080 
 1624              		.global	chEvtWaitAll
 1625              		.syntax unified
 1626              		.thumb
 1627              		.thumb_func
 1628              		.fpu fpv4-sp-d16
 1629              		.type	chEvtWaitAll, %function
 1630              	chEvtWaitAll:
 1631              	.LVL89:
 1632              	.LFB337:
 1633              		.loc 1 457 46 is_stmt 1 view -0
 1634              		.cfi_startproc
 1635              		@ args = 0, pretend = 0, frame = 0
 1636              		@ frame_needed = 0, uses_anonymous_args = 0
 1637              		.loc 1 458 3 view .LVU453
 1638              		.loc 1 458 13 is_stmt 0 view .LVU454
 1639 0260 0B4A     		ldr	r2, .L77
ARM GAS  /tmp/ccMG5vnh.s 			page 30


 1640              		.loc 1 457 46 view .LVU455
 1641 0262 38B5     		push	{r3, r4, r5, lr}
 1642              		.cfi_def_cfa_offset 16
 1643              		.cfi_offset 3, -16
 1644              		.cfi_offset 4, -12
 1645              		.cfi_offset 5, -8
 1646              		.cfi_offset 14, -4
 1647              		.loc 1 457 46 view .LVU456
 1648 0264 0446     		mov	r4, r0
 1649              	.LBB373:
 1650              	.LBB374:
 1651              	.LBB375:
 1652              	.LBB376:
 1653              		.loc 4 493 3 view .LVU457
 1654 0266 2023     		movs	r3, #32
 1655              	.LBE376:
 1656              	.LBE375:
 1657              	.LBE374:
 1658              	.LBE373:
 1659              		.loc 1 458 13 view .LVU458
 1660 0268 9569     		ldr	r5, [r2, #24]
 1661              	.LVL90:
 1662              		.loc 1 460 3 is_stmt 1 view .LVU459
 1663              	.LBB381:
 1664              	.LBI373:
 1665              		.loc 2 353 20 view .LVU460
 1666              	.LBE381:
 1667              		.loc 2 355 3 view .LVU461
 1668              	.LBB382:
 1669              	.LBB379:
 1670              	.LBI374:
 1671              		.loc 3 669 27 view .LVU462
 1672              	.LBE379:
 1673              	.LBE382:
 1674              		.loc 3 677 3 view .LVU463
 1675              	.LBB383:
 1676              	.LBB380:
 1677              	.LBB378:
 1678              	.LBI375:
 1679              		.loc 4 491 27 view .LVU464
 1680              	.LBB377:
 1681              		.loc 4 493 3 view .LVU465
 1682              		.syntax unified
 1683              	@ 493 "../../../external/ChibiOS/os/common/ext/ARM/CMSIS/Core/Include/cmsis_gcc.h" 1
 1684 026a 83F31188 		MSR basepri, r3
 1685              	@ 0 "" 2
 1686              	.LVL91:
 1687              		.loc 4 493 3 is_stmt 0 view .LVU466
 1688              		.thumb
 1689              		.syntax unified
 1690              	.LBE377:
 1691              	.LBE378:
 1692              	.LBE380:
 1693              	.LBE383:
 1694              		.loc 2 356 34 is_stmt 1 view .LVU467
 1695              		.loc 2 357 20 view .LVU468
 1696              		.loc 1 461 3 view .LVU469
ARM GAS  /tmp/ccMG5vnh.s 			page 31


 1697              		.loc 1 461 11 is_stmt 0 view .LVU470
 1698 026e 6B6B     		ldr	r3, [r5, #52]
 1699              		.loc 1 461 6 view .LVU471
 1700 0270 30EA0302 		bics	r2, r0, r3
 1701 0274 04D0     		beq	.L75
 1702              		.loc 1 462 5 is_stmt 1 view .LVU472
 1703              		.loc 1 462 19 is_stmt 0 view .LVU473
 1704 0276 6862     		str	r0, [r5, #36]
 1705              		.loc 1 463 5 is_stmt 1 view .LVU474
 1706 0278 0B20     		movs	r0, #11
 1707              	.LVL92:
 1708              		.loc 1 463 5 is_stmt 0 view .LVU475
 1709 027a FFF7FEFF 		bl	chSchGoSleepS
 1710              	.LVL93:
 1711 027e 6B6B     		ldr	r3, [r5, #52]
 1712              	.L75:
 1713              		.loc 1 465 3 is_stmt 1 view .LVU476
 1714              		.loc 1 465 17 is_stmt 0 view .LVU477
 1715 0280 23EA0403 		bic	r3, r3, r4
 1716              	.LBB384:
 1717              	.LBB385:
 1718              	.LBB386:
 1719              	.LBB387:
 1720              	.LBB388:
 1721              		.loc 4 493 3 view .LVU478
 1722 0284 0022     		movs	r2, #0
 1723              	.LBE388:
 1724              	.LBE387:
 1725              	.LBE386:
 1726              	.LBE385:
 1727              	.LBE384:
 1728              		.loc 1 465 17 view .LVU479
 1729 0286 6B63     		str	r3, [r5, #52]
 1730              		.loc 1 466 3 is_stmt 1 view .LVU480
 1731              	.LBB395:
 1732              	.LBI384:
 1733              		.loc 2 365 20 view .LVU481
 1734              	.LBB393:
 1735              		.loc 2 367 22 view .LVU482
 1736              		.loc 2 368 33 view .LVU483
 1737              		.loc 2 374 3 view .LVU484
 1738              		.loc 2 374 3 view .LVU485
 1739              		.loc 2 378 3 view .LVU486
 1740              	.LBB391:
 1741              	.LBI386:
 1742              		.loc 3 693 27 view .LVU487
 1743              	.LBE391:
 1744              	.LBE393:
 1745              	.LBE395:
 1746              		.loc 3 696 3 view .LVU488
 1747              	.LVL94:
 1748              	.LBB396:
 1749              	.LBB394:
 1750              	.LBB392:
 1751              	.LBB390:
 1752              	.LBI387:
 1753              		.loc 4 491 27 view .LVU489
ARM GAS  /tmp/ccMG5vnh.s 			page 32


 1754              	.LBB389:
 1755              		.loc 4 493 3 view .LVU490
 1756              		.syntax unified
 1757              	@ 493 "../../../external/ChibiOS/os/common/ext/ARM/CMSIS/Core/Include/cmsis_gcc.h" 1
 1758 0288 82F31188 		MSR basepri, r2
 1759              	@ 0 "" 2
 1760              	.LVL95:
 1761              		.loc 4 493 3 is_stmt 0 view .LVU491
 1762              		.thumb
 1763              		.syntax unified
 1764              	.LBE389:
 1765              	.LBE390:
 1766              	.LBE392:
 1767              	.LBE394:
 1768              	.LBE396:
 1769              		.loc 1 468 3 is_stmt 1 view .LVU492
 1770              		.loc 1 469 1 is_stmt 0 view .LVU493
 1771 028c 2046     		mov	r0, r4
 1772 028e 38BD     		pop	{r3, r4, r5, pc}
 1773              	.LVL96:
 1774              	.L78:
 1775              		.loc 1 469 1 view .LVU494
 1776              		.align	2
 1777              	.L77:
 1778 0290 00000000 		.word	ch
 1779              		.cfi_endproc
 1780              	.LFE337:
 1781              		.size	chEvtWaitAll, .-chEvtWaitAll
 1782              		.align	1
 1783 0294 AFF30080 		.p2align 4,,15
 1783      AFF30080 
 1783      AFF30080 
 1784              		.global	chEvtWaitOneTimeout
 1785              		.syntax unified
 1786              		.thumb
 1787              		.thumb_func
 1788              		.fpu fpv4-sp-d16
 1789              		.type	chEvtWaitOneTimeout, %function
 1790              	chEvtWaitOneTimeout:
 1791              	.LVL97:
 1792              	.LFB338:
 1793              		.loc 1 495 76 is_stmt 1 view -0
 1794              		.cfi_startproc
 1795              		@ args = 0, pretend = 0, frame = 0
 1796              		@ frame_needed = 0, uses_anonymous_args = 0
 1797              		.loc 1 496 3 view .LVU496
 1798              		.loc 1 496 13 is_stmt 0 view .LVU497
 1799 02a0 114A     		ldr	r2, .L86
 1800              	.LBB397:
 1801              	.LBB398:
 1802              	.LBB399:
 1803              	.LBB400:
 1804              		.loc 4 493 3 view .LVU498
 1805 02a2 2023     		movs	r3, #32
 1806              	.LBE400:
 1807              	.LBE399:
 1808              	.LBE398:
ARM GAS  /tmp/ccMG5vnh.s 			page 33


 1809              	.LBE397:
 1810              		.loc 1 495 76 view .LVU499
 1811 02a4 70B5     		push	{r4, r5, r6, lr}
 1812              		.cfi_def_cfa_offset 16
 1813              		.cfi_offset 4, -16
 1814              		.cfi_offset 5, -12
 1815              		.cfi_offset 6, -8
 1816              		.cfi_offset 14, -4
 1817              		.loc 1 496 13 view .LVU500
 1818 02a6 9669     		ldr	r6, [r2, #24]
 1819              	.LVL98:
 1820              		.loc 1 497 3 is_stmt 1 view .LVU501
 1821              		.loc 1 499 3 view .LVU502
 1822              	.LBB405:
 1823              	.LBI397:
 1824              		.loc 2 353 20 view .LVU503
 1825              	.LBE405:
 1826              		.loc 2 355 3 view .LVU504
 1827              	.LBB406:
 1828              	.LBB403:
 1829              	.LBI398:
 1830              		.loc 3 669 27 view .LVU505
 1831              	.LBE403:
 1832              	.LBE406:
 1833              		.loc 3 677 3 view .LVU506
 1834              	.LBB407:
 1835              	.LBB404:
 1836              	.LBB402:
 1837              	.LBI399:
 1838              		.loc 4 491 27 view .LVU507
 1839              	.LBB401:
 1840              		.loc 4 493 3 view .LVU508
 1841              		.syntax unified
 1842              	@ 493 "../../../external/ChibiOS/os/common/ext/ARM/CMSIS/Core/Include/cmsis_gcc.h" 1
 1843 02a8 83F31188 		MSR basepri, r3
 1844              	@ 0 "" 2
 1845              	.LVL99:
 1846              		.loc 4 493 3 is_stmt 0 view .LVU509
 1847              		.thumb
 1848              		.syntax unified
 1849              	.LBE401:
 1850              	.LBE402:
 1851              	.LBE404:
 1852              	.LBE407:
 1853              		.loc 2 356 34 is_stmt 1 view .LVU510
 1854              		.loc 2 357 20 view .LVU511
 1855              		.loc 1 500 3 view .LVU512
 1856              		.loc 1 500 10 is_stmt 0 view .LVU513
 1857 02ac 736B     		ldr	r3, [r6, #52]
 1858              	.LVL100:
 1859              		.loc 1 501 3 is_stmt 1 view .LVU514
 1860              		.loc 1 501 6 is_stmt 0 view .LVU515
 1861 02ae 13EA0004 		ands	r4, r3, r0
 1862              	.LVL101:
 1863              		.loc 1 501 6 view .LVU516
 1864 02b2 0ED1     		bne	.L80
 1865              		.loc 1 502 5 is_stmt 1 view .LVU517
ARM GAS  /tmp/ccMG5vnh.s 			page 34


 1866              		.loc 1 502 8 is_stmt 0 view .LVU518
 1867 02b4 19B9     		cbnz	r1, .L81
 1868              	.LVL102:
 1869              	.L85:
 1870              		.loc 1 508 7 is_stmt 1 view .LVU519
 1871              	.LBB408:
 1872              	.LBI408:
 1873              		.loc 2 365 20 view .LVU520
 1874              	.LBB409:
 1875              		.loc 2 367 22 view .LVU521
 1876              		.loc 2 368 33 view .LVU522
 1877              		.loc 2 374 3 view .LVU523
 1878              		.loc 2 374 3 view .LVU524
 1879              		.loc 2 378 3 view .LVU525
 1880              	.LBB410:
 1881              	.LBI410:
 1882              		.loc 3 693 27 view .LVU526
 1883              	.LBE410:
 1884              	.LBE409:
 1885              	.LBE408:
 1886              		.loc 3 696 3 view .LVU527
 1887              	.LBB415:
 1888              	.LBB414:
 1889              	.LBB413:
 1890              	.LBB411:
 1891              	.LBI411:
 1892              		.loc 4 491 27 view .LVU528
 1893              	.LBB412:
 1894              		.loc 4 493 3 view .LVU529
 1895              		.syntax unified
 1896              	@ 493 "../../../external/ChibiOS/os/common/ext/ARM/CMSIS/Core/Include/cmsis_gcc.h" 1
 1897 02b6 84F31188 		MSR basepri, r4
 1898              	@ 0 "" 2
 1899              	.LVL103:
 1900              		.loc 4 493 3 is_stmt 0 view .LVU530
 1901              		.thumb
 1902              		.syntax unified
 1903              	.LBE412:
 1904              	.LBE411:
 1905              	.LBE413:
 1906              	.LBE414:
 1907              	.LBE415:
 1908              		.loc 1 509 7 is_stmt 1 view .LVU531
 1909              		.loc 1 518 1 is_stmt 0 view .LVU532
 1910 02ba 2046     		mov	r0, r4
 1911 02bc 70BD     		pop	{r4, r5, r6, pc}
 1912              	.LVL104:
 1913              	.L81:
 1914              		.loc 1 506 5 is_stmt 1 view .LVU533
 1915              		.loc 1 506 19 is_stmt 0 view .LVU534
 1916 02be 7062     		str	r0, [r6, #36]
 1917              		.loc 1 507 5 is_stmt 1 view .LVU535
 1918 02c0 0546     		mov	r5, r0
 1919              		.loc 1 507 9 is_stmt 0 view .LVU536
 1920 02c2 0A20     		movs	r0, #10
 1921              	.LVL105:
 1922              		.loc 1 507 9 view .LVU537
ARM GAS  /tmp/ccMG5vnh.s 			page 35


 1923 02c4 FFF7FEFF 		bl	chSchGoSleepTimeoutS
 1924              	.LVL106:
 1925              		.loc 1 507 8 view .LVU538
 1926 02c8 0028     		cmp	r0, #0
 1927 02ca F4DB     		blt	.L85
 1928              		.loc 1 511 5 is_stmt 1 view .LVU539
 1929              		.loc 1 511 12 is_stmt 0 view .LVU540
 1930 02cc 736B     		ldr	r3, [r6, #52]
 1931              		.loc 1 511 7 view .LVU541
 1932 02ce 03EA0504 		and	r4, r3, r5
 1933              	.LVL107:
 1934              	.L80:
 1935              		.loc 1 513 3 is_stmt 1 view .LVU542
 1936              		.loc 1 513 5 is_stmt 0 view .LVU543
 1937 02d2 6142     		rsbs	r1, r4, #0
 1938              	.LBB416:
 1939              	.LBB417:
 1940              	.LBB418:
 1941              	.LBB419:
 1942              	.LBB420:
 1943              		.loc 4 493 3 view .LVU544
 1944 02d4 0022     		movs	r2, #0
 1945              	.LBE420:
 1946              	.LBE419:
 1947              	.LBE418:
 1948              	.LBE417:
 1949              	.LBE416:
 1950              		.loc 1 513 5 view .LVU545
 1951 02d6 0C40     		ands	r4, r4, r1
 1952              	.LVL108:
 1953              		.loc 1 514 3 is_stmt 1 view .LVU546
 1954              		.loc 1 514 17 is_stmt 0 view .LVU547
 1955 02d8 23EA0403 		bic	r3, r3, r4
 1956 02dc 7363     		str	r3, [r6, #52]
 1957              		.loc 1 515 3 is_stmt 1 view .LVU548
 1958              	.LBB427:
 1959              	.LBI416:
 1960              		.loc 2 365 20 view .LVU549
 1961              	.LBB425:
 1962              		.loc 2 367 22 view .LVU550
 1963              		.loc 2 368 33 view .LVU551
 1964              		.loc 2 374 3 view .LVU552
 1965              		.loc 2 374 3 view .LVU553
 1966              		.loc 2 378 3 view .LVU554
 1967              	.LBB423:
 1968              	.LBI418:
 1969              		.loc 3 693 27 view .LVU555
 1970              	.LBE423:
 1971              	.LBE425:
 1972              	.LBE427:
 1973              		.loc 3 696 3 view .LVU556
 1974              	.LVL109:
 1975              	.LBB428:
 1976              	.LBB426:
 1977              	.LBB424:
 1978              	.LBB422:
 1979              	.LBI419:
ARM GAS  /tmp/ccMG5vnh.s 			page 36


 1980              		.loc 4 491 27 view .LVU557
 1981              	.LBB421:
 1982              		.loc 4 493 3 view .LVU558
 1983              		.syntax unified
 1984              	@ 493 "../../../external/ChibiOS/os/common/ext/ARM/CMSIS/Core/Include/cmsis_gcc.h" 1
 1985 02de 82F31188 		MSR basepri, r2
 1986              	@ 0 "" 2
 1987              	.LVL110:
 1988              		.loc 4 493 3 is_stmt 0 view .LVU559
 1989              		.thumb
 1990              		.syntax unified
 1991              	.LBE421:
 1992              	.LBE422:
 1993              	.LBE424:
 1994              	.LBE426:
 1995              	.LBE428:
 1996              		.loc 1 517 3 is_stmt 1 view .LVU560
 1997              		.loc 1 518 1 is_stmt 0 view .LVU561
 1998 02e2 2046     		mov	r0, r4
 1999 02e4 70BD     		pop	{r4, r5, r6, pc}
 2000              	.LVL111:
 2001              	.L87:
 2002              		.loc 1 518 1 view .LVU562
 2003 02e6 00BF     		.align	2
 2004              	.L86:
 2005 02e8 00000000 		.word	ch
 2006              		.cfi_endproc
 2007              	.LFE338:
 2008              		.size	chEvtWaitOneTimeout, .-chEvtWaitOneTimeout
 2009              		.align	1
 2010 02ec AFF30080 		.p2align 4,,15
 2011              		.global	chEvtWaitAnyTimeout
 2012              		.syntax unified
 2013              		.thumb
 2014              		.thumb_func
 2015              		.fpu fpv4-sp-d16
 2016              		.type	chEvtWaitAnyTimeout, %function
 2017              	chEvtWaitAnyTimeout:
 2018              	.LVL112:
 2019              	.LFB339:
 2020              		.loc 1 538 76 is_stmt 1 view -0
 2021              		.cfi_startproc
 2022              		@ args = 0, pretend = 0, frame = 0
 2023              		@ frame_needed = 0, uses_anonymous_args = 0
 2024              		.loc 1 539 3 view .LVU564
 2025              		.loc 1 539 13 is_stmt 0 view .LVU565
 2026 02f0 104A     		ldr	r2, .L95
 2027              	.LBB429:
 2028              	.LBB430:
 2029              	.LBB431:
 2030              	.LBB432:
 2031              		.loc 4 493 3 view .LVU566
 2032 02f2 2023     		movs	r3, #32
 2033              	.LBE432:
 2034              	.LBE431:
 2035              	.LBE430:
 2036              	.LBE429:
ARM GAS  /tmp/ccMG5vnh.s 			page 37


 2037              		.loc 1 538 76 view .LVU567
 2038 02f4 70B5     		push	{r4, r5, r6, lr}
 2039              		.cfi_def_cfa_offset 16
 2040              		.cfi_offset 4, -16
 2041              		.cfi_offset 5, -12
 2042              		.cfi_offset 6, -8
 2043              		.cfi_offset 14, -4
 2044              		.loc 1 539 13 view .LVU568
 2045 02f6 9669     		ldr	r6, [r2, #24]
 2046              	.LVL113:
 2047              		.loc 1 540 3 is_stmt 1 view .LVU569
 2048              		.loc 1 542 3 view .LVU570
 2049              	.LBB437:
 2050              	.LBI429:
 2051              		.loc 2 353 20 view .LVU571
 2052              	.LBE437:
 2053              		.loc 2 355 3 view .LVU572
 2054              	.LBB438:
 2055              	.LBB435:
 2056              	.LBI430:
 2057              		.loc 3 669 27 view .LVU573
 2058              	.LBE435:
 2059              	.LBE438:
 2060              		.loc 3 677 3 view .LVU574
 2061              	.LBB439:
 2062              	.LBB436:
 2063              	.LBB434:
 2064              	.LBI431:
 2065              		.loc 4 491 27 view .LVU575
 2066              	.LBB433:
 2067              		.loc 4 493 3 view .LVU576
 2068              		.syntax unified
 2069              	@ 493 "../../../external/ChibiOS/os/common/ext/ARM/CMSIS/Core/Include/cmsis_gcc.h" 1
 2070 02f8 83F31188 		MSR basepri, r3
 2071              	@ 0 "" 2
 2072              	.LVL114:
 2073              		.loc 4 493 3 is_stmt 0 view .LVU577
 2074              		.thumb
 2075              		.syntax unified
 2076              	.LBE433:
 2077              	.LBE434:
 2078              	.LBE436:
 2079              	.LBE439:
 2080              		.loc 2 356 34 is_stmt 1 view .LVU578
 2081              		.loc 2 357 20 view .LVU579
 2082              		.loc 1 543 3 view .LVU580
 2083              		.loc 1 543 10 is_stmt 0 view .LVU581
 2084 02fc 736B     		ldr	r3, [r6, #52]
 2085              	.LVL115:
 2086              		.loc 1 544 3 is_stmt 1 view .LVU582
 2087              		.loc 1 544 6 is_stmt 0 view .LVU583
 2088 02fe 13EA0005 		ands	r5, r3, r0
 2089              	.LVL116:
 2090              		.loc 1 544 6 view .LVU584
 2091 0302 0ED1     		bne	.L89
 2092              		.loc 1 545 5 is_stmt 1 view .LVU585
 2093              		.loc 1 545 8 is_stmt 0 view .LVU586
ARM GAS  /tmp/ccMG5vnh.s 			page 38


 2094 0304 19B9     		cbnz	r1, .L90
 2095              	.LVL117:
 2096              	.L94:
 2097              		.loc 1 551 7 is_stmt 1 view .LVU587
 2098              	.LBB440:
 2099              	.LBI440:
 2100              		.loc 2 365 20 view .LVU588
 2101              	.LBB441:
 2102              		.loc 2 367 22 view .LVU589
 2103              		.loc 2 368 33 view .LVU590
 2104              		.loc 2 374 3 view .LVU591
 2105              		.loc 2 374 3 view .LVU592
 2106              		.loc 2 378 3 view .LVU593
 2107              	.LBB442:
 2108              	.LBI442:
 2109              		.loc 3 693 27 view .LVU594
 2110              	.LBE442:
 2111              	.LBE441:
 2112              	.LBE440:
 2113              		.loc 3 696 3 view .LVU595
 2114              	.LBB447:
 2115              	.LBB446:
 2116              	.LBB445:
 2117              	.LBB443:
 2118              	.LBI443:
 2119              		.loc 4 491 27 view .LVU596
 2120              	.LBB444:
 2121              		.loc 4 493 3 view .LVU597
 2122              		.syntax unified
 2123              	@ 493 "../../../external/ChibiOS/os/common/ext/ARM/CMSIS/Core/Include/cmsis_gcc.h" 1
 2124 0306 85F31188 		MSR basepri, r5
 2125              	@ 0 "" 2
 2126              	.LVL118:
 2127              		.loc 4 493 3 is_stmt 0 view .LVU598
 2128              		.thumb
 2129              		.syntax unified
 2130              	.LBE444:
 2131              	.LBE443:
 2132              	.LBE445:
 2133              	.LBE446:
 2134              	.LBE447:
 2135              		.loc 1 552 7 is_stmt 1 view .LVU599
 2136              		.loc 1 560 1 is_stmt 0 view .LVU600
 2137 030a 2846     		mov	r0, r5
 2138 030c 70BD     		pop	{r4, r5, r6, pc}
 2139              	.LVL119:
 2140              	.L90:
 2141              		.loc 1 549 5 is_stmt 1 view .LVU601
 2142              		.loc 1 549 19 is_stmt 0 view .LVU602
 2143 030e 7062     		str	r0, [r6, #36]
 2144              		.loc 1 550 5 is_stmt 1 view .LVU603
 2145 0310 0446     		mov	r4, r0
 2146              		.loc 1 550 9 is_stmt 0 view .LVU604
 2147 0312 0A20     		movs	r0, #10
 2148              	.LVL120:
 2149              		.loc 1 550 9 view .LVU605
 2150 0314 FFF7FEFF 		bl	chSchGoSleepTimeoutS
ARM GAS  /tmp/ccMG5vnh.s 			page 39


 2151              	.LVL121:
 2152              		.loc 1 550 8 view .LVU606
 2153 0318 0028     		cmp	r0, #0
 2154 031a F4DB     		blt	.L94
 2155              		.loc 1 554 5 is_stmt 1 view .LVU607
 2156              		.loc 1 554 12 is_stmt 0 view .LVU608
 2157 031c 736B     		ldr	r3, [r6, #52]
 2158              		.loc 1 554 7 view .LVU609
 2159 031e 03EA0405 		and	r5, r3, r4
 2160              	.LVL122:
 2161              	.L89:
 2162              		.loc 1 556 3 is_stmt 1 view .LVU610
 2163              		.loc 1 556 17 is_stmt 0 view .LVU611
 2164 0322 23EA0503 		bic	r3, r3, r5
 2165              	.LBB448:
 2166              	.LBB449:
 2167              	.LBB450:
 2168              	.LBB451:
 2169              	.LBB452:
 2170              		.loc 4 493 3 view .LVU612
 2171 0326 0022     		movs	r2, #0
 2172              	.LBE452:
 2173              	.LBE451:
 2174              	.LBE450:
 2175              	.LBE449:
 2176              	.LBE448:
 2177              		.loc 1 556 17 view .LVU613
 2178 0328 7363     		str	r3, [r6, #52]
 2179              		.loc 1 557 3 is_stmt 1 view .LVU614
 2180              	.LBB459:
 2181              	.LBI448:
 2182              		.loc 2 365 20 view .LVU615
 2183              	.LBB457:
 2184              		.loc 2 367 22 view .LVU616
 2185              		.loc 2 368 33 view .LVU617
 2186              		.loc 2 374 3 view .LVU618
 2187              		.loc 2 374 3 view .LVU619
 2188              		.loc 2 378 3 view .LVU620
 2189              	.LBB455:
 2190              	.LBI450:
 2191              		.loc 3 693 27 view .LVU621
 2192              	.LBE455:
 2193              	.LBE457:
 2194              	.LBE459:
 2195              		.loc 3 696 3 view .LVU622
 2196              	.LVL123:
 2197              	.LBB460:
 2198              	.LBB458:
 2199              	.LBB456:
 2200              	.LBB454:
 2201              	.LBI451:
 2202              		.loc 4 491 27 view .LVU623
 2203              	.LBB453:
 2204              		.loc 4 493 3 view .LVU624
 2205              		.syntax unified
 2206              	@ 493 "../../../external/ChibiOS/os/common/ext/ARM/CMSIS/Core/Include/cmsis_gcc.h" 1
 2207 032a 82F31188 		MSR basepri, r2
ARM GAS  /tmp/ccMG5vnh.s 			page 40


 2208              	@ 0 "" 2
 2209              	.LVL124:
 2210              		.loc 4 493 3 is_stmt 0 view .LVU625
 2211              		.thumb
 2212              		.syntax unified
 2213              	.LBE453:
 2214              	.LBE454:
 2215              	.LBE456:
 2216              	.LBE458:
 2217              	.LBE460:
 2218              		.loc 1 559 3 is_stmt 1 view .LVU626
 2219              		.loc 1 560 1 is_stmt 0 view .LVU627
 2220 032e 2846     		mov	r0, r5
 2221 0330 70BD     		pop	{r4, r5, r6, pc}
 2222              	.LVL125:
 2223              	.L96:
 2224              		.loc 1 560 1 view .LVU628
 2225 0332 00BF     		.align	2
 2226              	.L95:
 2227 0334 00000000 		.word	ch
 2228              		.cfi_endproc
 2229              	.LFE339:
 2230              		.size	chEvtWaitAnyTimeout, .-chEvtWaitAnyTimeout
 2231              		.align	1
 2232 0338 AFF30080 		.p2align 4,,15
 2232      AFF30080 
 2233              		.global	chEvtWaitAllTimeout
 2234              		.syntax unified
 2235              		.thumb
 2236              		.thumb_func
 2237              		.fpu fpv4-sp-d16
 2238              		.type	chEvtWaitAllTimeout, %function
 2239              	chEvtWaitAllTimeout:
 2240              	.LVL126:
 2241              	.LFB340:
 2242              		.loc 1 579 76 is_stmt 1 view -0
 2243              		.cfi_startproc
 2244              		@ args = 0, pretend = 0, frame = 0
 2245              		@ frame_needed = 0, uses_anonymous_args = 0
 2246              		.loc 1 580 3 view .LVU630
 2247              		.loc 1 580 13 is_stmt 0 view .LVU631
 2248 0340 104A     		ldr	r2, .L104
 2249              		.loc 1 579 76 view .LVU632
 2250 0342 38B5     		push	{r3, r4, r5, lr}
 2251              		.cfi_def_cfa_offset 16
 2252              		.cfi_offset 3, -16
 2253              		.cfi_offset 4, -12
 2254              		.cfi_offset 5, -8
 2255              		.cfi_offset 14, -4
 2256              		.loc 1 579 76 view .LVU633
 2257 0344 0446     		mov	r4, r0
 2258              	.LBB461:
 2259              	.LBB462:
 2260              	.LBB463:
 2261              	.LBB464:
 2262              		.loc 4 493 3 view .LVU634
 2263 0346 2023     		movs	r3, #32
ARM GAS  /tmp/ccMG5vnh.s 			page 41


 2264              	.LBE464:
 2265              	.LBE463:
 2266              	.LBE462:
 2267              	.LBE461:
 2268              		.loc 1 580 13 view .LVU635
 2269 0348 9569     		ldr	r5, [r2, #24]
 2270              	.LVL127:
 2271              		.loc 1 582 3 is_stmt 1 view .LVU636
 2272              	.LBB469:
 2273              	.LBI461:
 2274              		.loc 2 353 20 view .LVU637
 2275              	.LBE469:
 2276              		.loc 2 355 3 view .LVU638
 2277              	.LBB470:
 2278              	.LBB467:
 2279              	.LBI462:
 2280              		.loc 3 669 27 view .LVU639
 2281              	.LBE467:
 2282              	.LBE470:
 2283              		.loc 3 677 3 view .LVU640
 2284              	.LBB471:
 2285              	.LBB468:
 2286              	.LBB466:
 2287              	.LBI463:
 2288              		.loc 4 491 27 view .LVU641
 2289              	.LBB465:
 2290              		.loc 4 493 3 view .LVU642
 2291              		.syntax unified
 2292              	@ 493 "../../../external/ChibiOS/os/common/ext/ARM/CMSIS/Core/Include/cmsis_gcc.h" 1
 2293 034a 83F31188 		MSR basepri, r3
 2294              	@ 0 "" 2
 2295              	.LVL128:
 2296              		.loc 4 493 3 is_stmt 0 view .LVU643
 2297              		.thumb
 2298              		.syntax unified
 2299              	.LBE465:
 2300              	.LBE466:
 2301              	.LBE468:
 2302              	.LBE471:
 2303              		.loc 2 356 34 is_stmt 1 view .LVU644
 2304              		.loc 2 357 20 view .LVU645
 2305              		.loc 1 583 3 view .LVU646
 2306              		.loc 1 583 11 is_stmt 0 view .LVU647
 2307 034e 6B6B     		ldr	r3, [r5, #52]
 2308              		.loc 1 583 6 view .LVU648
 2309 0350 30EA0302 		bics	r2, r0, r3
 2310 0354 0BD0     		beq	.L98
 2311              		.loc 1 584 5 is_stmt 1 view .LVU649
 2312 0356 0846     		mov	r0, r1
 2313              	.LVL129:
 2314              		.loc 1 584 8 is_stmt 0 view .LVU650
 2315 0358 11B9     		cbnz	r1, .L99
 2316              	.LVL130:
 2317              	.L103:
 2318              	.LBB472:
 2319              	.LBB473:
 2320              	.LBB474:
ARM GAS  /tmp/ccMG5vnh.s 			page 42


 2321              	.LBB475:
 2322              	.LBB476:
 2323              		.loc 4 493 3 view .LVU651
 2324              		.syntax unified
 2325              	@ 493 "../../../external/ChibiOS/os/common/ext/ARM/CMSIS/Core/Include/cmsis_gcc.h" 1
 2326 035a 80F31188 		MSR basepri, r0
 2327              	@ 0 "" 2
 2328              		.thumb
 2329              		.syntax unified
 2330              	.LBE476:
 2331              	.LBE475:
 2332              	.LBE474:
 2333              	.LBE473:
 2334              	.LBE472:
 2335              		.loc 1 591 7 is_stmt 1 view .LVU652
 2336              		.loc 1 598 1 is_stmt 0 view .LVU653
 2337 035e 38BD     		pop	{r3, r4, r5, pc}
 2338              	.LVL131:
 2339              	.L99:
 2340              		.loc 1 588 5 is_stmt 1 view .LVU654
 2341              		.loc 1 588 19 is_stmt 0 view .LVU655
 2342 0360 6C62     		str	r4, [r5, #36]
 2343              		.loc 1 589 5 is_stmt 1 view .LVU656
 2344              		.loc 1 589 9 is_stmt 0 view .LVU657
 2345 0362 0B20     		movs	r0, #11
 2346              	.LVL132:
 2347              		.loc 1 589 9 view .LVU658
 2348 0364 FFF7FEFF 		bl	chSchGoSleepTimeoutS
 2349              	.LVL133:
 2350              		.loc 1 589 8 view .LVU659
 2351 0368 0028     		cmp	r0, #0
 2352 036a 08DB     		blt	.L101
 2353 036c 6B6B     		ldr	r3, [r5, #52]
 2354              	.L98:
 2355              		.loc 1 594 3 is_stmt 1 view .LVU660
 2356              		.loc 1 594 17 is_stmt 0 view .LVU661
 2357 036e 23EA0403 		bic	r3, r3, r4
 2358              	.LBB483:
 2359              	.LBB484:
 2360              	.LBB485:
 2361              	.LBB486:
 2362              	.LBB487:
 2363              		.loc 4 493 3 view .LVU662
 2364 0372 0022     		movs	r2, #0
 2365              	.LBE487:
 2366              	.LBE486:
 2367              	.LBE485:
 2368              	.LBE484:
 2369              	.LBE483:
 2370              		.loc 1 594 17 view .LVU663
 2371 0374 6B63     		str	r3, [r5, #52]
 2372              		.loc 1 595 3 is_stmt 1 view .LVU664
 2373              	.LBB494:
 2374              	.LBI483:
 2375              		.loc 2 365 20 view .LVU665
 2376              	.LBB492:
 2377              		.loc 2 367 22 view .LVU666
ARM GAS  /tmp/ccMG5vnh.s 			page 43


 2378              		.loc 2 368 33 view .LVU667
 2379              		.loc 2 374 3 view .LVU668
 2380              		.loc 2 374 3 view .LVU669
 2381              		.loc 2 378 3 view .LVU670
 2382              	.LBB490:
 2383              	.LBI485:
 2384              		.loc 3 693 27 view .LVU671
 2385              	.LBE490:
 2386              	.LBE492:
 2387              	.LBE494:
 2388              		.loc 3 696 3 view .LVU672
 2389              	.LVL134:
 2390              	.LBB495:
 2391              	.LBB493:
 2392              	.LBB491:
 2393              	.LBB489:
 2394              	.LBI486:
 2395              		.loc 4 491 27 view .LVU673
 2396              	.LBB488:
 2397              		.loc 4 493 3 view .LVU674
 2398              		.syntax unified
 2399              	@ 493 "../../../external/ChibiOS/os/common/ext/ARM/CMSIS/Core/Include/cmsis_gcc.h" 1
 2400 0376 82F31188 		MSR basepri, r2
 2401              	@ 0 "" 2
 2402              	.LVL135:
 2403              		.loc 4 493 3 is_stmt 0 view .LVU675
 2404              		.thumb
 2405              		.syntax unified
 2406              	.LBE488:
 2407              	.LBE489:
 2408              	.LBE491:
 2409              	.LBE493:
 2410              	.LBE495:
 2411              		.loc 1 597 3 is_stmt 1 view .LVU676
 2412              		.loc 1 597 10 is_stmt 0 view .LVU677
 2413 037a 2046     		mov	r0, r4
 2414              		.loc 1 598 1 view .LVU678
 2415 037c 38BD     		pop	{r3, r4, r5, pc}
 2416              	.LVL136:
 2417              	.L101:
 2418              		.loc 1 590 7 is_stmt 1 view .LVU679
 2419              	.LBB496:
 2420              	.LBI472:
 2421              		.loc 2 365 20 view .LVU680
 2422              	.LBB481:
 2423              		.loc 2 367 22 view .LVU681
 2424              		.loc 2 368 33 view .LVU682
 2425              		.loc 2 374 3 view .LVU683
 2426              		.loc 2 374 3 view .LVU684
 2427              		.loc 2 378 3 view .LVU685
 2428              	.LBB479:
 2429              	.LBI474:
 2430              		.loc 3 693 27 view .LVU686
 2431              	.LBE479:
 2432              	.LBE481:
 2433              	.LBE496:
 2434              		.loc 3 696 3 view .LVU687
ARM GAS  /tmp/ccMG5vnh.s 			page 44


 2435              	.LBB497:
 2436              	.LBB482:
 2437              	.LBB480:
 2438              	.LBB478:
 2439              	.LBI475:
 2440              		.loc 4 491 27 view .LVU688
 2441              	.LBB477:
 2442              		.loc 4 493 3 view .LVU689
 2443 037e 0020     		movs	r0, #0
 2444 0380 EBE7     		b	.L103
 2445              	.L105:
 2446 0382 00BF     		.align	2
 2447              	.L104:
 2448 0384 00000000 		.word	ch
 2449              	.LBE477:
 2450              	.LBE478:
 2451              	.LBE480:
 2452              	.LBE482:
 2453              	.LBE497:
 2454              		.cfi_endproc
 2455              	.LFE340:
 2456              		.size	chEvtWaitAllTimeout, .-chEvtWaitAllTimeout
 2457              	.Letext0:
 2458              		.file 6 "/home/nicolas/arm/gcc-arm-none-eabi-8-2019-q3-update/lib/gcc/arm-none-eabi/8.3.1/include/
 2459              		.file 7 "/home/nicolas/arm/gcc-arm-none-eabi-8-2019-q3-update/arm-none-eabi/include/machine/_defau
 2460              		.file 8 "/home/nicolas/arm/gcc-arm-none-eabi-8-2019-q3-update/arm-none-eabi/include/sys/_stdint.h"
 2461              		.file 9 "../../../external/ChibiOS/os/common/ports/ARMCMx/compilers/GCC/chtypes.h"
 2462              		.file 10 "../../../external/ChibiOS/os/rt/include/chsystypes.h"
 2463              		.file 11 "../../../external/ChibiOS/os/rt/include/chschd.h"
 2464              		.file 12 "../../../external/ChibiOS/os/rt/include/chtime.h"
 2465              		.file 13 "../../../external/ChibiOS/os/common/ext/ARM/CMSIS/Core/Include/core_cm7.h"
 2466              		.file 14 "../../../external/ChibiOS/os/common/ext/ST/STM32H7xx/system_stm32h7xx.h"
 2467              		.file 15 "../../../external/ChibiOS/os/common/ports/ARMCMx/chcore.h"
 2468              		.file 16 "../../../external/ChibiOS/os/rt/include/chtrace.h"
 2469              		.file 17 "../../../external/ChibiOS/os/rt/include/chtm.h"
 2470              		.file 18 "../../../external/ChibiOS/os/rt/include/chsem.h"
 2471              		.file 19 "../../../external/ChibiOS/os/rt/include/chmtx.h"
 2472              		.file 20 "../../../external/ChibiOS/os/rt/include/chregistry.h"
 2473              		.file 21 "../../../external/ChibiOS/os/oslib/include/chmemcore.h"
 2474              		.file 22 "../../../external/ChibiOS/os/oslib/include/chmempools.h"
 2475              		.file 23 "../../../external/ChibiOS/os/oslib/include/chfactory.h"