ARM GAS  /tmp/ccqkAsjn.s 			page 1


   1              		.cpu cortex-m7
   2              		.eabi_attribute 27, 1
   3              		.eabi_attribute 28, 1
   4              		.eabi_attribute 20, 1
   5              		.eabi_attribute 21, 1
   6              		.eabi_attribute 23, 3
   7              		.eabi_attribute 24, 1
   8              		.eabi_attribute 25, 1
   9              		.eabi_attribute 26, 1
  10              		.eabi_attribute 30, 2
  11              		.eabi_attribute 34, 1
  12              		.eabi_attribute 18, 4
  13              		.file	"chmboxes.c"
  14              		.text
  15              	.Ltext0:
  16              		.cfi_sections	.debug_frame
  17              		.align	1
  18              		.p2align 4,,15
  19              		.global	chMBObjectInit
  20              		.arch armv7e-m
  21              		.syntax unified
  22              		.thumb
  23              		.thumb_func
  24              		.fpu fpv4-sp-d16
  25              		.type	chMBObjectInit, %function
  26              	chMBObjectInit:
  27              	.LVL0:
  28              	.LFB323:
  29              		.file 1 "../../../external/ChibiOS/os/oslib/src/chmboxes.c"
  30              		.loc 1 87 59 view -0
  31              		.cfi_startproc
  32              		@ args = 0, pretend = 0, frame = 0
  33              		@ frame_needed = 0, uses_anonymous_args = 0
  34              		@ link register save eliminated.
  35              		.loc 1 89 3 view .LVU1
  36              		.loc 1 89 3 view .LVU2
  37              		.loc 1 91 3 view .LVU3
  38              		.loc 1 87 59 is_stmt 0 view .LVU4
  39 0000 30B4     		push	{r4, r5}
  40              		.cfi_def_cfa_offset 8
  41              		.cfi_offset 4, -8
  42              		.cfi_offset 5, -4
  43              		.loc 1 95 15 view .LVU5
  44 0002 0023     		movs	r3, #0
  45              		.loc 1 97 3 view .LVU6
  46 0004 00F11805 		add	r5, r0, #24
  47              		.loc 1 98 3 view .LVU7
  48 0008 00F12004 		add	r4, r0, #32
  49              		.loc 1 94 17 view .LVU8
  50 000c 01EB8202 		add	r2, r1, r2, lsl #2
  51              	.LVL1:
  52              		.loc 1 95 15 view .LVU9
  53 0010 0361     		str	r3, [r0, #16]
  54              		.loc 1 96 15 view .LVU10
  55 0012 0375     		strb	r3, [r0, #20]
  56              	.LBB88:
  57              	.LBB89:
ARM GAS  /tmp/ccqkAsjn.s 			page 2


  58              	.LBB90:
  59              		.file 2 "../../../external/ChibiOS/os/rt/include/chschd.h"
  60              		.loc 2 540 13 view .LVU11
  61 0014 C0E90655 		strd	r5, r5, [r0, #24]
  62              	.LBE90:
  63              	.LBE89:
  64              	.LBE88:
  65              	.LBB93:
  66              	.LBB94:
  67              	.LBB95:
  68 0018 C0E90844 		strd	r4, r4, [r0, #32]
  69              	.LBE95:
  70              	.LBE94:
  71              	.LBE93:
  72              		.loc 1 94 15 view .LVU12
  73 001c C0E90012 		strd	r1, r2, [r0]
  74              		.loc 1 93 15 view .LVU13
  75 0020 C0E90211 		strd	r1, r1, [r0, #8]
  76              		.loc 1 94 3 is_stmt 1 view .LVU14
  77              		.loc 1 95 3 view .LVU15
  78              		.loc 1 96 3 view .LVU16
  79              		.loc 1 97 3 view .LVU17
  80              	.LVL2:
  81              	.LBB98:
  82              	.LBI88:
  83              		.file 3 "../../../external/ChibiOS/os/rt/include/chthreads.h"
  84              		.loc 3 392 20 view .LVU18
  85              	.LBE98:
  86              		.loc 3 394 3 view .LVU19
  87              	.LBB99:
  88              	.LBB92:
  89              	.LBI89:
  90              		.loc 2 537 20 view .LVU20
  91              	.LBB91:
  92              		.loc 2 539 3 view .LVU21
  93              		.loc 2 540 3 view .LVU22
  94              		.loc 2 540 3 is_stmt 0 view .LVU23
  95              	.LBE91:
  96              	.LBE92:
  97              	.LBE99:
  98              		.loc 1 98 3 is_stmt 1 view .LVU24
  99              	.LBB100:
 100              	.LBI93:
 101              		.loc 3 392 20 view .LVU25
 102              	.LBE100:
 103              		.loc 3 394 3 view .LVU26
 104              	.LBB101:
 105              	.LBB97:
 106              	.LBI94:
 107              		.loc 2 537 20 view .LVU27
 108              	.LBB96:
 109              		.loc 2 539 3 view .LVU28
 110              		.loc 2 540 3 view .LVU29
 111              		.loc 2 540 3 is_stmt 0 view .LVU30
 112              	.LBE96:
 113              	.LBE97:
 114              	.LBE101:
ARM GAS  /tmp/ccqkAsjn.s 			page 3


 115              		.loc 1 99 1 view .LVU31
 116 0024 30BC     		pop	{r4, r5}
 117              		.cfi_restore 5
 118              		.cfi_restore 4
 119              		.cfi_def_cfa_offset 0
 120 0026 7047     		bx	lr
 121              		.cfi_endproc
 122              	.LFE323:
 123              		.size	chMBObjectInit, .-chMBObjectInit
 124              		.align	1
 125 0028 AFF30080 		.p2align 4,,15
 125      AFF30080 
 126              		.global	chMBResetI
 127              		.syntax unified
 128              		.thumb
 129              		.thumb_func
 130              		.fpu fpv4-sp-d16
 131              		.type	chMBResetI, %function
 132              	chMBResetI:
 133              	.LVL3:
 134              	.LFB325:
 135              		.loc 1 133 33 is_stmt 1 view -0
 136              		.cfi_startproc
 137              		@ args = 0, pretend = 0, frame = 0
 138              		@ frame_needed = 0, uses_anonymous_args = 0
 139              		.loc 1 135 21 view .LVU33
 140              		.loc 1 136 3 view .LVU34
 141              		.loc 1 136 3 view .LVU35
 142              		.loc 1 138 3 view .LVU36
 143              		.loc 1 133 33 is_stmt 0 view .LVU37
 144 0030 38B5     		push	{r3, r4, r5, lr}
 145              		.cfi_def_cfa_offset 16
 146              		.cfi_offset 3, -16
 147              		.cfi_offset 4, -12
 148              		.cfi_offset 5, -8
 149              		.cfi_offset 14, -4
 150              		.loc 1 141 14 view .LVU38
 151 0032 0122     		movs	r2, #1
 152              		.loc 1 138 19 view .LVU39
 153 0034 0368     		ldr	r3, [r0]
 154              		.loc 1 133 33 view .LVU40
 155 0036 0446     		mov	r4, r0
 156              		.loc 1 140 14 view .LVU41
 157 0038 0025     		movs	r5, #0
 158              		.loc 1 142 3 view .LVU42
 159 003a 6FF00101 		mvn	r1, #1
 160 003e 1830     		adds	r0, r0, #24
 161              	.LVL4:
 162              		.loc 1 140 14 view .LVU43
 163 0040 2561     		str	r5, [r4, #16]
 164              		.loc 1 141 14 view .LVU44
 165 0042 2275     		strb	r2, [r4, #20]
 166              		.loc 1 139 14 view .LVU45
 167 0044 C4E90233 		strd	r3, r3, [r4, #8]
 168              		.loc 1 140 3 is_stmt 1 view .LVU46
 169              		.loc 1 141 3 view .LVU47
 170              		.loc 1 142 3 view .LVU48
ARM GAS  /tmp/ccqkAsjn.s 			page 4


 171 0048 FFF7FEFF 		bl	chThdDequeueAllI
 172              	.LVL5:
 173              		.loc 1 143 3 view .LVU49
 174 004c 04F12000 		add	r0, r4, #32
 175 0050 6FF00101 		mvn	r1, #1
 176              		.loc 1 144 1 is_stmt 0 view .LVU50
 177 0054 BDE83840 		pop	{r3, r4, r5, lr}
 178              		.cfi_restore 14
 179              		.cfi_restore 5
 180              		.cfi_restore 4
 181              		.cfi_restore 3
 182              		.cfi_def_cfa_offset 0
 183              	.LVL6:
 184              		.loc 1 143 3 view .LVU51
 185 0058 FFF7FEBF 		b	chThdDequeueAllI
 186              	.LVL7:
 187              		.loc 1 143 3 view .LVU52
 188              		.cfi_endproc
 189              	.LFE325:
 190              		.size	chMBResetI, .-chMBResetI
 191              		.align	1
 192 005c AFF30080 		.p2align 4,,15
 193              		.global	chMBReset
 194              		.syntax unified
 195              		.thumb
 196              		.thumb_func
 197              		.fpu fpv4-sp-d16
 198              		.type	chMBReset, %function
 199              	chMBReset:
 200              	.LVL8:
 201              	.LFB324:
 202              		.loc 1 113 32 is_stmt 1 view -0
 203              		.cfi_startproc
 204              		@ args = 0, pretend = 0, frame = 0
 205              		@ frame_needed = 0, uses_anonymous_args = 0
 206              		.loc 1 115 3 view .LVU54
 207              	.LBB102:
 208              	.LBI102:
 209              		.file 4 "../../../external/ChibiOS/os/rt/include/chsys.h"
 210              		.loc 4 353 20 view .LVU55
 211              	.LBE102:
 212              		.loc 4 355 3 view .LVU56
 213              	.LBB110:
 214              	.LBB103:
 215              	.LBI103:
 216              		.file 5 "../../../external/ChibiOS/os/common/ports/ARMCMx/chcore_v7m.h"
 217              		.loc 5 669 27 view .LVU57
 218              	.LBE103:
 219              	.LBE110:
 220              		.loc 5 677 3 view .LVU58
 221              	.LBB111:
 222              	.LBB108:
 223              	.LBB104:
 224              	.LBI104:
 225              		.file 6 "../../../external/ChibiOS/os/common/ext/ARM/CMSIS/Core/Include/cmsis_gcc.h"
 226              		.loc 6 491 27 view .LVU59
 227              	.LBB105:
ARM GAS  /tmp/ccqkAsjn.s 			page 5


 228              		.loc 6 493 3 view .LVU60
 229              	.LBE105:
 230              	.LBE104:
 231              	.LBE108:
 232              	.LBE111:
 233              		.loc 1 113 32 is_stmt 0 view .LVU61
 234 0060 08B5     		push	{r3, lr}
 235              		.cfi_def_cfa_offset 8
 236              		.cfi_offset 3, -8
 237              		.cfi_offset 14, -4
 238              	.LBB112:
 239              	.LBB109:
 240              	.LBB107:
 241              	.LBB106:
 242              		.loc 6 493 3 view .LVU62
 243 0062 2023     		movs	r3, #32
 244              		.syntax unified
 245              	@ 493 "../../../external/ChibiOS/os/common/ext/ARM/CMSIS/Core/Include/cmsis_gcc.h" 1
 246 0064 83F31188 		MSR basepri, r3
 247              	@ 0 "" 2
 248              	.LVL9:
 249              		.loc 6 493 3 view .LVU63
 250              		.thumb
 251              		.syntax unified
 252              	.LBE106:
 253              	.LBE107:
 254              	.LBE109:
 255              	.LBE112:
 256              		.loc 4 356 34 is_stmt 1 view .LVU64
 257              		.loc 4 357 20 view .LVU65
 258              		.loc 1 116 3 view .LVU66
 259 0068 FFF7FEFF 		bl	chMBResetI
 260              	.LVL10:
 261              		.loc 1 117 3 view .LVU67
 262 006c FFF7FEFF 		bl	chSchRescheduleS
 263              	.LVL11:
 264              		.loc 1 118 3 view .LVU68
 265              	.LBB113:
 266              	.LBI113:
 267              		.loc 4 365 20 view .LVU69
 268              	.LBB114:
 269              		.loc 4 367 22 view .LVU70
 270              		.loc 4 368 33 view .LVU71
 271              		.loc 4 374 3 view .LVU72
 272              		.loc 4 374 3 view .LVU73
 273              		.loc 4 378 3 view .LVU74
 274              	.LBB115:
 275              	.LBI115:
 276              		.loc 5 693 27 view .LVU75
 277              	.LBE115:
 278              	.LBE114:
 279              	.LBE113:
 280              		.loc 5 696 3 view .LVU76
 281              	.LBB120:
 282              	.LBB119:
 283              	.LBB118:
 284              	.LBB116:
ARM GAS  /tmp/ccqkAsjn.s 			page 6


 285              	.LBI116:
 286              		.loc 6 491 27 view .LVU77
 287              	.LBB117:
 288              		.loc 6 493 3 view .LVU78
 289 0070 0023     		movs	r3, #0
 290              		.syntax unified
 291              	@ 493 "../../../external/ChibiOS/os/common/ext/ARM/CMSIS/Core/Include/cmsis_gcc.h" 1
 292 0072 83F31188 		MSR basepri, r3
 293              	@ 0 "" 2
 294              	.LVL12:
 295              		.loc 6 493 3 is_stmt 0 view .LVU79
 296              		.thumb
 297              		.syntax unified
 298              	.LBE117:
 299              	.LBE116:
 300              	.LBE118:
 301              	.LBE119:
 302              	.LBE120:
 303              		.loc 1 119 1 view .LVU80
 304 0076 08BD     		pop	{r3, pc}
 305              		.cfi_endproc
 306              	.LFE324:
 307              		.size	chMBReset, .-chMBReset
 308              		.align	1
 309 0078 AFF30080 		.p2align 4,,15
 309      AFF30080 
 310              		.global	chMBPostTimeoutS
 311              		.syntax unified
 312              		.thumb
 313              		.thumb_func
 314              		.fpu fpv4-sp-d16
 315              		.type	chMBPostTimeoutS, %function
 316              	chMBPostTimeoutS:
 317              	.LVL13:
 318              	.LFB327:
 319              		.loc 1 194 74 is_stmt 1 view -0
 320              		.cfi_startproc
 321              		@ args = 0, pretend = 0, frame = 0
 322              		@ frame_needed = 0, uses_anonymous_args = 0
 323              		.loc 1 195 3 view .LVU82
 324              		.loc 1 197 21 view .LVU83
 325              		.loc 1 198 3 view .LVU84
 326              		.loc 1 198 3 view .LVU85
 327              		.loc 1 194 74 is_stmt 0 view .LVU86
 328 0080 2DE9F041 		push	{r4, r5, r6, r7, r8, lr}
 329              		.cfi_def_cfa_offset 24
 330              		.cfi_offset 4, -24
 331              		.cfi_offset 5, -20
 332              		.cfi_offset 6, -16
 333              		.cfi_offset 7, -12
 334              		.cfi_offset 8, -8
 335              		.cfi_offset 14, -4
 336              		.loc 1 194 74 view .LVU87
 337 0084 0446     		mov	r4, r0
 338 0086 8846     		mov	r8, r1
 339 0088 1646     		mov	r6, r2
 340              		.loc 1 222 14 view .LVU88
ARM GAS  /tmp/ccqkAsjn.s 			page 7


 341 008a 00F11805 		add	r5, r0, #24
 342 008e 0AE0     		b	.L12
 343              	.LVL14:
 344              	.L18:
 345              	.LBB121:
 346              	.LBB122:
 347              		.file 7 "../../../external/ChibiOS/os/oslib/include/chmboxes.h"
 348              		.loc 7 171 10 view .LVU89
 349 0090 D4E90072 		ldrd	r7, r2, [r4]
 350              	.LBB123:
 351              	.LBI123:
 352              		.loc 7 136 22 is_stmt 1 view .LVU90
 353              	.LVL15:
 354              	.LBB124:
 355              		.loc 7 140 3 view .LVU91
 356              	.LBE124:
 357              	.LBE123:
 358              		.loc 7 171 30 is_stmt 0 view .LVU92
 359 0094 2369     		ldr	r3, [r4, #16]
 360              	.LVL16:
 361              		.loc 7 171 30 view .LVU93
 362              	.LBE122:
 363              	.LBE121:
 364              		.loc 7 154 21 is_stmt 1 view .LVU94
 365              		.loc 7 156 3 view .LVU95
 366              	.LBB129:
 367              	.LBB127:
 368              	.LBB126:
 369              	.LBB125:
 370              		.loc 7 140 28 is_stmt 0 view .LVU96
 371 0096 A2EB070E 		sub	lr, r2, r7
 372              	.LBE125:
 373              	.LBE126:
 374              	.LBE127:
 375              	.LBE129:
 376              		.loc 1 207 8 view .LVU97
 377 009a B3EBAE0F 		cmp	r3, lr, asr #2
 378 009e 0BD1     		bne	.L17
 379              		.loc 1 222 14 view .LVU98
 380 00a0 FFF7FEFF 		bl	chThdEnqueueTimeoutS
 381              	.LVL17:
 382              		.loc 1 223 3 view .LVU99
 383 00a4 30B9     		cbnz	r0, .L8
 384              	.LVL18:
 385              	.L12:
 386              		.loc 1 200 3 is_stmt 1 view .LVU100
 387              		.loc 1 202 5 view .LVU101
 388              		.loc 1 207 5 view .LVU102
 389              	.LBB130:
 390              	.LBI121:
 391              		.loc 7 167 22 view .LVU103
 392              	.LBB128:
 393              		.loc 7 169 21 view .LVU104
 394              		.loc 7 171 3 view .LVU105
 395              	.LBE128:
 396              	.LBE130:
 397              		.loc 1 222 5 view .LVU106
ARM GAS  /tmp/ccqkAsjn.s 			page 8


 398              		.loc 1 202 8 is_stmt 0 view .LVU107
 399 00a6 237D     		ldrb	r3, [r4, #20]	@ zero_extendqisi2
 400              		.loc 1 222 14 view .LVU108
 401 00a8 3146     		mov	r1, r6
 402 00aa 2846     		mov	r0, r5
 403              		.loc 1 202 8 view .LVU109
 404 00ac 002B     		cmp	r3, #0
 405 00ae EFD0     		beq	.L18
 406              	.LVL19:
 407              		.loc 1 203 14 view .LVU110
 408 00b0 6FF00100 		mvn	r0, #1
 409              	.LVL20:
 410              	.L8:
 411              		.loc 1 226 1 view .LVU111
 412 00b4 BDE8F081 		pop	{r4, r5, r6, r7, r8, pc}
 413              	.LVL21:
 414              	.L17:
 415              		.loc 1 208 7 is_stmt 1 view .LVU112
 416              		.loc 1 208 11 is_stmt 0 view .LVU113
 417 00b8 A068     		ldr	r0, [r4, #8]
 418              		.loc 1 212 15 view .LVU114
 419 00ba 0133     		adds	r3, r3, #1
 420              		.loc 1 208 18 view .LVU115
 421 00bc 011D     		adds	r1, r0, #4
 422              	.LVL22:
 423              		.loc 1 209 10 view .LVU116
 424 00be 9142     		cmp	r1, r2
 425              		.loc 1 208 18 view .LVU117
 426 00c0 A160     		str	r1, [r4, #8]
 427              		.loc 1 208 21 view .LVU118
 428 00c2 C0F80080 		str	r8, [r0]
 429              		.loc 1 209 7 is_stmt 1 view .LVU119
 430              		.loc 1 210 9 view .LVU120
 431              		.loc 1 212 7 view .LVU121
 432              		.loc 1 215 7 is_stmt 0 view .LVU122
 433 00c6 4FF00001 		mov	r1, #0
 434 00ca 04F12000 		add	r0, r4, #32
 435              		.loc 1 210 20 view .LVU123
 436 00ce 28BF     		it	cs
 437 00d0 A760     		strcs	r7, [r4, #8]
 438              		.loc 1 212 15 view .LVU124
 439 00d2 2361     		str	r3, [r4, #16]
 440              		.loc 1 215 7 is_stmt 1 view .LVU125
 441 00d4 FFF7FEFF 		bl	chThdDequeueNextI
 442              	.LVL23:
 443              		.loc 1 216 7 view .LVU126
 444 00d8 FFF7FEFF 		bl	chSchRescheduleS
 445              	.LVL24:
 446              		.loc 1 218 7 view .LVU127
 447              		.loc 1 218 14 is_stmt 0 view .LVU128
 448 00dc 0020     		movs	r0, #0
 449              		.loc 1 226 1 view .LVU129
 450 00de BDE8F081 		pop	{r4, r5, r6, r7, r8, pc}
 451              		.loc 1 226 1 view .LVU130
 452              		.cfi_endproc
 453              	.LFE327:
 454              		.size	chMBPostTimeoutS, .-chMBPostTimeoutS
ARM GAS  /tmp/ccqkAsjn.s 			page 9


 455              		.align	1
 456 00e2 00BFAFF3 		.p2align 4,,15
 456      0080AFF3 
 456      0080AFF3 
 456      0080
 457              		.global	chMBPostTimeout
 458              		.syntax unified
 459              		.thumb
 460              		.thumb_func
 461              		.fpu fpv4-sp-d16
 462              		.type	chMBPostTimeout, %function
 463              	chMBPostTimeout:
 464              	.LVL25:
 465              	.LFB326:
 466              		.loc 1 165 73 is_stmt 1 view -0
 467              		.cfi_startproc
 468              		@ args = 0, pretend = 0, frame = 0
 469              		@ frame_needed = 0, uses_anonymous_args = 0
 470              		.loc 1 166 3 view .LVU132
 471              		.loc 1 168 3 view .LVU133
 472              	.LBB131:
 473              	.LBI131:
 474              		.loc 4 353 20 view .LVU134
 475              	.LBE131:
 476              		.loc 4 355 3 view .LVU135
 477              	.LBB139:
 478              	.LBB132:
 479              	.LBI132:
 480              		.loc 5 669 27 view .LVU136
 481              	.LBE132:
 482              	.LBE139:
 483              		.loc 5 677 3 view .LVU137
 484              	.LBB140:
 485              	.LBB137:
 486              	.LBB133:
 487              	.LBI133:
 488              		.loc 6 491 27 view .LVU138
 489              	.LBB134:
 490              		.loc 6 493 3 view .LVU139
 491              	.LBE134:
 492              	.LBE133:
 493              	.LBE137:
 494              	.LBE140:
 495              		.loc 1 165 73 is_stmt 0 view .LVU140
 496 00f0 08B5     		push	{r3, lr}
 497              		.cfi_def_cfa_offset 8
 498              		.cfi_offset 3, -8
 499              		.cfi_offset 14, -4
 500              	.LBB141:
 501              	.LBB138:
 502              	.LBB136:
 503              	.LBB135:
 504              		.loc 6 493 3 view .LVU141
 505 00f2 2023     		movs	r3, #32
 506              		.syntax unified
 507              	@ 493 "../../../external/ChibiOS/os/common/ext/ARM/CMSIS/Core/Include/cmsis_gcc.h" 1
 508 00f4 83F31188 		MSR basepri, r3
ARM GAS  /tmp/ccqkAsjn.s 			page 10


 509              	@ 0 "" 2
 510              	.LVL26:
 511              		.loc 6 493 3 view .LVU142
 512              		.thumb
 513              		.syntax unified
 514              	.LBE135:
 515              	.LBE136:
 516              	.LBE138:
 517              	.LBE141:
 518              		.loc 4 356 34 is_stmt 1 view .LVU143
 519              		.loc 4 357 20 view .LVU144
 520              		.loc 1 169 3 view .LVU145
 521              		.loc 1 169 12 is_stmt 0 view .LVU146
 522 00f8 FFF7FEFF 		bl	chMBPostTimeoutS
 523              	.LVL27:
 524              		.loc 1 170 3 is_stmt 1 view .LVU147
 525              	.LBB142:
 526              	.LBI142:
 527              		.loc 4 365 20 view .LVU148
 528              	.LBB143:
 529              		.loc 4 367 22 view .LVU149
 530              		.loc 4 368 33 view .LVU150
 531              		.loc 4 374 3 view .LVU151
 532              		.loc 4 374 3 view .LVU152
 533              		.loc 4 378 3 view .LVU153
 534              	.LBB144:
 535              	.LBI144:
 536              		.loc 5 693 27 view .LVU154
 537              	.LBE144:
 538              	.LBE143:
 539              	.LBE142:
 540              		.loc 5 696 3 view .LVU155
 541              	.LBB149:
 542              	.LBB148:
 543              	.LBB147:
 544              	.LBB145:
 545              	.LBI145:
 546              		.loc 6 491 27 view .LVU156
 547              	.LBB146:
 548              		.loc 6 493 3 view .LVU157
 549 00fc 0023     		movs	r3, #0
 550              		.syntax unified
 551              	@ 493 "../../../external/ChibiOS/os/common/ext/ARM/CMSIS/Core/Include/cmsis_gcc.h" 1
 552 00fe 83F31188 		MSR basepri, r3
 553              	@ 0 "" 2
 554              	.LVL28:
 555              		.loc 6 493 3 is_stmt 0 view .LVU158
 556              		.thumb
 557              		.syntax unified
 558              	.LBE146:
 559              	.LBE145:
 560              	.LBE147:
 561              	.LBE148:
 562              	.LBE149:
 563              		.loc 1 172 3 is_stmt 1 view .LVU159
 564              		.loc 1 173 1 is_stmt 0 view .LVU160
 565 0102 08BD     		pop	{r3, pc}
ARM GAS  /tmp/ccqkAsjn.s 			page 11


 566              		.cfi_endproc
 567              	.LFE326:
 568              		.size	chMBPostTimeout, .-chMBPostTimeout
 569              		.align	1
 570 0104 AFF30080 		.p2align 4,,15
 570      AFF30080 
 570      AFF30080 
 571              		.global	chMBPostI
 572              		.syntax unified
 573              		.thumb
 574              		.thumb_func
 575              		.fpu fpv4-sp-d16
 576              		.type	chMBPostI, %function
 577              	chMBPostI:
 578              	.LVL29:
 579              	.LFB328:
 580              		.loc 1 243 44 is_stmt 1 view -0
 581              		.cfi_startproc
 582              		@ args = 0, pretend = 0, frame = 0
 583              		@ frame_needed = 0, uses_anonymous_args = 0
 584              		.loc 1 245 21 view .LVU162
 585              		.loc 1 246 3 view .LVU163
 586              		.loc 1 246 3 view .LVU164
 587              		.loc 1 249 3 view .LVU165
 588              		.loc 1 249 6 is_stmt 0 view .LVU166
 589 0110 037D     		ldrb	r3, [r0, #20]	@ zero_extendqisi2
 590 0112 EBB9     		cbnz	r3, .L24
 591              		.loc 1 254 3 is_stmt 1 view .LVU167
 592              	.LVL30:
 593              	.LBB150:
 594              	.LBI150:
 595              		.loc 7 167 22 view .LVU168
 596              	.LBB151:
 597              		.loc 7 169 21 view .LVU169
 598              		.loc 7 171 3 view .LVU170
 599              		.loc 7 171 30 is_stmt 0 view .LVU171
 600 0114 0269     		ldr	r2, [r0, #16]
 601              	.LBE151:
 602              	.LBE150:
 603              		.loc 1 243 44 view .LVU172
 604 0116 70B5     		push	{r4, r5, r6, lr}
 605              		.cfi_def_cfa_offset 16
 606              		.cfi_offset 4, -16
 607              		.cfi_offset 5, -12
 608              		.cfi_offset 6, -8
 609              		.cfi_offset 14, -4
 610              	.LBB158:
 611              	.LBB156:
 612              		.loc 7 171 10 view .LVU173
 613 0118 D0E90063 		ldrd	r6, r3, [r0]
 614              	.LBB152:
 615              	.LBI152:
 616              		.loc 7 136 22 is_stmt 1 view .LVU174
 617              	.LVL31:
 618              	.LBB153:
 619              		.loc 7 140 3 view .LVU175
 620              		.loc 7 140 3 is_stmt 0 view .LVU176
ARM GAS  /tmp/ccqkAsjn.s 			page 12


 621              	.LBE153:
 622              	.LBE152:
 623              	.LBE156:
 624              	.LBE158:
 625              		.loc 7 154 21 is_stmt 1 view .LVU177
 626              		.loc 7 156 3 view .LVU178
 627              	.LBB159:
 628              	.LBB157:
 629              	.LBB155:
 630              	.LBB154:
 631              		.loc 7 140 28 is_stmt 0 view .LVU179
 632 011c 9C1B     		subs	r4, r3, r6
 633              	.LBE154:
 634              	.LBE155:
 635              	.LBE157:
 636              	.LBE159:
 637              		.loc 1 254 6 view .LVU180
 638 011e B2EBA40F 		cmp	r2, r4, asr #2
 639 0122 12D0     		beq	.L25
 640              		.loc 1 255 5 is_stmt 1 view .LVU181
 641              		.loc 1 255 9 is_stmt 0 view .LVU182
 642 0124 8568     		ldr	r5, [r0, #8]
 643              		.loc 1 259 13 view .LVU183
 644 0126 0132     		adds	r2, r2, #1
 645              		.loc 1 255 16 view .LVU184
 646 0128 2C1D     		adds	r4, r5, #4
 647              		.loc 1 256 8 view .LVU185
 648 012a 9C42     		cmp	r4, r3
 649 012c 0346     		mov	r3, r0
 650              		.loc 1 255 16 view .LVU186
 651 012e 8460     		str	r4, [r0, #8]
 652              		.loc 1 262 5 view .LVU187
 653 0130 00F12000 		add	r0, r0, #32
 654              	.LVL32:
 655              		.loc 1 255 19 view .LVU188
 656 0134 2960     		str	r1, [r5]
 657              		.loc 1 256 5 is_stmt 1 view .LVU189
 658              		.loc 1 257 7 view .LVU190
 659              		.loc 1 259 5 view .LVU191
 660              		.loc 1 262 5 is_stmt 0 view .LVU192
 661 0136 4FF00001 		mov	r1, #0
 662              	.LVL33:
 663              		.loc 1 257 18 view .LVU193
 664 013a 28BF     		it	cs
 665 013c 40F8186C 		strcs	r6, [r0, #-24]
 666              		.loc 1 259 13 view .LVU194
 667 0140 1A61     		str	r2, [r3, #16]
 668              		.loc 1 262 5 is_stmt 1 view .LVU195
 669 0142 FFF7FEFF 		bl	chThdDequeueNextI
 670              	.LVL34:
 671              		.loc 1 264 5 view .LVU196
 672              		.loc 1 264 12 is_stmt 0 view .LVU197
 673 0146 0020     		movs	r0, #0
 674              		.loc 1 269 1 view .LVU198
 675 0148 70BD     		pop	{r4, r5, r6, pc}
 676              	.LVL35:
 677              	.L25:
ARM GAS  /tmp/ccqkAsjn.s 			page 13


 678              		.loc 1 268 10 view .LVU199
 679 014a 4FF0FF30 		mov	r0, #-1
 680              	.LVL36:
 681              		.loc 1 269 1 view .LVU200
 682 014e 70BD     		pop	{r4, r5, r6, pc}
 683              	.LVL37:
 684              	.L24:
 685              		.cfi_def_cfa_offset 0
 686              		.cfi_restore 4
 687              		.cfi_restore 5
 688              		.cfi_restore 6
 689              		.cfi_restore 14
 690              		.loc 1 250 12 view .LVU201
 691 0150 6FF00100 		mvn	r0, #1
 692              	.LVL38:
 693              		.loc 1 269 1 view .LVU202
 694 0154 7047     		bx	lr
 695              		.cfi_endproc
 696              	.LFE328:
 697              		.size	chMBPostI, .-chMBPostI
 698              		.align	1
 699 0156 00BFAFF3 		.p2align 4,,15
 699      0080AFF3 
 699      0080
 700              		.global	chMBPostAheadTimeoutS
 701              		.syntax unified
 702              		.thumb
 703              		.thumb_func
 704              		.fpu fpv4-sp-d16
 705              		.type	chMBPostAheadTimeoutS, %function
 706              	chMBPostAheadTimeoutS:
 707              	.LVL39:
 708              	.LFB330:
 709              		.loc 1 319 79 is_stmt 1 view -0
 710              		.cfi_startproc
 711              		@ args = 0, pretend = 0, frame = 0
 712              		@ frame_needed = 0, uses_anonymous_args = 0
 713              		.loc 1 320 3 view .LVU204
 714              		.loc 1 322 21 view .LVU205
 715              		.loc 1 323 3 view .LVU206
 716              		.loc 1 323 3 view .LVU207
 717              		.loc 1 319 79 is_stmt 0 view .LVU208
 718 0160 2DE9F041 		push	{r4, r5, r6, r7, r8, lr}
 719              		.cfi_def_cfa_offset 24
 720              		.cfi_offset 4, -24
 721              		.cfi_offset 5, -20
 722              		.cfi_offset 6, -16
 723              		.cfi_offset 7, -12
 724              		.cfi_offset 8, -8
 725              		.cfi_offset 14, -4
 726              		.loc 1 319 79 view .LVU209
 727 0164 0446     		mov	r4, r0
 728 0166 8846     		mov	r8, r1
 729 0168 1746     		mov	r7, r2
 730              		.loc 1 347 14 view .LVU210
 731 016a 00F11805 		add	r5, r0, #24
 732 016e 0AE0     		b	.L35
ARM GAS  /tmp/ccqkAsjn.s 			page 14


 733              	.LVL40:
 734              	.L42:
 735              	.LBB160:
 736              	.LBB161:
 737              		.loc 7 171 10 view .LVU211
 738 0170 D4E90026 		ldrd	r2, r6, [r4]
 739              	.LBB162:
 740              	.LBI162:
 741              		.loc 7 136 22 is_stmt 1 view .LVU212
 742              	.LVL41:
 743              	.LBB163:
 744              		.loc 7 140 3 view .LVU213
 745              	.LBE163:
 746              	.LBE162:
 747              		.loc 7 171 30 is_stmt 0 view .LVU214
 748 0174 2369     		ldr	r3, [r4, #16]
 749              	.LVL42:
 750              		.loc 7 171 30 view .LVU215
 751              	.LBE161:
 752              	.LBE160:
 753              		.loc 7 154 21 is_stmt 1 view .LVU216
 754              		.loc 7 156 3 view .LVU217
 755              	.LBB168:
 756              	.LBB166:
 757              	.LBB165:
 758              	.LBB164:
 759              		.loc 7 140 28 is_stmt 0 view .LVU218
 760 0176 A6EB020E 		sub	lr, r6, r2
 761              	.LBE164:
 762              	.LBE165:
 763              	.LBE166:
 764              	.LBE168:
 765              		.loc 1 332 8 view .LVU219
 766 017a B3EBAE0F 		cmp	r3, lr, asr #2
 767 017e 0BD1     		bne	.L41
 768              		.loc 1 347 14 view .LVU220
 769 0180 FFF7FEFF 		bl	chThdEnqueueTimeoutS
 770              	.LVL43:
 771              		.loc 1 348 3 view .LVU221
 772 0184 30B9     		cbnz	r0, .L30
 773              	.LVL44:
 774              	.L35:
 775              		.loc 1 325 3 is_stmt 1 view .LVU222
 776              		.loc 1 327 5 view .LVU223
 777              		.loc 1 332 5 view .LVU224
 778              	.LBB169:
 779              	.LBI160:
 780              		.loc 7 167 22 view .LVU225
 781              	.LBB167:
 782              		.loc 7 169 21 view .LVU226
 783              		.loc 7 171 3 view .LVU227
 784              	.LBE167:
 785              	.LBE169:
 786              		.loc 1 347 5 view .LVU228
 787              		.loc 1 327 8 is_stmt 0 view .LVU229
 788 0186 237D     		ldrb	r3, [r4, #20]	@ zero_extendqisi2
 789              		.loc 1 347 14 view .LVU230
ARM GAS  /tmp/ccqkAsjn.s 			page 15


 790 0188 3946     		mov	r1, r7
 791 018a 2846     		mov	r0, r5
 792              		.loc 1 327 8 view .LVU231
 793 018c 002B     		cmp	r3, #0
 794 018e EFD0     		beq	.L42
 795              	.LVL45:
 796              		.loc 1 328 14 view .LVU232
 797 0190 6FF00100 		mvn	r0, #1
 798              	.LVL46:
 799              	.L30:
 800              		.loc 1 351 1 view .LVU233
 801 0194 BDE8F081 		pop	{r4, r5, r6, r7, r8, pc}
 802              	.LVL47:
 803              	.L41:
 804              		.loc 1 333 7 is_stmt 1 view .LVU234
 805              		.loc 1 333 11 is_stmt 0 view .LVU235
 806 0198 E168     		ldr	r1, [r4, #12]
 807              	.LVL48:
 808              		.loc 1 337 15 view .LVU236
 809 019a 0133     		adds	r3, r3, #1
 810              		.loc 1 340 7 view .LVU237
 811 019c 04F12000 		add	r0, r4, #32
 812              		.loc 1 333 11 view .LVU238
 813 01a0 0439     		subs	r1, r1, #4
 814              		.loc 1 333 10 view .LVU239
 815 01a2 9142     		cmp	r1, r2
 816              		.loc 1 334 9 is_stmt 1 view .LVU240
 817              		.loc 1 336 7 view .LVU241
 818              		.loc 1 334 31 is_stmt 0 view .LVU242
 819 01a4 38BF     		it	cc
 820 01a6 311F     		subcc	r1, r6, #4
 821              		.loc 1 334 20 view .LVU243
 822 01a8 E160     		str	r1, [r4, #12]
 823              		.loc 1 336 19 view .LVU244
 824 01aa C1F80080 		str	r8, [r1]
 825              		.loc 1 337 7 is_stmt 1 view .LVU245
 826              		.loc 1 340 7 is_stmt 0 view .LVU246
 827 01ae 0021     		movs	r1, #0
 828              		.loc 1 337 15 view .LVU247
 829 01b0 2361     		str	r3, [r4, #16]
 830              		.loc 1 340 7 is_stmt 1 view .LVU248
 831 01b2 FFF7FEFF 		bl	chThdDequeueNextI
 832              	.LVL49:
 833              		.loc 1 341 7 view .LVU249
 834 01b6 FFF7FEFF 		bl	chSchRescheduleS
 835              	.LVL50:
 836              		.loc 1 343 7 view .LVU250
 837              		.loc 1 343 14 is_stmt 0 view .LVU251
 838 01ba 0020     		movs	r0, #0
 839              		.loc 1 351 1 view .LVU252
 840 01bc BDE8F081 		pop	{r4, r5, r6, r7, r8, pc}
 841              		.loc 1 351 1 view .LVU253
 842              		.cfi_endproc
 843              	.LFE330:
 844              		.size	chMBPostAheadTimeoutS, .-chMBPostAheadTimeoutS
 845              		.align	1
 846              		.p2align 4,,15
ARM GAS  /tmp/ccqkAsjn.s 			page 16


 847              		.global	chMBPostAheadTimeout
 848              		.syntax unified
 849              		.thumb
 850              		.thumb_func
 851              		.fpu fpv4-sp-d16
 852              		.type	chMBPostAheadTimeout, %function
 853              	chMBPostAheadTimeout:
 854              	.LVL51:
 855              	.LFB329:
 856              		.loc 1 290 78 is_stmt 1 view -0
 857              		.cfi_startproc
 858              		@ args = 0, pretend = 0, frame = 0
 859              		@ frame_needed = 0, uses_anonymous_args = 0
 860              		.loc 1 291 3 view .LVU255
 861              		.loc 1 293 3 view .LVU256
 862              	.LBB170:
 863              	.LBI170:
 864              		.loc 4 353 20 view .LVU257
 865              	.LBE170:
 866              		.loc 4 355 3 view .LVU258
 867              	.LBB178:
 868              	.LBB171:
 869              	.LBI171:
 870              		.loc 5 669 27 view .LVU259
 871              	.LBE171:
 872              	.LBE178:
 873              		.loc 5 677 3 view .LVU260
 874              	.LBB179:
 875              	.LBB176:
 876              	.LBB172:
 877              	.LBI172:
 878              		.loc 6 491 27 view .LVU261
 879              	.LBB173:
 880              		.loc 6 493 3 view .LVU262
 881              	.LBE173:
 882              	.LBE172:
 883              	.LBE176:
 884              	.LBE179:
 885              		.loc 1 290 78 is_stmt 0 view .LVU263
 886 01c0 08B5     		push	{r3, lr}
 887              		.cfi_def_cfa_offset 8
 888              		.cfi_offset 3, -8
 889              		.cfi_offset 14, -4
 890              	.LBB180:
 891              	.LBB177:
 892              	.LBB175:
 893              	.LBB174:
 894              		.loc 6 493 3 view .LVU264
 895 01c2 2023     		movs	r3, #32
 896              		.syntax unified
 897              	@ 493 "../../../external/ChibiOS/os/common/ext/ARM/CMSIS/Core/Include/cmsis_gcc.h" 1
 898 01c4 83F31188 		MSR basepri, r3
 899              	@ 0 "" 2
 900              	.LVL52:
 901              		.loc 6 493 3 view .LVU265
 902              		.thumb
 903              		.syntax unified
ARM GAS  /tmp/ccqkAsjn.s 			page 17


 904              	.LBE174:
 905              	.LBE175:
 906              	.LBE177:
 907              	.LBE180:
 908              		.loc 4 356 34 is_stmt 1 view .LVU266
 909              		.loc 4 357 20 view .LVU267
 910              		.loc 1 294 3 view .LVU268
 911              		.loc 1 294 12 is_stmt 0 view .LVU269
 912 01c8 FFF7FEFF 		bl	chMBPostAheadTimeoutS
 913              	.LVL53:
 914              		.loc 1 295 3 is_stmt 1 view .LVU270
 915              	.LBB181:
 916              	.LBI181:
 917              		.loc 4 365 20 view .LVU271
 918              	.LBB182:
 919              		.loc 4 367 22 view .LVU272
 920              		.loc 4 368 33 view .LVU273
 921              		.loc 4 374 3 view .LVU274
 922              		.loc 4 374 3 view .LVU275
 923              		.loc 4 378 3 view .LVU276
 924              	.LBB183:
 925              	.LBI183:
 926              		.loc 5 693 27 view .LVU277
 927              	.LBE183:
 928              	.LBE182:
 929              	.LBE181:
 930              		.loc 5 696 3 view .LVU278
 931              	.LBB188:
 932              	.LBB187:
 933              	.LBB186:
 934              	.LBB184:
 935              	.LBI184:
 936              		.loc 6 491 27 view .LVU279
 937              	.LBB185:
 938              		.loc 6 493 3 view .LVU280
 939 01cc 0023     		movs	r3, #0
 940              		.syntax unified
 941              	@ 493 "../../../external/ChibiOS/os/common/ext/ARM/CMSIS/Core/Include/cmsis_gcc.h" 1
 942 01ce 83F31188 		MSR basepri, r3
 943              	@ 0 "" 2
 944              	.LVL54:
 945              		.loc 6 493 3 is_stmt 0 view .LVU281
 946              		.thumb
 947              		.syntax unified
 948              	.LBE185:
 949              	.LBE184:
 950              	.LBE186:
 951              	.LBE187:
 952              	.LBE188:
 953              		.loc 1 297 3 is_stmt 1 view .LVU282
 954              		.loc 1 298 1 is_stmt 0 view .LVU283
 955 01d2 08BD     		pop	{r3, pc}
 956              		.cfi_endproc
 957              	.LFE329:
 958              		.size	chMBPostAheadTimeout, .-chMBPostAheadTimeout
 959              		.align	1
 960 01d4 AFF30080 		.p2align 4,,15
ARM GAS  /tmp/ccqkAsjn.s 			page 18


 960      AFF30080 
 960      AFF30080 
 961              		.global	chMBPostAheadI
 962              		.syntax unified
 963              		.thumb
 964              		.thumb_func
 965              		.fpu fpv4-sp-d16
 966              		.type	chMBPostAheadI, %function
 967              	chMBPostAheadI:
 968              	.LVL55:
 969              	.LFB331:
 970              		.loc 1 368 49 is_stmt 1 view -0
 971              		.cfi_startproc
 972              		@ args = 0, pretend = 0, frame = 0
 973              		@ frame_needed = 0, uses_anonymous_args = 0
 974              		.loc 1 370 21 view .LVU285
 975              		.loc 1 371 3 view .LVU286
 976              		.loc 1 371 3 view .LVU287
 977              		.loc 1 374 3 view .LVU288
 978              		.loc 1 368 49 is_stmt 0 view .LVU289
 979 01e0 38B5     		push	{r3, r4, r5, lr}
 980              		.cfi_def_cfa_offset 16
 981              		.cfi_offset 3, -16
 982              		.cfi_offset 4, -12
 983              		.cfi_offset 5, -8
 984              		.cfi_offset 14, -4
 985              		.loc 1 374 6 view .LVU290
 986 01e2 037D     		ldrb	r3, [r0, #20]	@ zero_extendqisi2
 987 01e4 DBB9     		cbnz	r3, .L49
 988              		.loc 1 379 3 is_stmt 1 view .LVU291
 989              	.LVL56:
 990              	.LBB189:
 991              	.LBI189:
 992              		.loc 7 167 22 view .LVU292
 993              	.LBB190:
 994              		.loc 7 169 21 view .LVU293
 995              		.loc 7 171 3 view .LVU294
 996              		.loc 7 171 30 is_stmt 0 view .LVU295
 997 01e6 0469     		ldr	r4, [r0, #16]
 998              		.loc 7 171 10 view .LVU296
 999 01e8 D0E90035 		ldrd	r3, r5, [r0]
 1000              	.LBB191:
 1001              	.LBI191:
 1002              		.loc 7 136 22 is_stmt 1 view .LVU297
 1003              	.LVL57:
 1004              	.LBB192:
 1005              		.loc 7 140 3 view .LVU298
 1006              		.loc 7 140 3 is_stmt 0 view .LVU299
 1007              	.LBE192:
 1008              	.LBE191:
 1009              	.LBE190:
 1010              	.LBE189:
 1011              		.loc 7 154 21 is_stmt 1 view .LVU300
 1012              		.loc 7 156 3 view .LVU301
 1013              	.LBB196:
 1014              	.LBB195:
 1015              	.LBB194:
ARM GAS  /tmp/ccqkAsjn.s 			page 19


 1016              	.LBB193:
 1017              		.loc 7 140 28 is_stmt 0 view .LVU302
 1018 01ec EA1A     		subs	r2, r5, r3
 1019              	.LBE193:
 1020              	.LBE194:
 1021              	.LBE195:
 1022              	.LBE196:
 1023              		.loc 1 379 6 view .LVU303
 1024 01ee B4EBA20F 		cmp	r4, r2, asr #2
 1025 01f2 11D0     		beq	.L50
 1026              		.loc 1 380 5 is_stmt 1 view .LVU304
 1027              		.loc 1 380 9 is_stmt 0 view .LVU305
 1028 01f4 C268     		ldr	r2, [r0, #12]
 1029              		.loc 1 384 13 view .LVU306
 1030 01f6 0134     		adds	r4, r4, #1
 1031              		.loc 1 380 9 view .LVU307
 1032 01f8 043A     		subs	r2, r2, #4
 1033              		.loc 1 380 8 view .LVU308
 1034 01fa 9A42     		cmp	r2, r3
 1035              		.loc 1 381 7 is_stmt 1 view .LVU309
 1036              		.loc 1 383 5 view .LVU310
 1037 01fc 0346     		mov	r3, r0
 1038              		.loc 1 387 5 is_stmt 0 view .LVU311
 1039 01fe 00F12000 		add	r0, r0, #32
 1040              	.LVL58:
 1041              		.loc 1 381 29 view .LVU312
 1042 0202 38BF     		it	cc
 1043 0204 2A1F     		subcc	r2, r5, #4
 1044              		.loc 1 381 18 view .LVU313
 1045 0206 40F8142C 		str	r2, [r0, #-20]
 1046              		.loc 1 383 17 view .LVU314
 1047 020a 1160     		str	r1, [r2]
 1048              		.loc 1 384 5 is_stmt 1 view .LVU315
 1049              		.loc 1 387 5 is_stmt 0 view .LVU316
 1050 020c 0021     		movs	r1, #0
 1051              	.LVL59:
 1052              		.loc 1 384 13 view .LVU317
 1053 020e 1C61     		str	r4, [r3, #16]
 1054              		.loc 1 387 5 is_stmt 1 view .LVU318
 1055 0210 FFF7FEFF 		bl	chThdDequeueNextI
 1056              	.LVL60:
 1057              		.loc 1 389 5 view .LVU319
 1058              		.loc 1 389 12 is_stmt 0 view .LVU320
 1059 0214 0020     		movs	r0, #0
 1060              		.loc 1 394 1 view .LVU321
 1061 0216 38BD     		pop	{r3, r4, r5, pc}
 1062              	.LVL61:
 1063              	.L50:
 1064              		.loc 1 393 10 view .LVU322
 1065 0218 4FF0FF30 		mov	r0, #-1
 1066              	.LVL62:
 1067              		.loc 1 394 1 view .LVU323
 1068 021c 38BD     		pop	{r3, r4, r5, pc}
 1069              	.LVL63:
 1070              	.L49:
 1071              		.loc 1 375 12 view .LVU324
 1072 021e 6FF00100 		mvn	r0, #1
ARM GAS  /tmp/ccqkAsjn.s 			page 20


 1073              	.LVL64:
 1074              		.loc 1 394 1 view .LVU325
 1075 0222 38BD     		pop	{r3, r4, r5, pc}
 1076              		.cfi_endproc
 1077              	.LFE331:
 1078              		.size	chMBPostAheadI, .-chMBPostAheadI
 1079              		.align	1
 1080 0224 AFF30080 		.p2align 4,,15
 1080      AFF30080 
 1080      AFF30080 
 1081              		.global	chMBFetchTimeoutS
 1082              		.syntax unified
 1083              		.thumb
 1084              		.thumb_func
 1085              		.fpu fpv4-sp-d16
 1086              		.type	chMBFetchTimeoutS, %function
 1087              	chMBFetchTimeoutS:
 1088              	.LVL65:
 1089              	.LFB333:
 1090              		.loc 1 444 77 is_stmt 1 view -0
 1091              		.cfi_startproc
 1092              		@ args = 0, pretend = 0, frame = 0
 1093              		@ frame_needed = 0, uses_anonymous_args = 0
 1094              		.loc 1 445 3 view .LVU327
 1095              		.loc 1 447 21 view .LVU328
 1096              		.loc 1 448 3 view .LVU329
 1097              		.loc 1 448 3 view .LVU330
 1098              		.loc 1 444 77 is_stmt 0 view .LVU331
 1099 0230 F8B5     		push	{r3, r4, r5, r6, r7, lr}
 1100              		.cfi_def_cfa_offset 24
 1101              		.cfi_offset 3, -24
 1102              		.cfi_offset 4, -20
 1103              		.cfi_offset 5, -16
 1104              		.cfi_offset 6, -12
 1105              		.cfi_offset 7, -8
 1106              		.cfi_offset 14, -4
 1107              		.loc 1 444 77 view .LVU332
 1108 0232 0446     		mov	r4, r0
 1109 0234 0F46     		mov	r7, r1
 1110 0236 1646     		mov	r6, r2
 1111              		.loc 1 472 14 view .LVU333
 1112 0238 00F12005 		add	r5, r0, #32
 1113 023c 04E0     		b	.L57
 1114              	.LVL66:
 1115              	.L63:
 1116              		.loc 1 457 9 view .LVU334
 1117 023e 2369     		ldr	r3, [r4, #16]
 1118              	.LVL67:
 1119              		.loc 7 154 21 is_stmt 1 view .LVU335
 1120              		.loc 7 156 3 view .LVU336
 1121              		.loc 1 457 8 is_stmt 0 view .LVU337
 1122 0240 53B9     		cbnz	r3, .L62
 1123              		.loc 1 472 14 view .LVU338
 1124 0242 FFF7FEFF 		bl	chThdEnqueueTimeoutS
 1125              	.LVL68:
 1126              		.loc 1 473 3 view .LVU339
 1127 0246 30B9     		cbnz	r0, .L53
ARM GAS  /tmp/ccqkAsjn.s 			page 21


 1128              	.LVL69:
 1129              	.L57:
 1130              		.loc 1 450 3 is_stmt 1 view .LVU340
 1131              		.loc 1 452 5 view .LVU341
 1132              		.loc 1 457 5 view .LVU342
 1133              		.loc 1 472 5 view .LVU343
 1134              		.loc 1 452 8 is_stmt 0 view .LVU344
 1135 0248 237D     		ldrb	r3, [r4, #20]	@ zero_extendqisi2
 1136              		.loc 1 472 14 view .LVU345
 1137 024a 3146     		mov	r1, r6
 1138 024c 2846     		mov	r0, r5
 1139              		.loc 1 452 8 view .LVU346
 1140 024e 002B     		cmp	r3, #0
 1141 0250 F5D0     		beq	.L63
 1142              	.LVL70:
 1143              		.loc 1 453 14 view .LVU347
 1144 0252 6FF00100 		mvn	r0, #1
 1145              	.LVL71:
 1146              	.L53:
 1147              		.loc 1 476 1 view .LVU348
 1148 0256 F8BD     		pop	{r3, r4, r5, r6, r7, pc}
 1149              	.LVL72:
 1150              	.L62:
 1151              		.loc 1 458 7 is_stmt 1 view .LVU349
 1152              		.loc 1 458 19 is_stmt 0 view .LVU350
 1153 0258 E168     		ldr	r1, [r4, #12]
 1154              	.LVL73:
 1155              		.loc 1 459 10 view .LVU351
 1156 025a 6068     		ldr	r0, [r4, #4]
 1157              		.loc 1 458 26 view .LVU352
 1158 025c 0A1D     		adds	r2, r1, #4
 1159              		.loc 1 458 15 view .LVU353
 1160 025e 0968     		ldr	r1, [r1]
 1161              		.loc 1 459 10 view .LVU354
 1162 0260 8242     		cmp	r2, r0
 1163              		.loc 1 458 26 view .LVU355
 1164 0262 E260     		str	r2, [r4, #12]
 1165              		.loc 1 458 13 view .LVU356
 1166 0264 3960     		str	r1, [r7]
 1167              		.loc 1 459 7 is_stmt 1 view .LVU357
 1168              		.loc 1 459 10 is_stmt 0 view .LVU358
 1169 0266 01D3     		bcc	.L56
 1170              		.loc 1 460 9 is_stmt 1 view .LVU359
 1171              		.loc 1 460 20 is_stmt 0 view .LVU360
 1172 0268 2268     		ldr	r2, [r4]
 1173 026a E260     		str	r2, [r4, #12]
 1174              	.L56:
 1175              		.loc 1 462 7 is_stmt 1 view .LVU361
 1176              		.loc 1 462 15 is_stmt 0 view .LVU362
 1177 026c 013B     		subs	r3, r3, #1
 1178              		.loc 1 465 7 view .LVU363
 1179 026e 04F11800 		add	r0, r4, #24
 1180 0272 0021     		movs	r1, #0
 1181              		.loc 1 462 15 view .LVU364
 1182 0274 2361     		str	r3, [r4, #16]
 1183              		.loc 1 465 7 is_stmt 1 view .LVU365
 1184 0276 FFF7FEFF 		bl	chThdDequeueNextI
ARM GAS  /tmp/ccqkAsjn.s 			page 22


 1185              	.LVL74:
 1186              		.loc 1 466 7 view .LVU366
 1187 027a FFF7FEFF 		bl	chSchRescheduleS
 1188              	.LVL75:
 1189              		.loc 1 468 7 view .LVU367
 1190              		.loc 1 468 14 is_stmt 0 view .LVU368
 1191 027e 0020     		movs	r0, #0
 1192              		.loc 1 476 1 view .LVU369
 1193 0280 F8BD     		pop	{r3, r4, r5, r6, r7, pc}
 1194              		.loc 1 476 1 view .LVU370
 1195              		.cfi_endproc
 1196              	.LFE333:
 1197              		.size	chMBFetchTimeoutS, .-chMBFetchTimeoutS
 1198              		.align	1
 1199 0282 00BFAFF3 		.p2align 4,,15
 1199      0080AFF3 
 1199      0080AFF3 
 1199      0080
 1200              		.global	chMBFetchTimeout
 1201              		.syntax unified
 1202              		.thumb
 1203              		.thumb_func
 1204              		.fpu fpv4-sp-d16
 1205              		.type	chMBFetchTimeout, %function
 1206              	chMBFetchTimeout:
 1207              	.LVL76:
 1208              	.LFB332:
 1209              		.loc 1 415 76 is_stmt 1 view -0
 1210              		.cfi_startproc
 1211              		@ args = 0, pretend = 0, frame = 0
 1212              		@ frame_needed = 0, uses_anonymous_args = 0
 1213              		.loc 1 416 3 view .LVU372
 1214              		.loc 1 418 3 view .LVU373
 1215              	.LBB197:
 1216              	.LBI197:
 1217              		.loc 4 353 20 view .LVU374
 1218              	.LBE197:
 1219              		.loc 4 355 3 view .LVU375
 1220              	.LBB205:
 1221              	.LBB198:
 1222              	.LBI198:
 1223              		.loc 5 669 27 view .LVU376
 1224              	.LBE198:
 1225              	.LBE205:
 1226              		.loc 5 677 3 view .LVU377
 1227              	.LBB206:
 1228              	.LBB203:
 1229              	.LBB199:
 1230              	.LBI199:
 1231              		.loc 6 491 27 view .LVU378
 1232              	.LBB200:
 1233              		.loc 6 493 3 view .LVU379
 1234              	.LBE200:
 1235              	.LBE199:
 1236              	.LBE203:
 1237              	.LBE206:
 1238              		.loc 1 415 76 is_stmt 0 view .LVU380
ARM GAS  /tmp/ccqkAsjn.s 			page 23


 1239 0290 08B5     		push	{r3, lr}
 1240              		.cfi_def_cfa_offset 8
 1241              		.cfi_offset 3, -8
 1242              		.cfi_offset 14, -4
 1243              	.LBB207:
 1244              	.LBB204:
 1245              	.LBB202:
 1246              	.LBB201:
 1247              		.loc 6 493 3 view .LVU381
 1248 0292 2023     		movs	r3, #32
 1249              		.syntax unified
 1250              	@ 493 "../../../external/ChibiOS/os/common/ext/ARM/CMSIS/Core/Include/cmsis_gcc.h" 1
 1251 0294 83F31188 		MSR basepri, r3
 1252              	@ 0 "" 2
 1253              	.LVL77:
 1254              		.loc 6 493 3 view .LVU382
 1255              		.thumb
 1256              		.syntax unified
 1257              	.LBE201:
 1258              	.LBE202:
 1259              	.LBE204:
 1260              	.LBE207:
 1261              		.loc 4 356 34 is_stmt 1 view .LVU383
 1262              		.loc 4 357 20 view .LVU384
 1263              		.loc 1 419 3 view .LVU385
 1264              		.loc 1 419 12 is_stmt 0 view .LVU386
 1265 0298 FFF7FEFF 		bl	chMBFetchTimeoutS
 1266              	.LVL78:
 1267              		.loc 1 420 3 is_stmt 1 view .LVU387
 1268              	.LBB208:
 1269              	.LBI208:
 1270              		.loc 4 365 20 view .LVU388
 1271              	.LBB209:
 1272              		.loc 4 367 22 view .LVU389
 1273              		.loc 4 368 33 view .LVU390
 1274              		.loc 4 374 3 view .LVU391
 1275              		.loc 4 374 3 view .LVU392
 1276              		.loc 4 378 3 view .LVU393
 1277              	.LBB210:
 1278              	.LBI210:
 1279              		.loc 5 693 27 view .LVU394
 1280              	.LBE210:
 1281              	.LBE209:
 1282              	.LBE208:
 1283              		.loc 5 696 3 view .LVU395
 1284              	.LBB215:
 1285              	.LBB214:
 1286              	.LBB213:
 1287              	.LBB211:
 1288              	.LBI211:
 1289              		.loc 6 491 27 view .LVU396
 1290              	.LBB212:
 1291              		.loc 6 493 3 view .LVU397
 1292 029c 0023     		movs	r3, #0
 1293              		.syntax unified
 1294              	@ 493 "../../../external/ChibiOS/os/common/ext/ARM/CMSIS/Core/Include/cmsis_gcc.h" 1
 1295 029e 83F31188 		MSR basepri, r3
ARM GAS  /tmp/ccqkAsjn.s 			page 24


 1296              	@ 0 "" 2
 1297              	.LVL79:
 1298              		.loc 6 493 3 is_stmt 0 view .LVU398
 1299              		.thumb
 1300              		.syntax unified
 1301              	.LBE212:
 1302              	.LBE211:
 1303              	.LBE213:
 1304              	.LBE214:
 1305              	.LBE215:
 1306              		.loc 1 422 3 is_stmt 1 view .LVU399
 1307              		.loc 1 423 1 is_stmt 0 view .LVU400
 1308 02a2 08BD     		pop	{r3, pc}
 1309              		.cfi_endproc
 1310              	.LFE332:
 1311              		.size	chMBFetchTimeout, .-chMBFetchTimeout
 1312              		.align	1
 1313 02a4 AFF30080 		.p2align 4,,15
 1313      AFF30080 
 1313      AFF30080 
 1314              		.global	chMBFetchI
 1315              		.syntax unified
 1316              		.thumb
 1317              		.thumb_func
 1318              		.fpu fpv4-sp-d16
 1319              		.type	chMBFetchI, %function
 1320              	chMBFetchI:
 1321              	.LVL80:
 1322              	.LFB334:
 1323              		.loc 1 493 47 is_stmt 1 view -0
 1324              		.cfi_startproc
 1325              		@ args = 0, pretend = 0, frame = 0
 1326              		@ frame_needed = 0, uses_anonymous_args = 0
 1327              		.loc 1 495 21 view .LVU402
 1328              		.loc 1 496 3 view .LVU403
 1329              		.loc 1 496 3 view .LVU404
 1330              		.loc 1 499 3 view .LVU405
 1331              		.loc 1 493 47 is_stmt 0 view .LVU406
 1332 02b0 38B5     		push	{r3, r4, r5, lr}
 1333              		.cfi_def_cfa_offset 16
 1334              		.cfi_offset 3, -16
 1335              		.cfi_offset 4, -12
 1336              		.cfi_offset 5, -8
 1337              		.cfi_offset 14, -4
 1338              		.loc 1 499 6 view .LVU407
 1339 02b2 037D     		ldrb	r3, [r0, #20]	@ zero_extendqisi2
 1340 02b4 BBB9     		cbnz	r3, .L69
 1341              		.loc 1 504 3 is_stmt 1 view .LVU408
 1342              		.loc 1 504 7 is_stmt 0 view .LVU409
 1343 02b6 0269     		ldr	r2, [r0, #16]
 1344              	.LVL81:
 1345              		.loc 7 154 21 is_stmt 1 view .LVU410
 1346              		.loc 7 156 3 view .LVU411
 1347              		.loc 1 504 6 is_stmt 0 view .LVU412
 1348 02b8 92B1     		cbz	r2, .L70
 1349              		.loc 1 505 5 is_stmt 1 view .LVU413
 1350              		.loc 1 505 17 is_stmt 0 view .LVU414
ARM GAS  /tmp/ccqkAsjn.s 			page 25


 1351 02ba C468     		ldr	r4, [r0, #12]
 1352              		.loc 1 506 8 view .LVU415
 1353 02bc 4568     		ldr	r5, [r0, #4]
 1354              		.loc 1 505 24 view .LVU416
 1355 02be 231D     		adds	r3, r4, #4
 1356              		.loc 1 505 13 view .LVU417
 1357 02c0 2468     		ldr	r4, [r4]
 1358              		.loc 1 506 8 view .LVU418
 1359 02c2 AB42     		cmp	r3, r5
 1360              		.loc 1 505 24 view .LVU419
 1361 02c4 C360     		str	r3, [r0, #12]
 1362              		.loc 1 505 11 view .LVU420
 1363 02c6 0C60     		str	r4, [r1]
 1364              		.loc 1 506 5 is_stmt 1 view .LVU421
 1365              		.loc 1 506 8 is_stmt 0 view .LVU422
 1366 02c8 01D3     		bcc	.L68
 1367              		.loc 1 507 7 is_stmt 1 view .LVU423
 1368              		.loc 1 507 18 is_stmt 0 view .LVU424
 1369 02ca 0368     		ldr	r3, [r0]
 1370 02cc C360     		str	r3, [r0, #12]
 1371              	.L68:
 1372              		.loc 1 509 5 is_stmt 1 view .LVU425
 1373 02ce 0346     		mov	r3, r0
 1374              		.loc 1 509 13 is_stmt 0 view .LVU426
 1375 02d0 013A     		subs	r2, r2, #1
 1376              		.loc 1 512 5 view .LVU427
 1377 02d2 1830     		adds	r0, r0, #24
 1378              	.LVL82:
 1379              		.loc 1 512 5 view .LVU428
 1380 02d4 0021     		movs	r1, #0
 1381              	.LVL83:
 1382              		.loc 1 509 13 view .LVU429
 1383 02d6 1A61     		str	r2, [r3, #16]
 1384              		.loc 1 512 5 is_stmt 1 view .LVU430
 1385 02d8 FFF7FEFF 		bl	chThdDequeueNextI
 1386              	.LVL84:
 1387              		.loc 1 514 5 view .LVU431
 1388              		.loc 1 514 12 is_stmt 0 view .LVU432
 1389 02dc 0020     		movs	r0, #0
 1390              		.loc 1 519 1 view .LVU433
 1391 02de 38BD     		pop	{r3, r4, r5, pc}
 1392              	.LVL85:
 1393              	.L70:
 1394              		.loc 1 518 10 view .LVU434
 1395 02e0 4FF0FF30 		mov	r0, #-1
 1396              	.LVL86:
 1397              		.loc 1 519 1 view .LVU435
 1398 02e4 38BD     		pop	{r3, r4, r5, pc}
 1399              	.LVL87:
 1400              	.L69:
 1401              		.loc 1 500 12 view .LVU436
 1402 02e6 6FF00100 		mvn	r0, #1
 1403              	.LVL88:
 1404              		.loc 1 519 1 view .LVU437
 1405 02ea 38BD     		pop	{r3, r4, r5, pc}
 1406              		.cfi_endproc
 1407              	.LFE334:
ARM GAS  /tmp/ccqkAsjn.s 			page 26


 1408              		.size	chMBFetchI, .-chMBFetchI
 1409              	.Letext0:
 1410              		.file 8 "/home/nicolas/arm/gcc-arm-none-eabi-8-2019-q3-update/lib/gcc/arm-none-eabi/8.3.1/include/
 1411              		.file 9 "/home/nicolas/arm/gcc-arm-none-eabi-8-2019-q3-update/arm-none-eabi/include/machine/_defau
 1412              		.file 10 "/home/nicolas/arm/gcc-arm-none-eabi-8-2019-q3-update/arm-none-eabi/include/sys/_stdint.h
 1413              		.file 11 "../../../external/ChibiOS/os/common/ports/ARMCMx/compilers/GCC/chtypes.h"
 1414              		.file 12 "../../../external/ChibiOS/os/rt/include/chsystypes.h"
 1415              		.file 13 "../../../external/ChibiOS/os/rt/include/chtime.h"
 1416              		.file 14 "../../../external/ChibiOS/os/common/ext/ARM/CMSIS/Core/Include/core_cm7.h"
 1417              		.file 15 "../../../external/ChibiOS/os/common/ext/ST/STM32H7xx/system_stm32h7xx.h"
 1418              		.file 16 "../../../external/ChibiOS/os/common/ports/ARMCMx/chcore.h"
 1419              		.file 17 "../../../external/ChibiOS/os/rt/include/chtrace.h"
 1420              		.file 18 "../../../external/ChibiOS/os/rt/include/chtm.h"
 1421              		.file 19 "../../../external/ChibiOS/os/rt/include/chsem.h"
 1422              		.file 20 "../../../external/ChibiOS/os/rt/include/chmtx.h"
 1423              		.file 21 "../../../external/ChibiOS/os/rt/include/chregistry.h"
 1424              		.file 22 "../../../external/ChibiOS/os/oslib/include/chmemcore.h"
 1425              		.file 23 "../../../external/ChibiOS/os/oslib/include/chmempools.h"
 1426              		.file 24 "../../../external/ChibiOS/os/oslib/include/chfactory.h"