ARM GAS  /tmp/cchO9Z19.s 			page 1


   1              		.cpu cortex-m7
   2              		.eabi_attribute 27, 1
   3              		.eabi_attribute 28, 1
   4              		.eabi_attribute 20, 1
   5              		.eabi_attribute 21, 1
   6              		.eabi_attribute 23, 3
   7              		.eabi_attribute 24, 1
   8              		.eabi_attribute 25, 1
   9              		.eabi_attribute 26, 1
  10              		.eabi_attribute 30, 2
  11              		.eabi_attribute 34, 1
  12              		.eabi_attribute 18, 4
  13              		.file	"chmemheaps.c"
  14              		.text
  15              	.Ltext0:
  16              		.cfi_sections	.debug_frame
  17              		.align	1
  18              		.p2align 4,,15
  19              		.global	_heap_init
  20              		.arch armv7e-m
  21              		.syntax unified
  22              		.thumb
  23              		.thumb_func
  24              		.fpu fpv4-sp-d16
  25              		.type	_heap_init, %function
  26              	_heap_init:
  27              	.LFB323:
  28              		.file 1 "../../../external/ChibiOS/os/oslib/src/chmemheaps.c"
  29              		.loc 1 107 23 view -0
  30              		.cfi_startproc
  31              		@ args = 0, pretend = 0, frame = 0
  32              		@ frame_needed = 0, uses_anonymous_args = 0
  33              		@ link register save eliminated.
  34              		.loc 1 109 3 view .LVU1
  35              		.loc 1 109 25 is_stmt 0 view .LVU2
  36 0000 044B     		ldr	r3, .L3
  37              		.loc 1 110 32 view .LVU3
  38 0002 0022     		movs	r2, #0
  39              		.loc 1 109 25 view .LVU4
  40 0004 0449     		ldr	r1, .L3+4
  41              		.loc 1 113 3 view .LVU5
  42 0006 03F10C00 		add	r0, r3, #12
  43              		.loc 1 111 33 view .LVU6
  44 000a 9A60     		str	r2, [r3, #8]
  45              		.loc 1 109 25 view .LVU7
  46 000c C3E90012 		strd	r1, r2, [r3]
  47              		.loc 1 110 3 is_stmt 1 view .LVU8
  48              		.loc 1 111 3 view .LVU9
  49              		.loc 1 113 3 view .LVU10
  50 0010 FFF7FEBF 		b	chMtxObjectInit
  51              	.LVL0:
  52              	.L4:
  53              		.align	2
  54              	.L3:
  55 0014 00000000 		.word	.LANCHOR0
  56 0018 00000000 		.word	chCoreAllocFromTop
  57              		.cfi_endproc
ARM GAS  /tmp/cchO9Z19.s 			page 2


  58              	.LFE323:
  59              		.size	_heap_init, .-_heap_init
  60              		.align	1
  61 001c AFF30080 		.p2align 4,,15
  62              		.global	chHeapObjectInit
  63              		.syntax unified
  64              		.thumb
  65              		.thumb_func
  66              		.fpu fpv4-sp-d16
  67              		.type	chHeapObjectInit, %function
  68              	chHeapObjectInit:
  69              	.LVL1:
  70              	.LFB324:
  71              		.loc 1 131 69 view -0
  72              		.cfi_startproc
  73              		@ args = 0, pretend = 0, frame = 0
  74              		@ frame_needed = 0, uses_anonymous_args = 0
  75              		@ link register save eliminated.
  76              		.loc 1 132 3 view .LVU12
  77              		.loc 1 132 40 is_stmt 0 view .LVU13
  78 0020 CB1D     		adds	r3, r1, #7
  79              		.loc 1 147 23 view .LVU14
  80 0022 083A     		subs	r2, r2, #8
  81              	.LVL2:
  82              		.loc 1 132 40 view .LVU15
  83 0024 23F00703 		bic	r3, r3, #7
  84              	.LVL3:
  85              		.loc 1 134 3 is_stmt 1 view .LVU16
  86              		.loc 1 134 3 view .LVU17
  87              		.loc 1 139 3 view .LVU18
  88              		.loc 1 143 3 view .LVU19
  89              		.loc 1 144 3 view .LVU20
  90              		.loc 1 139 34 is_stmt 0 view .LVU21
  91 0028 591A     		subs	r1, r3, r1
  92              	.LVL4:
  93              		.loc 1 147 23 view .LVU22
  94 002a 521A     		subs	r2, r2, r1
  95              	.LVL5:
  96              		.loc 1 131 69 view .LVU23
  97 002c 30B4     		push	{r4, r5}
  98              		.cfi_def_cfa_offset 8
  99              		.cfi_offset 4, -8
 100              		.cfi_offset 5, -4
 101              		.loc 1 147 49 view .LVU24
 102 002e D208     		lsrs	r2, r2, #3
 103              		.loc 1 131 69 view .LVU25
 104 0030 0446     		mov	r4, r0
 105              		.loc 1 143 19 view .LVU26
 106 0032 0025     		movs	r5, #0
 107              		.loc 1 149 3 view .LVU27
 108 0034 0C30     		adds	r0, r0, #12
 109              	.LVL6:
 110              		.loc 1 143 19 view .LVU28
 111 0036 40F80C5C 		str	r5, [r0, #-12]
 112              		.loc 1 145 27 view .LVU29
 113 003a A560     		str	r5, [r4, #8]
 114              		.loc 1 144 26 view .LVU30
ARM GAS  /tmp/cchO9Z19.s 			page 3


 115 003c 6360     		str	r3, [r4, #4]
 116              		.loc 1 145 3 is_stmt 1 view .LVU31
 117              		.loc 1 146 3 view .LVU32
 118              		.loc 1 146 14 is_stmt 0 view .LVU33
 119 003e 1D60     		str	r5, [r3]
 120              		.loc 1 147 3 is_stmt 1 view .LVU34
 121              		.loc 1 147 15 is_stmt 0 view .LVU35
 122 0040 5A60     		str	r2, [r3, #4]
 123              		.loc 1 149 3 is_stmt 1 view .LVU36
 124              		.loc 1 153 1 is_stmt 0 view .LVU37
 125 0042 30BC     		pop	{r4, r5}
 126              		.cfi_restore 5
 127              		.cfi_restore 4
 128              		.cfi_def_cfa_offset 0
 129              	.LVL7:
 130              		.loc 1 149 3 view .LVU38
 131 0044 FFF7FEBF 		b	chMtxObjectInit
 132              	.LVL8:
 133              		.loc 1 149 3 view .LVU39
 134              		.cfi_endproc
 135              	.LFE324:
 136              		.size	chHeapObjectInit, .-chHeapObjectInit
 137              		.align	1
 138 0048 AFF30080 		.p2align 4,,15
 138      AFF30080 
 139              		.global	chHeapAllocAligned
 140              		.syntax unified
 141              		.thumb
 142              		.thumb_func
 143              		.fpu fpv4-sp-d16
 144              		.type	chHeapAllocAligned, %function
 145              	chHeapAllocAligned:
 146              	.LVL9:
 147              	.LFB325:
 148              		.loc 1 172 77 is_stmt 1 view -0
 149              		.cfi_startproc
 150              		@ args = 0, pretend = 0, frame = 0
 151              		@ frame_needed = 0, uses_anonymous_args = 0
 152              		.loc 1 173 3 view .LVU41
 153              		.loc 1 174 3 view .LVU42
 154              		.loc 1 176 3 view .LVU43
 155              		.loc 1 176 3 view .LVU44
 156              		.loc 1 179 3 view .LVU45
 157              		.loc 1 172 77 is_stmt 0 view .LVU46
 158 0050 2DE9F84F 		push	{r3, r4, r5, r6, r7, r8, r9, r10, fp, lr}
 159              		.cfi_def_cfa_offset 40
 160              		.cfi_offset 3, -40
 161              		.cfi_offset 4, -36
 162              		.cfi_offset 5, -32
 163              		.cfi_offset 6, -28
 164              		.cfi_offset 7, -24
 165              		.cfi_offset 8, -20
 166              		.cfi_offset 9, -16
 167              		.cfi_offset 10, -12
 168              		.cfi_offset 11, -8
 169              		.cfi_offset 14, -4
 170 0054 082A     		cmp	r2, #8
ARM GAS  /tmp/cchO9Z19.s 			page 4


 171              		.loc 1 180 11 view .LVU47
 172 0056 3C4E     		ldr	r6, .L25
 173              		.loc 1 189 11 view .LVU48
 174 0058 01F10708 		add	r8, r1, #7
 175              		.loc 1 172 77 view .LVU49
 176 005c 0F46     		mov	r7, r1
 177 005e 38BF     		it	cc
 178 0060 0822     		movcc	r2, #8
 179              	.LVL10:
 180              		.loc 1 180 11 view .LVU50
 181 0062 0028     		cmp	r0, #0
 182 0064 18BF     		it	ne
 183 0066 0646     		movne	r6, r0
 184              	.LVL11:
 185              		.loc 1 184 3 is_stmt 1 view .LVU51
 186              		.loc 1 189 9 is_stmt 0 view .LVU52
 187 0068 4FEAD808 		lsr	r8, r8, #3
 188              		.loc 1 192 3 view .LVU53
 189 006c 06F10C0A 		add	r10, r6, #12
 190 0070 9146     		mov	r9, r2
 191              	.LVL12:
 192              		.loc 1 189 3 is_stmt 1 view .LVU54
 193              		.loc 1 192 3 view .LVU55
 194              		.loc 1 195 6 is_stmt 0 view .LVU56
 195 0072 351D     		adds	r5, r6, #4
 196              		.loc 1 192 3 view .LVU57
 197 0074 5046     		mov	r0, r10
 198 0076 FFF7FEFF 		bl	chMtxLock
 199              	.LVL13:
 200              		.loc 1 195 3 is_stmt 1 view .LVU58
 201              		.loc 1 196 3 view .LVU59
 202              		.loc 1 199 5 view .LVU60
 203              		.loc 1 202 28 is_stmt 0 view .LVU61
 204 007a 09F10701 		add	r1, r9, #7
 205              		.loc 1 196 10 view .LVU62
 206 007e 2868     		ldr	r0, [r5]
 207              	.LVL14:
 208              		.loc 1 202 5 is_stmt 1 view .LVU63
 209              		.loc 1 202 28 is_stmt 0 view .LVU64
 210 0080 C9F1000C 		rsb	ip, r9, #0
 211 0084 4318     		adds	r3, r0, r1
 212              		.loc 1 196 9 view .LVU65
 213 0086 A8B1     		cbz	r0, .L21
 214              	.L15:
 215              		.loc 1 204 16 view .LVU66
 216 0088 4268     		ldr	r2, [r0, #4]
 217              		.loc 1 202 28 view .LVU67
 218 008a 03EA0C03 		and	r3, r3, ip
 219              		.loc 1 204 16 view .LVU68
 220 008e 02F1010E 		add	lr, r2, #1
 221              		.loc 1 204 42 view .LVU69
 222 0092 1C46     		mov	r4, r3
 223              		.loc 1 202 63 view .LVU70
 224 0094 083B     		subs	r3, r3, #8
 225              	.LVL15:
 226              		.loc 1 204 5 is_stmt 1 view .LVU71
 227              		.loc 1 204 16 is_stmt 0 view .LVU72
ARM GAS  /tmp/cchO9Z19.s 			page 5


 228 0096 00EBCE0E 		add	lr, r0, lr, lsl #3
 229              		.loc 1 204 42 view .LVU73
 230 009a AEEB040B 		sub	fp, lr, r4
 231              		.loc 1 204 8 view .LVU74
 232 009e 9E45     		cmp	lr, r3
 233              		.loc 1 204 42 view .LVU75
 234 00a0 4FEAEB0B 		asr	fp, fp, #3
 235              		.loc 1 204 8 view .LVU76
 236 00a4 01D9     		bls	.L10
 237              		.loc 1 204 29 discriminator 1 view .LVU77
 238 00a6 C345     		cmp	fp, r8
 239 00a8 15D2     		bcs	.L22
 240              	.L10:
 241              	.LBB2:
 242              		.loc 1 243 22 view .LVU78
 243 00aa 0546     		mov	r5, r0
 244              	.LVL16:
 245              		.loc 1 243 22 view .LVU79
 246              	.LBE2:
 247              		.loc 1 199 5 is_stmt 1 view .LVU80
 248              		.loc 1 196 10 is_stmt 0 view .LVU81
 249 00ac 2868     		ldr	r0, [r5]
 250              	.LVL17:
 251              		.loc 1 202 5 is_stmt 1 view .LVU82
 252              		.loc 1 202 28 is_stmt 0 view .LVU83
 253 00ae 4318     		adds	r3, r0, r1
 254              	.LVL18:
 255              		.loc 1 196 9 view .LVU84
 256 00b0 0028     		cmp	r0, #0
 257 00b2 E9D1     		bne	.L15
 258              	.LVL19:
 259              	.L21:
 260              		.loc 1 264 3 is_stmt 1 view .LVU85
 261 00b4 5046     		mov	r0, r10
 262              	.LVL20:
 263              		.loc 1 264 3 is_stmt 0 view .LVU86
 264 00b6 FFF7FEFF 		bl	chMtxUnlock
 265              	.LVL21:
 266              		.loc 1 268 3 is_stmt 1 view .LVU87
 267              		.loc 1 268 12 is_stmt 0 view .LVU88
 268 00ba 3468     		ldr	r4, [r6]
 269              		.loc 1 268 6 view .LVU89
 270 00bc 44B1     		cbz	r4, .L7
 271              		.loc 1 269 5 is_stmt 1 view .LVU90
 272              		.loc 1 269 11 is_stmt 0 view .LVU91
 273 00be 4946     		mov	r1, r9
 274 00c0 4FEAC800 		lsl	r0, r8, #3
 275 00c4 0822     		movs	r2, #8
 276 00c6 A047     		blx	r4
 277              	.LVL22:
 278              		.loc 1 272 5 is_stmt 1 view .LVU92
 279              		.loc 1 272 8 is_stmt 0 view .LVU93
 280 00c8 0446     		mov	r4, r0
 281 00ca 08B1     		cbz	r0, .L7
 282              		.loc 1 273 7 is_stmt 1 view .LVU94
 283              	.LVL23:
 284              		.loc 1 274 7 view .LVU95
ARM GAS  /tmp/cchO9Z19.s 			page 6


 285              		.loc 1 275 18 is_stmt 0 view .LVU96
 286 00cc 40E90267 		strd	r6, r7, [r0, #-8]
 287              		.loc 1 278 7 is_stmt 1 view .LVU97
 288              	.LVL24:
 289              	.L7:
 290              		.loc 1 284 1 is_stmt 0 view .LVU98
 291 00d0 2046     		mov	r0, r4
 292 00d2 BDE8F88F 		pop	{r3, r4, r5, r6, r7, r8, r9, r10, fp, pc}
 293              	.LVL25:
 294              	.L22:
 295              		.loc 1 208 7 is_stmt 1 view .LVU99
 296              		.loc 1 208 10 is_stmt 0 view .LVU100
 297 00d6 9842     		cmp	r0, r3
 298 00d8 00F10801 		add	r1, r0, #8
 299 00dc 1AD3     		bcc	.L23
 300              		.loc 1 232 9 is_stmt 1 view .LVU101
 301              		.loc 1 232 12 is_stmt 0 view .LVU102
 302 00de 4245     		cmp	r2, r8
 303 00e0 D0F800C0 		ldr	ip, [r0]
 304 00e4 2AD0     		beq	.L24
 305              	.LBB3:
 306              		.loc 1 238 11 is_stmt 1 view .LVU103
 307              		.loc 1 240 11 view .LVU104
 308              		.loc 1 240 28 is_stmt 0 view .LVU105
 309 00e6 08F10108 		add	r8, r8, #1
 310              	.LVL26:
 311              		.loc 1 243 22 view .LVU106
 312 00ea 0C46     		mov	r4, r1
 313 00ec 0346     		mov	r3, r0
 314              	.LVL27:
 315              		.loc 1 240 14 view .LVU107
 316 00ee 00EBC801 		add	r1, r0, r8, lsl #3
 317              	.LVL28:
 318              		.loc 1 241 11 is_stmt 1 view .LVU108
 319              		.loc 1 241 22 is_stmt 0 view .LVU109
 320 00f2 40F838C0 		str	ip, [r0, r8, lsl #3]
 321              		.loc 1 242 11 is_stmt 1 view .LVU110
 322              		.loc 1 242 25 is_stmt 0 view .LVU111
 323 00f6 01F10802 		add	r2, r1, #8
 324 00fa AEEB0202 		sub	r2, lr, r2
 325 00fe D210     		asrs	r2, r2, #3
 326              		.loc 1 242 23 view .LVU112
 327 0100 4A60     		str	r2, [r1, #4]
 328              		.loc 1 243 11 is_stmt 1 view .LVU113
 329              		.loc 1 243 22 is_stmt 0 view .LVU114
 330 0102 2960     		str	r1, [r5]
 331              	.LVL29:
 332              	.L12:
 333              		.loc 1 243 22 view .LVU115
 334              	.LBE3:
 335              		.loc 1 248 7 is_stmt 1 view .LVU116
 336              		.loc 1 252 7 is_stmt 0 view .LVU117
 337 0104 5046     		mov	r0, r10
 338              		.loc 1 248 18 view .LVU118
 339 0106 5F60     		str	r7, [r3, #4]
 340              		.loc 1 249 7 is_stmt 1 view .LVU119
 341              		.loc 1 249 18 is_stmt 0 view .LVU120
ARM GAS  /tmp/cchO9Z19.s 			page 7


 342 0108 1E60     		str	r6, [r3]
 343              		.loc 1 252 7 is_stmt 1 view .LVU121
 344 010a FFF7FEFF 		bl	chMtxUnlock
 345              	.LVL30:
 346              		.loc 1 255 7 view .LVU122
 347              		.loc 1 284 1 is_stmt 0 view .LVU123
 348 010e 2046     		mov	r0, r4
 349 0110 BDE8F88F 		pop	{r3, r4, r5, r6, r7, r8, r9, r10, fp, pc}
 350              	.LVL31:
 351              	.L23:
 352              	.LBB4:
 353              		.loc 1 210 9 is_stmt 1 view .LVU124
 354              		.loc 1 212 9 view .LVU125
 355              		.loc 1 213 9 view .LVU126
 356              		.loc 1 213 23 is_stmt 0 view .LVU127
 357 0114 5A1A     		subs	r2, r3, r1
 358              		.loc 1 214 12 view .LVU128
 359 0116 C345     		cmp	fp, r8
 360              		.loc 1 213 23 view .LVU129
 361 0118 4FEAE202 		asr	r2, r2, #3
 362              		.loc 1 213 21 view .LVU130
 363 011c 4260     		str	r2, [r0, #4]
 364              		.loc 1 214 9 is_stmt 1 view .LVU131
 365              		.loc 1 214 12 is_stmt 0 view .LVU132
 366 011e F1D9     		bls	.L12
 367              	.LBB5:
 368              		.loc 1 216 11 is_stmt 1 view .LVU133
 369              		.loc 1 219 11 view .LVU134
 370              		.loc 1 219 29 is_stmt 0 view .LVU135
 371 0120 08F10105 		add	r5, r8, #1
 372              	.LVL32:
 373              		.loc 1 220 42 view .LVU136
 374 0124 6FEA0802 		mvn	r2, r8
 375              		.loc 1 223 24 view .LVU137
 376 0128 D0F800C0 		ldr	ip, [r0]
 377              		.loc 1 219 14 view .LVU138
 378 012c 03EBC501 		add	r1, r3, r5, lsl #3
 379              	.LVL33:
 380              		.loc 1 220 11 is_stmt 1 view .LVU139
 381              		.loc 1 220 42 is_stmt 0 view .LVU140
 382 0130 5A44     		add	r2, r2, fp
 383              		.loc 1 220 23 view .LVU141
 384 0132 4A60     		str	r2, [r1, #4]
 385              		.loc 1 223 11 is_stmt 1 view .LVU142
 386              		.loc 1 223 22 is_stmt 0 view .LVU143
 387 0134 43F835C0 		str	ip, [r3, r5, lsl #3]
 388              		.loc 1 224 11 is_stmt 1 view .LVU144
 389              		.loc 1 224 22 is_stmt 0 view .LVU145
 390 0138 0160     		str	r1, [r0]
 391 013a E3E7     		b	.L12
 392              	.LVL34:
 393              	.L24:
 394              		.loc 1 224 22 view .LVU146
 395              	.LBE5:
 396              	.LBE4:
 397              		.loc 1 234 11 is_stmt 1 view .LVU147
 398              		.loc 1 234 22 is_stmt 0 view .LVU148
ARM GAS  /tmp/cchO9Z19.s 			page 8


 399 013c C5F800C0 		str	ip, [r5]
 400 0140 0C46     		mov	r4, r1
 401 0142 0346     		mov	r3, r0
 402              	.LVL35:
 403              		.loc 1 234 22 view .LVU149
 404 0144 DEE7     		b	.L12
 405              	.L26:
 406 0146 00BF     		.align	2
 407              	.L25:
 408 0148 00000000 		.word	.LANCHOR0
 409              		.cfi_endproc
 410              	.LFE325:
 411              		.size	chHeapAllocAligned, .-chHeapAllocAligned
 412              		.align	1
 413 014c AFF30080 		.p2align 4,,15
 414              		.global	chHeapFree
 415              		.syntax unified
 416              		.thumb
 417              		.thumb_func
 418              		.fpu fpv4-sp-d16
 419              		.type	chHeapFree, %function
 420              	chHeapFree:
 421              	.LVL36:
 422              	.LFB326:
 423              		.loc 1 293 26 is_stmt 1 view -0
 424              		.cfi_startproc
 425              		@ args = 0, pretend = 0, frame = 0
 426              		@ frame_needed = 0, uses_anonymous_args = 0
 427              		.loc 1 294 3 view .LVU151
 428              		.loc 1 295 3 view .LVU152
 429              		.loc 1 297 3 view .LVU153
 430              		.loc 1 297 3 view .LVU154
 431              		.loc 1 300 3 view .LVU155
 432              		.loc 1 293 26 is_stmt 0 view .LVU156
 433 0150 F8B5     		push	{r3, r4, r5, r6, r7, lr}
 434              		.cfi_def_cfa_offset 24
 435              		.cfi_offset 3, -24
 436              		.cfi_offset 4, -20
 437              		.cfi_offset 5, -16
 438              		.cfi_offset 6, -12
 439              		.cfi_offset 7, -8
 440              		.cfi_offset 14, -4
 441              		.loc 1 306 17 view .LVU157
 442 0152 50F8043C 		ldr	r3, [r0, #-4]
 443              		.loc 1 293 26 view .LVU158
 444 0156 0646     		mov	r6, r0
 445              		.loc 1 302 9 view .LVU159
 446 0158 50F8085C 		ldr	r5, [r0, #-8]
 447              		.loc 1 300 6 view .LVU160
 448 015c A0F10804 		sub	r4, r0, #8
 449              	.LVL37:
 450              		.loc 1 302 3 is_stmt 1 view .LVU161
 451              		.loc 1 303 3 view .LVU162
 452              		.loc 1 306 17 is_stmt 0 view .LVU163
 453 0160 0733     		adds	r3, r3, #7
 454              		.loc 1 310 3 view .LVU164
 455 0162 05F10C07 		add	r7, r5, #12
ARM GAS  /tmp/cchO9Z19.s 			page 9


 456              		.loc 1 303 6 view .LVU165
 457 0166 0435     		adds	r5, r5, #4
 458              	.LVL38:
 459              		.loc 1 306 3 is_stmt 1 view .LVU166
 460              		.loc 1 307 51 is_stmt 0 view .LVU167
 461 0168 DB08     		lsrs	r3, r3, #3
 462              		.loc 1 310 3 view .LVU168
 463 016a 3846     		mov	r0, r7
 464              	.LVL39:
 465              		.loc 1 306 15 view .LVU169
 466 016c 46F8043C 		str	r3, [r6, #-4]
 467              		.loc 1 310 3 is_stmt 1 view .LVU170
 468 0170 FFF7FEFF 		bl	chMtxLock
 469              	.LVL40:
 470              		.loc 1 303 6 is_stmt 0 view .LVU171
 471 0174 2B46     		mov	r3, r5
 472              		.loc 1 312 3 is_stmt 1 view .LVU172
 473              		.loc 1 313 5 view .LVU173
 474              		.loc 1 313 5 view .LVU174
 475              		.loc 1 315 5 view .LVU175
 476              	.LVL41:
 477              		.loc 1 315 33 is_stmt 0 view .LVU176
 478 0176 9C42     		cmp	r4, r3
 479 0178 1A68     		ldr	r2, [r3]
 480 017a 05D8     		bhi	.L34
 481              	.L42:
 482              		.loc 1 315 33 view .LVU177
 483 017c AB42     		cmp	r3, r5
 484 017e 03D0     		beq	.L34
 485              	.L29:
 486              		.loc 1 293 26 view .LVU178
 487 0180 1346     		mov	r3, r2
 488              	.LVL42:
 489              		.loc 1 312 3 is_stmt 1 view .LVU179
 490              		.loc 1 313 5 view .LVU180
 491              		.loc 1 313 5 view .LVU181
 492              		.loc 1 315 5 view .LVU182
 493              		.loc 1 315 33 is_stmt 0 view .LVU183
 494 0182 9C42     		cmp	r4, r3
 495 0184 1A68     		ldr	r2, [r3]
 496 0186 F9D9     		bls	.L42
 497              	.L34:
 498              		.loc 1 315 47 discriminator 3 view .LVU184
 499 0188 0AB1     		cbz	r2, .L31
 500              		.loc 1 316 31 view .LVU185
 501 018a 9442     		cmp	r4, r2
 502 018c F8D2     		bcs	.L29
 503              	.L31:
 504              		.loc 1 318 7 is_stmt 1 view .LVU186
 505              		.loc 1 321 11 is_stmt 0 view .LVU187
 506 018e 56F8041C 		ldr	r1, [r6, #-4]
 507              		.loc 1 318 18 view .LVU188
 508 0192 46F8082C 		str	r2, [r6, #-8]
 509              		.loc 1 319 7 is_stmt 1 view .LVU189
 510              		.loc 1 321 11 is_stmt 0 view .LVU190
 511 0196 4A1C     		adds	r2, r1, #1
 512              		.loc 1 319 18 view .LVU191
ARM GAS  /tmp/cchO9Z19.s 			page 10


 513 0198 1C60     		str	r4, [r3]
 514              		.loc 1 321 7 is_stmt 1 view .LVU192
 515              		.loc 1 321 26 is_stmt 0 view .LVU193
 516 019a 56F8081C 		ldr	r1, [r6, #-8]
 517              		.loc 1 321 11 view .LVU194
 518 019e 04EBC200 		add	r0, r4, r2, lsl #3
 519              		.loc 1 321 10 view .LVU195
 520 01a2 8142     		cmp	r1, r0
 521 01a4 0AD0     		beq	.L43
 522              		.loc 1 326 7 is_stmt 1 view .LVU196
 523              		.loc 1 326 12 is_stmt 0 view .LVU197
 524 01a6 5968     		ldr	r1, [r3, #4]
 525 01a8 4A1C     		adds	r2, r1, #1
 526 01aa 03EBC202 		add	r2, r3, r2, lsl #3
 527              		.loc 1 326 10 view .LVU198
 528 01ae 9442     		cmp	r4, r2
 529 01b0 0FD0     		beq	.L44
 530              	.L33:
 531              		.loc 1 331 7 is_stmt 1 view .LVU199
 532              		.loc 1 337 3 view .LVU200
 533 01b2 3846     		mov	r0, r7
 534              		.loc 1 340 1 is_stmt 0 view .LVU201
 535 01b4 BDE8F840 		pop	{r3, r4, r5, r6, r7, lr}
 536              		.cfi_remember_state
 537              		.cfi_restore 14
 538              		.cfi_restore 7
 539              		.cfi_restore 6
 540              		.cfi_restore 5
 541              		.cfi_restore 4
 542              		.cfi_restore 3
 543              		.cfi_def_cfa_offset 0
 544              	.LVL43:
 545              		.loc 1 337 3 view .LVU202
 546 01b8 FFF7FEBF 		b	chMtxUnlock
 547              	.LVL44:
 548              	.L43:
 549              		.cfi_restore_state
 550              		.loc 1 323 9 is_stmt 1 view .LVU203
 551              		.loc 1 324 22 is_stmt 0 view .LVU204
 552 01bc D1E90010 		ldrd	r1, r0, [r1]
 553              		.loc 1 323 21 view .LVU205
 554 01c0 0244     		add	r2, r2, r0
 555 01c2 46E90212 		strd	r1, r2, [r6, #-8]
 556              		.loc 1 324 9 is_stmt 1 view .LVU206
 557              		.loc 1 326 7 view .LVU207
 558              		.loc 1 326 12 is_stmt 0 view .LVU208
 559 01c6 5968     		ldr	r1, [r3, #4]
 560 01c8 4A1C     		adds	r2, r1, #1
 561 01ca 03EBC202 		add	r2, r3, r2, lsl #3
 562              		.loc 1 326 10 view .LVU209
 563 01ce 9442     		cmp	r4, r2
 564 01d0 EFD1     		bne	.L33
 565              	.L44:
 566              		.loc 1 328 9 is_stmt 1 view .LVU210
 567              		.loc 1 329 22 is_stmt 0 view .LVU211
 568 01d2 56E90202 		ldrd	r0, r2, [r6, #-8]
 569              		.loc 1 328 21 view .LVU212
ARM GAS  /tmp/cchO9Z19.s 			page 11


 570 01d6 0132     		adds	r2, r2, #1
 571              		.loc 1 329 20 view .LVU213
 572 01d8 1860     		str	r0, [r3]
 573              		.loc 1 337 3 view .LVU214
 574 01da 3846     		mov	r0, r7
 575              		.loc 1 328 21 view .LVU215
 576 01dc 1144     		add	r1, r1, r2
 577 01de 5960     		str	r1, [r3, #4]
 578              		.loc 1 329 9 is_stmt 1 view .LVU216
 579              		.loc 1 331 7 view .LVU217
 580              		.loc 1 337 3 view .LVU218
 581              		.loc 1 340 1 is_stmt 0 view .LVU219
 582 01e0 BDE8F840 		pop	{r3, r4, r5, r6, r7, lr}
 583              		.cfi_restore 14
 584              		.cfi_restore 7
 585              		.cfi_restore 6
 586              		.cfi_restore 5
 587              		.cfi_restore 4
 588              		.cfi_restore 3
 589              		.cfi_def_cfa_offset 0
 590              	.LVL45:
 591              		.loc 1 337 3 view .LVU220
 592 01e4 FFF7FEBF 		b	chMtxUnlock
 593              	.LVL46:
 594              		.loc 1 337 3 view .LVU221
 595              		.cfi_endproc
 596              	.LFE326:
 597              		.size	chHeapFree, .-chHeapFree
 598              		.align	1
 599 01e8 AFF30080 		.p2align 4,,15
 599      AFF30080 
 600              		.global	chHeapStatus
 601              		.syntax unified
 602              		.thumb
 603              		.thumb_func
 604              		.fpu fpv4-sp-d16
 605              		.type	chHeapStatus, %function
 606              	chHeapStatus:
 607              	.LVL47:
 608              	.LFB327:
 609              		.loc 1 357 77 is_stmt 1 view -0
 610              		.cfi_startproc
 611              		@ args = 0, pretend = 0, frame = 0
 612              		@ frame_needed = 0, uses_anonymous_args = 0
 613              		.loc 1 358 3 view .LVU223
 614              		.loc 1 359 3 view .LVU224
 615              		.loc 1 361 3 view .LVU225
 616              		.loc 1 357 77 is_stmt 0 view .LVU226
 617 01f0 2DE9F843 		push	{r3, r4, r5, r6, r7, r8, r9, lr}
 618              		.cfi_def_cfa_offset 32
 619              		.cfi_offset 3, -32
 620              		.cfi_offset 4, -28
 621              		.cfi_offset 5, -24
 622              		.cfi_offset 6, -20
 623              		.cfi_offset 7, -16
 624              		.cfi_offset 8, -12
 625              		.cfi_offset 9, -8
ARM GAS  /tmp/cchO9Z19.s 			page 12


 626              		.cfi_offset 14, -4
 627              		.loc 1 362 11 view .LVU227
 628 01f4 154C     		ldr	r4, .L60
 629              		.loc 1 357 77 view .LVU228
 630 01f6 8846     		mov	r8, r1
 631 01f8 1746     		mov	r7, r2
 632              		.loc 1 362 11 view .LVU229
 633 01fa 0028     		cmp	r0, #0
 634 01fc 18BF     		it	ne
 635 01fe 0446     		movne	r4, r0
 636              	.LVL48:
 637              		.loc 1 365 3 is_stmt 1 view .LVU230
 638 0200 04F10C09 		add	r9, r4, #12
 639 0204 4846     		mov	r0, r9
 640 0206 FFF7FEFF 		bl	chMtxLock
 641              	.LVL49:
 642              		.loc 1 366 3 view .LVU231
 643              		.loc 1 367 3 view .LVU232
 644              		.loc 1 368 3 view .LVU233
 645              		.loc 1 369 3 view .LVU234
 646              		.loc 1 370 3 view .LVU235
 647              		.loc 1 370 10 is_stmt 0 view .LVU236
 648 020a 6368     		ldr	r3, [r4, #4]
 649              		.loc 1 370 9 view .LVU237
 650 020c D3B1     		cbz	r3, .L51
 651              		.loc 1 367 10 view .LVU238
 652 020e 0024     		movs	r4, #0
 653              	.LVL50:
 654              		.loc 1 366 10 view .LVU239
 655 0210 2546     		mov	r5, r4
 656              		.loc 1 368 5 view .LVU240
 657 0212 2646     		mov	r6, r4
 658              	.LVL51:
 659              	.L48:
 660              	.LBB6:
 661              		.loc 1 371 5 is_stmt 1 view .LVU241
 662              		.loc 1 371 12 is_stmt 0 view .LVU242
 663 0214 5868     		ldr	r0, [r3, #4]
 664              	.LVL52:
 665              		.loc 1 374 5 is_stmt 1 view .LVU243
 666              		.loc 1 374 6 is_stmt 0 view .LVU244
 667 0216 0136     		adds	r6, r6, #1
 668              	.LVL53:
 669              		.loc 1 375 5 is_stmt 1 view .LVU245
 670              	.LBE6:
 671              		.loc 1 370 10 is_stmt 0 view .LVU246
 672 0218 1B68     		ldr	r3, [r3]
 673 021a 8442     		cmp	r4, r0
 674              	.LBB7:
 675              		.loc 1 375 12 view .LVU247
 676 021c 0544     		add	r5, r5, r0
 677              	.LVL54:
 678              		.loc 1 376 5 is_stmt 1 view .LVU248
 679 021e 38BF     		it	cc
 680 0220 0446     		movcc	r4, r0
 681              	.LVL55:
 682              		.loc 1 376 5 is_stmt 0 view .LVU249
ARM GAS  /tmp/cchO9Z19.s 			page 13


 683              	.LBE7:
 684              		.loc 1 370 9 view .LVU250
 685 0222 002B     		cmp	r3, #0
 686 0224 F6D1     		bne	.L48
 687              	.LVL56:
 688              	.L47:
 689              		.loc 1 384 3 is_stmt 1 view .LVU251
 690              		.loc 1 384 6 is_stmt 0 view .LVU252
 691 0226 B8F1000F 		cmp	r8, #0
 692 022a 02D0     		beq	.L49
 693              		.loc 1 385 5 is_stmt 1 view .LVU253
 694              		.loc 1 385 22 is_stmt 0 view .LVU254
 695 022c ED00     		lsls	r5, r5, #3
 696              		.loc 1 385 13 view .LVU255
 697 022e C8F80050 		str	r5, [r8]
 698              	.L49:
 699              		.loc 1 389 3 is_stmt 1 view .LVU256
 700              		.loc 1 389 6 is_stmt 0 view .LVU257
 701 0232 0FB1     		cbz	r7, .L50
 702              		.loc 1 390 5 is_stmt 1 view .LVU258
 703              		.loc 1 390 24 is_stmt 0 view .LVU259
 704 0234 E400     		lsls	r4, r4, #3
 705              		.loc 1 390 15 view .LVU260
 706 0236 3C60     		str	r4, [r7]
 707              	.L50:
 708              		.loc 1 392 3 is_stmt 1 view .LVU261
 709 0238 4846     		mov	r0, r9
 710 023a FFF7FEFF 		bl	chMtxUnlock
 711              	.LVL57:
 712              		.loc 1 394 3 view .LVU262
 713              		.loc 1 395 1 is_stmt 0 view .LVU263
 714 023e 3046     		mov	r0, r6
 715 0240 BDE8F883 		pop	{r3, r4, r5, r6, r7, r8, r9, pc}
 716              	.LVL58:
 717              	.L51:
 718              		.loc 1 367 10 view .LVU264
 719 0244 1C46     		mov	r4, r3
 720              	.LVL59:
 721              		.loc 1 366 10 view .LVU265
 722 0246 1D46     		mov	r5, r3
 723              		.loc 1 368 5 view .LVU266
 724 0248 1E46     		mov	r6, r3
 725 024a ECE7     		b	.L47
 726              	.L61:
 727              		.align	2
 728              	.L60:
 729 024c 00000000 		.word	.LANCHOR0
 730              		.cfi_endproc
 731              	.LFE327:
 732              		.size	chHeapStatus, .-chHeapStatus
 733              		.bss
 734              		.align	2
 735              		.set	.LANCHOR0,. + 0
 736              		.type	default_heap, %object
 737              		.size	default_heap, 28
 738              	default_heap:
 739 0000 00000000 		.space	28
ARM GAS  /tmp/cchO9Z19.s 			page 14


 739      00000000 
 739      00000000 
 739      00000000 
 739      00000000 
 740              		.text
 741              	.Letext0:
 742              		.file 2 "/home/nicolas/arm/gcc-arm-none-eabi-8-2019-q3-update/lib/gcc/arm-none-eabi/8.3.1/include/
 743              		.file 3 "/home/nicolas/arm/gcc-arm-none-eabi-8-2019-q3-update/arm-none-eabi/include/machine/_defau
 744              		.file 4 "/home/nicolas/arm/gcc-arm-none-eabi-8-2019-q3-update/arm-none-eabi/include/sys/_stdint.h"
 745              		.file 5 "../../../external/ChibiOS/os/common/ports/ARMCMx/compilers/GCC/chtypes.h"
 746              		.file 6 "../../../external/ChibiOS/os/rt/include/chsystypes.h"
 747              		.file 7 "../../../external/ChibiOS/os/rt/include/chschd.h"
 748              		.file 8 "../../../external/ChibiOS/os/rt/include/chtime.h"
 749              		.file 9 "../../../external/ChibiOS/os/common/ext/ARM/CMSIS/Core/Include/core_cm7.h"
 750              		.file 10 "../../../external/ChibiOS/os/common/ext/ST/STM32H7xx/system_stm32h7xx.h"
 751              		.file 11 "../../../external/ChibiOS/os/common/ports/ARMCMx/chcore.h"
 752              		.file 12 "../../../external/ChibiOS/os/common/ports/ARMCMx/chcore_v7m.h"
 753              		.file 13 "../../../external/ChibiOS/os/rt/include/chtrace.h"
 754              		.file 14 "../../../external/ChibiOS/os/rt/include/chtm.h"
 755              		.file 15 "../../../external/ChibiOS/os/rt/include/chsem.h"
 756              		.file 16 "../../../external/ChibiOS/os/rt/include/chmtx.h"
 757              		.file 17 "../../../external/ChibiOS/os/rt/include/chsys.h"
 758              		.file 18 "../../../external/ChibiOS/os/rt/include/chregistry.h"
 759              		.file 19 "../../../external/ChibiOS/os/oslib/include/chmemcore.h"
 760              		.file 20 "../../../external/ChibiOS/os/oslib/include/chmemheaps.h"
 761              		.file 21 "../../../external/ChibiOS/os/oslib/include/chmempools.h"
 762              		.file 22 "../../../external/ChibiOS/os/oslib/include/chfactory.h"