ARM GAS  /tmp/cc3tB0hr.s 			page 1


   1              		.cpu cortex-m7
   2              		.eabi_attribute 27, 1
   3              		.eabi_attribute 28, 1
   4              		.eabi_attribute 20, 1
   5              		.eabi_attribute 21, 1
   6              		.eabi_attribute 23, 3
   7              		.eabi_attribute 24, 1
   8              		.eabi_attribute 25, 1
   9              		.eabi_attribute 26, 1
  10              		.eabi_attribute 30, 2
  11              		.eabi_attribute 34, 1
  12              		.eabi_attribute 18, 4
  13              		.file	"chmempools.c"
  14              		.text
  15              	.Ltext0:
  16              		.cfi_sections	.debug_frame
  17              		.align	1
  18              		.p2align 4,,15
  19              		.arch armv7e-m
  20              		.syntax unified
  21              		.thumb
  22              		.thumb_func
  23              		.fpu fpv4-sp-d16
  24              		.type	chPoolAllocI.part.0, %function
  25              	chPoolAllocI.part.0:
  26              	.LVL0:
  27              	.LFB334:
  28              		.file 1 "../../../external/ChibiOS/os/oslib/src/chmempools.c"
  29              		.loc 1 129 7 view -0
  30              		.cfi_startproc
  31              		@ args = 0, pretend = 0, frame = 0
  32              		@ frame_needed = 0, uses_anonymous_args = 0
  33              		@ link register save eliminated.
  34              		.loc 1 140 8 view .LVU1
  35              		.loc 1 140 14 is_stmt 0 view .LVU2
  36 0000 C368     		ldr	r3, [r0, #12]
  37              		.loc 1 140 11 view .LVU3
  38 0002 13B1     		cbz	r3, .L2
  39              		.loc 1 141 5 is_stmt 1 view .LVU4
  40              		.loc 1 141 12 is_stmt 0 view .LVU5
  41 0004 D0E90101 		ldrd	r0, r1, [r0, #4]
  42              	.LVL1:
  43              		.loc 1 141 12 view .LVU6
  44 0008 1847     		bx	r3
  45              	.LVL2:
  46              	.L2:
  47              		.loc 1 148 3 is_stmt 1 view .LVU7
  48              		.loc 1 149 1 is_stmt 0 view .LVU8
  49 000a 1846     		mov	r0, r3
  50              	.LVL3:
  51              		.loc 1 149 1 view .LVU9
  52 000c 7047     		bx	lr
  53              		.cfi_endproc
  54              	.LFE334:
  55              		.size	chPoolAllocI.part.0, .-chPoolAllocI.part.0
  56              		.align	1
  57 000e 00BF     		.p2align 4,,15
ARM GAS  /tmp/cc3tB0hr.s 			page 2


  58              		.global	chPoolObjectInitAligned
  59              		.syntax unified
  60              		.thumb
  61              		.thumb_func
  62              		.fpu fpv4-sp-d16
  63              		.type	chPoolObjectInitAligned, %function
  64              	chPoolObjectInitAligned:
  65              	.LVL4:
  66              	.LFB323:
  67              		.loc 1 78 69 is_stmt 1 view -0
  68              		.cfi_startproc
  69              		@ args = 0, pretend = 0, frame = 0
  70              		@ frame_needed = 0, uses_anonymous_args = 0
  71              		@ link register save eliminated.
  72              		.loc 1 80 3 view .LVU11
  73              		.loc 1 80 3 view .LVU12
  74              		.loc 1 85 3 view .LVU13
  75              		.loc 1 78 69 is_stmt 0 view .LVU14
  76 0010 10B4     		push	{r4}
  77              		.cfi_def_cfa_offset 4
  78              		.cfi_offset 4, -4
  79              		.loc 1 85 12 view .LVU15
  80 0012 0024     		movs	r4, #0
  81              		.loc 1 88 16 view .LVU16
  82 0014 C360     		str	r3, [r0, #12]
  83              		.loc 1 85 12 view .LVU17
  84 0016 0460     		str	r4, [r0]
  85              		.loc 1 86 3 is_stmt 1 view .LVU18
  86              		.loc 1 87 3 view .LVU19
  87              		.loc 1 88 3 view .LVU20
  88              		.loc 1 89 1 is_stmt 0 view .LVU21
  89 0018 5DF8044B 		ldr	r4, [sp], #4
  90              		.cfi_restore 4
  91              		.cfi_def_cfa_offset 0
  92              		.loc 1 87 13 view .LVU22
  93 001c C0E90112 		strd	r1, r2, [r0, #4]
  94              		.loc 1 89 1 view .LVU23
  95 0020 7047     		bx	lr
  96              		.cfi_endproc
  97              	.LFE323:
  98              		.size	chPoolObjectInitAligned, .-chPoolObjectInitAligned
  99              		.align	1
 100 0022 00BFAFF3 		.p2align 4,,15
 100      0080AFF3 
 100      0080AFF3 
 100      0080
 101              		.global	chPoolLoadArray
 102              		.syntax unified
 103              		.thumb
 104              		.thumb_func
 105              		.fpu fpv4-sp-d16
 106              		.type	chPoolLoadArray, %function
 107              	chPoolLoadArray:
 108              	.LVL5:
 109              	.LFB324:
 110              		.loc 1 106 60 is_stmt 1 view -0
 111              		.cfi_startproc
ARM GAS  /tmp/cc3tB0hr.s 			page 3


 112              		@ args = 0, pretend = 0, frame = 0
 113              		@ frame_needed = 0, uses_anonymous_args = 0
 114              		@ link register save eliminated.
 115              		.loc 1 108 3 view .LVU25
 116              		.loc 1 108 3 view .LVU26
 117              		.loc 1 110 3 view .LVU27
 118              		.loc 1 110 9 is_stmt 0 view .LVU28
 119 0030 7AB1     		cbz	r2, .L14
 120              		.loc 1 106 60 view .LVU29
 121 0032 30B4     		push	{r4, r5}
 122              		.cfi_def_cfa_offset 8
 123              		.cfi_offset 4, -8
 124              		.cfi_offset 5, -4
 125              	.LBB139:
 126              	.LBB140:
 127              	.LBB141:
 128              	.LBB142:
 129              	.LBB143:
 130              	.LBB144:
 131              		.file 2 "../../../external/ChibiOS/os/common/ext/ARM/CMSIS/Core/Include/cmsis_gcc.h"
 132              		.loc 2 493 3 view .LVU30
 133 0034 2025     		movs	r5, #32
 134              	.LBE144:
 135              	.LBE143:
 136              	.LBE142:
 137              	.LBE141:
 138              	.LBB149:
 139              	.LBB150:
 140              	.LBB151:
 141              	.LBB152:
 142              	.LBB153:
 143 0036 0024     		movs	r4, #0
 144              	.LVL6:
 145              	.L8:
 146              		.loc 2 493 3 view .LVU31
 147              	.LBE153:
 148              	.LBE152:
 149              	.LBE151:
 150              	.LBE150:
 151              	.LBE149:
 152              	.LBE140:
 153              	.LBE139:
 154              		.loc 1 111 5 is_stmt 1 view .LVU32
 155              	.LBB174:
 156              	.LBI139:
 157              		.file 3 "../../../external/ChibiOS/os/oslib/include/chmempools.h"
 158              		.loc 3 210 20 view .LVU33
 159              		.loc 3 210 20 is_stmt 0 view .LVU34
 160              	.LBE174:
 161              		.loc 3 212 3 is_stmt 1 view .LVU35
 162              	.LBB175:
 163              	.LBB167:
 164              	.LBI140:
 165              		.loc 1 207 6 view .LVU36
 166              	.LBE167:
 167              	.LBE175:
 168              		.loc 1 209 3 view .LVU37
ARM GAS  /tmp/cc3tB0hr.s 			page 4


 169              	.LBB176:
 170              	.LBB168:
 171              	.LBB160:
 172              	.LBI141:
 173              		.file 4 "../../../external/ChibiOS/os/rt/include/chsys.h"
 174              		.loc 4 353 20 view .LVU38
 175              	.LBE160:
 176              	.LBE168:
 177              	.LBE176:
 178              		.loc 4 355 3 view .LVU39
 179              	.LBB177:
 180              	.LBB169:
 181              	.LBB161:
 182              	.LBB147:
 183              	.LBI142:
 184              		.file 5 "../../../external/ChibiOS/os/common/ports/ARMCMx/chcore_v7m.h"
 185              		.loc 5 669 27 view .LVU40
 186              	.LBE147:
 187              	.LBE161:
 188              	.LBE169:
 189              	.LBE177:
 190              		.loc 5 677 3 view .LVU41
 191              	.LBB178:
 192              	.LBB170:
 193              	.LBB162:
 194              	.LBB148:
 195              	.LBB146:
 196              	.LBI143:
 197              		.loc 2 491 27 view .LVU42
 198              	.LBB145:
 199              		.loc 2 493 3 view .LVU43
 200              		.syntax unified
 201              	@ 493 "../../../external/ChibiOS/os/common/ext/ARM/CMSIS/Core/Include/cmsis_gcc.h" 1
 202 0038 85F31188 		MSR basepri, r5
 203              	@ 0 "" 2
 204              	.LVL7:
 205              		.loc 2 493 3 is_stmt 0 view .LVU44
 206              		.thumb
 207              		.syntax unified
 208              	.LBE145:
 209              	.LBE146:
 210              	.LBE148:
 211              	.LBE162:
 212              	.LBE170:
 213              	.LBE178:
 214              		.loc 4 356 34 is_stmt 1 view .LVU45
 215              		.loc 4 357 20 view .LVU46
 216              		.loc 1 210 3 view .LVU47
 217              	.LBB179:
 218              	.LBB171:
 219              	.LBB163:
 220              	.LBI163:
 221              		.loc 1 183 6 view .LVU48
 222              	.LBB164:
 223              		.loc 1 184 3 view .LVU49
 224              		.loc 1 186 21 view .LVU50
 225              		.loc 1 187 3 view .LVU51
ARM GAS  /tmp/cc3tB0hr.s 			page 5


 226              		.loc 1 187 3 view .LVU52
 227              		.loc 1 191 3 view .LVU53
 228              		.loc 1 191 17 is_stmt 0 view .LVU54
 229 003c 0368     		ldr	r3, [r0]
 230              		.loc 1 191 13 view .LVU55
 231 003e 0B60     		str	r3, [r1]
 232              		.loc 1 192 3 is_stmt 1 view .LVU56
 233              		.loc 1 192 12 is_stmt 0 view .LVU57
 234 0040 0160     		str	r1, [r0]
 235              	.LVL8:
 236              		.loc 1 192 12 view .LVU58
 237              	.LBE164:
 238              	.LBE163:
 239              	.LBE171:
 240              	.LBE179:
 241              		.loc 1 211 3 is_stmt 1 view .LVU59
 242              	.LBB180:
 243              	.LBB172:
 244              	.LBB165:
 245              	.LBI149:
 246              		.loc 4 365 20 view .LVU60
 247              	.LBB158:
 248              		.loc 4 367 22 view .LVU61
 249              		.loc 4 368 33 view .LVU62
 250              		.loc 4 374 3 view .LVU63
 251              		.loc 4 374 3 view .LVU64
 252              		.loc 4 378 3 view .LVU65
 253              	.LBB156:
 254              	.LBI151:
 255              		.loc 5 693 27 view .LVU66
 256              	.LBE156:
 257              	.LBE158:
 258              	.LBE165:
 259              	.LBE172:
 260              	.LBE180:
 261              		.loc 5 696 3 view .LVU67
 262              	.LBB181:
 263              	.LBB173:
 264              	.LBB166:
 265              	.LBB159:
 266              	.LBB157:
 267              	.LBB155:
 268              	.LBI152:
 269              		.loc 2 491 27 view .LVU68
 270              	.LBB154:
 271              		.loc 2 493 3 view .LVU69
 272              		.syntax unified
 273              	@ 493 "../../../external/ChibiOS/os/common/ext/ARM/CMSIS/Core/Include/cmsis_gcc.h" 1
 274 0042 84F31188 		MSR basepri, r4
 275              	@ 0 "" 2
 276              	.LVL9:
 277              		.loc 2 493 3 is_stmt 0 view .LVU70
 278              		.thumb
 279              		.syntax unified
 280              	.LBE154:
 281              	.LBE155:
 282              	.LBE157:
ARM GAS  /tmp/cc3tB0hr.s 			page 6


 283              	.LBE159:
 284              	.LBE166:
 285              	.LBE173:
 286              	.LBE181:
 287              		.loc 1 113 5 is_stmt 1 view .LVU71
 288              		.loc 1 113 7 is_stmt 0 view .LVU72
 289 0046 4368     		ldr	r3, [r0, #4]
 290              		.loc 1 110 9 view .LVU73
 291 0048 013A     		subs	r2, r2, #1
 292              	.LVL10:
 293              		.loc 1 113 7 view .LVU74
 294 004a 1944     		add	r1, r1, r3
 295              	.LVL11:
 296              		.loc 1 115 5 is_stmt 1 view .LVU75
 297              		.loc 1 110 9 is_stmt 0 view .LVU76
 298 004c F4D1     		bne	.L8
 299              		.loc 1 117 1 view .LVU77
 300 004e 30BC     		pop	{r4, r5}
 301              		.cfi_restore 5
 302              		.cfi_restore 4
 303              		.cfi_def_cfa_offset 0
 304 0050 7047     		bx	lr
 305              	.LVL12:
 306              	.L14:
 307              		.loc 1 117 1 view .LVU78
 308 0052 7047     		bx	lr
 309              		.cfi_endproc
 310              	.LFE324:
 311              		.size	chPoolLoadArray, .-chPoolLoadArray
 312              		.align	1
 313 0054 AFF30080 		.p2align 4,,15
 313      AFF30080 
 313      AFF30080 
 314              		.global	chPoolAllocI
 315              		.syntax unified
 316              		.thumb
 317              		.thumb_func
 318              		.fpu fpv4-sp-d16
 319              		.type	chPoolAllocI, %function
 320              	chPoolAllocI:
 321              	.LVL13:
 322              	.LFB325:
 323              		.loc 1 129 39 is_stmt 1 view -0
 324              		.cfi_startproc
 325              		@ args = 0, pretend = 0, frame = 0
 326              		@ frame_needed = 0, uses_anonymous_args = 0
 327              		@ link register save eliminated.
 328              		.loc 1 130 3 view .LVU80
 329              		.loc 1 132 21 view .LVU81
 330              		.loc 1 133 3 view .LVU82
 331              		.loc 1 133 3 view .LVU83
 332              		.loc 1 135 3 view .LVU84
 333              		.loc 1 135 8 is_stmt 0 view .LVU85
 334 0060 0368     		ldr	r3, [r0]
 335              	.LVL14:
 336              		.loc 1 137 3 is_stmt 1 view .LVU86
 337              		.loc 1 137 6 is_stmt 0 view .LVU87
ARM GAS  /tmp/cc3tB0hr.s 			page 7


 338 0062 1BB1     		cbz	r3, .L22
 339              		.loc 1 138 5 is_stmt 1 view .LVU88
 340              		.loc 1 138 14 is_stmt 0 view .LVU89
 341 0064 1968     		ldr	r1, [r3]
 342 0066 0160     		str	r1, [r0]
 343              		.loc 1 149 1 view .LVU90
 344 0068 1846     		mov	r0, r3
 345              	.LVL15:
 346              		.loc 1 149 1 view .LVU91
 347 006a 7047     		bx	lr
 348              	.LVL16:
 349              	.L22:
 350              		.loc 1 149 1 view .LVU92
 351 006c C8E7     		b	chPoolAllocI.part.0
 352              	.LVL17:
 353              		.loc 1 149 1 view .LVU93
 354              		.cfi_endproc
 355              	.LFE325:
 356              		.size	chPoolAllocI, .-chPoolAllocI
 357              		.align	1
 358 006e 00BF     		.p2align 4,,15
 359              		.global	chPoolAlloc
 360              		.syntax unified
 361              		.thumb
 362              		.thumb_func
 363              		.fpu fpv4-sp-d16
 364              		.type	chPoolAlloc, %function
 365              	chPoolAlloc:
 366              	.LVL18:
 367              	.LFB326:
 368              		.loc 1 161 38 is_stmt 1 view -0
 369              		.cfi_startproc
 370              		@ args = 0, pretend = 0, frame = 0
 371              		@ frame_needed = 0, uses_anonymous_args = 0
 372              		.loc 1 162 3 view .LVU95
 373              		.loc 1 164 3 view .LVU96
 374              	.LBB182:
 375              	.LBI182:
 376              		.loc 4 353 20 view .LVU97
 377              	.LBE182:
 378              		.loc 4 355 3 view .LVU98
 379              	.LBB190:
 380              	.LBB183:
 381              	.LBI183:
 382              		.loc 5 669 27 view .LVU99
 383              	.LBE183:
 384              	.LBE190:
 385              		.loc 5 677 3 view .LVU100
 386              	.LBB191:
 387              	.LBB188:
 388              	.LBB184:
 389              	.LBI184:
 390              		.loc 2 491 27 view .LVU101
 391              	.LBB185:
 392              		.loc 2 493 3 view .LVU102
 393              	.LBE185:
 394              	.LBE184:
ARM GAS  /tmp/cc3tB0hr.s 			page 8


 395              	.LBE188:
 396              	.LBE191:
 397              		.loc 1 161 38 is_stmt 0 view .LVU103
 398 0070 08B5     		push	{r3, lr}
 399              		.cfi_def_cfa_offset 8
 400              		.cfi_offset 3, -8
 401              		.cfi_offset 14, -4
 402              	.LBB192:
 403              	.LBB189:
 404              	.LBB187:
 405              	.LBB186:
 406              		.loc 2 493 3 view .LVU104
 407 0072 2023     		movs	r3, #32
 408              		.syntax unified
 409              	@ 493 "../../../external/ChibiOS/os/common/ext/ARM/CMSIS/Core/Include/cmsis_gcc.h" 1
 410 0074 83F31188 		MSR basepri, r3
 411              	@ 0 "" 2
 412              	.LVL19:
 413              		.loc 2 493 3 view .LVU105
 414              		.thumb
 415              		.syntax unified
 416              	.LBE186:
 417              	.LBE187:
 418              	.LBE189:
 419              	.LBE192:
 420              		.loc 4 356 34 is_stmt 1 view .LVU106
 421              		.loc 4 357 20 view .LVU107
 422              		.loc 1 165 3 view .LVU108
 423              	.LBB193:
 424              	.LBI193:
 425              		.loc 1 129 7 view .LVU109
 426              	.LBB194:
 427              		.loc 1 130 3 view .LVU110
 428              		.loc 1 132 21 view .LVU111
 429              		.loc 1 133 3 view .LVU112
 430              		.loc 1 133 3 view .LVU113
 431              		.loc 1 135 3 view .LVU114
 432              		.loc 1 135 8 is_stmt 0 view .LVU115
 433 0078 0368     		ldr	r3, [r0]
 434              	.LVL20:
 435              		.loc 1 137 3 is_stmt 1 view .LVU116
 436              		.loc 1 137 6 is_stmt 0 view .LVU117
 437 007a 33B1     		cbz	r3, .L24
 438              		.loc 1 138 5 is_stmt 1 view .LVU118
 439              		.loc 1 138 14 is_stmt 0 view .LVU119
 440 007c 1968     		ldr	r1, [r3]
 441              	.LBE194:
 442              	.LBE193:
 443              	.LBB198:
 444              	.LBB199:
 445              	.LBB200:
 446              	.LBB201:
 447              	.LBB202:
 448              		.loc 2 493 3 view .LVU120
 449 007e 0022     		movs	r2, #0
 450              	.LBE202:
 451              	.LBE201:
ARM GAS  /tmp/cc3tB0hr.s 			page 9


 452              	.LBE200:
 453              	.LBE199:
 454              	.LBE198:
 455              	.LBB219:
 456              	.LBB195:
 457              		.loc 1 138 14 view .LVU121
 458 0080 0160     		str	r1, [r0]
 459              		.loc 1 148 3 is_stmt 1 view .LVU122
 460              	.LVL21:
 461              		.loc 1 148 3 is_stmt 0 view .LVU123
 462              	.LBE195:
 463              	.LBE219:
 464              		.loc 1 166 3 is_stmt 1 view .LVU124
 465              	.LBB220:
 466              	.LBI198:
 467              		.loc 4 365 20 view .LVU125
 468              	.LBB214:
 469              		.loc 4 367 22 view .LVU126
 470              		.loc 4 368 33 view .LVU127
 471              		.loc 4 374 3 view .LVU128
 472              		.loc 4 374 3 view .LVU129
 473              		.loc 4 378 3 view .LVU130
 474              	.LBB209:
 475              	.LBI200:
 476              		.loc 5 693 27 view .LVU131
 477              	.LBE209:
 478              	.LBE214:
 479              	.LBE220:
 480              		.loc 5 696 3 view .LVU132
 481              	.LBB221:
 482              	.LBB215:
 483              	.LBB210:
 484              	.LBB206:
 485              	.LBI201:
 486              		.loc 2 491 27 view .LVU133
 487              	.LBB203:
 488              		.loc 2 493 3 view .LVU134
 489              		.syntax unified
 490              	@ 493 "../../../external/ChibiOS/os/common/ext/ARM/CMSIS/Core/Include/cmsis_gcc.h" 1
 491 0082 82F31188 		MSR basepri, r2
 492              	@ 0 "" 2
 493              	.LVL22:
 494              		.loc 2 493 3 is_stmt 0 view .LVU135
 495              		.thumb
 496              		.syntax unified
 497              	.LBE203:
 498              	.LBE206:
 499              	.LBE210:
 500              	.LBE215:
 501              	.LBE221:
 502              		.loc 1 168 3 is_stmt 1 view .LVU136
 503              		.loc 1 169 1 is_stmt 0 view .LVU137
 504 0086 1846     		mov	r0, r3
 505              	.LVL23:
 506              		.loc 1 169 1 view .LVU138
 507 0088 08BD     		pop	{r3, pc}
 508              	.LVL24:
ARM GAS  /tmp/cc3tB0hr.s 			page 10


 509              	.L24:
 510              	.LBB222:
 511              	.LBB196:
 512              		.loc 1 169 1 view .LVU139
 513 008a FFF7B9FF 		bl	chPoolAllocI.part.0
 514              	.LVL25:
 515              		.loc 1 169 1 view .LVU140
 516              	.LBE196:
 517              	.LBE222:
 518              	.LBB223:
 519              	.LBB216:
 520              	.LBB211:
 521              	.LBB207:
 522              	.LBB204:
 523              		.loc 2 493 3 view .LVU141
 524 008e 0022     		movs	r2, #0
 525              	.LBE204:
 526              	.LBE207:
 527              	.LBE211:
 528              	.LBE216:
 529              	.LBE223:
 530              	.LBB224:
 531              	.LBB197:
 532 0090 0346     		mov	r3, r0
 533              	.LVL26:
 534              		.loc 1 148 3 is_stmt 1 view .LVU142
 535              		.loc 1 148 3 is_stmt 0 view .LVU143
 536              	.LBE197:
 537              	.LBE224:
 538              		.loc 1 166 3 is_stmt 1 view .LVU144
 539              	.LBB225:
 540              		.loc 4 365 20 view .LVU145
 541              	.LBB217:
 542              		.loc 4 367 22 view .LVU146
 543              		.loc 4 368 33 view .LVU147
 544              		.loc 4 374 3 view .LVU148
 545              		.loc 4 374 3 view .LVU149
 546              		.loc 4 378 3 view .LVU150
 547              	.LBB212:
 548              		.loc 5 693 27 view .LVU151
 549              	.LBE212:
 550              	.LBE217:
 551              	.LBE225:
 552              		.loc 5 696 3 view .LVU152
 553              	.LBB226:
 554              	.LBB218:
 555              	.LBB213:
 556              	.LBB208:
 557              		.loc 2 491 27 view .LVU153
 558              	.LBB205:
 559              		.loc 2 493 3 view .LVU154
 560              		.syntax unified
 561              	@ 493 "../../../external/ChibiOS/os/common/ext/ARM/CMSIS/Core/Include/cmsis_gcc.h" 1
 562 0092 82F31188 		MSR basepri, r2
 563              	@ 0 "" 2
 564              	.LVL27:
 565              		.loc 2 493 3 is_stmt 0 view .LVU155
ARM GAS  /tmp/cc3tB0hr.s 			page 11


 566              		.thumb
 567              		.syntax unified
 568              	.LBE205:
 569              	.LBE208:
 570              	.LBE213:
 571              	.LBE218:
 572              	.LBE226:
 573              		.loc 1 168 3 is_stmt 1 view .LVU156
 574              		.loc 1 169 1 is_stmt 0 view .LVU157
 575 0096 1846     		mov	r0, r3
 576              		.loc 1 169 1 view .LVU158
 577 0098 08BD     		pop	{r3, pc}
 578              		.cfi_endproc
 579              	.LFE326:
 580              		.size	chPoolAlloc, .-chPoolAlloc
 581              		.align	1
 582 009a 00BFAFF3 		.p2align 4,,15
 582      0080
 583              		.global	chPoolFreeI
 584              		.syntax unified
 585              		.thumb
 586              		.thumb_func
 587              		.fpu fpv4-sp-d16
 588              		.type	chPoolFreeI, %function
 589              	chPoolFreeI:
 590              	.LVL28:
 591              	.LFB327:
 592              		.loc 1 183 49 is_stmt 1 view -0
 593              		.cfi_startproc
 594              		@ args = 0, pretend = 0, frame = 0
 595              		@ frame_needed = 0, uses_anonymous_args = 0
 596              		@ link register save eliminated.
 597              		.loc 1 184 3 view .LVU160
 598              		.loc 1 186 21 view .LVU161
 599              		.loc 1 187 3 view .LVU162
 600              		.loc 1 187 3 view .LVU163
 601              		.loc 1 191 3 view .LVU164
 602              		.loc 1 191 13 is_stmt 0 view .LVU165
 603 00a0 0368     		ldr	r3, [r0]
 604 00a2 0B60     		str	r3, [r1]
 605              		.loc 1 192 3 is_stmt 1 view .LVU166
 606              		.loc 1 192 12 is_stmt 0 view .LVU167
 607 00a4 0160     		str	r1, [r0]
 608              		.loc 1 193 1 view .LVU168
 609 00a6 7047     		bx	lr
 610              		.cfi_endproc
 611              	.LFE327:
 612              		.size	chPoolFreeI, .-chPoolFreeI
 613              		.align	1
 614 00a8 AFF30080 		.p2align 4,,15
 614      AFF30080 
 615              		.global	chPoolFree
 616              		.syntax unified
 617              		.thumb
 618              		.thumb_func
 619              		.fpu fpv4-sp-d16
 620              		.type	chPoolFree, %function
ARM GAS  /tmp/cc3tB0hr.s 			page 12


 621              	chPoolFree:
 622              	.LVL29:
 623              	.LFB328:
 624              		.loc 1 207 48 is_stmt 1 view -0
 625              		.cfi_startproc
 626              		@ args = 0, pretend = 0, frame = 0
 627              		@ frame_needed = 0, uses_anonymous_args = 0
 628              		@ link register save eliminated.
 629              		.loc 1 209 3 view .LVU170
 630              	.LBB227:
 631              	.LBI227:
 632              		.loc 4 353 20 view .LVU171
 633              	.LBE227:
 634              		.loc 4 355 3 view .LVU172
 635              	.LBB232:
 636              	.LBB228:
 637              	.LBI228:
 638              		.loc 5 669 27 view .LVU173
 639              	.LBE228:
 640              	.LBE232:
 641              		.loc 5 677 3 view .LVU174
 642              	.LBB233:
 643              	.LBB231:
 644              	.LBB229:
 645              	.LBI229:
 646              		.loc 2 491 27 view .LVU175
 647              	.LBB230:
 648              		.loc 2 493 3 view .LVU176
 649 00b0 2023     		movs	r3, #32
 650              		.syntax unified
 651              	@ 493 "../../../external/ChibiOS/os/common/ext/ARM/CMSIS/Core/Include/cmsis_gcc.h" 1
 652 00b2 83F31188 		MSR basepri, r3
 653              	@ 0 "" 2
 654              	.LVL30:
 655              		.loc 2 493 3 is_stmt 0 view .LVU177
 656              		.thumb
 657              		.syntax unified
 658              	.LBE230:
 659              	.LBE229:
 660              	.LBE231:
 661              	.LBE233:
 662              		.loc 4 356 34 is_stmt 1 view .LVU178
 663              		.loc 4 357 20 view .LVU179
 664              		.loc 1 210 3 view .LVU180
 665              	.LBB234:
 666              	.LBI234:
 667              		.loc 1 183 6 view .LVU181
 668              	.LBB235:
 669              		.loc 1 184 3 view .LVU182
 670              		.loc 1 186 21 view .LVU183
 671              		.loc 1 187 3 view .LVU184
 672              		.loc 1 187 3 view .LVU185
 673              		.loc 1 191 3 view .LVU186
 674              		.loc 1 191 13 is_stmt 0 view .LVU187
 675 00b6 0268     		ldr	r2, [r0]
 676              	.LBE235:
 677              	.LBE234:
ARM GAS  /tmp/cc3tB0hr.s 			page 13


 678              	.LBB237:
 679              	.LBB238:
 680              	.LBB239:
 681              	.LBB240:
 682              	.LBB241:
 683              		.loc 2 493 3 view .LVU188
 684 00b8 0023     		movs	r3, #0
 685              	.LBE241:
 686              	.LBE240:
 687              	.LBE239:
 688              	.LBE238:
 689              	.LBE237:
 690              	.LBB248:
 691              	.LBB236:
 692              		.loc 1 191 13 view .LVU189
 693 00ba 0A60     		str	r2, [r1]
 694              		.loc 1 192 3 is_stmt 1 view .LVU190
 695              		.loc 1 192 12 is_stmt 0 view .LVU191
 696 00bc 0160     		str	r1, [r0]
 697              	.LVL31:
 698              		.loc 1 192 12 view .LVU192
 699              	.LBE236:
 700              	.LBE248:
 701              		.loc 1 211 3 is_stmt 1 view .LVU193
 702              	.LBB249:
 703              	.LBI237:
 704              		.loc 4 365 20 view .LVU194
 705              	.LBB246:
 706              		.loc 4 367 22 view .LVU195
 707              		.loc 4 368 33 view .LVU196
 708              		.loc 4 374 3 view .LVU197
 709              		.loc 4 374 3 view .LVU198
 710              		.loc 4 378 3 view .LVU199
 711              	.LBB244:
 712              	.LBI239:
 713              		.loc 5 693 27 view .LVU200
 714              	.LBE244:
 715              	.LBE246:
 716              	.LBE249:
 717              		.loc 5 696 3 view .LVU201
 718              	.LBB250:
 719              	.LBB247:
 720              	.LBB245:
 721              	.LBB243:
 722              	.LBI240:
 723              		.loc 2 491 27 view .LVU202
 724              	.LBB242:
 725              		.loc 2 493 3 view .LVU203
 726              		.syntax unified
 727              	@ 493 "../../../external/ChibiOS/os/common/ext/ARM/CMSIS/Core/Include/cmsis_gcc.h" 1
 728 00be 83F31188 		MSR basepri, r3
 729              	@ 0 "" 2
 730              	.LVL32:
 731              		.loc 2 493 3 is_stmt 0 view .LVU204
 732              		.thumb
 733              		.syntax unified
 734              	.LBE242:
ARM GAS  /tmp/cc3tB0hr.s 			page 14


 735              	.LBE243:
 736              	.LBE245:
 737              	.LBE247:
 738              	.LBE250:
 739              		.loc 1 212 1 view .LVU205
 740 00c2 7047     		bx	lr
 741              		.cfi_endproc
 742              	.LFE328:
 743              		.size	chPoolFree, .-chPoolFree
 744              		.align	1
 745 00c4 AFF30080 		.p2align 4,,15
 745      AFF30080 
 745      AFF30080 
 746              		.global	chGuardedPoolObjectInitAligned
 747              		.syntax unified
 748              		.thumb
 749              		.thumb_func
 750              		.fpu fpv4-sp-d16
 751              		.type	chGuardedPoolObjectInitAligned, %function
 752              	chGuardedPoolObjectInitAligned:
 753              	.LVL33:
 754              	.LFB329:
 755              		.loc 1 228 53 is_stmt 1 view -0
 756              		.cfi_startproc
 757              		@ args = 0, pretend = 0, frame = 0
 758              		@ frame_needed = 0, uses_anonymous_args = 0
 759              		@ link register save eliminated.
 760              		.loc 1 230 3 view .LVU207
 761              	.LBB251:
 762              	.LBI251:
 763              		.loc 1 77 6 view .LVU208
 764              	.LBB252:
 765              		.loc 1 80 3 view .LVU209
 766              		.loc 1 80 3 view .LVU210
 767              		.loc 1 85 3 view .LVU211
 768              	.LBE252:
 769              	.LBE251:
 770              		.loc 1 228 53 is_stmt 0 view .LVU212
 771 00d0 10B4     		push	{r4}
 772              		.cfi_def_cfa_offset 4
 773              		.cfi_offset 4, -4
 774              	.LBB255:
 775              	.LBB253:
 776              		.loc 1 85 12 view .LVU213
 777 00d2 0024     		movs	r4, #0
 778              		.loc 1 86 19 view .LVU214
 779 00d4 0161     		str	r1, [r0, #16]
 780              		.loc 1 87 13 view .LVU215
 781 00d6 4261     		str	r2, [r0, #20]
 782              	.LBE253:
 783              	.LBE255:
 784              		.loc 1 231 3 view .LVU216
 785 00d8 2146     		mov	r1, r4
 786              	.LVL34:
 787              	.LBB256:
 788              	.LBB254:
 789              		.loc 1 85 12 view .LVU217
ARM GAS  /tmp/cc3tB0hr.s 			page 15


 790 00da C460     		str	r4, [r0, #12]
 791              		.loc 1 86 3 is_stmt 1 view .LVU218
 792              		.loc 1 87 3 view .LVU219
 793              		.loc 1 88 3 view .LVU220
 794              		.loc 1 88 16 is_stmt 0 view .LVU221
 795 00dc 8461     		str	r4, [r0, #24]
 796              	.LVL35:
 797              		.loc 1 88 16 view .LVU222
 798              	.LBE254:
 799              	.LBE256:
 800              		.loc 1 231 3 is_stmt 1 view .LVU223
 801              		.loc 1 232 1 is_stmt 0 view .LVU224
 802 00de 5DF8044B 		ldr	r4, [sp], #4
 803              		.cfi_restore 4
 804              		.cfi_def_cfa_offset 0
 805              		.loc 1 231 3 view .LVU225
 806 00e2 FFF7FEBF 		b	chSemObjectInit
 807              	.LVL36:
 808              		.loc 1 231 3 view .LVU226
 809              		.cfi_endproc
 810              	.LFE329:
 811              		.size	chGuardedPoolObjectInitAligned, .-chGuardedPoolObjectInitAligned
 812              		.align	1
 813 00e6 00BFAFF3 		.p2align 4,,15
 813      0080AFF3 
 813      0080
 814              		.global	chGuardedPoolLoadArray
 815              		.syntax unified
 816              		.thumb
 817              		.thumb_func
 818              		.fpu fpv4-sp-d16
 819              		.type	chGuardedPoolLoadArray, %function
 820              	chGuardedPoolLoadArray:
 821              	.LVL37:
 822              	.LFB330:
 823              		.loc 1 247 76 is_stmt 1 view -0
 824              		.cfi_startproc
 825              		@ args = 0, pretend = 0, frame = 0
 826              		@ frame_needed = 0, uses_anonymous_args = 0
 827              		.loc 1 249 3 view .LVU228
 828              		.loc 1 249 3 view .LVU229
 829              		.loc 1 251 3 view .LVU230
 830              		.loc 1 251 9 is_stmt 0 view .LVU231
 831 00f0 CAB1     		cbz	r2, .L37
 832              		.loc 1 247 76 view .LVU232
 833 00f2 2DE9F041 		push	{r4, r5, r6, r7, r8, lr}
 834              		.cfi_def_cfa_offset 24
 835              		.cfi_offset 4, -24
 836              		.cfi_offset 5, -20
 837              		.cfi_offset 6, -16
 838              		.cfi_offset 7, -12
 839              		.cfi_offset 8, -8
 840              		.cfi_offset 14, -4
 841 00f6 0446     		mov	r4, r0
 842 00f8 0D46     		mov	r5, r1
 843 00fa 1646     		mov	r6, r2
 844              	.LBB257:
ARM GAS  /tmp/cc3tB0hr.s 			page 16


 845              	.LBB258:
 846              	.LBB259:
 847              	.LBB260:
 848              	.LBB261:
 849              	.LBB262:
 850              	.LBB263:
 851              		.loc 2 493 3 view .LVU233
 852 00fc 4FF02008 		mov	r8, #32
 853              	.LBE263:
 854              	.LBE262:
 855              	.LBE261:
 856              	.LBE260:
 857              	.LBB268:
 858              	.LBB269:
 859              	.LBB270:
 860              	.LBB271:
 861              	.LBB272:
 862 0100 0027     		movs	r7, #0
 863              	.LVL38:
 864              	.L33:
 865              		.loc 2 493 3 view .LVU234
 866              	.LBE272:
 867              	.LBE271:
 868              	.LBE270:
 869              	.LBE269:
 870              	.LBE268:
 871              	.LBE259:
 872              	.LBE258:
 873              	.LBE257:
 874              		.loc 1 252 5 is_stmt 1 view .LVU235
 875              	.LBB300:
 876              	.LBI257:
 877              		.loc 3 337 20 view .LVU236
 878              	.LBE300:
 879              		.loc 3 339 3 view .LVU237
 880              	.LBB301:
 881              	.LBB295:
 882              	.LBI258:
 883              		.loc 1 325 6 view .LVU238
 884              	.LBB290:
 885              		.loc 1 327 3 view .LVU239
 886              	.LBB279:
 887              	.LBI260:
 888              		.loc 4 353 20 view .LVU240
 889              	.LBE279:
 890              	.LBE290:
 891              	.LBE295:
 892              	.LBE301:
 893              		.loc 4 355 3 view .LVU241
 894              	.LBB302:
 895              	.LBB296:
 896              	.LBB291:
 897              	.LBB280:
 898              	.LBB266:
 899              	.LBI261:
 900              		.loc 5 669 27 view .LVU242
 901              	.LBE266:
ARM GAS  /tmp/cc3tB0hr.s 			page 17


 902              	.LBE280:
 903              	.LBE291:
 904              	.LBE296:
 905              	.LBE302:
 906              		.loc 5 677 3 view .LVU243
 907              	.LBB303:
 908              	.LBB297:
 909              	.LBB292:
 910              	.LBB281:
 911              	.LBB267:
 912              	.LBB265:
 913              	.LBI262:
 914              		.loc 2 491 27 view .LVU244
 915              	.LBB264:
 916              		.loc 2 493 3 view .LVU245
 917              		.syntax unified
 918              	@ 493 "../../../external/ChibiOS/os/common/ext/ARM/CMSIS/Core/Include/cmsis_gcc.h" 1
 919 0102 88F31188 		MSR basepri, r8
 920              	@ 0 "" 2
 921              	.LVL39:
 922              		.loc 2 493 3 is_stmt 0 view .LVU246
 923              		.thumb
 924              		.syntax unified
 925              	.LBE264:
 926              	.LBE265:
 927              	.LBE267:
 928              	.LBE281:
 929              	.LBE292:
 930              	.LBE297:
 931              	.LBE303:
 932              		.loc 4 356 34 is_stmt 1 view .LVU247
 933              		.loc 4 357 20 view .LVU248
 934              	.LBB304:
 935              	.LBB298:
 936              	.LBB293:
 937              		.loc 1 328 3 view .LVU249
 938              	.LBB282:
 939              	.LBI282:
 940              		.loc 3 299 20 view .LVU250
 941              	.LBB283:
 942              		.loc 3 301 3 view .LVU251
 943              	.LBB284:
 944              	.LBI284:
 945              		.loc 1 183 6 view .LVU252
 946              	.LBB285:
 947              		.loc 1 184 3 view .LVU253
 948              		.loc 1 186 21 view .LVU254
 949              		.loc 1 187 3 view .LVU255
 950              		.loc 1 187 3 view .LVU256
 951              		.loc 1 191 3 view .LVU257
 952              		.loc 1 191 13 is_stmt 0 view .LVU258
 953 0106 E368     		ldr	r3, [r4, #12]
 954              	.LBE285:
 955              	.LBE284:
 956              		.loc 3 302 3 view .LVU259
 957 0108 2046     		mov	r0, r4
 958              	.LBB287:
ARM GAS  /tmp/cc3tB0hr.s 			page 18


 959              	.LBB286:
 960              		.loc 1 191 13 view .LVU260
 961 010a 2B60     		str	r3, [r5]
 962              		.loc 1 192 3 is_stmt 1 view .LVU261
 963              		.loc 1 192 12 is_stmt 0 view .LVU262
 964 010c E560     		str	r5, [r4, #12]
 965              	.LVL40:
 966              		.loc 1 192 12 view .LVU263
 967              	.LBE286:
 968              	.LBE287:
 969              		.loc 3 302 3 is_stmt 1 view .LVU264
 970 010e FFF7FEFF 		bl	chSemSignalI
 971              	.LVL41:
 972              		.loc 3 302 3 is_stmt 0 view .LVU265
 973              	.LBE283:
 974              	.LBE282:
 975              		.loc 1 329 3 is_stmt 1 view .LVU266
 976 0112 FFF7FEFF 		bl	chSchRescheduleS
 977              	.LVL42:
 978              		.loc 1 330 3 view .LVU267
 979              	.LBB288:
 980              	.LBI268:
 981              		.loc 4 365 20 view .LVU268
 982              	.LBB277:
 983              		.loc 4 367 22 view .LVU269
 984              		.loc 4 368 33 view .LVU270
 985              		.loc 4 374 3 view .LVU271
 986              		.loc 4 374 3 view .LVU272
 987              		.loc 4 378 3 view .LVU273
 988              	.LBB275:
 989              	.LBI270:
 990              		.loc 5 693 27 view .LVU274
 991              	.LBE275:
 992              	.LBE277:
 993              	.LBE288:
 994              	.LBE293:
 995              	.LBE298:
 996              	.LBE304:
 997              		.loc 5 696 3 view .LVU275
 998              	.LBB305:
 999              	.LBB299:
 1000              	.LBB294:
 1001              	.LBB289:
 1002              	.LBB278:
 1003              	.LBB276:
 1004              	.LBB274:
 1005              	.LBI271:
 1006              		.loc 2 491 27 view .LVU276
 1007              	.LBB273:
 1008              		.loc 2 493 3 view .LVU277
 1009              		.syntax unified
 1010              	@ 493 "../../../external/ChibiOS/os/common/ext/ARM/CMSIS/Core/Include/cmsis_gcc.h" 1
 1011 0116 87F31188 		MSR basepri, r7
 1012              	@ 0 "" 2
 1013              	.LVL43:
 1014              		.loc 2 493 3 is_stmt 0 view .LVU278
 1015              		.thumb
ARM GAS  /tmp/cc3tB0hr.s 			page 19


 1016              		.syntax unified
 1017              	.LBE273:
 1018              	.LBE274:
 1019              	.LBE276:
 1020              	.LBE278:
 1021              	.LBE289:
 1022              	.LBE294:
 1023              	.LBE299:
 1024              	.LBE305:
 1025              		.loc 1 254 5 is_stmt 1 view .LVU279
 1026              		.loc 1 254 7 is_stmt 0 view .LVU280
 1027 011a 2369     		ldr	r3, [r4, #16]
 1028              		.loc 1 251 9 view .LVU281
 1029 011c 013E     		subs	r6, r6, #1
 1030              	.LVL44:
 1031              		.loc 1 254 7 view .LVU282
 1032 011e 1D44     		add	r5, r5, r3
 1033              	.LVL45:
 1034              		.loc 1 256 5 is_stmt 1 view .LVU283
 1035              		.loc 1 251 9 is_stmt 0 view .LVU284
 1036 0120 EFD1     		bne	.L33
 1037              		.loc 1 258 1 view .LVU285
 1038 0122 BDE8F081 		pop	{r4, r5, r6, r7, r8, pc}
 1039              	.LVL46:
 1040              	.L37:
 1041              		.cfi_def_cfa_offset 0
 1042              		.cfi_restore 4
 1043              		.cfi_restore 5
 1044              		.cfi_restore 6
 1045              		.cfi_restore 7
 1046              		.cfi_restore 8
 1047              		.cfi_restore 14
 1048              		.loc 1 258 1 view .LVU286
 1049 0126 7047     		bx	lr
 1050              		.cfi_endproc
 1051              	.LFE330:
 1052              		.size	chGuardedPoolLoadArray, .-chGuardedPoolLoadArray
 1053              		.align	1
 1054 0128 AFF30080 		.p2align 4,,15
 1054      AFF30080 
 1055              		.global	chGuardedPoolAllocTimeoutS
 1056              		.syntax unified
 1057              		.thumb
 1058              		.thumb_func
 1059              		.fpu fpv4-sp-d16
 1060              		.type	chGuardedPoolAllocTimeoutS, %function
 1061              	chGuardedPoolAllocTimeoutS:
 1062              	.LVL47:
 1063              	.LFB331:
 1064              		.loc 1 276 57 is_stmt 1 view -0
 1065              		.cfi_startproc
 1066              		@ args = 0, pretend = 0, frame = 0
 1067              		@ frame_needed = 0, uses_anonymous_args = 0
 1068              		.loc 1 277 3 view .LVU288
 1069              		.loc 1 279 3 view .LVU289
 1070              		.loc 1 276 57 is_stmt 0 view .LVU290
 1071 0130 10B5     		push	{r4, lr}
ARM GAS  /tmp/cc3tB0hr.s 			page 20


 1072              		.cfi_def_cfa_offset 8
 1073              		.cfi_offset 4, -8
 1074              		.cfi_offset 14, -4
 1075              		.loc 1 276 57 view .LVU291
 1076 0132 0446     		mov	r4, r0
 1077              		.loc 1 279 9 view .LVU292
 1078 0134 FFF7FEFF 		bl	chSemWaitTimeoutS
 1079              	.LVL48:
 1080              		.loc 1 280 3 is_stmt 1 view .LVU293
 1081              		.loc 1 280 6 is_stmt 0 view .LVU294
 1082 0138 48B9     		cbnz	r0, .L43
 1083              		.loc 1 284 3 is_stmt 1 view .LVU295
 1084              	.LVL49:
 1085              	.LBB306:
 1086              	.LBI306:
 1087              		.loc 1 129 7 view .LVU296
 1088              	.LBB307:
 1089              		.loc 1 130 3 view .LVU297
 1090              		.loc 1 132 21 view .LVU298
 1091              		.loc 1 133 3 view .LVU299
 1092              		.loc 1 133 3 view .LVU300
 1093              		.loc 1 135 3 view .LVU301
 1094              		.loc 1 135 8 is_stmt 0 view .LVU302
 1095 013a E068     		ldr	r0, [r4, #12]
 1096              	.LVL50:
 1097              		.loc 1 137 3 is_stmt 1 view .LVU303
 1098              		.loc 1 137 6 is_stmt 0 view .LVU304
 1099 013c 10B1     		cbz	r0, .L42
 1100              		.loc 1 138 5 is_stmt 1 view .LVU305
 1101              		.loc 1 138 14 is_stmt 0 view .LVU306
 1102 013e 0368     		ldr	r3, [r0]
 1103 0140 E360     		str	r3, [r4, #12]
 1104              	.LBE307:
 1105              	.LBE306:
 1106              		.loc 1 285 1 view .LVU307
 1107 0142 10BD     		pop	{r4, pc}
 1108              	.LVL51:
 1109              	.L42:
 1110              	.LBB310:
 1111              	.LBB308:
 1112              		.loc 1 285 1 view .LVU308
 1113 0144 04F10C00 		add	r0, r4, #12
 1114              	.LVL52:
 1115              		.loc 1 285 1 view .LVU309
 1116              	.LBE308:
 1117              	.LBE310:
 1118 0148 BDE81040 		pop	{r4, lr}
 1119              		.cfi_remember_state
 1120              		.cfi_restore 14
 1121              		.cfi_restore 4
 1122              		.cfi_def_cfa_offset 0
 1123              	.LVL53:
 1124              	.LBB311:
 1125              	.LBB309:
 1126              		.loc 1 285 1 view .LVU310
 1127 014c 58E7     		b	chPoolAllocI.part.0
 1128              	.LVL54:
ARM GAS  /tmp/cc3tB0hr.s 			page 21


 1129              	.L43:
 1130              		.cfi_restore_state
 1131              		.loc 1 285 1 view .LVU311
 1132              	.LBE309:
 1133              	.LBE311:
 1134              		.loc 1 281 12 view .LVU312
 1135 014e 0020     		movs	r0, #0
 1136              	.LVL55:
 1137              		.loc 1 285 1 view .LVU313
 1138 0150 10BD     		pop	{r4, pc}
 1139              		.loc 1 285 1 view .LVU314
 1140              		.cfi_endproc
 1141              	.LFE331:
 1142              		.size	chGuardedPoolAllocTimeoutS, .-chGuardedPoolAllocTimeoutS
 1143              		.align	1
 1144 0152 00BFAFF3 		.p2align 4,,15
 1144      0080AFF3 
 1144      0080AFF3 
 1144      0080
 1145              		.global	chGuardedPoolAllocTimeout
 1146              		.syntax unified
 1147              		.thumb
 1148              		.thumb_func
 1149              		.fpu fpv4-sp-d16
 1150              		.type	chGuardedPoolAllocTimeout, %function
 1151              	chGuardedPoolAllocTimeout:
 1152              	.LVL56:
 1153              	.LFB332:
 1154              		.loc 1 303 56 is_stmt 1 view -0
 1155              		.cfi_startproc
 1156              		@ args = 0, pretend = 0, frame = 0
 1157              		@ frame_needed = 0, uses_anonymous_args = 0
 1158              		.loc 1 304 3 view .LVU316
 1159              		.loc 1 306 3 view .LVU317
 1160              	.LBB312:
 1161              	.LBI312:
 1162              		.loc 4 353 20 view .LVU318
 1163              	.LBE312:
 1164              		.loc 4 355 3 view .LVU319
 1165              	.LBB320:
 1166              	.LBB313:
 1167              	.LBI313:
 1168              		.loc 5 669 27 view .LVU320
 1169              	.LBE313:
 1170              	.LBE320:
 1171              		.loc 5 677 3 view .LVU321
 1172              	.LBB321:
 1173              	.LBB318:
 1174              	.LBB314:
 1175              	.LBI314:
 1176              		.loc 2 491 27 view .LVU322
 1177              	.LBB315:
 1178              		.loc 2 493 3 view .LVU323
 1179              	.LBE315:
 1180              	.LBE314:
 1181              	.LBE318:
 1182              	.LBE321:
ARM GAS  /tmp/cc3tB0hr.s 			page 22


 1183              		.loc 1 303 56 is_stmt 0 view .LVU324
 1184 0160 08B5     		push	{r3, lr}
 1185              		.cfi_def_cfa_offset 8
 1186              		.cfi_offset 3, -8
 1187              		.cfi_offset 14, -4
 1188              	.LBB322:
 1189              	.LBB319:
 1190              	.LBB317:
 1191              	.LBB316:
 1192              		.loc 2 493 3 view .LVU325
 1193 0162 2023     		movs	r3, #32
 1194              		.syntax unified
 1195              	@ 493 "../../../external/ChibiOS/os/common/ext/ARM/CMSIS/Core/Include/cmsis_gcc.h" 1
 1196 0164 83F31188 		MSR basepri, r3
 1197              	@ 0 "" 2
 1198              	.LVL57:
 1199              		.loc 2 493 3 view .LVU326
 1200              		.thumb
 1201              		.syntax unified
 1202              	.LBE316:
 1203              	.LBE317:
 1204              	.LBE319:
 1205              	.LBE322:
 1206              		.loc 4 356 34 is_stmt 1 view .LVU327
 1207              		.loc 4 357 20 view .LVU328
 1208              		.loc 1 307 3 view .LVU329
 1209              		.loc 1 307 7 is_stmt 0 view .LVU330
 1210 0168 FFF7FEFF 		bl	chGuardedPoolAllocTimeoutS
 1211              	.LVL58:
 1212              		.loc 1 308 3 is_stmt 1 view .LVU331
 1213              	.LBB323:
 1214              	.LBI323:
 1215              		.loc 4 365 20 view .LVU332
 1216              	.LBB324:
 1217              		.loc 4 367 22 view .LVU333
 1218              		.loc 4 368 33 view .LVU334
 1219              		.loc 4 374 3 view .LVU335
 1220              		.loc 4 374 3 view .LVU336
 1221              		.loc 4 378 3 view .LVU337
 1222              	.LBB325:
 1223              	.LBI325:
 1224              		.loc 5 693 27 view .LVU338
 1225              	.LBE325:
 1226              	.LBE324:
 1227              	.LBE323:
 1228              		.loc 5 696 3 view .LVU339
 1229              	.LBB330:
 1230              	.LBB329:
 1231              	.LBB328:
 1232              	.LBB326:
 1233              	.LBI326:
 1234              		.loc 2 491 27 view .LVU340
 1235              	.LBB327:
 1236              		.loc 2 493 3 view .LVU341
 1237 016c 0023     		movs	r3, #0
 1238              		.syntax unified
 1239              	@ 493 "../../../external/ChibiOS/os/common/ext/ARM/CMSIS/Core/Include/cmsis_gcc.h" 1
ARM GAS  /tmp/cc3tB0hr.s 			page 23


 1240 016e 83F31188 		MSR basepri, r3
 1241              	@ 0 "" 2
 1242              	.LVL59:
 1243              		.loc 2 493 3 is_stmt 0 view .LVU342
 1244              		.thumb
 1245              		.syntax unified
 1246              	.LBE327:
 1247              	.LBE326:
 1248              	.LBE328:
 1249              	.LBE329:
 1250              	.LBE330:
 1251              		.loc 1 310 3 is_stmt 1 view .LVU343
 1252              		.loc 1 311 1 is_stmt 0 view .LVU344
 1253 0172 08BD     		pop	{r3, pc}
 1254              		.cfi_endproc
 1255              	.LFE332:
 1256              		.size	chGuardedPoolAllocTimeout, .-chGuardedPoolAllocTimeout
 1257              		.align	1
 1258 0174 AFF30080 		.p2align 4,,15
 1258      AFF30080 
 1258      AFF30080 
 1259              		.global	chGuardedPoolFree
 1260              		.syntax unified
 1261              		.thumb
 1262              		.thumb_func
 1263              		.fpu fpv4-sp-d16
 1264              		.type	chGuardedPoolFree, %function
 1265              	chGuardedPoolFree:
 1266              	.LVL60:
 1267              	.LFB333:
 1268              		.loc 1 325 64 is_stmt 1 view -0
 1269              		.cfi_startproc
 1270              		@ args = 0, pretend = 0, frame = 0
 1271              		@ frame_needed = 0, uses_anonymous_args = 0
 1272              		.loc 1 327 3 view .LVU346
 1273              	.LBB331:
 1274              	.LBI331:
 1275              		.loc 4 353 20 view .LVU347
 1276              	.LBE331:
 1277              		.loc 4 355 3 view .LVU348
 1278              	.LBB339:
 1279              	.LBB332:
 1280              	.LBI332:
 1281              		.loc 5 669 27 view .LVU349
 1282              	.LBE332:
 1283              	.LBE339:
 1284              		.loc 5 677 3 view .LVU350
 1285              	.LBB340:
 1286              	.LBB337:
 1287              	.LBB333:
 1288              	.LBI333:
 1289              		.loc 2 491 27 view .LVU351
 1290              	.LBB334:
 1291              		.loc 2 493 3 view .LVU352
 1292              	.LBE334:
 1293              	.LBE333:
 1294              	.LBE337:
ARM GAS  /tmp/cc3tB0hr.s 			page 24


 1295              	.LBE340:
 1296              		.loc 1 325 64 is_stmt 0 view .LVU353
 1297 0180 08B5     		push	{r3, lr}
 1298              		.cfi_def_cfa_offset 8
 1299              		.cfi_offset 3, -8
 1300              		.cfi_offset 14, -4
 1301              	.LBB341:
 1302              	.LBB338:
 1303              	.LBB336:
 1304              	.LBB335:
 1305              		.loc 2 493 3 view .LVU354
 1306 0182 2022     		movs	r2, #32
 1307              		.syntax unified
 1308              	@ 493 "../../../external/ChibiOS/os/common/ext/ARM/CMSIS/Core/Include/cmsis_gcc.h" 1
 1309 0184 82F31188 		MSR basepri, r2
 1310              	@ 0 "" 2
 1311              	.LVL61:
 1312              		.loc 2 493 3 view .LVU355
 1313              		.thumb
 1314              		.syntax unified
 1315              	.LBE335:
 1316              	.LBE336:
 1317              	.LBE338:
 1318              	.LBE341:
 1319              		.loc 4 356 34 is_stmt 1 view .LVU356
 1320              		.loc 4 357 20 view .LVU357
 1321              		.loc 1 328 3 view .LVU358
 1322              	.LBB342:
 1323              	.LBI342:
 1324              		.loc 3 299 20 view .LVU359
 1325              	.LBB343:
 1326              		.loc 3 301 3 view .LVU360
 1327              	.LBB344:
 1328              	.LBI344:
 1329              		.loc 1 183 6 view .LVU361
 1330              	.LBB345:
 1331              		.loc 1 184 3 view .LVU362
 1332              		.loc 1 186 21 view .LVU363
 1333              		.loc 1 187 3 view .LVU364
 1334              		.loc 1 187 3 view .LVU365
 1335              		.loc 1 191 3 view .LVU366
 1336              		.loc 1 191 13 is_stmt 0 view .LVU367
 1337 0188 C268     		ldr	r2, [r0, #12]
 1338 018a 0A60     		str	r2, [r1]
 1339              		.loc 1 192 3 is_stmt 1 view .LVU368
 1340              		.loc 1 192 12 is_stmt 0 view .LVU369
 1341 018c C160     		str	r1, [r0, #12]
 1342              	.LVL62:
 1343              		.loc 1 192 12 view .LVU370
 1344              	.LBE345:
 1345              	.LBE344:
 1346              		.loc 3 302 3 is_stmt 1 view .LVU371
 1347 018e FFF7FEFF 		bl	chSemSignalI
 1348              	.LVL63:
 1349              		.loc 3 302 3 is_stmt 0 view .LVU372
 1350              	.LBE343:
 1351              	.LBE342:
ARM GAS  /tmp/cc3tB0hr.s 			page 25


 1352              		.loc 1 329 3 is_stmt 1 view .LVU373
 1353 0192 FFF7FEFF 		bl	chSchRescheduleS
 1354              	.LVL64:
 1355              		.loc 1 330 3 view .LVU374
 1356              	.LBB346:
 1357              	.LBI346:
 1358              		.loc 4 365 20 view .LVU375
 1359              	.LBB347:
 1360              		.loc 4 367 22 view .LVU376
 1361              		.loc 4 368 33 view .LVU377
 1362              		.loc 4 374 3 view .LVU378
 1363              		.loc 4 374 3 view .LVU379
 1364              		.loc 4 378 3 view .LVU380
 1365              	.LBB348:
 1366              	.LBI348:
 1367              		.loc 5 693 27 view .LVU381
 1368              	.LBE348:
 1369              	.LBE347:
 1370              	.LBE346:
 1371              		.loc 5 696 3 view .LVU382
 1372              	.LBB353:
 1373              	.LBB352:
 1374              	.LBB351:
 1375              	.LBB349:
 1376              	.LBI349:
 1377              		.loc 2 491 27 view .LVU383
 1378              	.LBB350:
 1379              		.loc 2 493 3 view .LVU384
 1380 0196 0023     		movs	r3, #0
 1381              		.syntax unified
 1382              	@ 493 "../../../external/ChibiOS/os/common/ext/ARM/CMSIS/Core/Include/cmsis_gcc.h" 1
 1383 0198 83F31188 		MSR basepri, r3
 1384              	@ 0 "" 2
 1385              	.LVL65:
 1386              		.loc 2 493 3 is_stmt 0 view .LVU385
 1387              		.thumb
 1388              		.syntax unified
 1389              	.LBE350:
 1390              	.LBE349:
 1391              	.LBE351:
 1392              	.LBE352:
 1393              	.LBE353:
 1394              		.loc 1 331 1 view .LVU386
 1395 019c 08BD     		pop	{r3, pc}
 1396              		.cfi_endproc
 1397              	.LFE333:
 1398              		.size	chGuardedPoolFree, .-chGuardedPoolFree
 1399              	.Letext0:
 1400              		.file 6 "/home/nicolas/arm/gcc-arm-none-eabi-8-2019-q3-update/lib/gcc/arm-none-eabi/8.3.1/include/
 1401              		.file 7 "/home/nicolas/arm/gcc-arm-none-eabi-8-2019-q3-update/arm-none-eabi/include/machine/_defau
 1402              		.file 8 "/home/nicolas/arm/gcc-arm-none-eabi-8-2019-q3-update/arm-none-eabi/include/sys/_stdint.h"
 1403              		.file 9 "../../../external/ChibiOS/os/common/ports/ARMCMx/compilers/GCC/chtypes.h"
 1404              		.file 10 "../../../external/ChibiOS/os/rt/include/chsystypes.h"
 1405              		.file 11 "../../../external/ChibiOS/os/rt/include/chschd.h"
 1406              		.file 12 "../../../external/ChibiOS/os/rt/include/chtime.h"
 1407              		.file 13 "../../../external/ChibiOS/os/common/ext/ARM/CMSIS/Core/Include/core_cm7.h"
 1408              		.file 14 "../../../external/ChibiOS/os/common/ext/ST/STM32H7xx/system_stm32h7xx.h"
ARM GAS  /tmp/cc3tB0hr.s 			page 26


 1409              		.file 15 "../../../external/ChibiOS/os/common/ports/ARMCMx/chcore.h"
 1410              		.file 16 "../../../external/ChibiOS/os/rt/include/chtrace.h"
 1411              		.file 17 "../../../external/ChibiOS/os/rt/include/chtm.h"
 1412              		.file 18 "../../../external/ChibiOS/os/rt/include/chsem.h"
 1413              		.file 19 "../../../external/ChibiOS/os/rt/include/chmtx.h"
 1414              		.file 20 "../../../external/ChibiOS/os/rt/include/chregistry.h"
 1415              		.file 21 "../../../external/ChibiOS/os/oslib/include/chmemcore.h"
 1416              		.file 22 "../../../external/ChibiOS/os/oslib/include/chfactory.h"