ARM GAS  /tmp/cchO9Z19.s 			page 1


   1              		.cpu cortex-m7
   2              		.eabi_attribute 27, 1
   3              		.eabi_attribute 28, 1
   4              		.eabi_attribute 20, 1
   5              		.eabi_attribute 21, 1
   6              		.eabi_attribute 23, 3
   7              		.eabi_attribute 24, 1
   8              		.eabi_attribute 25, 1
   9              		.eabi_attribute 26, 1
  10              		.eabi_attribute 30, 2
  11              		.eabi_attribute 34, 1
  12              		.eabi_attribute 18, 4
  13              		.file	"chmemheaps.c"
  14              		.text
  15              	.Ltext0:
  16              		.cfi_sections	.debug_frame
  17              		.align	1
  18              		.p2align 4,,15
  19              		.global	_heap_init
  20              		.arch armv7e-m
  21              		.syntax unified
  22              		.thumb
  23              		.thumb_func
  24              		.fpu fpv4-sp-d16
  25              		.type	_heap_init, %function
  26              	_heap_init:
  27              	.LFB323:
  28              		.file 1 "../../../external/ChibiOS/os/oslib/src/chmemheaps.c"
  29              		.loc 1 107 23 view -0
  30              		.cfi_startproc
  31              		@ args = 0, pretend = 0, frame = 0
  32              		@ frame_needed = 0, uses_anonymous_args = 0
  33              		@ link register save eliminated.
  34              		.loc 1 109 3 view .LVU1
  35              		.loc 1 109 25 is_stmt 0 view .LVU2
  36 0000 044B     		ldr	r3, .L3
  37              		.loc 1 110 32 view .LVU3
  38 0002 0022     		movs	r2, #0
  39              		.loc 1 109 25 view .LVU4
  40 0004 0449     		ldr	r1, .L3+4
  41              		.loc 1 113 3 view .LVU5
  42 0006 03F10C00 		add	r0, r3, #12
  43              		.loc 1 111 33 view .LVU6
  44 000a 9A60     		str	r2, [r3, #8]
  45              		.loc 1 109 25 view .LVU7
  46 000c C3E90012 		strd	r1, r2, [r3]
  47              		.loc 1 110 3 is_stmt 1 view .LVU8
  48              		.loc 1 111 3 view .LVU9
  49              		.loc 1 113 3 view .LVU10
  50 0010 FFF7FEBF 		b	chMtxObjectInit
  51              	.LVL0:
  52              	.L4:
  53              		.align	2
  54              	.L3:
  55 0014 00000000 		.word	.LANCHOR0
  56 0018 00000000 		.word	chCoreAllocFromTop
  57              		.cfi_endproc
ARM GAS  /tmp/cchO9Z19.s 			page 2


  58              	.LFE323:
  59              		.size	_heap_init, .-_heap_init
  60              		.align	1
  61 001c AFF30080 		.p2align 4,,15
  62              		.global	chHeapObjectInit
  63              		.syntax unified
  64              		.thumb
  65              		.thumb_func
  66              		.fpu fpv4-sp-d16
  67              		.type	chHeapObjectInit, %function
  68              	chHeapObjectInit:
  69              	.LVL1:
  70              	.LFB324:
  71              		.loc 1 131 69 view -0
  72              		.cfi_startproc
  73              		@ args = 0, pretend = 0, frame = 0
  74              		@ frame_needed = 0, uses_anonymous_args = 0
  75              		@ link register save eliminated.
  76              		.loc 1 132 3 view .LVU12
  77              		.loc 1 132 40 is_stmt 0 view .LVU13
  78 0020 CB1D     		adds	r3, r1, #7
  79              		.loc 1 147 23 view .LVU14
  80 0022 083A     		subs	r2, r2, #8
  81              	.LVL2:
  82              		.loc 1 132 40 view .LVU15
  83 0024 23F00703 		bic	r3, r3, #7
  84              	.LVL3:
  85              		.loc 1 134 3 is_stmt 1 view .LVU16
  86              		.loc 1 134 3 view .LVU17
  87              		.loc 1 139 3 view .LVU18
  88              		.loc 1 143 3 view .LVU19
  89              		.loc 1 144 3 view .LVU20
  90              		.loc 1 139 34 is_stmt 0 view .LVU21
  91 0028 591A     		subs	r1, r3, r1
  92              	.LVL4:
  93              		.loc 1 147 23 view .LVU22
  94 002a 521A     		subs	r2, r2, r1
  95              	.LVL5:
  96              		.loc 1 131 69 view .LVU23
  97 002c 30B4     		push	{r4, r5}
  98              		.cfi_def_cfa_offset 8
  99              		.cfi_offset 4, -8
 100              		.cfi_offset 5, -4
 101              		.loc 1 147 49 view .LVU24
 102 002e D208     		lsrs	r2, r2, #3
 103              		.loc 1 131 69 view .LVU25
 104 0030 0446     		mov	r4, r0
 105              		.loc 1 143 19 view .LVU26
 106 0032 0025     		movs	r5, #0
 107              		.loc 1 149 3 view .LVU27
 108 0034 0C30     		adds	r0, r0, #12
 109              	.LVL6:
 110              		.loc 1 143 19 view .LVU28
 111 0036 40F80C5C 		str	r5, [r0, #-12]
 112              		.loc 1 145 27 view .LVU29
 113 003a A560     		str	r5, [r4, #8]
 114              		.loc 1 144 26 view .LVU30
ARM GAS  /tmp/cchO9Z19.s 			page 3


 115 003c 6360     		str	r3, [r4, #4]
 116              		.loc 1 145 3 is_stmt 1 view .LVU31
 117              		.loc 1 146 3 view .LVU32
 118              		.loc 1 146 14 is_stmt 0 view .LVU33
 119 003e 1D60     		str	r5, [r3]
 120              		.loc 1 147 3 is_stmt 1 view .LVU34
 121              		.loc 1 147 15 is_stmt 0 view .LVU35
 122 0040 5A60     		str	r2, [r3, #4]
 123              		.loc 1 149 3 is_stmt 1 view .LVU36
 124              		.loc 1 153 1 is_stmt 0 view .LVU37
 125 0042 30BC     		pop	{r4, r5}
 126              		.cfi_restore 5
 127              		.cfi_restore 4
 128              		.cfi_def_cfa_offset 0
 129              	.LVL7:
 130              		.loc 1 149 3 view .LVU38
 131 0044 FFF7FEBF 		b	chMtxObjectInit
 132              	.LVL8:
 133              		.loc 1 149 3 view .LVU39
 134              		.cfi_endproc
 135              	.LFE324:
 136              		.size	chHeapObjectInit, .-chHeapObjectInit
 137              		.align	1
 138 0048 AFF30080 		.p2align 4,,15
 138      AFF30080 
 139              		.global	chHeapAllocAligned
 140              		.syntax unified
 141              		.thumb
 142              		.thumb_func
 143              		.fpu fpv4-sp-d16
 144              		.type	chHeapAllocAligned, %function
 145              	chHeapAllocAligned:
 146              	.LVL9:
 147              	.LFB325:
 148              		.loc 1 172 77 is_stmt 1 view -0
 149              		.cfi_startproc
 150              		@ args = 0, pretend = 0, frame = 0
 151              		@ frame_needed = 0, uses_anonymous_args = 0
 152              		.loc 1 173 3 view .LVU41
 153              		.loc 1 174 3 view .LVU42
 154              		.loc 1 176 3 view .LVU43
 155              		.loc 1 176 3 view .LVU44
 156              		.loc 1 179 3 view .LVU45
 157              		.loc 1 172 77 is_stmt 0 view .LVU46
 158 0050 2DE9F84F 		push	{r3, r4, r5, r6, r7, r8, r9, r10, fp, lr}
 159              		.cfi_def_cfa_offset 40
 160              		.cfi_offset 3, -40
 161              		.cfi_offset 4, -36
 162              		.cfi_offset 5, -32
 163              		.cfi_offset 6, -28
 164              		.cfi_offset 7, -24
 165              		.cfi_offset 8, -20
 166              		.cfi_offset 9, -16
 167              		.cfi_offset 10, -12
 168              		.cfi_offset 11, -8
 169              		.cfi_offset 14, -4
 170 0054 082A     		cmp	r2, #8
ARM GAS  /tmp/cchO9Z19.s 			page 4


 171              		.loc 1 180 11 view .LVU47
 172 0056 3C4E     		ldr	r6, .L25
 173              		.loc 1 189 11 view .LVU48
 174 0058 01F10708 		add	r8, r1, #7
 175              		.loc 1 172 77 view .LVU49
 176 005c 0F46     		mov	r7, r1
 177 005e 38BF     		it	cc
 178 0060 0822     		movcc	r2, #8
 179              	.LVL10:
 180              		.loc 1 180 11 view .LVU50
 181 0062 0028     		cmp	r0, #0
 182 0064 18BF     		it	ne
 183 0066 0646     		movne	r6, r0
 184              	.LVL11:
 185              		.loc 1 184 3 is_stmt 1 view .LVU51
 186              		.loc 1 189 9 is_stmt 0 view .LVU52
 187 0068 4FEAD808 		lsr	r8, r8, #3
 188              		.loc 1 192 3 view .LVU53
 189 006c 06F10C0A 		add	r10, r6, #12
 190 0070 9146     		mov	r9, r2
 191              	.LVL12:
 192              		.loc 1 189 3 is_stmt 1 view .LVU54
 193              		.loc 1 192 3 view .LVU55
 194              		.loc 1 195 6 is_stmt 0 view .LVU56
 195 0072 351D     		adds	r5, r6, #4
 196              		.loc 1 192 3 view .LVU57
 197 0074 5046     		mov	r0, r10
 198 0076 FFF7FEFF 		bl	chMtxLock
 199              	.LVL13:
 200              		.loc 1 195 3 is_stmt 1 view .LVU58
 201              		.loc 1 196 3 view .LVU59
 202              		.loc 1 199 5 view .LVU60
 203              		.loc 1 202 28 is_stmt 0 view .LVU61
 204 007a 09F10701 		add	r1, r9, #7
 205              		.loc 1 196 10 view .LVU62
 206 007e 2868     		ldr	r0, [r5]
 207              	.LVL14:
 208              		.loc 1 202 5 is_stmt 1 view .LVU63
 209              		.loc 1 202 28 is_stmt 0 view .LVU64
 210 0080 C9F1000C 		rsb	ip, r9, #0
 211 0084 4318     		adds	r3, r0, r1
 212              		.loc 1 196 9 view .LVU65
 213 0086 A8B1     		cbz	r0, .L21
 214              	.L15:
 215              		.loc 1 204 16 view .LVU66
 216 0088 4268     		ldr	r2, [r0, #4]
 217              		.loc 1 202 28 view .LVU67
 218 008a 03EA0C03 		and	r3, r3, ip
 219              		.loc 1 204 16 view .LVU68
 220 008e 02F1010E 		add	lr, r2, #1
 221              		.loc 1 204 42 view .LVU69
 222 0092 1C46     		mov	r4, r3
 223              		.loc 1 202 63 view .LVU70
 224 0094 083B     		subs	r3, r3, #8
 225              	.LVL15:
 226              		.loc 1 204 5 is_stmt 1 view .LVU71
 227              		.loc 1 204 16 is_stmt 0 view .LVU72
ARM GAS  /tmp/cchO9Z19.s 			page 5


 228 0096 00EBCE0E 		add	lr, r0, lr, lsl #3
 229              		.loc 1 204 42 view .LVU73
 230 009a AEEB040B 		sub	fp, lr, r4
 231              		.loc 1 204 8 view .LVU74
 232 009e 9E45     		cmp	lr, r3
 233              		.loc 1 204 42 view .LVU75
 234 00a0 4FEAEB0B 		asr	fp, fp, #3
 235              		.loc 1 204 8 view .LVU76
 236 00a4 01D9     		bls	.L10
 237              		.loc 1 204 29 discriminator 1 view .LVU77
 238 00a6 C345     		cmp	fp, r8
 239 00a8 15D2     		bcs	.L22
 240              	.L10:
 241              	.LBB2:
 242              		.loc 1 243 22 view .LVU78
 243 00aa 0546     		mov	r5, r0
 244              	.LVL16:
 245              		.loc 1 243 22 view .LVU79
 246              	.LBE2:
 247              		.loc 1 199 5 is_stmt 1 view .LVU80
 248              		.loc 1 196 10 is_stmt 0 view .LVU81
 249 00ac 2868     		ldr	r0, [r5]
 250              	.LVL17:
 251              		.loc 1 202 5 is_stmt 1 view .LVU82
 252              		.loc 1 202 28 is_stmt 0 view .LVU83
 253 00ae 4318     		adds	r3, r0, r1
 254              	.LVL18:
 255              		.loc 1 196 9 view .LVU84
 256 00b0 0028     		cmp	r0, #0
 257 00b2 E9D1     		bne	.L15
 258              	.LVL19:
 259              	.L21:
 260              		.loc 1 264 3 is_stmt 1 view .LVU85
 261 00b4 5046     		mov	r0, r10
 262              	.LVL20:
 263              		.loc 1 264 3 is_stmt 0 view .LVU86
 264 00b6 FFF7FEFF 		bl	chMtxUnlock
 265              	.LVL21:
 266              		.loc 1 268 3 is_stmt 1 view .LVU87
 267              		.loc 1 268 12 is_stmt 0 view .LVU88
 268 00ba 3468     		ldr	r4, [r6]
 269              		.loc 1 268 6 view .LVU89
 270 00bc 44B1     		cbz	r4, .L7
 271              		.loc 1 269 5 is_stmt 1 view .LVU90
 272              		.loc 1 269 11 is_stmt 0 view .LVU91
 273 00be 4946     		mov	r1, r9
 274 00c0 4FEAC800 		lsl	r0, r8, #3
 275 00c4 0822     		movs	r2, #8
 276 00c6 A047     		blx	r4
 277              	.LVL22:
 278              		.loc 1 272 5 is_stmt 1 view .LVU92
 279              		.loc 1 272 8 is_stmt 0 view .LVU93
 280 00c8 0446     		mov	r4, r0
 281 00ca 08B1     		cbz	r0, .L7
 282              		.loc 1 273 7 is_stmt 1 view .LVU94
 283              	.LVL23:
 284              		.loc 1 274 7 view .LVU95
ARM GAS  /tmp/cchO9Z19.s 			page 6


 285              		.loc 1 275 18 is_stmt 0 view .LVU96
 286 00cc 40E90267 		strd	r6, r7, [r0, #-8]
 287              		.loc 1 278 7 is_stmt 1 view .LVU97
 288              	.LVL24:
 289              	.L7:
 290              		.loc 1 284 1 is_stmt 0 view .LVU98
 291 00d0 2046     		mov	r0, r4
 292 00d2 BDE8F88F 		pop	{r3, r4, r5, r6, r7, r8, r9, r10, fp, pc}
 293              	.LVL25:
 294              	.L22:
 295              		.loc 1 208 7 is_stmt 1 view .LVU99
 296              		.loc 1 208 10 is_stmt 0 view .LVU100
 297 00d6 9842     		cmp	r0, r3
 298 00d8 00F10801 		add	r1, r0, #8
 299 00dc 1AD3     		bcc	.L23
 300              		.loc 1 232 9 is_stmt 1 view .LVU101
 301              		.loc 1 232 12 is_stmt 0 view .LVU102
 302 00de 4245     		cmp	r2, r8
 303 00e0 D0F800C0 		ldr	ip, [r0]
 304 00e4 2AD0     		beq	.L24
 305              	.LBB3:
 306              		.loc 1 238 11 is_stmt 1 view .LVU103
 307              		.loc 1 240 11 view .LVU104
 308              		.loc 1 240 28 is_stmt 0 view .LVU105
 309 00e6 08F10108 		add	r8, r8, #1
 310              	.LVL26:
 311              		.loc 1 243 22 view .LVU106
 312 00ea 0C46     		mov	r4, r1
 313 00ec 0346     		mov	r3, r0
 314              	.LVL27:
 315              		.loc 1 240 14 view .LVU107
 316 00ee 00EBC801 		add	r1, r0, r8, lsl #3
 317              	.LVL28:
 318              		.loc 1 241 11 is_stmt 1 view .LVU108
 319              		.loc 1 241 22 is_stmt 0 view .LVU109
 320 00f2 40F838C0 		str	ip, [r0, r8, lsl #3]
 321              		.loc 1 242 11 is_stmt 1 view .LVU110
 322              		.loc 1 242 25 is_stmt 0 view .LVU111
 323 00f6 01F10802 		add	r2, r1, #8
 324 00fa AEEB0202 		sub	r2, lr, r2
 325 00fe D210     		asrs	r2, r2, #3
 326              		.loc 1 242 23 view .LVU112
 327 0100 4A60     		str	r2, [r1, #4]
 328              		.loc 1 243 11 is_stmt 1 view .LVU113
 329              		.loc 1 243 22 is_stmt 0 view .LVU114
 330 0102 2960     		str	r1, [r5]
 331              	.LVL29:
 332              	.L12:
 333              		.loc 1 243 22 view .LVU115
 334              	.LBE3:
 335              		.loc 1 248 7 is_stmt 1 view .LVU116
 336              		.loc 1 252 7 is_stmt 0 view .LVU117
 337 0104 5046     		mov	r0, r10
 338              		.loc 1 248 18 view .LVU118
 339 0106 5F60     		str	r7, [r3, #4]
 340              		.loc 1 249 7 is_stmt 1 view .LVU119
 341              		.loc 1 249 18 is_stmt 0 view .LVU120
ARM GAS  /tmp/cchO9Z19.s 			page 7


 342 0108 1E60     		str	r6, [r3]
 343              		.loc 1 252 7 is_stmt 1 view .LVU121
 344 010a FFF7FEFF 		bl	chMtxUnlock
 345              	.LVL30:
 346              		.loc 1 255 7 view .LVU122
 347              		.loc 1 284 1 is_stmt 0 view .LVU123
 348 010e 2046     		mov	r0, r4
 349 0110 BDE8F88F 		pop	{r3, r4, r5, r6, r7, r8, r9, r10, fp, pc}
 350              	.LVL31:
 351              	.L23:
 352              	.LBB4:
 353              		.loc 1 210 9 is_stmt 1 view .LVU124
 354              		.loc 1 212 9 view .LVU125
 355              		.loc 1 213 9 view .LVU126
 356              		.loc 1 213 23 is_stmt 0 view .LVU127
 357 0114 5A1A     		subs	r2, r3, r1
 358              		.loc 1 214 12 view .LVU128
 359 0116 C345     		cmp	fp, r8
 360              		.loc 1 213 23 view .LVU129
 361 0118 4FEAE202 		asr	r2, r2, #3
 362              		.loc 1 213 21 view .LVU130
 363 011c 4260     		str	r2, [r0, #4]
 364              		.loc 1 214 9 is_stmt 1 view .LVU131
 365              		.loc 1 214 12 is_stmt 0 view .LVU132
 366 011e F1D9     		bls	.L12
 367              	.LBB5:
 368              		.loc 1 216 11 is_stmt 1 view .LVU133
 369              		.loc 1 219 11 view .LVU134
 370              		.loc 1 219 29 is_stmt 0 view .LVU135
 371 0120 08F10105 		add	r5, r8, #1
 372              	.LVL32:
 373              		.loc 1 220 42 view .LVU136
 374 0124 6FEA0802 		mvn	r2, r8
 375              		.loc 1 223 24 view .LVU137
 376 0128 D0F800C0 		ldr	ip, [r0]
 377              		.loc 1 219 14 view .LVU138
 378 012c 03EBC501 		add	r1, r3, r5, lsl #3
 379              	.LVL33:
 380              		.loc 1 220 11 is_stmt 1 view .LVU139
 381              		.loc 1 220 42 is_stmt 0 view .LVU140
 382 0130 5A44     		add	r2, r2, fp
 383              		.loc 1 220 23 view .LVU141
 384 0132 4A60     		str	r2, [r1, #4]
 385              		.loc 1 223 11 is_stmt 1 view .LVU142
 386              		.loc 1 223 22 is_stmt 0 view .LVU143
 387 0134 43F835C0 		str	ip, [r3, r5, lsl #3]
 388              		.loc 1 224 11 is_stmt 1 view .LVU144
 389              		.loc 1 224 22 is_stmt 0 view .LVU145
 390 0138 0160     		str	r1, [r0]
 391 013a E3E7     		b	.L12
 392              	.LVL34:
 393              	.L24:
 394              		.loc 1 224 22 view .LVU146
 395              	.LBE5:
 396              	.LBE4:
 397              		.loc 1 234 11 is_stmt 1 view .LVU147
 398              		.loc 1 234 22 is_stmt 0 view .LVU148
ARM GAS  /tmp/cchO9Z19.s 			page 8


 399 013c C5F800C0 		str	ip, [r5]
 400 0140 0C46     		mov	r4, r1
 401 0142 0346     		mov	r3, r0
 402              	.LVL35:
 403              		.loc 1 234 22 view .LVU149
 404 0144 DEE7     		b	.L12
 405              	.L26:
 406 0146 00BF     		.align	2
 407              	.L25:
 408 0148 00000000 		.word	.LANCHOR0
 409              		.cfi_endproc
 410              	.LFE325:
 411              		.size	chHeapAllocAligned, .-chHeapAllocAligned
 412              		.align	1
 413 014c AFF30080 		.p2align 4,,15
 414              		.global	chHeapFree
 415              		.syntax unified
 416              		.thumb
 417              		.thumb_func
 418              		.fpu fpv4-sp-d16
 419              		.type	chHeapFree, %function
 420              	chHeapFree:
 421              	.LVL36:
 422              	.LFB326:
 423              		.loc 1 293 26 is_stmt 1 view -0
 424              		.cfi_startproc
 425              		@ args = 0, pretend = 0, frame = 0
 426              		@ frame_needed = 0, uses_anonymous_args = 0
 427              		.loc 1 294 3 view .LVU151
 428              		.loc 1 295 3 view .LVU152
 429              		.loc 1 297 3 view .LVU153
 430              		.loc 1 297 3 view .LVU154
 431              		.loc 1 300 3 view .LVU155
 432              		.loc 1 293 26 is_stmt 0 view .LVU156
 433 0150 F8B5     		push	{r3, r4, r5, r6, r7, lr}
 434              		.cfi_def_cfa_offset 24
 435              		.cfi_offset 3, -24
 436              		.cfi_offset 4, -20
 437              		.cfi_offset 5, -16
 438              		.cfi_offset 6, -12
 439              		.cfi_offset 7, -8
 440              		.cfi_offset 14, -4
 441              		.loc 1 306 17 view .LVU157
 442 0152 50F8043C 		ldr	r3, [r0, #-4]
 443              		.loc 1 293 26 view .LVU158
 444 0156 0646     		mov	r6, r0
 445              		.loc 1 302 9 view .LVU159
 446 0158 50F8085C 		ldr	r5, [r0, #-8]
 447              		.loc 1 300 6 view .LVU160
 448 015c A0F10804 		sub	r4, r0, #8
 449              	.LVL37:
 450              		.loc 1 302 3 is_stmt 1 view .LVU161
 451              		.loc 1 303 3 view .LVU162
 452              		.loc 1 306 17 is_stmt 0 view .LVU163
 453 0160 0733     		adds	r3, r3, #7
 454              		.loc 1 310 3 view .LVU164
 455 0162 05F10C07 		add	r7, r5, #12
ARM GAS  /tmp/cchO9Z19.s 			page 9


 456              		.loc 1 303 6 view .LVU165
 457 0166 0435     		adds	r5, r5, #4
 458              	.LVL38:
 459              		.loc 1 306 3 is_stmt 1 view .LVU166
 460              		.loc 1 307 51 is_stmt 0 view .LVU167
 461 0168 DB08     		lsrs	r3, r3, #3
 462              		.loc 1 310 3 view .LVU168
 463 016a 3846     		mov	r0, r7
 464              	.LVL39:
 465              		.loc 1 306 15 view .LVU169
 466 016c 46F8043C 		str	r3, [r6, #-4]
 467              		.loc 1 310 3 is_stmt 1 view .LVU170
 468 0170 FFF7FEFF 		bl	chMtxLock
 469              	.LVL40:
 470              		.loc 1 303 6 is_stmt 0 view .LVU171
 471 0174 2B46     		mov	r3, r5
 472              		.loc 1 312 3 is_stmt 1 view .LVU172
 473              		.loc 1 313 5 view .LVU173
 474              		.loc 1 313 5 view .LVU174
 475              		.loc 1 315 5 view .LVU175
 476              	.LVL41:
 477              		.loc 1 315 33 is_stmt 0 view .LVU176
 478 0176 9C42     		cmp	r4, r3
 479 0178 1A68     		ldr	r2, [r3]
 480 017a 05D8     		bhi	.L34
 481              	.L42:
 482              		.loc 1 315 33 view .LVU177
 483 017c AB42     		cmp	r3, r5
 484 017e 03D0     		beq	.L34
 485              	.L29:
 486              		.loc 1 293 26 view .LVU178
 487 0180 1346     		mov	r3, r2
 488              	.LVL42:
 489              		.loc 1 312 3 is_stmt 1 view .LVU179
 490              		.loc 1 313 5 view .LVU180
 491              		.loc 1 313 5 view .LVU181
 492              		.loc 1 315 5 view .LVU182
 493              		.loc 1 315 33 is_stmt 0 view .LVU183
 494 0182 9C42     		cmp	r4, r3
 495 0184 1A68     		ldr	r2, [r3]
 496 0186 F9D9     		bls	.L42
 497              	.L34:
 498              		.loc 1 315 47 discriminator 3 view .LVU184
 499 0188 0AB1     		cbz	r2, .L31
 500              		.loc 1 316 31 view .LVU185
 501 018a 9442     		cmp	r4, r2
 502 018c F8D2     		bcs	.L29
 503              	.L31:
 504              		.loc 1 318 7 is_stmt 1 view .LVU186
 505              		.loc 1 321 11 is_stmt 0 view .LVU187
 506 018e 56F8041C 		ldr	r1, [r6, #-4]
 507              		.loc 1 318 18 view .LVU188
 508 0192 46F8082C 		str	r2, [r6, #-8]
 509              		.loc 1 319 7 is_stmt 1 view .LVU189
 510              		.loc 1 321 11 is_stmt 0 view .LVU190
 511 0196 4A1C     		adds	r2, r1, #1
 512              		.loc 1 319 18 view .LVU191
ARM GAS  /tmp/cchO9Z19.s 			page 10


 513 0198 1C60     		str	r4, [r3]
 514              		.loc 1 321 7 is_stmt 1 view .LVU192
 515              		.loc 1 321 26 is_stmt 0 view .LVU193
 516 019a 56F8081C 		ldr	r1, [r6, #-8]
 517              		.loc 1 321 11 view .LVU194
 518 019e 04EBC200 		add	r0, r4, r2, lsl #3
 519              		.loc 1 321 10 view .LVU195
 520 01a2 8142     		cmp	r1, r0
 521 01a4 0AD0     		beq	.L43
 522              		.loc 1 326 7 is_stmt 1 view .LVU196
 523              		.loc 1 326 12 is_stmt 0 view .LVU197
 524 01a6 5968     		ldr	r1, [r3, #4]
 525 01a8 4A1C     		adds	r2, r1, #1
 526 01aa 03EBC202 		add	r2, r3, r2, lsl #3
 527              		.loc 1 326 10 view .LVU198
 528 01ae 9442     		cmp	r4, r2
 529 01b0 0FD0     		beq	.L44
 530              	.L33:
 531              		.loc 1 331 7 is_stmt 1 view .LVU199
 532              		.loc 1 337 3 view .LVU200
 533 01b2 3846     		mov	r0, r7
 534              		.loc 1 340 1 is_stmt 0 view .LVU201
 535 01b4 BDE8F840 		pop	{r3, r4, r5, r6, r7, lr}
 536              		.cfi_remember_state
 537              		.cfi_restore 14
 538              		.cfi_restore 7
 539              		.cfi_restore 6
 540              		.cfi_restore 5
 541              		.cfi_restore 4
 542              		.cfi_restore 3
 543              		.cfi_def_cfa_offset 0
 544              	.LVL43:
 545              		.loc 1 337 3 view .LVU202
 546 01b8 FFF7FEBF 		b	chMtxUnlock
 547              	.LVL44:
 548              	.L43:
 549              		.cfi_restore_state
 550              		.loc 1 323 9 is_stmt 1 view .LVU203
 551              		.loc 1 324 22 is_stmt 0 view .LVU204
 552 01bc D1E90010 		ldrd	r1, r0, [r1]
 553              		.loc 1 323 21 view .LVU205
 554 01c0 0244     		add	r2, r2, r0
 555 01c2 46E90212 		strd	r1, r2, [r6, #-8]
 556              		.loc 1 324 9 is_stmt 1 view .LVU206
 557              		.loc 1 326 7 view .LVU207
 558              		.loc 1 326 12 is_stmt 0 view .LVU208
 559 01c6 5968     		ldr	r1, [r3, #4]
 560 01c8 4A1C     		adds	r2, r1, #1
 561 01ca 03EBC202 		add	r2, r3, r2, lsl #3
 562              		.loc 1 326 10 view .LVU209
 563 01ce 9442     		cmp	r4, r2
 564 01d0 EFD1     		bne	.L33
 565              	.L44:
 566              		.loc 1 328 9 is_stmt 1 view .LVU210
 567              		.loc 1 329 22 is_stmt 0 view .LVU211
 568 01d2 56E90202 		ldrd	r0, r2, [r6, #-8]
 569              		.loc 1 328 21 view .LVU212
ARM GAS  /tmp/cchO9Z19.s 			page 11


 570 01d6 0132     		adds	r2, r2, #1
 571              		.loc 1 329 20 view .LVU213
 572 01d8 1860     		str	r0, [r3]
 573              		.loc 1 337 3 view .LVU214
 574 01da 3846     		mov	r0, r7
 575              		.loc 1 328 21 view .LVU215
 576 01dc 1144     		add	r1, r1, r2
 577 01de 5960     		str	r1, [r3, #4]
 578              		.loc 1 329 9 is_stmt 1 view .LVU216
 579              		.loc 1 331 7 view .LVU217
 580              		.loc 1 337 3 view .LVU218
 581              		.loc 1 340 1 is_stmt 0 view .LVU219
 582 01e0 BDE8F840 		pop	{r3, r4, r5, r6, r7, lr}
 583              		.cfi_restore 14
 584              		.cfi_restore 7
 585              		.cfi_restore 6
 586              		.cfi_restore 5
 587              		.cfi_restore 4
 588              		.cfi_restore 3
 589              		.cfi_def_cfa_offset 0
 590              	.LVL45:
 591              		.loc 1 337 3 view .LVU220
 592 01e4 FFF7FEBF 		b	chMtxUnlock
 593              	.LVL46:
 594              		.loc 1 337 3 view .LVU221
 595              		.cfi_endproc
 596              	.LFE326:
 597              		.size	chHeapFree, .-chHeapFree
 598              		.align	1
 599 01e8 AFF30080 		.p2align 4,,15
 599      AFF30080 
 600              		.global	chHeapStatus
 601              		.syntax unified
 602              		.thumb
 603              		.thumb_func
 604              		.fpu fpv4-sp-d16
 605              		.type	chHeapStatus, %function
 606              	chHeapStatus:
 607              	.LVL47:
 608              	.LFB327:
 609              		.loc 1 357 77 is_stmt 1 view -0
 610              		.cfi_startproc
 611              		@ args = 0, pretend = 0, frame = 0
 612              		@ frame_needed = 0, uses_anonymous_args = 0
 613              		.loc 1 358 3 view .LVU223
 614              		.loc 1 359 3 view .LVU224
 615              		.loc 1 361 3 view .LVU225
 616              		.loc 1 357 77 is_stmt 0 view .LVU226
 617 01f0 2DE9F843 		push	{r3, r4, r5, r6, r7, r8, r9, lr}
 618              		.cfi_def_cfa_offset 32
 619              		.cfi_offset 3, -32
 620              		.cfi_offset 4, -28
 621              		.cfi_offset 5, -24
 622              		.cfi_offset 6, -20
 623              		.cfi_offset 7, -16
 624              		.cfi_offset 8, -12
 625              		.cfi_offset 9, -8
ARM GAS  /tmp/cchO9Z19.s 			page 12


 626              		.cfi_offset 14, -4
 627              		.loc 1 362 11 view .LVU227
 628 01f4 154C     		ldr	r4, .L60
 629              		.loc 1 357 77 view .LVU228
 630 01f6 8846     		mov	r8, r1
 631 01f8 1746     		mov	r7, r2
 632              		.loc 1 362 11 view .LVU229
 633 01fa 0028     		cmp	r0, #0
 634 01fc 18BF     		it	ne
 635 01fe 0446     		movne	r4, r0
 636              	.LVL48:
 637              		.loc 1 365 3 is_stmt 1 view .LVU230
 638 0200 04F10C09 		add	r9, r4, #12
 639 0204 4846     		mov	r0, r9
 640 0206 FFF7FEFF 		bl	chMtxLock
 641              	.LVL49:
 642              		.loc 1 366 3 view .LVU231
 643              		.loc 1 367 3 view .LVU232
 644              		.loc 1 368 3 view .LVU233
 645              		.loc 1 369 3 view .LVU234
 646              		.loc 1 370 3 view .LVU235
 647              		.loc 1 370 10 is_stmt 0 view .LVU236
 648 020a 6368     		ldr	r3, [r4, #4]
 649              		.loc 1 370 9 view .LVU237
 650 020c D3B1     		cbz	r3, .L51
 651              		.loc 1 367 10 view .LVU238
 652 020e 0024     		movs	r4, #0
 653              	.LVL50:
 654              		.loc 1 366 10 view .LVU239
 655 0210 2546     		mov	r5, r4
 656              		.loc 1 368 5 view .LVU240
 657 0212 2646     		mov	r6, r4
 658              	.LVL51:
 659              	.L48:
 660              	.LBB6:
 661              		.loc 1 371 5 is_stmt 1 view .LVU241
 662              		.loc 1 371 12 is_stmt 0 view .LVU242
 663 0214 5868     		ldr	r0, [r3, #4]
 664              	.LVL52:
 665              		.loc 1 374 5 is_stmt 1 view .LVU243
 666              		.loc 1 374 6 is_stmt 0 view .LVU244
 667 0216 0136     		adds	r6, r6, #1
 668              	.LVL53:
 669              		.loc 1 375 5 is_stmt 1 view .LVU245
 670              	.LBE6:
 671              		.loc 1 370 10 is_stmt 0 view .LVU246
 672 0218 1B68     		ldr	r3, [r3]
 673 021a 8442     		cmp	r4, r0
 674              	.LBB7:
 675              		.loc 1 375 12 view .LVU247
 676 021c 0544     		add	r5, r5, r0
 677              	.LVL54:
 678              		.loc 1 376 5 is_stmt 1 view .LVU248
 679 021e 38BF     		it	cc
 680 0220 0446     		movcc	r4, r0
 681              	.LVL55:
 682              		.loc 1 376 5 is_stmt 0 view .LVU249
ARM GAS  /tmp/cchO9Z19.s 			page 13


 683              	.LBE7:
 684              		.loc 1 370 9 view .LVU250
 685 0222 002B     		cmp	r3, #0
 686 0224 F6D1     		bne	.L48
 687              	.LVL56:
 688              	.L47:
 689              		.loc 1 384 3 is_stmt 1 view .LVU251
 690              		.loc 1 384 6 is_stmt 0 view .LVU252
 691 0226 B8F1000F 		cmp	r8, #0
 692 022a 02D0     		beq	.L49
 693              		.loc 1 385 5 is_stmt 1 view .LVU253
 694              		.loc 1 385 22 is_stmt 0 view .LVU254
 695 022c ED00     		lsls	r5, r5, #3
 696              		.loc 1 385 13 view .LVU255
 697 022e C8F80050 		str	r5, [r8]
 698              	.L49:
 699              		.loc 1 389 3 is_stmt 1 view .LVU256
 700              		.loc 1 389 6 is_stmt 0 view .LVU257
 701 0232 0FB1     		cbz	r7, .L50
 702              		.loc 1 390 5 is_stmt 1 view .LVU258
 703              		.loc 1 390 24 is_stmt 0 view .LVU259
 704 0234 E400     		lsls	r4, r4, #3
 705              		.loc 1 390 15 view .LVU260
 706 0236 3C60     		str	r4, [r7]
 707              	.L50:
 708              		.loc 1 392 3 is_stmt 1 view .LVU261
 709 0238 4846     		mov	r0, r9
 710 023a FFF7FEFF 		bl	chMtxUnlock
 711              	.LVL57:
 712              		.loc 1 394 3 view .LVU262
 713              		.loc 1 395 1 is_stmt 0 view .LVU263
 714 023e 3046     		mov	r0, r6
 715 0240 BDE8F883 		pop	{r3, r4, r5, r6, r7, r8, r9, pc}
 716              	.LVL58:
 717              	.L51:
 718              		.loc 1 367 10 view .LVU264
 719 0244 1C46     		mov	r4, r3
 720              	.LVL59:
 721              		.loc 1 366 10 view .LVU265
 722 0246 1D46     		mov	r5, r3
 723              		.loc 1 368 5 view .LVU266
 724 0248 1E46     		mov	r6, r3
 725 024a ECE7     		b	.L47
 726              	.L61:
 727              		.align	2
 728              	.L60:
 729 024c 00000000 		.word	.LANCHOR0
 730              		.cfi_endproc
 731              	.LFE327:
 732              		.size	chHeapStatus, .-chHeapStatus
 733              		.bss
 734              		.align	2
 735              		.set	.LANCHOR0,. + 0
 736              		.type	default_heap, %object
 737              		.size	default_heap, 28
 738              	default_heap:
 739 0000 00000000 		.space	28
ARM GAS  /tmp/cchO9Z19.s 			page 14


 739      00000000 
 739      00000000 
 739      00000000 
 739      00000000 
 740              		.text
 741              	.Letext0:
 742              		.file 2 "/home/nicolas/arm/gcc-arm-none-eabi-8-2019-q3-update/lib/gcc/arm-none-eabi/8.3.1/include/
 743              		.file 3 "/home/nicolas/arm/gcc-arm-none-eabi-8-2019-q3-update/arm-none-eabi/include/machine/_defau
 744              		.file 4 "/home/nicolas/arm/gcc-arm-none-eabi-8-2019-q3-update/arm-none-eabi/include/sys/_stdint.h"
 745              		.file 5 "../../../external/ChibiOS/os/common/ports/ARMCMx/compilers/GCC/chtypes.h"
 746              		.file 6 "../../../external/ChibiOS/os/rt/include/chsystypes.h"
 747              		.file 7 "../../../external/ChibiOS/os/rt/include/chschd.h"
 748              		.file 8 "../../../external/ChibiOS/os/rt/include/chtime.h"
 749              		.file 9 "../../../external/ChibiOS/os/common/ext/ARM/CMSIS/Core/Include/core_cm7.h"
 750              		.file 10 "../../../external/ChibiOS/os/common/ext/ST/STM32H7xx/system_stm32h7xx.h"
 751              		.file 11 "../../../external/ChibiOS/os/common/ports/ARMCMx/chcore.h"
 752              		.file 12 "../../../external/ChibiOS/os/common/ports/ARMCMx/chcore_v7m.h"
 753              		.file 13 "../../../external/ChibiOS/os/rt/include/chtrace.h"
 754              		.file 14 "../../../external/ChibiOS/os/rt/include/chtm.h"
 755              		.file 15 "../../../external/ChibiOS/os/rt/include/chsem.h"
 756              		.file 16 "../../../external/ChibiOS/os/rt/include/chmtx.h"
 757              		.file 17 "../../../external/ChibiOS/os/rt/include/chsys.h"
 758              		.file 18 "../../../external/ChibiOS/os/rt/include/chregistry.h"
 759              		.file 19 "../../../external/ChibiOS/os/oslib/include/chmemcore.h"
 760              		.file 20 "../../../external/ChibiOS/os/oslib/include/chmemheaps.h"
 761              		.file 21 "../../../external/ChibiOS/os/oslib/include/chmempools.h"
 762              		.file 22 "../../../external/ChibiOS/os/oslib/include/chfactory.h"
 763              		.section	.debug_info,"",%progbits
 764              	.Ldebug_info0:
 765 0000 8C110000 		.4byte	0x118c
 766 0004 0400     		.2byte	0x4
 767 0006 00000000 		.4byte	.Ldebug_abbrev0
 768 000a 04       		.byte	0x4
 769 000b 01       		.uleb128 0x1
 770 000c 4A040000 		.4byte	.LASF179
 771 0010 0C       		.byte	0xc
 772 0011 82060000 		.4byte	.LASF180
 773 0015 BA010000 		.4byte	.LASF181
 774 0019 00000000 		.4byte	.Ltext0
 775 001d 50020000 		.4byte	.Letext0-.Ltext0
 776 0021 00000000 		.4byte	.Ldebug_line0
 777 0025 02       		.uleb128 0x2
 778 0026 04       		.byte	0x4
 779 0027 05       		.byte	0x5
 780 0028 696E7400 		.ascii	"int\000"
 781 002c 03       		.uleb128 0x3
 782 002d F1010000 		.4byte	.LASF4
 783 0031 02       		.byte	0x2
 784 0032 D8       		.byte	0xd8
 785 0033 17       		.byte	0x17
 786 0034 38000000 		.4byte	0x38
 787 0038 04       		.uleb128 0x4
 788 0039 04       		.byte	0x4
 789 003a 07       		.byte	0x7
 790 003b 4C020000 		.4byte	.LASF0
 791 003f 04       		.uleb128 0x4
 792 0040 08       		.byte	0x8
ARM GAS  /tmp/cchO9Z19.s 			page 15


 793 0041 05       		.byte	0x5
 794 0042 FB030000 		.4byte	.LASF1
 795 0046 04       		.uleb128 0x4
 796 0047 08       		.byte	0x8
 797 0048 04       		.byte	0x4
 798 0049 F2060000 		.4byte	.LASF2
 799 004d 04       		.uleb128 0x4
 800 004e 01       		.byte	0x1
 801 004f 06       		.byte	0x6
 802 0050 06010000 		.4byte	.LASF3
 803 0054 03       		.uleb128 0x3
 804 0055 3E000000 		.4byte	.LASF5
 805 0059 03       		.byte	0x3
 806 005a 2B       		.byte	0x2b
 807 005b 18       		.byte	0x18
 808 005c 60000000 		.4byte	0x60
 809 0060 04       		.uleb128 0x4
 810 0061 01       		.byte	0x1
 811 0062 08       		.byte	0x8
 812 0063 00000000 		.4byte	.LASF6
 813 0067 04       		.uleb128 0x4
 814 0068 02       		.byte	0x2
 815 0069 05       		.byte	0x5
 816 006a CE050000 		.4byte	.LASF7
 817 006e 03       		.uleb128 0x3
 818 006f 26070000 		.4byte	.LASF8
 819 0073 03       		.byte	0x3
 820 0074 39       		.byte	0x39
 821 0075 19       		.byte	0x19
 822 0076 7A000000 		.4byte	0x7a
 823 007a 04       		.uleb128 0x4
 824 007b 02       		.byte	0x2
 825 007c 07       		.byte	0x7
 826 007d 16060000 		.4byte	.LASF9
 827 0081 03       		.uleb128 0x3
 828 0082 58030000 		.4byte	.LASF10
 829 0086 03       		.byte	0x3
 830 0087 4D       		.byte	0x4d
 831 0088 18       		.byte	0x18
 832 0089 8D000000 		.4byte	0x8d
 833 008d 04       		.uleb128 0x4
 834 008e 04       		.byte	0x4
 835 008f 05       		.byte	0x5
 836 0090 58010000 		.4byte	.LASF11
 837 0094 03       		.uleb128 0x3
 838 0095 AF010000 		.4byte	.LASF12
 839 0099 03       		.byte	0x3
 840 009a 4F       		.byte	0x4f
 841 009b 19       		.byte	0x19
 842 009c A0000000 		.4byte	0xa0
 843 00a0 04       		.uleb128 0x4
 844 00a1 04       		.byte	0x4
 845 00a2 07       		.byte	0x7
 846 00a3 19010000 		.4byte	.LASF13
 847 00a7 03       		.uleb128 0x3
 848 00a8 35040000 		.4byte	.LASF14
 849 00ac 03       		.byte	0x3
ARM GAS  /tmp/cchO9Z19.s 			page 16


 850 00ad 69       		.byte	0x69
 851 00ae 19       		.byte	0x19
 852 00af B3000000 		.4byte	0xb3
 853 00b3 04       		.uleb128 0x4
 854 00b4 08       		.byte	0x8
 855 00b5 07       		.byte	0x7
 856 00b6 30010000 		.4byte	.LASF15
 857 00ba 03       		.uleb128 0x3
 858 00bb 05060000 		.4byte	.LASF16
 859 00bf 04       		.byte	0x4
 860 00c0 18       		.byte	0x18
 861 00c1 13       		.byte	0x13
 862 00c2 54000000 		.4byte	0x54
 863 00c6 05       		.uleb128 0x5
 864 00c7 BA000000 		.4byte	0xba
 865 00cb 03       		.uleb128 0x3
 866 00cc 80010000 		.4byte	.LASF17
 867 00d0 04       		.byte	0x4
 868 00d1 24       		.byte	0x24
 869 00d2 14       		.byte	0x14
 870 00d3 6E000000 		.4byte	0x6e
 871 00d7 03       		.uleb128 0x3
 872 00d8 A1050000 		.4byte	.LASF18
 873 00dc 04       		.byte	0x4
 874 00dd 2C       		.byte	0x2c
 875 00de 13       		.byte	0x13
 876 00df 81000000 		.4byte	0x81
 877 00e3 06       		.uleb128 0x6
 878 00e4 D7000000 		.4byte	0xd7
 879 00e8 03       		.uleb128 0x3
 880 00e9 C7060000 		.4byte	.LASF19
 881 00ed 04       		.byte	0x4
 882 00ee 30       		.byte	0x30
 883 00ef 14       		.byte	0x14
 884 00f0 94000000 		.4byte	0x94
 885 00f4 03       		.uleb128 0x3
 886 00f5 35000000 		.4byte	.LASF20
 887 00f9 04       		.byte	0x4
 888 00fa 3C       		.byte	0x3c
 889 00fb 14       		.byte	0x14
 890 00fc A7000000 		.4byte	0xa7
 891 0100 03       		.uleb128 0x3
 892 0101 A2030000 		.4byte	.LASF21
 893 0105 05       		.byte	0x5
 894 0106 27       		.byte	0x27
 895 0107 1D       		.byte	0x1d
 896 0108 E8000000 		.4byte	0xe8
 897 010c 03       		.uleb128 0x3
 898 010d 2D030000 		.4byte	.LASF22
 899 0111 05       		.byte	0x5
 900 0112 2A       		.byte	0x2a
 901 0113 1D       		.byte	0x1d
 902 0114 BA000000 		.4byte	0xba
 903 0118 03       		.uleb128 0x3
 904 0119 61010000 		.4byte	.LASF23
 905 011d 05       		.byte	0x5
 906 011e 2B       		.byte	0x2b
ARM GAS  /tmp/cchO9Z19.s 			page 17


 907 011f 1D       		.byte	0x1d
 908 0120 BA000000 		.4byte	0xba
 909 0124 03       		.uleb128 0x3
 910 0125 32050000 		.4byte	.LASF24
 911 0129 05       		.byte	0x5
 912 012a 2C       		.byte	0x2c
 913 012b 1D       		.byte	0x1d
 914 012c BA000000 		.4byte	0xba
 915 0130 03       		.uleb128 0x3
 916 0131 7E050000 		.4byte	.LASF25
 917 0135 05       		.byte	0x5
 918 0136 2E       		.byte	0x2e
 919 0137 1D       		.byte	0x1d
 920 0138 E8000000 		.4byte	0xe8
 921 013c 03       		.uleb128 0x3
 922 013d F8020000 		.4byte	.LASF26
 923 0141 05       		.byte	0x5
 924 0142 2F       		.byte	0x2f
 925 0143 1D       		.byte	0x1d
 926 0144 D7000000 		.4byte	0xd7
 927 0148 03       		.uleb128 0x3
 928 0149 43030000 		.4byte	.LASF27
 929 014d 05       		.byte	0x5
 930 014e 31       		.byte	0x31
 931 014f 1D       		.byte	0x1d
 932 0150 E8000000 		.4byte	0xe8
 933 0154 03       		.uleb128 0x3
 934 0155 3D020000 		.4byte	.LASF28
 935 0159 05       		.byte	0x5
 936 015a 33       		.byte	0x33
 937 015b 1D       		.byte	0x1d
 938 015c D7000000 		.4byte	0xd7
 939 0160 03       		.uleb128 0x3
 940 0161 FE020000 		.4byte	.LASF29
 941 0165 05       		.byte	0x5
 942 0166 34       		.byte	0x34
 943 0167 1D       		.byte	0x1d
 944 0168 E8000000 		.4byte	0xe8
 945 016c 03       		.uleb128 0x3
 946 016d 31070000 		.4byte	.LASF30
 947 0171 06       		.byte	0x6
 948 0172 34       		.byte	0x34
 949 0173 1A       		.byte	0x1a
 950 0174 78010000 		.4byte	0x178
 951 0178 07       		.uleb128 0x7
 952 0179 EE020000 		.4byte	.LASF48
 953 017d 44       		.byte	0x44
 954 017e 07       		.byte	0x7
 955 017f 8E       		.byte	0x8e
 956 0180 08       		.byte	0x8
 957 0181 68020000 		.4byte	0x268
 958 0185 08       		.uleb128 0x8
 959 0186 D0020000 		.4byte	.LASF31
 960 018a 07       		.byte	0x7
 961 018b 8F       		.byte	0x8f
 962 018c 19       		.byte	0x19
 963 018d A1020000 		.4byte	0x2a1
ARM GAS  /tmp/cchO9Z19.s 			page 18


 964 0191 00       		.byte	0
 965 0192 08       		.uleb128 0x8
 966 0193 28040000 		.4byte	.LASF32
 967 0197 07       		.byte	0x7
 968 0198 90       		.byte	0x90
 969 0199 19       		.byte	0x19
 970 019a 30010000 		.4byte	0x130
 971 019e 08       		.byte	0x8
 972 019f 09       		.uleb128 0x9
 973 01a0 63747800 		.ascii	"ctx\000"
 974 01a4 07       		.byte	0x7
 975 01a5 91       		.byte	0x91
 976 01a6 19       		.byte	0x19
 977 01a7 82060000 		.4byte	0x682
 978 01ab 0C       		.byte	0xc
 979 01ac 08       		.uleb128 0x8
 980 01ad 83030000 		.4byte	.LASF33
 981 01b1 07       		.byte	0x7
 982 01b2 93       		.byte	0x93
 983 01b3 1A       		.byte	0x1a
 984 01b4 74020000 		.4byte	0x274
 985 01b8 10       		.byte	0x10
 986 01b9 08       		.uleb128 0x8
 987 01ba 17070000 		.4byte	.LASF34
 988 01be 07       		.byte	0x7
 989 01bf 94       		.byte	0x94
 990 01c0 1A       		.byte	0x1a
 991 01c1 74020000 		.4byte	0x274
 992 01c5 14       		.byte	0x14
 993 01c6 08       		.uleb128 0x8
 994 01c7 CB020000 		.4byte	.LASF35
 995 01cb 07       		.byte	0x7
 996 01cc 9B       		.byte	0x9b
 997 01cd 1A       		.byte	0x1a
 998 01ce DF060000 		.4byte	0x6df
 999 01d2 18       		.byte	0x18
 1000 01d3 08       		.uleb128 0x8
 1001 01d4 FE060000 		.4byte	.LASF36
 1002 01d8 07       		.byte	0x7
 1003 01d9 A4       		.byte	0xa4
 1004 01da 1A       		.byte	0x1a
 1005 01db 26090000 		.4byte	0x926
 1006 01df 1C       		.byte	0x1c
 1007 01e0 08       		.uleb128 0x8
 1008 01e1 52010000 		.4byte	.LASF37
 1009 01e5 07       		.byte	0x7
 1010 01e6 A9       		.byte	0xa9
 1011 01e7 19       		.byte	0x19
 1012 01e8 18010000 		.4byte	0x118
 1013 01ec 20       		.byte	0x20
 1014 01ed 08       		.uleb128 0x8
 1015 01ee 02080000 		.4byte	.LASF38
 1016 01f2 07       		.byte	0x7
 1017 01f3 AD       		.byte	0xad
 1018 01f4 19       		.byte	0x19
 1019 01f5 0C010000 		.4byte	0x10c
 1020 01f9 21       		.byte	0x21
ARM GAS  /tmp/cchO9Z19.s 			page 19


 1021 01fa 08       		.uleb128 0x8
 1022 01fb 45050000 		.4byte	.LASF39
 1023 01ff 07       		.byte	0x7
 1024 0200 B2       		.byte	0xb2
 1025 0201 19       		.byte	0x19
 1026 0202 24010000 		.4byte	0x124
 1027 0206 22       		.byte	0x22
 1028 0207 0A       		.uleb128 0xa
 1029 0208 7500     		.ascii	"u\000"
 1030 020a 07       		.byte	0x7
 1031 020b 0301     		.2byte	0x103
 1032 020d 19       		.byte	0x19
 1033 020e 4C080000 		.4byte	0x84c
 1034 0212 24       		.byte	0x24
 1035 0213 0B       		.uleb128 0xb
 1036 0214 F8010000 		.4byte	.LASF40
 1037 0218 07       		.byte	0x7
 1038 0219 0801     		.2byte	0x108
 1039 021b 19       		.byte	0x19
 1040 021c 7A020000 		.4byte	0x27a
 1041 0220 28       		.byte	0x28
 1042 0221 0B       		.uleb128 0xb
 1043 0222 43020000 		.4byte	.LASF41
 1044 0226 07       		.byte	0x7
 1045 0227 0E01     		.2byte	0x10e
 1046 0229 19       		.byte	0x19
 1047 022a A1020000 		.4byte	0x2a1
 1048 022e 2C       		.byte	0x2c
 1049 022f 0B       		.uleb128 0xb
 1050 0230 05030000 		.4byte	.LASF42
 1051 0234 07       		.byte	0x7
 1052 0235 1401     		.2byte	0x114
 1053 0237 19       		.byte	0x19
 1054 0238 48010000 		.4byte	0x148
 1055 023c 34       		.byte	0x34
 1056 023d 0B       		.uleb128 0xb
 1057 023e 63080000 		.4byte	.LASF43
 1058 0242 07       		.byte	0x7
 1059 0243 1B01     		.2byte	0x11b
 1060 0245 1A       		.byte	0x1a
 1061 0246 20090000 		.4byte	0x920
 1062 024a 38       		.byte	0x38
 1063 024b 0B       		.uleb128 0xb
 1064 024c 91030000 		.4byte	.LASF44
 1065 0250 07       		.byte	0x7
 1066 0251 1F01     		.2byte	0x11f
 1067 0253 19       		.byte	0x19
 1068 0254 30010000 		.4byte	0x130
 1069 0258 3C       		.byte	0x3c
 1070 0259 0B       		.uleb128 0xb
 1071 025a D6020000 		.4byte	.LASF45
 1072 025e 07       		.byte	0x7
 1073 025f 2601     		.2byte	0x126
 1074 0261 1A       		.byte	0x1a
 1075 0262 61030000 		.4byte	0x361
 1076 0266 40       		.byte	0x40
 1077 0267 00       		.byte	0
ARM GAS  /tmp/cchO9Z19.s 			page 20


 1078 0268 03       		.uleb128 0x3
 1079 0269 08080000 		.4byte	.LASF46
 1080 026d 06       		.byte	0x6
 1081 026e 39       		.byte	0x39
 1082 026f 14       		.byte	0x14
 1083 0270 74020000 		.4byte	0x274
 1084 0274 0C       		.uleb128 0xc
 1085 0275 04       		.byte	0x4
 1086 0276 6C010000 		.4byte	0x16c
 1087 027a 03       		.uleb128 0x3
 1088 027b 2A080000 		.4byte	.LASF47
 1089 027f 06       		.byte	0x6
 1090 0280 3E       		.byte	0x3e
 1091 0281 20       		.byte	0x20
 1092 0282 86020000 		.4byte	0x286
 1093 0286 07       		.uleb128 0x7
 1094 0287 D7060000 		.4byte	.LASF49
 1095 028b 04       		.byte	0x4
 1096 028c 07       		.byte	0x7
 1097 028d 7C       		.byte	0x7c
 1098 028e 08       		.byte	0x8
 1099 028f A1020000 		.4byte	0x2a1
 1100 0293 08       		.uleb128 0x8
 1101 0294 C5000000 		.4byte	.LASF50
 1102 0298 07       		.byte	0x7
 1103 0299 7D       		.byte	0x7d
 1104 029a 1A       		.byte	0x1a
 1105 029b 74020000 		.4byte	0x274
 1106 029f 00       		.byte	0
 1107 02a0 00       		.byte	0
 1108 02a1 03       		.uleb128 0x3
 1109 02a2 CA070000 		.4byte	.LASF51
 1110 02a6 06       		.byte	0x6
 1111 02a7 45       		.byte	0x45
 1112 02a8 21       		.byte	0x21
 1113 02a9 AD020000 		.4byte	0x2ad
 1114 02ad 07       		.uleb128 0x7
 1115 02ae CA000000 		.4byte	.LASF52
 1116 02b2 08       		.byte	0x8
 1117 02b3 07       		.byte	0x7
 1118 02b4 83       		.byte	0x83
 1119 02b5 08       		.byte	0x8
 1120 02b6 D5020000 		.4byte	0x2d5
 1121 02ba 08       		.uleb128 0x8
 1122 02bb C5000000 		.4byte	.LASF50
 1123 02bf 07       		.byte	0x7
 1124 02c0 84       		.byte	0x84
 1125 02c1 1A       		.byte	0x1a
 1126 02c2 74020000 		.4byte	0x274
 1127 02c6 00       		.byte	0
 1128 02c7 08       		.uleb128 0x8
 1129 02c8 48000000 		.4byte	.LASF53
 1130 02cc 07       		.byte	0x7
 1131 02cd 85       		.byte	0x85
 1132 02ce 1A       		.byte	0x1a
 1133 02cf 74020000 		.4byte	0x274
 1134 02d3 04       		.byte	0x4
ARM GAS  /tmp/cchO9Z19.s 			page 21


 1135 02d4 00       		.byte	0
 1136 02d5 03       		.uleb128 0x3
 1137 02d6 0E000000 		.4byte	.LASF54
 1138 02da 06       		.byte	0x6
 1139 02db 4C       		.byte	0x4c
 1140 02dc 1E       		.byte	0x1e
 1141 02dd E1020000 		.4byte	0x2e1
 1142 02e1 0D       		.uleb128 0xd
 1143 02e2 35030000 		.4byte	.LASF55
 1144 02e6 1C       		.byte	0x1c
 1145 02e7 07       		.byte	0x7
 1146 02e8 5E01     		.2byte	0x15e
 1147 02ea 08       		.byte	0x8
 1148 02eb 44030000 		.4byte	0x344
 1149 02ef 0B       		.uleb128 0xb
 1150 02f0 D0020000 		.4byte	.LASF31
 1151 02f4 07       		.byte	0x7
 1152 02f5 5F01     		.2byte	0x15f
 1153 02f7 19       		.byte	0x19
 1154 02f8 A1020000 		.4byte	0x2a1
 1155 02fc 00       		.byte	0
 1156 02fd 0B       		.uleb128 0xb
 1157 02fe 28040000 		.4byte	.LASF32
 1158 0302 07       		.byte	0x7
 1159 0303 6001     		.2byte	0x160
 1160 0305 19       		.byte	0x19
 1161 0306 30010000 		.4byte	0x130
 1162 030a 08       		.byte	0x8
 1163 030b 0A       		.uleb128 0xa
 1164 030c 63747800 		.ascii	"ctx\000"
 1165 0310 07       		.byte	0x7
 1166 0311 6201     		.2byte	0x162
 1167 0313 19       		.byte	0x19
 1168 0314 82060000 		.4byte	0x682
 1169 0318 0C       		.byte	0xc
 1170 0319 0B       		.uleb128 0xb
 1171 031a 83030000 		.4byte	.LASF33
 1172 031e 07       		.byte	0x7
 1173 031f 6501     		.2byte	0x165
 1174 0321 1A       		.byte	0x1a
 1175 0322 74020000 		.4byte	0x274
 1176 0326 10       		.byte	0x10
 1177 0327 0B       		.uleb128 0xb
 1178 0328 17070000 		.4byte	.LASF34
 1179 032c 07       		.byte	0x7
 1180 032d 6601     		.2byte	0x166
 1181 032f 1A       		.byte	0x1a
 1182 0330 74020000 		.4byte	0x274
 1183 0334 14       		.byte	0x14
 1184 0335 0B       		.uleb128 0xb
 1185 0336 2D040000 		.4byte	.LASF56
 1186 033a 07       		.byte	0x7
 1187 033b 6901     		.2byte	0x169
 1188 033d 1A       		.byte	0x1a
 1189 033e 74020000 		.4byte	0x274
 1190 0342 18       		.byte	0x18
 1191 0343 00       		.byte	0
ARM GAS  /tmp/cchO9Z19.s 			page 22


 1192 0344 03       		.uleb128 0x3
 1193 0345 39080000 		.4byte	.LASF57
 1194 0349 06       		.byte	0x6
 1195 034a 51       		.byte	0x51
 1196 034b 10       		.byte	0x10
 1197 034c 50030000 		.4byte	0x350
 1198 0350 0C       		.uleb128 0xc
 1199 0351 04       		.byte	0x4
 1200 0352 56030000 		.4byte	0x356
 1201 0356 0E       		.uleb128 0xe
 1202 0357 61030000 		.4byte	0x361
 1203 035b 0F       		.uleb128 0xf
 1204 035c 61030000 		.4byte	0x361
 1205 0360 00       		.byte	0
 1206 0361 10       		.uleb128 0x10
 1207 0362 04       		.byte	0x4
 1208 0363 03       		.uleb128 0x3
 1209 0364 4A050000 		.4byte	.LASF58
 1210 0368 06       		.byte	0x6
 1211 0369 56       		.byte	0x56
 1212 036a 21       		.byte	0x21
 1213 036b 6F030000 		.4byte	0x36f
 1214 036f 0D       		.uleb128 0xd
 1215 0370 40060000 		.4byte	.LASF59
 1216 0374 14       		.byte	0x14
 1217 0375 07       		.byte	0x7
 1218 0376 3901     		.2byte	0x139
 1219 0378 08       		.byte	0x8
 1220 0379 C4030000 		.4byte	0x3c4
 1221 037d 0B       		.uleb128 0xb
 1222 037e C5000000 		.4byte	.LASF50
 1223 0382 07       		.byte	0x7
 1224 0383 3A01     		.2byte	0x13a
 1225 0385 1A       		.byte	0x1a
 1226 0386 2C090000 		.4byte	0x92c
 1227 038a 00       		.byte	0
 1228 038b 0B       		.uleb128 0xb
 1229 038c 48000000 		.4byte	.LASF53
 1230 0390 07       		.byte	0x7
 1231 0391 3B01     		.2byte	0x13b
 1232 0393 1A       		.byte	0x1a
 1233 0394 2C090000 		.4byte	0x92c
 1234 0398 04       		.byte	0x4
 1235 0399 0B       		.uleb128 0xb
 1236 039a AC000000 		.4byte	.LASF60
 1237 039e 07       		.byte	0x7
 1238 039f 3C01     		.2byte	0x13c
 1239 03a1 19       		.byte	0x19
 1240 03a2 BE040000 		.4byte	0x4be
 1241 03a6 08       		.byte	0x8
 1242 03a7 0B       		.uleb128 0xb
 1243 03a8 7B010000 		.4byte	.LASF61
 1244 03ac 07       		.byte	0x7
 1245 03ad 3D01     		.2byte	0x13d
 1246 03af 19       		.byte	0x19
 1247 03b0 44030000 		.4byte	0x344
 1248 03b4 0C       		.byte	0xc
ARM GAS  /tmp/cchO9Z19.s 			page 23


 1249 03b5 0A       		.uleb128 0xa
 1250 03b6 70617200 		.ascii	"par\000"
 1251 03ba 07       		.byte	0x7
 1252 03bb 3F01     		.2byte	0x13f
 1253 03bd 1A       		.byte	0x1a
 1254 03be 61030000 		.4byte	0x361
 1255 03c2 10       		.byte	0x10
 1256 03c3 00       		.byte	0
 1257 03c4 03       		.uleb128 0x3
 1258 03c5 62030000 		.4byte	.LASF62
 1259 03c9 06       		.byte	0x6
 1260 03ca 5B       		.byte	0x5b
 1261 03cb 28       		.byte	0x28
 1262 03cc D0030000 		.4byte	0x3d0
 1263 03d0 0D       		.uleb128 0xd
 1264 03d1 26020000 		.4byte	.LASF63
 1265 03d5 10       		.byte	0x10
 1266 03d6 07       		.byte	0x7
 1267 03d7 4901     		.2byte	0x149
 1268 03d9 08       		.byte	0x8
 1269 03da 17040000 		.4byte	0x417
 1270 03de 0B       		.uleb128 0xb
 1271 03df C5000000 		.4byte	.LASF50
 1272 03e3 07       		.byte	0x7
 1273 03e4 4A01     		.2byte	0x14a
 1274 03e6 1A       		.byte	0x1a
 1275 03e7 2C090000 		.4byte	0x92c
 1276 03eb 00       		.byte	0
 1277 03ec 0B       		.uleb128 0xb
 1278 03ed 48000000 		.4byte	.LASF53
 1279 03f1 07       		.byte	0x7
 1280 03f2 4C01     		.2byte	0x14c
 1281 03f4 1A       		.byte	0x1a
 1282 03f5 2C090000 		.4byte	0x92c
 1283 03f9 04       		.byte	0x4
 1284 03fa 0B       		.uleb128 0xb
 1285 03fb AC000000 		.4byte	.LASF60
 1286 03ff 07       		.byte	0x7
 1287 0400 4E01     		.2byte	0x14e
 1288 0402 19       		.byte	0x19
 1289 0403 BE040000 		.4byte	0x4be
 1290 0407 08       		.byte	0x8
 1291 0408 0B       		.uleb128 0xb
 1292 0409 D8050000 		.4byte	.LASF64
 1293 040d 07       		.byte	0x7
 1294 040e 5601     		.2byte	0x156
 1295 0410 19       		.byte	0x19
 1296 0411 B2040000 		.4byte	0x4b2
 1297 0415 0C       		.byte	0xc
 1298 0416 00       		.byte	0
 1299 0417 03       		.uleb128 0x3
 1300 0418 81020000 		.4byte	.LASF65
 1301 041c 06       		.byte	0x6
 1302 041d 60       		.byte	0x60
 1303 041e 20       		.byte	0x20
 1304 041f 23040000 		.4byte	0x423
 1305 0423 11       		.uleb128 0x11
ARM GAS  /tmp/cchO9Z19.s 			page 24


 1306 0424 8B050000 		.4byte	.LASF66
 1307 0428 0C08     		.2byte	0x80c
 1308 042a 07       		.byte	0x7
 1309 042b 7001     		.2byte	0x170
 1310 042d 08       		.byte	0x8
 1311 042e 4F040000 		.4byte	0x44f
 1312 0432 0B       		.uleb128 0xb
 1313 0433 6F070000 		.4byte	.LASF67
 1314 0437 07       		.byte	0x7
 1315 0438 7801     		.2byte	0x178
 1316 043a 24       		.byte	0x24
 1317 043b E5060000 		.4byte	0x6e5
 1318 043f 00       		.byte	0
 1319 0440 0B       		.uleb128 0xb
 1320 0441 4C080000 		.4byte	.LASF68
 1321 0445 07       		.byte	0x7
 1322 0446 8701     		.2byte	0x187
 1323 0448 19       		.byte	0x19
 1324 0449 1D080000 		.4byte	0x81d
 1325 044d 04       		.byte	0x4
 1326 044e 00       		.byte	0
 1327 044f 03       		.uleb128 0x3
 1328 0450 19030000 		.4byte	.LASF69
 1329 0454 06       		.byte	0x6
 1330 0455 65       		.byte	0x65
 1331 0456 1A       		.byte	0x1a
 1332 0457 5B040000 		.4byte	0x45b
 1333 045b 11       		.uleb128 0x11
 1334 045c FB050000 		.4byte	.LASF70
 1335 0460 8008     		.2byte	0x880
 1336 0462 07       		.byte	0x7
 1337 0463 9001     		.2byte	0x190
 1338 0465 08       		.byte	0x8
 1339 0466 B2040000 		.4byte	0x4b2
 1340 046a 0B       		.uleb128 0xb
 1341 046b E6070000 		.4byte	.LASF71
 1342 046f 07       		.byte	0x7
 1343 0470 9401     		.2byte	0x194
 1344 0472 19       		.byte	0x19
 1345 0473 D5020000 		.4byte	0x2d5
 1346 0477 00       		.byte	0
 1347 0478 0B       		.uleb128 0xb
 1348 0479 5F000000 		.4byte	.LASF72
 1349 047d 07       		.byte	0x7
 1350 047e 9801     		.2byte	0x198
 1351 0480 19       		.byte	0x19
 1352 0481 C4030000 		.4byte	0x3c4
 1353 0485 1C       		.byte	0x1c
 1354 0486 0A       		.uleb128 0xa
 1355 0487 64626700 		.ascii	"dbg\000"
 1356 048b 07       		.byte	0x7
 1357 048c 9C01     		.2byte	0x19c
 1358 048e 19       		.byte	0x19
 1359 048f 17040000 		.4byte	0x417
 1360 0493 2C       		.byte	0x2c
 1361 0494 12       		.uleb128 0x12
 1362 0495 99000000 		.4byte	.LASF73
ARM GAS  /tmp/cchO9Z19.s 			page 25


 1363 0499 07       		.byte	0x7
 1364 049a A001     		.2byte	0x1a0
 1365 049c 19       		.byte	0x19
 1366 049d 6C010000 		.4byte	0x16c
 1367 04a1 3808     		.2byte	0x838
 1368 04a3 13       		.uleb128 0x13
 1369 04a4 746D00   		.ascii	"tm\000"
 1370 04a7 07       		.byte	0x7
 1371 04a8 A501     		.2byte	0x1a5
 1372 04aa 19       		.byte	0x19
 1373 04ab 40080000 		.4byte	0x840
 1374 04af 7C08     		.2byte	0x87c
 1375 04b1 00       		.byte	0
 1376 04b2 03       		.uleb128 0x3
 1377 04b3 47070000 		.4byte	.LASF74
 1378 04b7 08       		.byte	0x8
 1379 04b8 6D       		.byte	0x6d
 1380 04b9 12       		.byte	0x12
 1381 04ba E8000000 		.4byte	0xe8
 1382 04be 03       		.uleb128 0x3
 1383 04bf 18020000 		.4byte	.LASF75
 1384 04c3 08       		.byte	0x8
 1385 04c4 79       		.byte	0x79
 1386 04c5 12       		.byte	0x12
 1387 04c6 E8000000 		.4byte	0xe8
 1388 04ca 14       		.uleb128 0x14
 1389 04cb B2000000 		.4byte	.LASF76
 1390 04cf 09       		.byte	0x9
 1391 04d0 220A     		.2byte	0xa22
 1392 04d2 19       		.byte	0x19
 1393 04d3 E3000000 		.4byte	0xe3
 1394 04d7 15       		.uleb128 0x15
 1395 04d8 59020000 		.4byte	.LASF77
 1396 04dc 0A       		.byte	0xa
 1397 04dd 3A       		.byte	0x3a
 1398 04de 11       		.byte	0x11
 1399 04df E8000000 		.4byte	0xe8
 1400 04e3 15       		.uleb128 0x15
 1401 04e4 E4000000 		.4byte	.LASF78
 1402 04e8 0A       		.byte	0xa
 1403 04e9 3B       		.byte	0x3b
 1404 04ea 11       		.byte	0x11
 1405 04eb E8000000 		.4byte	0xe8
 1406 04ef 16       		.uleb128 0x16
 1407 04f0 C6000000 		.4byte	0xc6
 1408 04f4 FF040000 		.4byte	0x4ff
 1409 04f8 17       		.uleb128 0x17
 1410 04f9 38000000 		.4byte	0x38
 1411 04fd 0F       		.byte	0xf
 1412 04fe 00       		.byte	0
 1413 04ff 05       		.uleb128 0x5
 1414 0500 EF040000 		.4byte	0x4ef
 1415 0504 15       		.uleb128 0x15
 1416 0505 70020000 		.4byte	.LASF79
 1417 0509 0A       		.byte	0xa
 1418 050a 3C       		.byte	0x3c
 1419 050b 17       		.byte	0x17
ARM GAS  /tmp/cchO9Z19.s 			page 26


 1420 050c FF040000 		.4byte	0x4ff
 1421 0510 03       		.uleb128 0x3
 1422 0511 78030000 		.4byte	.LASF80
 1423 0515 0B       		.byte	0xb
 1424 0516 68       		.byte	0x68
 1425 0517 12       		.byte	0x12
 1426 0518 F4000000 		.4byte	0xf4
 1427 051c 0D       		.uleb128 0xd
 1428 051d 4D000000 		.4byte	.LASF81
 1429 0521 64       		.byte	0x64
 1430 0522 0C       		.byte	0xc
 1431 0523 8501     		.2byte	0x185
 1432 0525 08       		.byte	0x8
 1433 0526 82060000 		.4byte	0x682
 1434 052a 0A       		.uleb128 0xa
 1435 052b 73313600 		.ascii	"s16\000"
 1436 052f 0C       		.byte	0xc
 1437 0530 8D01     		.2byte	0x18d
 1438 0532 11       		.byte	0x11
 1439 0533 E8000000 		.4byte	0xe8
 1440 0537 00       		.byte	0
 1441 0538 0A       		.uleb128 0xa
 1442 0539 73313700 		.ascii	"s17\000"
 1443 053d 0C       		.byte	0xc
 1444 053e 8E01     		.2byte	0x18e
 1445 0540 11       		.byte	0x11
 1446 0541 E8000000 		.4byte	0xe8
 1447 0545 04       		.byte	0x4
 1448 0546 0A       		.uleb128 0xa
 1449 0547 73313800 		.ascii	"s18\000"
 1450 054b 0C       		.byte	0xc
 1451 054c 8F01     		.2byte	0x18f
 1452 054e 11       		.byte	0x11
 1453 054f E8000000 		.4byte	0xe8
 1454 0553 08       		.byte	0x8
 1455 0554 0A       		.uleb128 0xa
 1456 0555 73313900 		.ascii	"s19\000"
 1457 0559 0C       		.byte	0xc
 1458 055a 9001     		.2byte	0x190
 1459 055c 11       		.byte	0x11
 1460 055d E8000000 		.4byte	0xe8
 1461 0561 0C       		.byte	0xc
 1462 0562 0A       		.uleb128 0xa
 1463 0563 73323000 		.ascii	"s20\000"
 1464 0567 0C       		.byte	0xc
 1465 0568 9101     		.2byte	0x191
 1466 056a 11       		.byte	0x11
 1467 056b E8000000 		.4byte	0xe8
 1468 056f 10       		.byte	0x10
 1469 0570 0A       		.uleb128 0xa
 1470 0571 73323100 		.ascii	"s21\000"
 1471 0575 0C       		.byte	0xc
 1472 0576 9201     		.2byte	0x192
 1473 0578 11       		.byte	0x11
 1474 0579 E8000000 		.4byte	0xe8
 1475 057d 14       		.byte	0x14
 1476 057e 0A       		.uleb128 0xa
ARM GAS  /tmp/cchO9Z19.s 			page 27


 1477 057f 73323200 		.ascii	"s22\000"
 1478 0583 0C       		.byte	0xc
 1479 0584 9301     		.2byte	0x193
 1480 0586 11       		.byte	0x11
 1481 0587 E8000000 		.4byte	0xe8
 1482 058b 18       		.byte	0x18
 1483 058c 0A       		.uleb128 0xa
 1484 058d 73323300 		.ascii	"s23\000"
 1485 0591 0C       		.byte	0xc
 1486 0592 9401     		.2byte	0x194
 1487 0594 11       		.byte	0x11
 1488 0595 E8000000 		.4byte	0xe8
 1489 0599 1C       		.byte	0x1c
 1490 059a 0A       		.uleb128 0xa
 1491 059b 73323400 		.ascii	"s24\000"
 1492 059f 0C       		.byte	0xc
 1493 05a0 9501     		.2byte	0x195
 1494 05a2 11       		.byte	0x11
 1495 05a3 E8000000 		.4byte	0xe8
 1496 05a7 20       		.byte	0x20
 1497 05a8 0A       		.uleb128 0xa
 1498 05a9 73323500 		.ascii	"s25\000"
 1499 05ad 0C       		.byte	0xc
 1500 05ae 9601     		.2byte	0x196
 1501 05b0 11       		.byte	0x11
 1502 05b1 E8000000 		.4byte	0xe8
 1503 05b5 24       		.byte	0x24
 1504 05b6 0A       		.uleb128 0xa
 1505 05b7 73323600 		.ascii	"s26\000"
 1506 05bb 0C       		.byte	0xc
 1507 05bc 9701     		.2byte	0x197
 1508 05be 11       		.byte	0x11
 1509 05bf E8000000 		.4byte	0xe8
 1510 05c3 28       		.byte	0x28
 1511 05c4 0A       		.uleb128 0xa
 1512 05c5 73323700 		.ascii	"s27\000"
 1513 05c9 0C       		.byte	0xc
 1514 05ca 9801     		.2byte	0x198
 1515 05cc 11       		.byte	0x11
 1516 05cd E8000000 		.4byte	0xe8
 1517 05d1 2C       		.byte	0x2c
 1518 05d2 0A       		.uleb128 0xa
 1519 05d3 73323800 		.ascii	"s28\000"
 1520 05d7 0C       		.byte	0xc
 1521 05d8 9901     		.2byte	0x199
 1522 05da 11       		.byte	0x11
 1523 05db E8000000 		.4byte	0xe8
 1524 05df 30       		.byte	0x30
 1525 05e0 0A       		.uleb128 0xa
 1526 05e1 73323900 		.ascii	"s29\000"
 1527 05e5 0C       		.byte	0xc
 1528 05e6 9A01     		.2byte	0x19a
 1529 05e8 11       		.byte	0x11
 1530 05e9 E8000000 		.4byte	0xe8
 1531 05ed 34       		.byte	0x34
 1532 05ee 0A       		.uleb128 0xa
 1533 05ef 73333000 		.ascii	"s30\000"
ARM GAS  /tmp/cchO9Z19.s 			page 28


 1534 05f3 0C       		.byte	0xc
 1535 05f4 9B01     		.2byte	0x19b
 1536 05f6 11       		.byte	0x11
 1537 05f7 E8000000 		.4byte	0xe8
 1538 05fb 38       		.byte	0x38
 1539 05fc 0A       		.uleb128 0xa
 1540 05fd 73333100 		.ascii	"s31\000"
 1541 0601 0C       		.byte	0xc
 1542 0602 9C01     		.2byte	0x19c
 1543 0604 11       		.byte	0x11
 1544 0605 E8000000 		.4byte	0xe8
 1545 0609 3C       		.byte	0x3c
 1546 060a 0A       		.uleb128 0xa
 1547 060b 723400   		.ascii	"r4\000"
 1548 060e 0C       		.byte	0xc
 1549 060f 9E01     		.2byte	0x19e
 1550 0611 11       		.byte	0x11
 1551 0612 E8000000 		.4byte	0xe8
 1552 0616 40       		.byte	0x40
 1553 0617 0A       		.uleb128 0xa
 1554 0618 723500   		.ascii	"r5\000"
 1555 061b 0C       		.byte	0xc
 1556 061c 9F01     		.2byte	0x19f
 1557 061e 11       		.byte	0x11
 1558 061f E8000000 		.4byte	0xe8
 1559 0623 44       		.byte	0x44
 1560 0624 0A       		.uleb128 0xa
 1561 0625 723600   		.ascii	"r6\000"
 1562 0628 0C       		.byte	0xc
 1563 0629 A001     		.2byte	0x1a0
 1564 062b 11       		.byte	0x11
 1565 062c E8000000 		.4byte	0xe8
 1566 0630 48       		.byte	0x48
 1567 0631 0A       		.uleb128 0xa
 1568 0632 723700   		.ascii	"r7\000"
 1569 0635 0C       		.byte	0xc
 1570 0636 A101     		.2byte	0x1a1
 1571 0638 11       		.byte	0x11
 1572 0639 E8000000 		.4byte	0xe8
 1573 063d 4C       		.byte	0x4c
 1574 063e 0A       		.uleb128 0xa
 1575 063f 723800   		.ascii	"r8\000"
 1576 0642 0C       		.byte	0xc
 1577 0643 A201     		.2byte	0x1a2
 1578 0645 11       		.byte	0x11
 1579 0646 E8000000 		.4byte	0xe8
 1580 064a 50       		.byte	0x50
 1581 064b 0A       		.uleb128 0xa
 1582 064c 723900   		.ascii	"r9\000"
 1583 064f 0C       		.byte	0xc
 1584 0650 A301     		.2byte	0x1a3
 1585 0652 11       		.byte	0x11
 1586 0653 E8000000 		.4byte	0xe8
 1587 0657 54       		.byte	0x54
 1588 0658 0A       		.uleb128 0xa
 1589 0659 72313000 		.ascii	"r10\000"
 1590 065d 0C       		.byte	0xc
ARM GAS  /tmp/cchO9Z19.s 			page 29


 1591 065e A401     		.2byte	0x1a4
 1592 0660 11       		.byte	0x11
 1593 0661 E8000000 		.4byte	0xe8
 1594 0665 58       		.byte	0x58
 1595 0666 0A       		.uleb128 0xa
 1596 0667 72313100 		.ascii	"r11\000"
 1597 066b 0C       		.byte	0xc
 1598 066c A501     		.2byte	0x1a5
 1599 066e 11       		.byte	0x11
 1600 066f E8000000 		.4byte	0xe8
 1601 0673 5C       		.byte	0x5c
 1602 0674 0A       		.uleb128 0xa
 1603 0675 6C7200   		.ascii	"lr\000"
 1604 0678 0C       		.byte	0xc
 1605 0679 A601     		.2byte	0x1a6
 1606 067b 11       		.byte	0x11
 1607 067c E8000000 		.4byte	0xe8
 1608 0680 60       		.byte	0x60
 1609 0681 00       		.byte	0
 1610 0682 0D       		.uleb128 0xd
 1611 0683 EE030000 		.4byte	.LASF82
 1612 0687 04       		.byte	0x4
 1613 0688 0C       		.byte	0xc
 1614 0689 A901     		.2byte	0x1a9
 1615 068b 08       		.byte	0x8
 1616 068c 9E060000 		.4byte	0x69e
 1617 0690 0A       		.uleb128 0xa
 1618 0691 737000   		.ascii	"sp\000"
 1619 0694 0C       		.byte	0xc
 1620 0695 AA01     		.2byte	0x1aa
 1621 0697 1A       		.byte	0x1a
 1622 0698 9E060000 		.4byte	0x69e
 1623 069c 00       		.byte	0
 1624 069d 00       		.byte	0
 1625 069e 0C       		.uleb128 0xc
 1626 069f 04       		.byte	0x4
 1627 06a0 1C050000 		.4byte	0x51c
 1628 06a4 18       		.uleb128 0x18
 1629 06a5 08       		.byte	0x8
 1630 06a6 0D       		.byte	0xd
 1631 06a7 7F       		.byte	0x7f
 1632 06a8 05       		.byte	0x5
 1633 06a9 C8060000 		.4byte	0x6c8
 1634 06ad 09       		.uleb128 0x9
 1635 06ae 6E747000 		.ascii	"ntp\000"
 1636 06b2 0D       		.byte	0xd
 1637 06b3 83       		.byte	0x83
 1638 06b4 1E       		.byte	0x1e
 1639 06b5 74020000 		.4byte	0x274
 1640 06b9 00       		.byte	0
 1641 06ba 08       		.uleb128 0x8
 1642 06bb ED050000 		.4byte	.LASF83
 1643 06bf 0D       		.byte	0xd
 1644 06c0 87       		.byte	0x87
 1645 06c1 1E       		.byte	0x1e
 1646 06c2 61030000 		.4byte	0x361
 1647 06c6 04       		.byte	0x4
ARM GAS  /tmp/cchO9Z19.s 			page 30


 1648 06c7 00       		.byte	0
 1649 06c8 18       		.uleb128 0x18
 1650 06c9 04       		.byte	0x4
 1651 06ca 0D       		.byte	0xd
 1652 06cb 8C       		.byte	0x8c
 1653 06cc 05       		.byte	0x5
 1654 06cd DF060000 		.4byte	0x6df
 1655 06d1 08       		.uleb128 0x8
 1656 06d2 CB020000 		.4byte	.LASF35
 1657 06d6 0D       		.byte	0xd
 1658 06d7 90       		.byte	0x90
 1659 06d8 1E       		.byte	0x1e
 1660 06d9 DF060000 		.4byte	0x6df
 1661 06dd 00       		.byte	0
 1662 06de 00       		.byte	0
 1663 06df 0C       		.uleb128 0xc
 1664 06e0 04       		.byte	0x4
 1665 06e1 F1060000 		.4byte	0x6f1
 1666 06e5 06       		.uleb128 0x6
 1667 06e6 DF060000 		.4byte	0x6df
 1668 06ea 04       		.uleb128 0x4
 1669 06eb 01       		.byte	0x1
 1670 06ec 08       		.byte	0x8
 1671 06ed 12070000 		.4byte	.LASF84
 1672 06f1 05       		.uleb128 0x5
 1673 06f2 EA060000 		.4byte	0x6ea
 1674 06f6 18       		.uleb128 0x18
 1675 06f7 04       		.byte	0x4
 1676 06f8 0D       		.byte	0xd
 1677 06f9 95       		.byte	0x95
 1678 06fa 05       		.byte	0x5
 1679 06fb 0D070000 		.4byte	0x70d
 1680 06ff 08       		.uleb128 0x8
 1681 0700 39060000 		.4byte	.LASF85
 1682 0704 0D       		.byte	0xd
 1683 0705 99       		.byte	0x99
 1684 0706 1E       		.byte	0x1e
 1685 0707 DF060000 		.4byte	0x6df
 1686 070b 00       		.byte	0
 1687 070c 00       		.byte	0
 1688 070d 18       		.uleb128 0x18
 1689 070e 08       		.byte	0x8
 1690 070f 0D       		.byte	0xd
 1691 0710 9E       		.byte	0x9e
 1692 0711 05       		.byte	0x5
 1693 0712 31070000 		.4byte	0x731
 1694 0716 09       		.uleb128 0x9
 1695 0717 75703100 		.ascii	"up1\000"
 1696 071b 0D       		.byte	0xd
 1697 071c A2       		.byte	0xa2
 1698 071d 1E       		.byte	0x1e
 1699 071e 61030000 		.4byte	0x361
 1700 0722 00       		.byte	0
 1701 0723 09       		.uleb128 0x9
 1702 0724 75703200 		.ascii	"up2\000"
 1703 0728 0D       		.byte	0xd
 1704 0729 A6       		.byte	0xa6
ARM GAS  /tmp/cchO9Z19.s 			page 31


 1705 072a 1E       		.byte	0x1e
 1706 072b 61030000 		.4byte	0x361
 1707 072f 04       		.byte	0x4
 1708 0730 00       		.byte	0
 1709 0731 19       		.uleb128 0x19
 1710 0732 08       		.byte	0x8
 1711 0733 0D       		.byte	0xd
 1712 0734 7B       		.byte	0x7b
 1713 0735 03       		.byte	0x3
 1714 0736 6A070000 		.4byte	0x76a
 1715 073a 1A       		.uleb128 0x1a
 1716 073b 737700   		.ascii	"sw\000"
 1717 073e 0D       		.byte	0xd
 1718 073f 88       		.byte	0x88
 1719 0740 07       		.byte	0x7
 1720 0741 A4060000 		.4byte	0x6a4
 1721 0745 1A       		.uleb128 0x1a
 1722 0746 69737200 		.ascii	"isr\000"
 1723 074a 0D       		.byte	0xd
 1724 074b 91       		.byte	0x91
 1725 074c 07       		.byte	0x7
 1726 074d C8060000 		.4byte	0x6c8
 1727 0751 1B       		.uleb128 0x1b
 1728 0752 94000000 		.4byte	.LASF86
 1729 0756 0D       		.byte	0xd
 1730 0757 9A       		.byte	0x9a
 1731 0758 07       		.byte	0x7
 1732 0759 F6060000 		.4byte	0x6f6
 1733 075d 1B       		.uleb128 0x1b
 1734 075e 86050000 		.4byte	.LASF87
 1735 0762 0D       		.byte	0xd
 1736 0763 A7       		.byte	0xa7
 1737 0764 07       		.byte	0x7
 1738 0765 0D070000 		.4byte	0x70d
 1739 0769 00       		.byte	0
 1740 076a 18       		.uleb128 0x18
 1741 076b 10       		.byte	0x10
 1742 076c 0D       		.byte	0xd
 1743 076d 68       		.byte	0x68
 1744 076e 09       		.byte	0x9
 1745 076f BC070000 		.4byte	0x7bc
 1746 0773 1C       		.uleb128 0x1c
 1747 0774 6F000000 		.4byte	.LASF88
 1748 0778 0D       		.byte	0xd
 1749 0779 6C       		.byte	0x6c
 1750 077a 19       		.byte	0x19
 1751 077b E8000000 		.4byte	0xe8
 1752 077f 04       		.byte	0x4
 1753 0780 03       		.byte	0x3
 1754 0781 1D       		.byte	0x1d
 1755 0782 00       		.byte	0
 1756 0783 1C       		.uleb128 0x1c
 1757 0784 52010000 		.4byte	.LASF37
 1758 0788 0D       		.byte	0xd
 1759 0789 70       		.byte	0x70
 1760 078a 19       		.byte	0x19
 1761 078b E8000000 		.4byte	0xe8
ARM GAS  /tmp/cchO9Z19.s 			page 32


 1762 078f 04       		.byte	0x4
 1763 0790 05       		.byte	0x5
 1764 0791 18       		.byte	0x18
 1765 0792 00       		.byte	0
 1766 0793 1C       		.uleb128 0x1c
 1767 0794 89030000 		.4byte	.LASF89
 1768 0798 0D       		.byte	0xd
 1769 0799 76       		.byte	0x76
 1770 079a 19       		.byte	0x19
 1771 079b E8000000 		.4byte	0xe8
 1772 079f 04       		.byte	0x4
 1773 07a0 18       		.byte	0x18
 1774 07a1 00       		.byte	0
 1775 07a2 00       		.byte	0
 1776 07a3 08       		.uleb128 0x8
 1777 07a4 23040000 		.4byte	.LASF90
 1778 07a8 0D       		.byte	0xd
 1779 07a9 7A       		.byte	0x7a
 1780 07aa 19       		.byte	0x19
 1781 07ab B2040000 		.4byte	0x4b2
 1782 07af 04       		.byte	0x4
 1783 07b0 09       		.uleb128 0x9
 1784 07b1 7500     		.ascii	"u\000"
 1785 07b3 0D       		.byte	0xd
 1786 07b4 A8       		.byte	0xa8
 1787 07b5 05       		.byte	0x5
 1788 07b6 31070000 		.4byte	0x731
 1789 07ba 08       		.byte	0x8
 1790 07bb 00       		.byte	0
 1791 07bc 03       		.uleb128 0x3
 1792 07bd 6A010000 		.4byte	.LASF91
 1793 07c1 0D       		.byte	0xd
 1794 07c2 A9       		.byte	0xa9
 1795 07c3 03       		.byte	0x3
 1796 07c4 6A070000 		.4byte	0x76a
 1797 07c8 1D       		.uleb128 0x1d
 1798 07c9 0808     		.2byte	0x808
 1799 07cb 0D       		.byte	0xd
 1800 07cc AF       		.byte	0xaf
 1801 07cd 09       		.byte	0x9
 1802 07ce 07080000 		.4byte	0x807
 1803 07d2 08       		.uleb128 0x8
 1804 07d3 8A000000 		.4byte	.LASF92
 1805 07d7 0D       		.byte	0xd
 1806 07d8 B3       		.byte	0xb3
 1807 07d9 19       		.byte	0x19
 1808 07da CB000000 		.4byte	0xcb
 1809 07de 00       		.byte	0
 1810 07df 08       		.uleb128 0x8
 1811 07e0 2B010000 		.4byte	.LASF93
 1812 07e4 0D       		.byte	0xd
 1813 07e5 B7       		.byte	0xb7
 1814 07e6 19       		.byte	0x19
 1815 07e7 CB000000 		.4byte	0xcb
 1816 07eb 02       		.byte	0x2
 1817 07ec 09       		.uleb128 0x9
 1818 07ed 70747200 		.ascii	"ptr\000"
ARM GAS  /tmp/cchO9Z19.s 			page 33


 1819 07f1 0D       		.byte	0xd
 1820 07f2 BB       		.byte	0xbb
 1821 07f3 1A       		.byte	0x1a
 1822 07f4 07080000 		.4byte	0x807
 1823 07f8 04       		.byte	0x4
 1824 07f9 08       		.uleb128 0x8
 1825 07fa 9F010000 		.4byte	.LASF94
 1826 07fe 0D       		.byte	0xd
 1827 07ff BF       		.byte	0xbf
 1828 0800 19       		.byte	0x19
 1829 0801 0D080000 		.4byte	0x80d
 1830 0805 08       		.byte	0x8
 1831 0806 00       		.byte	0
 1832 0807 0C       		.uleb128 0xc
 1833 0808 04       		.byte	0x4
 1834 0809 BC070000 		.4byte	0x7bc
 1835 080d 16       		.uleb128 0x16
 1836 080e BC070000 		.4byte	0x7bc
 1837 0812 1D080000 		.4byte	0x81d
 1838 0816 17       		.uleb128 0x17
 1839 0817 38000000 		.4byte	0x38
 1840 081b 7F       		.byte	0x7f
 1841 081c 00       		.byte	0
 1842 081d 03       		.uleb128 0x3
 1843 081e A9050000 		.4byte	.LASF95
 1844 0822 0D       		.byte	0xd
 1845 0823 C0       		.byte	0xc0
 1846 0824 03       		.byte	0x3
 1847 0825 C8070000 		.4byte	0x7c8
 1848 0829 18       		.uleb128 0x18
 1849 082a 04       		.byte	0x4
 1850 082b 0E       		.byte	0xe
 1851 082c 38       		.byte	0x38
 1852 082d 09       		.byte	0x9
 1853 082e 40080000 		.4byte	0x840
 1854 0832 08       		.uleb128 0x8
 1855 0833 79070000 		.4byte	.LASF96
 1856 0837 0E       		.byte	0xe
 1857 0838 3C       		.byte	0x3c
 1858 0839 19       		.byte	0x19
 1859 083a 00010000 		.4byte	0x100
 1860 083e 00       		.byte	0
 1861 083f 00       		.byte	0
 1862 0840 03       		.uleb128 0x3
 1863 0841 D3030000 		.4byte	.LASF97
 1864 0845 0E       		.byte	0xe
 1865 0846 3D       		.byte	0x3d
 1866 0847 03       		.byte	0x3
 1867 0848 29080000 		.4byte	0x829
 1868 084c 19       		.uleb128 0x19
 1869 084d 04       		.byte	0x4
 1870 084e 07       		.byte	0x7
 1871 084f C6       		.byte	0xc6
 1872 0850 03       		.byte	0x3
 1873 0851 B7080000 		.4byte	0x8b7
 1874 0855 1B       		.uleb128 0x1b
 1875 0856 2E000000 		.4byte	.LASF98
ARM GAS  /tmp/cchO9Z19.s 			page 34


 1876 085a 07       		.byte	0x7
 1877 085b CD       		.byte	0xcd
 1878 085c 19       		.byte	0x19
 1879 085d 3C010000 		.4byte	0x13c
 1880 0861 1B       		.uleb128 0x1b
 1881 0862 A6010000 		.4byte	.LASF99
 1882 0866 07       		.byte	0x7
 1883 0867 D4       		.byte	0xd4
 1884 0868 19       		.byte	0x19
 1885 0869 3C010000 		.4byte	0x13c
 1886 086d 1B       		.uleb128 0x1b
 1887 086e ED050000 		.4byte	.LASF83
 1888 0872 07       		.byte	0x7
 1889 0873 DB       		.byte	0xdb
 1890 0874 1A       		.byte	0x1a
 1891 0875 61030000 		.4byte	0x361
 1892 0879 1B       		.uleb128 0x1b
 1893 087a C3030000 		.4byte	.LASF100
 1894 087e 07       		.byte	0x7
 1895 087f E2       		.byte	0xe2
 1896 0880 1A       		.byte	0x1a
 1897 0881 B7080000 		.4byte	0x8b7
 1898 0885 1B       		.uleb128 0x1b
 1899 0886 A4000000 		.4byte	.LASF101
 1900 088a 07       		.byte	0x7
 1901 088b E7       		.byte	0xe7
 1902 088c 19       		.byte	0x19
 1903 088d 3C010000 		.4byte	0x13c
 1904 0891 1B       		.uleb128 0x1b
 1905 0892 69020000 		.4byte	.LASF102
 1906 0896 07       		.byte	0x7
 1907 0897 F0       		.byte	0xf0
 1908 0898 1A       		.byte	0x1a
 1909 0899 E5080000 		.4byte	0x8e5
 1910 089d 1B       		.uleb128 0x1b
 1911 089e D0060000 		.4byte	.LASF103
 1912 08a2 07       		.byte	0x7
 1913 08a3 F9       		.byte	0xf9
 1914 08a4 1A       		.byte	0x1a
 1915 08a5 20090000 		.4byte	0x920
 1916 08a9 1E       		.uleb128 0x1e
 1917 08aa F4050000 		.4byte	.LASF104
 1918 08ae 07       		.byte	0x7
 1919 08af 0101     		.2byte	0x101
 1920 08b1 19       		.byte	0x19
 1921 08b2 48010000 		.4byte	0x148
 1922 08b6 00       		.byte	0
 1923 08b7 0C       		.uleb128 0xc
 1924 08b8 04       		.byte	0x4
 1925 08b9 68020000 		.4byte	0x268
 1926 08bd 07       		.uleb128 0x7
 1927 08be 51060000 		.4byte	.LASF105
 1928 08c2 0C       		.byte	0xc
 1929 08c3 0F       		.byte	0xf
 1930 08c4 34       		.byte	0x34
 1931 08c5 10       		.byte	0x10
 1932 08c6 E5080000 		.4byte	0x8e5
ARM GAS  /tmp/cchO9Z19.s 			page 35


 1933 08ca 08       		.uleb128 0x8
 1934 08cb D0020000 		.4byte	.LASF31
 1935 08cf 0F       		.byte	0xf
 1936 08d0 35       		.byte	0x35
 1937 08d1 19       		.byte	0x19
 1938 08d2 A1020000 		.4byte	0x2a1
 1939 08d6 00       		.byte	0
 1940 08d7 09       		.uleb128 0x9
 1941 08d8 636E7400 		.ascii	"cnt\000"
 1942 08dc 0F       		.byte	0xf
 1943 08dd 37       		.byte	0x37
 1944 08de 19       		.byte	0x19
 1945 08df 54010000 		.4byte	0x154
 1946 08e3 08       		.byte	0x8
 1947 08e4 00       		.byte	0
 1948 08e5 0C       		.uleb128 0xc
 1949 08e6 04       		.byte	0x4
 1950 08e7 BD080000 		.4byte	0x8bd
 1951 08eb 07       		.uleb128 0x7
 1952 08ec 1B080000 		.4byte	.LASF106
 1953 08f0 10       		.byte	0x10
 1954 08f1 10       		.byte	0x10
 1955 08f2 39       		.byte	0x39
 1956 08f3 08       		.byte	0x8
 1957 08f4 20090000 		.4byte	0x920
 1958 08f8 08       		.uleb128 0x8
 1959 08f9 D0020000 		.4byte	.LASF31
 1960 08fd 10       		.byte	0x10
 1961 08fe 3A       		.byte	0x3a
 1962 08ff 19       		.byte	0x19
 1963 0900 A1020000 		.4byte	0x2a1
 1964 0904 00       		.byte	0
 1965 0905 08       		.uleb128 0x8
 1966 0906 E7060000 		.4byte	.LASF107
 1967 090a 10       		.byte	0x10
 1968 090b 3C       		.byte	0x3c
 1969 090c 1A       		.byte	0x1a
 1970 090d 74020000 		.4byte	0x274
 1971 0911 08       		.byte	0x8
 1972 0912 08       		.uleb128 0x8
 1973 0913 C5000000 		.4byte	.LASF50
 1974 0917 10       		.byte	0x10
 1975 0918 3E       		.byte	0x3e
 1976 0919 1A       		.byte	0x1a
 1977 091a 830A0000 		.4byte	0xa83
 1978 091e 0C       		.byte	0xc
 1979 091f 00       		.byte	0
 1980 0920 0C       		.uleb128 0xc
 1981 0921 04       		.byte	0x4
 1982 0922 EB080000 		.4byte	0x8eb
 1983 0926 0C       		.uleb128 0xc
 1984 0927 04       		.byte	0x4
 1985 0928 10050000 		.4byte	0x510
 1986 092c 0C       		.uleb128 0xc
 1987 092d 04       		.byte	0x4
 1988 092e 63030000 		.4byte	0x363
 1989 0932 1F       		.uleb128 0x1f
ARM GAS  /tmp/cchO9Z19.s 			page 36


 1990 0933 636800   		.ascii	"ch\000"
 1991 0936 07       		.byte	0x7
 1992 0937 C701     		.2byte	0x1c7
 1993 0939 14       		.byte	0x14
 1994 093a 4F040000 		.4byte	0x44f
 1995 093e 16       		.uleb128 0x16
 1996 093f 10050000 		.4byte	0x510
 1997 0943 49090000 		.4byte	0x949
 1998 0947 20       		.uleb128 0x20
 1999 0948 00       		.byte	0
 2000 0949 14       		.uleb128 0x14
 2001 094a 67060000 		.4byte	.LASF108
 2002 094e 11       		.byte	0x11
 2003 094f 1701     		.2byte	0x117
 2004 0951 13       		.byte	0x13
 2005 0952 3E090000 		.4byte	0x93e
 2006 0956 18       		.uleb128 0x18
 2007 0957 16       		.byte	0x16
 2008 0958 12       		.byte	0x12
 2009 0959 34       		.byte	0x34
 2010 095a 09       		.byte	0x9
 2011 095b 4A0A0000 		.4byte	0xa4a
 2012 095f 08       		.uleb128 0x8
 2013 0960 AE070000 		.4byte	.LASF109
 2014 0964 12       		.byte	0x12
 2015 0965 35       		.byte	0x35
 2016 0966 0D       		.byte	0xd
 2017 0967 4A0A0000 		.4byte	0xa4a
 2018 096b 00       		.byte	0
 2019 096c 08       		.uleb128 0x8
 2020 096d 00020000 		.4byte	.LASF110
 2021 0971 12       		.byte	0x12
 2022 0972 36       		.byte	0x36
 2023 0973 0D       		.byte	0xd
 2024 0974 BA000000 		.4byte	0xba
 2025 0978 04       		.byte	0x4
 2026 0979 08       		.uleb128 0x8
 2027 097a 2B010000 		.4byte	.LASF93
 2028 097e 12       		.byte	0x12
 2029 097f 37       		.byte	0x37
 2030 0980 0D       		.byte	0xd
 2031 0981 BA000000 		.4byte	0xba
 2032 0985 05       		.byte	0x5
 2033 0986 08       		.uleb128 0x8
 2034 0987 9A030000 		.4byte	.LASF111
 2035 098b 12       		.byte	0x12
 2036 098c 38       		.byte	0x38
 2037 098d 0D       		.byte	0xd
 2038 098e CB000000 		.4byte	0xcb
 2039 0992 06       		.byte	0x6
 2040 0993 08       		.uleb128 0x8
 2041 0994 C2070000 		.4byte	.LASF112
 2042 0998 12       		.byte	0x12
 2043 0999 39       		.byte	0x39
 2044 099a 0D       		.byte	0xd
 2045 099b BA000000 		.4byte	0xba
 2046 099f 08       		.byte	0x8
ARM GAS  /tmp/cchO9Z19.s 			page 37


 2047 09a0 08       		.uleb128 0x8
 2048 09a1 79060000 		.4byte	.LASF113
 2049 09a5 12       		.byte	0x12
 2050 09a6 3A       		.byte	0x3a
 2051 09a7 0D       		.byte	0xd
 2052 09a8 BA000000 		.4byte	0xba
 2053 09ac 09       		.byte	0x9
 2054 09ad 08       		.uleb128 0x8
 2055 09ae 3A050000 		.4byte	.LASF114
 2056 09b2 12       		.byte	0x12
 2057 09b3 3B       		.byte	0x3b
 2058 09b4 0D       		.byte	0xd
 2059 09b5 BA000000 		.4byte	0xba
 2060 09b9 0A       		.byte	0xa
 2061 09ba 08       		.uleb128 0x8
 2062 09bb BB050000 		.4byte	.LASF115
 2063 09bf 12       		.byte	0x12
 2064 09c0 3C       		.byte	0x3c
 2065 09c1 0D       		.byte	0xd
 2066 09c2 BA000000 		.4byte	0xba
 2067 09c6 0B       		.byte	0xb
 2068 09c7 08       		.uleb128 0x8
 2069 09c8 25030000 		.4byte	.LASF116
 2070 09cc 12       		.byte	0x12
 2071 09cd 3D       		.byte	0x3d
 2072 09ce 0D       		.byte	0xd
 2073 09cf BA000000 		.4byte	0xba
 2074 09d3 0C       		.byte	0xc
 2075 09d4 08       		.uleb128 0x8
 2076 09d5 C9030000 		.4byte	.LASF117
 2077 09d9 12       		.byte	0x12
 2078 09da 3E       		.byte	0x3e
 2079 09db 0D       		.byte	0xd
 2080 09dc BA000000 		.4byte	0xba
 2081 09e0 0D       		.byte	0xd
 2082 09e1 08       		.uleb128 0x8
 2083 09e2 93070000 		.4byte	.LASF118
 2084 09e6 12       		.byte	0x12
 2085 09e7 3F       		.byte	0x3f
 2086 09e8 0D       		.byte	0xd
 2087 09e9 BA000000 		.4byte	0xba
 2088 09ed 0E       		.byte	0xe
 2089 09ee 08       		.uleb128 0x8
 2090 09ef 4F030000 		.4byte	.LASF119
 2091 09f3 12       		.byte	0x12
 2092 09f4 40       		.byte	0x40
 2093 09f5 0D       		.byte	0xd
 2094 09f6 BA000000 		.4byte	0xba
 2095 09fa 0F       		.byte	0xf
 2096 09fb 08       		.uleb128 0x8
 2097 09fc F5070000 		.4byte	.LASF120
 2098 0a00 12       		.byte	0x12
 2099 0a01 41       		.byte	0x41
 2100 0a02 0D       		.byte	0xd
 2101 0a03 BA000000 		.4byte	0xba
 2102 0a07 10       		.byte	0x10
 2103 0a08 08       		.uleb128 0x8
ARM GAS  /tmp/cchO9Z19.s 			page 38


 2104 0a09 42080000 		.4byte	.LASF121
 2105 0a0d 12       		.byte	0x12
 2106 0a0e 42       		.byte	0x42
 2107 0a0f 0D       		.byte	0xd
 2108 0a10 BA000000 		.4byte	0xba
 2109 0a14 11       		.byte	0x11
 2110 0a15 08       		.uleb128 0x8
 2111 0a16 59080000 		.4byte	.LASF122
 2112 0a1a 12       		.byte	0x12
 2113 0a1b 43       		.byte	0x43
 2114 0a1c 0D       		.byte	0xd
 2115 0a1d BA000000 		.4byte	0xba
 2116 0a21 12       		.byte	0x12
 2117 0a22 08       		.uleb128 0x8
 2118 0a23 DC020000 		.4byte	.LASF123
 2119 0a27 12       		.byte	0x12
 2120 0a28 44       		.byte	0x44
 2121 0a29 0D       		.byte	0xd
 2122 0a2a BA000000 		.4byte	0xba
 2123 0a2e 13       		.byte	0x13
 2124 0a2f 08       		.uleb128 0x8
 2125 0a30 93010000 		.4byte	.LASF124
 2126 0a34 12       		.byte	0x12
 2127 0a35 45       		.byte	0x45
 2128 0a36 0D       		.byte	0xd
 2129 0a37 BA000000 		.4byte	0xba
 2130 0a3b 14       		.byte	0x14
 2131 0a3c 08       		.uleb128 0x8
 2132 0a3d 5E060000 		.4byte	.LASF125
 2133 0a41 12       		.byte	0x12
 2134 0a42 46       		.byte	0x46
 2135 0a43 0D       		.byte	0xd
 2136 0a44 BA000000 		.4byte	0xba
 2137 0a48 15       		.byte	0x15
 2138 0a49 00       		.byte	0
 2139 0a4a 16       		.uleb128 0x16
 2140 0a4b EA060000 		.4byte	0x6ea
 2141 0a4f 5A0A0000 		.4byte	0xa5a
 2142 0a53 17       		.uleb128 0x17
 2143 0a54 38000000 		.4byte	0x38
 2144 0a58 03       		.byte	0x3
 2145 0a59 00       		.byte	0
 2146 0a5a 03       		.uleb128 0x3
 2147 0a5b 89010000 		.4byte	.LASF126
 2148 0a5f 12       		.byte	0x12
 2149 0a60 47       		.byte	0x47
 2150 0a61 03       		.byte	0x3
 2151 0a62 56090000 		.4byte	0x956
 2152 0a66 05       		.uleb128 0x5
 2153 0a67 5A0A0000 		.4byte	0xa5a
 2154 0a6b 15       		.uleb128 0x15
 2155 0a6c A9020000 		.4byte	.LASF127
 2156 0a70 12       		.byte	0x12
 2157 0a71 6C       		.byte	0x6c
 2158 0a72 1D       		.byte	0x1d
 2159 0a73 660A0000 		.4byte	0xa66
 2160 0a77 03       		.uleb128 0x3
ARM GAS  /tmp/cchO9Z19.s 			page 39


 2161 0a78 05020000 		.4byte	.LASF128
 2162 0a7c 10       		.byte	0x10
 2163 0a7d 34       		.byte	0x34
 2164 0a7e 19       		.byte	0x19
 2165 0a7f EB080000 		.4byte	0x8eb
 2166 0a83 0C       		.uleb128 0xc
 2167 0a84 04       		.byte	0x4
 2168 0a85 770A0000 		.4byte	0xa77
 2169 0a89 04       		.uleb128 0x4
 2170 0a8a 01       		.byte	0x1
 2171 0a8b 02       		.byte	0x2
 2172 0a8c 9B050000 		.4byte	.LASF129
 2173 0a90 03       		.uleb128 0x3
 2174 0a91 7D000000 		.4byte	.LASF130
 2175 0a95 13       		.byte	0x13
 2176 0a96 47       		.byte	0x47
 2177 0a97 11       		.byte	0x11
 2178 0a98 9C0A0000 		.4byte	0xa9c
 2179 0a9c 0C       		.uleb128 0xc
 2180 0a9d 04       		.byte	0x4
 2181 0a9e A20A0000 		.4byte	0xaa2
 2182 0aa2 21       		.uleb128 0x21
 2183 0aa3 61030000 		.4byte	0x361
 2184 0aa7 B60A0000 		.4byte	0xab6
 2185 0aab 0F       		.uleb128 0xf
 2186 0aac 2C000000 		.4byte	0x2c
 2187 0ab0 0F       		.uleb128 0xf
 2188 0ab1 38000000 		.4byte	0x38
 2189 0ab5 00       		.byte	0
 2190 0ab6 03       		.uleb128 0x3
 2191 0ab7 15040000 		.4byte	.LASF131
 2192 0abb 13       		.byte	0x13
 2193 0abc 4C       		.byte	0x4c
 2194 0abd 11       		.byte	0x11
 2195 0abe C20A0000 		.4byte	0xac2
 2196 0ac2 0C       		.uleb128 0xc
 2197 0ac3 04       		.byte	0x4
 2198 0ac4 C80A0000 		.4byte	0xac8
 2199 0ac8 21       		.uleb128 0x21
 2200 0ac9 61030000 		.4byte	0x361
 2201 0acd E10A0000 		.4byte	0xae1
 2202 0ad1 0F       		.uleb128 0xf
 2203 0ad2 2C000000 		.4byte	0x2c
 2204 0ad6 0F       		.uleb128 0xf
 2205 0ad7 38000000 		.4byte	0x38
 2206 0adb 0F       		.uleb128 0xf
 2207 0adc 2C000000 		.4byte	0x2c
 2208 0ae0 00       		.byte	0
 2209 0ae1 18       		.uleb128 0x18
 2210 0ae2 08       		.byte	0x8
 2211 0ae3 13       		.byte	0x13
 2212 0ae4 51       		.byte	0x51
 2213 0ae5 09       		.byte	0x9
 2214 0ae6 050B0000 		.4byte	0xb05
 2215 0aea 08       		.uleb128 0x8
 2216 0aeb F2000000 		.4byte	.LASF132
 2217 0aef 13       		.byte	0x13
ARM GAS  /tmp/cchO9Z19.s 			page 40


 2218 0af0 55       		.byte	0x55
 2219 0af1 0C       		.byte	0xc
 2220 0af2 050B0000 		.4byte	0xb05
 2221 0af6 00       		.byte	0
 2222 0af7 08       		.uleb128 0x8
 2223 0af8 A2020000 		.4byte	.LASF133
 2224 0afc 13       		.byte	0x13
 2225 0afd 59       		.byte	0x59
 2226 0afe 0C       		.byte	0xc
 2227 0aff 050B0000 		.4byte	0xb05
 2228 0b03 04       		.byte	0x4
 2229 0b04 00       		.byte	0
 2230 0b05 0C       		.uleb128 0xc
 2231 0b06 04       		.byte	0x4
 2232 0b07 BA000000 		.4byte	0xba
 2233 0b0b 03       		.uleb128 0x3
 2234 0b0c 40040000 		.4byte	.LASF134
 2235 0b10 13       		.byte	0x13
 2236 0b11 5A       		.byte	0x5a
 2237 0b12 03       		.byte	0x3
 2238 0b13 E10A0000 		.4byte	0xae1
 2239 0b17 15       		.uleb128 0x15
 2240 0b18 B8030000 		.4byte	.LASF135
 2241 0b1c 13       		.byte	0x13
 2242 0b1d 75       		.byte	0x75
 2243 0b1e 12       		.byte	0x12
 2244 0b1f 0B0B0000 		.4byte	0xb0b
 2245 0b23 03       		.uleb128 0x3
 2246 0b24 70050000 		.4byte	.LASF136
 2247 0b28 14       		.byte	0x14
 2248 0b29 48       		.byte	0x48
 2249 0b2a 1C       		.byte	0x1c
 2250 0b2b 2F0B0000 		.4byte	0xb2f
 2251 0b2f 07       		.uleb128 0x7
 2252 0b30 72080000 		.4byte	.LASF137
 2253 0b34 1C       		.byte	0x1c
 2254 0b35 14       		.byte	0x14
 2255 0b36 60       		.byte	0x60
 2256 0b37 08       		.byte	0x8
 2257 0b38 640B0000 		.4byte	0xb64
 2258 0b3c 08       		.uleb128 0x8
 2259 0b3d 66000000 		.4byte	.LASF138
 2260 0b41 14       		.byte	0x14
 2261 0b42 61       		.byte	0x61
 2262 0b43 19       		.byte	0x19
 2263 0b44 B60A0000 		.4byte	0xab6
 2264 0b48 00       		.byte	0
 2265 0b49 08       		.uleb128 0x8
 2266 0b4a 6B080000 		.4byte	.LASF139
 2267 0b4e 14       		.byte	0x14
 2268 0b4f 63       		.byte	0x63
 2269 0b50 19       		.byte	0x19
 2270 0b51 640B0000 		.4byte	0xb64
 2271 0b55 04       		.byte	0x4
 2272 0b56 09       		.uleb128 0x9
 2273 0b57 6D747800 		.ascii	"mtx\000"
 2274 0b5b 14       		.byte	0x14
ARM GAS  /tmp/cchO9Z19.s 			page 41


 2275 0b5c 65       		.byte	0x65
 2276 0b5d 19       		.byte	0x19
 2277 0b5e 770A0000 		.4byte	0xa77
 2278 0b62 0C       		.byte	0xc
 2279 0b63 00       		.byte	0
 2280 0b64 03       		.uleb128 0x3
 2281 0b65 51070000 		.4byte	.LASF140
 2282 0b69 14       		.byte	0x14
 2283 0b6a 4D       		.byte	0x4d
 2284 0b6b 1B       		.byte	0x1b
 2285 0b6c 700B0000 		.4byte	0xb70
 2286 0b70 22       		.uleb128 0x22
 2287 0b71 E1050000 		.4byte	.LASF182
 2288 0b75 08       		.byte	0x8
 2289 0b76 14       		.byte	0x14
 2290 0b77 52       		.byte	0x52
 2291 0b78 07       		.byte	0x7
 2292 0b79 960B0000 		.4byte	0xb96
 2293 0b7d 1B       		.uleb128 0x1b
 2294 0b7e A9070000 		.4byte	.LASF141
 2295 0b82 14       		.byte	0x14
 2296 0b83 56       		.byte	0x56
 2297 0b84 05       		.byte	0x5
 2298 0b85 960B0000 		.4byte	0xb96
 2299 0b89 1B       		.uleb128 0x1b
 2300 0b8a 1C050000 		.4byte	.LASF142
 2301 0b8e 14       		.byte	0x14
 2302 0b8f 5A       		.byte	0x5a
 2303 0b90 05       		.byte	0x5
 2304 0b91 C00B0000 		.4byte	0xbc0
 2305 0b95 00       		.byte	0
 2306 0b96 18       		.uleb128 0x18
 2307 0b97 08       		.byte	0x8
 2308 0b98 14       		.byte	0x14
 2309 0b99 53       		.byte	0x53
 2310 0b9a 03       		.byte	0x3
 2311 0b9b BA0B0000 		.4byte	0xbba
 2312 0b9f 08       		.uleb128 0x8
 2313 0ba0 C5000000 		.4byte	.LASF50
 2314 0ba4 14       		.byte	0x14
 2315 0ba5 54       		.byte	0x54
 2316 0ba6 1A       		.byte	0x1a
 2317 0ba7 BA0B0000 		.4byte	0xbba
 2318 0bab 00       		.byte	0
 2319 0bac 08       		.uleb128 0x8
 2320 0bad 59000000 		.4byte	.LASF143
 2321 0bb1 14       		.byte	0x14
 2322 0bb2 55       		.byte	0x55
 2323 0bb3 19       		.byte	0x19
 2324 0bb4 2C000000 		.4byte	0x2c
 2325 0bb8 04       		.byte	0x4
 2326 0bb9 00       		.byte	0
 2327 0bba 0C       		.uleb128 0xc
 2328 0bbb 04       		.byte	0x4
 2329 0bbc 640B0000 		.4byte	0xb64
 2330 0bc0 18       		.uleb128 0x18
 2331 0bc1 08       		.byte	0x8
ARM GAS  /tmp/cchO9Z19.s 			page 42


 2332 0bc2 14       		.byte	0x14
 2333 0bc3 57       		.byte	0x57
 2334 0bc4 03       		.byte	0x3
 2335 0bc5 E40B0000 		.4byte	0xbe4
 2336 0bc9 08       		.uleb128 0x8
 2337 0bca ED060000 		.4byte	.LASF144
 2338 0bce 14       		.byte	0x14
 2339 0bcf 58       		.byte	0x58
 2340 0bd0 1A       		.byte	0x1a
 2341 0bd1 E40B0000 		.4byte	0xbe4
 2342 0bd5 00       		.byte	0
 2343 0bd6 08       		.uleb128 0x8
 2344 0bd7 2B010000 		.4byte	.LASF93
 2345 0bdb 14       		.byte	0x14
 2346 0bdc 59       		.byte	0x59
 2347 0bdd 19       		.byte	0x19
 2348 0bde 2C000000 		.4byte	0x2c
 2349 0be2 04       		.byte	0x4
 2350 0be3 00       		.byte	0
 2351 0be4 0C       		.uleb128 0xc
 2352 0be5 04       		.byte	0x4
 2353 0be6 230B0000 		.4byte	0xb23
 2354 0bea 07       		.uleb128 0x7
 2355 0beb DA070000 		.4byte	.LASF145
 2356 0bef 04       		.byte	0x4
 2357 0bf0 15       		.byte	0x15
 2358 0bf1 38       		.byte	0x38
 2359 0bf2 08       		.byte	0x8
 2360 0bf3 050C0000 		.4byte	0xc05
 2361 0bf7 08       		.uleb128 0x8
 2362 0bf8 C5000000 		.4byte	.LASF50
 2363 0bfc 15       		.byte	0x15
 2364 0bfd 39       		.byte	0x39
 2365 0bfe 1A       		.byte	0x1a
 2366 0bff 050C0000 		.4byte	0xc05
 2367 0c03 00       		.byte	0
 2368 0c04 00       		.byte	0
 2369 0c05 0C       		.uleb128 0xc
 2370 0c06 04       		.byte	0x4
 2371 0c07 EA0B0000 		.4byte	0xbea
 2372 0c0b 18       		.uleb128 0x18
 2373 0c0c 10       		.byte	0x10
 2374 0c0d 15       		.byte	0x15
 2375 0c0e 40       		.byte	0x40
 2376 0c0f 09       		.byte	0x9
 2377 0c10 490C0000 		.4byte	0xc49
 2378 0c14 08       		.uleb128 0x8
 2379 0c15 C5000000 		.4byte	.LASF50
 2380 0c19 15       		.byte	0x15
 2381 0c1a 41       		.byte	0x41
 2382 0c1b 1A       		.byte	0x1a
 2383 0c1c 050C0000 		.4byte	0xc05
 2384 0c20 00       		.byte	0
 2385 0c21 08       		.uleb128 0x8
 2386 0c22 09040000 		.4byte	.LASF146
 2387 0c26 15       		.byte	0x15
 2388 0c27 42       		.byte	0x42
ARM GAS  /tmp/cchO9Z19.s 			page 43


 2389 0c28 19       		.byte	0x19
 2390 0c29 2C000000 		.4byte	0x2c
 2391 0c2d 04       		.byte	0x4
 2392 0c2e 08       		.uleb128 0x8
 2393 0c2f 24080000 		.4byte	.LASF147
 2394 0c33 15       		.byte	0x15
 2395 0c34 44       		.byte	0x44
 2396 0c35 19       		.byte	0x19
 2397 0c36 38000000 		.4byte	0x38
 2398 0c3a 08       		.byte	0x8
 2399 0c3b 08       		.uleb128 0x8
 2400 0c3c 66000000 		.4byte	.LASF138
 2401 0c40 15       		.byte	0x15
 2402 0c41 45       		.byte	0x45
 2403 0c42 19       		.byte	0x19
 2404 0c43 900A0000 		.4byte	0xa90
 2405 0c47 0C       		.byte	0xc
 2406 0c48 00       		.byte	0
 2407 0c49 03       		.uleb128 0x3
 2408 0c4a BD020000 		.4byte	.LASF148
 2409 0c4e 15       		.byte	0x15
 2410 0c4f 47       		.byte	0x47
 2411 0c50 03       		.byte	0x3
 2412 0c51 0B0C0000 		.4byte	0xc0b
 2413 0c55 07       		.uleb128 0x7
 2414 0c56 61050000 		.4byte	.LASF149
 2415 0c5a 10       		.byte	0x10
 2416 0c5b 16       		.byte	0x16
 2417 0c5c A9       		.byte	0xa9
 2418 0c5d 10       		.byte	0x10
 2419 0c5e 8A0C0000 		.4byte	0xc8a
 2420 0c62 08       		.uleb128 0x8
 2421 0c63 C5000000 		.4byte	.LASF50
 2422 0c67 16       		.byte	0x16
 2423 0c68 AD       		.byte	0xad
 2424 0c69 1A       		.byte	0x1a
 2425 0c6a 8A0C0000 		.4byte	0xc8a
 2426 0c6e 00       		.byte	0
 2427 0c6f 08       		.uleb128 0x8
 2428 0c70 45050000 		.4byte	.LASF39
 2429 0c74 16       		.byte	0x16
 2430 0c75 B1       		.byte	0xb1
 2431 0c76 19       		.byte	0x19
 2432 0c77 60010000 		.4byte	0x160
 2433 0c7b 04       		.byte	0x4
 2434 0c7c 08       		.uleb128 0x8
 2435 0c7d CB020000 		.4byte	.LASF35
 2436 0c81 16       		.byte	0x16
 2437 0c82 B3       		.byte	0xb3
 2438 0c83 19       		.byte	0x19
 2439 0c84 900C0000 		.4byte	0xc90
 2440 0c88 08       		.byte	0x8
 2441 0c89 00       		.byte	0
 2442 0c8a 0C       		.uleb128 0xc
 2443 0c8b 04       		.byte	0x4
 2444 0c8c 550C0000 		.4byte	0xc55
 2445 0c90 16       		.uleb128 0x16
ARM GAS  /tmp/cchO9Z19.s 			page 44


 2446 0c91 EA060000 		.4byte	0x6ea
 2447 0c95 A00C0000 		.4byte	0xca0
 2448 0c99 17       		.uleb128 0x17
 2449 0c9a 38000000 		.4byte	0x38
 2450 0c9e 07       		.byte	0x7
 2451 0c9f 00       		.byte	0
 2452 0ca0 03       		.uleb128 0x3
 2453 0ca1 AA030000 		.4byte	.LASF150
 2454 0ca5 16       		.byte	0x16
 2455 0ca6 B7       		.byte	0xb7
 2456 0ca7 03       		.byte	0x3
 2457 0ca8 550C0000 		.4byte	0xc55
 2458 0cac 07       		.uleb128 0x7
 2459 0cad 9D070000 		.4byte	.LASF151
 2460 0cb1 04       		.byte	0x4
 2461 0cb2 16       		.byte	0x16
 2462 0cb3 BC       		.byte	0xbc
 2463 0cb4 10       		.byte	0x10
 2464 0cb5 C70C0000 		.4byte	0xcc7
 2465 0cb9 08       		.uleb128 0x8
 2466 0cba C5000000 		.4byte	.LASF50
 2467 0cbe 16       		.byte	0x16
 2468 0cbf BD       		.byte	0xbd
 2469 0cc0 1A       		.byte	0x1a
 2470 0cc1 C70C0000 		.4byte	0xcc7
 2471 0cc5 00       		.byte	0
 2472 0cc6 00       		.byte	0
 2473 0cc7 0C       		.uleb128 0xc
 2474 0cc8 04       		.byte	0x4
 2475 0cc9 A00C0000 		.4byte	0xca0
 2476 0ccd 03       		.uleb128 0x3
 2477 0cce 0E030000 		.4byte	.LASF152
 2478 0cd2 16       		.byte	0x16
 2479 0cd3 BE       		.byte	0xbe
 2480 0cd4 03       		.byte	0x3
 2481 0cd5 AC0C0000 		.4byte	0xcac
 2482 0cd9 0D       		.uleb128 0xd
 2483 0cda 1B000000 		.4byte	.LASF153
 2484 0cde 48       		.byte	0x48
 2485 0cdf 16       		.byte	0x16
 2486 0ce0 2001     		.2byte	0x120
 2487 0ce2 10       		.byte	0x10
 2488 0ce3 660D0000 		.4byte	0xd66
 2489 0ce7 0A       		.uleb128 0xa
 2490 0ce8 6D747800 		.ascii	"mtx\000"
 2491 0cec 16       		.byte	0x16
 2492 0ced 2501     		.2byte	0x125
 2493 0cef 19       		.byte	0x19
 2494 0cf0 770A0000 		.4byte	0xa77
 2495 0cf4 00       		.byte	0
 2496 0cf5 0B       		.uleb128 0xb
 2497 0cf6 1D070000 		.4byte	.LASF154
 2498 0cfa 16       		.byte	0x16
 2499 0cfb 2C01     		.2byte	0x12c
 2500 0cfd 19       		.byte	0x19
 2501 0cfe CD0C0000 		.4byte	0xccd
 2502 0d02 10       		.byte	0x10
ARM GAS  /tmp/cchO9Z19.s 			page 45


 2503 0d03 0B       		.uleb128 0xb
 2504 0d04 30060000 		.4byte	.LASF155
 2505 0d08 16       		.byte	0x16
 2506 0d09 3001     		.2byte	0x130
 2507 0d0b 19       		.byte	0x19
 2508 0d0c 490C0000 		.4byte	0xc49
 2509 0d10 14       		.byte	0x14
 2510 0d11 0B       		.uleb128 0xb
 2511 0d12 E5020000 		.4byte	.LASF156
 2512 0d16 16       		.byte	0x16
 2513 0d17 3501     		.2byte	0x135
 2514 0d19 19       		.byte	0x19
 2515 0d1a CD0C0000 		.4byte	0xccd
 2516 0d1e 24       		.byte	0x24
 2517 0d1f 0B       		.uleb128 0xb
 2518 0d20 74000000 		.4byte	.LASF157
 2519 0d24 16       		.byte	0x16
 2520 0d25 3B01     		.2byte	0x13b
 2521 0d27 19       		.byte	0x19
 2522 0d28 CD0C0000 		.4byte	0xccd
 2523 0d2c 28       		.byte	0x28
 2524 0d2d 0B       		.uleb128 0xb
 2525 0d2e EC070000 		.4byte	.LASF158
 2526 0d32 16       		.byte	0x16
 2527 0d33 3F01     		.2byte	0x13f
 2528 0d35 19       		.byte	0x19
 2529 0d36 490C0000 		.4byte	0xc49
 2530 0d3a 2C       		.byte	0x2c
 2531 0d3b 0B       		.uleb128 0xb
 2532 0d3c DB000000 		.4byte	.LASF159
 2533 0d40 16       		.byte	0x16
 2534 0d41 4501     		.2byte	0x145
 2535 0d43 19       		.byte	0x19
 2536 0d44 CD0C0000 		.4byte	0xccd
 2537 0d48 3C       		.byte	0x3c
 2538 0d49 0B       		.uleb128 0xb
 2539 0d4a C4050000 		.4byte	.LASF160
 2540 0d4e 16       		.byte	0x16
 2541 0d4f 4B01     		.2byte	0x14b
 2542 0d51 19       		.byte	0x19
 2543 0d52 CD0C0000 		.4byte	0xccd
 2544 0d56 40       		.byte	0x40
 2545 0d57 0B       		.uleb128 0xb
 2546 0d58 BD060000 		.4byte	.LASF161
 2547 0d5c 16       		.byte	0x16
 2548 0d5d 5101     		.2byte	0x151
 2549 0d5f 19       		.byte	0x19
 2550 0d60 CD0C0000 		.4byte	0xccd
 2551 0d64 44       		.byte	0x44
 2552 0d65 00       		.byte	0
 2553 0d66 23       		.uleb128 0x23
 2554 0d67 90020000 		.4byte	.LASF162
 2555 0d6b 16       		.byte	0x16
 2556 0d6c 5301     		.2byte	0x153
 2557 0d6e 03       		.byte	0x3
 2558 0d6f D90C0000 		.4byte	0xcd9
 2559 0d73 14       		.uleb128 0x14
ARM GAS  /tmp/cchO9Z19.s 			page 46


 2560 0d74 B2020000 		.4byte	.LASF163
 2561 0d78 16       		.byte	0x16
 2562 0d79 5E01     		.2byte	0x15e
 2563 0d7b 1A       		.byte	0x1a
 2564 0d7c 660D0000 		.4byte	0xd66
 2565 0d80 24       		.uleb128 0x24
 2566 0d81 05070000 		.4byte	.LASF183
 2567 0d85 01       		.byte	0x1
 2568 0d86 5C       		.byte	0x5c
 2569 0d87 16       		.byte	0x16
 2570 0d88 230B0000 		.4byte	0xb23
 2571 0d8c 05       		.uleb128 0x5
 2572 0d8d 03       		.byte	0x3
 2573 0d8e 00000000 		.4byte	default_heap
 2574 0d92 25       		.uleb128 0x25
 2575 0d93 3A070000 		.4byte	.LASF169
 2576 0d97 01       		.byte	0x1
 2577 0d98 6501     		.2byte	0x165
 2578 0d9a 08       		.byte	0x8
 2579 0d9b 2C000000 		.4byte	0x2c
 2580 0d9f F0010000 		.4byte	.LFB327
 2581 0da3 60000000 		.4byte	.LFE327-.LFB327
 2582 0da7 01       		.uleb128 0x1
 2583 0da8 9C       		.byte	0x9c
 2584 0da9 810E0000 		.4byte	0xe81
 2585 0dad 26       		.uleb128 0x26
 2586 0dae BF000000 		.4byte	.LASF164
 2587 0db2 01       		.byte	0x1
 2588 0db3 6501     		.2byte	0x165
 2589 0db5 24       		.byte	0x24
 2590 0db6 E40B0000 		.4byte	0xbe4
 2591 0dba 0A000000 		.4byte	.LLST18
 2592 0dbe 00000000 		.4byte	.LVUS18
 2593 0dc2 26       		.uleb128 0x26
 2594 0dc3 29060000 		.4byte	.LASF165
 2595 0dc7 01       		.byte	0x1
 2596 0dc8 6501     		.2byte	0x165
 2597 0dca 33       		.byte	0x33
 2598 0dcb 810E0000 		.4byte	0xe81
 2599 0dcf 51000000 		.4byte	.LLST19
 2600 0dd3 4D000000 		.4byte	.LVUS19
 2601 0dd7 26       		.uleb128 0x26
 2602 0dd8 B9070000 		.4byte	.LASF166
 2603 0ddc 01       		.byte	0x1
 2604 0ddd 6501     		.2byte	0x165
 2605 0ddf 43       		.byte	0x43
 2606 0de0 810E0000 		.4byte	0xe81
 2607 0de4 73000000 		.4byte	.LLST20
 2608 0de8 6F000000 		.4byte	.LVUS20
 2609 0dec 27       		.uleb128 0x27
 2610 0ded 717000   		.ascii	"qp\000"
 2611 0df0 01       		.byte	0x1
 2612 0df1 6601     		.2byte	0x166
 2613 0df3 12       		.byte	0x12
 2614 0df4 BA0B0000 		.4byte	0xbba
 2615 0df8 99000000 		.4byte	.LLST21
 2616 0dfc 91000000 		.4byte	.LVUS21
ARM GAS  /tmp/cchO9Z19.s 			page 47


 2617 0e00 27       		.uleb128 0x27
 2618 0e01 6E00     		.ascii	"n\000"
 2619 0e03 01       		.byte	0x1
 2620 0e04 6701     		.2byte	0x167
 2621 0e06 0A       		.byte	0xa
 2622 0e07 2C000000 		.4byte	0x2c
 2623 0e0b DB000000 		.4byte	.LLST22
 2624 0e0f D5000000 		.4byte	.LVUS22
 2625 0e13 28       		.uleb128 0x28
 2626 0e14 B6060000 		.4byte	.LASF167
 2627 0e18 01       		.byte	0x1
 2628 0e19 6701     		.2byte	0x167
 2629 0e1b 0D       		.byte	0xd
 2630 0e1c 2C000000 		.4byte	0x2c
 2631 0e20 0C010000 		.4byte	.LLST23
 2632 0e24 06010000 		.4byte	.LVUS23
 2633 0e28 28       		.uleb128 0x28
 2634 0e29 12010000 		.4byte	.LASF168
 2635 0e2d 01       		.byte	0x1
 2636 0e2e 6701     		.2byte	0x167
 2637 0e30 15       		.byte	0x15
 2638 0e31 2C000000 		.4byte	0x2c
 2639 0e35 3D010000 		.4byte	.LLST24
 2640 0e39 37010000 		.4byte	.LVUS24
 2641 0e3d 29       		.uleb128 0x29
 2642 0e3e 18000000 		.4byte	.Ldebug_ranges0+0x18
 2643 0e42 5C0E0000 		.4byte	0xe5c
 2644 0e46 28       		.uleb128 0x28
 2645 0e47 59000000 		.4byte	.LASF143
 2646 0e4b 01       		.byte	0x1
 2647 0e4c 7301     		.2byte	0x173
 2648 0e4e 0C       		.byte	0xc
 2649 0e4f 2C000000 		.4byte	0x2c
 2650 0e53 6A010000 		.4byte	.LLST25
 2651 0e57 68010000 		.4byte	.LVUS25
 2652 0e5b 00       		.byte	0
 2653 0e5c 2A       		.uleb128 0x2a
 2654 0e5d 0A020000 		.4byte	.LVL49
 2655 0e61 6B110000 		.4byte	0x116b
 2656 0e65 700E0000 		.4byte	0xe70
 2657 0e69 2B       		.uleb128 0x2b
 2658 0e6a 01       		.uleb128 0x1
 2659 0e6b 50       		.byte	0x50
 2660 0e6c 02       		.uleb128 0x2
 2661 0e6d 79       		.byte	0x79
 2662 0e6e 00       		.sleb128 0
 2663 0e6f 00       		.byte	0
 2664 0e70 2C       		.uleb128 0x2c
 2665 0e71 3E020000 		.4byte	.LVL57
 2666 0e75 77110000 		.4byte	0x1177
 2667 0e79 2B       		.uleb128 0x2b
 2668 0e7a 01       		.uleb128 0x1
 2669 0e7b 50       		.byte	0x50
 2670 0e7c 02       		.uleb128 0x2
 2671 0e7d 79       		.byte	0x79
 2672 0e7e 00       		.sleb128 0
 2673 0e7f 00       		.byte	0
ARM GAS  /tmp/cchO9Z19.s 			page 48


 2674 0e80 00       		.byte	0
 2675 0e81 0C       		.uleb128 0xc
 2676 0e82 04       		.byte	0x4
 2677 0e83 2C000000 		.4byte	0x2c
 2678 0e87 2D       		.uleb128 0x2d
 2679 0e88 47010000 		.4byte	.LASF173
 2680 0e8c 01       		.byte	0x1
 2681 0e8d 2501     		.2byte	0x125
 2682 0e8f 06       		.byte	0x6
 2683 0e90 50010000 		.4byte	.LFB326
 2684 0e94 98000000 		.4byte	.LFE326-.LFB326
 2685 0e98 01       		.uleb128 0x1
 2686 0e99 9C       		.byte	0x9c
 2687 0e9a 1E0F0000 		.4byte	0xf1e
 2688 0e9e 2E       		.uleb128 0x2e
 2689 0e9f 7000     		.ascii	"p\000"
 2690 0ea1 01       		.byte	0x1
 2691 0ea2 2501     		.2byte	0x125
 2692 0ea4 17       		.byte	0x17
 2693 0ea5 61030000 		.4byte	0x361
 2694 0ea9 87010000 		.4byte	.LLST14
 2695 0ead 7D010000 		.4byte	.LVUS14
 2696 0eb1 27       		.uleb128 0x27
 2697 0eb2 717000   		.ascii	"qp\000"
 2698 0eb5 01       		.byte	0x1
 2699 0eb6 2601     		.2byte	0x126
 2700 0eb8 12       		.byte	0x12
 2701 0eb9 BA0B0000 		.4byte	0xbba
 2702 0ebd D0010000 		.4byte	.LLST15
 2703 0ec1 CC010000 		.4byte	.LVUS15
 2704 0ec5 27       		.uleb128 0x27
 2705 0ec6 687000   		.ascii	"hp\000"
 2706 0ec9 01       		.byte	0x1
 2707 0eca 2601     		.2byte	0x126
 2708 0ecc 17       		.byte	0x17
 2709 0ecd BA0B0000 		.4byte	0xbba
 2710 0ed1 F6010000 		.4byte	.LLST16
 2711 0ed5 EE010000 		.4byte	.LVUS16
 2712 0ed9 28       		.uleb128 0x28
 2713 0eda BF000000 		.4byte	.LASF164
 2714 0ede 01       		.byte	0x1
 2715 0edf 2701     		.2byte	0x127
 2716 0ee1 12       		.byte	0x12
 2717 0ee2 E40B0000 		.4byte	0xbe4
 2718 0ee6 40020000 		.4byte	.LLST17
 2719 0eea 34020000 		.4byte	.LVUS17
 2720 0eee 2F       		.uleb128 0x2f
 2721 0eef 0D060000 		.4byte	.LASF171
 2722 0ef3 2E0F0000 		.4byte	0xf2e
 2723 0ef7 2A       		.uleb128 0x2a
 2724 0ef8 74010000 		.4byte	.LVL40
 2725 0efc 6B110000 		.4byte	0x116b
 2726 0f00 0B0F0000 		.4byte	0xf0b
 2727 0f04 2B       		.uleb128 0x2b
 2728 0f05 01       		.uleb128 0x1
 2729 0f06 50       		.byte	0x50
 2730 0f07 02       		.uleb128 0x2
ARM GAS  /tmp/cchO9Z19.s 			page 49


 2731 0f08 77       		.byte	0x77
 2732 0f09 00       		.sleb128 0
 2733 0f0a 00       		.byte	0
 2734 0f0b 30       		.uleb128 0x30
 2735 0f0c BC010000 		.4byte	.LVL44
 2736 0f10 77110000 		.4byte	0x1177
 2737 0f14 30       		.uleb128 0x30
 2738 0f15 E8010000 		.4byte	.LVL46
 2739 0f19 77110000 		.4byte	0x1177
 2740 0f1d 00       		.byte	0
 2741 0f1e 16       		.uleb128 0x16
 2742 0f1f F1060000 		.4byte	0x6f1
 2743 0f23 2E0F0000 		.4byte	0xf2e
 2744 0f27 17       		.uleb128 0x17
 2745 0f28 38000000 		.4byte	0x38
 2746 0f2c 0A       		.byte	0xa
 2747 0f2d 00       		.byte	0
 2748 0f2e 05       		.uleb128 0x5
 2749 0f2f 1E0F0000 		.4byte	0xf1e
 2750 0f33 31       		.uleb128 0x31
 2751 0f34 80070000 		.4byte	.LASF170
 2752 0f38 01       		.byte	0x1
 2753 0f39 AC       		.byte	0xac
 2754 0f3a 07       		.byte	0x7
 2755 0f3b 61030000 		.4byte	0x361
 2756 0f3f 50000000 		.4byte	.LFB325
 2757 0f43 FC000000 		.4byte	.LFE325-.LFB325
 2758 0f47 01       		.uleb128 0x1
 2759 0f48 9C       		.byte	0x9c
 2760 0f49 95100000 		.4byte	0x1095
 2761 0f4d 32       		.uleb128 0x32
 2762 0f4e BF000000 		.4byte	.LASF164
 2763 0f52 01       		.byte	0x1
 2764 0f53 AC       		.byte	0xac
 2765 0f54 29       		.byte	0x29
 2766 0f55 E40B0000 		.4byte	0xbe4
 2767 0f59 97020000 		.4byte	.LLST4
 2768 0f5d 93020000 		.4byte	.LVUS4
 2769 0f61 32       		.uleb128 0x32
 2770 0f62 2B010000 		.4byte	.LASF93
 2771 0f66 01       		.byte	0x1
 2772 0f67 AC       		.byte	0xac
 2773 0f68 37       		.byte	0x37
 2774 0f69 2C000000 		.4byte	0x2c
 2775 0f6d B9020000 		.4byte	.LLST5
 2776 0f71 B5020000 		.4byte	.LVUS5
 2777 0f75 32       		.uleb128 0x32
 2778 0f76 24080000 		.4byte	.LASF147
 2779 0f7a 01       		.byte	0x1
 2780 0f7b AC       		.byte	0xac
 2781 0f7c 46       		.byte	0x46
 2782 0f7d 38000000 		.4byte	0x38
 2783 0f81 DF020000 		.4byte	.LLST6
 2784 0f85 D7020000 		.4byte	.LVUS6
 2785 0f89 33       		.uleb128 0x33
 2786 0f8a 717000   		.ascii	"qp\000"
 2787 0f8d 01       		.byte	0x1
ARM GAS  /tmp/cchO9Z19.s 			page 50


 2788 0f8e AD       		.byte	0xad
 2789 0f8f 12       		.byte	0x12
 2790 0f90 BA0B0000 		.4byte	0xbba
 2791 0f94 1E030000 		.4byte	.LLST7
 2792 0f98 16030000 		.4byte	.LVUS7
 2793 0f9c 33       		.uleb128 0x33
 2794 0f9d 687000   		.ascii	"hp\000"
 2795 0fa0 01       		.byte	0x1
 2796 0fa1 AD       		.byte	0xad
 2797 0fa2 17       		.byte	0x17
 2798 0fa3 BA0B0000 		.4byte	0xbba
 2799 0fa7 5C030000 		.4byte	.LLST8
 2800 0fab 52030000 		.4byte	.LVUS8
 2801 0faf 33       		.uleb128 0x33
 2802 0fb0 61687000 		.ascii	"ahp\000"
 2803 0fb4 01       		.byte	0x1
 2804 0fb5 AD       		.byte	0xad
 2805 0fb6 1C       		.byte	0x1c
 2806 0fb7 BA0B0000 		.4byte	0xbba
 2807 0fbb A7030000 		.4byte	.LLST9
 2808 0fbf 9D030000 		.4byte	.LVUS9
 2809 0fc3 34       		.uleb128 0x34
 2810 0fc4 59000000 		.4byte	.LASF143
 2811 0fc8 01       		.byte	0x1
 2812 0fc9 AE       		.byte	0xae
 2813 0fca 0A       		.byte	0xa
 2814 0fcb 2C000000 		.4byte	0x2c
 2815 0fcf F0030000 		.4byte	.LLST10
 2816 0fd3 E8030000 		.4byte	.LVUS10
 2817 0fd7 2F       		.uleb128 0x2f
 2818 0fd8 0D060000 		.4byte	.LASF171
 2819 0fdc A5100000 		.4byte	0x10a5
 2820 0fe0 35       		.uleb128 0x35
 2821 0fe1 14010000 		.4byte	.LBB4
 2822 0fe5 28000000 		.4byte	.LBE4-.LBB4
 2823 0fe9 1F100000 		.4byte	0x101f
 2824 0fed 34       		.uleb128 0x34
 2825 0fee 5A050000 		.4byte	.LASF172
 2826 0ff2 01       		.byte	0x1
 2827 0ff3 D2       		.byte	0xd2
 2828 0ff4 10       		.byte	0x10
 2829 0ff5 2C000000 		.4byte	0x2c
 2830 0ff9 2C040000 		.4byte	.LLST12
 2831 0ffd 2A040000 		.4byte	.LVUS12
 2832 1001 36       		.uleb128 0x36
 2833 1002 20010000 		.4byte	.LBB5
 2834 1006 1C000000 		.4byte	.LBE5-.LBB5
 2835 100a 33       		.uleb128 0x33
 2836 100b 667000   		.ascii	"fp\000"
 2837 100e 01       		.byte	0x1
 2838 100f D8       		.byte	0xd8
 2839 1010 1A       		.byte	0x1a
 2840 1011 BA0B0000 		.4byte	0xbba
 2841 1015 41040000 		.4byte	.LLST13
 2842 1019 3F040000 		.4byte	.LVUS13
 2843 101d 00       		.byte	0
 2844 101e 00       		.byte	0
ARM GAS  /tmp/cchO9Z19.s 			page 51


 2845 101f 29       		.uleb128 0x29
 2846 1020 00000000 		.4byte	.Ldebug_ranges0+0
 2847 1024 3C100000 		.4byte	0x103c
 2848 1028 33       		.uleb128 0x33
 2849 1029 667000   		.ascii	"fp\000"
 2850 102c 01       		.byte	0x1
 2851 102d EE       		.byte	0xee
 2852 102e 1A       		.byte	0x1a
 2853 102f BA0B0000 		.4byte	0xbba
 2854 1033 56040000 		.4byte	.LLST11
 2855 1037 54040000 		.4byte	.LVUS11
 2856 103b 00       		.byte	0
 2857 103c 2A       		.uleb128 0x2a
 2858 103d 7A000000 		.4byte	.LVL13
 2859 1041 6B110000 		.4byte	0x116b
 2860 1045 50100000 		.4byte	0x1050
 2861 1049 2B       		.uleb128 0x2b
 2862 104a 01       		.uleb128 0x1
 2863 104b 50       		.byte	0x50
 2864 104c 02       		.uleb128 0x2
 2865 104d 7A       		.byte	0x7a
 2866 104e 00       		.sleb128 0
 2867 104f 00       		.byte	0
 2868 1050 2A       		.uleb128 0x2a
 2869 1051 BA000000 		.4byte	.LVL21
 2870 1055 77110000 		.4byte	0x1177
 2871 1059 64100000 		.4byte	0x1064
 2872 105d 2B       		.uleb128 0x2b
 2873 105e 01       		.uleb128 0x1
 2874 105f 50       		.byte	0x50
 2875 1060 02       		.uleb128 0x2
 2876 1061 7A       		.byte	0x7a
 2877 1062 00       		.sleb128 0
 2878 1063 00       		.byte	0
 2879 1064 37       		.uleb128 0x37
 2880 1065 C8000000 		.4byte	.LVL22
 2881 1069 02       		.uleb128 0x2
 2882 106a 74       		.byte	0x74
 2883 106b 00       		.sleb128 0
 2884 106c 84100000 		.4byte	0x1084
 2885 1070 2B       		.uleb128 0x2b
 2886 1071 01       		.uleb128 0x1
 2887 1072 50       		.byte	0x50
 2888 1073 04       		.uleb128 0x4
 2889 1074 78       		.byte	0x78
 2890 1075 00       		.sleb128 0
 2891 1076 33       		.byte	0x33
 2892 1077 24       		.byte	0x24
 2893 1078 2B       		.uleb128 0x2b
 2894 1079 01       		.uleb128 0x1
 2895 107a 51       		.byte	0x51
 2896 107b 02       		.uleb128 0x2
 2897 107c 79       		.byte	0x79
 2898 107d 00       		.sleb128 0
 2899 107e 2B       		.uleb128 0x2b
 2900 107f 01       		.uleb128 0x1
 2901 1080 52       		.byte	0x52
ARM GAS  /tmp/cchO9Z19.s 			page 52


 2902 1081 01       		.uleb128 0x1
 2903 1082 38       		.byte	0x38
 2904 1083 00       		.byte	0
 2905 1084 2C       		.uleb128 0x2c
 2906 1085 0E010000 		.4byte	.LVL30
 2907 1089 77110000 		.4byte	0x1177
 2908 108d 2B       		.uleb128 0x2b
 2909 108e 01       		.uleb128 0x1
 2910 108f 50       		.byte	0x50
 2911 1090 02       		.uleb128 0x2
 2912 1091 7A       		.byte	0x7a
 2913 1092 00       		.sleb128 0
 2914 1093 00       		.byte	0
 2915 1094 00       		.byte	0
 2916 1095 16       		.uleb128 0x16
 2917 1096 F1060000 		.4byte	0x6f1
 2918 109a A5100000 		.4byte	0x10a5
 2919 109e 17       		.uleb128 0x17
 2920 109f 38000000 		.4byte	0x38
 2921 10a3 12       		.byte	0x12
 2922 10a4 00       		.byte	0
 2923 10a5 05       		.uleb128 0x5
 2924 10a6 95100000 		.4byte	0x1095
 2925 10aa 38       		.uleb128 0x38
 2926 10ab 21050000 		.4byte	.LASF174
 2927 10af 01       		.byte	0x1
 2928 10b0 83       		.byte	0x83
 2929 10b1 06       		.byte	0x6
 2930 10b2 20000000 		.4byte	.LFB324
 2931 10b6 28000000 		.4byte	.LFE324-.LFB324
 2932 10ba 01       		.uleb128 0x1
 2933 10bb 9C       		.byte	0x9c
 2934 10bc 2C110000 		.4byte	0x112c
 2935 10c0 32       		.uleb128 0x32
 2936 10c1 BF000000 		.4byte	.LASF164
 2937 10c5 01       		.byte	0x1
 2938 10c6 83       		.byte	0x83
 2939 10c7 26       		.byte	0x26
 2940 10c8 E40B0000 		.4byte	0xbe4
 2941 10cc 71040000 		.4byte	.LLST0
 2942 10d0 69040000 		.4byte	.LVUS0
 2943 10d4 39       		.uleb128 0x39
 2944 10d5 62756600 		.ascii	"buf\000"
 2945 10d9 01       		.byte	0x1
 2946 10da 83       		.byte	0x83
 2947 10db 33       		.byte	0x33
 2948 10dc 61030000 		.4byte	0x361
 2949 10e0 AE040000 		.4byte	.LLST1
 2950 10e4 AA040000 		.4byte	.LVUS1
 2951 10e8 32       		.uleb128 0x32
 2952 10e9 2B010000 		.4byte	.LASF93
 2953 10ed 01       		.byte	0x1
 2954 10ee 83       		.byte	0x83
 2955 10ef 3F       		.byte	0x3f
 2956 10f0 2C000000 		.4byte	0x2c
 2957 10f4 DB040000 		.4byte	.LLST2
 2958 10f8 CF040000 		.4byte	.LVUS2
ARM GAS  /tmp/cchO9Z19.s 			page 53


 2959 10fc 33       		.uleb128 0x33
 2960 10fd 687000   		.ascii	"hp\000"
 2961 1100 01       		.byte	0x1
 2962 1101 84       		.byte	0x84
 2963 1102 12       		.byte	0x12
 2964 1103 BA0B0000 		.4byte	0xbba
 2965 1107 5A050000 		.4byte	.LLST3
 2966 110b 56050000 		.4byte	.LVUS3
 2967 110f 2F       		.uleb128 0x2f
 2968 1110 0D060000 		.4byte	.LASF171
 2969 1114 3C110000 		.4byte	0x113c
 2970 1118 3A       		.uleb128 0x3a
 2971 1119 48000000 		.4byte	.LVL8
 2972 111d 83110000 		.4byte	0x1183
 2973 1121 2B       		.uleb128 0x2b
 2974 1122 01       		.uleb128 0x1
 2975 1123 50       		.byte	0x50
 2976 1124 05       		.uleb128 0x5
 2977 1125 F3       		.byte	0xf3
 2978 1126 01       		.uleb128 0x1
 2979 1127 50       		.byte	0x50
 2980 1128 23       		.byte	0x23
 2981 1129 0C       		.uleb128 0xc
 2982 112a 00       		.byte	0
 2983 112b 00       		.byte	0
 2984 112c 16       		.uleb128 0x16
 2985 112d F1060000 		.4byte	0x6f1
 2986 1131 3C110000 		.4byte	0x113c
 2987 1135 17       		.uleb128 0x17
 2988 1136 38000000 		.4byte	0x38
 2989 113a 10       		.byte	0x10
 2990 113b 00       		.byte	0
 2991 113c 05       		.uleb128 0x5
 2992 113d 2C110000 		.4byte	0x112c
 2993 1141 38       		.uleb128 0x38
 2994 1142 0D020000 		.4byte	.LASF175
 2995 1146 01       		.byte	0x1
 2996 1147 6B       		.byte	0x6b
 2997 1148 06       		.byte	0x6
 2998 1149 00000000 		.4byte	.LFB323
 2999 114d 1C000000 		.4byte	.LFE323-.LFB323
 3000 1151 01       		.uleb128 0x1
 3001 1152 9C       		.byte	0x9c
 3002 1153 6B110000 		.4byte	0x116b
 3003 1157 3A       		.uleb128 0x3a
 3004 1158 14000000 		.4byte	.LVL0
 3005 115c 83110000 		.4byte	0x1183
 3006 1160 2B       		.uleb128 0x2b
 3007 1161 01       		.uleb128 0x1
 3008 1162 50       		.byte	0x50
 3009 1163 05       		.uleb128 0x5
 3010 1164 03       		.byte	0x3
 3011 1165 0C000000 		.4byte	.LANCHOR0+12
 3012 1169 00       		.byte	0
 3013 116a 00       		.byte	0
 3014 116b 3B       		.uleb128 0x3b
 3015 116c E4030000 		.4byte	.LASF176
ARM GAS  /tmp/cchO9Z19.s 			page 54


 3016 1170 E4030000 		.4byte	.LASF176
 3017 1174 10       		.byte	0x10
 3018 1175 67       		.byte	0x67
 3019 1176 08       		.byte	0x8
 3020 1177 3B       		.uleb128 0x3b
 3021 1178 FA000000 		.4byte	.LASF177
 3022 117c FA000000 		.4byte	.LASF177
 3023 1180 10       		.byte	0x10
 3024 1181 6B       		.byte	0x6b
 3025 1182 08       		.byte	0x8
 3026 1183 3B       		.uleb128 0x3b
 3027 1184 5F070000 		.4byte	.LASF178
 3028 1188 5F070000 		.4byte	.LASF178
 3029 118c 10       		.byte	0x10
 3030 118d 66       		.byte	0x66
 3031 118e 08       		.byte	0x8
 3032 118f 00       		.byte	0
 3033              		.section	.debug_abbrev,"",%progbits
 3034              	.Ldebug_abbrev0:
 3035 0000 01       		.uleb128 0x1
 3036 0001 11       		.uleb128 0x11
 3037 0002 01       		.byte	0x1
 3038 0003 25       		.uleb128 0x25
 3039 0004 0E       		.uleb128 0xe
 3040 0005 13       		.uleb128 0x13
 3041 0006 0B       		.uleb128 0xb
 3042 0007 03       		.uleb128 0x3
 3043 0008 0E       		.uleb128 0xe
 3044 0009 1B       		.uleb128 0x1b
 3045 000a 0E       		.uleb128 0xe
 3046 000b 11       		.uleb128 0x11
 3047 000c 01       		.uleb128 0x1
 3048 000d 12       		.uleb128 0x12
 3049 000e 06       		.uleb128 0x6
 3050 000f 10       		.uleb128 0x10
 3051 0010 17       		.uleb128 0x17
 3052 0011 00       		.byte	0
 3053 0012 00       		.byte	0
 3054 0013 02       		.uleb128 0x2
 3055 0014 24       		.uleb128 0x24
 3056 0015 00       		.byte	0
 3057 0016 0B       		.uleb128 0xb
 3058 0017 0B       		.uleb128 0xb
 3059 0018 3E       		.uleb128 0x3e
 3060 0019 0B       		.uleb128 0xb
 3061 001a 03       		.uleb128 0x3
 3062 001b 08       		.uleb128 0x8
 3063 001c 00       		.byte	0
 3064 001d 00       		.byte	0
 3065 001e 03       		.uleb128 0x3
 3066 001f 16       		.uleb128 0x16
 3067 0020 00       		.byte	0
 3068 0021 03       		.uleb128 0x3
 3069 0022 0E       		.uleb128 0xe
 3070 0023 3A       		.uleb128 0x3a
 3071 0024 0B       		.uleb128 0xb
 3072 0025 3B       		.uleb128 0x3b
ARM GAS  /tmp/cchO9Z19.s 			page 55


 3073 0026 0B       		.uleb128 0xb
 3074 0027 39       		.uleb128 0x39
 3075 0028 0B       		.uleb128 0xb
 3076 0029 49       		.uleb128 0x49
 3077 002a 13       		.uleb128 0x13
 3078 002b 00       		.byte	0
 3079 002c 00       		.byte	0
 3080 002d 04       		.uleb128 0x4
 3081 002e 24       		.uleb128 0x24
 3082 002f 00       		.byte	0
 3083 0030 0B       		.uleb128 0xb
 3084 0031 0B       		.uleb128 0xb
 3085 0032 3E       		.uleb128 0x3e
 3086 0033 0B       		.uleb128 0xb
 3087 0034 03       		.uleb128 0x3
 3088 0035 0E       		.uleb128 0xe
 3089 0036 00       		.byte	0
 3090 0037 00       		.byte	0
 3091 0038 05       		.uleb128 0x5
 3092 0039 26       		.uleb128 0x26
 3093 003a 00       		.byte	0
 3094 003b 49       		.uleb128 0x49
 3095 003c 13       		.uleb128 0x13
 3096 003d 00       		.byte	0
 3097 003e 00       		.byte	0
 3098 003f 06       		.uleb128 0x6
 3099 0040 35       		.uleb128 0x35
 3100 0041 00       		.byte	0
 3101 0042 49       		.uleb128 0x49
 3102 0043 13       		.uleb128 0x13
 3103 0044 00       		.byte	0
 3104 0045 00       		.byte	0
 3105 0046 07       		.uleb128 0x7
 3106 0047 13       		.uleb128 0x13
 3107 0048 01       		.byte	0x1
 3108 0049 03       		.uleb128 0x3
 3109 004a 0E       		.uleb128 0xe
 3110 004b 0B       		.uleb128 0xb
 3111 004c 0B       		.uleb128 0xb
 3112 004d 3A       		.uleb128 0x3a
 3113 004e 0B       		.uleb128 0xb
 3114 004f 3B       		.uleb128 0x3b
 3115 0050 0B       		.uleb128 0xb
 3116 0051 39       		.uleb128 0x39
 3117 0052 0B       		.uleb128 0xb
 3118 0053 01       		.uleb128 0x1
 3119 0054 13       		.uleb128 0x13
 3120 0055 00       		.byte	0
 3121 0056 00       		.byte	0
 3122 0057 08       		.uleb128 0x8
 3123 0058 0D       		.uleb128 0xd
 3124 0059 00       		.byte	0
 3125 005a 03       		.uleb128 0x3
 3126 005b 0E       		.uleb128 0xe
 3127 005c 3A       		.uleb128 0x3a
 3128 005d 0B       		.uleb128 0xb
 3129 005e 3B       		.uleb128 0x3b
ARM GAS  /tmp/cchO9Z19.s 			page 56


 3130 005f 0B       		.uleb128 0xb
 3131 0060 39       		.uleb128 0x39
 3132 0061 0B       		.uleb128 0xb
 3133 0062 49       		.uleb128 0x49
 3134 0063 13       		.uleb128 0x13
 3135 0064 38       		.uleb128 0x38
 3136 0065 0B       		.uleb128 0xb
 3137 0066 00       		.byte	0
 3138 0067 00       		.byte	0
 3139 0068 09       		.uleb128 0x9
 3140 0069 0D       		.uleb128 0xd
 3141 006a 00       		.byte	0
 3142 006b 03       		.uleb128 0x3
 3143 006c 08       		.uleb128 0x8
 3144 006d 3A       		.uleb128 0x3a
 3145 006e 0B       		.uleb128 0xb
 3146 006f 3B       		.uleb128 0x3b
 3147 0070 0B       		.uleb128 0xb
 3148 0071 39       		.uleb128 0x39
 3149 0072 0B       		.uleb128 0xb
 3150 0073 49       		.uleb128 0x49
 3151 0074 13       		.uleb128 0x13
 3152 0075 38       		.uleb128 0x38
 3153 0076 0B       		.uleb128 0xb
 3154 0077 00       		.byte	0
 3155 0078 00       		.byte	0
 3156 0079 0A       		.uleb128 0xa
 3157 007a 0D       		.uleb128 0xd
 3158 007b 00       		.byte	0
 3159 007c 03       		.uleb128 0x3
 3160 007d 08       		.uleb128 0x8
 3161 007e 3A       		.uleb128 0x3a
 3162 007f 0B       		.uleb128 0xb
 3163 0080 3B       		.uleb128 0x3b
 3164 0081 05       		.uleb128 0x5
 3165 0082 39       		.uleb128 0x39
 3166 0083 0B       		.uleb128 0xb
 3167 0084 49       		.uleb128 0x49
 3168 0085 13       		.uleb128 0x13
 3169 0086 38       		.uleb128 0x38
 3170 0087 0B       		.uleb128 0xb
 3171 0088 00       		.byte	0
 3172 0089 00       		.byte	0
 3173 008a 0B       		.uleb128 0xb
 3174 008b 0D       		.uleb128 0xd
 3175 008c 00       		.byte	0
 3176 008d 03       		.uleb128 0x3
 3177 008e 0E       		.uleb128 0xe
 3178 008f 3A       		.uleb128 0x3a
 3179 0090 0B       		.uleb128 0xb
 3180 0091 3B       		.uleb128 0x3b
 3181 0092 05       		.uleb128 0x5
 3182 0093 39       		.uleb128 0x39
 3183 0094 0B       		.uleb128 0xb
 3184 0095 49       		.uleb128 0x49
 3185 0096 13       		.uleb128 0x13
 3186 0097 38       		.uleb128 0x38
ARM GAS  /tmp/cchO9Z19.s 			page 57


 3187 0098 0B       		.uleb128 0xb
 3188 0099 00       		.byte	0
 3189 009a 00       		.byte	0
 3190 009b 0C       		.uleb128 0xc
 3191 009c 0F       		.uleb128 0xf
 3192 009d 00       		.byte	0
 3193 009e 0B       		.uleb128 0xb
 3194 009f 0B       		.uleb128 0xb
 3195 00a0 49       		.uleb128 0x49
 3196 00a1 13       		.uleb128 0x13
 3197 00a2 00       		.byte	0
 3198 00a3 00       		.byte	0
 3199 00a4 0D       		.uleb128 0xd
 3200 00a5 13       		.uleb128 0x13
 3201 00a6 01       		.byte	0x1
 3202 00a7 03       		.uleb128 0x3
 3203 00a8 0E       		.uleb128 0xe
 3204 00a9 0B       		.uleb128 0xb
 3205 00aa 0B       		.uleb128 0xb
 3206 00ab 3A       		.uleb128 0x3a
 3207 00ac 0B       		.uleb128 0xb
 3208 00ad 3B       		.uleb128 0x3b
 3209 00ae 05       		.uleb128 0x5
 3210 00af 39       		.uleb128 0x39
 3211 00b0 0B       		.uleb128 0xb
 3212 00b1 01       		.uleb128 0x1
 3213 00b2 13       		.uleb128 0x13
 3214 00b3 00       		.byte	0
 3215 00b4 00       		.byte	0
 3216 00b5 0E       		.uleb128 0xe
 3217 00b6 15       		.uleb128 0x15
 3218 00b7 01       		.byte	0x1
 3219 00b8 27       		.uleb128 0x27
 3220 00b9 19       		.uleb128 0x19
 3221 00ba 01       		.uleb128 0x1
 3222 00bb 13       		.uleb128 0x13
 3223 00bc 00       		.byte	0
 3224 00bd 00       		.byte	0
 3225 00be 0F       		.uleb128 0xf
 3226 00bf 05       		.uleb128 0x5
 3227 00c0 00       		.byte	0
 3228 00c1 49       		.uleb128 0x49
 3229 00c2 13       		.uleb128 0x13
 3230 00c3 00       		.byte	0
 3231 00c4 00       		.byte	0
 3232 00c5 10       		.uleb128 0x10
 3233 00c6 0F       		.uleb128 0xf
 3234 00c7 00       		.byte	0
 3235 00c8 0B       		.uleb128 0xb
 3236 00c9 0B       		.uleb128 0xb
 3237 00ca 00       		.byte	0
 3238 00cb 00       		.byte	0
 3239 00cc 11       		.uleb128 0x11
 3240 00cd 13       		.uleb128 0x13
 3241 00ce 01       		.byte	0x1
 3242 00cf 03       		.uleb128 0x3
 3243 00d0 0E       		.uleb128 0xe
ARM GAS  /tmp/cchO9Z19.s 			page 58


 3244 00d1 0B       		.uleb128 0xb
 3245 00d2 05       		.uleb128 0x5
 3246 00d3 3A       		.uleb128 0x3a
 3247 00d4 0B       		.uleb128 0xb
 3248 00d5 3B       		.uleb128 0x3b
 3249 00d6 05       		.uleb128 0x5
 3250 00d7 39       		.uleb128 0x39
 3251 00d8 0B       		.uleb128 0xb
 3252 00d9 01       		.uleb128 0x1
 3253 00da 13       		.uleb128 0x13
 3254 00db 00       		.byte	0
 3255 00dc 00       		.byte	0
 3256 00dd 12       		.uleb128 0x12
 3257 00de 0D       		.uleb128 0xd
 3258 00df 00       		.byte	0
 3259 00e0 03       		.uleb128 0x3
 3260 00e1 0E       		.uleb128 0xe
 3261 00e2 3A       		.uleb128 0x3a
 3262 00e3 0B       		.uleb128 0xb
 3263 00e4 3B       		.uleb128 0x3b
 3264 00e5 05       		.uleb128 0x5
 3265 00e6 39       		.uleb128 0x39
 3266 00e7 0B       		.uleb128 0xb
 3267 00e8 49       		.uleb128 0x49
 3268 00e9 13       		.uleb128 0x13
 3269 00ea 38       		.uleb128 0x38
 3270 00eb 05       		.uleb128 0x5
 3271 00ec 00       		.byte	0
 3272 00ed 00       		.byte	0
 3273 00ee 13       		.uleb128 0x13
 3274 00ef 0D       		.uleb128 0xd
 3275 00f0 00       		.byte	0
 3276 00f1 03       		.uleb128 0x3
 3277 00f2 08       		.uleb128 0x8
 3278 00f3 3A       		.uleb128 0x3a
 3279 00f4 0B       		.uleb128 0xb
 3280 00f5 3B       		.uleb128 0x3b
 3281 00f6 05       		.uleb128 0x5
 3282 00f7 39       		.uleb128 0x39
 3283 00f8 0B       		.uleb128 0xb
 3284 00f9 49       		.uleb128 0x49
 3285 00fa 13       		.uleb128 0x13
 3286 00fb 38       		.uleb128 0x38
 3287 00fc 05       		.uleb128 0x5
 3288 00fd 00       		.byte	0
 3289 00fe 00       		.byte	0
 3290 00ff 14       		.uleb128 0x14
 3291 0100 34       		.uleb128 0x34
 3292 0101 00       		.byte	0
 3293 0102 03       		.uleb128 0x3
 3294 0103 0E       		.uleb128 0xe
 3295 0104 3A       		.uleb128 0x3a
 3296 0105 0B       		.uleb128 0xb
 3297 0106 3B       		.uleb128 0x3b
 3298 0107 05       		.uleb128 0x5
 3299 0108 39       		.uleb128 0x39
 3300 0109 0B       		.uleb128 0xb
ARM GAS  /tmp/cchO9Z19.s 			page 59


 3301 010a 49       		.uleb128 0x49
 3302 010b 13       		.uleb128 0x13
 3303 010c 3F       		.uleb128 0x3f
 3304 010d 19       		.uleb128 0x19
 3305 010e 3C       		.uleb128 0x3c
 3306 010f 19       		.uleb128 0x19
 3307 0110 00       		.byte	0
 3308 0111 00       		.byte	0
 3309 0112 15       		.uleb128 0x15
 3310 0113 34       		.uleb128 0x34
 3311 0114 00       		.byte	0
 3312 0115 03       		.uleb128 0x3
 3313 0116 0E       		.uleb128 0xe
 3314 0117 3A       		.uleb128 0x3a
 3315 0118 0B       		.uleb128 0xb
 3316 0119 3B       		.uleb128 0x3b
 3317 011a 0B       		.uleb128 0xb
 3318 011b 39       		.uleb128 0x39
 3319 011c 0B       		.uleb128 0xb
 3320 011d 49       		.uleb128 0x49
 3321 011e 13       		.uleb128 0x13
 3322 011f 3F       		.uleb128 0x3f
 3323 0120 19       		.uleb128 0x19
 3324 0121 3C       		.uleb128 0x3c
 3325 0122 19       		.uleb128 0x19
 3326 0123 00       		.byte	0
 3327 0124 00       		.byte	0
 3328 0125 16       		.uleb128 0x16
 3329 0126 01       		.uleb128 0x1
 3330 0127 01       		.byte	0x1
 3331 0128 49       		.uleb128 0x49
 3332 0129 13       		.uleb128 0x13
 3333 012a 01       		.uleb128 0x1
 3334 012b 13       		.uleb128 0x13
 3335 012c 00       		.byte	0
 3336 012d 00       		.byte	0
 3337 012e 17       		.uleb128 0x17
 3338 012f 21       		.uleb128 0x21
 3339 0130 00       		.byte	0
 3340 0131 49       		.uleb128 0x49
 3341 0132 13       		.uleb128 0x13
 3342 0133 2F       		.uleb128 0x2f
 3343 0134 0B       		.uleb128 0xb
 3344 0135 00       		.byte	0
 3345 0136 00       		.byte	0
 3346 0137 18       		.uleb128 0x18
 3347 0138 13       		.uleb128 0x13
 3348 0139 01       		.byte	0x1
 3349 013a 0B       		.uleb128 0xb
 3350 013b 0B       		.uleb128 0xb
 3351 013c 3A       		.uleb128 0x3a
 3352 013d 0B       		.uleb128 0xb
 3353 013e 3B       		.uleb128 0x3b
 3354 013f 0B       		.uleb128 0xb
 3355 0140 39       		.uleb128 0x39
 3356 0141 0B       		.uleb128 0xb
 3357 0142 01       		.uleb128 0x1
ARM GAS  /tmp/cchO9Z19.s 			page 60


 3358 0143 13       		.uleb128 0x13
 3359 0144 00       		.byte	0
 3360 0145 00       		.byte	0
 3361 0146 19       		.uleb128 0x19
 3362 0147 17       		.uleb128 0x17
 3363 0148 01       		.byte	0x1
 3364 0149 0B       		.uleb128 0xb
 3365 014a 0B       		.uleb128 0xb
 3366 014b 3A       		.uleb128 0x3a
 3367 014c 0B       		.uleb128 0xb
 3368 014d 3B       		.uleb128 0x3b
 3369 014e 0B       		.uleb128 0xb
 3370 014f 39       		.uleb128 0x39
 3371 0150 0B       		.uleb128 0xb
 3372 0151 01       		.uleb128 0x1
 3373 0152 13       		.uleb128 0x13
 3374 0153 00       		.byte	0
 3375 0154 00       		.byte	0
 3376 0155 1A       		.uleb128 0x1a
 3377 0156 0D       		.uleb128 0xd
 3378 0157 00       		.byte	0
 3379 0158 03       		.uleb128 0x3
 3380 0159 08       		.uleb128 0x8
 3381 015a 3A       		.uleb128 0x3a
 3382 015b 0B       		.uleb128 0xb
 3383 015c 3B       		.uleb128 0x3b
 3384 015d 0B       		.uleb128 0xb
 3385 015e 39       		.uleb128 0x39
 3386 015f 0B       		.uleb128 0xb
 3387 0160 49       		.uleb128 0x49
 3388 0161 13       		.uleb128 0x13
 3389 0162 00       		.byte	0
 3390 0163 00       		.byte	0
 3391 0164 1B       		.uleb128 0x1b
 3392 0165 0D       		.uleb128 0xd
 3393 0166 00       		.byte	0
 3394 0167 03       		.uleb128 0x3
 3395 0168 0E       		.uleb128 0xe
 3396 0169 3A       		.uleb128 0x3a
 3397 016a 0B       		.uleb128 0xb
 3398 016b 3B       		.uleb128 0x3b
 3399 016c 0B       		.uleb128 0xb
 3400 016d 39       		.uleb128 0x39
 3401 016e 0B       		.uleb128 0xb
 3402 016f 49       		.uleb128 0x49
 3403 0170 13       		.uleb128 0x13
 3404 0171 00       		.byte	0
 3405 0172 00       		.byte	0
 3406 0173 1C       		.uleb128 0x1c
 3407 0174 0D       		.uleb128 0xd
 3408 0175 00       		.byte	0
 3409 0176 03       		.uleb128 0x3
 3410 0177 0E       		.uleb128 0xe
 3411 0178 3A       		.uleb128 0x3a
 3412 0179 0B       		.uleb128 0xb
 3413 017a 3B       		.uleb128 0x3b
 3414 017b 0B       		.uleb128 0xb
ARM GAS  /tmp/cchO9Z19.s 			page 61


 3415 017c 39       		.uleb128 0x39
 3416 017d 0B       		.uleb128 0xb
 3417 017e 49       		.uleb128 0x49
 3418 017f 13       		.uleb128 0x13
 3419 0180 0B       		.uleb128 0xb
 3420 0181 0B       		.uleb128 0xb
 3421 0182 0D       		.uleb128 0xd
 3422 0183 0B       		.uleb128 0xb
 3423 0184 0C       		.uleb128 0xc
 3424 0185 0B       		.uleb128 0xb
 3425 0186 38       		.uleb128 0x38
 3426 0187 0B       		.uleb128 0xb
 3427 0188 00       		.byte	0
 3428 0189 00       		.byte	0
 3429 018a 1D       		.uleb128 0x1d
 3430 018b 13       		.uleb128 0x13
 3431 018c 01       		.byte	0x1
 3432 018d 0B       		.uleb128 0xb
 3433 018e 05       		.uleb128 0x5
 3434 018f 3A       		.uleb128 0x3a
 3435 0190 0B       		.uleb128 0xb
 3436 0191 3B       		.uleb128 0x3b
 3437 0192 0B       		.uleb128 0xb
 3438 0193 39       		.uleb128 0x39
 3439 0194 0B       		.uleb128 0xb
 3440 0195 01       		.uleb128 0x1
 3441 0196 13       		.uleb128 0x13
 3442 0197 00       		.byte	0
 3443 0198 00       		.byte	0
 3444 0199 1E       		.uleb128 0x1e
 3445 019a 0D       		.uleb128 0xd
 3446 019b 00       		.byte	0
 3447 019c 03       		.uleb128 0x3
 3448 019d 0E       		.uleb128 0xe
 3449 019e 3A       		.uleb128 0x3a
 3450 019f 0B       		.uleb128 0xb
 3451 01a0 3B       		.uleb128 0x3b
 3452 01a1 05       		.uleb128 0x5
 3453 01a2 39       		.uleb128 0x39
 3454 01a3 0B       		.uleb128 0xb
 3455 01a4 49       		.uleb128 0x49
 3456 01a5 13       		.uleb128 0x13
 3457 01a6 00       		.byte	0
 3458 01a7 00       		.byte	0
 3459 01a8 1F       		.uleb128 0x1f
 3460 01a9 34       		.uleb128 0x34
 3461 01aa 00       		.byte	0
 3462 01ab 03       		.uleb128 0x3
 3463 01ac 08       		.uleb128 0x8
 3464 01ad 3A       		.uleb128 0x3a
 3465 01ae 0B       		.uleb128 0xb
 3466 01af 3B       		.uleb128 0x3b
 3467 01b0 05       		.uleb128 0x5
 3468 01b1 39       		.uleb128 0x39
 3469 01b2 0B       		.uleb128 0xb
 3470 01b3 49       		.uleb128 0x49
 3471 01b4 13       		.uleb128 0x13
ARM GAS  /tmp/cchO9Z19.s 			page 62


 3472 01b5 3F       		.uleb128 0x3f
 3473 01b6 19       		.uleb128 0x19
 3474 01b7 3C       		.uleb128 0x3c
 3475 01b8 19       		.uleb128 0x19
 3476 01b9 00       		.byte	0
 3477 01ba 00       		.byte	0
 3478 01bb 20       		.uleb128 0x20
 3479 01bc 21       		.uleb128 0x21
 3480 01bd 00       		.byte	0
 3481 01be 00       		.byte	0
 3482 01bf 00       		.byte	0
 3483 01c0 21       		.uleb128 0x21
 3484 01c1 15       		.uleb128 0x15
 3485 01c2 01       		.byte	0x1
 3486 01c3 27       		.uleb128 0x27
 3487 01c4 19       		.uleb128 0x19
 3488 01c5 49       		.uleb128 0x49
 3489 01c6 13       		.uleb128 0x13
 3490 01c7 01       		.uleb128 0x1
 3491 01c8 13       		.uleb128 0x13
 3492 01c9 00       		.byte	0
 3493 01ca 00       		.byte	0
 3494 01cb 22       		.uleb128 0x22
 3495 01cc 17       		.uleb128 0x17
 3496 01cd 01       		.byte	0x1
 3497 01ce 03       		.uleb128 0x3
 3498 01cf 0E       		.uleb128 0xe
 3499 01d0 0B       		.uleb128 0xb
 3500 01d1 0B       		.uleb128 0xb
 3501 01d2 3A       		.uleb128 0x3a
 3502 01d3 0B       		.uleb128 0xb
 3503 01d4 3B       		.uleb128 0x3b
 3504 01d5 0B       		.uleb128 0xb
 3505 01d6 39       		.uleb128 0x39
 3506 01d7 0B       		.uleb128 0xb
 3507 01d8 01       		.uleb128 0x1
 3508 01d9 13       		.uleb128 0x13
 3509 01da 00       		.byte	0
 3510 01db 00       		.byte	0
 3511 01dc 23       		.uleb128 0x23
 3512 01dd 16       		.uleb128 0x16
 3513 01de 00       		.byte	0
 3514 01df 03       		.uleb128 0x3
 3515 01e0 0E       		.uleb128 0xe
 3516 01e1 3A       		.uleb128 0x3a
 3517 01e2 0B       		.uleb128 0xb
 3518 01e3 3B       		.uleb128 0x3b
 3519 01e4 05       		.uleb128 0x5
 3520 01e5 39       		.uleb128 0x39
 3521 01e6 0B       		.uleb128 0xb
 3522 01e7 49       		.uleb128 0x49
 3523 01e8 13       		.uleb128 0x13
 3524 01e9 00       		.byte	0
 3525 01ea 00       		.byte	0
 3526 01eb 24       		.uleb128 0x24
 3527 01ec 34       		.uleb128 0x34
 3528 01ed 00       		.byte	0
ARM GAS  /tmp/cchO9Z19.s 			page 63


 3529 01ee 03       		.uleb128 0x3
 3530 01ef 0E       		.uleb128 0xe
 3531 01f0 3A       		.uleb128 0x3a
 3532 01f1 0B       		.uleb128 0xb
 3533 01f2 3B       		.uleb128 0x3b
 3534 01f3 0B       		.uleb128 0xb
 3535 01f4 39       		.uleb128 0x39
 3536 01f5 0B       		.uleb128 0xb
 3537 01f6 49       		.uleb128 0x49
 3538 01f7 13       		.uleb128 0x13
 3539 01f8 02       		.uleb128 0x2
 3540 01f9 18       		.uleb128 0x18
 3541 01fa 00       		.byte	0
 3542 01fb 00       		.byte	0
 3543 01fc 25       		.uleb128 0x25
 3544 01fd 2E       		.uleb128 0x2e
 3545 01fe 01       		.byte	0x1
 3546 01ff 3F       		.uleb128 0x3f
 3547 0200 19       		.uleb128 0x19
 3548 0201 03       		.uleb128 0x3
 3549 0202 0E       		.uleb128 0xe
 3550 0203 3A       		.uleb128 0x3a
 3551 0204 0B       		.uleb128 0xb
 3552 0205 3B       		.uleb128 0x3b
 3553 0206 05       		.uleb128 0x5
 3554 0207 39       		.uleb128 0x39
 3555 0208 0B       		.uleb128 0xb
 3556 0209 27       		.uleb128 0x27
 3557 020a 19       		.uleb128 0x19
 3558 020b 49       		.uleb128 0x49
 3559 020c 13       		.uleb128 0x13
 3560 020d 11       		.uleb128 0x11
 3561 020e 01       		.uleb128 0x1
 3562 020f 12       		.uleb128 0x12
 3563 0210 06       		.uleb128 0x6
 3564 0211 40       		.uleb128 0x40
 3565 0212 18       		.uleb128 0x18
 3566 0213 9742     		.uleb128 0x2117
 3567 0215 19       		.uleb128 0x19
 3568 0216 01       		.uleb128 0x1
 3569 0217 13       		.uleb128 0x13
 3570 0218 00       		.byte	0
 3571 0219 00       		.byte	0
 3572 021a 26       		.uleb128 0x26
 3573 021b 05       		.uleb128 0x5
 3574 021c 00       		.byte	0
 3575 021d 03       		.uleb128 0x3
 3576 021e 0E       		.uleb128 0xe
 3577 021f 3A       		.uleb128 0x3a
 3578 0220 0B       		.uleb128 0xb
 3579 0221 3B       		.uleb128 0x3b
 3580 0222 05       		.uleb128 0x5
 3581 0223 39       		.uleb128 0x39
 3582 0224 0B       		.uleb128 0xb
 3583 0225 49       		.uleb128 0x49
 3584 0226 13       		.uleb128 0x13
 3585 0227 02       		.uleb128 0x2
ARM GAS  /tmp/cchO9Z19.s 			page 64


 3586 0228 17       		.uleb128 0x17
 3587 0229 B742     		.uleb128 0x2137
 3588 022b 17       		.uleb128 0x17
 3589 022c 00       		.byte	0
 3590 022d 00       		.byte	0
 3591 022e 27       		.uleb128 0x27
 3592 022f 34       		.uleb128 0x34
 3593 0230 00       		.byte	0
 3594 0231 03       		.uleb128 0x3
 3595 0232 08       		.uleb128 0x8
 3596 0233 3A       		.uleb128 0x3a
 3597 0234 0B       		.uleb128 0xb
 3598 0235 3B       		.uleb128 0x3b
 3599 0236 05       		.uleb128 0x5
 3600 0237 39       		.uleb128 0x39
 3601 0238 0B       		.uleb128 0xb
 3602 0239 49       		.uleb128 0x49
 3603 023a 13       		.uleb128 0x13
 3604 023b 02       		.uleb128 0x2
 3605 023c 17       		.uleb128 0x17
 3606 023d B742     		.uleb128 0x2137
 3607 023f 17       		.uleb128 0x17
 3608 0240 00       		.byte	0
 3609 0241 00       		.byte	0
 3610 0242 28       		.uleb128 0x28
 3611 0243 34       		.uleb128 0x34
 3612 0244 00       		.byte	0
 3613 0245 03       		.uleb128 0x3
 3614 0246 0E       		.uleb128 0xe
 3615 0247 3A       		.uleb128 0x3a
 3616 0248 0B       		.uleb128 0xb
 3617 0249 3B       		.uleb128 0x3b
 3618 024a 05       		.uleb128 0x5
 3619 024b 39       		.uleb128 0x39
 3620 024c 0B       		.uleb128 0xb
 3621 024d 49       		.uleb128 0x49
 3622 024e 13       		.uleb128 0x13
 3623 024f 02       		.uleb128 0x2
 3624 0250 17       		.uleb128 0x17
 3625 0251 B742     		.uleb128 0x2137
 3626 0253 17       		.uleb128 0x17
 3627 0254 00       		.byte	0
 3628 0255 00       		.byte	0
 3629 0256 29       		.uleb128 0x29
 3630 0257 0B       		.uleb128 0xb
 3631 0258 01       		.byte	0x1
 3632 0259 55       		.uleb128 0x55
 3633 025a 17       		.uleb128 0x17
 3634 025b 01       		.uleb128 0x1
 3635 025c 13       		.uleb128 0x13
 3636 025d 00       		.byte	0
 3637 025e 00       		.byte	0
 3638 025f 2A       		.uleb128 0x2a
 3639 0260 898201   		.uleb128 0x4109
 3640 0263 01       		.byte	0x1
 3641 0264 11       		.uleb128 0x11
 3642 0265 01       		.uleb128 0x1
ARM GAS  /tmp/cchO9Z19.s 			page 65


 3643 0266 31       		.uleb128 0x31
 3644 0267 13       		.uleb128 0x13
 3645 0268 01       		.uleb128 0x1
 3646 0269 13       		.uleb128 0x13
 3647 026a 00       		.byte	0
 3648 026b 00       		.byte	0
 3649 026c 2B       		.uleb128 0x2b
 3650 026d 8A8201   		.uleb128 0x410a
 3651 0270 00       		.byte	0
 3652 0271 02       		.uleb128 0x2
 3653 0272 18       		.uleb128 0x18
 3654 0273 9142     		.uleb128 0x2111
 3655 0275 18       		.uleb128 0x18
 3656 0276 00       		.byte	0
 3657 0277 00       		.byte	0
 3658 0278 2C       		.uleb128 0x2c
 3659 0279 898201   		.uleb128 0x4109
 3660 027c 01       		.byte	0x1
 3661 027d 11       		.uleb128 0x11
 3662 027e 01       		.uleb128 0x1
 3663 027f 31       		.uleb128 0x31
 3664 0280 13       		.uleb128 0x13
 3665 0281 00       		.byte	0
 3666 0282 00       		.byte	0
 3667 0283 2D       		.uleb128 0x2d
 3668 0284 2E       		.uleb128 0x2e
 3669 0285 01       		.byte	0x1
 3670 0286 3F       		.uleb128 0x3f
 3671 0287 19       		.uleb128 0x19
 3672 0288 03       		.uleb128 0x3
 3673 0289 0E       		.uleb128 0xe
 3674 028a 3A       		.uleb128 0x3a
 3675 028b 0B       		.uleb128 0xb
 3676 028c 3B       		.uleb128 0x3b
 3677 028d 05       		.uleb128 0x5
 3678 028e 39       		.uleb128 0x39
 3679 028f 0B       		.uleb128 0xb
 3680 0290 27       		.uleb128 0x27
 3681 0291 19       		.uleb128 0x19
 3682 0292 11       		.uleb128 0x11
 3683 0293 01       		.uleb128 0x1
 3684 0294 12       		.uleb128 0x12
 3685 0295 06       		.uleb128 0x6
 3686 0296 40       		.uleb128 0x40
 3687 0297 18       		.uleb128 0x18
 3688 0298 9742     		.uleb128 0x2117
 3689 029a 19       		.uleb128 0x19
 3690 029b 01       		.uleb128 0x1
 3691 029c 13       		.uleb128 0x13
 3692 029d 00       		.byte	0
 3693 029e 00       		.byte	0
 3694 029f 2E       		.uleb128 0x2e
 3695 02a0 05       		.uleb128 0x5
 3696 02a1 00       		.byte	0
 3697 02a2 03       		.uleb128 0x3
 3698 02a3 08       		.uleb128 0x8
 3699 02a4 3A       		.uleb128 0x3a
ARM GAS  /tmp/cchO9Z19.s 			page 66


 3700 02a5 0B       		.uleb128 0xb
 3701 02a6 3B       		.uleb128 0x3b
 3702 02a7 05       		.uleb128 0x5
 3703 02a8 39       		.uleb128 0x39
 3704 02a9 0B       		.uleb128 0xb
 3705 02aa 49       		.uleb128 0x49
 3706 02ab 13       		.uleb128 0x13
 3707 02ac 02       		.uleb128 0x2
 3708 02ad 17       		.uleb128 0x17
 3709 02ae B742     		.uleb128 0x2137
 3710 02b0 17       		.uleb128 0x17
 3711 02b1 00       		.byte	0
 3712 02b2 00       		.byte	0
 3713 02b3 2F       		.uleb128 0x2f
 3714 02b4 34       		.uleb128 0x34
 3715 02b5 00       		.byte	0
 3716 02b6 03       		.uleb128 0x3
 3717 02b7 0E       		.uleb128 0xe
 3718 02b8 49       		.uleb128 0x49
 3719 02b9 13       		.uleb128 0x13
 3720 02ba 34       		.uleb128 0x34
 3721 02bb 19       		.uleb128 0x19
 3722 02bc 00       		.byte	0
 3723 02bd 00       		.byte	0
 3724 02be 30       		.uleb128 0x30
 3725 02bf 898201   		.uleb128 0x4109
 3726 02c2 00       		.byte	0
 3727 02c3 11       		.uleb128 0x11
 3728 02c4 01       		.uleb128 0x1
 3729 02c5 9542     		.uleb128 0x2115
 3730 02c7 19       		.uleb128 0x19
 3731 02c8 31       		.uleb128 0x31
 3732 02c9 13       		.uleb128 0x13
 3733 02ca 00       		.byte	0
 3734 02cb 00       		.byte	0
 3735 02cc 31       		.uleb128 0x31
 3736 02cd 2E       		.uleb128 0x2e
 3737 02ce 01       		.byte	0x1
 3738 02cf 3F       		.uleb128 0x3f
 3739 02d0 19       		.uleb128 0x19
 3740 02d1 03       		.uleb128 0x3
 3741 02d2 0E       		.uleb128 0xe
 3742 02d3 3A       		.uleb128 0x3a
 3743 02d4 0B       		.uleb128 0xb
 3744 02d5 3B       		.uleb128 0x3b
 3745 02d6 0B       		.uleb128 0xb
 3746 02d7 39       		.uleb128 0x39
 3747 02d8 0B       		.uleb128 0xb
 3748 02d9 27       		.uleb128 0x27
 3749 02da 19       		.uleb128 0x19
 3750 02db 49       		.uleb128 0x49
 3751 02dc 13       		.uleb128 0x13
 3752 02dd 11       		.uleb128 0x11
 3753 02de 01       		.uleb128 0x1
 3754 02df 12       		.uleb128 0x12
 3755 02e0 06       		.uleb128 0x6
 3756 02e1 40       		.uleb128 0x40
ARM GAS  /tmp/cchO9Z19.s 			page 67


 3757 02e2 18       		.uleb128 0x18
 3758 02e3 9742     		.uleb128 0x2117
 3759 02e5 19       		.uleb128 0x19
 3760 02e6 01       		.uleb128 0x1
 3761 02e7 13       		.uleb128 0x13
 3762 02e8 00       		.byte	0
 3763 02e9 00       		.byte	0
 3764 02ea 32       		.uleb128 0x32
 3765 02eb 05       		.uleb128 0x5
 3766 02ec 00       		.byte	0
 3767 02ed 03       		.uleb128 0x3
 3768 02ee 0E       		.uleb128 0xe
 3769 02ef 3A       		.uleb128 0x3a
 3770 02f0 0B       		.uleb128 0xb
 3771 02f1 3B       		.uleb128 0x3b
 3772 02f2 0B       		.uleb128 0xb
 3773 02f3 39       		.uleb128 0x39
 3774 02f4 0B       		.uleb128 0xb
 3775 02f5 49       		.uleb128 0x49
 3776 02f6 13       		.uleb128 0x13
 3777 02f7 02       		.uleb128 0x2
 3778 02f8 17       		.uleb128 0x17
 3779 02f9 B742     		.uleb128 0x2137
 3780 02fb 17       		.uleb128 0x17
 3781 02fc 00       		.byte	0
 3782 02fd 00       		.byte	0
 3783 02fe 33       		.uleb128 0x33
 3784 02ff 34       		.uleb128 0x34
 3785 0300 00       		.byte	0
 3786 0301 03       		.uleb128 0x3
 3787 0302 08       		.uleb128 0x8
 3788 0303 3A       		.uleb128 0x3a
 3789 0304 0B       		.uleb128 0xb
 3790 0305 3B       		.uleb128 0x3b
 3791 0306 0B       		.uleb128 0xb
 3792 0307 39       		.uleb128 0x39
 3793 0308 0B       		.uleb128 0xb
 3794 0309 49       		.uleb128 0x49
 3795 030a 13       		.uleb128 0x13
 3796 030b 02       		.uleb128 0x2
 3797 030c 17       		.uleb128 0x17
 3798 030d B742     		.uleb128 0x2137
 3799 030f 17       		.uleb128 0x17
 3800 0310 00       		.byte	0
 3801 0311 00       		.byte	0
 3802 0312 34       		.uleb128 0x34
 3803 0313 34       		.uleb128 0x34
 3804 0314 00       		.byte	0
 3805 0315 03       		.uleb128 0x3
 3806 0316 0E       		.uleb128 0xe
 3807 0317 3A       		.uleb128 0x3a
 3808 0318 0B       		.uleb128 0xb
 3809 0319 3B       		.uleb128 0x3b
 3810 031a 0B       		.uleb128 0xb
 3811 031b 39       		.uleb128 0x39
 3812 031c 0B       		.uleb128 0xb
 3813 031d 49       		.uleb128 0x49
ARM GAS  /tmp/cchO9Z19.s 			page 68


 3814 031e 13       		.uleb128 0x13
 3815 031f 02       		.uleb128 0x2
 3816 0320 17       		.uleb128 0x17
 3817 0321 B742     		.uleb128 0x2137
 3818 0323 17       		.uleb128 0x17
 3819 0324 00       		.byte	0
 3820 0325 00       		.byte	0
 3821 0326 35       		.uleb128 0x35
 3822 0327 0B       		.uleb128 0xb
 3823 0328 01       		.byte	0x1
 3824 0329 11       		.uleb128 0x11
 3825 032a 01       		.uleb128 0x1
 3826 032b 12       		.uleb128 0x12
 3827 032c 06       		.uleb128 0x6
 3828 032d 01       		.uleb128 0x1
 3829 032e 13       		.uleb128 0x13
 3830 032f 00       		.byte	0
 3831 0330 00       		.byte	0
 3832 0331 36       		.uleb128 0x36
 3833 0332 0B       		.uleb128 0xb
 3834 0333 01       		.byte	0x1
 3835 0334 11       		.uleb128 0x11
 3836 0335 01       		.uleb128 0x1
 3837 0336 12       		.uleb128 0x12
 3838 0337 06       		.uleb128 0x6
 3839 0338 00       		.byte	0
 3840 0339 00       		.byte	0
 3841 033a 37       		.uleb128 0x37
 3842 033b 898201   		.uleb128 0x4109
 3843 033e 01       		.byte	0x1
 3844 033f 11       		.uleb128 0x11
 3845 0340 01       		.uleb128 0x1
 3846 0341 9342     		.uleb128 0x2113
 3847 0343 18       		.uleb128 0x18
 3848 0344 01       		.uleb128 0x1
 3849 0345 13       		.uleb128 0x13
 3850 0346 00       		.byte	0
 3851 0347 00       		.byte	0
 3852 0348 38       		.uleb128 0x38
 3853 0349 2E       		.uleb128 0x2e
 3854 034a 01       		.byte	0x1
 3855 034b 3F       		.uleb128 0x3f
 3856 034c 19       		.uleb128 0x19
 3857 034d 03       		.uleb128 0x3
 3858 034e 0E       		.uleb128 0xe
 3859 034f 3A       		.uleb128 0x3a
 3860 0350 0B       		.uleb128 0xb
 3861 0351 3B       		.uleb128 0x3b
 3862 0352 0B       		.uleb128 0xb
 3863 0353 39       		.uleb128 0x39
 3864 0354 0B       		.uleb128 0xb
 3865 0355 27       		.uleb128 0x27
 3866 0356 19       		.uleb128 0x19
 3867 0357 11       		.uleb128 0x11
 3868 0358 01       		.uleb128 0x1
 3869 0359 12       		.uleb128 0x12
 3870 035a 06       		.uleb128 0x6
ARM GAS  /tmp/cchO9Z19.s 			page 69


 3871 035b 40       		.uleb128 0x40
 3872 035c 18       		.uleb128 0x18
 3873 035d 9742     		.uleb128 0x2117
 3874 035f 19       		.uleb128 0x19
 3875 0360 01       		.uleb128 0x1
 3876 0361 13       		.uleb128 0x13
 3877 0362 00       		.byte	0
 3878 0363 00       		.byte	0
 3879 0364 39       		.uleb128 0x39
 3880 0365 05       		.uleb128 0x5
 3881 0366 00       		.byte	0
 3882 0367 03       		.uleb128 0x3
 3883 0368 08       		.uleb128 0x8
 3884 0369 3A       		.uleb128 0x3a
 3885 036a 0B       		.uleb128 0xb
 3886 036b 3B       		.uleb128 0x3b
 3887 036c 0B       		.uleb128 0xb
 3888 036d 39       		.uleb128 0x39
 3889 036e 0B       		.uleb128 0xb
 3890 036f 49       		.uleb128 0x49
 3891 0370 13       		.uleb128 0x13
 3892 0371 02       		.uleb128 0x2
 3893 0372 17       		.uleb128 0x17
 3894 0373 B742     		.uleb128 0x2137
 3895 0375 17       		.uleb128 0x17
 3896 0376 00       		.byte	0
 3897 0377 00       		.byte	0
 3898 0378 3A       		.uleb128 0x3a
 3899 0379 898201   		.uleb128 0x4109
 3900 037c 01       		.byte	0x1
 3901 037d 11       		.uleb128 0x11
 3902 037e 01       		.uleb128 0x1
 3903 037f 9542     		.uleb128 0x2115
 3904 0381 19       		.uleb128 0x19
 3905 0382 31       		.uleb128 0x31
 3906 0383 13       		.uleb128 0x13
 3907 0384 00       		.byte	0
 3908 0385 00       		.byte	0
 3909 0386 3B       		.uleb128 0x3b
 3910 0387 2E       		.uleb128 0x2e
 3911 0388 00       		.byte	0
 3912 0389 3F       		.uleb128 0x3f
 3913 038a 19       		.uleb128 0x19
 3914 038b 3C       		.uleb128 0x3c
 3915 038c 19       		.uleb128 0x19
 3916 038d 6E       		.uleb128 0x6e
 3917 038e 0E       		.uleb128 0xe
 3918 038f 03       		.uleb128 0x3
 3919 0390 0E       		.uleb128 0xe
 3920 0391 3A       		.uleb128 0x3a
 3921 0392 0B       		.uleb128 0xb
 3922 0393 3B       		.uleb128 0x3b
 3923 0394 0B       		.uleb128 0xb
 3924 0395 39       		.uleb128 0x39
 3925 0396 0B       		.uleb128 0xb
 3926 0397 00       		.byte	0
 3927 0398 00       		.byte	0
ARM GAS  /tmp/cchO9Z19.s 			page 70


 3928 0399 00       		.byte	0
 3929              		.section	.debug_loc,"",%progbits
 3930              	.Ldebug_loc0:
 3931              	.LVUS18:
 3932 0000 00       		.uleb128 0
 3933 0001 00       		.uleb128 .LVU230
 3934 0002 00       		.uleb128 .LVU230
 3935 0003 00       		.uleb128 .LVU239
 3936 0004 00       		.uleb128 .LVU239
 3937 0005 00       		.uleb128 .LVU264
 3938 0006 00       		.uleb128 .LVU264
 3939 0007 00       		.uleb128 .LVU265
 3940 0008 00       		.uleb128 .LVU265
 3941 0009 00       		.uleb128 0
 3942              	.LLST18:
 3943 000a F0010000 		.4byte	.LVL47-.Ltext0
 3944 000e 00020000 		.4byte	.LVL48-.Ltext0
 3945 0012 0100     		.2byte	0x1
 3946 0014 50       		.byte	0x50
 3947 0015 00020000 		.4byte	.LVL48-.Ltext0
 3948 0019 10020000 		.4byte	.LVL50-.Ltext0
 3949 001d 0100     		.2byte	0x1
 3950 001f 54       		.byte	0x54
 3951 0020 10020000 		.4byte	.LVL50-.Ltext0
 3952 0024 44020000 		.4byte	.LVL58-.Ltext0
 3953 0028 0300     		.2byte	0x3
 3954 002a 79       		.byte	0x79
 3955 002b 74       		.sleb128 -12
 3956 002c 9F       		.byte	0x9f
 3957 002d 44020000 		.4byte	.LVL58-.Ltext0
 3958 0031 46020000 		.4byte	.LVL59-.Ltext0
 3959 0035 0100     		.2byte	0x1
 3960 0037 54       		.byte	0x54
 3961 0038 46020000 		.4byte	.LVL59-.Ltext0
 3962 003c 50020000 		.4byte	.LFE327-.Ltext0
 3963 0040 0300     		.2byte	0x3
 3964 0042 79       		.byte	0x79
 3965 0043 74       		.sleb128 -12
 3966 0044 9F       		.byte	0x9f
 3967 0045 00000000 		.4byte	0
 3968 0049 00000000 		.4byte	0
 3969              	.LVUS19:
 3970 004d 00       		.uleb128 0
 3971 004e 00       		.uleb128 .LVU231
 3972 004f 00       		.uleb128 .LVU231
 3973 0050 00       		.uleb128 0
 3974              	.LLST19:
 3975 0051 F0010000 		.4byte	.LVL47-.Ltext0
 3976 0055 09020000 		.4byte	.LVL49-1-.Ltext0
 3977 0059 0100     		.2byte	0x1
 3978 005b 51       		.byte	0x51
 3979 005c 09020000 		.4byte	.LVL49-1-.Ltext0
 3980 0060 50020000 		.4byte	.LFE327-.Ltext0
 3981 0064 0100     		.2byte	0x1
 3982 0066 58       		.byte	0x58
 3983 0067 00000000 		.4byte	0
 3984 006b 00000000 		.4byte	0
ARM GAS  /tmp/cchO9Z19.s 			page 71


 3985              	.LVUS20:
 3986 006f 00       		.uleb128 0
 3987 0070 00       		.uleb128 .LVU231
 3988 0071 00       		.uleb128 .LVU231
 3989 0072 00       		.uleb128 0
 3990              	.LLST20:
 3991 0073 F0010000 		.4byte	.LVL47-.Ltext0
 3992 0077 09020000 		.4byte	.LVL49-1-.Ltext0
 3993 007b 0100     		.2byte	0x1
 3994 007d 52       		.byte	0x52
 3995 007e 09020000 		.4byte	.LVL49-1-.Ltext0
 3996 0082 50020000 		.4byte	.LFE327-.Ltext0
 3997 0086 0100     		.2byte	0x1
 3998 0088 57       		.byte	0x57
 3999 0089 00000000 		.4byte	0
 4000 008d 00000000 		.4byte	0
 4001              	.LVUS21:
 4002 0091 04       		.uleb128 .LVU235
 4003 0092 00       		.uleb128 .LVU239
 4004 0093 00       		.uleb128 .LVU239
 4005 0094 00       		.uleb128 .LVU249
 4006 0095 00       		.uleb128 .LVU264
 4007 0096 00       		.uleb128 .LVU265
 4008 0097 00       		.uleb128 .LVU265
 4009 0098 00       		.uleb128 0
 4010              	.LLST21:
 4011 0099 0A020000 		.4byte	.LVL49-.Ltext0
 4012 009d 10020000 		.4byte	.LVL50-.Ltext0
 4013 00a1 0300     		.2byte	0x3
 4014 00a3 74       		.byte	0x74
 4015 00a4 04       		.sleb128 4
 4016 00a5 9F       		.byte	0x9f
 4017 00a6 10020000 		.4byte	.LVL50-.Ltext0
 4018 00aa 22020000 		.4byte	.LVL55-.Ltext0
 4019 00ae 0300     		.2byte	0x3
 4020 00b0 79       		.byte	0x79
 4021 00b1 78       		.sleb128 -8
 4022 00b2 9F       		.byte	0x9f
 4023 00b3 44020000 		.4byte	.LVL58-.Ltext0
 4024 00b7 46020000 		.4byte	.LVL59-.Ltext0
 4025 00bb 0300     		.2byte	0x3
 4026 00bd 74       		.byte	0x74
 4027 00be 04       		.sleb128 4
 4028 00bf 9F       		.byte	0x9f
 4029 00c0 46020000 		.4byte	.LVL59-.Ltext0
 4030 00c4 50020000 		.4byte	.LFE327-.Ltext0
 4031 00c8 0300     		.2byte	0x3
 4032 00ca 79       		.byte	0x79
 4033 00cb 78       		.sleb128 -8
 4034 00cc 9F       		.byte	0x9f
 4035 00cd 00000000 		.4byte	0
 4036 00d1 00000000 		.4byte	0
 4037              	.LVUS22:
 4038 00d5 03       		.uleb128 .LVU234
 4039 00d6 00       		.uleb128 .LVU241
 4040 00d7 00       		.uleb128 .LVU241
 4041 00d8 00       		.uleb128 .LVU251
ARM GAS  /tmp/cchO9Z19.s 			page 72


 4042 00d9 00       		.uleb128 .LVU264
 4043 00da 00       		.uleb128 0
 4044              	.LLST22:
 4045 00db 0A020000 		.4byte	.LVL49-.Ltext0
 4046 00df 14020000 		.4byte	.LVL51-.Ltext0
 4047 00e3 0200     		.2byte	0x2
 4048 00e5 30       		.byte	0x30
 4049 00e6 9F       		.byte	0x9f
 4050 00e7 14020000 		.4byte	.LVL51-.Ltext0
 4051 00eb 26020000 		.4byte	.LVL56-.Ltext0
 4052 00ef 0100     		.2byte	0x1
 4053 00f1 56       		.byte	0x56
 4054 00f2 44020000 		.4byte	.LVL58-.Ltext0
 4055 00f6 50020000 		.4byte	.LFE327-.Ltext0
 4056 00fa 0200     		.2byte	0x2
 4057 00fc 30       		.byte	0x30
 4058 00fd 9F       		.byte	0x9f
 4059 00fe 00000000 		.4byte	0
 4060 0102 00000000 		.4byte	0
 4061              	.LVUS23:
 4062 0106 01       		.uleb128 .LVU232
 4063 0107 00       		.uleb128 .LVU241
 4064 0108 00       		.uleb128 .LVU241
 4065 0109 00       		.uleb128 .LVU251
 4066 010a 00       		.uleb128 .LVU264
 4067 010b 00       		.uleb128 0
 4068              	.LLST23:
 4069 010c 0A020000 		.4byte	.LVL49-.Ltext0
 4070 0110 14020000 		.4byte	.LVL51-.Ltext0
 4071 0114 0200     		.2byte	0x2
 4072 0116 30       		.byte	0x30
 4073 0117 9F       		.byte	0x9f
 4074 0118 14020000 		.4byte	.LVL51-.Ltext0
 4075 011c 26020000 		.4byte	.LVL56-.Ltext0
 4076 0120 0100     		.2byte	0x1
 4077 0122 55       		.byte	0x55
 4078 0123 44020000 		.4byte	.LVL58-.Ltext0
 4079 0127 50020000 		.4byte	.LFE327-.Ltext0
 4080 012b 0200     		.2byte	0x2
 4081 012d 30       		.byte	0x30
 4082 012e 9F       		.byte	0x9f
 4083 012f 00000000 		.4byte	0
 4084 0133 00000000 		.4byte	0
 4085              	.LVUS24:
 4086 0137 02       		.uleb128 .LVU233
 4087 0138 00       		.uleb128 .LVU241
 4088 0139 00       		.uleb128 .LVU241
 4089 013a 00       		.uleb128 .LVU251
 4090 013b 00       		.uleb128 .LVU264
 4091 013c 00       		.uleb128 0
 4092              	.LLST24:
 4093 013d 0A020000 		.4byte	.LVL49-.Ltext0
 4094 0141 14020000 		.4byte	.LVL51-.Ltext0
 4095 0145 0200     		.2byte	0x2
 4096 0147 30       		.byte	0x30
 4097 0148 9F       		.byte	0x9f
 4098 0149 14020000 		.4byte	.LVL51-.Ltext0
ARM GAS  /tmp/cchO9Z19.s 			page 73


 4099 014d 26020000 		.4byte	.LVL56-.Ltext0
 4100 0151 0100     		.2byte	0x1
 4101 0153 54       		.byte	0x54
 4102 0154 44020000 		.4byte	.LVL58-.Ltext0
 4103 0158 50020000 		.4byte	.LFE327-.Ltext0
 4104 015c 0200     		.2byte	0x2
 4105 015e 30       		.byte	0x30
 4106 015f 9F       		.byte	0x9f
 4107 0160 00000000 		.4byte	0
 4108 0164 00000000 		.4byte	0
 4109              	.LVUS25:
 4110 0168 00       		.uleb128 .LVU243
 4111 0169 00       		.uleb128 .LVU251
 4112              	.LLST25:
 4113 016a 16020000 		.4byte	.LVL52-.Ltext0
 4114 016e 26020000 		.4byte	.LVL56-.Ltext0
 4115 0172 0100     		.2byte	0x1
 4116 0174 50       		.byte	0x50
 4117 0175 00000000 		.4byte	0
 4118 0179 00000000 		.4byte	0
 4119              	.LVUS14:
 4120 017d 00       		.uleb128 0
 4121 017e 00       		.uleb128 .LVU169
 4122 017f 00       		.uleb128 .LVU169
 4123 0180 00       		.uleb128 .LVU202
 4124 0181 00       		.uleb128 .LVU202
 4125 0182 00       		.uleb128 .LVU203
 4126 0183 00       		.uleb128 .LVU203
 4127 0184 00       		.uleb128 .LVU220
 4128 0185 00       		.uleb128 .LVU220
 4129 0186 00       		.uleb128 0
 4130              	.LLST14:
 4131 0187 50010000 		.4byte	.LVL36-.Ltext0
 4132 018b 6C010000 		.4byte	.LVL39-.Ltext0
 4133 018f 0100     		.2byte	0x1
 4134 0191 50       		.byte	0x50
 4135 0192 6C010000 		.4byte	.LVL39-.Ltext0
 4136 0196 B8010000 		.4byte	.LVL43-.Ltext0
 4137 019a 0100     		.2byte	0x1
 4138 019c 56       		.byte	0x56
 4139 019d B8010000 		.4byte	.LVL43-.Ltext0
 4140 01a1 BC010000 		.4byte	.LVL44-.Ltext0
 4141 01a5 0400     		.2byte	0x4
 4142 01a7 F3       		.byte	0xf3
 4143 01a8 01       		.uleb128 0x1
 4144 01a9 50       		.byte	0x50
 4145 01aa 9F       		.byte	0x9f
 4146 01ab BC010000 		.4byte	.LVL44-.Ltext0
 4147 01af E4010000 		.4byte	.LVL45-.Ltext0
 4148 01b3 0100     		.2byte	0x1
 4149 01b5 56       		.byte	0x56
 4150 01b6 E4010000 		.4byte	.LVL45-.Ltext0
 4151 01ba E8010000 		.4byte	.LFE326-.Ltext0
 4152 01be 0400     		.2byte	0x4
 4153 01c0 F3       		.byte	0xf3
 4154 01c1 01       		.uleb128 0x1
 4155 01c2 50       		.byte	0x50
ARM GAS  /tmp/cchO9Z19.s 			page 74


 4156 01c3 9F       		.byte	0x9f
 4157 01c4 00000000 		.4byte	0
 4158 01c8 00000000 		.4byte	0
 4159              	.LVUS15:
 4160 01cc 00       		.uleb128 .LVU166
 4161 01cd 04       		.uleb128 .LVU176
 4162 01ce 00       		.uleb128 .LVU179
 4163 01cf 04       		.uleb128 .LVU183
 4164              	.LLST15:
 4165 01d0 68010000 		.4byte	.LVL38-.Ltext0
 4166 01d4 76010000 		.4byte	.LVL41-.Ltext0
 4167 01d8 0100     		.2byte	0x1
 4168 01da 55       		.byte	0x55
 4169 01db 82010000 		.4byte	.LVL42-.Ltext0
 4170 01df 82010000 		.4byte	.LVL42-.Ltext0
 4171 01e3 0100     		.2byte	0x1
 4172 01e5 52       		.byte	0x52
 4173 01e6 00000000 		.4byte	0
 4174 01ea 00000000 		.4byte	0
 4175              	.LVUS16:
 4176 01ee 00       		.uleb128 .LVU161
 4177 01ef 00       		.uleb128 .LVU202
 4178 01f0 00       		.uleb128 .LVU202
 4179 01f1 00       		.uleb128 .LVU203
 4180 01f2 00       		.uleb128 .LVU203
 4181 01f3 00       		.uleb128 .LVU220
 4182 01f4 00       		.uleb128 .LVU220
 4183 01f5 00       		.uleb128 0
 4184              	.LLST16:
 4185 01f6 60010000 		.4byte	.LVL37-.Ltext0
 4186 01fa B8010000 		.4byte	.LVL43-.Ltext0
 4187 01fe 0100     		.2byte	0x1
 4188 0200 54       		.byte	0x54
 4189 0201 B8010000 		.4byte	.LVL43-.Ltext0
 4190 0205 BC010000 		.4byte	.LVL44-.Ltext0
 4191 0209 0600     		.2byte	0x6
 4192 020b F3       		.byte	0xf3
 4193 020c 01       		.uleb128 0x1
 4194 020d 50       		.byte	0x50
 4195 020e 38       		.byte	0x38
 4196 020f 1C       		.byte	0x1c
 4197 0210 9F       		.byte	0x9f
 4198 0211 BC010000 		.4byte	.LVL44-.Ltext0
 4199 0215 E4010000 		.4byte	.LVL45-.Ltext0
 4200 0219 0100     		.2byte	0x1
 4201 021b 54       		.byte	0x54
 4202 021c E4010000 		.4byte	.LVL45-.Ltext0
 4203 0220 E8010000 		.4byte	.LFE326-.Ltext0
 4204 0224 0600     		.2byte	0x6
 4205 0226 F3       		.byte	0xf3
 4206 0227 01       		.uleb128 0x1
 4207 0228 50       		.byte	0x50
 4208 0229 38       		.byte	0x38
 4209 022a 1C       		.byte	0x1c
 4210 022b 9F       		.byte	0x9f
 4211 022c 00000000 		.4byte	0
 4212 0230 00000000 		.4byte	0
ARM GAS  /tmp/cchO9Z19.s 			page 75


 4213              	.LVUS17:
 4214 0234 01       		.uleb128 .LVU162
 4215 0235 00       		.uleb128 .LVU166
 4216 0236 00       		.uleb128 .LVU166
 4217 0237 00       		.uleb128 .LVU171
 4218 0238 00       		.uleb128 .LVU171
 4219 0239 00       		.uleb128 .LVU202
 4220 023a 00       		.uleb128 .LVU202
 4221 023b 00       		.uleb128 .LVU203
 4222 023c 00       		.uleb128 .LVU203
 4223 023d 00       		.uleb128 .LVU220
 4224 023e 00       		.uleb128 .LVU220
 4225 023f 00       		.uleb128 .LVU221
 4226              	.LLST17:
 4227 0240 60010000 		.4byte	.LVL37-.Ltext0
 4228 0244 68010000 		.4byte	.LVL38-.Ltext0
 4229 0248 0100     		.2byte	0x1
 4230 024a 55       		.byte	0x55
 4231 024b 68010000 		.4byte	.LVL38-.Ltext0
 4232 024f 73010000 		.4byte	.LVL40-1-.Ltext0
 4233 0253 0200     		.2byte	0x2
 4234 0255 74       		.byte	0x74
 4235 0256 00       		.sleb128 0
 4236 0257 73010000 		.4byte	.LVL40-1-.Ltext0
 4237 025b B8010000 		.4byte	.LVL43-.Ltext0
 4238 025f 0300     		.2byte	0x3
 4239 0261 75       		.byte	0x75
 4240 0262 7C       		.sleb128 -4
 4241 0263 9F       		.byte	0x9f
 4242 0264 B8010000 		.4byte	.LVL43-.Ltext0
 4243 0268 BB010000 		.4byte	.LVL44-1-.Ltext0
 4244 026c 0300     		.2byte	0x3
 4245 026e 70       		.byte	0x70
 4246 026f 74       		.sleb128 -12
 4247 0270 9F       		.byte	0x9f
 4248 0271 BC010000 		.4byte	.LVL44-.Ltext0
 4249 0275 E4010000 		.4byte	.LVL45-.Ltext0
 4250 0279 0300     		.2byte	0x3
 4251 027b 75       		.byte	0x75
 4252 027c 7C       		.sleb128 -4
 4253 027d 9F       		.byte	0x9f
 4254 027e E4010000 		.4byte	.LVL45-.Ltext0
 4255 0282 E7010000 		.4byte	.LVL46-1-.Ltext0
 4256 0286 0300     		.2byte	0x3
 4257 0288 70       		.byte	0x70
 4258 0289 74       		.sleb128 -12
 4259 028a 9F       		.byte	0x9f
 4260 028b 00000000 		.4byte	0
 4261 028f 00000000 		.4byte	0
 4262              	.LVUS4:
 4263 0293 00       		.uleb128 0
 4264 0294 00       		.uleb128 .LVU51
 4265 0295 00       		.uleb128 .LVU51
 4266 0296 00       		.uleb128 0
 4267              	.LLST4:
 4268 0297 50000000 		.4byte	.LVL9-.Ltext0
 4269 029b 68000000 		.4byte	.LVL11-.Ltext0
ARM GAS  /tmp/cchO9Z19.s 			page 76


 4270 029f 0100     		.2byte	0x1
 4271 02a1 50       		.byte	0x50
 4272 02a2 68000000 		.4byte	.LVL11-.Ltext0
 4273 02a6 4C010000 		.4byte	.LFE325-.Ltext0
 4274 02aa 0100     		.2byte	0x1
 4275 02ac 56       		.byte	0x56
 4276 02ad 00000000 		.4byte	0
 4277 02b1 00000000 		.4byte	0
 4278              	.LVUS5:
 4279 02b5 00       		.uleb128 0
 4280 02b6 00       		.uleb128 .LVU58
 4281 02b7 00       		.uleb128 .LVU58
 4282 02b8 00       		.uleb128 0
 4283              	.LLST5:
 4284 02b9 50000000 		.4byte	.LVL9-.Ltext0
 4285 02bd 79000000 		.4byte	.LVL13-1-.Ltext0
 4286 02c1 0100     		.2byte	0x1
 4287 02c3 51       		.byte	0x51
 4288 02c4 79000000 		.4byte	.LVL13-1-.Ltext0
 4289 02c8 4C010000 		.4byte	.LFE325-.Ltext0
 4290 02cc 0100     		.2byte	0x1
 4291 02ce 57       		.byte	0x57
 4292 02cf 00000000 		.4byte	0
 4293 02d3 00000000 		.4byte	0
 4294              	.LVUS6:
 4295 02d7 00       		.uleb128 0
 4296 02d8 00       		.uleb128 .LVU50
 4297 02d9 00       		.uleb128 .LVU50
 4298 02da 00       		.uleb128 .LVU54
 4299 02db 00       		.uleb128 .LVU54
 4300 02dc 00       		.uleb128 .LVU58
 4301 02dd 00       		.uleb128 .LVU58
 4302 02de 00       		.uleb128 0
 4303              	.LLST6:
 4304 02df 50000000 		.4byte	.LVL9-.Ltext0
 4305 02e3 62000000 		.4byte	.LVL10-.Ltext0
 4306 02e7 0100     		.2byte	0x1
 4307 02e9 52       		.byte	0x52
 4308 02ea 62000000 		.4byte	.LVL10-.Ltext0
 4309 02ee 72000000 		.4byte	.LVL12-.Ltext0
 4310 02f2 0400     		.2byte	0x4
 4311 02f4 F3       		.byte	0xf3
 4312 02f5 01       		.uleb128 0x1
 4313 02f6 52       		.byte	0x52
 4314 02f7 9F       		.byte	0x9f
 4315 02f8 72000000 		.4byte	.LVL12-.Ltext0
 4316 02fc 79000000 		.4byte	.LVL13-1-.Ltext0
 4317 0300 0100     		.2byte	0x1
 4318 0302 52       		.byte	0x52
 4319 0303 79000000 		.4byte	.LVL13-1-.Ltext0
 4320 0307 4C010000 		.4byte	.LFE325-.Ltext0
 4321 030b 0100     		.2byte	0x1
 4322 030d 59       		.byte	0x59
 4323 030e 00000000 		.4byte	0
 4324 0312 00000000 		.4byte	0
 4325              	.LVUS7:
 4326 0316 01       		.uleb128 .LVU59
ARM GAS  /tmp/cchO9Z19.s 			page 77


 4327 0317 00       		.uleb128 .LVU79
 4328 0318 02       		.uleb128 .LVU81
 4329 0319 00       		.uleb128 .LVU115
 4330 031a 00       		.uleb128 .LVU124
 4331 031b 00       		.uleb128 .LVU136
 4332 031c 00       		.uleb128 .LVU146
 4333 031d 00       		.uleb128 0
 4334              	.LLST7:
 4335 031e 7A000000 		.4byte	.LVL13-.Ltext0
 4336 0322 AC000000 		.4byte	.LVL16-.Ltext0
 4337 0326 0100     		.2byte	0x1
 4338 0328 55       		.byte	0x55
 4339 0329 AC000000 		.4byte	.LVL16-.Ltext0
 4340 032d 04010000 		.4byte	.LVL29-.Ltext0
 4341 0331 0100     		.2byte	0x1
 4342 0333 55       		.byte	0x55
 4343 0334 14010000 		.4byte	.LVL31-.Ltext0
 4344 0338 24010000 		.4byte	.LVL32-.Ltext0
 4345 033c 0100     		.2byte	0x1
 4346 033e 55       		.byte	0x55
 4347 033f 3C010000 		.4byte	.LVL34-.Ltext0
 4348 0343 4C010000 		.4byte	.LFE325-.Ltext0
 4349 0347 0100     		.2byte	0x1
 4350 0349 55       		.byte	0x55
 4351 034a 00000000 		.4byte	0
 4352 034e 00000000 		.4byte	0
 4353              	.LVUS8:
 4354 0352 00       		.uleb128 .LVU63
 4355 0353 00       		.uleb128 .LVU86
 4356 0354 01       		.uleb128 .LVU95
 4357 0355 01       		.uleb128 .LVU98
 4358 0356 00       		.uleb128 .LVU99
 4359 0357 00       		.uleb128 .LVU115
 4360 0358 00       		.uleb128 .LVU115
 4361 0359 00       		.uleb128 .LVU122
 4362 035a 00       		.uleb128 .LVU124
 4363 035b 00       		.uleb128 0
 4364              	.LLST8:
 4365 035c 80000000 		.4byte	.LVL14-.Ltext0
 4366 0360 B6000000 		.4byte	.LVL20-.Ltext0
 4367 0364 0100     		.2byte	0x1
 4368 0366 50       		.byte	0x50
 4369 0367 CC000000 		.4byte	.LVL23-.Ltext0
 4370 036b D0000000 		.4byte	.LVL24-.Ltext0
 4371 036f 0300     		.2byte	0x3
 4372 0371 70       		.byte	0x70
 4373 0372 78       		.sleb128 -8
 4374 0373 9F       		.byte	0x9f
 4375 0374 D6000000 		.4byte	.LVL25-.Ltext0
 4376 0378 04010000 		.4byte	.LVL29-.Ltext0
 4377 037c 0100     		.2byte	0x1
 4378 037e 50       		.byte	0x50
 4379 037f 04010000 		.4byte	.LVL29-.Ltext0
 4380 0383 0D010000 		.4byte	.LVL30-1-.Ltext0
 4381 0387 0100     		.2byte	0x1
 4382 0389 53       		.byte	0x53
 4383 038a 14010000 		.4byte	.LVL31-.Ltext0
ARM GAS  /tmp/cchO9Z19.s 			page 78


 4384 038e 4C010000 		.4byte	.LFE325-.Ltext0
 4385 0392 0100     		.2byte	0x1
 4386 0394 50       		.byte	0x50
 4387 0395 00000000 		.4byte	0
 4388 0399 00000000 		.4byte	0
 4389              	.LVUS9:
 4390 039d 00       		.uleb128 .LVU71
 4391 039e 00       		.uleb128 .LVU84
 4392 039f 00       		.uleb128 .LVU84
 4393 03a0 00       		.uleb128 .LVU85
 4394 03a1 00       		.uleb128 .LVU92
 4395 03a2 01       		.uleb128 .LVU98
 4396 03a3 00       		.uleb128 .LVU99
 4397 03a4 00       		.uleb128 .LVU107
 4398 03a5 00       		.uleb128 .LVU124
 4399 03a6 00       		.uleb128 .LVU149
 4400              	.LLST9:
 4401 03a7 96000000 		.4byte	.LVL15-.Ltext0
 4402 03ab B0000000 		.4byte	.LVL18-.Ltext0
 4403 03af 0100     		.2byte	0x1
 4404 03b1 53       		.byte	0x53
 4405 03b2 B0000000 		.4byte	.LVL18-.Ltext0
 4406 03b6 B4000000 		.4byte	.LVL19-.Ltext0
 4407 03ba 0300     		.2byte	0x3
 4408 03bc 74       		.byte	0x74
 4409 03bd 78       		.sleb128 -8
 4410 03be 9F       		.byte	0x9f
 4411 03bf C8000000 		.4byte	.LVL22-.Ltext0
 4412 03c3 D0000000 		.4byte	.LVL24-.Ltext0
 4413 03c7 0100     		.2byte	0x1
 4414 03c9 50       		.byte	0x50
 4415 03ca D6000000 		.4byte	.LVL25-.Ltext0
 4416 03ce EE000000 		.4byte	.LVL27-.Ltext0
 4417 03d2 0100     		.2byte	0x1
 4418 03d4 53       		.byte	0x53
 4419 03d5 14010000 		.4byte	.LVL31-.Ltext0
 4420 03d9 44010000 		.4byte	.LVL35-.Ltext0
 4421 03dd 0100     		.2byte	0x1
 4422 03df 53       		.byte	0x53
 4423 03e0 00000000 		.4byte	0
 4424 03e4 00000000 		.4byte	0
 4425              	.LVUS10:
 4426 03e8 01       		.uleb128 .LVU55
 4427 03e9 00       		.uleb128 .LVU106
 4428 03ea 00       		.uleb128 .LVU106
 4429 03eb 00       		.uleb128 .LVU115
 4430 03ec 00       		.uleb128 .LVU115
 4431 03ed 00       		.uleb128 .LVU124
 4432 03ee 00       		.uleb128 .LVU124
 4433 03ef 00       		.uleb128 0
 4434              	.LLST10:
 4435 03f0 72000000 		.4byte	.LVL12-.Ltext0
 4436 03f4 EA000000 		.4byte	.LVL26-.Ltext0
 4437 03f8 0100     		.2byte	0x1
 4438 03fa 58       		.byte	0x58
 4439 03fb EA000000 		.4byte	.LVL26-.Ltext0
 4440 03ff 04010000 		.4byte	.LVL29-.Ltext0
ARM GAS  /tmp/cchO9Z19.s 			page 79


 4441 0403 0300     		.2byte	0x3
 4442 0405 78       		.byte	0x78
 4443 0406 7F       		.sleb128 -1
 4444 0407 9F       		.byte	0x9f
 4445 0408 04010000 		.4byte	.LVL29-.Ltext0
 4446 040c 14010000 		.4byte	.LVL31-.Ltext0
 4447 0410 0500     		.2byte	0x5
 4448 0412 77       		.byte	0x77
 4449 0413 07       		.sleb128 7
 4450 0414 33       		.byte	0x33
 4451 0415 25       		.byte	0x25
 4452 0416 9F       		.byte	0x9f
 4453 0417 14010000 		.4byte	.LVL31-.Ltext0
 4454 041b 4C010000 		.4byte	.LFE325-.Ltext0
 4455 041f 0100     		.2byte	0x1
 4456 0421 58       		.byte	0x58
 4457 0422 00000000 		.4byte	0
 4458 0426 00000000 		.4byte	0
 4459              	.LVUS12:
 4460 042a 02       		.uleb128 .LVU126
 4461 042b 00       		.uleb128 .LVU146
 4462              	.LLST12:
 4463 042c 14010000 		.4byte	.LVL31-.Ltext0
 4464 0430 3C010000 		.4byte	.LVL34-.Ltext0
 4465 0434 0100     		.2byte	0x1
 4466 0436 5B       		.byte	0x5b
 4467 0437 00000000 		.4byte	0
 4468 043b 00000000 		.4byte	0
 4469              	.LVUS13:
 4470 043f 00       		.uleb128 .LVU139
 4471 0440 00       		.uleb128 .LVU146
 4472              	.LLST13:
 4473 0441 30010000 		.4byte	.LVL33-.Ltext0
 4474 0445 3C010000 		.4byte	.LVL34-.Ltext0
 4475 0449 0100     		.2byte	0x1
 4476 044b 51       		.byte	0x51
 4477 044c 00000000 		.4byte	0
 4478 0450 00000000 		.4byte	0
 4479              	.LVUS11:
 4480 0454 00       		.uleb128 .LVU108
 4481 0455 00       		.uleb128 .LVU115
 4482              	.LLST11:
 4483 0456 F2000000 		.4byte	.LVL28-.Ltext0
 4484 045a 04010000 		.4byte	.LVL29-.Ltext0
 4485 045e 0100     		.2byte	0x1
 4486 0460 51       		.byte	0x51
 4487 0461 00000000 		.4byte	0
 4488 0465 00000000 		.4byte	0
 4489              	.LVUS0:
 4490 0469 00       		.uleb128 0
 4491 046a 00       		.uleb128 .LVU28
 4492 046b 00       		.uleb128 .LVU28
 4493 046c 00       		.uleb128 .LVU38
 4494 046d 00       		.uleb128 .LVU38
 4495 046e 00       		.uleb128 .LVU39
 4496 046f 00       		.uleb128 .LVU39
 4497 0470 00       		.uleb128 0
ARM GAS  /tmp/cchO9Z19.s 			page 80


 4498              	.LLST0:
 4499 0471 20000000 		.4byte	.LVL1-.Ltext0
 4500 0475 36000000 		.4byte	.LVL6-.Ltext0
 4501 0479 0100     		.2byte	0x1
 4502 047b 50       		.byte	0x50
 4503 047c 36000000 		.4byte	.LVL6-.Ltext0
 4504 0480 44000000 		.4byte	.LVL7-.Ltext0
 4505 0484 0100     		.2byte	0x1
 4506 0486 54       		.byte	0x54
 4507 0487 44000000 		.4byte	.LVL7-.Ltext0
 4508 048b 47000000 		.4byte	.LVL8-1-.Ltext0
 4509 048f 0300     		.2byte	0x3
 4510 0491 70       		.byte	0x70
 4511 0492 74       		.sleb128 -12
 4512 0493 9F       		.byte	0x9f
 4513 0494 47000000 		.4byte	.LVL8-1-.Ltext0
 4514 0498 48000000 		.4byte	.LFE324-.Ltext0
 4515 049c 0400     		.2byte	0x4
 4516 049e F3       		.byte	0xf3
 4517 049f 01       		.uleb128 0x1
 4518 04a0 50       		.byte	0x50
 4519 04a1 9F       		.byte	0x9f
 4520 04a2 00000000 		.4byte	0
 4521 04a6 00000000 		.4byte	0
 4522              	.LVUS1:
 4523 04aa 00       		.uleb128 0
 4524 04ab 00       		.uleb128 .LVU22
 4525 04ac 00       		.uleb128 .LVU22
 4526 04ad 00       		.uleb128 0
 4527              	.LLST1:
 4528 04ae 20000000 		.4byte	.LVL1-.Ltext0
 4529 04b2 2A000000 		.4byte	.LVL4-.Ltext0
 4530 04b6 0100     		.2byte	0x1
 4531 04b8 51       		.byte	0x51
 4532 04b9 2A000000 		.4byte	.LVL4-.Ltext0
 4533 04bd 48000000 		.4byte	.LFE324-.Ltext0
 4534 04c1 0400     		.2byte	0x4
 4535 04c3 F3       		.byte	0xf3
 4536 04c4 01       		.uleb128 0x1
 4537 04c5 51       		.byte	0x51
 4538 04c6 9F       		.byte	0x9f
 4539 04c7 00000000 		.4byte	0
 4540 04cb 00000000 		.4byte	0
 4541              	.LVUS2:
 4542 04cf 00       		.uleb128 0
 4543 04d0 00       		.uleb128 .LVU15
 4544 04d1 00       		.uleb128 .LVU15
 4545 04d2 03       		.uleb128 .LVU19
 4546 04d3 03       		.uleb128 .LVU19
 4547 04d4 00       		.uleb128 .LVU22
 4548 04d5 00       		.uleb128 .LVU22
 4549 04d6 00       		.uleb128 .LVU23
 4550 04d7 00       		.uleb128 .LVU23
 4551 04d8 00       		.uleb128 .LVU39
 4552 04d9 00       		.uleb128 .LVU39
 4553 04da 00       		.uleb128 0
 4554              	.LLST2:
ARM GAS  /tmp/cchO9Z19.s 			page 81


 4555 04db 20000000 		.4byte	.LVL1-.Ltext0
 4556 04df 24000000 		.4byte	.LVL2-.Ltext0
 4557 04e3 0100     		.2byte	0x1
 4558 04e5 52       		.byte	0x52
 4559 04e6 24000000 		.4byte	.LVL2-.Ltext0
 4560 04ea 28000000 		.4byte	.LVL3-.Ltext0
 4561 04ee 0300     		.2byte	0x3
 4562 04f0 72       		.byte	0x72
 4563 04f1 08       		.sleb128 8
 4564 04f2 9F       		.byte	0x9f
 4565 04f3 28000000 		.4byte	.LVL3-.Ltext0
 4566 04f7 2A000000 		.4byte	.LVL4-.Ltext0
 4567 04fb 0B00     		.2byte	0xb
 4568 04fd 71       		.byte	0x71
 4569 04fe 00       		.sleb128 0
 4570 04ff 73       		.byte	0x73
 4571 0500 00       		.sleb128 0
 4572 0501 1C       		.byte	0x1c
 4573 0502 72       		.byte	0x72
 4574 0503 00       		.sleb128 0
 4575 0504 22       		.byte	0x22
 4576 0505 23       		.byte	0x23
 4577 0506 08       		.uleb128 0x8
 4578 0507 9F       		.byte	0x9f
 4579 0508 2A000000 		.4byte	.LVL4-.Ltext0
 4580 050c 2C000000 		.4byte	.LVL5-.Ltext0
 4581 0510 0C00     		.2byte	0xc
 4582 0512 72       		.byte	0x72
 4583 0513 00       		.sleb128 0
 4584 0514 73       		.byte	0x73
 4585 0515 00       		.sleb128 0
 4586 0516 1C       		.byte	0x1c
 4587 0517 F3       		.byte	0xf3
 4588 0518 01       		.uleb128 0x1
 4589 0519 51       		.byte	0x51
 4590 051a 22       		.byte	0x22
 4591 051b 23       		.byte	0x23
 4592 051c 08       		.uleb128 0x8
 4593 051d 9F       		.byte	0x9f
 4594 051e 2C000000 		.4byte	.LVL5-.Ltext0
 4595 0522 47000000 		.4byte	.LVL8-1-.Ltext0
 4596 0526 0B00     		.2byte	0xb
 4597 0528 F3       		.byte	0xf3
 4598 0529 01       		.uleb128 0x1
 4599 052a 51       		.byte	0x51
 4600 052b 73       		.byte	0x73
 4601 052c 00       		.sleb128 0
 4602 052d 1C       		.byte	0x1c
 4603 052e F3       		.byte	0xf3
 4604 052f 01       		.uleb128 0x1
 4605 0530 52       		.byte	0x52
 4606 0531 22       		.byte	0x22
 4607 0532 9F       		.byte	0x9f
 4608 0533 47000000 		.4byte	.LVL8-1-.Ltext0
 4609 0537 48000000 		.4byte	.LFE324-.Ltext0
 4610 053b 1100     		.2byte	0x11
 4611 053d F3       		.byte	0xf3
ARM GAS  /tmp/cchO9Z19.s 			page 82


 4612 053e 01       		.uleb128 0x1
 4613 053f 51       		.byte	0x51
 4614 0540 F3       		.byte	0xf3
 4615 0541 01       		.uleb128 0x1
 4616 0542 51       		.byte	0x51
 4617 0543 23       		.byte	0x23
 4618 0544 07       		.uleb128 0x7
 4619 0545 09       		.byte	0x9
 4620 0546 F8       		.byte	0xf8
 4621 0547 1A       		.byte	0x1a
 4622 0548 1C       		.byte	0x1c
 4623 0549 F3       		.byte	0xf3
 4624 054a 01       		.uleb128 0x1
 4625 054b 52       		.byte	0x52
 4626 054c 22       		.byte	0x22
 4627 054d 9F       		.byte	0x9f
 4628 054e 00000000 		.4byte	0
 4629 0552 00000000 		.4byte	0
 4630              	.LVUS3:
 4631 0556 00       		.uleb128 .LVU16
 4632 0557 00       		.uleb128 .LVU39
 4633 0558 00       		.uleb128 .LVU39
 4634 0559 00       		.uleb128 0
 4635              	.LLST3:
 4636 055a 28000000 		.4byte	.LVL3-.Ltext0
 4637 055e 47000000 		.4byte	.LVL8-1-.Ltext0
 4638 0562 0100     		.2byte	0x1
 4639 0564 53       		.byte	0x53
 4640 0565 47000000 		.4byte	.LVL8-1-.Ltext0
 4641 0569 48000000 		.4byte	.LFE324-.Ltext0
 4642 056d 0900     		.2byte	0x9
 4643 056f F3       		.byte	0xf3
 4644 0570 01       		.uleb128 0x1
 4645 0571 51       		.byte	0x51
 4646 0572 23       		.byte	0x23
 4647 0573 07       		.uleb128 0x7
 4648 0574 09       		.byte	0x9
 4649 0575 F8       		.byte	0xf8
 4650 0576 1A       		.byte	0x1a
 4651 0577 9F       		.byte	0x9f
 4652 0578 00000000 		.4byte	0
 4653 057c 00000000 		.4byte	0
 4654              		.section	.debug_aranges,"",%progbits
 4655 0000 1C000000 		.4byte	0x1c
 4656 0004 0200     		.2byte	0x2
 4657 0006 00000000 		.4byte	.Ldebug_info0
 4658 000a 04       		.byte	0x4
 4659 000b 00       		.byte	0
 4660 000c 0000     		.2byte	0
 4661 000e 0000     		.2byte	0
 4662 0010 00000000 		.4byte	.Ltext0
 4663 0014 50020000 		.4byte	.Letext0-.Ltext0
 4664 0018 00000000 		.4byte	0
 4665 001c 00000000 		.4byte	0
 4666              		.section	.debug_ranges,"",%progbits
 4667              	.Ldebug_ranges0:
 4668 0000 AA000000 		.4byte	.LBB2-.Ltext0
ARM GAS  /tmp/cchO9Z19.s 			page 83


 4669 0004 AC000000 		.4byte	.LBE2-.Ltext0
 4670 0008 E6000000 		.4byte	.LBB3-.Ltext0
 4671 000c 04010000 		.4byte	.LBE3-.Ltext0
 4672 0010 00000000 		.4byte	0
 4673 0014 00000000 		.4byte	0
 4674 0018 14020000 		.4byte	.LBB6-.Ltext0
 4675 001c 18020000 		.4byte	.LBE6-.Ltext0
 4676 0020 1C020000 		.4byte	.LBB7-.Ltext0
 4677 0024 22020000 		.4byte	.LBE7-.Ltext0
 4678 0028 00000000 		.4byte	0
 4679 002c 00000000 		.4byte	0
 4680              		.section	.debug_line,"",%progbits
 4681              	.Ldebug_line0:
 4682 0000 60070000 		.section	.debug_str,"MS",%progbits,1
 4682      0300A403 
 4682      00000201 
 4682      FB0E0D00 
 4682      01010101 
 4683              	.LASF6:
 4684 0000 756E7369 		.ascii	"unsigned char\000"
 4684      676E6564 
 4684      20636861 
 4684      7200
 4685              	.LASF54:
 4686 000e 72656164 		.ascii	"ready_list_t\000"
 4686      795F6C69 
 4686      73745F74 
 4686      00
 4687              	.LASF153:
 4688 001b 63685F6F 		.ascii	"ch_objects_factory\000"
 4688      626A6563 
 4688      74735F66 
 4688      6163746F 
 4688      727900
 4689              	.LASF98:
 4690 002e 7264796D 		.ascii	"rdymsg\000"
 4690      736700
 4691              	.LASF20:
 4692 0035 75696E74 		.ascii	"uint64_t\000"
 4692      36345F74 
 4692      00
 4693              	.LASF5:
 4694 003e 5F5F7569 		.ascii	"__uint8_t\000"
 4694      6E74385F 
 4694      7400
 4695              	.LASF53:
 4696 0048 70726576 		.ascii	"prev\000"
 4696      00
 4697              	.LASF81:
 4698 004d 706F7274 		.ascii	"port_intctx\000"
 4698      5F696E74 
 4698      63747800 
 4699              	.LASF143:
 4700 0059 70616765 		.ascii	"pages\000"
 4700      7300
 4701              	.LASF72:
 4702 005f 76746C69 		.ascii	"vtlist\000"
ARM GAS  /tmp/cchO9Z19.s 			page 84


 4702      737400
 4703              	.LASF138:
 4704 0066 70726F76 		.ascii	"provider\000"
 4704      69646572 
 4704      00
 4705              	.LASF88:
 4706 006f 74797065 		.ascii	"type\000"
 4706      00
 4707              	.LASF157:
 4708 0074 73656D5F 		.ascii	"sem_list\000"
 4708      6C697374 
 4708      00
 4709              	.LASF130:
 4710 007d 6D656D67 		.ascii	"memgetfunc_t\000"
 4710      65746675 
 4710      6E635F74 
 4710      00
 4711              	.LASF92:
 4712 008a 73757370 		.ascii	"suspended\000"
 4712      656E6465 
 4712      6400
 4713              	.LASF86:
 4714 0094 68616C74 		.ascii	"halt\000"
 4714      00
 4715              	.LASF73:
 4716 0099 6D61696E 		.ascii	"mainthread\000"
 4716      74687265 
 4716      616400
 4717              	.LASF101:
 4718 00a4 73656E74 		.ascii	"sentmsg\000"
 4718      6D736700 
 4719              	.LASF60:
 4720 00ac 64656C74 		.ascii	"delta\000"
 4720      6100
 4721              	.LASF76:
 4722 00b2 49544D5F 		.ascii	"ITM_RxBuffer\000"
 4722      52784275 
 4722      66666572 
 4722      00
 4723              	.LASF164:
 4724 00bf 68656170 		.ascii	"heapp\000"
 4724      7000
 4725              	.LASF50:
 4726 00c5 6E657874 		.ascii	"next\000"
 4726      00
 4727              	.LASF52:
 4728 00ca 63685F74 		.ascii	"ch_threads_queue\000"
 4728      68726561 
 4728      64735F71 
 4728      75657565 
 4728      00
 4729              	.LASF159:
 4730 00db 6D62785F 		.ascii	"mbx_list\000"
 4730      6C697374 
 4730      00
 4731              	.LASF78:
 4732 00e4 53797374 		.ascii	"SystemD2Clock\000"
ARM GAS  /tmp/cchO9Z19.s 			page 85


 4732      656D4432 
 4732      436C6F63 
 4732      6B00
 4733              	.LASF132:
 4734 00f2 62617365 		.ascii	"basemem\000"
 4734      6D656D00 
 4735              	.LASF177:
 4736 00fa 63684D74 		.ascii	"chMtxUnlock\000"
 4736      78556E6C 
 4736      6F636B00 
 4737              	.LASF3:
 4738 0106 7369676E 		.ascii	"signed char\000"
 4738      65642063 
 4738      68617200 
 4739              	.LASF168:
 4740 0112 6C706167 		.ascii	"lpages\000"
 4740      657300
 4741              	.LASF13:
 4742 0119 6C6F6E67 		.ascii	"long unsigned int\000"
 4742      20756E73 
 4742      69676E65 
 4742      6420696E 
 4742      7400
 4743              	.LASF93:
 4744 012b 73697A65 		.ascii	"size\000"
 4744      00
 4745              	.LASF15:
 4746 0130 6C6F6E67 		.ascii	"long long unsigned int\000"
 4746      206C6F6E 
 4746      6720756E 
 4746      7369676E 
 4746      65642069 
 4747              	.LASF173:
 4748 0147 63684865 		.ascii	"chHeapFree\000"
 4748      61704672 
 4748      656500
 4749              	.LASF37:
 4750 0152 73746174 		.ascii	"state\000"
 4750      6500
 4751              	.LASF11:
 4752 0158 6C6F6E67 		.ascii	"long int\000"
 4752      20696E74 
 4752      00
 4753              	.LASF23:
 4754 0161 74737461 		.ascii	"tstate_t\000"
 4754      74655F74 
 4754      00
 4755              	.LASF91:
 4756 016a 63685F74 		.ascii	"ch_trace_event_t\000"
 4756      72616365 
 4756      5F657665 
 4756      6E745F74 
 4756      00
 4757              	.LASF61:
 4758 017b 66756E63 		.ascii	"func\000"
 4758      00
 4759              	.LASF17:
ARM GAS  /tmp/cchO9Z19.s 			page 86


 4760 0180 75696E74 		.ascii	"uint16_t\000"
 4760      31365F74 
 4760      00
 4761              	.LASF126:
 4762 0189 63686465 		.ascii	"chdebug_t\000"
 4762      6275675F 
 4762      7400
 4763              	.LASF124:
 4764 0193 6F66665F 		.ascii	"off_preempt\000"
 4764      70726565 
 4764      6D707400 
 4765              	.LASF94:
 4766 019f 62756666 		.ascii	"buffer\000"
 4766      657200
 4767              	.LASF99:
 4768 01a6 65786974 		.ascii	"exitcode\000"
 4768      636F6465 
 4768      00
 4769              	.LASF12:
 4770 01af 5F5F7569 		.ascii	"__uint32_t\000"
 4770      6E743332 
 4770      5F7400
 4771              	.LASF181:
 4772 01ba 2F686F6D 		.ascii	"/home/nicolas/source/akso-sub/axoloti/firmware/moun"
 4772      652F6E69 
 4772      636F6C61 
 4772      732F736F 
 4772      75726365 
 4773 01ed 74657200 		.ascii	"ter\000"
 4774              	.LASF4:
 4775 01f1 73697A65 		.ascii	"size_t\000"
 4775      5F7400
 4776              	.LASF40:
 4777 01f8 77616974 		.ascii	"waiting\000"
 4777      696E6700 
 4778              	.LASF110:
 4779 0200 7A65726F 		.ascii	"zero\000"
 4779      00
 4780              	.LASF128:
 4781 0205 6D757465 		.ascii	"mutex_t\000"
 4781      785F7400 
 4782              	.LASF175:
 4783 020d 5F686561 		.ascii	"_heap_init\000"
 4783      705F696E 
 4783      697400
 4784              	.LASF75:
 4785 0218 73797369 		.ascii	"sysinterval_t\000"
 4785      6E746572 
 4785      76616C5F 
 4785      7400
 4786              	.LASF63:
 4787 0226 63685F76 		.ascii	"ch_virtual_timers_list\000"
 4787      69727475 
 4787      616C5F74 
 4787      696D6572 
 4787      735F6C69 
 4788              	.LASF28:
ARM GAS  /tmp/cchO9Z19.s 			page 87


 4789 023d 636E745F 		.ascii	"cnt_t\000"
 4789      7400
 4790              	.LASF41:
 4791 0243 6D736771 		.ascii	"msgqueue\000"
 4791      75657565 
 4791      00
 4792              	.LASF0:
 4793 024c 756E7369 		.ascii	"unsigned int\000"
 4793      676E6564 
 4793      20696E74 
 4793      00
 4794              	.LASF77:
 4795 0259 53797374 		.ascii	"SystemCoreClock\000"
 4795      656D436F 
 4795      7265436C 
 4795      6F636B00 
 4796              	.LASF102:
 4797 0269 77747365 		.ascii	"wtsemp\000"
 4797      6D7000
 4798              	.LASF79:
 4799 0270 4431436F 		.ascii	"D1CorePrescTable\000"
 4799      72655072 
 4799      65736354 
 4799      61626C65 
 4799      00
 4800              	.LASF65:
 4801 0281 73797374 		.ascii	"system_debug_t\000"
 4801      656D5F64 
 4801      65627567 
 4801      5F7400
 4802              	.LASF162:
 4803 0290 6F626A65 		.ascii	"objects_factory_t\000"
 4803      6374735F 
 4803      66616374 
 4803      6F72795F 
 4803      7400
 4804              	.LASF133:
 4805 02a2 746F706D 		.ascii	"topmem\000"
 4805      656D00
 4806              	.LASF127:
 4807 02a9 63685F64 		.ascii	"ch_debug\000"
 4807      65627567 
 4807      00
 4808              	.LASF163:
 4809 02b2 63685F66 		.ascii	"ch_factory\000"
 4809      6163746F 
 4809      727900
 4810              	.LASF148:
 4811 02bd 6D656D6F 		.ascii	"memory_pool_t\000"
 4811      72795F70 
 4811      6F6F6C5F 
 4811      7400
 4812              	.LASF35:
 4813 02cb 6E616D65 		.ascii	"name\000"
 4813      00
 4814              	.LASF31:
 4815 02d0 71756575 		.ascii	"queue\000"
ARM GAS  /tmp/cchO9Z19.s 			page 88


 4815      6500
 4816              	.LASF45:
 4817 02d6 6D706F6F 		.ascii	"mpool\000"
 4817      6C00
 4818              	.LASF123:
 4819 02dc 6F66665F 		.ascii	"off_refs\000"
 4819      72656673 
 4819      00
 4820              	.LASF156:
 4821 02e5 6275665F 		.ascii	"buf_list\000"
 4821      6C697374 
 4821      00
 4822              	.LASF48:
 4823 02ee 63685F74 		.ascii	"ch_thread\000"
 4823      68726561 
 4823      6400
 4824              	.LASF26:
 4825 02f8 6D73675F 		.ascii	"msg_t\000"
 4825      7400
 4826              	.LASF29:
 4827 02fe 75636E74 		.ascii	"ucnt_t\000"
 4827      5F7400
 4828              	.LASF42:
 4829 0305 6570656E 		.ascii	"epending\000"
 4829      64696E67 
 4829      00
 4830              	.LASF152:
 4831 030e 64796E5F 		.ascii	"dyn_list_t\000"
 4831      6C697374 
 4831      5F7400
 4832              	.LASF69:
 4833 0319 63685F73 		.ascii	"ch_system_t\000"
 4833      79737465 
 4833      6D5F7400 
 4834              	.LASF116:
 4835 0325 6F66665F 		.ascii	"off_ctx\000"
 4835      63747800 
 4836              	.LASF22:
 4837 032d 746D6F64 		.ascii	"tmode_t\000"
 4837      655F7400 
 4838              	.LASF55:
 4839 0335 63685F72 		.ascii	"ch_ready_list\000"
 4839      65616479 
 4839      5F6C6973 
 4839      7400
 4840              	.LASF27:
 4841 0343 6576656E 		.ascii	"eventmask_t\000"
 4841      746D6173 
 4841      6B5F7400 
 4842              	.LASF119:
 4843 034f 6F66665F 		.ascii	"off_name\000"
 4843      6E616D65 
 4843      00
 4844              	.LASF10:
 4845 0358 5F5F696E 		.ascii	"__int32_t\000"
 4845      7433325F 
 4845      7400
ARM GAS  /tmp/cchO9Z19.s 			page 89


 4846              	.LASF62:
 4847 0362 76697274 		.ascii	"virtual_timers_list_t\000"
 4847      75616C5F 
 4847      74696D65 
 4847      72735F6C 
 4847      6973745F 
 4848              	.LASF80:
 4849 0378 73746B61 		.ascii	"stkalign_t\000"
 4849      6C69676E 
 4849      5F7400
 4850              	.LASF33:
 4851 0383 6E657765 		.ascii	"newer\000"
 4851      7200
 4852              	.LASF89:
 4853 0389 72747374 		.ascii	"rtstamp\000"
 4853      616D7000 
 4854              	.LASF44:
 4855 0391 7265616C 		.ascii	"realprio\000"
 4855      7072696F 
 4855      00
 4856              	.LASF111:
 4857 039a 76657273 		.ascii	"version\000"
 4857      696F6E00 
 4858              	.LASF21:
 4859 03a2 7274636E 		.ascii	"rtcnt_t\000"
 4859      745F7400 
 4860              	.LASF150:
 4861 03aa 64796E5F 		.ascii	"dyn_element_t\000"
 4861      656C656D 
 4861      656E745F 
 4861      7400
 4862              	.LASF135:
 4863 03b8 63685F6D 		.ascii	"ch_memcore\000"
 4863      656D636F 
 4863      726500
 4864              	.LASF100:
 4865 03c3 77747472 		.ascii	"wttrp\000"
 4865      7000
 4866              	.LASF117:
 4867 03c9 6F66665F 		.ascii	"off_newer\000"
 4867      6E657765 
 4867      7200
 4868              	.LASF97:
 4869 03d3 746D5F63 		.ascii	"tm_calibration_t\000"
 4869      616C6962 
 4869      72617469 
 4869      6F6E5F74 
 4869      00
 4870              	.LASF176:
 4871 03e4 63684D74 		.ascii	"chMtxLock\000"
 4871      784C6F63 
 4871      6B00
 4872              	.LASF82:
 4873 03ee 706F7274 		.ascii	"port_context\000"
 4873      5F636F6E 
 4873      74657874 
 4873      00
ARM GAS  /tmp/cchO9Z19.s 			page 90


 4874              	.LASF1:
 4875 03fb 6C6F6E67 		.ascii	"long long int\000"
 4875      206C6F6E 
 4875      6720696E 
 4875      7400
 4876              	.LASF146:
 4877 0409 6F626A65 		.ascii	"object_size\000"
 4877      63745F73 
 4877      697A6500 
 4878              	.LASF131:
 4879 0415 6D656D67 		.ascii	"memgetfunc2_t\000"
 4879      65746675 
 4879      6E63325F 
 4879      7400
 4880              	.LASF90:
 4881 0423 74696D65 		.ascii	"time\000"
 4881      00
 4882              	.LASF32:
 4883 0428 7072696F 		.ascii	"prio\000"
 4883      00
 4884              	.LASF56:
 4885 042d 63757272 		.ascii	"current\000"
 4885      656E7400 
 4886              	.LASF14:
 4887 0435 5F5F7569 		.ascii	"__uint64_t\000"
 4887      6E743634 
 4887      5F7400
 4888              	.LASF134:
 4889 0440 6D656D63 		.ascii	"memcore_t\000"
 4889      6F72655F 
 4889      7400
 4890              	.LASF179:
 4891 044a 474E5520 		.ascii	"GNU C17 8.3.1 20190703 (release) [gcc-8-branch revi"
 4891      43313720 
 4891      382E332E 
 4891      31203230 
 4891      31393037 
 4892 047d 73696F6E 		.ascii	"sion 273027] -mcpu=cortex-m7 -mthumb -mfloat-abi=ha"
 4892      20323733 
 4892      3032375D 
 4892      202D6D63 
 4892      70753D63 
 4893 04b0 7264202D 		.ascii	"rd -mfpu=fpv4-sp-d16 -march=armv7e-m+fp -ggdb -O2 -"
 4893      6D667075 
 4893      3D667076 
 4893      342D7370 
 4893      2D643136 
 4894 04e3 666F6D69 		.ascii	"fomit-frame-pointer -falign-functions=16 -fno-math-"
 4894      742D6672 
 4894      616D652D 
 4894      706F696E 
 4894      74657220 
 4895 0516 6572726E 		.ascii	"errno\000"
 4895      6F00
 4896              	.LASF142:
 4897 051c 75736564 		.ascii	"used\000"
 4897      00
ARM GAS  /tmp/cchO9Z19.s 			page 91


 4898              	.LASF174:
 4899 0521 63684865 		.ascii	"chHeapObjectInit\000"
 4899      61704F62 
 4899      6A656374 
 4899      496E6974 
 4899      00
 4900              	.LASF24:
 4901 0532 74726566 		.ascii	"trefs_t\000"
 4901      735F7400 
 4902              	.LASF114:
 4903 053a 74687265 		.ascii	"threadsize\000"
 4903      61647369 
 4903      7A6500
 4904              	.LASF39:
 4905 0545 72656673 		.ascii	"refs\000"
 4905      00
 4906              	.LASF58:
 4907 054a 76697274 		.ascii	"virtual_timer_t\000"
 4907      75616C5F 
 4907      74696D65 
 4907      725F7400 
 4908              	.LASF172:
 4909 055a 62706167 		.ascii	"bpages\000"
 4909      657300
 4910              	.LASF149:
 4911 0561 63685F64 		.ascii	"ch_dyn_element\000"
 4911      796E5F65 
 4911      6C656D65 
 4911      6E7400
 4912              	.LASF136:
 4913 0570 6D656D6F 		.ascii	"memory_heap_t\000"
 4913      72795F68 
 4913      6561705F 
 4913      7400
 4914              	.LASF25:
 4915 057e 74707269 		.ascii	"tprio_t\000"
 4915      6F5F7400 
 4916              	.LASF87:
 4917 0586 75736572 		.ascii	"user\000"
 4917      00
 4918              	.LASF66:
 4919 058b 63685F73 		.ascii	"ch_system_debug\000"
 4919      79737465 
 4919      6D5F6465 
 4919      62756700 
 4920              	.LASF129:
 4921 059b 5F426F6F 		.ascii	"_Bool\000"
 4921      6C00
 4922              	.LASF18:
 4923 05a1 696E7433 		.ascii	"int32_t\000"
 4923      325F7400 
 4924              	.LASF95:
 4925 05a9 63685F74 		.ascii	"ch_trace_buffer_t\000"
 4925      72616365 
 4925      5F627566 
 4925      6665725F 
 4925      7400
ARM GAS  /tmp/cchO9Z19.s 			page 92


 4926              	.LASF115:
 4927 05bb 6F66665F 		.ascii	"off_prio\000"
 4927      7072696F 
 4927      00
 4928              	.LASF160:
 4929 05c4 6669666F 		.ascii	"fifo_list\000"
 4929      5F6C6973 
 4929      7400
 4930              	.LASF7:
 4931 05ce 73686F72 		.ascii	"short int\000"
 4931      7420696E 
 4931      7400
 4932              	.LASF64:
 4933 05d8 6C617374 		.ascii	"lasttime\000"
 4933      74696D65 
 4933      00
 4934              	.LASF182:
 4935 05e1 68656170 		.ascii	"heap_header\000"
 4935      5F686561 
 4935      64657200 
 4936              	.LASF83:
 4937 05ed 77746F62 		.ascii	"wtobjp\000"
 4937      6A7000
 4938              	.LASF104:
 4939 05f4 65776D61 		.ascii	"ewmask\000"
 4939      736B00
 4940              	.LASF70:
 4941 05fb 63685F73 		.ascii	"ch_system\000"
 4941      79737465 
 4941      6D00
 4942              	.LASF16:
 4943 0605 75696E74 		.ascii	"uint8_t\000"
 4943      385F7400 
 4944              	.LASF171:
 4945 060d 5F5F6675 		.ascii	"__func__\000"
 4945      6E635F5F 
 4945      00
 4946              	.LASF9:
 4947 0616 73686F72 		.ascii	"short unsigned int\000"
 4947      7420756E 
 4947      7369676E 
 4947      65642069 
 4947      6E7400
 4948              	.LASF165:
 4949 0629 746F7461 		.ascii	"totalp\000"
 4949      6C7000
 4950              	.LASF155:
 4951 0630 6F626A5F 		.ascii	"obj_pool\000"
 4951      706F6F6C 
 4951      00
 4952              	.LASF85:
 4953 0639 72656173 		.ascii	"reason\000"
 4953      6F6E00
 4954              	.LASF59:
 4955 0640 63685F76 		.ascii	"ch_virtual_timer\000"
 4955      69727475 
 4955      616C5F74 
ARM GAS  /tmp/cchO9Z19.s 			page 93


 4955      696D6572 
 4955      00
 4956              	.LASF105:
 4957 0651 63685F73 		.ascii	"ch_semaphore\000"
 4957      656D6170 
 4957      686F7265 
 4957      00
 4958              	.LASF125:
 4959 065e 6F66665F 		.ascii	"off_time\000"
 4959      74696D65 
 4959      00
 4960              	.LASF108:
 4961 0667 63685F69 		.ascii	"ch_idle_thread_wa\000"
 4961      646C655F 
 4961      74687265 
 4961      61645F77 
 4961      6100
 4962              	.LASF113:
 4963 0679 74696D65 		.ascii	"timesize\000"
 4963      73697A65 
 4963      00
 4964              	.LASF180:
 4965 0682 2E2E2F2E 		.ascii	"../../../external/ChibiOS/os/oslib/src/chmemheaps.c"
 4965      2E2F2E2E 
 4965      2F657874 
 4965      65726E61 
 4965      6C2F4368 
 4966 06b5 00       		.ascii	"\000"
 4967              	.LASF167:
 4968 06b6 74706167 		.ascii	"tpages\000"
 4968      657300
 4969              	.LASF161:
 4970 06bd 70697065 		.ascii	"pipe_list\000"
 4970      5F6C6973 
 4970      7400
 4971              	.LASF19:
 4972 06c7 75696E74 		.ascii	"uint32_t\000"
 4972      33325F74 
 4972      00
 4973              	.LASF103:
 4974 06d0 77746D74 		.ascii	"wtmtxp\000"
 4974      787000
 4975              	.LASF49:
 4976 06d7 63685F74 		.ascii	"ch_threads_list\000"
 4976      68726561 
 4976      64735F6C 
 4976      69737400 
 4977              	.LASF107:
 4978 06e7 6F776E65 		.ascii	"owner\000"
 4978      7200
 4979              	.LASF144:
 4980 06ed 68656170 		.ascii	"heap\000"
 4980      00
 4981              	.LASF2:
 4982 06f2 6C6F6E67 		.ascii	"long double\000"
 4982      20646F75 
 4982      626C6500 
ARM GAS  /tmp/cchO9Z19.s 			page 94


 4983              	.LASF36:
 4984 06fe 77616261 		.ascii	"wabase\000"
 4984      736500
 4985              	.LASF183:
 4986 0705 64656661 		.ascii	"default_heap\000"
 4986      756C745F 
 4986      68656170 
 4986      00
 4987              	.LASF84:
 4988 0712 63686172 		.ascii	"char\000"
 4988      00
 4989              	.LASF34:
 4990 0717 6F6C6465 		.ascii	"older\000"
 4990      7200
 4991              	.LASF154:
 4992 071d 6F626A5F 		.ascii	"obj_list\000"
 4992      6C697374 
 4992      00
 4993              	.LASF8:
 4994 0726 5F5F7569 		.ascii	"__uint16_t\000"
 4994      6E743136 
 4994      5F7400
 4995              	.LASF30:
 4996 0731 74687265 		.ascii	"thread_t\000"
 4996      61645F74 
 4996      00
 4997              	.LASF169:
 4998 073a 63684865 		.ascii	"chHeapStatus\000"
 4998      61705374 
 4998      61747573 
 4998      00
 4999              	.LASF74:
 5000 0747 73797374 		.ascii	"systime_t\000"
 5000      696D655F 
 5000      7400
 5001              	.LASF140:
 5002 0751 68656170 		.ascii	"heap_header_t\000"
 5002      5F686561 
 5002      6465725F 
 5002      7400
 5003              	.LASF178:
 5004 075f 63684D74 		.ascii	"chMtxObjectInit\000"
 5004      784F626A 
 5004      65637449 
 5004      6E697400 
 5005              	.LASF67:
 5006 076f 70616E69 		.ascii	"panic_msg\000"
 5006      635F6D73 
 5006      6700
 5007              	.LASF96:
 5008 0779 6F666673 		.ascii	"offset\000"
 5008      657400
 5009              	.LASF170:
 5010 0780 63684865 		.ascii	"chHeapAllocAligned\000"
 5010      6170416C 
 5010      6C6F6341 
 5010      6C69676E 
ARM GAS  /tmp/cchO9Z19.s 			page 95


 5010      656400
 5011              	.LASF118:
 5012 0793 6F66665F 		.ascii	"off_older\000"
 5012      6F6C6465 
 5012      7200
 5013              	.LASF151:
 5014 079d 63685F64 		.ascii	"ch_dyn_list\000"
 5014      796E5F6C 
 5014      69737400 
 5015              	.LASF141:
 5016 07a9 66726565 		.ascii	"free\000"
 5016      00
 5017              	.LASF109:
 5018 07ae 6964656E 		.ascii	"identifier\000"
 5018      74696669 
 5018      657200
 5019              	.LASF166:
 5020 07b9 6C617267 		.ascii	"largestp\000"
 5020      65737470 
 5020      00
 5021              	.LASF112:
 5022 07c2 70747273 		.ascii	"ptrsize\000"
 5022      697A6500 
 5023              	.LASF51:
 5024 07ca 74687265 		.ascii	"threads_queue_t\000"
 5024      6164735F 
 5024      71756575 
 5024      655F7400 
 5025              	.LASF145:
 5026 07da 706F6F6C 		.ascii	"pool_header\000"
 5026      5F686561 
 5026      64657200 
 5027              	.LASF71:
 5028 07e6 726C6973 		.ascii	"rlist\000"
 5028      7400
 5029              	.LASF158:
 5030 07ec 73656D5F 		.ascii	"sem_pool\000"
 5030      706F6F6C 
 5030      00
 5031              	.LASF120:
 5032 07f5 6F66665F 		.ascii	"off_stklimit\000"
 5032      73746B6C 
 5032      696D6974 
 5032      00
 5033              	.LASF38:
 5034 0802 666C6167 		.ascii	"flags\000"
 5034      7300
 5035              	.LASF46:
 5036 0808 74687265 		.ascii	"thread_reference_t\000"
 5036      61645F72 
 5036      65666572 
 5036      656E6365 
 5036      5F7400
 5037              	.LASF106:
 5038 081b 63685F6D 		.ascii	"ch_mutex\000"
 5038      75746578 
 5038      00
ARM GAS  /tmp/cchO9Z19.s 			page 96


 5039              	.LASF147:
 5040 0824 616C6967 		.ascii	"align\000"
 5040      6E00
 5041              	.LASF47:
 5042 082a 74687265 		.ascii	"threads_list_t\000"
 5042      6164735F 
 5042      6C697374 
 5042      5F7400
 5043              	.LASF57:
 5044 0839 76746675 		.ascii	"vtfunc_t\000"
 5044      6E635F74 
 5044      00
 5045              	.LASF121:
 5046 0842 6F66665F 		.ascii	"off_state\000"
 5046      73746174 
 5046      6500
 5047              	.LASF68:
 5048 084c 74726163 		.ascii	"trace_buffer\000"
 5048      655F6275 
 5048      66666572 
 5048      00
 5049              	.LASF122:
 5050 0859 6F66665F 		.ascii	"off_flags\000"
 5050      666C6167 
 5050      7300
 5051              	.LASF43:
 5052 0863 6D74786C 		.ascii	"mtxlist\000"
 5052      69737400 
 5053              	.LASF139:
 5054 086b 68656164 		.ascii	"header\000"
 5054      657200
 5055              	.LASF137:
 5056 0872 6D656D6F 		.ascii	"memory_heap\000"
 5056      72795F68 
 5056      65617000 
 5057              		.ident	"GCC: (GNU Tools for Arm Embedded Processors 8-2019-q3-update) 8.3.1 20190703 (release) [gc
ARM GAS  /tmp/cchO9Z19.s 			page 97


DEFINED SYMBOLS
                            *ABS*:0000000000000000 chmemheaps.c
     /tmp/cchO9Z19.s:17     .text:0000000000000000 $t
     /tmp/cchO9Z19.s:26     .text:0000000000000000 _heap_init
     /tmp/cchO9Z19.s:55     .text:0000000000000014 $d
     /tmp/cchO9Z19.s:60     .text:000000000000001c $t
     /tmp/cchO9Z19.s:68     .text:0000000000000020 chHeapObjectInit
     /tmp/cchO9Z19.s:145    .text:0000000000000050 chHeapAllocAligned
     /tmp/cchO9Z19.s:408    .text:0000000000000148 $d
     /tmp/cchO9Z19.s:412    .text:000000000000014c $t
     /tmp/cchO9Z19.s:420    .text:0000000000000150 chHeapFree
     /tmp/cchO9Z19.s:606    .text:00000000000001f0 chHeapStatus
     /tmp/cchO9Z19.s:729    .text:000000000000024c $d
     /tmp/cchO9Z19.s:734    .bss:0000000000000000 $d
     /tmp/cchO9Z19.s:738    .bss:0000000000000000 default_heap

UNDEFINED SYMBOLS
chMtxObjectInit
chCoreAllocFromTop
chMtxLock
chMtxUnlock
