ARM GAS  /tmp/ccAp8WcE.s 			page 1


   1              		.cpu cortex-m7
   2              		.eabi_attribute 27, 1
   3              		.eabi_attribute 28, 1
   4              		.eabi_attribute 20, 1
   5              		.eabi_attribute 21, 1
   6              		.eabi_attribute 23, 3
   7              		.eabi_attribute 24, 1
   8              		.eabi_attribute 25, 1
   9              		.eabi_attribute 26, 1
  10              		.eabi_attribute 30, 2
  11              		.eabi_attribute 34, 1
  12              		.eabi_attribute 18, 4
  13              		.file	"chmemcore.c"
  14              		.text
  15              	.Ltext0:
  16              		.cfi_sections	.debug_frame
  17              		.align	1
  18              		.p2align 4,,15
  19              		.global	_core_init
  20              		.arch armv7e-m
  21              		.syntax unified
  22              		.thumb
  23              		.thumb_func
  24              		.fpu fpv4-sp-d16
  25              		.type	_core_init, %function
  26              	_core_init:
  27              	.LFB323:
  28              		.file 1 "../../../external/ChibiOS/os/oslib/src/chmemcore.c"
  29              		.loc 1 81 23 view -0
  30              		.cfi_startproc
  31              		@ args = 0, pretend = 0, frame = 0
  32              		@ frame_needed = 0, uses_anonymous_args = 0
  33              		@ link register save eliminated.
  34              		.loc 1 83 3 view .LVU1
  35              		.loc 1 84 3 view .LVU2
  36              		.loc 1 87 3 view .LVU3
  37              		.loc 1 87 22 is_stmt 0 view .LVU4
  38 0000 024B     		ldr	r3, .L3
  39 0002 0349     		ldr	r1, .L3+4
  40              		.loc 1 88 22 view .LVU5
  41 0004 034A     		ldr	r2, .L3+8
  42 0006 C3E90012 		strd	r1, r2, [r3]
  43              		.loc 1 96 1 view .LVU6
  44 000a 7047     		bx	lr
  45              	.L4:
  46              		.align	2
  47              	.L3:
  48 000c 00000000 		.word	ch_memcore
  49 0010 00000000 		.word	__heap_base__
  50 0014 00000000 		.word	__heap_end__
  51              		.cfi_endproc
  52              	.LFE323:
  53              		.size	_core_init, .-_core_init
  54              		.align	1
  55 0018 AFF30080 		.p2align 4,,15
  55      AFF30080 
  56              		.global	chCoreAllocFromBaseI
ARM GAS  /tmp/ccAp8WcE.s 			page 2


  57              		.syntax unified
  58              		.thumb
  59              		.thumb_func
  60              		.fpu fpv4-sp-d16
  61              		.type	chCoreAllocFromBaseI, %function
  62              	chCoreAllocFromBaseI:
  63              	.LVL0:
  64              	.LFB324:
  65              		.loc 1 112 72 is_stmt 1 view -0
  66              		.cfi_startproc
  67              		@ args = 0, pretend = 0, frame = 0
  68              		@ frame_needed = 0, uses_anonymous_args = 0
  69              		@ link register save eliminated.
  70              		.loc 1 113 3 view .LVU8
  71              		.loc 1 115 21 view .LVU9
  72              		.loc 1 116 3 view .LVU10
  73              		.loc 1 116 3 view .LVU11
  74              		.loc 1 118 3 view .LVU12
  75              		.loc 1 118 18 is_stmt 0 view .LVU13
  76 0020 0A4B     		ldr	r3, .L9
  77              		.loc 1 112 72 view .LVU14
  78 0022 70B4     		push	{r4, r5, r6}
  79              		.cfi_def_cfa_offset 12
  80              		.cfi_offset 4, -12
  81              		.cfi_offset 5, -8
  82              		.cfi_offset 6, -4
  83              		.loc 1 118 18 view .LVU15
  84 0024 1D68     		ldr	r5, [r3]
  85 0026 4E1E     		subs	r6, r1, #1
  86 0028 4942     		rsbs	r1, r1, #0
  87              	.LVL1:
  88              		.loc 1 122 6 view .LVU16
  89 002a 5C68     		ldr	r4, [r3, #4]
  90              		.loc 1 118 18 view .LVU17
  91 002c 2A44     		add	r2, r2, r5
  92              	.LVL2:
  93              		.loc 1 118 18 view .LVU18
  94 002e 3244     		add	r2, r2, r6
  95 0030 0A40     		ands	r2, r2, r1
  96              	.LVL3:
  97              		.loc 1 119 3 is_stmt 1 view .LVU19
  98              		.loc 1 119 8 is_stmt 0 view .LVU20
  99 0032 1044     		add	r0, r0, r2
 100              	.LVL4:
 101              		.loc 1 122 3 is_stmt 1 view .LVU21
 102              		.loc 1 122 34 is_stmt 0 view .LVU22
 103 0034 8442     		cmp	r4, r0
 104 0036 05D3     		bcc	.L7
 105 0038 8542     		cmp	r5, r0
 106 003a 03D8     		bhi	.L7
 107              		.loc 1 126 3 is_stmt 1 view .LVU23
 108              		.loc 1 126 22 is_stmt 0 view .LVU24
 109 003c 1860     		str	r0, [r3]
 110              		.loc 1 128 3 is_stmt 1 view .LVU25
 111              		.loc 1 129 1 is_stmt 0 view .LVU26
 112 003e 1046     		mov	r0, r2
 113              	.LVL5:
ARM GAS  /tmp/ccAp8WcE.s 			page 3


 114              		.loc 1 129 1 view .LVU27
 115 0040 70BC     		pop	{r4, r5, r6}
 116              		.cfi_remember_state
 117              		.cfi_restore 6
 118              		.cfi_restore 5
 119              		.cfi_restore 4
 120              		.cfi_def_cfa_offset 0
 121 0042 7047     		bx	lr
 122              	.LVL6:
 123              	.L7:
 124              		.cfi_restore_state
 125              		.loc 1 123 12 view .LVU28
 126 0044 0022     		movs	r2, #0
 127              	.LVL7:
 128              		.loc 1 129 1 view .LVU29
 129 0046 70BC     		pop	{r4, r5, r6}
 130              		.cfi_restore 6
 131              		.cfi_restore 5
 132              		.cfi_restore 4
 133              		.cfi_def_cfa_offset 0
 134              	.LVL8:
 135              		.loc 1 129 1 view .LVU30
 136 0048 1046     		mov	r0, r2
 137              	.LVL9:
 138              		.loc 1 129 1 view .LVU31
 139 004a 7047     		bx	lr
 140              	.L10:
 141              		.align	2
 142              	.L9:
 143 004c 00000000 		.word	ch_memcore
 144              		.cfi_endproc
 145              	.LFE324:
 146              		.size	chCoreAllocFromBaseI, .-chCoreAllocFromBaseI
 147              		.align	1
 148              		.p2align 4,,15
 149              		.global	chCoreAllocFromTopI
 150              		.syntax unified
 151              		.thumb
 152              		.thumb_func
 153              		.fpu fpv4-sp-d16
 154              		.type	chCoreAllocFromTopI, %function
 155              	chCoreAllocFromTopI:
 156              	.LVL10:
 157              	.LFB325:
 158              		.loc 1 145 71 is_stmt 1 view -0
 159              		.cfi_startproc
 160              		@ args = 0, pretend = 0, frame = 0
 161              		@ frame_needed = 0, uses_anonymous_args = 0
 162              		@ link register save eliminated.
 163              		.loc 1 146 3 view .LVU33
 164              		.loc 1 148 21 view .LVU34
 165              		.loc 1 149 3 view .LVU35
 166              		.loc 1 149 3 view .LVU36
 167              		.loc 1 151 3 view .LVU37
 168              		.loc 1 151 18 is_stmt 0 view .LVU38
 169 0050 084B     		ldr	r3, .L15
 170 0052 4942     		rsbs	r1, r1, #0
ARM GAS  /tmp/ccAp8WcE.s 			page 4


 171              	.LVL11:
 172              		.loc 1 145 71 view .LVU39
 173 0054 30B4     		push	{r4, r5}
 174              		.cfi_def_cfa_offset 8
 175              		.cfi_offset 4, -8
 176              		.cfi_offset 5, -4
 177              		.loc 1 155 6 view .LVU40
 178 0056 D3E90054 		ldrd	r5, r4, [r3]
 179              		.loc 1 151 18 view .LVU41
 180 005a 201A     		subs	r0, r4, r0
 181              	.LVL12:
 182              		.loc 1 151 18 view .LVU42
 183 005c 0840     		ands	r0, r0, r1
 184              	.LVL13:
 185              		.loc 1 152 3 is_stmt 1 view .LVU43
 186              		.loc 1 152 8 is_stmt 0 view .LVU44
 187 005e 821A     		subs	r2, r0, r2
 188              	.LVL14:
 189              		.loc 1 155 3 is_stmt 1 view .LVU45
 190              		.loc 1 155 35 is_stmt 0 view .LVU46
 191 0060 9542     		cmp	r5, r2
 192 0062 04D8     		bhi	.L13
 193 0064 9442     		cmp	r4, r2
 194 0066 02D3     		bcc	.L13
 195              		.loc 1 159 3 is_stmt 1 view .LVU47
 196              		.loc 1 159 21 is_stmt 0 view .LVU48
 197 0068 5A60     		str	r2, [r3, #4]
 198              		.loc 1 161 3 is_stmt 1 view .LVU49
 199              		.loc 1 162 1 is_stmt 0 view .LVU50
 200 006a 30BC     		pop	{r4, r5}
 201              		.cfi_remember_state
 202              		.cfi_restore 5
 203              		.cfi_restore 4
 204              		.cfi_def_cfa_offset 0
 205 006c 7047     		bx	lr
 206              	.L13:
 207              		.cfi_restore_state
 208              		.loc 1 156 12 view .LVU51
 209 006e 0020     		movs	r0, #0
 210              	.LVL15:
 211              		.loc 1 162 1 view .LVU52
 212 0070 30BC     		pop	{r4, r5}
 213              		.cfi_restore 5
 214              		.cfi_restore 4
 215              		.cfi_def_cfa_offset 0
 216              	.LVL16:
 217              		.loc 1 162 1 view .LVU53
 218 0072 7047     		bx	lr
 219              	.L16:
 220              		.align	2
 221              	.L15:
 222 0074 00000000 		.word	ch_memcore
 223              		.cfi_endproc
 224              	.LFE325:
 225              		.size	chCoreAllocFromTopI, .-chCoreAllocFromTopI
 226              		.align	1
 227 0078 AFF30080 		.p2align 4,,15
ARM GAS  /tmp/ccAp8WcE.s 			page 5


 227      AFF30080 
 228              		.global	chCoreAllocFromBase
 229              		.syntax unified
 230              		.thumb
 231              		.thumb_func
 232              		.fpu fpv4-sp-d16
 233              		.type	chCoreAllocFromBase, %function
 234              	chCoreAllocFromBase:
 235              	.LVL17:
 236              	.LFB326:
 237              		.loc 1 178 71 is_stmt 1 view -0
 238              		.cfi_startproc
 239              		@ args = 0, pretend = 0, frame = 0
 240              		@ frame_needed = 0, uses_anonymous_args = 0
 241              		@ link register save eliminated.
 242              		.loc 1 179 3 view .LVU55
 243              		.loc 1 181 3 view .LVU56
 244              	.LBB38:
 245              	.LBI38:
 246              		.file 2 "../../../external/ChibiOS/os/rt/include/chsys.h"
 247              		.loc 2 353 20 view .LVU57
 248              	.LBE38:
 249              		.loc 2 355 3 view .LVU58
 250              	.LBB46:
 251              	.LBB39:
 252              	.LBI39:
 253              		.file 3 "../../../external/ChibiOS/os/common/ports/ARMCMx/chcore_v7m.h"
 254              		.loc 3 669 27 view .LVU59
 255              	.LBE39:
 256              	.LBE46:
 257              		.loc 3 677 3 view .LVU60
 258              	.LBB47:
 259              	.LBB44:
 260              	.LBB40:
 261              	.LBI40:
 262              		.file 4 "../../../external/ChibiOS/os/common/ext/ARM/CMSIS/Core/Include/cmsis_gcc.h"
 263              		.loc 4 491 27 view .LVU61
 264              	.LBB41:
 265              		.loc 4 493 3 view .LVU62
 266              	.LBE41:
 267              	.LBE40:
 268              	.LBE44:
 269              	.LBE47:
 270              		.loc 1 178 71 is_stmt 0 view .LVU63
 271 0080 F0B4     		push	{r4, r5, r6, r7}
 272              		.cfi_def_cfa_offset 16
 273              		.cfi_offset 4, -16
 274              		.cfi_offset 5, -12
 275              		.cfi_offset 6, -8
 276              		.cfi_offset 7, -4
 277              	.LBB48:
 278              	.LBB45:
 279              	.LBB43:
 280              	.LBB42:
 281              		.loc 4 493 3 view .LVU64
 282 0082 2023     		movs	r3, #32
 283              		.syntax unified
ARM GAS  /tmp/ccAp8WcE.s 			page 6


 284              	@ 493 "../../../external/ChibiOS/os/common/ext/ARM/CMSIS/Core/Include/cmsis_gcc.h" 1
 285 0084 83F31188 		MSR basepri, r3
 286              	@ 0 "" 2
 287              	.LVL18:
 288              		.loc 4 493 3 view .LVU65
 289              		.thumb
 290              		.syntax unified
 291              	.LBE42:
 292              	.LBE43:
 293              	.LBE45:
 294              	.LBE48:
 295              		.loc 2 356 34 is_stmt 1 view .LVU66
 296              		.loc 2 357 20 view .LVU67
 297              		.loc 1 182 3 view .LVU68
 298              	.LBB49:
 299              	.LBI49:
 300              		.loc 1 112 7 view .LVU69
 301              	.LBB50:
 302              		.loc 1 113 3 view .LVU70
 303              		.loc 1 115 21 view .LVU71
 304              		.loc 1 116 3 view .LVU72
 305              		.loc 1 116 3 view .LVU73
 306              		.loc 1 118 3 view .LVU74
 307              		.loc 1 118 18 is_stmt 0 view .LVU75
 308 0088 0D4D     		ldr	r5, .L21
 309 008a 4F1E     		subs	r7, r1, #1
 310 008c 4B42     		rsbs	r3, r1, #0
 311              		.loc 1 122 6 view .LVU76
 312 008e D5E90064 		ldrd	r6, r4, [r5]
 313              		.loc 1 118 18 view .LVU77
 314 0092 3244     		add	r2, r2, r6
 315              	.LVL19:
 316              		.loc 1 118 18 view .LVU78
 317 0094 D119     		adds	r1, r2, r7
 318              	.LVL20:
 319              		.loc 1 118 18 view .LVU79
 320 0096 1940     		ands	r1, r1, r3
 321              	.LVL21:
 322              		.loc 1 119 3 is_stmt 1 view .LVU80
 323              		.loc 1 119 8 is_stmt 0 view .LVU81
 324 0098 0844     		add	r0, r0, r1
 325              	.LVL22:
 326              		.loc 1 122 3 is_stmt 1 view .LVU82
 327              		.loc 1 122 34 is_stmt 0 view .LVU83
 328 009a A042     		cmp	r0, r4
 329 009c 08D8     		bhi	.L19
 330 009e 8642     		cmp	r6, r0
 331 00a0 06D8     		bhi	.L19
 332              		.loc 1 126 3 is_stmt 1 view .LVU84
 333              		.loc 1 126 22 is_stmt 0 view .LVU85
 334 00a2 2860     		str	r0, [r5]
 335              		.loc 1 128 3 is_stmt 1 view .LVU86
 336              	.LVL23:
 337              		.loc 1 128 3 is_stmt 0 view .LVU87
 338              	.LBE50:
 339              	.LBE49:
 340              		.loc 1 183 3 is_stmt 1 view .LVU88
ARM GAS  /tmp/ccAp8WcE.s 			page 7


 341              	.LBB52:
 342              	.LBI52:
 343              		.loc 2 365 20 view .LVU89
 344              	.LBB53:
 345              		.loc 2 367 22 view .LVU90
 346              		.loc 2 368 33 view .LVU91
 347              		.loc 2 374 3 view .LVU92
 348              		.loc 2 374 3 view .LVU93
 349              		.loc 2 378 3 view .LVU94
 350              	.LBB54:
 351              	.LBI54:
 352              		.loc 3 693 27 view .LVU95
 353              	.LBE54:
 354              	.LBE53:
 355              	.LBE52:
 356              		.loc 3 696 3 view .LVU96
 357              	.LBB65:
 358              	.LBB62:
 359              	.LBB59:
 360              	.LBB55:
 361              	.LBI55:
 362              		.loc 4 491 27 view .LVU97
 363              	.LBB56:
 364              		.loc 4 493 3 view .LVU98
 365 00a4 0023     		movs	r3, #0
 366              	.LVL24:
 367              		.loc 4 493 3 is_stmt 0 view .LVU99
 368              		.syntax unified
 369              	@ 493 "../../../external/ChibiOS/os/common/ext/ARM/CMSIS/Core/Include/cmsis_gcc.h" 1
 370 00a6 83F31188 		MSR basepri, r3
 371              	@ 0 "" 2
 372              	.LVL25:
 373              		.loc 4 493 3 view .LVU100
 374              		.thumb
 375              		.syntax unified
 376              	.LBE56:
 377              	.LBE55:
 378              	.LBE59:
 379              	.LBE62:
 380              	.LBE65:
 381              		.loc 1 185 3 is_stmt 1 view .LVU101
 382              		.loc 1 186 1 is_stmt 0 view .LVU102
 383 00aa 0846     		mov	r0, r1
 384 00ac F0BC     		pop	{r4, r5, r6, r7}
 385              		.cfi_remember_state
 386              		.cfi_restore 7
 387              		.cfi_restore 6
 388              		.cfi_restore 5
 389              		.cfi_restore 4
 390              		.cfi_def_cfa_offset 0
 391              	.LVL26:
 392              		.loc 1 186 1 view .LVU103
 393 00ae 7047     		bx	lr
 394              	.LVL27:
 395              	.L19:
 396              		.cfi_restore_state
 397              	.LBB66:
ARM GAS  /tmp/ccAp8WcE.s 			page 8


 398              	.LBB51:
 399              		.loc 1 123 12 view .LVU104
 400 00b0 0021     		movs	r1, #0
 401              	.LVL28:
 402              		.loc 1 123 12 view .LVU105
 403              	.LBE51:
 404              	.LBE66:
 405              		.loc 1 183 3 is_stmt 1 view .LVU106
 406              	.LBB67:
 407              		.loc 2 365 20 view .LVU107
 408              	.LBB63:
 409              		.loc 2 367 22 view .LVU108
 410              		.loc 2 368 33 view .LVU109
 411              		.loc 2 374 3 view .LVU110
 412              		.loc 2 374 3 view .LVU111
 413              		.loc 2 378 3 view .LVU112
 414              	.LBB60:
 415              		.loc 3 693 27 view .LVU113
 416              	.LBE60:
 417              	.LBE63:
 418              	.LBE67:
 419              		.loc 3 696 3 view .LVU114
 420              	.LBB68:
 421              	.LBB64:
 422              	.LBB61:
 423              	.LBB58:
 424              		.loc 4 491 27 view .LVU115
 425              	.LBB57:
 426              		.loc 4 493 3 view .LVU116
 427 00b2 0023     		movs	r3, #0
 428              		.syntax unified
 429              	@ 493 "../../../external/ChibiOS/os/common/ext/ARM/CMSIS/Core/Include/cmsis_gcc.h" 1
 430 00b4 83F31188 		MSR basepri, r3
 431              	@ 0 "" 2
 432              	.LVL29:
 433              		.loc 4 493 3 is_stmt 0 view .LVU117
 434              		.thumb
 435              		.syntax unified
 436              	.LBE57:
 437              	.LBE58:
 438              	.LBE61:
 439              	.LBE64:
 440              	.LBE68:
 441              		.loc 1 185 3 is_stmt 1 view .LVU118
 442              		.loc 1 186 1 is_stmt 0 view .LVU119
 443 00b8 0846     		mov	r0, r1
 444 00ba F0BC     		pop	{r4, r5, r6, r7}
 445              		.cfi_restore 7
 446              		.cfi_restore 6
 447              		.cfi_restore 5
 448              		.cfi_restore 4
 449              		.cfi_def_cfa_offset 0
 450 00bc 7047     		bx	lr
 451              	.L22:
 452 00be 00BF     		.align	2
 453              	.L21:
 454 00c0 00000000 		.word	ch_memcore
ARM GAS  /tmp/ccAp8WcE.s 			page 9


 455              		.cfi_endproc
 456              	.LFE326:
 457              		.size	chCoreAllocFromBase, .-chCoreAllocFromBase
 458              		.align	1
 459 00c4 AFF30080 		.p2align 4,,15
 459      AFF30080 
 459      AFF30080 
 460              		.global	chCoreAllocFromTop
 461              		.syntax unified
 462              		.thumb
 463              		.thumb_func
 464              		.fpu fpv4-sp-d16
 465              		.type	chCoreAllocFromTop, %function
 466              	chCoreAllocFromTop:
 467              	.LVL30:
 468              	.LFB327:
 469              		.loc 1 202 70 is_stmt 1 view -0
 470              		.cfi_startproc
 471              		@ args = 0, pretend = 0, frame = 0
 472              		@ frame_needed = 0, uses_anonymous_args = 0
 473              		@ link register save eliminated.
 474              		.loc 1 203 3 view .LVU121
 475              		.loc 1 205 3 view .LVU122
 476              	.LBB69:
 477              	.LBI69:
 478              		.loc 2 353 20 view .LVU123
 479              	.LBE69:
 480              		.loc 2 355 3 view .LVU124
 481              	.LBB77:
 482              	.LBB70:
 483              	.LBI70:
 484              		.loc 3 669 27 view .LVU125
 485              	.LBE70:
 486              	.LBE77:
 487              		.loc 3 677 3 view .LVU126
 488              	.LBB78:
 489              	.LBB75:
 490              	.LBB71:
 491              	.LBI71:
 492              		.loc 4 491 27 view .LVU127
 493              	.LBB72:
 494              		.loc 4 493 3 view .LVU128
 495              	.LBE72:
 496              	.LBE71:
 497              	.LBE75:
 498              	.LBE78:
 499              		.loc 1 202 70 is_stmt 0 view .LVU129
 500 00d0 30B4     		push	{r4, r5}
 501              		.cfi_def_cfa_offset 8
 502              		.cfi_offset 4, -8
 503              		.cfi_offset 5, -4
 504              	.LBB79:
 505              	.LBB76:
 506              	.LBB74:
 507              	.LBB73:
 508              		.loc 4 493 3 view .LVU130
 509 00d2 2023     		movs	r3, #32
ARM GAS  /tmp/ccAp8WcE.s 			page 10


 510              		.syntax unified
 511              	@ 493 "../../../external/ChibiOS/os/common/ext/ARM/CMSIS/Core/Include/cmsis_gcc.h" 1
 512 00d4 83F31188 		MSR basepri, r3
 513              	@ 0 "" 2
 514              	.LVL31:
 515              		.loc 4 493 3 view .LVU131
 516              		.thumb
 517              		.syntax unified
 518              	.LBE73:
 519              	.LBE74:
 520              	.LBE76:
 521              	.LBE79:
 522              		.loc 2 356 34 is_stmt 1 view .LVU132
 523              		.loc 2 357 20 view .LVU133
 524              		.loc 1 206 3 view .LVU134
 525              	.LBB80:
 526              	.LBI80:
 527              		.loc 1 145 7 view .LVU135
 528              	.LBB81:
 529              		.loc 1 146 3 view .LVU136
 530              		.loc 1 148 21 view .LVU137
 531              		.loc 1 149 3 view .LVU138
 532              		.loc 1 149 3 view .LVU139
 533              		.loc 1 151 3 view .LVU140
 534              		.loc 1 151 18 is_stmt 0 view .LVU141
 535 00d8 0B4B     		ldr	r3, .L27
 536 00da 4942     		rsbs	r1, r1, #0
 537              	.LVL32:
 538              		.loc 1 155 6 view .LVU142
 539 00dc D3E90045 		ldrd	r4, r5, [r3]
 540              		.loc 1 151 18 view .LVU143
 541 00e0 281A     		subs	r0, r5, r0
 542              	.LVL33:
 543              		.loc 1 151 18 view .LVU144
 544 00e2 0840     		ands	r0, r0, r1
 545              	.LVL34:
 546              		.loc 1 152 3 is_stmt 1 view .LVU145
 547              		.loc 1 152 8 is_stmt 0 view .LVU146
 548 00e4 821A     		subs	r2, r0, r2
 549              	.LVL35:
 550              		.loc 1 155 3 is_stmt 1 view .LVU147
 551              		.loc 1 155 35 is_stmt 0 view .LVU148
 552 00e6 A242     		cmp	r2, r4
 553 00e8 07D3     		bcc	.L25
 554 00ea 9542     		cmp	r5, r2
 555 00ec 05D3     		bcc	.L25
 556              		.loc 1 159 3 is_stmt 1 view .LVU149
 557              		.loc 1 159 21 is_stmt 0 view .LVU150
 558 00ee 5A60     		str	r2, [r3, #4]
 559              		.loc 1 161 3 is_stmt 1 view .LVU151
 560              	.LVL36:
 561              		.loc 1 161 3 is_stmt 0 view .LVU152
 562              	.LBE81:
 563              	.LBE80:
 564              		.loc 1 207 3 is_stmt 1 view .LVU153
 565              	.LBB83:
 566              	.LBI83:
ARM GAS  /tmp/ccAp8WcE.s 			page 11


 567              		.loc 2 365 20 view .LVU154
 568              	.LBB84:
 569              		.loc 2 367 22 view .LVU155
 570              		.loc 2 368 33 view .LVU156
 571              		.loc 2 374 3 view .LVU157
 572              		.loc 2 374 3 view .LVU158
 573              		.loc 2 378 3 view .LVU159
 574              	.LBB85:
 575              	.LBI85:
 576              		.loc 3 693 27 view .LVU160
 577              	.LBE85:
 578              	.LBE84:
 579              	.LBE83:
 580              		.loc 3 696 3 view .LVU161
 581              	.LBB96:
 582              	.LBB93:
 583              	.LBB90:
 584              	.LBB86:
 585              	.LBI86:
 586              		.loc 4 491 27 view .LVU162
 587              	.LBB87:
 588              		.loc 4 493 3 view .LVU163
 589 00f0 0023     		movs	r3, #0
 590              		.syntax unified
 591              	@ 493 "../../../external/ChibiOS/os/common/ext/ARM/CMSIS/Core/Include/cmsis_gcc.h" 1
 592 00f2 83F31188 		MSR basepri, r3
 593              	@ 0 "" 2
 594              	.LVL37:
 595              		.loc 4 493 3 is_stmt 0 view .LVU164
 596              		.thumb
 597              		.syntax unified
 598              	.LBE87:
 599              	.LBE86:
 600              	.LBE90:
 601              	.LBE93:
 602              	.LBE96:
 603              		.loc 1 209 3 is_stmt 1 view .LVU165
 604              		.loc 1 210 1 is_stmt 0 view .LVU166
 605 00f6 30BC     		pop	{r4, r5}
 606              		.cfi_remember_state
 607              		.cfi_restore 5
 608              		.cfi_restore 4
 609              		.cfi_def_cfa_offset 0
 610 00f8 7047     		bx	lr
 611              	.LVL38:
 612              	.L25:
 613              		.cfi_restore_state
 614              	.LBB97:
 615              	.LBB82:
 616              		.loc 1 156 12 view .LVU167
 617 00fa 0020     		movs	r0, #0
 618              	.LVL39:
 619              		.loc 1 156 12 view .LVU168
 620              	.LBE82:
 621              	.LBE97:
 622              		.loc 1 207 3 is_stmt 1 view .LVU169
 623              	.LBB98:
ARM GAS  /tmp/ccAp8WcE.s 			page 12


 624              		.loc 2 365 20 view .LVU170
 625              	.LBB94:
 626              		.loc 2 367 22 view .LVU171
 627              		.loc 2 368 33 view .LVU172
 628              		.loc 2 374 3 view .LVU173
 629              		.loc 2 374 3 view .LVU174
 630              		.loc 2 378 3 view .LVU175
 631              	.LBB91:
 632              		.loc 3 693 27 view .LVU176
 633              	.LBE91:
 634              	.LBE94:
 635              	.LBE98:
 636              		.loc 3 696 3 view .LVU177
 637              	.LBB99:
 638              	.LBB95:
 639              	.LBB92:
 640              	.LBB89:
 641              		.loc 4 491 27 view .LVU178
 642              	.LBB88:
 643              		.loc 4 493 3 view .LVU179
 644 00fc 0023     		movs	r3, #0
 645              		.syntax unified
 646              	@ 493 "../../../external/ChibiOS/os/common/ext/ARM/CMSIS/Core/Include/cmsis_gcc.h" 1
 647 00fe 83F31188 		MSR basepri, r3
 648              	@ 0 "" 2
 649              	.LVL40:
 650              		.loc 4 493 3 is_stmt 0 view .LVU180
 651              		.thumb
 652              		.syntax unified
 653              	.LBE88:
 654              	.LBE89:
 655              	.LBE92:
 656              	.LBE95:
 657              	.LBE99:
 658              		.loc 1 209 3 is_stmt 1 view .LVU181
 659              		.loc 1 210 1 is_stmt 0 view .LVU182
 660 0102 30BC     		pop	{r4, r5}
 661              		.cfi_restore 5
 662              		.cfi_restore 4
 663              		.cfi_def_cfa_offset 0
 664 0104 7047     		bx	lr
 665              	.L28:
 666 0106 00BF     		.align	2
 667              	.L27:
 668 0108 00000000 		.word	ch_memcore
 669              		.cfi_endproc
 670              	.LFE327:
 671              		.size	chCoreAllocFromTop, .-chCoreAllocFromTop
 672              		.align	1
 673 010c AFF30080 		.p2align 4,,15
 674              		.global	chCoreGetStatusX
 675              		.syntax unified
 676              		.thumb
 677              		.thumb_func
 678              		.fpu fpv4-sp-d16
 679              		.type	chCoreGetStatusX, %function
 680              	chCoreGetStatusX:
ARM GAS  /tmp/ccAp8WcE.s 			page 13


 681              	.LFB328:
 682              		.loc 1 219 31 is_stmt 1 view -0
 683              		.cfi_startproc
 684              		@ args = 0, pretend = 0, frame = 0
 685              		@ frame_needed = 0, uses_anonymous_args = 0
 686              		@ link register save eliminated.
 687              		.loc 1 222 3 view .LVU184
 688              		.loc 1 222 29 is_stmt 0 view .LVU185
 689 0110 024B     		ldr	r3, .L30
 690              		.loc 1 222 37 view .LVU186
 691 0112 D3E90030 		ldrd	r3, r0, [r3]
 692              		.loc 1 224 1 view .LVU187
 693 0116 C01A     		subs	r0, r0, r3
 694 0118 7047     		bx	lr
 695              	.L31:
 696 011a 00BF     		.align	2
 697              	.L30:
 698 011c 00000000 		.word	ch_memcore
 699              		.cfi_endproc
 700              	.LFE328:
 701              		.size	chCoreGetStatusX, .-chCoreGetStatusX
 702              		.comm	ch_memcore,8,4
 703              	.Letext0:
 704              		.file 5 "/home/nicolas/arm/gcc-arm-none-eabi-8-2019-q3-update/lib/gcc/arm-none-eabi/8.3.1/include/
 705              		.file 6 "/home/nicolas/arm/gcc-arm-none-eabi-8-2019-q3-update/arm-none-eabi/include/machine/_defau
 706              		.file 7 "/home/nicolas/arm/gcc-arm-none-eabi-8-2019-q3-update/arm-none-eabi/include/sys/_stdint.h"
 707              		.file 8 "../../../external/ChibiOS/os/common/ports/ARMCMx/compilers/GCC/chtypes.h"
 708              		.file 9 "../../../external/ChibiOS/os/rt/include/chsystypes.h"
 709              		.file 10 "../../../external/ChibiOS/os/rt/include/chschd.h"
 710              		.file 11 "../../../external/ChibiOS/os/rt/include/chtime.h"
 711              		.file 12 "../../../external/ChibiOS/os/common/ext/ARM/CMSIS/Core/Include/core_cm7.h"
 712              		.file 13 "../../../external/ChibiOS/os/common/ext/ST/STM32H7xx/system_stm32h7xx.h"
 713              		.file 14 "../../../external/ChibiOS/os/common/ports/ARMCMx/chcore.h"
 714              		.file 15 "../../../external/ChibiOS/os/rt/include/chtrace.h"
 715              		.file 16 "../../../external/ChibiOS/os/rt/include/chtm.h"
 716              		.file 17 "../../../external/ChibiOS/os/rt/include/chsem.h"
 717              		.file 18 "../../../external/ChibiOS/os/rt/include/chmtx.h"
 718              		.file 19 "../../../external/ChibiOS/os/rt/include/chregistry.h"
 719              		.file 20 "../../../external/ChibiOS/os/oslib/include/chmemcore.h"
 720              		.file 21 "../../../external/ChibiOS/os/oslib/include/chmempools.h"
 721              		.file 22 "../../../external/ChibiOS/os/oslib/include/chfactory.h"