ARM GAS  /tmp/cc13s93A.s 			page 1


   1              		.cpu cortex-m7
   2              		.eabi_attribute 27, 1
   3              		.eabi_attribute 28, 1
   4              		.eabi_attribute 20, 1
   5              		.eabi_attribute 21, 1
   6              		.eabi_attribute 23, 3
   7              		.eabi_attribute 24, 1
   8              		.eabi_attribute 25, 1
   9              		.eabi_attribute 26, 1
  10              		.eabi_attribute 30, 2
  11              		.eabi_attribute 34, 1
  12              		.eabi_attribute 18, 4
  13              		.file	"chmsg.c"
  14              		.text
  15              	.Ltext0:
  16              		.cfi_sections	.debug_frame
  17              		.align	1
  18              		.p2align 4,,15
  19              		.global	chMsgSend
  20              		.arch armv7e-m
  21              		.syntax unified
  22              		.thumb
  23              		.thumb_func
  24              		.fpu fpv4-sp-d16
  25              		.type	chMsgSend, %function
  26              	chMsgSend:
  27              	.LVL0:
  28              	.LFB323:
  29              		.file 1 "../../../external/ChibiOS/os/rt/src/chmsg.c"
  30              		.loc 1 87 42 view -0
  31              		.cfi_startproc
  32              		@ args = 0, pretend = 0, frame = 0
  33              		@ frame_needed = 0, uses_anonymous_args = 0
  34              		.loc 1 88 3 view .LVU1
  35              		.loc 1 87 42 is_stmt 0 view .LVU2
  36 0000 38B5     		push	{r3, r4, r5, lr}
  37              		.cfi_def_cfa_offset 16
  38              		.cfi_offset 3, -16
  39              		.cfi_offset 4, -12
  40              		.cfi_offset 5, -8
  41              		.cfi_offset 14, -4
  42              		.loc 1 88 13 view .LVU3
  43 0002 0E4C     		ldr	r4, .L6
  44              	.LBB50:
  45              	.LBB51:
  46              	.LBB52:
  47              	.LBB53:
  48              		.file 2 "../../../external/ChibiOS/os/common/ext/ARM/CMSIS/Core/Include/cmsis_gcc.h"
  49              		.loc 2 493 3 view .LVU4
  50 0004 2022     		movs	r2, #32
  51              	.LBE53:
  52              	.LBE52:
  53              	.LBE51:
  54              	.LBE50:
  55              		.loc 1 88 13 view .LVU5
  56 0006 A469     		ldr	r4, [r4, #24]
  57              	.LVL1:
ARM GAS  /tmp/cc13s93A.s 			page 2


  58              		.loc 1 90 3 is_stmt 1 view .LVU6
  59              		.loc 1 90 3 view .LVU7
  60              		.loc 1 92 3 view .LVU8
  61              	.LBB58:
  62              	.LBI50:
  63              		.file 3 "../../../external/ChibiOS/os/rt/include/chsys.h"
  64              		.loc 3 353 20 view .LVU9
  65              	.LBE58:
  66              		.loc 3 355 3 view .LVU10
  67              	.LBB59:
  68              	.LBB56:
  69              	.LBI51:
  70              		.file 4 "../../../external/ChibiOS/os/common/ports/ARMCMx/chcore_v7m.h"
  71              		.loc 4 669 27 view .LVU11
  72              	.LBE56:
  73              	.LBE59:
  74              		.loc 4 677 3 view .LVU12
  75              	.LBB60:
  76              	.LBB57:
  77              	.LBB55:
  78              	.LBI52:
  79              		.loc 2 491 27 view .LVU13
  80              	.LBB54:
  81              		.loc 2 493 3 view .LVU14
  82              		.syntax unified
  83              	@ 493 "../../../external/ChibiOS/os/common/ext/ARM/CMSIS/Core/Include/cmsis_gcc.h" 1
  84 0008 82F31188 		MSR basepri, r2
  85              	@ 0 "" 2
  86              	.LVL2:
  87              		.loc 2 493 3 is_stmt 0 view .LVU15
  88              		.thumb
  89              		.syntax unified
  90              	.LBE54:
  91              	.LBE55:
  92              	.LBE57:
  93              	.LBE60:
  94              		.loc 3 356 34 is_stmt 1 view .LVU16
  95              		.loc 3 357 20 view .LVU17
  96              		.loc 1 93 3 view .LVU18
  97              	.LBB61:
  98              	.LBB62:
  99              		.file 5 "../../../external/ChibiOS/os/rt/include/chschd.h"
 100              		.loc 5 601 35 is_stmt 0 view .LVU19
 101 000c 026B     		ldr	r2, [r0, #48]
 102              	.LBE62:
 103              	.LBE61:
 104              		.loc 1 94 3 view .LVU20
 105 000e 00F12C05 		add	r5, r0, #44
 106              		.loc 1 93 18 view .LVU21
 107 0012 6162     		str	r1, [r4, #36]
 108              		.loc 1 94 3 is_stmt 1 view .LVU22
 109              	.LVL3:
 110              	.LBB65:
 111              	.LBI61:
 112              		.loc 5 598 20 view .LVU23
 113              	.LBB63:
 114              		.loc 5 600 3 view .LVU24
ARM GAS  /tmp/cc13s93A.s 			page 3


 115              		.loc 5 601 30 is_stmt 0 view .LVU25
 116 0014 C4E90052 		strd	r5, r2, [r4]
 117              		.loc 5 602 3 is_stmt 1 view .LVU26
 118              		.loc 5 602 30 is_stmt 0 view .LVU27
 119 0018 1460     		str	r4, [r2]
 120              		.loc 5 603 3 is_stmt 1 view .LVU28
 121              	.LBE63:
 122              	.LBE65:
 123              		.loc 1 95 6 is_stmt 0 view .LVU29
 124 001a 90F82020 		ldrb	r2, [r0, #32]	@ zero_extendqisi2
 125              	.LBB66:
 126              	.LBB64:
 127              		.loc 5 603 30 view .LVU30
 128 001e 0463     		str	r4, [r0, #48]
 129              	.LVL4:
 130              		.loc 5 603 30 view .LVU31
 131              	.LBE64:
 132              	.LBE66:
 133              		.loc 1 95 3 is_stmt 1 view .LVU32
 134              		.loc 1 95 6 is_stmt 0 view .LVU33
 135 0020 0E2A     		cmp	r2, #14
 136 0022 07D0     		beq	.L5
 137              	.LVL5:
 138              	.L2:
 139              		.loc 1 98 3 is_stmt 1 view .LVU34
 140 0024 0C20     		movs	r0, #12
 141 0026 FFF7FEFF 		bl	chSchGoSleepS
 142              	.LVL6:
 143              		.loc 1 99 3 view .LVU35
 144              		.loc 1 99 7 is_stmt 0 view .LVU36
 145 002a 606A     		ldr	r0, [r4, #36]
 146              	.LVL7:
 147              		.loc 1 100 3 is_stmt 1 view .LVU37
 148              	.LBB67:
 149              	.LBI67:
 150              		.loc 3 365 20 view .LVU38
 151              	.LBB68:
 152              		.loc 3 367 22 view .LVU39
 153              		.loc 3 368 33 view .LVU40
 154              		.loc 3 374 3 view .LVU41
 155              		.loc 3 374 3 view .LVU42
 156              		.loc 3 378 3 view .LVU43
 157              	.LBB69:
 158              	.LBI69:
 159              		.loc 4 693 27 view .LVU44
 160              	.LBE69:
 161              	.LBE68:
 162              	.LBE67:
 163              		.loc 4 696 3 view .LVU45
 164              	.LBB74:
 165              	.LBB73:
 166              	.LBB72:
 167              	.LBB70:
 168              	.LBI70:
 169              		.loc 2 491 27 view .LVU46
 170              	.LBB71:
 171              		.loc 2 493 3 view .LVU47
ARM GAS  /tmp/cc13s93A.s 			page 4


 172 002c 0023     		movs	r3, #0
 173              		.syntax unified
 174              	@ 493 "../../../external/ChibiOS/os/common/ext/ARM/CMSIS/Core/Include/cmsis_gcc.h" 1
 175 002e 83F31188 		MSR basepri, r3
 176              	@ 0 "" 2
 177              	.LVL8:
 178              		.loc 2 493 3 is_stmt 0 view .LVU48
 179              		.thumb
 180              		.syntax unified
 181              	.LBE71:
 182              	.LBE70:
 183              	.LBE72:
 184              	.LBE73:
 185              	.LBE74:
 186              		.loc 1 102 3 is_stmt 1 view .LVU49
 187              		.loc 1 103 1 is_stmt 0 view .LVU50
 188 0032 38BD     		pop	{r3, r4, r5, pc}
 189              	.LVL9:
 190              	.L5:
 191              		.loc 1 96 5 is_stmt 1 view .LVU51
 192              		.loc 1 96 12 is_stmt 0 view .LVU52
 193 0034 FFF7FEFF 		bl	chSchReadyI
 194              	.LVL10:
 195              		.loc 1 96 12 view .LVU53
 196 0038 F4E7     		b	.L2
 197              	.L7:
 198 003a 00BF     		.align	2
 199              	.L6:
 200 003c 00000000 		.word	ch
 201              		.cfi_endproc
 202              	.LFE323:
 203              		.size	chMsgSend, .-chMsgSend
 204              		.align	1
 205              		.p2align 4,,15
 206              		.global	chMsgWaitS
 207              		.syntax unified
 208              		.thumb
 209              		.thumb_func
 210              		.fpu fpv4-sp-d16
 211              		.type	chMsgWaitS, %function
 212              	chMsgWaitS:
 213              	.LFB324:
 214              		.loc 1 121 28 is_stmt 1 view -0
 215              		.cfi_startproc
 216              		@ args = 0, pretend = 0, frame = 0
 217              		@ frame_needed = 0, uses_anonymous_args = 0
 218              		.loc 1 122 3 view .LVU55
 219              		.loc 1 124 21 view .LVU56
 220              		.loc 1 126 3 view .LVU57
 221              		.loc 1 121 28 is_stmt 0 view .LVU58
 222 0040 38B5     		push	{r3, r4, r5, lr}
 223              		.cfi_def_cfa_offset 16
 224              		.cfi_offset 3, -16
 225              		.cfi_offset 4, -12
 226              		.cfi_offset 5, -8
 227              		.cfi_offset 14, -4
 228              		.loc 1 126 8 view .LVU59
ARM GAS  /tmp/cc13s93A.s 			page 5


 229 0042 0B4C     		ldr	r4, .L12
 230 0044 A169     		ldr	r1, [r4, #24]
 231              	.LVL11:
 232              	.LBB75:
 233              	.LBI75:
 234              		.file 6 "../../../external/ChibiOS/os/rt/include/chmsg.h"
 235              		.loc 6 167 20 is_stmt 1 view .LVU60
 236              	.LBB76:
 237              		.loc 6 169 21 view .LVU61
 238              		.loc 6 171 3 view .LVU62
 239              		.loc 6 171 29 is_stmt 0 view .LVU63
 240 0046 0A46     		mov	r2, r1
 241 0048 52F82C3F 		ldr	r3, [r2, #44]!
 242              	.LVL12:
 243              		.loc 6 171 29 view .LVU64
 244              	.LBE76:
 245              	.LBE75:
 246              		.loc 1 126 6 view .LVU65
 247 004c 9342     		cmp	r3, r2
 248 004e 07D0     		beq	.L11
 249              	.L9:
 250              		.loc 1 129 3 is_stmt 1 view .LVU66
 251              	.LVL13:
 252              	.LBB77:
 253              	.LBI77:
 254              		.loc 5 606 25 view .LVU67
 255              	.LBB78:
 256              		.loc 5 607 3 view .LVU68
 257              		.loc 5 609 3 view .LVU69
 258              		.loc 5 609 36 is_stmt 0 view .LVU70
 259 0050 1C68     		ldr	r4, [r3]
 260              	.LBE78:
 261              	.LBE77:
 262              		.loc 1 130 13 view .LVU71
 263 0052 0D25     		movs	r5, #13
 264              		.loc 1 133 1 view .LVU72
 265 0054 1846     		mov	r0, r3
 266              	.LBB80:
 267              	.LBB79:
 268              		.loc 5 609 25 view .LVU73
 269 0056 CC62     		str	r4, [r1, #44]
 270              	.LVL14:
 271              		.loc 5 610 3 is_stmt 1 view .LVU74
 272              		.loc 5 610 25 is_stmt 0 view .LVU75
 273 0058 6260     		str	r2, [r4, #4]
 274              		.loc 5 612 3 is_stmt 1 view .LVU76
 275              	.LVL15:
 276              		.loc 5 612 3 is_stmt 0 view .LVU77
 277              	.LBE79:
 278              	.LBE80:
 279              		.loc 1 130 3 is_stmt 1 view .LVU78
 280              		.loc 1 130 13 is_stmt 0 view .LVU79
 281 005a 83F82050 		strb	r5, [r3, #32]
 282              		.loc 1 132 3 is_stmt 1 view .LVU80
 283              		.loc 1 133 1 is_stmt 0 view .LVU81
 284 005e 38BD     		pop	{r3, r4, r5, pc}
 285              	.L11:
ARM GAS  /tmp/cc13s93A.s 			page 6


 286              		.loc 1 127 5 is_stmt 1 view .LVU82
 287 0060 0E20     		movs	r0, #14
 288 0062 FFF7FEFF 		bl	chSchGoSleepS
 289              	.LVL16:
 290 0066 A169     		ldr	r1, [r4, #24]
 291 0068 01F12C02 		add	r2, r1, #44
 292 006c CB6A     		ldr	r3, [r1, #44]
 293 006e EFE7     		b	.L9
 294              	.L13:
 295              		.align	2
 296              	.L12:
 297 0070 00000000 		.word	ch
 298              		.cfi_endproc
 299              	.LFE324:
 300              		.size	chMsgWaitS, .-chMsgWaitS
 301              		.align	1
 302 0074 AFF30080 		.p2align 4,,15
 302      AFF30080 
 302      AFF30080 
 303              		.global	chMsgWaitTimeoutS
 304              		.syntax unified
 305              		.thumb
 306              		.thumb_func
 307              		.fpu fpv4-sp-d16
 308              		.type	chMsgWaitTimeoutS, %function
 309              	chMsgWaitTimeoutS:
 310              	.LVL17:
 311              	.LFB325:
 312              		.loc 1 157 52 view -0
 313              		.cfi_startproc
 314              		@ args = 0, pretend = 0, frame = 0
 315              		@ frame_needed = 0, uses_anonymous_args = 0
 316              		.loc 1 158 3 view .LVU84
 317              		.loc 1 160 21 view .LVU85
 318              		.loc 1 162 3 view .LVU86
 319              		.loc 1 157 52 is_stmt 0 view .LVU87
 320 0080 38B5     		push	{r3, r4, r5, lr}
 321              		.cfi_def_cfa_offset 16
 322              		.cfi_offset 3, -16
 323              		.cfi_offset 4, -12
 324              		.cfi_offset 5, -8
 325              		.cfi_offset 14, -4
 326              		.loc 1 162 8 view .LVU88
 327 0082 0D4D     		ldr	r5, .L20
 328 0084 AC69     		ldr	r4, [r5, #24]
 329              	.LVL18:
 330              	.LBB81:
 331              	.LBI81:
 332              		.loc 6 167 20 is_stmt 1 view .LVU89
 333              	.LBB82:
 334              		.loc 6 169 21 view .LVU90
 335              		.loc 6 171 3 view .LVU91
 336              		.loc 6 171 29 is_stmt 0 view .LVU92
 337 0086 2346     		mov	r3, r4
 338 0088 53F82C2F 		ldr	r2, [r3, #44]!
 339              	.LVL19:
 340              		.loc 6 171 29 view .LVU93
ARM GAS  /tmp/cc13s93A.s 			page 7


 341              	.LBE82:
 342              	.LBE81:
 343              		.loc 1 162 6 view .LVU94
 344 008c 9A42     		cmp	r2, r3
 345 008e 07D0     		beq	.L19
 346              	.LVL20:
 347              	.L15:
 348              		.loc 1 167 3 is_stmt 1 view .LVU95
 349              	.LBB83:
 350              	.LBI83:
 351              		.loc 5 606 25 view .LVU96
 352              	.LBB84:
 353              		.loc 5 607 3 view .LVU97
 354              		.loc 5 609 3 view .LVU98
 355              		.loc 5 609 36 is_stmt 0 view .LVU99
 356 0090 1168     		ldr	r1, [r2]
 357              	.LBE84:
 358              	.LBE83:
 359              		.loc 1 168 13 view .LVU100
 360 0092 0D20     		movs	r0, #13
 361              	.LBB86:
 362              	.LBB85:
 363              		.loc 5 609 25 view .LVU101
 364 0094 E162     		str	r1, [r4, #44]
 365              	.LVL21:
 366              		.loc 5 610 3 is_stmt 1 view .LVU102
 367              		.loc 5 610 25 is_stmt 0 view .LVU103
 368 0096 4B60     		str	r3, [r1, #4]
 369              		.loc 5 612 3 is_stmt 1 view .LVU104
 370              	.LVL22:
 371              		.loc 5 612 3 is_stmt 0 view .LVU105
 372              	.LBE85:
 373              	.LBE86:
 374              		.loc 1 168 3 is_stmt 1 view .LVU106
 375              		.loc 1 168 13 is_stmt 0 view .LVU107
 376 0098 82F82000 		strb	r0, [r2, #32]
 377              		.loc 1 170 3 is_stmt 1 view .LVU108
 378              	.L14:
 379              		.loc 1 171 1 is_stmt 0 view .LVU109
 380 009c 1046     		mov	r0, r2
 381 009e 38BD     		pop	{r3, r4, r5, pc}
 382              	.LVL23:
 383              	.L19:
 384              		.loc 1 163 5 is_stmt 1 view .LVU110
 385 00a0 0146     		mov	r1, r0
 386              		.loc 1 163 9 is_stmt 0 view .LVU111
 387 00a2 0E20     		movs	r0, #14
 388              	.LVL24:
 389              		.loc 1 163 9 view .LVU112
 390 00a4 FFF7FEFF 		bl	chSchGoSleepTimeoutS
 391              	.LVL25:
 392              		.loc 1 163 8 view .LVU113
 393 00a8 20B9     		cbnz	r0, .L17
 394 00aa AC69     		ldr	r4, [r5, #24]
 395 00ac 04F12C03 		add	r3, r4, #44
 396 00b0 E26A     		ldr	r2, [r4, #44]
 397 00b2 EDE7     		b	.L15
ARM GAS  /tmp/cc13s93A.s 			page 8


 398              	.L17:
 399              		.loc 1 164 14 view .LVU114
 400 00b4 0022     		movs	r2, #0
 401 00b6 F1E7     		b	.L14
 402              	.L21:
 403              		.align	2
 404              	.L20:
 405 00b8 00000000 		.word	ch
 406              		.cfi_endproc
 407              	.LFE325:
 408              		.size	chMsgWaitTimeoutS, .-chMsgWaitTimeoutS
 409              		.align	1
 410 00bc AFF30080 		.p2align 4,,15
 411              		.global	chMsgPollS
 412              		.syntax unified
 413              		.thumb
 414              		.thumb_func
 415              		.fpu fpv4-sp-d16
 416              		.type	chMsgPollS, %function
 417              	chMsgPollS:
 418              	.LFB326:
 419              		.loc 1 190 28 is_stmt 1 view -0
 420              		.cfi_startproc
 421              		@ args = 0, pretend = 0, frame = 0
 422              		@ frame_needed = 0, uses_anonymous_args = 0
 423              		@ link register save eliminated.
 424              		.loc 1 191 3 view .LVU116
 425              	.LVL26:
 426              		.loc 1 193 3 view .LVU117
 427              		.loc 1 193 7 is_stmt 0 view .LVU118
 428 00c0 094B     		ldr	r3, .L29
 429 00c2 9A69     		ldr	r2, [r3, #24]
 430              	.LVL27:
 431              	.LBB87:
 432              	.LBI87:
 433              		.loc 6 167 20 is_stmt 1 view .LVU119
 434              	.LBB88:
 435              		.loc 6 169 21 view .LVU120
 436              		.loc 6 171 3 view .LVU121
 437              		.loc 6 171 29 is_stmt 0 view .LVU122
 438 00c4 1346     		mov	r3, r2
 439 00c6 53F82C0F 		ldr	r0, [r3, #44]!
 440              	.LVL28:
 441              		.loc 6 171 29 view .LVU123
 442              	.LBE88:
 443              	.LBE87:
 444              		.loc 1 193 6 view .LVU124
 445 00ca 9842     		cmp	r0, r3
 446 00cc 09D0     		beq	.L24
 447              		.loc 1 194 5 is_stmt 1 view .LVU125
 448              	.LVL29:
 449              	.LBB89:
 450              	.LBI89:
 451              		.loc 5 606 25 view .LVU126
 452              	.LBB90:
 453              		.loc 5 607 3 view .LVU127
 454              		.loc 5 609 3 view .LVU128
ARM GAS  /tmp/cc13s93A.s 			page 9


 455              		.loc 5 609 36 is_stmt 0 view .LVU129
 456 00ce 0168     		ldr	r1, [r0]
 457              	.LBE90:
 458              	.LBE89:
 459              		.loc 1 190 28 view .LVU130
 460 00d0 10B4     		push	{r4}
 461              		.cfi_def_cfa_offset 4
 462              		.cfi_offset 4, -4
 463              		.loc 1 195 15 view .LVU131
 464 00d2 0D24     		movs	r4, #13
 465              	.LBB92:
 466              	.LBB91:
 467              		.loc 5 609 25 view .LVU132
 468 00d4 D162     		str	r1, [r2, #44]
 469              		.loc 5 610 3 is_stmt 1 view .LVU133
 470              		.loc 5 610 25 is_stmt 0 view .LVU134
 471 00d6 4B60     		str	r3, [r1, #4]
 472              		.loc 5 612 3 is_stmt 1 view .LVU135
 473              	.LVL30:
 474              		.loc 5 612 3 is_stmt 0 view .LVU136
 475              	.LBE91:
 476              	.LBE92:
 477              		.loc 1 195 5 is_stmt 1 view .LVU137
 478              		.loc 1 195 15 is_stmt 0 view .LVU138
 479 00d8 80F82040 		strb	r4, [r0, #32]
 480              		.loc 1 199 1 view .LVU139
 481 00dc 5DF8044B 		ldr	r4, [sp], #4
 482              		.cfi_restore 4
 483              		.cfi_def_cfa_offset 0
 484 00e0 7047     		bx	lr
 485              	.LVL31:
 486              	.L24:
 487              		.loc 1 191 13 view .LVU140
 488 00e2 0020     		movs	r0, #0
 489              		.loc 1 198 3 is_stmt 1 view .LVU141
 490              		.loc 1 199 1 is_stmt 0 view .LVU142
 491 00e4 7047     		bx	lr
 492              	.L30:
 493 00e6 00BF     		.align	2
 494              	.L29:
 495 00e8 00000000 		.word	ch
 496              		.cfi_endproc
 497              	.LFE326:
 498              		.size	chMsgPollS, .-chMsgPollS
 499              		.align	1
 500 00ec AFF30080 		.p2align 4,,15
 501              		.global	chMsgRelease
 502              		.syntax unified
 503              		.thumb
 504              		.thumb_func
 505              		.fpu fpv4-sp-d16
 506              		.type	chMsgRelease, %function
 507              	chMsgRelease:
 508              	.LVL32:
 509              	.LFB327:
 510              		.loc 1 211 44 is_stmt 1 view -0
 511              		.cfi_startproc
ARM GAS  /tmp/cc13s93A.s 			page 10


 512              		@ args = 0, pretend = 0, frame = 0
 513              		@ frame_needed = 0, uses_anonymous_args = 0
 514              		.loc 1 213 3 view .LVU144
 515              	.LBB93:
 516              	.LBI93:
 517              		.loc 3 353 20 view .LVU145
 518              	.LBE93:
 519              		.loc 3 355 3 view .LVU146
 520              	.LBB101:
 521              	.LBB94:
 522              	.LBI94:
 523              		.loc 4 669 27 view .LVU147
 524              	.LBE94:
 525              	.LBE101:
 526              		.loc 4 677 3 view .LVU148
 527              	.LBB102:
 528              	.LBB99:
 529              	.LBB95:
 530              	.LBI95:
 531              		.loc 2 491 27 view .LVU149
 532              	.LBB96:
 533              		.loc 2 493 3 view .LVU150
 534              	.LBE96:
 535              	.LBE95:
 536              	.LBE99:
 537              	.LBE102:
 538              		.loc 1 211 44 is_stmt 0 view .LVU151
 539 00f0 08B5     		push	{r3, lr}
 540              		.cfi_def_cfa_offset 8
 541              		.cfi_offset 3, -8
 542              		.cfi_offset 14, -4
 543              	.LBB103:
 544              	.LBB100:
 545              	.LBB98:
 546              	.LBB97:
 547              		.loc 2 493 3 view .LVU152
 548 00f2 2023     		movs	r3, #32
 549              		.syntax unified
 550              	@ 493 "../../../external/ChibiOS/os/common/ext/ARM/CMSIS/Core/Include/cmsis_gcc.h" 1
 551 00f4 83F31188 		MSR basepri, r3
 552              	@ 0 "" 2
 553              	.LVL33:
 554              		.loc 2 493 3 view .LVU153
 555              		.thumb
 556              		.syntax unified
 557              	.LBE97:
 558              	.LBE98:
 559              	.LBE100:
 560              	.LBE103:
 561              		.loc 3 356 34 is_stmt 1 view .LVU154
 562              		.loc 3 357 20 view .LVU155
 563              		.loc 1 214 3 view .LVU156
 564              		.loc 1 214 3 view .LVU157
 565              		.loc 1 215 3 view .LVU158
 566              	.LBB104:
 567              	.LBI104:
 568              		.loc 6 201 20 view .LVU159
ARM GAS  /tmp/cc13s93A.s 			page 11


 569              	.LBB105:
 570              		.loc 6 203 21 view .LVU160
 571              		.loc 6 205 3 view .LVU161
 572 00f8 FFF7FEFF 		bl	chSchWakeupS
 573              	.LVL34:
 574              		.loc 6 205 3 is_stmt 0 view .LVU162
 575              	.LBE105:
 576              	.LBE104:
 577              		.loc 1 216 3 is_stmt 1 view .LVU163
 578              	.LBB106:
 579              	.LBI106:
 580              		.loc 3 365 20 view .LVU164
 581              	.LBB107:
 582              		.loc 3 367 22 view .LVU165
 583              		.loc 3 368 33 view .LVU166
 584              		.loc 3 374 3 view .LVU167
 585              		.loc 3 374 3 view .LVU168
 586              		.loc 3 378 3 view .LVU169
 587              	.LBB108:
 588              	.LBI108:
 589              		.loc 4 693 27 view .LVU170
 590              	.LBE108:
 591              	.LBE107:
 592              	.LBE106:
 593              		.loc 4 696 3 view .LVU171
 594              	.LBB113:
 595              	.LBB112:
 596              	.LBB111:
 597              	.LBB109:
 598              	.LBI109:
 599              		.loc 2 491 27 view .LVU172
 600              	.LBB110:
 601              		.loc 2 493 3 view .LVU173
 602 00fc 0023     		movs	r3, #0
 603              		.syntax unified
 604              	@ 493 "../../../external/ChibiOS/os/common/ext/ARM/CMSIS/Core/Include/cmsis_gcc.h" 1
 605 00fe 83F31188 		MSR basepri, r3
 606              	@ 0 "" 2
 607              	.LVL35:
 608              		.loc 2 493 3 is_stmt 0 view .LVU174
 609              		.thumb
 610              		.syntax unified
 611              	.LBE110:
 612              	.LBE109:
 613              	.LBE111:
 614              	.LBE112:
 615              	.LBE113:
 616              		.loc 1 217 1 view .LVU175
 617 0102 08BD     		pop	{r3, pc}
 618              		.cfi_endproc
 619              	.LFE327:
 620              		.size	chMsgRelease, .-chMsgRelease
 621              	.Letext0:
 622              		.file 7 "/home/nicolas/arm/gcc-arm-none-eabi-8-2019-q3-update/lib/gcc/arm-none-eabi/8.3.1/include/
 623              		.file 8 "/home/nicolas/arm/gcc-arm-none-eabi-8-2019-q3-update/arm-none-eabi/include/machine/_defau
 624              		.file 9 "/home/nicolas/arm/gcc-arm-none-eabi-8-2019-q3-update/arm-none-eabi/include/sys/_stdint.h"
 625              		.file 10 "../../../external/ChibiOS/os/common/ports/ARMCMx/compilers/GCC/chtypes.h"
ARM GAS  /tmp/cc13s93A.s 			page 12


 626              		.file 11 "../../../external/ChibiOS/os/rt/include/chsystypes.h"
 627              		.file 12 "../../../external/ChibiOS/os/rt/include/chtime.h"
 628              		.file 13 "../../../external/ChibiOS/os/common/ext/ARM/CMSIS/Core/Include/core_cm7.h"
 629              		.file 14 "../../../external/ChibiOS/os/common/ext/ST/STM32H7xx/system_stm32h7xx.h"
 630              		.file 15 "../../../external/ChibiOS/os/common/ports/ARMCMx/chcore.h"
 631              		.file 16 "../../../external/ChibiOS/os/rt/include/chtrace.h"
 632              		.file 17 "../../../external/ChibiOS/os/rt/include/chtm.h"
 633              		.file 18 "../../../external/ChibiOS/os/rt/include/chsem.h"
 634              		.file 19 "../../../external/ChibiOS/os/rt/include/chmtx.h"
 635              		.file 20 "../../../external/ChibiOS/os/rt/include/chregistry.h"
 636              		.file 21 "../../../external/ChibiOS/os/oslib/include/chmemcore.h"
 637              		.file 22 "../../../external/ChibiOS/os/oslib/include/chmempools.h"
 638              		.file 23 "../../../external/ChibiOS/os/oslib/include/chfactory.h"