ARM GAS  /tmp/ccSpVBUk.s 			page 1


   1              		.cpu cortex-m7
   2              		.eabi_attribute 27, 1
   3              		.eabi_attribute 28, 1
   4              		.eabi_attribute 20, 1
   5              		.eabi_attribute 21, 1
   6              		.eabi_attribute 23, 3
   7              		.eabi_attribute 24, 1
   8              		.eabi_attribute 25, 1
   9              		.eabi_attribute 26, 1
  10              		.eabi_attribute 30, 2
  11              		.eabi_attribute 34, 1
  12              		.eabi_attribute 18, 4
  13              		.file	"chmtx.c"
  14              		.text
  15              	.Ltext0:
  16              		.cfi_sections	.debug_frame
  17              		.align	1
  18              		.p2align 4,,15
  19              		.global	chMtxObjectInit
  20              		.arch armv7e-m
  21              		.syntax unified
  22              		.thumb
  23              		.thumb_func
  24              		.fpu fpv4-sp-d16
  25              		.type	chMtxObjectInit, %function
  26              	chMtxObjectInit:
  27              	.LVL0:
  28              	.LFB323:
  29              		.file 1 "../../../external/ChibiOS/os/rt/src/chmtx.c"
  30              		.loc 1 103 35 view -0
  31              		.cfi_startproc
  32              		@ args = 0, pretend = 0, frame = 0
  33              		@ frame_needed = 0, uses_anonymous_args = 0
  34              		@ link register save eliminated.
  35              		.loc 1 105 3 view .LVU1
  36              		.loc 1 105 3 view .LVU2
  37              		.loc 1 107 3 view .LVU3
  38              	.LBB103:
  39              	.LBI103:
  40              		.file 2 "../../../external/ChibiOS/os/rt/include/chschd.h"
  41              		.loc 2 537 20 view .LVU4
  42              	.LBB104:
  43              		.loc 2 539 3 view .LVU5
  44              	.LBE104:
  45              	.LBE103:
  46              		.loc 1 108 13 is_stmt 0 view .LVU6
  47 0000 0023     		movs	r3, #0
  48              	.LBB106:
  49              	.LBB105:
  50              		.loc 2 540 13 view .LVU7
  51 0002 C0E90000 		strd	r0, r0, [r0]
  52              	.LVL1:
  53              		.loc 2 540 13 view .LVU8
  54              	.LBE105:
  55              	.LBE106:
  56              		.loc 1 108 3 is_stmt 1 view .LVU9
  57              		.loc 1 108 13 is_stmt 0 view .LVU10
ARM GAS  /tmp/ccSpVBUk.s 			page 2


  58 0006 8360     		str	r3, [r0, #8]
  59              		.loc 1 112 1 view .LVU11
  60 0008 7047     		bx	lr
  61              		.cfi_endproc
  62              	.LFE323:
  63              		.size	chMtxObjectInit, .-chMtxObjectInit
  64              		.align	1
  65 000a 00BFAFF3 		.p2align 4,,15
  65      0080
  66              		.global	chMtxLockS
  67              		.syntax unified
  68              		.thumb
  69              		.thumb_func
  70              		.fpu fpv4-sp-d16
  71              		.type	chMtxLockS, %function
  72              	chMtxLockS:
  73              	.LVL2:
  74              	.LFB325:
  75              		.loc 1 139 30 is_stmt 1 view -0
  76              		.cfi_startproc
  77              		@ args = 0, pretend = 0, frame = 0
  78              		@ frame_needed = 0, uses_anonymous_args = 0
  79              		.loc 1 140 3 view .LVU13
  80              		.loc 1 139 30 is_stmt 0 view .LVU14
  81 0010 F8B5     		push	{r3, r4, r5, r6, r7, lr}
  82              		.cfi_def_cfa_offset 24
  83              		.cfi_offset 3, -24
  84              		.cfi_offset 4, -20
  85              		.cfi_offset 5, -16
  86              		.cfi_offset 6, -12
  87              		.cfi_offset 7, -8
  88              		.cfi_offset 14, -4
  89              		.loc 1 146 9 view .LVU15
  90 0012 8268     		ldr	r2, [r0, #8]
  91              		.loc 1 140 13 view .LVU16
  92 0014 2D4B     		ldr	r3, .L30
  93 0016 9C69     		ldr	r4, [r3, #24]
  94              	.LVL3:
  95              		.loc 1 142 21 is_stmt 1 view .LVU17
  96              		.loc 1 143 3 view .LVU18
  97              		.loc 1 143 3 view .LVU19
  98              		.loc 1 146 3 view .LVU20
  99              		.loc 1 146 6 is_stmt 0 view .LVU21
 100 0018 42B3     		cbz	r2, .L25
 101              	.LBB107:
 102              		.loc 1 165 28 view .LVU22
 103 001a A168     		ldr	r1, [r4, #8]
 104 001c 0546     		mov	r5, r0
 105              	.LVL4:
 106              		.loc 1 165 13 view .LVU23
 107 001e 9368     		ldr	r3, [r2, #8]
 108 0020 8B42     		cmp	r3, r1
 109 0022 07D2     		bcs	.L9
 110              	.LVL5:
 111              	.L12:
 112              		.loc 1 167 9 is_stmt 1 view .LVU24
 113              		.loc 1 170 19 is_stmt 0 view .LVU25
ARM GAS  /tmp/ccSpVBUk.s 			page 3


 114 0024 92F82030 		ldrb	r3, [r2, #32]	@ zero_extendqisi2
 115              		.loc 1 167 18 view .LVU26
 116 0028 9160     		str	r1, [r2, #8]
 117              		.loc 1 170 9 is_stmt 1 view .LVU27
 118 002a 062B     		cmp	r3, #6
 119 002c 36D0     		beq	.L6
 120              		.loc 1 170 9 is_stmt 0 view .LVU28
 121 002e 072B     		cmp	r3, #7
 122 0030 21D0     		beq	.L7
 123 0032 9BB1     		cbz	r3, .L26
 124              	.LVL6:
 125              	.L9:
 126              		.loc 1 212 7 is_stmt 1 view .LVU29
 127              	.LBB108:
 128              	.LBI108:
 129              		.loc 2 586 20 view .LVU30
 130              	.LBB109:
 131              		.loc 2 588 3 view .LVU31
 132              		.loc 2 588 13 is_stmt 0 view .LVU32
 133 0034 2B46     		mov	r3, r5
 134 0036 03E0     		b	.L17
 135              	.LVL7:
 136              	.L27:
 137              		.loc 2 591 36 view .LVU33
 138 0038 9968     		ldr	r1, [r3, #8]
 139 003a A268     		ldr	r2, [r4, #8]
 140 003c 9142     		cmp	r1, r2
 141 003e 02D3     		bcc	.L16
 142              	.L17:
 143              		.loc 2 589 3 is_stmt 1 view .LVU34
 144              		.loc 2 590 5 view .LVU35
 145              		.loc 2 590 8 is_stmt 0 view .LVU36
 146 0040 1B68     		ldr	r3, [r3]
 147              	.LVL8:
 148              		.loc 2 591 3 view .LVU37
 149 0042 9D42     		cmp	r5, r3
 150 0044 F8D1     		bne	.L27
 151              	.L16:
 152              		.loc 2 592 3 is_stmt 1 view .LVU38
 153              		.loc 2 593 41 is_stmt 0 view .LVU39
 154 0046 5A68     		ldr	r2, [r3, #4]
 155              	.LBE109:
 156              	.LBE108:
 157              		.loc 1 214 7 view .LVU40
 158 0048 0620     		movs	r0, #6
 159              	.LBB111:
 160              	.LBB110:
 161              		.loc 2 593 30 view .LVU41
 162 004a C4E90032 		strd	r3, r2, [r4]
 163              		.loc 2 594 3 is_stmt 1 view .LVU42
 164              		.loc 2 594 30 is_stmt 0 view .LVU43
 165 004e 1460     		str	r4, [r2]
 166              		.loc 2 595 3 is_stmt 1 view .LVU44
 167              		.loc 2 595 30 is_stmt 0 view .LVU45
 168 0050 5C60     		str	r4, [r3, #4]
 169              	.LVL9:
 170              		.loc 2 595 30 view .LVU46
ARM GAS  /tmp/ccSpVBUk.s 			page 4


 171              	.LBE110:
 172              	.LBE111:
 173              		.loc 1 213 7 is_stmt 1 view .LVU47
 174              		.loc 1 213 21 is_stmt 0 view .LVU48
 175 0052 6562     		str	r5, [r4, #36]
 176              		.loc 1 214 7 is_stmt 1 view .LVU49
 177              	.LBE107:
 178              		.loc 1 236 1 is_stmt 0 view .LVU50
 179 0054 BDE8F840 		pop	{r3, r4, r5, r6, r7, lr}
 180              		.cfi_remember_state
 181              		.cfi_restore 14
 182              		.cfi_restore 7
 183              		.cfi_restore 6
 184              		.cfi_restore 5
 185              		.cfi_restore 4
 186              		.cfi_restore 3
 187              		.cfi_def_cfa_offset 0
 188              	.LVL10:
 189              	.LBB136:
 190              		.loc 1 214 7 view .LVU51
 191 0058 FFF7FEBF 		b	chSchGoSleepS
 192              	.LVL11:
 193              	.L26:
 194              		.cfi_restore_state
 195              		.loc 1 202 11 is_stmt 1 view .LVU52
 196              	.LBB112:
 197              	.LBI112:
 198              		.loc 2 624 25 view .LVU53
 199              	.LBB113:
 200              		.loc 2 626 3 view .LVU54
 201              		.loc 2 626 12 is_stmt 0 view .LVU55
 202 005c 5168     		ldr	r1, [r2, #4]
 203              	.LBE113:
 204              	.LBE112:
 205              		.loc 1 202 18 view .LVU56
 206 005e 1046     		mov	r0, r2
 207              	.LBB115:
 208              	.LBB114:
 209              		.loc 2 626 41 view .LVU57
 210 0060 1368     		ldr	r3, [r2]
 211              		.loc 2 626 30 view .LVU58
 212 0062 0B60     		str	r3, [r1]
 213              		.loc 2 627 3 is_stmt 1 view .LVU59
 214              		.loc 2 627 30 is_stmt 0 view .LVU60
 215 0064 5960     		str	r1, [r3, #4]
 216              		.loc 2 629 3 is_stmt 1 view .LVU61
 217              	.LVL12:
 218              		.loc 2 629 3 is_stmt 0 view .LVU62
 219              	.LBE114:
 220              	.LBE115:
 221              		.loc 1 202 18 view .LVU63
 222 0066 FFF7FEFF 		bl	chSchReadyI
 223              	.LVL13:
 224              		.loc 1 203 11 is_stmt 1 view .LVU64
 225 006a E3E7     		b	.L9
 226              	.LVL14:
 227              	.L25:
ARM GAS  /tmp/ccSpVBUk.s 			page 5


 228              		.loc 1 203 11 is_stmt 0 view .LVU65
 229              	.LBE136:
 230              		.loc 1 232 5 is_stmt 1 view .LVU66
 231              		.loc 1 233 14 is_stmt 0 view .LVU67
 232 006c A36B     		ldr	r3, [r4, #56]
 233 006e C0E90243 		strd	r4, r3, [r0, #8]
 234              		.loc 1 234 5 is_stmt 1 view .LVU68
 235              		.loc 1 234 18 is_stmt 0 view .LVU69
 236 0072 A063     		str	r0, [r4, #56]
 237              		.loc 1 236 1 view .LVU70
 238 0074 F8BD     		pop	{r3, r4, r5, r6, r7, pc}
 239              	.LVL15:
 240              	.L7:
 241              	.LBB137:
 242              		.loc 1 193 11 is_stmt 1 view .LVU71
 243              	.LBB116:
 244              	.LBI116:
 245              		.loc 2 624 25 view .LVU72
 246              	.LBB117:
 247              		.loc 2 626 3 view .LVU73
 248              	.LBE117:
 249              	.LBE116:
 250              		.loc 1 193 11 is_stmt 0 view .LVU74
 251 0076 566A     		ldr	r6, [r2, #36]
 252              	.LBB120:
 253              	.LBB118:
 254              		.loc 2 626 41 view .LVU75
 255 0078 D2E90007 		ldrd	r0, r7, [r2]
 256              	.LBE118:
 257              	.LBE120:
 258              	.LBB121:
 259              	.LBB122:
 260              		.loc 2 588 13 view .LVU76
 261 007c 3346     		mov	r3, r6
 262              	.LBE122:
 263              	.LBE121:
 264              	.LBB124:
 265              	.LBB119:
 266              		.loc 2 626 30 view .LVU77
 267 007e 3860     		str	r0, [r7]
 268              		.loc 2 627 3 is_stmt 1 view .LVU78
 269              		.loc 2 627 30 is_stmt 0 view .LVU79
 270 0080 4760     		str	r7, [r0, #4]
 271              		.loc 2 629 3 is_stmt 1 view .LVU80
 272              	.LVL16:
 273              		.loc 2 629 3 is_stmt 0 view .LVU81
 274              	.LBE119:
 275              	.LBE124:
 276              	.LBB125:
 277              	.LBI121:
 278              		.loc 2 586 20 is_stmt 1 view .LVU82
 279 0082 02E0     		b	.L14
 280              	.LVL17:
 281              	.L28:
 282              	.LBB123:
 283              		.loc 2 591 36 is_stmt 0 view .LVU83
 284 0084 9868     		ldr	r0, [r3, #8]
ARM GAS  /tmp/ccSpVBUk.s 			page 6


 285 0086 8142     		cmp	r1, r0
 286 0088 02D8     		bhi	.L13
 287              	.LVL18:
 288              	.L14:
 289              		.loc 2 589 3 is_stmt 1 view .LVU84
 290              		.loc 2 590 5 view .LVU85
 291              		.loc 2 590 8 is_stmt 0 view .LVU86
 292 008a 1B68     		ldr	r3, [r3]
 293              	.LVL19:
 294              		.loc 2 591 3 view .LVU87
 295 008c 9E42     		cmp	r6, r3
 296 008e F9D1     		bne	.L28
 297              	.L13:
 298              		.loc 2 592 3 is_stmt 1 view .LVU88
 299              		.loc 2 593 41 is_stmt 0 view .LVU89
 300 0090 5968     		ldr	r1, [r3, #4]
 301              		.loc 2 593 30 view .LVU90
 302 0092 C2E90031 		strd	r3, r1, [r2]
 303              		.loc 2 594 3 is_stmt 1 view .LVU91
 304              		.loc 2 594 30 is_stmt 0 view .LVU92
 305 0096 0A60     		str	r2, [r1]
 306              		.loc 2 595 3 is_stmt 1 view .LVU93
 307              		.loc 2 595 30 is_stmt 0 view .LVU94
 308 0098 5A60     		str	r2, [r3, #4]
 309 009a CBE7     		b	.L9
 310              	.LVL20:
 311              	.L6:
 312              		.loc 2 595 30 view .LVU95
 313              	.LBE123:
 314              	.LBE125:
 315              		.loc 1 173 11 is_stmt 1 view .LVU96
 316              	.LBB126:
 317              	.LBI126:
 318              		.loc 2 624 25 view .LVU97
 319              	.LBB127:
 320              		.loc 2 626 3 view .LVU98
 321              	.LBE127:
 322              	.LBE126:
 323              		.loc 1 173 54 is_stmt 0 view .LVU99
 324 009c 566A     		ldr	r6, [r2, #36]
 325              	.LBB130:
 326              	.LBB128:
 327              		.loc 2 626 41 view .LVU100
 328 009e D2E90007 		ldrd	r0, r7, [r2]
 329              	.LBE128:
 330              	.LBE130:
 331              	.LBB131:
 332              	.LBB132:
 333              		.loc 2 588 13 view .LVU101
 334 00a2 3346     		mov	r3, r6
 335              	.LBE132:
 336              	.LBE131:
 337              	.LBB134:
 338              	.LBB129:
 339              		.loc 2 626 30 view .LVU102
 340 00a4 3860     		str	r0, [r7]
 341              		.loc 2 627 3 is_stmt 1 view .LVU103
ARM GAS  /tmp/ccSpVBUk.s 			page 7


 342              		.loc 2 627 30 is_stmt 0 view .LVU104
 343 00a6 4760     		str	r7, [r0, #4]
 344              		.loc 2 629 3 is_stmt 1 view .LVU105
 345              	.LVL21:
 346              		.loc 2 629 3 is_stmt 0 view .LVU106
 347              	.LBE129:
 348              	.LBE134:
 349              	.LBB135:
 350              	.LBI131:
 351              		.loc 2 586 20 is_stmt 1 view .LVU107
 352 00a8 02E0     		b	.L11
 353              	.LVL22:
 354              	.L29:
 355              	.LBB133:
 356              		.loc 2 591 36 is_stmt 0 view .LVU108
 357 00aa 9868     		ldr	r0, [r3, #8]
 358 00ac 8142     		cmp	r1, r0
 359 00ae 02D8     		bhi	.L10
 360              	.LVL23:
 361              	.L11:
 362              		.loc 2 589 3 is_stmt 1 view .LVU109
 363              		.loc 2 590 5 view .LVU110
 364              		.loc 2 590 8 is_stmt 0 view .LVU111
 365 00b0 1B68     		ldr	r3, [r3]
 366              	.LVL24:
 367              		.loc 2 591 3 view .LVU112
 368 00b2 9E42     		cmp	r6, r3
 369 00b4 F9D1     		bne	.L29
 370              	.L10:
 371              		.loc 2 592 3 is_stmt 1 view .LVU113
 372              		.loc 2 593 41 is_stmt 0 view .LVU114
 373 00b6 5968     		ldr	r1, [r3, #4]
 374              		.loc 2 593 30 view .LVU115
 375 00b8 C2E90031 		strd	r3, r1, [r2]
 376              		.loc 2 594 3 is_stmt 1 view .LVU116
 377              		.loc 2 594 30 is_stmt 0 view .LVU117
 378 00bc 0A60     		str	r2, [r1]
 379              		.loc 2 595 3 is_stmt 1 view .LVU118
 380              		.loc 2 595 30 is_stmt 0 view .LVU119
 381 00be 5A60     		str	r2, [r3, #4]
 382              	.LVL25:
 383              		.loc 2 595 30 view .LVU120
 384              	.LBE133:
 385              	.LBE135:
 386              		.loc 1 174 11 is_stmt 1 view .LVU121
 387              		.loc 1 174 14 is_stmt 0 view .LVU122
 388 00c0 B268     		ldr	r2, [r6, #8]
 389              	.LVL26:
 390              		.loc 1 176 11 is_stmt 1 view .LVU123
 391              		.loc 1 165 28 is_stmt 0 view .LVU124
 392 00c2 A168     		ldr	r1, [r4, #8]
 393              		.loc 1 165 13 view .LVU125
 394 00c4 9368     		ldr	r3, [r2, #8]
 395 00c6 8B42     		cmp	r3, r1
 396 00c8 ACD3     		bcc	.L12
 397 00ca B3E7     		b	.L9
 398              	.L31:
ARM GAS  /tmp/ccSpVBUk.s 			page 8


 399              		.align	2
 400              	.L30:
 401 00cc 00000000 		.word	ch
 402              	.LBE137:
 403              		.cfi_endproc
 404              	.LFE325:
 405              		.size	chMtxLockS, .-chMtxLockS
 406              		.align	1
 407              		.p2align 4,,15
 408              		.global	chMtxLock
 409              		.syntax unified
 410              		.thumb
 411              		.thumb_func
 412              		.fpu fpv4-sp-d16
 413              		.type	chMtxLock, %function
 414              	chMtxLock:
 415              	.LVL27:
 416              	.LFB324:
 417              		.loc 1 123 29 is_stmt 1 view -0
 418              		.cfi_startproc
 419              		@ args = 0, pretend = 0, frame = 0
 420              		@ frame_needed = 0, uses_anonymous_args = 0
 421              		.loc 1 125 3 view .LVU127
 422              	.LBB138:
 423              	.LBI138:
 424              		.file 3 "../../../external/ChibiOS/os/rt/include/chsys.h"
 425              		.loc 3 353 20 view .LVU128
 426              	.LBE138:
 427              		.loc 3 355 3 view .LVU129
 428              	.LBB146:
 429              	.LBB139:
 430              	.LBI139:
 431              		.file 4 "../../../external/ChibiOS/os/common/ports/ARMCMx/chcore_v7m.h"
 432              		.loc 4 669 27 view .LVU130
 433              	.LBE139:
 434              	.LBE146:
 435              		.loc 4 677 3 view .LVU131
 436              	.LBB147:
 437              	.LBB144:
 438              	.LBB140:
 439              	.LBI140:
 440              		.file 5 "../../../external/ChibiOS/os/common/ext/ARM/CMSIS/Core/Include/cmsis_gcc.h"
 441              		.loc 5 491 27 view .LVU132
 442              	.LBB141:
 443              		.loc 5 493 3 view .LVU133
 444              	.LBE141:
 445              	.LBE140:
 446              	.LBE144:
 447              	.LBE147:
 448              		.loc 1 123 29 is_stmt 0 view .LVU134
 449 00d0 08B5     		push	{r3, lr}
 450              		.cfi_def_cfa_offset 8
 451              		.cfi_offset 3, -8
 452              		.cfi_offset 14, -4
 453              	.LBB148:
 454              	.LBB145:
 455              	.LBB143:
ARM GAS  /tmp/ccSpVBUk.s 			page 9


 456              	.LBB142:
 457              		.loc 5 493 3 view .LVU135
 458 00d2 2023     		movs	r3, #32
 459              		.syntax unified
 460              	@ 493 "../../../external/ChibiOS/os/common/ext/ARM/CMSIS/Core/Include/cmsis_gcc.h" 1
 461 00d4 83F31188 		MSR basepri, r3
 462              	@ 0 "" 2
 463              	.LVL28:
 464              		.loc 5 493 3 view .LVU136
 465              		.thumb
 466              		.syntax unified
 467              	.LBE142:
 468              	.LBE143:
 469              	.LBE145:
 470              	.LBE148:
 471              		.loc 3 356 34 is_stmt 1 view .LVU137
 472              		.loc 3 357 20 view .LVU138
 473              		.loc 1 126 3 view .LVU139
 474 00d8 FFF7FEFF 		bl	chMtxLockS
 475              	.LVL29:
 476              		.loc 1 127 3 view .LVU140
 477              	.LBB149:
 478              	.LBI149:
 479              		.loc 3 365 20 view .LVU141
 480              	.LBB150:
 481              		.loc 3 367 22 view .LVU142
 482              		.loc 3 368 33 view .LVU143
 483              		.loc 3 374 3 view .LVU144
 484              		.loc 3 374 3 view .LVU145
 485              		.loc 3 378 3 view .LVU146
 486              	.LBB151:
 487              	.LBI151:
 488              		.loc 4 693 27 view .LVU147
 489              	.LBE151:
 490              	.LBE150:
 491              	.LBE149:
 492              		.loc 4 696 3 view .LVU148
 493              	.LBB156:
 494              	.LBB155:
 495              	.LBB154:
 496              	.LBB152:
 497              	.LBI152:
 498              		.loc 5 491 27 view .LVU149
 499              	.LBB153:
 500              		.loc 5 493 3 view .LVU150
 501 00dc 0023     		movs	r3, #0
 502              		.syntax unified
 503              	@ 493 "../../../external/ChibiOS/os/common/ext/ARM/CMSIS/Core/Include/cmsis_gcc.h" 1
 504 00de 83F31188 		MSR basepri, r3
 505              	@ 0 "" 2
 506              	.LVL30:
 507              		.loc 5 493 3 is_stmt 0 view .LVU151
 508              		.thumb
 509              		.syntax unified
 510              	.LBE153:
 511              	.LBE152:
 512              	.LBE154:
ARM GAS  /tmp/ccSpVBUk.s 			page 10


 513              	.LBE155:
 514              	.LBE156:
 515              		.loc 1 128 1 view .LVU152
 516 00e2 08BD     		pop	{r3, pc}
 517              		.cfi_endproc
 518              	.LFE324:
 519              		.size	chMtxLock, .-chMtxLock
 520              		.align	1
 521 00e4 AFF30080 		.p2align 4,,15
 521      AFF30080 
 521      AFF30080 
 522              		.global	chMtxTryLock
 523              		.syntax unified
 524              		.thumb
 525              		.thumb_func
 526              		.fpu fpv4-sp-d16
 527              		.type	chMtxTryLock, %function
 528              	chMtxTryLock:
 529              	.LVL31:
 530              	.LFB326:
 531              		.loc 1 255 32 is_stmt 1 view -0
 532              		.cfi_startproc
 533              		@ args = 0, pretend = 0, frame = 0
 534              		@ frame_needed = 0, uses_anonymous_args = 0
 535              		@ link register save eliminated.
 536              		.loc 1 256 3 view .LVU154
 537              		.loc 1 258 3 view .LVU155
 538              	.LBB170:
 539              	.LBI170:
 540              		.loc 3 353 20 view .LVU156
 541              	.LBE170:
 542              		.loc 3 355 3 view .LVU157
 543              	.LBB178:
 544              	.LBB171:
 545              	.LBI171:
 546              		.loc 4 669 27 view .LVU158
 547              	.LBE171:
 548              	.LBE178:
 549              		.loc 4 677 3 view .LVU159
 550              	.LBB179:
 551              	.LBB176:
 552              	.LBB172:
 553              	.LBI172:
 554              		.loc 5 491 27 view .LVU160
 555              	.LBB173:
 556              		.loc 5 493 3 view .LVU161
 557              	.LBE173:
 558              	.LBE172:
 559              	.LBE176:
 560              	.LBE179:
 561              		.loc 1 255 32 is_stmt 0 view .LVU162
 562 00f0 0346     		mov	r3, r0
 563              	.LBB180:
 564              	.LBB177:
 565              	.LBB175:
 566              	.LBB174:
 567              		.loc 5 493 3 view .LVU163
ARM GAS  /tmp/ccSpVBUk.s 			page 11


 568 00f2 2022     		movs	r2, #32
 569              		.syntax unified
 570              	@ 493 "../../../external/ChibiOS/os/common/ext/ARM/CMSIS/Core/Include/cmsis_gcc.h" 1
 571 00f4 82F31188 		MSR basepri, r2
 572              	@ 0 "" 2
 573              	.LVL32:
 574              		.loc 5 493 3 view .LVU164
 575              		.thumb
 576              		.syntax unified
 577              	.LBE174:
 578              	.LBE175:
 579              	.LBE177:
 580              	.LBE180:
 581              		.loc 3 356 34 is_stmt 1 view .LVU165
 582              		.loc 3 357 20 view .LVU166
 583              		.loc 1 259 3 view .LVU167
 584              	.LBB181:
 585              	.LBI181:
 586              		.loc 1 282 6 view .LVU168
 587              	.LBB182:
 588              		.loc 1 284 21 view .LVU169
 589              		.loc 1 285 3 view .LVU170
 590              		.loc 1 285 3 view .LVU171
 591              		.loc 1 287 3 view .LVU172
 592              		.loc 1 287 6 is_stmt 0 view .LVU173
 593 00f8 8268     		ldr	r2, [r0, #8]
 594 00fa 22B1     		cbz	r2, .L37
 595              		.loc 1 297 12 view .LVU174
 596 00fc 0020     		movs	r0, #0
 597              	.LVL33:
 598              		.loc 1 297 12 view .LVU175
 599              	.LBE182:
 600              	.LBE181:
 601              		.loc 1 260 3 is_stmt 1 view .LVU176
 602              	.LBB186:
 603              	.LBI186:
 604              		.loc 3 365 20 view .LVU177
 605              	.LBB187:
 606              		.loc 3 367 22 view .LVU178
 607              		.loc 3 368 33 view .LVU179
 608              		.loc 3 374 3 view .LVU180
 609              		.loc 3 374 3 view .LVU181
 610              		.loc 3 378 3 view .LVU182
 611              	.LBB188:
 612              	.LBI188:
 613              		.loc 4 693 27 view .LVU183
 614              	.LBE188:
 615              	.LBE187:
 616              	.LBE186:
 617              		.loc 4 696 3 view .LVU184
 618              	.LBB199:
 619              	.LBB196:
 620              	.LBB193:
 621              	.LBB189:
 622              	.LBI189:
 623              		.loc 5 491 27 view .LVU185
 624              	.LBB190:
ARM GAS  /tmp/ccSpVBUk.s 			page 12


 625              		.loc 5 493 3 view .LVU186
 626 00fe 0023     		movs	r3, #0
 627              	.LVL34:
 628              		.loc 5 493 3 is_stmt 0 view .LVU187
 629              		.syntax unified
 630              	@ 493 "../../../external/ChibiOS/os/common/ext/ARM/CMSIS/Core/Include/cmsis_gcc.h" 1
 631 0100 83F31188 		MSR basepri, r3
 632              	@ 0 "" 2
 633              	.LVL35:
 634              		.loc 5 493 3 view .LVU188
 635              		.thumb
 636              		.syntax unified
 637              	.LBE190:
 638              	.LBE189:
 639              	.LBE193:
 640              	.LBE196:
 641              	.LBE199:
 642              		.loc 1 262 3 is_stmt 1 view .LVU189
 643              		.loc 1 263 1 is_stmt 0 view .LVU190
 644 0104 7047     		bx	lr
 645              	.LVL36:
 646              	.L37:
 647              	.LBB200:
 648              	.LBB185:
 649              	.LBB183:
 650              	.LBI183:
 651              		.loc 1 282 6 is_stmt 1 view .LVU191
 652              	.LBB184:
 653              		.loc 1 305 3 view .LVU192
 654              		.loc 1 305 15 is_stmt 0 view .LVU193
 655 0106 054A     		ldr	r2, .L38
 656              		.loc 1 307 18 view .LVU194
 657 0108 0120     		movs	r0, #1
 658              	.LVL37:
 659              		.loc 1 305 15 view .LVU195
 660 010a 9269     		ldr	r2, [r2, #24]
 661              		.loc 1 306 12 view .LVU196
 662 010c 916B     		ldr	r1, [r2, #56]
 663 010e C3E90221 		strd	r2, r1, [r3, #8]
 664              		.loc 1 307 3 is_stmt 1 view .LVU197
 665              		.loc 1 307 18 is_stmt 0 view .LVU198
 666 0112 9363     		str	r3, [r2, #56]
 667              		.loc 1 308 3 is_stmt 1 view .LVU199
 668              	.LVL38:
 669              		.loc 1 308 3 is_stmt 0 view .LVU200
 670              	.LBE184:
 671              	.LBE183:
 672              	.LBE185:
 673              	.LBE200:
 674              		.loc 1 260 3 is_stmt 1 view .LVU201
 675              	.LBB201:
 676              		.loc 3 365 20 view .LVU202
 677              	.LBB197:
 678              		.loc 3 367 22 view .LVU203
 679              		.loc 3 368 33 view .LVU204
 680              		.loc 3 374 3 view .LVU205
 681              		.loc 3 374 3 view .LVU206
ARM GAS  /tmp/ccSpVBUk.s 			page 13


 682              		.loc 3 378 3 view .LVU207
 683              	.LBB194:
 684              		.loc 4 693 27 view .LVU208
 685              	.LBE194:
 686              	.LBE197:
 687              	.LBE201:
 688              		.loc 4 696 3 view .LVU209
 689              	.LBB202:
 690              	.LBB198:
 691              	.LBB195:
 692              	.LBB192:
 693              		.loc 5 491 27 view .LVU210
 694              	.LBB191:
 695              		.loc 5 493 3 view .LVU211
 696 0114 0023     		movs	r3, #0
 697              	.LVL39:
 698              		.loc 5 493 3 is_stmt 0 view .LVU212
 699              		.syntax unified
 700              	@ 493 "../../../external/ChibiOS/os/common/ext/ARM/CMSIS/Core/Include/cmsis_gcc.h" 1
 701 0116 83F31188 		MSR basepri, r3
 702              	@ 0 "" 2
 703              	.LVL40:
 704              		.loc 5 493 3 view .LVU213
 705              		.thumb
 706              		.syntax unified
 707              	.LBE191:
 708              	.LBE192:
 709              	.LBE195:
 710              	.LBE198:
 711              	.LBE202:
 712              		.loc 1 262 3 is_stmt 1 view .LVU214
 713              		.loc 1 263 1 is_stmt 0 view .LVU215
 714 011a 7047     		bx	lr
 715              	.L39:
 716              		.align	2
 717              	.L38:
 718 011c 00000000 		.word	ch
 719              		.cfi_endproc
 720              	.LFE326:
 721              		.size	chMtxTryLock, .-chMtxTryLock
 722              		.align	1
 723              		.p2align 4,,15
 724              		.global	chMtxTryLockS
 725              		.syntax unified
 726              		.thumb
 727              		.thumb_func
 728              		.fpu fpv4-sp-d16
 729              		.type	chMtxTryLockS, %function
 730              	chMtxTryLockS:
 731              	.LVL41:
 732              	.LFB327:
 733              		.loc 1 282 33 is_stmt 1 view -0
 734              		.cfi_startproc
 735              		@ args = 0, pretend = 0, frame = 0
 736              		@ frame_needed = 0, uses_anonymous_args = 0
 737              		@ link register save eliminated.
 738              		.loc 1 284 21 view .LVU217
ARM GAS  /tmp/ccSpVBUk.s 			page 14


 739              		.loc 1 285 3 view .LVU218
 740              		.loc 1 285 3 view .LVU219
 741              		.loc 1 287 3 view .LVU220
 742              		.loc 1 287 6 is_stmt 0 view .LVU221
 743 0120 8268     		ldr	r2, [r0, #8]
 744              		.loc 1 282 33 view .LVU222
 745 0122 0346     		mov	r3, r0
 746              		.loc 1 287 6 view .LVU223
 747 0124 0AB1     		cbz	r2, .L43
 748              		.loc 1 297 12 view .LVU224
 749 0126 0020     		movs	r0, #0
 750              	.LVL42:
 751              		.loc 1 309 1 view .LVU225
 752 0128 7047     		bx	lr
 753              	.LVL43:
 754              	.L43:
 755              	.LBB205:
 756              	.LBI205:
 757              		.loc 1 282 6 is_stmt 1 view .LVU226
 758              	.LBB206:
 759              		.loc 1 305 3 view .LVU227
 760              		.loc 1 305 15 is_stmt 0 view .LVU228
 761 012a 044A     		ldr	r2, .L44
 762              		.loc 1 307 18 view .LVU229
 763 012c 0120     		movs	r0, #1
 764              	.LVL44:
 765              		.loc 1 305 15 view .LVU230
 766 012e 9269     		ldr	r2, [r2, #24]
 767              		.loc 1 306 12 view .LVU231
 768 0130 916B     		ldr	r1, [r2, #56]
 769 0132 C3E90221 		strd	r2, r1, [r3, #8]
 770              		.loc 1 307 3 is_stmt 1 view .LVU232
 771              		.loc 1 307 18 is_stmt 0 view .LVU233
 772 0136 9363     		str	r3, [r2, #56]
 773              		.loc 1 308 3 is_stmt 1 view .LVU234
 774              	.LVL45:
 775              		.loc 1 308 3 is_stmt 0 view .LVU235
 776 0138 7047     		bx	lr
 777              	.L45:
 778 013a 00BF     		.align	2
 779              	.L44:
 780 013c 00000000 		.word	ch
 781              	.LBE206:
 782              	.LBE205:
 783              		.cfi_endproc
 784              	.LFE327:
 785              		.size	chMtxTryLockS, .-chMtxTryLockS
 786              		.align	1
 787              		.p2align 4,,15
 788              		.global	chMtxUnlock
 789              		.syntax unified
 790              		.thumb
 791              		.thumb_func
 792              		.fpu fpv4-sp-d16
 793              		.type	chMtxUnlock, %function
 794              	chMtxUnlock:
 795              	.LVL46:
ARM GAS  /tmp/ccSpVBUk.s 			page 15


 796              	.LFB328:
 797              		.loc 1 323 31 is_stmt 1 view -0
 798              		.cfi_startproc
 799              		@ args = 0, pretend = 0, frame = 0
 800              		@ frame_needed = 0, uses_anonymous_args = 0
 801              		.loc 1 324 3 view .LVU237
 802              		.loc 1 324 13 is_stmt 0 view .LVU238
 803 0140 174A     		ldr	r2, .L57
 804              		.loc 1 323 31 view .LVU239
 805 0142 38B5     		push	{r3, r4, r5, lr}
 806              		.cfi_def_cfa_offset 16
 807              		.cfi_offset 3, -16
 808              		.cfi_offset 4, -12
 809              		.cfi_offset 5, -8
 810              		.cfi_offset 14, -4
 811              	.LBB207:
 812              	.LBB208:
 813              	.LBB209:
 814              	.LBB210:
 815              		.loc 5 493 3 view .LVU240
 816 0144 2023     		movs	r3, #32
 817              	.LBE210:
 818              	.LBE209:
 819              	.LBE208:
 820              	.LBE207:
 821              		.loc 1 324 13 view .LVU241
 822 0146 9569     		ldr	r5, [r2, #24]
 823              	.LVL47:
 824              		.loc 1 325 3 is_stmt 1 view .LVU242
 825              		.loc 1 327 3 view .LVU243
 826              		.loc 1 327 3 view .LVU244
 827              		.loc 1 329 3 view .LVU245
 828              	.LBB215:
 829              	.LBI207:
 830              		.loc 3 353 20 view .LVU246
 831              	.LBE215:
 832              		.loc 3 355 3 view .LVU247
 833              	.LBB216:
 834              	.LBB213:
 835              	.LBI208:
 836              		.loc 4 669 27 view .LVU248
 837              	.LBE213:
 838              	.LBE216:
 839              		.loc 4 677 3 view .LVU249
 840              	.LBB217:
 841              	.LBB214:
 842              	.LBB212:
 843              	.LBI209:
 844              		.loc 5 491 27 view .LVU250
 845              	.LBB211:
 846              		.loc 5 493 3 view .LVU251
 847              		.syntax unified
 848              	@ 493 "../../../external/ChibiOS/os/common/ext/ARM/CMSIS/Core/Include/cmsis_gcc.h" 1
 849 0148 83F31188 		MSR basepri, r3
 850              	@ 0 "" 2
 851              	.LVL48:
 852              		.loc 5 493 3 is_stmt 0 view .LVU252
ARM GAS  /tmp/ccSpVBUk.s 			page 16


 853              		.thumb
 854              		.syntax unified
 855              	.LBE211:
 856              	.LBE212:
 857              	.LBE214:
 858              	.LBE217:
 859              		.loc 3 356 34 is_stmt 1 view .LVU253
 860              		.loc 3 357 20 view .LVU254
 861              		.loc 1 331 3 view .LVU255
 862              		.loc 1 331 3 view .LVU256
 863              		.loc 1 332 3 view .LVU257
 864              		.loc 1 332 3 view .LVU258
 865              		.loc 1 339 5 view .LVU259
 866              		.loc 1 339 5 view .LVU260
 867              		.loc 1 344 5 view .LVU261
 868              	.LBB218:
 869              	.LBB219:
 870              	.LBB220:
 871              	.LBB221:
 872              		.loc 2 566 20 is_stmt 0 view .LVU262
 873 014c 0468     		ldr	r4, [r0]
 874              	.LBE221:
 875              	.LBE220:
 876              	.LBE219:
 877              	.LBE218:
 878              		.loc 1 344 22 view .LVU263
 879 014e C368     		ldr	r3, [r0, #12]
 880              		.loc 1 347 8 view .LVU264
 881 0150 8442     		cmp	r4, r0
 882              		.loc 1 344 18 view .LVU265
 883 0152 AB63     		str	r3, [r5, #56]
 884              		.loc 1 347 5 is_stmt 1 view .LVU266
 885              	.LVL49:
 886              	.LBB225:
 887              	.LBI218:
 888              		.file 6 "../../../external/ChibiOS/os/rt/include/chmtx.h"
 889              		.loc 6 128 20 view .LVU267
 890              	.LBB224:
 891              		.loc 6 130 21 view .LVU268
 892              		.loc 6 132 3 view .LVU269
 893              	.LBB223:
 894              	.LBI220:
 895              		.loc 2 564 20 view .LVU270
 896              	.LBB222:
 897              		.loc 2 566 3 view .LVU271
 898              		.loc 2 566 3 is_stmt 0 view .LVU272
 899              	.LBE222:
 900              	.LBE223:
 901              	.LBE224:
 902              	.LBE225:
 903              		.loc 1 347 8 view .LVU273
 904 0154 1DD0     		beq	.L47
 905              	.LBB226:
 906              		.loc 1 348 7 is_stmt 1 view .LVU274
 907              		.loc 1 352 7 view .LVU275
 908              		.loc 1 352 15 is_stmt 0 view .LVU276
 909 0156 E96B     		ldr	r1, [r5, #60]
ARM GAS  /tmp/ccSpVBUk.s 			page 17


 910              	.LVL50:
 911              		.loc 1 353 7 is_stmt 1 view .LVU277
 912              		.loc 1 354 7 view .LVU278
 913              		.loc 1 354 13 is_stmt 0 view .LVU279
 914 0158 4BB1     		cbz	r3, .L48
 915              	.L50:
 916              		.loc 1 358 9 is_stmt 1 view .LVU280
 917              	.LVL51:
 918              	.LBB227:
 919              	.LBI227:
 920              		.loc 6 128 20 view .LVU281
 921              	.LBB228:
 922              		.loc 6 130 21 view .LVU282
 923              		.loc 6 132 3 view .LVU283
 924              	.LBB229:
 925              	.LBI229:
 926              		.loc 2 564 20 view .LVU284
 927              	.LBB230:
 928              		.loc 2 566 3 view .LVU285
 929              		.loc 2 566 20 is_stmt 0 view .LVU286
 930 015a 1A68     		ldr	r2, [r3]
 931              	.LVL52:
 932              		.loc 2 566 20 view .LVU287
 933              	.LBE230:
 934              	.LBE229:
 935              	.LBE228:
 936              	.LBE227:
 937              		.loc 1 358 12 view .LVU288
 938 015c 9342     		cmp	r3, r2
 939 015e 03D0     		beq	.L49
 940              		.loc 1 358 12 view .LVU289
 941 0160 9268     		ldr	r2, [r2, #8]
 942 0162 9142     		cmp	r1, r2
 943 0164 38BF     		it	cc
 944 0166 1146     		movcc	r1, r2
 945              	.LVL53:
 946              	.L49:
 947              		.loc 1 362 9 is_stmt 1 view .LVU290
 948              		.loc 1 362 13 is_stmt 0 view .LVU291
 949 0168 DB68     		ldr	r3, [r3, #12]
 950              	.LVL54:
 951              		.loc 1 354 13 view .LVU292
 952 016a 002B     		cmp	r3, #0
 953 016c F5D1     		bne	.L50
 954              	.L48:
 955              		.loc 1 354 13 view .LVU293
 956 016e 0346     		mov	r3, r0
 957              	.LVL55:
 958              		.loc 1 367 7 is_stmt 1 view .LVU294
 959              	.LBB231:
 960              	.LBB232:
 961              		.loc 2 609 36 is_stmt 0 view .LVU295
 962 0170 2268     		ldr	r2, [r4]
 963              	.LBE232:
 964              	.LBE231:
 965              		.loc 1 367 17 view .LVU296
 966 0172 A960     		str	r1, [r5, #8]
ARM GAS  /tmp/ccSpVBUk.s 			page 18


 967              		.loc 1 374 7 is_stmt 1 view .LVU297
 968              	.LVL56:
 969              	.LBB235:
 970              	.LBI231:
 971              		.loc 2 606 25 view .LVU298
 972              	.LBB233:
 973              		.loc 2 607 3 view .LVU299
 974              		.loc 2 609 3 view .LVU300
 975              	.LBE233:
 976              	.LBE235:
 977              		.loc 1 383 14 is_stmt 0 view .LVU301
 978 0174 2046     		mov	r0, r4
 979              	.LVL57:
 980              		.loc 1 376 16 view .LVU302
 981 0176 A16B     		ldr	r1, [r4, #56]
 982              	.LVL58:
 983              	.LBB236:
 984              	.LBB234:
 985              		.loc 2 609 25 view .LVU303
 986 0178 1A60     		str	r2, [r3]
 987              		.loc 2 610 3 is_stmt 1 view .LVU304
 988              		.loc 2 610 25 is_stmt 0 view .LVU305
 989 017a 5360     		str	r3, [r2, #4]
 990              		.loc 2 612 3 is_stmt 1 view .LVU306
 991              	.LVL59:
 992              		.loc 2 612 3 is_stmt 0 view .LVU307
 993              	.LBE234:
 994              	.LBE236:
 995              		.loc 1 375 7 is_stmt 1 view .LVU308
 996              		.loc 1 376 16 is_stmt 0 view .LVU309
 997 017c C3E90241 		strd	r4, r1, [r3, #8]
 998              		.loc 1 377 7 is_stmt 1 view .LVU310
 999              		.loc 1 377 19 is_stmt 0 view .LVU311
 1000 0180 A363     		str	r3, [r4, #56]
 1001              		.loc 1 383 7 is_stmt 1 view .LVU312
 1002              		.loc 1 383 14 is_stmt 0 view .LVU313
 1003 0182 FFF7FEFF 		bl	chSchReadyI
 1004              	.LVL60:
 1005              		.loc 1 384 7 is_stmt 1 view .LVU314
 1006 0186 FFF7FEFF 		bl	chSchRescheduleS
 1007              	.LVL61:
 1008              	.LBE226:
 1009              		.loc 1 393 3 view .LVU315
 1010              	.LBB237:
 1011              	.LBI237:
 1012              		.loc 3 365 20 view .LVU316
 1013              	.LBB238:
 1014              		.loc 3 367 22 view .LVU317
 1015              		.loc 3 368 33 view .LVU318
 1016              		.loc 3 374 3 view .LVU319
 1017              		.loc 3 374 3 view .LVU320
 1018              		.loc 3 378 3 view .LVU321
 1019              	.LBB239:
 1020              	.LBI239:
 1021              		.loc 4 693 27 view .LVU322
 1022              	.LBE239:
 1023              	.LBE238:
ARM GAS  /tmp/ccSpVBUk.s 			page 19


 1024              	.LBE237:
 1025              		.loc 4 696 3 view .LVU323
 1026              	.LBB250:
 1027              	.LBB247:
 1028              	.LBB244:
 1029              	.LBB240:
 1030              	.LBI240:
 1031              		.loc 5 491 27 view .LVU324
 1032              	.LBB241:
 1033              		.loc 5 493 3 view .LVU325
 1034 018a 0023     		movs	r3, #0
 1035              		.syntax unified
 1036              	@ 493 "../../../external/ChibiOS/os/common/ext/ARM/CMSIS/Core/Include/cmsis_gcc.h" 1
 1037 018c 83F31188 		MSR basepri, r3
 1038              	@ 0 "" 2
 1039              	.LVL62:
 1040              		.loc 5 493 3 is_stmt 0 view .LVU326
 1041              		.thumb
 1042              		.syntax unified
 1043              	.LBE241:
 1044              	.LBE240:
 1045              	.LBE244:
 1046              	.LBE247:
 1047              	.LBE250:
 1048              		.loc 1 394 1 view .LVU327
 1049 0190 38BD     		pop	{r3, r4, r5, pc}
 1050              	.LVL63:
 1051              	.L47:
 1052              		.loc 1 387 7 is_stmt 1 view .LVU328
 1053              		.loc 1 387 17 is_stmt 0 view .LVU329
 1054 0192 0023     		movs	r3, #0
 1055 0194 A360     		str	r3, [r4, #8]
 1056              		.loc 1 393 3 is_stmt 1 view .LVU330
 1057              	.LBB251:
 1058              		.loc 3 365 20 view .LVU331
 1059              	.LBB248:
 1060              		.loc 3 367 22 view .LVU332
 1061              		.loc 3 368 33 view .LVU333
 1062              		.loc 3 374 3 view .LVU334
 1063              		.loc 3 374 3 view .LVU335
 1064              		.loc 3 378 3 view .LVU336
 1065              	.LBB245:
 1066              		.loc 4 693 27 view .LVU337
 1067              	.LBE245:
 1068              	.LBE248:
 1069              	.LBE251:
 1070              		.loc 4 696 3 view .LVU338
 1071              	.LVL64:
 1072              	.LBB252:
 1073              	.LBB249:
 1074              	.LBB246:
 1075              	.LBB243:
 1076              		.loc 5 491 27 view .LVU339
 1077              	.LBB242:
 1078              		.loc 5 493 3 view .LVU340
 1079 0196 0023     		movs	r3, #0
 1080              		.syntax unified
ARM GAS  /tmp/ccSpVBUk.s 			page 20


 1081              	@ 493 "../../../external/ChibiOS/os/common/ext/ARM/CMSIS/Core/Include/cmsis_gcc.h" 1
 1082 0198 83F31188 		MSR basepri, r3
 1083              	@ 0 "" 2
 1084              	.LVL65:
 1085              		.loc 5 493 3 is_stmt 0 view .LVU341
 1086              		.thumb
 1087              		.syntax unified
 1088              	.LBE242:
 1089              	.LBE243:
 1090              	.LBE246:
 1091              	.LBE249:
 1092              	.LBE252:
 1093              		.loc 1 394 1 view .LVU342
 1094 019c 38BD     		pop	{r3, r4, r5, pc}
 1095              	.LVL66:
 1096              	.L58:
 1097              		.loc 1 394 1 view .LVU343
 1098 019e 00BF     		.align	2
 1099              	.L57:
 1100 01a0 00000000 		.word	ch
 1101              		.cfi_endproc
 1102              	.LFE328:
 1103              		.size	chMtxUnlock, .-chMtxUnlock
 1104              		.align	1
 1105 01a4 AFF30080 		.p2align 4,,15
 1105      AFF30080 
 1105      AFF30080 
 1106              		.global	chMtxUnlockS
 1107              		.syntax unified
 1108              		.thumb
 1109              		.thumb_func
 1110              		.fpu fpv4-sp-d16
 1111              		.type	chMtxUnlockS, %function
 1112              	chMtxUnlockS:
 1113              	.LVL67:
 1114              	.LFB329:
 1115              		.loc 1 410 32 is_stmt 1 view -0
 1116              		.cfi_startproc
 1117              		@ args = 0, pretend = 0, frame = 0
 1118              		@ frame_needed = 0, uses_anonymous_args = 0
 1119              		@ link register save eliminated.
 1120              		.loc 1 411 3 view .LVU345
 1121              		.loc 1 410 32 is_stmt 0 view .LVU346
 1122 01b0 70B4     		push	{r4, r5, r6}
 1123              		.cfi_def_cfa_offset 12
 1124              		.cfi_offset 4, -12
 1125              		.cfi_offset 5, -8
 1126              		.cfi_offset 6, -4
 1127              		.loc 1 411 13 view .LVU347
 1128 01b2 124A     		ldr	r2, .L69
 1129              	.LBB253:
 1130              	.LBB254:
 1131              	.LBB255:
 1132              	.LBB256:
 1133              		.loc 2 566 20 view .LVU348
 1134 01b4 0568     		ldr	r5, [r0]
 1135              	.LBE256:
ARM GAS  /tmp/ccSpVBUk.s 			page 21


 1136              	.LBE255:
 1137              	.LBE254:
 1138              	.LBE253:
 1139              		.loc 1 430 22 view .LVU349
 1140 01b6 C368     		ldr	r3, [r0, #12]
 1141              		.loc 1 411 13 view .LVU350
 1142 01b8 9669     		ldr	r6, [r2, #24]
 1143              	.LVL68:
 1144              		.loc 1 412 3 is_stmt 1 view .LVU351
 1145              		.loc 1 414 21 view .LVU352
 1146              		.loc 1 415 3 view .LVU353
 1147              		.loc 1 415 3 view .LVU354
 1148              		.loc 1 417 3 view .LVU355
 1149              		.loc 1 417 3 view .LVU356
 1150              		.loc 1 418 3 view .LVU357
 1151              		.loc 1 418 3 view .LVU358
 1152              		.loc 1 425 5 view .LVU359
 1153              		.loc 1 425 5 view .LVU360
 1154              		.loc 1 430 5 view .LVU361
 1155              		.loc 1 433 8 is_stmt 0 view .LVU362
 1156 01ba 8542     		cmp	r5, r0
 1157              		.loc 1 430 18 view .LVU363
 1158 01bc B363     		str	r3, [r6, #56]
 1159              		.loc 1 433 5 is_stmt 1 view .LVU364
 1160              	.LVL69:
 1161              	.LBB260:
 1162              	.LBI253:
 1163              		.loc 6 128 20 view .LVU365
 1164              	.LBB259:
 1165              		.loc 6 130 21 view .LVU366
 1166              		.loc 6 132 3 view .LVU367
 1167              	.LBB258:
 1168              	.LBI255:
 1169              		.loc 2 564 20 view .LVU368
 1170              	.LBB257:
 1171              		.loc 2 566 3 view .LVU369
 1172              		.loc 2 566 3 is_stmt 0 view .LVU370
 1173              	.LBE257:
 1174              	.LBE258:
 1175              	.LBE259:
 1176              	.LBE260:
 1177              		.loc 1 433 8 view .LVU371
 1178 01be 18D0     		beq	.L60
 1179              	.LBB261:
 1180              		.loc 1 434 7 is_stmt 1 view .LVU372
 1181              		.loc 1 438 7 view .LVU373
 1182 01c0 0446     		mov	r4, r0
 1183              		.loc 1 438 15 is_stmt 0 view .LVU374
 1184 01c2 F16B     		ldr	r1, [r6, #60]
 1185              	.LVL70:
 1186              		.loc 1 439 7 is_stmt 1 view .LVU375
 1187              		.loc 1 440 7 view .LVU376
 1188              		.loc 1 440 13 is_stmt 0 view .LVU377
 1189 01c4 4BB1     		cbz	r3, .L61
 1190              	.L63:
 1191              		.loc 1 444 9 is_stmt 1 view .LVU378
 1192              	.LVL71:
ARM GAS  /tmp/ccSpVBUk.s 			page 22


 1193              	.LBB262:
 1194              	.LBI262:
 1195              		.loc 6 128 20 view .LVU379
 1196              	.LBB263:
 1197              		.loc 6 130 21 view .LVU380
 1198              		.loc 6 132 3 view .LVU381
 1199              	.LBB264:
 1200              	.LBI264:
 1201              		.loc 2 564 20 view .LVU382
 1202              	.LBB265:
 1203              		.loc 2 566 3 view .LVU383
 1204              		.loc 2 566 20 is_stmt 0 view .LVU384
 1205 01c6 1A68     		ldr	r2, [r3]
 1206              	.LVL72:
 1207              		.loc 2 566 20 view .LVU385
 1208              	.LBE265:
 1209              	.LBE264:
 1210              	.LBE263:
 1211              	.LBE262:
 1212              		.loc 1 444 12 view .LVU386
 1213 01c8 9342     		cmp	r3, r2
 1214 01ca 03D0     		beq	.L62
 1215              		.loc 1 444 12 view .LVU387
 1216 01cc 9268     		ldr	r2, [r2, #8]
 1217 01ce 9142     		cmp	r1, r2
 1218 01d0 38BF     		it	cc
 1219 01d2 1146     		movcc	r1, r2
 1220              	.LVL73:
 1221              	.L62:
 1222              		.loc 1 448 9 is_stmt 1 view .LVU388
 1223              		.loc 1 448 13 is_stmt 0 view .LVU389
 1224 01d4 DB68     		ldr	r3, [r3, #12]
 1225              	.LVL74:
 1226              		.loc 1 440 13 view .LVU390
 1227 01d6 002B     		cmp	r3, #0
 1228 01d8 F5D1     		bne	.L63
 1229              	.L61:
 1230              		.loc 1 453 7 is_stmt 1 view .LVU391
 1231              	.LBB266:
 1232              	.LBB267:
 1233              		.loc 2 609 36 is_stmt 0 view .LVU392
 1234 01da 2B68     		ldr	r3, [r5]
 1235              	.LVL75:
 1236              		.loc 2 609 36 view .LVU393
 1237              	.LBE267:
 1238              	.LBE266:
 1239              		.loc 1 464 14 view .LVU394
 1240 01dc 2846     		mov	r0, r5
 1241              	.LVL76:
 1242              		.loc 1 462 16 view .LVU395
 1243 01de AA6B     		ldr	r2, [r5, #56]
 1244              		.loc 1 453 17 view .LVU396
 1245 01e0 B160     		str	r1, [r6, #8]
 1246              		.loc 1 460 7 is_stmt 1 view .LVU397
 1247              	.LVL77:
 1248              	.LBB269:
 1249              	.LBI266:
ARM GAS  /tmp/ccSpVBUk.s 			page 23


 1250              		.loc 2 606 25 view .LVU398
 1251              	.LBB268:
 1252              		.loc 2 607 3 view .LVU399
 1253              		.loc 2 609 3 view .LVU400
 1254              		.loc 2 609 25 is_stmt 0 view .LVU401
 1255 01e2 2360     		str	r3, [r4]
 1256              		.loc 2 610 3 is_stmt 1 view .LVU402
 1257              		.loc 2 610 25 is_stmt 0 view .LVU403
 1258 01e4 5C60     		str	r4, [r3, #4]
 1259              		.loc 2 612 3 is_stmt 1 view .LVU404
 1260              	.LVL78:
 1261              		.loc 2 612 3 is_stmt 0 view .LVU405
 1262              	.LBE268:
 1263              	.LBE269:
 1264              		.loc 1 461 7 is_stmt 1 view .LVU406
 1265              		.loc 1 462 16 is_stmt 0 view .LVU407
 1266 01e6 C4E90252 		strd	r5, r2, [r4, #8]
 1267              		.loc 1 463 7 is_stmt 1 view .LVU408
 1268              		.loc 1 463 19 is_stmt 0 view .LVU409
 1269 01ea AC63     		str	r4, [r5, #56]
 1270              		.loc 1 464 7 is_stmt 1 view .LVU410
 1271              	.LBE261:
 1272              		.loc 1 472 1 is_stmt 0 view .LVU411
 1273 01ec 70BC     		pop	{r4, r5, r6}
 1274              		.cfi_remember_state
 1275              		.cfi_restore 6
 1276              		.cfi_restore 5
 1277              		.cfi_restore 4
 1278              		.cfi_def_cfa_offset 0
 1279              	.LVL79:
 1280              	.LBB270:
 1281              		.loc 1 464 14 view .LVU412
 1282 01ee FFF7FEBF 		b	chSchReadyI
 1283              	.LVL80:
 1284              	.L60:
 1285              		.cfi_restore_state
 1286              		.loc 1 464 14 view .LVU413
 1287              	.LBE270:
 1288              		.loc 1 467 7 is_stmt 1 view .LVU414
 1289              		.loc 1 467 17 is_stmt 0 view .LVU415
 1290 01f2 0023     		movs	r3, #0
 1291 01f4 AB60     		str	r3, [r5, #8]
 1292              		.loc 1 472 1 view .LVU416
 1293 01f6 70BC     		pop	{r4, r5, r6}
 1294              		.cfi_restore 6
 1295              		.cfi_restore 5
 1296              		.cfi_restore 4
 1297              		.cfi_def_cfa_offset 0
 1298              	.LVL81:
 1299              		.loc 1 472 1 view .LVU417
 1300 01f8 7047     		bx	lr
 1301              	.L70:
 1302 01fa 00BF     		.align	2
 1303              	.L69:
 1304 01fc 00000000 		.word	ch
 1305              		.cfi_endproc
 1306              	.LFE329:
ARM GAS  /tmp/ccSpVBUk.s 			page 24


 1307              		.size	chMtxUnlockS, .-chMtxUnlockS
 1308              		.align	1
 1309              		.p2align 4,,15
 1310              		.global	chMtxUnlockAllS
 1311              		.syntax unified
 1312              		.thumb
 1313              		.thumb_func
 1314              		.fpu fpv4-sp-d16
 1315              		.type	chMtxUnlockAllS, %function
 1316              	chMtxUnlockAllS:
 1317              	.LFB330:
 1318              		.loc 1 487 28 is_stmt 1 view -0
 1319              		.cfi_startproc
 1320              		@ args = 0, pretend = 0, frame = 0
 1321              		@ frame_needed = 0, uses_anonymous_args = 0
 1322              		.loc 1 488 3 view .LVU419
 1323              		.loc 1 488 13 is_stmt 0 view .LVU420
 1324 0200 114B     		ldr	r3, .L79
 1325              		.loc 1 487 28 view .LVU421
 1326 0202 70B5     		push	{r4, r5, r6, lr}
 1327              		.cfi_def_cfa_offset 16
 1328              		.cfi_offset 4, -16
 1329              		.cfi_offset 5, -12
 1330              		.cfi_offset 6, -8
 1331              		.cfi_offset 14, -4
 1332              		.loc 1 488 13 view .LVU422
 1333 0204 9C69     		ldr	r4, [r3, #24]
 1334              	.LVL82:
 1335              		.loc 1 490 3 is_stmt 1 view .LVU423
 1336              		.loc 1 490 10 is_stmt 0 view .LVU424
 1337 0206 A36B     		ldr	r3, [r4, #56]
 1338              		.loc 1 490 6 view .LVU425
 1339 0208 EBB1     		cbz	r3, .L71
 1340              	.LBB271:
 1341              		.loc 1 509 19 view .LVU426
 1342 020a 0026     		movs	r6, #0
 1343              	.L75:
 1344              		.loc 1 509 19 view .LVU427
 1345              	.LBE271:
 1346              		.loc 1 491 5 is_stmt 1 view .LVU428
 1347              	.LBB290:
 1348              		.loc 1 492 7 view .LVU429
 1349              	.LVL83:
 1350              		.loc 1 493 7 view .LVU430
 1351              	.LBB272:
 1352              		.loc 1 495 9 view .LVU431
 1353              		.loc 1 499 9 view .LVU432
 1354              	.LBB273:
 1355              	.LBI273:
 1356              		.loc 2 606 25 view .LVU433
 1357              	.LBB274:
 1358              		.loc 2 607 3 view .LVU434
 1359              	.LBE274:
 1360              	.LBE273:
 1361              	.LBE272:
 1362              		.loc 1 509 9 view .LVU435
 1363              	.LBB279:
ARM GAS  /tmp/ccSpVBUk.s 			page 25


 1364              	.LBB280:
 1365              	.LBB281:
 1366              	.LBB282:
 1367              		.loc 2 566 20 is_stmt 0 view .LVU436
 1368 020c 1A68     		ldr	r2, [r3]
 1369              	.LVL84:
 1370              		.loc 2 566 20 view .LVU437
 1371              	.LBE282:
 1372              	.LBE281:
 1373              	.LBE280:
 1374              	.LBE279:
 1375              	.LBB286:
 1376              	.LBB277:
 1377              	.LBB275:
 1378              		.loc 2 609 3 is_stmt 1 view .LVU438
 1379              	.LBE275:
 1380              	.LBE277:
 1381              	.LBE286:
 1382              		.loc 1 493 24 is_stmt 0 view .LVU439
 1383 020e D968     		ldr	r1, [r3, #12]
 1384              		.loc 1 494 10 view .LVU440
 1385 0210 9342     		cmp	r3, r2
 1386              	.LBB287:
 1387              		.loc 1 503 16 view .LVU441
 1388 0212 1046     		mov	r0, r2
 1389              	.LBE287:
 1390              		.loc 1 493 20 view .LVU442
 1391 0214 A163     		str	r1, [r4, #56]
 1392              	.LVL85:
 1393              		.loc 1 494 7 is_stmt 1 view .LVU443
 1394              	.LBB288:
 1395              	.LBI279:
 1396              		.loc 6 128 20 view .LVU444
 1397              	.LBB285:
 1398              		.loc 6 130 21 view .LVU445
 1399              		.loc 6 132 3 view .LVU446
 1400              	.LBB284:
 1401              	.LBI281:
 1402              		.loc 2 564 20 view .LVU447
 1403              	.LBB283:
 1404              		.loc 2 566 3 view .LVU448
 1405              		.loc 2 566 3 is_stmt 0 view .LVU449
 1406              	.LBE283:
 1407              	.LBE284:
 1408              	.LBE285:
 1409              	.LBE288:
 1410              		.loc 1 494 10 view .LVU450
 1411 0216 11D0     		beq	.L73
 1412              	.LBB289:
 1413              		.loc 1 501 21 view .LVU451
 1414 0218 956B     		ldr	r5, [r2, #56]
 1415              	.LBB278:
 1416              	.LBB276:
 1417              		.loc 2 609 36 view .LVU452
 1418 021a 1168     		ldr	r1, [r2]
 1419              		.loc 2 609 25 view .LVU453
 1420 021c 1960     		str	r1, [r3]
ARM GAS  /tmp/ccSpVBUk.s 			page 26


 1421              		.loc 2 610 3 is_stmt 1 view .LVU454
 1422              		.loc 2 610 25 is_stmt 0 view .LVU455
 1423 021e 4B60     		str	r3, [r1, #4]
 1424              		.loc 2 612 3 is_stmt 1 view .LVU456
 1425              	.LVL86:
 1426              		.loc 2 612 3 is_stmt 0 view .LVU457
 1427              	.LBE276:
 1428              	.LBE278:
 1429              		.loc 1 500 9 is_stmt 1 view .LVU458
 1430              		.loc 1 501 21 is_stmt 0 view .LVU459
 1431 0220 C3E90225 		strd	r2, r5, [r3, #8]
 1432              		.loc 1 502 9 is_stmt 1 view .LVU460
 1433              		.loc 1 502 21 is_stmt 0 view .LVU461
 1434 0224 9363     		str	r3, [r2, #56]
 1435              		.loc 1 503 9 is_stmt 1 view .LVU462
 1436              		.loc 1 503 16 is_stmt 0 view .LVU463
 1437 0226 FFF7FEFF 		bl	chSchReadyI
 1438              	.LVL87:
 1439              		.loc 1 503 16 view .LVU464
 1440 022a A36B     		ldr	r3, [r4, #56]
 1441              	.LBE289:
 1442              	.LBE290:
 1443              		.loc 1 511 5 view .LVU465
 1444 022c 002B     		cmp	r3, #0
 1445 022e EDD1     		bne	.L75
 1446              	.L78:
 1447              		.loc 1 512 5 is_stmt 1 view .LVU466
 1448              		.loc 1 512 15 is_stmt 0 view .LVU467
 1449 0230 E36B     		ldr	r3, [r4, #60]
 1450 0232 A360     		str	r3, [r4, #8]
 1451              		.loc 1 513 5 is_stmt 1 view .LVU468
 1452              		.loc 1 515 1 is_stmt 0 view .LVU469
 1453 0234 BDE87040 		pop	{r4, r5, r6, lr}
 1454              		.cfi_remember_state
 1455              		.cfi_restore 14
 1456              		.cfi_restore 6
 1457              		.cfi_restore 5
 1458              		.cfi_restore 4
 1459              		.cfi_def_cfa_offset 0
 1460              	.LVL88:
 1461              		.loc 1 513 5 view .LVU470
 1462 0238 FFF7FEBF 		b	chSchRescheduleS
 1463              	.LVL89:
 1464              	.L73:
 1465              		.cfi_restore_state
 1466              	.LBB291:
 1467              		.loc 1 509 19 view .LVU471
 1468 023c 9E60     		str	r6, [r3, #8]
 1469 023e 0B46     		mov	r3, r1
 1470              	.LVL90:
 1471              		.loc 1 509 19 view .LVU472
 1472              	.LBE291:
 1473              		.loc 1 511 5 view .LVU473
 1474 0240 002B     		cmp	r3, #0
 1475 0242 E3D1     		bne	.L75
 1476 0244 F4E7     		b	.L78
 1477              	.LVL91:
ARM GAS  /tmp/ccSpVBUk.s 			page 27


 1478              	.L71:
 1479              		.loc 1 515 1 view .LVU474
 1480 0246 70BD     		pop	{r4, r5, r6, pc}
 1481              	.LVL92:
 1482              	.L80:
 1483              		.loc 1 515 1 view .LVU475
 1484              		.align	2
 1485              	.L79:
 1486 0248 00000000 		.word	ch
 1487              		.cfi_endproc
 1488              	.LFE330:
 1489              		.size	chMtxUnlockAllS, .-chMtxUnlockAllS
 1490              		.align	1
 1491 024c AFF30080 		.p2align 4,,15
 1492              		.global	chMtxUnlockAll
 1493              		.syntax unified
 1494              		.thumb
 1495              		.thumb_func
 1496              		.fpu fpv4-sp-d16
 1497              		.type	chMtxUnlockAll, %function
 1498              	chMtxUnlockAll:
 1499              	.LFB331:
 1500              		.loc 1 528 27 is_stmt 1 view -0
 1501              		.cfi_startproc
 1502              		@ args = 0, pretend = 0, frame = 0
 1503              		@ frame_needed = 0, uses_anonymous_args = 0
 1504              		.loc 1 530 3 view .LVU477
 1505              	.LBB292:
 1506              	.LBI292:
 1507              		.loc 3 353 20 view .LVU478
 1508              	.LBE292:
 1509              		.loc 3 355 3 view .LVU479
 1510              	.LBB300:
 1511              	.LBB293:
 1512              	.LBI293:
 1513              		.loc 4 669 27 view .LVU480
 1514              	.LBE293:
 1515              	.LBE300:
 1516              		.loc 4 677 3 view .LVU481
 1517              	.LVL93:
 1518              	.LBB301:
 1519              	.LBB298:
 1520              	.LBB294:
 1521              	.LBI294:
 1522              		.loc 5 491 27 view .LVU482
 1523              	.LBB295:
 1524              		.loc 5 493 3 view .LVU483
 1525              	.LBE295:
 1526              	.LBE294:
 1527              	.LBE298:
 1528              	.LBE301:
 1529              		.loc 1 528 27 is_stmt 0 view .LVU484
 1530 0250 08B5     		push	{r3, lr}
 1531              		.cfi_def_cfa_offset 8
 1532              		.cfi_offset 3, -8
 1533              		.cfi_offset 14, -4
 1534              	.LBB302:
ARM GAS  /tmp/ccSpVBUk.s 			page 28


 1535              	.LBB299:
 1536              	.LBB297:
 1537              	.LBB296:
 1538              		.loc 5 493 3 view .LVU485
 1539 0252 2023     		movs	r3, #32
 1540              		.syntax unified
 1541              	@ 493 "../../../external/ChibiOS/os/common/ext/ARM/CMSIS/Core/Include/cmsis_gcc.h" 1
 1542 0254 83F31188 		MSR basepri, r3
 1543              	@ 0 "" 2
 1544              	.LVL94:
 1545              		.loc 5 493 3 view .LVU486
 1546              		.thumb
 1547              		.syntax unified
 1548              	.LBE296:
 1549              	.LBE297:
 1550              	.LBE299:
 1551              	.LBE302:
 1552              		.loc 3 356 34 is_stmt 1 view .LVU487
 1553              		.loc 3 357 20 view .LVU488
 1554              		.loc 1 531 3 view .LVU489
 1555 0258 FFF7FEFF 		bl	chMtxUnlockAllS
 1556              	.LVL95:
 1557              		.loc 1 532 3 view .LVU490
 1558              	.LBB303:
 1559              	.LBI303:
 1560              		.loc 3 365 20 view .LVU491
 1561              	.LBB304:
 1562              		.loc 3 367 22 view .LVU492
 1563              		.loc 3 368 33 view .LVU493
 1564              		.loc 3 374 3 view .LVU494
 1565              		.loc 3 374 3 view .LVU495
 1566              		.loc 3 378 3 view .LVU496
 1567              	.LBB305:
 1568              	.LBI305:
 1569              		.loc 4 693 27 view .LVU497
 1570              	.LBE305:
 1571              	.LBE304:
 1572              	.LBE303:
 1573              		.loc 4 696 3 view .LVU498
 1574              	.LBB310:
 1575              	.LBB309:
 1576              	.LBB308:
 1577              	.LBB306:
 1578              	.LBI306:
 1579              		.loc 5 491 27 view .LVU499
 1580              	.LBB307:
 1581              		.loc 5 493 3 view .LVU500
 1582 025c 0023     		movs	r3, #0
 1583              		.syntax unified
 1584              	@ 493 "../../../external/ChibiOS/os/common/ext/ARM/CMSIS/Core/Include/cmsis_gcc.h" 1
 1585 025e 83F31188 		MSR basepri, r3
 1586              	@ 0 "" 2
 1587              	.LVL96:
 1588              		.loc 5 493 3 is_stmt 0 view .LVU501
 1589              		.thumb
 1590              		.syntax unified
 1591              	.LBE307:
ARM GAS  /tmp/ccSpVBUk.s 			page 29


 1592              	.LBE306:
 1593              	.LBE308:
 1594              	.LBE309:
 1595              	.LBE310:
 1596              		.loc 1 533 1 view .LVU502
 1597 0262 08BD     		pop	{r3, pc}
 1598              		.cfi_endproc
 1599              	.LFE331:
 1600              		.size	chMtxUnlockAll, .-chMtxUnlockAll
 1601              	.Letext0:
 1602              		.file 7 "/home/nicolas/arm/gcc-arm-none-eabi-8-2019-q3-update/lib/gcc/arm-none-eabi/8.3.1/include/
 1603              		.file 8 "/home/nicolas/arm/gcc-arm-none-eabi-8-2019-q3-update/arm-none-eabi/include/machine/_defau
 1604              		.file 9 "/home/nicolas/arm/gcc-arm-none-eabi-8-2019-q3-update/arm-none-eabi/include/sys/_stdint.h"
 1605              		.file 10 "../../../external/ChibiOS/os/common/ports/ARMCMx/compilers/GCC/chtypes.h"
 1606              		.file 11 "../../../external/ChibiOS/os/rt/include/chsystypes.h"
 1607              		.file 12 "../../../external/ChibiOS/os/rt/include/chtime.h"
 1608              		.file 13 "../../../external/ChibiOS/os/common/ext/ARM/CMSIS/Core/Include/core_cm7.h"
 1609              		.file 14 "../../../external/ChibiOS/os/common/ext/ST/STM32H7xx/system_stm32h7xx.h"
 1610              		.file 15 "../../../external/ChibiOS/os/common/ports/ARMCMx/chcore.h"
 1611              		.file 16 "../../../external/ChibiOS/os/rt/include/chtrace.h"
 1612              		.file 17 "../../../external/ChibiOS/os/rt/include/chtm.h"
 1613              		.file 18 "../../../external/ChibiOS/os/rt/include/chsem.h"
 1614              		.file 19 "../../../external/ChibiOS/os/rt/include/chregistry.h"
 1615              		.file 20 "../../../external/ChibiOS/os/oslib/include/chmemcore.h"
 1616              		.file 21 "../../../external/ChibiOS/os/oslib/include/chmempools.h"
 1617              		.file 22 "../../../external/ChibiOS/os/oslib/include/chfactory.h"