ARM GAS  /tmp/cclFO1DK.s 			page 1


   1              		.cpu cortex-m7
   2              		.eabi_attribute 27, 1
   3              		.eabi_attribute 28, 1
   4              		.eabi_attribute 20, 1
   5              		.eabi_attribute 21, 1
   6              		.eabi_attribute 23, 3
   7              		.eabi_attribute 24, 1
   8              		.eabi_attribute 25, 1
   9              		.eabi_attribute 26, 1
  10              		.eabi_attribute 30, 2
  11              		.eabi_attribute 34, 1
  12              		.eabi_attribute 18, 4
  13              		.file	"chpipes.c"
  14              		.text
  15              	.Ltext0:
  16              		.cfi_sections	.debug_frame
  17              		.align	1
  18              		.p2align 4,,15
  19              		.global	chPipeObjectInit
  20              		.arch armv7e-m
  21              		.syntax unified
  22              		.thumb
  23              		.thumb_func
  24              		.fpu fpv4-sp-d16
  25              		.type	chPipeObjectInit, %function
  26              	chPipeObjectInit:
  27              	.LVL0:
  28              	.LFB325:
  29              		.file 1 "../../../external/ChibiOS/os/oslib/src/chpipes.c"
  30              		.loc 1 207 59 view -0
  31              		.cfi_startproc
  32              		@ args = 0, pretend = 0, frame = 0
  33              		@ frame_needed = 0, uses_anonymous_args = 0
  34              		.loc 1 209 3 view .LVU1
  35              		.loc 1 209 3 view .LVU2
  36              		.loc 1 211 3 view .LVU3
  37              		.loc 1 207 59 is_stmt 0 view .LVU4
  38 0000 10B5     		push	{r4, lr}
  39              		.cfi_def_cfa_offset 8
  40              		.cfi_offset 4, -8
  41              		.cfi_offset 14, -4
  42              		.loc 1 215 14 view .LVU5
  43 0002 0023     		movs	r3, #0
  44              		.loc 1 207 59 view .LVU6
  45 0004 0446     		mov	r4, r0
  46              		.loc 1 214 16 view .LVU7
  47 0006 0A44     		add	r2, r2, r1
  48              	.LVL1:
  49              		.loc 1 211 14 view .LVU8
  50 0008 0160     		str	r1, [r0]
  51              		.loc 1 212 3 is_stmt 1 view .LVU9
  52              		.loc 1 212 14 is_stmt 0 view .LVU10
  53 000a C160     		str	r1, [r0, #12]
  54              		.loc 1 213 3 is_stmt 1 view .LVU11
  55              		.loc 1 219 3 is_stmt 0 view .LVU12
  56 000c 2030     		adds	r0, r0, #32
  57              	.LVL2:
ARM GAS  /tmp/cclFO1DK.s 			page 2


  58              		.loc 1 215 14 view .LVU13
  59 000e 2361     		str	r3, [r4, #16]
  60              		.loc 1 216 14 view .LVU14
  61 0010 2375     		strb	r3, [r4, #20]
  62              		.loc 1 213 14 view .LVU15
  63 0012 C4E90121 		strd	r2, r1, [r4, #4]
  64              		.loc 1 214 3 is_stmt 1 view .LVU16
  65              		.loc 1 215 3 view .LVU17
  66              		.loc 1 216 3 view .LVU18
  67              		.loc 1 217 3 view .LVU19
  68              		.loc 1 218 14 is_stmt 0 view .LVU20
  69 0016 C4E90633 		strd	r3, r3, [r4, #24]
  70              		.loc 1 219 3 is_stmt 1 view .LVU21
  71 001a FFF7FEFF 		bl	chMtxObjectInit
  72              	.LVL3:
  73              		.loc 1 220 3 view .LVU22
  74 001e 04F13000 		add	r0, r4, #48
  75 0022 FFF7FEFF 		bl	chMtxObjectInit
  76              	.LVL4:
  77              		.loc 1 221 3 view .LVU23
  78 0026 04F14000 		add	r0, r4, #64
  79              		.loc 1 222 1 is_stmt 0 view .LVU24
  80 002a BDE81040 		pop	{r4, lr}
  81              		.cfi_restore 14
  82              		.cfi_restore 4
  83              		.cfi_def_cfa_offset 0
  84              	.LVL5:
  85              		.loc 1 221 3 view .LVU25
  86 002e FFF7FEBF 		b	chMtxObjectInit
  87              	.LVL6:
  88              		.loc 1 221 3 view .LVU26
  89              		.cfi_endproc
  90              	.LFE325:
  91              		.size	chPipeObjectInit, .-chPipeObjectInit
  92              		.align	1
  93 0032 00BFAFF3 		.p2align 4,,15
  93      0080AFF3 
  93      0080AFF3 
  93      0080
  94              		.global	chPipeReset
  95              		.syntax unified
  96              		.thumb
  97              		.thumb_func
  98              		.fpu fpv4-sp-d16
  99              		.type	chPipeReset, %function
 100              	chPipeReset:
 101              	.LVL7:
 102              	.LFB326:
 103              		.loc 1 236 30 is_stmt 1 view -0
 104              		.cfi_startproc
 105              		@ args = 0, pretend = 0, frame = 0
 106              		@ frame_needed = 0, uses_anonymous_args = 0
 107              		.loc 1 238 3 view .LVU28
 108              		.loc 1 238 3 view .LVU29
 109              		.loc 1 240 3 view .LVU30
 110              		.loc 1 236 30 is_stmt 0 view .LVU31
 111 0040 70B5     		push	{r4, r5, r6, lr}
ARM GAS  /tmp/cclFO1DK.s 			page 3


 112              		.cfi_def_cfa_offset 16
 113              		.cfi_offset 4, -16
 114              		.cfi_offset 5, -12
 115              		.cfi_offset 6, -8
 116              		.cfi_offset 14, -4
 117              		.loc 1 240 3 view .LVU32
 118 0042 00F12005 		add	r5, r0, #32
 119              		.loc 1 236 30 view .LVU33
 120 0046 0446     		mov	r4, r0
 121              		.loc 1 244 13 view .LVU34
 122 0048 0026     		movs	r6, #0
 123              		.loc 1 240 3 view .LVU35
 124 004a 2846     		mov	r0, r5
 125              	.LVL8:
 126              		.loc 1 240 3 view .LVU36
 127 004c FFF7FEFF 		bl	chMtxLock
 128              	.LVL9:
 129              		.loc 1 242 3 is_stmt 1 view .LVU37
 130              		.loc 1 245 13 is_stmt 0 view .LVU38
 131 0050 0121     		movs	r1, #1
 132              		.loc 1 242 17 view .LVU39
 133 0052 2368     		ldr	r3, [r4]
 134              	.LBB64:
 135              	.LBB65:
 136              	.LBB66:
 137              	.LBB67:
 138              		.file 2 "../../../external/ChibiOS/os/common/ext/ARM/CMSIS/Core/Include/cmsis_gcc.h"
 139              		.loc 2 493 3 view .LVU40
 140 0054 2022     		movs	r2, #32
 141              	.LBE67:
 142              	.LBE66:
 143              	.LBE65:
 144              	.LBE64:
 145              		.loc 1 245 13 view .LVU41
 146 0056 2175     		strb	r1, [r4, #20]
 147              		.loc 1 244 13 view .LVU42
 148 0058 2661     		str	r6, [r4, #16]
 149              		.loc 1 243 13 view .LVU43
 150 005a C4E90233 		strd	r3, r3, [r4, #8]
 151              		.loc 1 244 3 is_stmt 1 view .LVU44
 152              		.loc 1 245 3 view .LVU45
 153              		.loc 1 247 3 view .LVU46
 154              	.LBB72:
 155              	.LBI64:
 156              		.file 3 "../../../external/ChibiOS/os/rt/include/chsys.h"
 157              		.loc 3 353 20 view .LVU47
 158              	.LBE72:
 159              		.loc 3 355 3 view .LVU48
 160              	.LBB73:
 161              	.LBB70:
 162              	.LBI65:
 163              		.file 4 "../../../external/ChibiOS/os/common/ports/ARMCMx/chcore_v7m.h"
 164              		.loc 4 669 27 view .LVU49
 165              	.LBE70:
 166              	.LBE73:
 167              		.loc 4 677 3 view .LVU50
 168              	.LVL10:
ARM GAS  /tmp/cclFO1DK.s 			page 4


 169              	.LBB74:
 170              	.LBB71:
 171              	.LBB69:
 172              	.LBI66:
 173              		.loc 2 491 27 view .LVU51
 174              	.LBB68:
 175              		.loc 2 493 3 view .LVU52
 176              		.syntax unified
 177              	@ 493 "../../../external/ChibiOS/os/common/ext/ARM/CMSIS/Core/Include/cmsis_gcc.h" 1
 178 005e 82F31188 		MSR basepri, r2
 179              	@ 0 "" 2
 180              	.LVL11:
 181              		.loc 2 493 3 is_stmt 0 view .LVU53
 182              		.thumb
 183              		.syntax unified
 184              	.LBE68:
 185              	.LBE69:
 186              	.LBE71:
 187              	.LBE74:
 188              		.loc 3 356 34 is_stmt 1 view .LVU54
 189              		.loc 3 357 20 view .LVU55
 190              		.loc 1 248 3 view .LVU56
 191 0062 6FF00101 		mvn	r1, #1
 192 0066 04F11800 		add	r0, r4, #24
 193 006a FFF7FEFF 		bl	chThdResumeI
 194              	.LVL12:
 195              		.loc 1 249 3 view .LVU57
 196 006e 04F11C00 		add	r0, r4, #28
 197 0072 6FF00101 		mvn	r1, #1
 198 0076 FFF7FEFF 		bl	chThdResumeI
 199              	.LVL13:
 200              		.loc 1 250 3 view .LVU58
 201 007a FFF7FEFF 		bl	chSchRescheduleS
 202              	.LVL14:
 203              		.loc 1 251 3 view .LVU59
 204              	.LBB75:
 205              	.LBI75:
 206              		.loc 3 365 20 view .LVU60
 207              	.LBB76:
 208              		.loc 3 367 22 view .LVU61
 209              		.loc 3 368 33 view .LVU62
 210              		.loc 3 374 3 view .LVU63
 211              		.loc 3 374 3 view .LVU64
 212              		.loc 3 378 3 view .LVU65
 213              	.LBB77:
 214              	.LBI77:
 215              		.loc 4 693 27 view .LVU66
 216              	.LBE77:
 217              	.LBE76:
 218              	.LBE75:
 219              		.loc 4 696 3 view .LVU67
 220              	.LBB82:
 221              	.LBB81:
 222              	.LBB80:
 223              	.LBB78:
 224              	.LBI78:
 225              		.loc 2 491 27 view .LVU68
ARM GAS  /tmp/cclFO1DK.s 			page 5


 226              	.LBB79:
 227              		.loc 2 493 3 view .LVU69
 228              		.syntax unified
 229              	@ 493 "../../../external/ChibiOS/os/common/ext/ARM/CMSIS/Core/Include/cmsis_gcc.h" 1
 230 007e 86F31188 		MSR basepri, r6
 231              	@ 0 "" 2
 232              	.LVL15:
 233              		.loc 2 493 3 is_stmt 0 view .LVU70
 234              		.thumb
 235              		.syntax unified
 236              	.LBE79:
 237              	.LBE78:
 238              	.LBE80:
 239              	.LBE81:
 240              	.LBE82:
 241              		.loc 1 253 3 is_stmt 1 view .LVU71
 242 0082 2846     		mov	r0, r5
 243              		.loc 1 254 1 is_stmt 0 view .LVU72
 244 0084 BDE87040 		pop	{r4, r5, r6, lr}
 245              		.cfi_restore 14
 246              		.cfi_restore 6
 247              		.cfi_restore 5
 248              		.cfi_restore 4
 249              		.cfi_def_cfa_offset 0
 250              	.LVL16:
 251              		.loc 1 253 3 view .LVU73
 252 0088 FFF7FEBF 		b	chMtxUnlock
 253              	.LVL17:
 254              		.loc 1 253 3 view .LVU74
 255              		.cfi_endproc
 256              	.LFE326:
 257              		.size	chPipeReset, .-chPipeReset
 258              		.align	1
 259 008c AFF30080 		.p2align 4,,15
 260              		.global	chPipeWriteTimeout
 261              		.syntax unified
 262              		.thumb
 263              		.thumb_func
 264              		.fpu fpv4-sp-d16
 265              		.type	chPipeWriteTimeout, %function
 266              	chPipeWriteTimeout:
 267              	.LVL18:
 268              	.LFB327:
 269              		.loc 1 279 60 is_stmt 1 view -0
 270              		.cfi_startproc
 271              		@ args = 0, pretend = 0, frame = 16
 272              		@ frame_needed = 0, uses_anonymous_args = 0
 273              		.loc 1 280 3 view .LVU76
 274              		.loc 1 279 60 is_stmt 0 view .LVU77
 275 0090 2DE9F04F 		push	{r4, r5, r6, r7, r8, r9, r10, fp, lr}
 276              		.cfi_def_cfa_offset 36
 277              		.cfi_offset 4, -36
 278              		.cfi_offset 5, -32
 279              		.cfi_offset 6, -28
 280              		.cfi_offset 7, -24
 281              		.cfi_offset 8, -20
 282              		.cfi_offset 9, -16
ARM GAS  /tmp/cclFO1DK.s 			page 6


 283              		.cfi_offset 10, -12
 284              		.cfi_offset 11, -8
 285              		.cfi_offset 14, -4
 286 0094 9A46     		mov	r10, r3
 287 0096 85B0     		sub	sp, sp, #20
 288              		.cfi_def_cfa_offset 56
 289              		.loc 1 285 6 view .LVU78
 290 0098 037D     		ldrb	r3, [r0, #20]	@ zero_extendqisi2
 291              	.LVL19:
 292              		.loc 1 279 60 view .LVU79
 293 009a 0292     		str	r2, [sp, #8]
 294              	.LVL20:
 295              		.loc 1 282 3 is_stmt 1 view .LVU80
 296              		.loc 1 282 3 view .LVU81
 297              		.loc 1 285 3 view .LVU82
 298              		.loc 1 285 6 is_stmt 0 view .LVU83
 299 009c 2BB1     		cbz	r3, .L25
 300              		.loc 1 286 12 view .LVU84
 301 009e 4FF00008 		mov	r8, #0
 302              		.loc 1 319 1 view .LVU85
 303 00a2 4046     		mov	r0, r8
 304              	.LVL21:
 305              		.loc 1 319 1 view .LVU86
 306 00a4 05B0     		add	sp, sp, #20
 307              		.cfi_remember_state
 308              		.cfi_def_cfa_offset 36
 309              		@ sp needed
 310 00a6 BDE8F08F 		pop	{r4, r5, r6, r7, r8, r9, r10, fp, pc}
 311              	.LVL22:
 312              	.L25:
 313              		.cfi_restore_state
 314              		.loc 1 289 3 is_stmt 1 view .LVU87
 315 00aa 00F13003 		add	r3, r0, #48
 316 00ae 1446     		mov	r4, r2
 317 00b0 0546     		mov	r5, r0
 318 00b2 0F46     		mov	r7, r1
 319 00b4 1846     		mov	r0, r3
 320              	.LVL23:
 321              		.loc 1 289 3 is_stmt 0 view .LVU88
 322 00b6 0393     		str	r3, [sp, #12]
 323 00b8 FFF7FEFF 		bl	chMtxLock
 324              	.LVL24:
 325              		.loc 1 291 3 is_stmt 1 view .LVU89
 326              		.loc 1 291 9 is_stmt 0 view .LVU90
 327 00bc B4B3     		cbz	r4, .L15
 328              	.LVL25:
 329              	.LBB100:
 330              		.loc 1 312 7 view .LVU91
 331 00be 05F11C03 		add	r3, r5, #28
 332 00c2 05F12009 		add	r9, r5, #32
 333              	.LBE100:
 334              		.loc 1 291 9 view .LVU92
 335 00c6 DDF80880 		ldr	r8, [sp, #8]
 336              	.LBB144:
 337              		.loc 1 312 7 view .LVU93
 338 00ca 0193     		str	r3, [sp, #4]
 339              	.LVL26:
ARM GAS  /tmp/cclFO1DK.s 			page 7


 340              	.L16:
 341              		.loc 1 292 5 is_stmt 1 view .LVU94
 342              		.loc 1 294 5 view .LVU95
 343              	.LBB101:
 344              	.LBI101:
 345              		.loc 1 105 15 view .LVU96
 346              	.LBB102:
 347              		.loc 1 106 3 view .LVU97
 348              		.loc 1 108 3 view .LVU98
 349 00cc 4846     		mov	r0, r9
 350 00ce FFF7FEFF 		bl	chMtxLock
 351              	.LVL27:
 352              		.loc 1 111 3 view .LVU99
 353              	.LBB103:
 354              	.LBI103:
 355              		.file 5 "../../../external/ChibiOS/os/oslib/include/chpipes.h"
 356              		.loc 5 187 22 view .LVU100
 357              	.LBB104:
 358              		.loc 5 189 3 view .LVU101
 359              	.LBE104:
 360              	.LBE103:
 361              		.loc 1 125 8 view .LVU102
 362              	.LBB110:
 363              	.LBB107:
 364              		.loc 5 189 30 is_stmt 0 view .LVU103
 365 00d2 2B69     		ldr	r3, [r5, #16]
 366              	.LVL28:
 367              		.loc 5 189 30 view .LVU104
 368              	.LBE107:
 369              	.LBE110:
 370              	.LBE102:
 371              	.LBE101:
 372              	.LBE144:
 373              		.loc 5 176 3 is_stmt 1 view .LVU105
 374              	.LBB145:
 375              	.LBB116:
 376              	.LBB113:
 377              		.loc 1 118 29 is_stmt 0 view .LVU106
 378 00d4 D5F808C0 		ldr	ip, [r5, #8]
 379              	.LBB111:
 380              	.LBB108:
 381              	.LBB105:
 382              	.LBB106:
 383              		.loc 5 162 27 view .LVU107
 384 00d8 D5E90046 		ldrd	r4, r6, [r5]
 385 00dc 341B     		subs	r4, r6, r4
 386              	.LBE106:
 387              	.LBE105:
 388              	.LBE108:
 389              	.LBE111:
 390              		.loc 1 118 25 view .LVU108
 391 00de A6EB0C06 		sub	r6, r6, ip
 392              	.LBB112:
 393              	.LBB109:
 394              		.loc 5 189 28 view .LVU109
 395 00e2 E41A     		subs	r4, r4, r3
 396 00e4 4445     		cmp	r4, r8
ARM GAS  /tmp/cclFO1DK.s 			page 8


 397 00e6 28BF     		it	cs
 398 00e8 4446     		movcs	r4, r8
 399              	.LVL29:
 400              		.loc 5 189 28 view .LVU110
 401              	.LBE109:
 402              	.LBE112:
 403              		.loc 1 114 3 is_stmt 1 view .LVU111
 404              		.loc 1 114 11 is_stmt 0 view .LVU112
 405 00ea 2344     		add	r3, r3, r4
 406              		.loc 1 121 6 view .LVU113
 407 00ec B442     		cmp	r4, r6
 408              		.loc 1 114 11 view .LVU114
 409 00ee 2B61     		str	r3, [r5, #16]
 410              		.loc 1 118 3 is_stmt 1 view .LVU115
 411              	.LVL30:
 412              		.loc 1 121 3 view .LVU116
 413              		.loc 1 121 6 is_stmt 0 view .LVU117
 414 00f0 3FD3     		bcc	.L26
 415              		.loc 1 126 5 is_stmt 1 view .LVU118
 416              		.loc 1 133 5 view .LVU119
 417              		.loc 1 128 8 is_stmt 0 view .LVU120
 418 00f2 A4EB060B 		sub	fp, r4, r6
 419              		.loc 1 126 5 view .LVU121
 420 00f6 3246     		mov	r2, r6
 421 00f8 3946     		mov	r1, r7
 422 00fa 6046     		mov	r0, ip
 423              		.loc 1 125 11 view .LVU122
 424 00fc 1FD9     		bls	.L12
 425              		.loc 1 126 5 view .LVU123
 426 00fe FFF7FEFF 		bl	memcpy
 427              	.LVL31:
 428              		.loc 1 127 5 is_stmt 1 view .LVU124
 429              		.loc 1 128 5 view .LVU125
 430              		.loc 1 129 5 view .LVU126
 431 0102 B919     		adds	r1, r7, r6
 432              	.LVL32:
 433              		.loc 1 129 5 is_stmt 0 view .LVU127
 434 0104 5A46     		mov	r2, fp
 435 0106 2868     		ldr	r0, [r5]
 436 0108 FFF7FEFF 		bl	memcpy
 437              	.LVL33:
 438              		.loc 1 130 5 is_stmt 1 view .LVU128
 439              		.loc 1 130 28 is_stmt 0 view .LVU129
 440 010c 2B68     		ldr	r3, [r5]
 441              		.loc 1 137 3 view .LVU130
 442 010e 4846     		mov	r0, r9
 443              		.loc 1 130 28 view .LVU131
 444 0110 5B44     		add	r3, r3, fp
 445              		.loc 1 130 15 view .LVU132
 446 0112 AB60     		str	r3, [r5, #8]
 447              		.loc 1 137 3 is_stmt 1 view .LVU133
 448 0114 FFF7FEFF 		bl	chMtxUnlock
 449              	.LVL34:
 450              		.loc 1 139 3 view .LVU134
 451              		.loc 1 139 3 is_stmt 0 view .LVU135
 452              	.LBE113:
 453              	.LBE116:
ARM GAS  /tmp/cclFO1DK.s 			page 9


 454              		.loc 1 295 5 is_stmt 1 view .LVU136
 455              	.L13:
 456              		.loc 1 308 7 view .LVU137
 457              		.loc 1 308 10 is_stmt 0 view .LVU138
 458 0118 A8EB0408 		sub	r8, r8, r4
 459              	.LVL35:
 460              		.loc 1 309 7 is_stmt 1 view .LVU139
 461              		.loc 1 312 7 is_stmt 0 view .LVU140
 462 011c 0021     		movs	r1, #0
 463 011e 0198     		ldr	r0, [sp, #4]
 464              		.loc 1 309 10 view .LVU141
 465 0120 2744     		add	r7, r7, r4
 466              	.LVL36:
 467              		.loc 1 312 7 is_stmt 1 view .LVU142
 468 0122 FFF7FEFF 		bl	chThdResume
 469              	.LVL37:
 470              		.loc 1 312 7 is_stmt 0 view .LVU143
 471              	.LBE145:
 472              		.loc 1 291 9 view .LVU144
 473 0126 B8F1000F 		cmp	r8, #0
 474 012a CFD1     		bne	.L16
 475              	.LVL38:
 476              	.L15:
 477              		.loc 1 291 9 view .LVU145
 478 012c DDF80880 		ldr	r8, [sp, #8]
 479              	.L9:
 480              		.loc 1 316 3 is_stmt 1 view .LVU146
 481 0130 0398     		ldr	r0, [sp, #12]
 482 0132 FFF7FEFF 		bl	chMtxUnlock
 483              	.LVL39:
 484              		.loc 1 318 3 view .LVU147
 485              		.loc 1 319 1 is_stmt 0 view .LVU148
 486 0136 4046     		mov	r0, r8
 487 0138 05B0     		add	sp, sp, #20
 488              		.cfi_remember_state
 489              		.cfi_def_cfa_offset 36
 490              		@ sp needed
 491 013a BDE8F08F 		pop	{r4, r5, r6, r7, r8, r9, r10, fp, pc}
 492              	.LVL40:
 493              	.L12:
 494              		.cfi_restore_state
 495              	.LBB146:
 496              	.LBB117:
 497              	.LBB114:
 498              		.loc 1 133 5 view .LVU149
 499 013e 2246     		mov	r2, r4
 500              	.LVL41:
 501              		.loc 1 133 5 view .LVU150
 502 0140 FFF7FEFF 		bl	memcpy
 503              	.LVL42:
 504              		.loc 1 134 5 is_stmt 1 view .LVU151
 505              		.loc 1 134 15 is_stmt 0 view .LVU152
 506 0144 2B68     		ldr	r3, [r5]
 507 0146 AB60     		str	r3, [r5, #8]
 508              	.L11:
 509              		.loc 1 137 3 is_stmt 1 view .LVU153
 510 0148 4846     		mov	r0, r9
ARM GAS  /tmp/cclFO1DK.s 			page 10


 511 014a FFF7FEFF 		bl	chMtxUnlock
 512              	.LVL43:
 513              		.loc 1 139 3 view .LVU154
 514              		.loc 1 139 3 is_stmt 0 view .LVU155
 515              	.LBE114:
 516              	.LBE117:
 517              		.loc 1 295 5 is_stmt 1 view .LVU156
 518              	.LBB118:
 519              		.loc 1 296 7 view .LVU157
 520              		.loc 1 298 7 view .LVU158
 521              	.LBB119:
 522              	.LBI119:
 523              		.loc 3 353 20 view .LVU159
 524              	.LBE119:
 525              	.LBE118:
 526              	.LBE146:
 527              		.loc 3 355 3 view .LVU160
 528              	.LBB147:
 529              	.LBB138:
 530              	.LBB127:
 531              	.LBB120:
 532              	.LBI120:
 533              		.loc 4 669 27 view .LVU161
 534              	.LBE120:
 535              	.LBE127:
 536              	.LBE138:
 537              	.LBE147:
 538              		.loc 4 677 3 view .LVU162
 539              	.LBB148:
 540              	.LBB139:
 541              	.LBB128:
 542              	.LBB125:
 543              	.LBB121:
 544              	.LBI121:
 545              		.loc 2 491 27 view .LVU163
 546              	.LBB122:
 547              		.loc 2 493 3 view .LVU164
 548              	.LBE122:
 549              	.LBE121:
 550              	.LBE125:
 551              	.LBE128:
 552              	.LBE139:
 553              		.loc 1 295 8 is_stmt 0 view .LVU165
 554 014e 002C     		cmp	r4, #0
 555 0150 E2D1     		bne	.L13
 556              	.LBB140:
 557              	.LBB129:
 558              	.LBB126:
 559              	.LBB124:
 560              	.LBB123:
 561              		.loc 2 493 3 view .LVU166
 562 0152 2023     		movs	r3, #32
 563              		.syntax unified
 564              	@ 493 "../../../external/ChibiOS/os/common/ext/ARM/CMSIS/Core/Include/cmsis_gcc.h" 1
 565 0154 83F31188 		MSR basepri, r3
 566              	@ 0 "" 2
 567              	.LVL44:
ARM GAS  /tmp/cclFO1DK.s 			page 11


 568              		.loc 2 493 3 view .LVU167
 569              		.thumb
 570              		.syntax unified
 571              	.LBE123:
 572              	.LBE124:
 573              	.LBE126:
 574              	.LBE129:
 575              	.LBE140:
 576              	.LBE148:
 577              		.loc 3 356 34 is_stmt 1 view .LVU168
 578              		.loc 3 357 20 view .LVU169
 579              	.LBB149:
 580              	.LBB141:
 581              		.loc 1 299 7 view .LVU170
 582              		.loc 1 299 13 is_stmt 0 view .LVU171
 583 0158 5146     		mov	r1, r10
 584 015a 05F11800 		add	r0, r5, #24
 585 015e FFF7FEFF 		bl	chThdSuspendTimeoutS
 586              	.LVL45:
 587              		.loc 1 300 7 is_stmt 1 view .LVU172
 588              	.LBB130:
 589              	.LBI130:
 590              		.loc 3 365 20 view .LVU173
 591              	.LBB131:
 592              		.loc 3 367 22 view .LVU174
 593              		.loc 3 368 33 view .LVU175
 594              		.loc 3 374 3 view .LVU176
 595              		.loc 3 374 3 view .LVU177
 596              		.loc 3 378 3 view .LVU178
 597              	.LBB132:
 598              	.LBI132:
 599              		.loc 4 693 27 view .LVU179
 600              	.LBE132:
 601              	.LBE131:
 602              	.LBE130:
 603              	.LBE141:
 604              	.LBE149:
 605              		.loc 4 696 3 view .LVU180
 606              	.LBB150:
 607              	.LBB142:
 608              	.LBB137:
 609              	.LBB136:
 610              	.LBB135:
 611              	.LBB133:
 612              	.LBI133:
 613              		.loc 2 491 27 view .LVU181
 614              	.LBB134:
 615              		.loc 2 493 3 view .LVU182
 616              		.syntax unified
 617              	@ 493 "../../../external/ChibiOS/os/common/ext/ARM/CMSIS/Core/Include/cmsis_gcc.h" 1
 618 0162 84F31188 		MSR basepri, r4
 619              	@ 0 "" 2
 620              	.LVL46:
 621              		.loc 2 493 3 is_stmt 0 view .LVU183
 622              		.thumb
 623              		.syntax unified
 624              	.LBE134:
ARM GAS  /tmp/cclFO1DK.s 			page 12


 625              	.LBE133:
 626              	.LBE135:
 627              	.LBE136:
 628              	.LBE137:
 629              		.loc 1 303 7 is_stmt 1 view .LVU184
 630              		.loc 1 303 10 is_stmt 0 view .LVU185
 631 0166 0028     		cmp	r0, #0
 632 0168 B0D0     		beq	.L16
 633 016a 029B     		ldr	r3, [sp, #8]
 634 016c A3EB0808 		sub	r8, r3, r8
 635              	.LVL47:
 636              		.loc 1 303 10 view .LVU186
 637 0170 DEE7     		b	.L9
 638              	.LVL48:
 639              	.L26:
 640              		.loc 1 303 10 view .LVU187
 641              	.LBE142:
 642              	.LBB143:
 643              	.LBB115:
 644              		.loc 1 122 5 is_stmt 1 view .LVU188
 645 0172 6046     		mov	r0, ip
 646 0174 2246     		mov	r2, r4
 647 0176 3946     		mov	r1, r7
 648 0178 FFF7FEFF 		bl	memcpy
 649              	.LVL49:
 650              		.loc 1 123 5 view .LVU189
 651              		.loc 1 123 15 is_stmt 0 view .LVU190
 652 017c AB68     		ldr	r3, [r5, #8]
 653 017e 2344     		add	r3, r3, r4
 654 0180 AB60     		str	r3, [r5, #8]
 655 0182 E1E7     		b	.L11
 656              	.LBE115:
 657              	.LBE143:
 658              	.LBE150:
 659              		.cfi_endproc
 660              	.LFE327:
 661              		.size	chPipeWriteTimeout, .-chPipeWriteTimeout
 662              		.align	1
 663 0184 AFF30080 		.p2align 4,,15
 663      AFF30080 
 663      AFF30080 
 664              		.global	chPipeReadTimeout
 665              		.syntax unified
 666              		.thumb
 667              		.thumb_func
 668              		.fpu fpv4-sp-d16
 669              		.type	chPipeReadTimeout, %function
 670              	chPipeReadTimeout:
 671              	.LVL50:
 672              	.LFB328:
 673              		.loc 1 344 59 is_stmt 1 view -0
 674              		.cfi_startproc
 675              		@ args = 0, pretend = 0, frame = 16
 676              		@ frame_needed = 0, uses_anonymous_args = 0
 677              		.loc 1 345 3 view .LVU192
 678              		.loc 1 344 59 is_stmt 0 view .LVU193
 679 0190 2DE9F04F 		push	{r4, r5, r6, r7, r8, r9, r10, fp, lr}
ARM GAS  /tmp/cclFO1DK.s 			page 13


 680              		.cfi_def_cfa_offset 36
 681              		.cfi_offset 4, -36
 682              		.cfi_offset 5, -32
 683              		.cfi_offset 6, -28
 684              		.cfi_offset 7, -24
 685              		.cfi_offset 8, -20
 686              		.cfi_offset 9, -16
 687              		.cfi_offset 10, -12
 688              		.cfi_offset 11, -8
 689              		.cfi_offset 14, -4
 690 0194 9A46     		mov	r10, r3
 691 0196 85B0     		sub	sp, sp, #20
 692              		.cfi_def_cfa_offset 56
 693              		.loc 1 350 6 view .LVU194
 694 0198 037D     		ldrb	r3, [r0, #20]	@ zero_extendqisi2
 695              	.LVL51:
 696              		.loc 1 344 59 view .LVU195
 697 019a 0292     		str	r2, [sp, #8]
 698              	.LVL52:
 699              		.loc 1 347 3 is_stmt 1 view .LVU196
 700              		.loc 1 347 3 view .LVU197
 701              		.loc 1 350 3 view .LVU198
 702              		.loc 1 350 6 is_stmt 0 view .LVU199
 703 019c 2BB1     		cbz	r3, .L46
 704              		.loc 1 351 12 view .LVU200
 705 019e 4FF00008 		mov	r8, #0
 706              		.loc 1 384 1 view .LVU201
 707 01a2 4046     		mov	r0, r8
 708              	.LVL53:
 709              		.loc 1 384 1 view .LVU202
 710 01a4 05B0     		add	sp, sp, #20
 711              		.cfi_remember_state
 712              		.cfi_def_cfa_offset 36
 713              		@ sp needed
 714 01a6 BDE8F08F 		pop	{r4, r5, r6, r7, r8, r9, r10, fp, pc}
 715              	.LVL54:
 716              	.L46:
 717              		.cfi_restore_state
 718              		.loc 1 354 3 is_stmt 1 view .LVU203
 719 01aa 00F14003 		add	r3, r0, #64
 720 01ae 1546     		mov	r5, r2
 721 01b0 0446     		mov	r4, r0
 722 01b2 0F46     		mov	r7, r1
 723 01b4 1846     		mov	r0, r3
 724              	.LVL55:
 725              		.loc 1 354 3 is_stmt 0 view .LVU204
 726 01b6 0393     		str	r3, [sp, #12]
 727 01b8 FFF7FEFF 		bl	chMtxLock
 728              	.LVL56:
 729              		.loc 1 356 3 is_stmt 1 view .LVU205
 730              		.loc 1 356 9 is_stmt 0 view .LVU206
 731 01bc 9DB3     		cbz	r5, .L36
 732              	.LVL57:
 733              	.LBB164:
 734              		.loc 1 377 7 view .LVU207
 735 01be 04F11803 		add	r3, r4, #24
 736 01c2 04F12009 		add	r9, r4, #32
ARM GAS  /tmp/cclFO1DK.s 			page 14


 737              	.LBE164:
 738              		.loc 1 356 9 view .LVU208
 739 01c6 DDF80880 		ldr	r8, [sp, #8]
 740              	.LBB196:
 741              		.loc 1 377 7 view .LVU209
 742 01ca 0193     		str	r3, [sp, #4]
 743              	.LVL58:
 744              	.L37:
 745              		.loc 1 357 5 is_stmt 1 view .LVU210
 746              		.loc 1 359 5 view .LVU211
 747              	.LBB165:
 748              	.LBI165:
 749              		.loc 1 156 15 view .LVU212
 750              	.LBB166:
 751              		.loc 1 157 3 view .LVU213
 752              		.loc 1 159 3 view .LVU214
 753 01cc 4846     		mov	r0, r9
 754 01ce FFF7FEFF 		bl	chMtxLock
 755              	.LVL59:
 756              		.loc 1 162 3 view .LVU215
 757              		.loc 1 176 8 view .LVU216
 758              		.loc 1 169 25 is_stmt 0 view .LVU217
 759 01d2 6668     		ldr	r6, [r4, #4]
 760              		.loc 1 169 29 view .LVU218
 761 01d4 D4E903C3 		ldrd	ip, r3, [r4, #12]
 762 01d8 4345     		cmp	r3, r8
 763 01da 1D46     		mov	r5, r3
 764              		.loc 1 169 25 view .LVU219
 765 01dc A6EB0C06 		sub	r6, r6, ip
 766 01e0 28BF     		it	cs
 767 01e2 4546     		movcs	r5, r8
 768              	.LVL60:
 769              		.loc 1 165 3 is_stmt 1 view .LVU220
 770              		.loc 1 165 11 is_stmt 0 view .LVU221
 771 01e4 5B1B     		subs	r3, r3, r5
 772              		.loc 1 172 6 view .LVU222
 773 01e6 B542     		cmp	r5, r6
 774              		.loc 1 165 11 view .LVU223
 775 01e8 2361     		str	r3, [r4, #16]
 776              		.loc 1 169 3 is_stmt 1 view .LVU224
 777              	.LVL61:
 778              		.loc 1 172 3 view .LVU225
 779              		.loc 1 172 6 is_stmt 0 view .LVU226
 780 01ea 3FD3     		bcc	.L47
 781              		.loc 1 177 5 is_stmt 1 view .LVU227
 782              		.loc 1 184 5 view .LVU228
 783              		.loc 1 179 8 is_stmt 0 view .LVU229
 784 01ec A5EB060B 		sub	fp, r5, r6
 785              		.loc 1 177 5 view .LVU230
 786 01f0 3246     		mov	r2, r6
 787 01f2 6146     		mov	r1, ip
 788 01f4 3846     		mov	r0, r7
 789              		.loc 1 176 11 view .LVU231
 790 01f6 1FD9     		bls	.L33
 791              		.loc 1 177 5 view .LVU232
 792 01f8 FFF7FEFF 		bl	memcpy
 793              	.LVL62:
ARM GAS  /tmp/cclFO1DK.s 			page 15


 794              		.loc 1 178 5 is_stmt 1 view .LVU233
 795              		.loc 1 179 5 view .LVU234
 796              		.loc 1 180 5 view .LVU235
 797 01fc B819     		adds	r0, r7, r6
 798              	.LVL63:
 799              		.loc 1 180 5 is_stmt 0 view .LVU236
 800 01fe 5A46     		mov	r2, fp
 801 0200 2168     		ldr	r1, [r4]
 802 0202 FFF7FEFF 		bl	memcpy
 803              	.LVL64:
 804              		.loc 1 181 5 is_stmt 1 view .LVU237
 805              		.loc 1 181 28 is_stmt 0 view .LVU238
 806 0206 2368     		ldr	r3, [r4]
 807              		.loc 1 188 3 view .LVU239
 808 0208 4846     		mov	r0, r9
 809              		.loc 1 181 28 view .LVU240
 810 020a 5B44     		add	r3, r3, fp
 811              		.loc 1 181 15 view .LVU241
 812 020c E360     		str	r3, [r4, #12]
 813              		.loc 1 188 3 is_stmt 1 view .LVU242
 814 020e FFF7FEFF 		bl	chMtxUnlock
 815              	.LVL65:
 816              		.loc 1 190 3 view .LVU243
 817              		.loc 1 190 3 is_stmt 0 view .LVU244
 818              	.LBE166:
 819              	.LBE165:
 820              		.loc 1 360 5 is_stmt 1 view .LVU245
 821              	.L34:
 822              		.loc 1 373 7 view .LVU246
 823              		.loc 1 373 10 is_stmt 0 view .LVU247
 824 0212 A8EB0508 		sub	r8, r8, r5
 825              	.LVL66:
 826              		.loc 1 374 7 is_stmt 1 view .LVU248
 827              		.loc 1 377 7 is_stmt 0 view .LVU249
 828 0216 0021     		movs	r1, #0
 829 0218 0198     		ldr	r0, [sp, #4]
 830              		.loc 1 374 10 view .LVU250
 831 021a 2F44     		add	r7, r7, r5
 832              	.LVL67:
 833              		.loc 1 377 7 is_stmt 1 view .LVU251
 834 021c FFF7FEFF 		bl	chThdResume
 835              	.LVL68:
 836              		.loc 1 377 7 is_stmt 0 view .LVU252
 837              	.LBE196:
 838              		.loc 1 356 9 view .LVU253
 839 0220 B8F1000F 		cmp	r8, #0
 840 0224 D2D1     		bne	.L37
 841              	.LVL69:
 842              	.L36:
 843              		.loc 1 356 9 view .LVU254
 844 0226 DDF80880 		ldr	r8, [sp, #8]
 845              	.L30:
 846              		.loc 1 381 3 is_stmt 1 view .LVU255
 847 022a 0398     		ldr	r0, [sp, #12]
 848 022c FFF7FEFF 		bl	chMtxUnlock
 849              	.LVL70:
 850              		.loc 1 383 3 view .LVU256
ARM GAS  /tmp/cclFO1DK.s 			page 16


 851              		.loc 1 384 1 is_stmt 0 view .LVU257
 852 0230 4046     		mov	r0, r8
 853 0232 05B0     		add	sp, sp, #20
 854              		.cfi_remember_state
 855              		.cfi_def_cfa_offset 36
 856              		@ sp needed
 857 0234 BDE8F08F 		pop	{r4, r5, r6, r7, r8, r9, r10, fp, pc}
 858              	.LVL71:
 859              	.L33:
 860              		.cfi_restore_state
 861              	.LBB197:
 862              	.LBB169:
 863              	.LBB167:
 864              		.loc 1 184 5 view .LVU258
 865 0238 2A46     		mov	r2, r5
 866              	.LVL72:
 867              		.loc 1 184 5 view .LVU259
 868 023a FFF7FEFF 		bl	memcpy
 869              	.LVL73:
 870              		.loc 1 185 5 is_stmt 1 view .LVU260
 871              		.loc 1 185 15 is_stmt 0 view .LVU261
 872 023e 2368     		ldr	r3, [r4]
 873 0240 E360     		str	r3, [r4, #12]
 874              	.L32:
 875              		.loc 1 188 3 is_stmt 1 view .LVU262
 876 0242 4846     		mov	r0, r9
 877 0244 FFF7FEFF 		bl	chMtxUnlock
 878              	.LVL74:
 879              		.loc 1 190 3 view .LVU263
 880              		.loc 1 190 3 is_stmt 0 view .LVU264
 881              	.LBE167:
 882              	.LBE169:
 883              		.loc 1 360 5 is_stmt 1 view .LVU265
 884              	.LBB170:
 885              		.loc 1 361 7 view .LVU266
 886              		.loc 1 363 7 view .LVU267
 887              	.LBB171:
 888              	.LBI171:
 889              		.loc 3 353 20 view .LVU268
 890              	.LBE171:
 891              	.LBE170:
 892              	.LBE197:
 893              		.loc 3 355 3 view .LVU269
 894              	.LBB198:
 895              	.LBB190:
 896              	.LBB179:
 897              	.LBB172:
 898              	.LBI172:
 899              		.loc 4 669 27 view .LVU270
 900              	.LBE172:
 901              	.LBE179:
 902              	.LBE190:
 903              	.LBE198:
 904              		.loc 4 677 3 view .LVU271
 905              	.LBB199:
 906              	.LBB191:
 907              	.LBB180:
ARM GAS  /tmp/cclFO1DK.s 			page 17


 908              	.LBB177:
 909              	.LBB173:
 910              	.LBI173:
 911              		.loc 2 491 27 view .LVU272
 912              	.LBB174:
 913              		.loc 2 493 3 view .LVU273
 914              	.LBE174:
 915              	.LBE173:
 916              	.LBE177:
 917              	.LBE180:
 918              	.LBE191:
 919              		.loc 1 360 8 is_stmt 0 view .LVU274
 920 0248 002D     		cmp	r5, #0
 921 024a E2D1     		bne	.L34
 922              	.LBB192:
 923              	.LBB181:
 924              	.LBB178:
 925              	.LBB176:
 926              	.LBB175:
 927              		.loc 2 493 3 view .LVU275
 928 024c 2023     		movs	r3, #32
 929              		.syntax unified
 930              	@ 493 "../../../external/ChibiOS/os/common/ext/ARM/CMSIS/Core/Include/cmsis_gcc.h" 1
 931 024e 83F31188 		MSR basepri, r3
 932              	@ 0 "" 2
 933              	.LVL75:
 934              		.loc 2 493 3 view .LVU276
 935              		.thumb
 936              		.syntax unified
 937              	.LBE175:
 938              	.LBE176:
 939              	.LBE178:
 940              	.LBE181:
 941              	.LBE192:
 942              	.LBE199:
 943              		.loc 3 356 34 is_stmt 1 view .LVU277
 944              		.loc 3 357 20 view .LVU278
 945              	.LBB200:
 946              	.LBB193:
 947              		.loc 1 364 7 view .LVU279
 948              		.loc 1 364 13 is_stmt 0 view .LVU280
 949 0252 5146     		mov	r1, r10
 950 0254 04F11C00 		add	r0, r4, #28
 951 0258 FFF7FEFF 		bl	chThdSuspendTimeoutS
 952              	.LVL76:
 953              		.loc 1 365 7 is_stmt 1 view .LVU281
 954              	.LBB182:
 955              	.LBI182:
 956              		.loc 3 365 20 view .LVU282
 957              	.LBB183:
 958              		.loc 3 367 22 view .LVU283
 959              		.loc 3 368 33 view .LVU284
 960              		.loc 3 374 3 view .LVU285
 961              		.loc 3 374 3 view .LVU286
 962              		.loc 3 378 3 view .LVU287
 963              	.LBB184:
 964              	.LBI184:
ARM GAS  /tmp/cclFO1DK.s 			page 18


 965              		.loc 4 693 27 view .LVU288
 966              	.LBE184:
 967              	.LBE183:
 968              	.LBE182:
 969              	.LBE193:
 970              	.LBE200:
 971              		.loc 4 696 3 view .LVU289
 972              	.LBB201:
 973              	.LBB194:
 974              	.LBB189:
 975              	.LBB188:
 976              	.LBB187:
 977              	.LBB185:
 978              	.LBI185:
 979              		.loc 2 491 27 view .LVU290
 980              	.LBB186:
 981              		.loc 2 493 3 view .LVU291
 982              		.syntax unified
 983              	@ 493 "../../../external/ChibiOS/os/common/ext/ARM/CMSIS/Core/Include/cmsis_gcc.h" 1
 984 025c 85F31188 		MSR basepri, r5
 985              	@ 0 "" 2
 986              	.LVL77:
 987              		.loc 2 493 3 is_stmt 0 view .LVU292
 988              		.thumb
 989              		.syntax unified
 990              	.LBE186:
 991              	.LBE185:
 992              	.LBE187:
 993              	.LBE188:
 994              	.LBE189:
 995              		.loc 1 368 7 is_stmt 1 view .LVU293
 996              		.loc 1 368 10 is_stmt 0 view .LVU294
 997 0260 0028     		cmp	r0, #0
 998 0262 B3D0     		beq	.L37
 999 0264 029B     		ldr	r3, [sp, #8]
 1000 0266 A3EB0808 		sub	r8, r3, r8
 1001              	.LVL78:
 1002              		.loc 1 368 10 view .LVU295
 1003 026a DEE7     		b	.L30
 1004              	.LVL79:
 1005              	.L47:
 1006              		.loc 1 368 10 view .LVU296
 1007              	.LBE194:
 1008              	.LBB195:
 1009              	.LBB168:
 1010              		.loc 1 173 5 is_stmt 1 view .LVU297
 1011 026c 6146     		mov	r1, ip
 1012 026e 2A46     		mov	r2, r5
 1013 0270 3846     		mov	r0, r7
 1014 0272 FFF7FEFF 		bl	memcpy
 1015              	.LVL80:
 1016              		.loc 1 174 5 view .LVU298
 1017              		.loc 1 174 15 is_stmt 0 view .LVU299
 1018 0276 E368     		ldr	r3, [r4, #12]
 1019 0278 2B44     		add	r3, r3, r5
 1020 027a E360     		str	r3, [r4, #12]
 1021 027c E1E7     		b	.L32
ARM GAS  /tmp/cclFO1DK.s 			page 19


 1022              	.LBE168:
 1023              	.LBE195:
 1024              	.LBE201:
 1025              		.cfi_endproc
 1026              	.LFE328:
 1027              		.size	chPipeReadTimeout, .-chPipeReadTimeout
 1028              	.Letext0:
 1029              		.file 6 "/home/nicolas/arm/gcc-arm-none-eabi-8-2019-q3-update/lib/gcc/arm-none-eabi/8.3.1/include/
 1030              		.file 7 "/home/nicolas/arm/gcc-arm-none-eabi-8-2019-q3-update/arm-none-eabi/include/machine/_defau
 1031              		.file 8 "/home/nicolas/arm/gcc-arm-none-eabi-8-2019-q3-update/arm-none-eabi/include/sys/_types.h"
 1032              		.file 9 "/home/nicolas/arm/gcc-arm-none-eabi-8-2019-q3-update/arm-none-eabi/include/sys/reent.h"
 1033              		.file 10 "/home/nicolas/arm/gcc-arm-none-eabi-8-2019-q3-update/arm-none-eabi/include/sys/lock.h"
 1034              		.file 11 "/home/nicolas/arm/gcc-arm-none-eabi-8-2019-q3-update/arm-none-eabi/include/sys/_stdint.h
 1035              		.file 12 "../../../external/ChibiOS/os/common/ports/ARMCMx/compilers/GCC/chtypes.h"
 1036              		.file 13 "../../../external/ChibiOS/os/rt/include/chsystypes.h"
 1037              		.file 14 "../../../external/ChibiOS/os/rt/include/chschd.h"
 1038              		.file 15 "../../../external/ChibiOS/os/rt/include/chtime.h"
 1039              		.file 16 "../../../external/ChibiOS/os/common/ext/ARM/CMSIS/Core/Include/core_cm7.h"
 1040              		.file 17 "../../../external/ChibiOS/os/common/ext/ST/STM32H7xx/system_stm32h7xx.h"
 1041              		.file 18 "../../../external/ChibiOS/os/common/ports/ARMCMx/chcore.h"
 1042              		.file 19 "../../../external/ChibiOS/os/rt/include/chtrace.h"
 1043              		.file 20 "../../../external/ChibiOS/os/rt/include/chtm.h"
 1044              		.file 21 "../../../external/ChibiOS/os/rt/include/chsem.h"
 1045              		.file 22 "../../../external/ChibiOS/os/rt/include/chmtx.h"
 1046              		.file 23 "../../../external/ChibiOS/os/rt/include/chregistry.h"
 1047              		.file 24 "../../../external/ChibiOS/os/oslib/include/chmemcore.h"
 1048              		.file 25 "../../../external/ChibiOS/os/oslib/include/chmempools.h"
 1049              		.file 26 "../../../external/ChibiOS/os/oslib/include/chfactory.h"
 1050              		.file 27 "../../../external/ChibiOS/os/rt/include/chthreads.h"
 1051              		.file 28 "<built-in>"