ARM GAS  /tmp/cc1YFoAo.s 			page 1


   1              		.cpu cortex-m7
   2              		.eabi_attribute 27, 1
   3              		.eabi_attribute 28, 1
   4              		.eabi_attribute 20, 1
   5              		.eabi_attribute 21, 1
   6              		.eabi_attribute 23, 3
   7              		.eabi_attribute 24, 1
   8              		.eabi_attribute 25, 1
   9              		.eabi_attribute 26, 1
  10              		.eabi_attribute 30, 2
  11              		.eabi_attribute 34, 1
  12              		.eabi_attribute 18, 4
  13              		.file	"chprintf.c"
  14              		.text
  15              	.Ltext0:
  16              		.cfi_sections	.debug_frame
  17              		.align	1
  18              		.p2align 4,,15
  19              		.global	chvprintf
  20              		.arch armv7e-m
  21              		.syntax unified
  22              		.thumb
  23              		.thumb_func
  24              		.fpu fpv4-sp-d16
  25              		.type	chvprintf, %function
  26              	chvprintf:
  27              	.LVL0:
  28              	.LFB364:
  29              		.file 1 "../../../external/ChibiOS/os/hal/lib/streams/chprintf.c"
  30              		.loc 1 125 71 view -0
  31              		.cfi_startproc
  32              		@ args = 0, pretend = 0, frame = 24
  33              		@ frame_needed = 0, uses_anonymous_args = 0
  34              		.loc 1 125 71 is_stmt 0 view .LVU1
  35 0000 2DE9F04F 		push	{r4, r5, r6, r7, r8, r9, r10, fp, lr}
  36              		.cfi_def_cfa_offset 36
  37              		.cfi_offset 4, -36
  38              		.cfi_offset 5, -32
  39              		.cfi_offset 6, -28
  40              		.cfi_offset 7, -24
  41              		.cfi_offset 8, -20
  42              		.cfi_offset 9, -16
  43              		.cfi_offset 10, -12
  44              		.cfi_offset 11, -8
  45              		.cfi_offset 14, -4
  46 0004 0446     		mov	r4, r0
  47 0006 87B0     		sub	sp, sp, #28
  48              		.cfi_def_cfa_offset 64
  49              		.loc 1 125 71 view .LVU2
  50 0008 0D46     		mov	r5, r1
  51 000a 9246     		mov	r10, r2
  52              	.LVL1:
  53              		.loc 1 126 3 is_stmt 1 view .LVU3
  54              		.loc 1 127 3 view .LVU4
  55              		.loc 1 128 3 view .LVU5
  56              		.loc 1 128 7 is_stmt 0 view .LVU6
  57 000c 4FF00008 		mov	r8, #0
ARM GAS  /tmp/cc1YFoAo.s 			page 2


  58              	.LVL2:
  59              	.L2:
  60              		.loc 1 129 3 is_stmt 1 view .LVU7
  61              		.loc 1 130 3 view .LVU8
  62              		.loc 1 135 3 view .LVU9
  63              		.loc 1 138 3 view .LVU10
  64              		.loc 1 139 5 view .LVU11
  65              		.loc 1 139 13 is_stmt 0 view .LVU12
  66 0010 2A46     		mov	r2, r5
  67              	.LVL3:
  68              		.loc 1 139 7 view .LVU13
  69 0012 12F8011B 		ldrb	r1, [r2], #1	@ zero_extendqisi2
  70              	.LVL4:
  71              		.loc 1 140 5 is_stmt 1 view .LVU14
  72              		.loc 1 140 8 is_stmt 0 view .LVU15
  73 0016 69B1     		cbz	r1, .L1
  74              	.LVL5:
  75              	.L127:
  76              		.loc 1 144 5 is_stmt 1 view .LVU16
  77              		.loc 1 144 8 is_stmt 0 view .LVU17
  78 0018 2529     		cmp	r1, #37
  79 001a 0FD0     		beq	.L4
  80              		.loc 1 145 7 is_stmt 1 view .LVU18
  81 001c 2368     		ldr	r3, [r4]
  82              		.loc 1 139 13 is_stmt 0 view .LVU19
  83 001e 1546     		mov	r5, r2
  84              	.LVL6:
  85              		.loc 1 145 7 view .LVU20
  86 0020 2046     		mov	r0, r4
  87              		.loc 1 146 8 view .LVU21
  88 0022 08F10108 		add	r8, r8, #1
  89              	.LVL7:
  90              		.loc 1 145 7 view .LVU22
  91 0026 DB68     		ldr	r3, [r3, #12]
  92 0028 9847     		blx	r3
  93              	.LVL8:
  94              		.loc 1 146 7 is_stmt 1 view .LVU23
  95              		.loc 1 147 7 view .LVU24
  96              		.loc 1 129 3 view .LVU25
  97              		.loc 1 130 3 view .LVU26
  98              		.loc 1 135 3 view .LVU27
  99              		.loc 1 138 3 view .LVU28
 100              		.loc 1 139 5 view .LVU29
 101              		.loc 1 139 13 is_stmt 0 view .LVU30
 102 002a 2A46     		mov	r2, r5
 103              		.loc 1 139 7 view .LVU31
 104 002c 12F8011B 		ldrb	r1, [r2], #1	@ zero_extendqisi2
 105              	.LVL9:
 106              		.loc 1 140 5 is_stmt 1 view .LVU32
 107              		.loc 1 140 8 is_stmt 0 view .LVU33
 108 0030 0029     		cmp	r1, #0
 109 0032 F1D1     		bne	.L127
 110              	.LVL10:
 111              	.L1:
 112              		.loc 1 339 1 view .LVU34
 113 0034 4046     		mov	r0, r8
 114 0036 07B0     		add	sp, sp, #28
ARM GAS  /tmp/cc1YFoAo.s 			page 3


 115              		.cfi_remember_state
 116              		.cfi_def_cfa_offset 36
 117              		@ sp needed
 118 0038 BDE8F08F 		pop	{r4, r5, r6, r7, r8, r9, r10, fp, pc}
 119              	.LVL11:
 120              	.L4:
 121              		.cfi_restore_state
 122              		.loc 1 150 5 is_stmt 1 view .LVU35
 123              		.loc 1 151 5 view .LVU36
 124              		.loc 1 154 5 view .LVU37
 125              		.loc 1 155 5 view .LVU38
 126              		.loc 1 155 9 is_stmt 0 view .LVU39
 127 003c 6B78     		ldrb	r3, [r5, #1]	@ zero_extendqisi2
 128              		.loc 1 155 8 view .LVU40
 129 003e 2D2B     		cmp	r3, #45
 130 0040 00F0B980 		beq	.L128
 131              		.loc 1 154 16 view .LVU41
 132 0044 0020     		movs	r0, #0
 133              	.LVL12:
 134              	.L6:
 135              		.loc 1 161 5 is_stmt 1 view .LVU42
 136              		.loc 1 162 5 view .LVU43
 137              		.loc 1 162 8 is_stmt 0 view .LVU44
 138 0046 2B2B     		cmp	r3, #43
 139 0048 00F0B180 		beq	.L129
 140              		.loc 1 161 13 view .LVU45
 141 004c 0027     		movs	r7, #0
 142              	.LVL13:
 143              	.L7:
 144              		.loc 1 168 5 is_stmt 1 view .LVU46
 145              		.loc 1 169 5 view .LVU47
 146              		.loc 1 169 8 is_stmt 0 view .LVU48
 147 004e 302B     		cmp	r3, #48
 148 0050 00F0A980 		beq	.L130
 149              		.loc 1 168 12 view .LVU49
 150 0054 2026     		movs	r6, #32
 151              	.LVL14:
 152              	.L8:
 153              		.loc 1 175 5 is_stmt 1 view .LVU50
 154              		.loc 1 175 8 is_stmt 0 view .LVU51
 155 0056 2A2B     		cmp	r3, #42
 156 0058 4ED1     		bne	.L9
 157              		.loc 1 176 7 is_stmt 1 view .LVU52
 158              		.loc 1 176 13 is_stmt 0 view .LVU53
 159 005a D446     		mov	ip, r10
 160              	.LVL15:
 161              		.loc 1 178 15 view .LVU54
 162 005c 951C     		adds	r5, r2, #2
 163              		.loc 1 178 9 view .LVU55
 164 005e 5378     		ldrb	r3, [r2, #1]	@ zero_extendqisi2
 165              		.loc 1 176 13 view .LVU56
 166 0060 5CF8042B 		ldr	r2, [ip], #4
 167              	.LVL16:
 168              		.loc 1 177 7 is_stmt 1 view .LVU57
 169              		.loc 1 178 7 view .LVU58
 170              	.L10:
 171              		.loc 1 198 5 view .LVU59
ARM GAS  /tmp/cc1YFoAo.s 			page 4


 172              		.loc 1 199 5 view .LVU60
 173              		.loc 1 199 8 is_stmt 0 view .LVU61
 174 0064 2E2B     		cmp	r3, #46
 175 0066 05F1010E 		add	lr, r5, #1
 176 006a 00F0A880 		beq	.L131
 177              		.loc 1 198 15 view .LVU62
 178 006e 4FF0000B 		mov	fp, #0
 179              	.LVL17:
 180              	.L13:
 181              		.loc 1 221 5 is_stmt 1 view .LVU63
 182              		.loc 1 221 8 is_stmt 0 view .LVU64
 183 0072 03F0DF01 		and	r1, r3, #223
 184 0076 4C29     		cmp	r1, #76
 185 0078 58D1     		bne	.L16
 186              		.loc 1 222 7 is_stmt 1 view .LVU65
 187              	.LVL18:
 188              		.loc 1 223 7 view .LVU66
 189              		.loc 1 223 9 is_stmt 0 view .LVU67
 190 007a 2B78     		ldrb	r3, [r5]	@ zero_extendqisi2
 191              	.LVL19:
 192              		.loc 1 224 7 is_stmt 1 view .LVU68
 193              		.loc 1 224 10 is_stmt 0 view .LVU69
 194 007c 002B     		cmp	r3, #0
 195 007e D9D0     		beq	.L1
 196              		.loc 1 233 5 is_stmt 1 view .LVU70
 197 0080 A3F14401 		sub	r1, r3, #68
 198 0084 3429     		cmp	r1, #52
 199 0086 00F23B81 		bhi	.L82
 200 008a DFE811F0 		tbh	[pc, r1, lsl #1]
 201              	.LVL20:
 202              	.L61:
 203 008e C901     		.2byte	(.L63-.L61)/2
 204 0090 3901     		.2byte	(.L82-.L61)/2
 205 0092 3901     		.2byte	(.L82-.L61)/2
 206 0094 3901     		.2byte	(.L82-.L61)/2
 207 0096 3901     		.2byte	(.L82-.L61)/2
 208 0098 C901     		.2byte	(.L63-.L61)/2
 209 009a 3901     		.2byte	(.L82-.L61)/2
 210 009c 3901     		.2byte	(.L82-.L61)/2
 211 009e 3901     		.2byte	(.L82-.L61)/2
 212 00a0 3901     		.2byte	(.L82-.L61)/2
 213 00a2 3901     		.2byte	(.L82-.L61)/2
 214 00a4 DA01     		.2byte	(.L62-.L61)/2
 215 00a6 BB01     		.2byte	(.L60-.L61)/2
 216 00a8 3901     		.2byte	(.L82-.L61)/2
 217 00aa 3901     		.2byte	(.L82-.L61)/2
 218 00ac 3901     		.2byte	(.L82-.L61)/2
 219 00ae 3901     		.2byte	(.L82-.L61)/2
 220 00b0 C201     		.2byte	(.L40-.L61)/2
 221 00b2 3901     		.2byte	(.L82-.L61)/2
 222 00b4 3901     		.2byte	(.L82-.L61)/2
 223 00b6 BB01     		.2byte	(.L60-.L61)/2
 224 00b8 3901     		.2byte	(.L82-.L61)/2
 225 00ba 3901     		.2byte	(.L82-.L61)/2
 226 00bc 3901     		.2byte	(.L82-.L61)/2
 227 00be 3901     		.2byte	(.L82-.L61)/2
 228 00c0 3901     		.2byte	(.L82-.L61)/2
ARM GAS  /tmp/cc1YFoAo.s 			page 5


 229 00c2 3901     		.2byte	(.L82-.L61)/2
 230 00c4 3901     		.2byte	(.L82-.L61)/2
 231 00c6 3901     		.2byte	(.L82-.L61)/2
 232 00c8 3901     		.2byte	(.L82-.L61)/2
 233 00ca 3901     		.2byte	(.L82-.L61)/2
 234 00cc EB00     		.2byte	(.L83-.L61)/2
 235 00ce C901     		.2byte	(.L63-.L61)/2
 236 00d0 3901     		.2byte	(.L82-.L61)/2
 237 00d2 3901     		.2byte	(.L82-.L61)/2
 238 00d4 3901     		.2byte	(.L82-.L61)/2
 239 00d6 3901     		.2byte	(.L82-.L61)/2
 240 00d8 C901     		.2byte	(.L63-.L61)/2
 241 00da 3901     		.2byte	(.L82-.L61)/2
 242 00dc 3901     		.2byte	(.L82-.L61)/2
 243 00de 3901     		.2byte	(.L82-.L61)/2
 244 00e0 3901     		.2byte	(.L82-.L61)/2
 245 00e2 3901     		.2byte	(.L82-.L61)/2
 246 00e4 DA01     		.2byte	(.L62-.L61)/2
 247 00e6 BB01     		.2byte	(.L60-.L61)/2
 248 00e8 3901     		.2byte	(.L82-.L61)/2
 249 00ea 3901     		.2byte	(.L82-.L61)/2
 250 00ec BE00     		.2byte	(.L84-.L61)/2
 251 00ee 3901     		.2byte	(.L82-.L61)/2
 252 00f0 C201     		.2byte	(.L40-.L61)/2
 253 00f2 3901     		.2byte	(.L82-.L61)/2
 254 00f4 3901     		.2byte	(.L82-.L61)/2
 255 00f6 BB01     		.2byte	(.L60-.L61)/2
 256              		.p2align 1
 257              	.L9:
 258              		.loc 1 182 7 view .LVU71
 259              		.loc 1 183 9 view .LVU72
 260              		.loc 1 183 17 is_stmt 0 view .LVU73
 261 00f8 551C     		adds	r5, r2, #1
 262              	.LVL21:
 263              		.loc 1 184 9 is_stmt 1 view .LVU74
 264              		.loc 1 184 12 is_stmt 0 view .LVU75
 265 00fa 002B     		cmp	r3, #0
 266 00fc 9AD0     		beq	.L1
 267              		.loc 1 187 9 is_stmt 1 view .LVU76
 268              		.loc 1 187 22 is_stmt 0 view .LVU77
 269 00fe A3F13001 		sub	r1, r3, #48
 270 0102 C9B2     		uxtb	r1, r1
 271              		.loc 1 187 12 view .LVU78
 272 0104 0929     		cmp	r1, #9
 273 0106 00F2C681 		bhi	.L132
 274              		.loc 1 181 13 view .LVU79
 275 010a 0022     		movs	r2, #0
 276              	.LVL22:
 277              		.loc 1 181 13 view .LVU80
 278 010c 03E0     		b	.L11
 279              	.LVL23:
 280              	.L117:
 281              		.loc 1 187 22 view .LVU81
 282 010e 5FFA8CF1 		uxtb	r1, ip
 283              		.loc 1 187 12 view .LVU82
 284 0112 0929     		cmp	r1, #9
 285 0114 60D8     		bhi	.L133
ARM GAS  /tmp/cc1YFoAo.s 			page 6


 286              	.LVL24:
 287              	.L11:
 288              		.loc 1 187 9 is_stmt 1 view .LVU83
 289              		.loc 1 188 11 view .LVU84
 290              		.loc 1 189 11 view .LVU85
 291              		.loc 1 189 25 is_stmt 0 view .LVU86
 292 0116 02EB8202 		add	r2, r2, r2, lsl #2
 293              	.LVL25:
 294              		.loc 1 183 11 view .LVU87
 295 011a 15F8013B 		ldrb	r3, [r5], #1	@ zero_extendqisi2
 296              	.LVL26:
 297              		.loc 1 189 17 view .LVU88
 298 011e 01EB4202 		add	r2, r1, r2, lsl #1
 299              	.LVL27:
 300              		.loc 1 182 7 is_stmt 1 view .LVU89
 301              		.loc 1 183 9 view .LVU90
 302              		.loc 1 184 9 view .LVU91
 303              		.loc 1 187 22 is_stmt 0 view .LVU92
 304 0122 A3F1300C 		sub	ip, r3, #48
 305              		.loc 1 184 12 view .LVU93
 306 0126 002B     		cmp	r3, #0
 307 0128 F1D1     		bne	.L117
 308 012a 83E7     		b	.L1
 309              	.LVL28:
 310              	.L16:
 311              		.loc 1 229 7 is_stmt 1 view .LVU94
 312              		.loc 1 233 5 is_stmt 0 view .LVU95
 313 012c A3F1440E 		sub	lr, r3, #68
 314              	.LVL29:
 315              		.loc 1 233 5 is_stmt 1 view .LVU96
 316 0130 BEF1340F 		cmp	lr, #52
 317 0134 00F2E580 		bhi	.L18
 318 0138 DFE81EF0 		tbh	[pc, lr, lsl #1]
 319              	.L20:
 320 013c 2A01     		.2byte	(.L24-.L20)/2
 321 013e E300     		.2byte	(.L18-.L20)/2
 322 0140 E300     		.2byte	(.L18-.L20)/2
 323 0142 E300     		.2byte	(.L18-.L20)/2
 324 0144 E300     		.2byte	(.L18-.L20)/2
 325 0146 2A01     		.2byte	(.L24-.L20)/2
 326 0148 E300     		.2byte	(.L18-.L20)/2
 327 014a E300     		.2byte	(.L18-.L20)/2
 328 014c E300     		.2byte	(.L18-.L20)/2
 329 014e E300     		.2byte	(.L18-.L20)/2
 330 0150 E300     		.2byte	(.L18-.L20)/2
 331 0152 6101     		.2byte	(.L23-.L20)/2
 332 0154 2701     		.2byte	(.L19-.L20)/2
 333 0156 E300     		.2byte	(.L18-.L20)/2
 334 0158 E300     		.2byte	(.L18-.L20)/2
 335 015a E300     		.2byte	(.L18-.L20)/2
 336 015c E300     		.2byte	(.L18-.L20)/2
 337 015e F700     		.2byte	(.L73-.L20)/2
 338 0160 E300     		.2byte	(.L18-.L20)/2
 339 0162 E300     		.2byte	(.L18-.L20)/2
 340 0164 2701     		.2byte	(.L19-.L20)/2
 341 0166 E300     		.2byte	(.L18-.L20)/2
 342 0168 E300     		.2byte	(.L18-.L20)/2
ARM GAS  /tmp/cc1YFoAo.s 			page 7


 343 016a E300     		.2byte	(.L18-.L20)/2
 344 016c E300     		.2byte	(.L18-.L20)/2
 345 016e E300     		.2byte	(.L18-.L20)/2
 346 0170 E300     		.2byte	(.L18-.L20)/2
 347 0172 E300     		.2byte	(.L18-.L20)/2
 348 0174 E300     		.2byte	(.L18-.L20)/2
 349 0176 E300     		.2byte	(.L18-.L20)/2
 350 0178 E300     		.2byte	(.L18-.L20)/2
 351 017a 9500     		.2byte	(.L25-.L20)/2
 352 017c 2A01     		.2byte	(.L24-.L20)/2
 353 017e E300     		.2byte	(.L18-.L20)/2
 354 0180 E300     		.2byte	(.L18-.L20)/2
 355 0182 E300     		.2byte	(.L18-.L20)/2
 356 0184 E300     		.2byte	(.L18-.L20)/2
 357 0186 2A01     		.2byte	(.L24-.L20)/2
 358 0188 E300     		.2byte	(.L18-.L20)/2
 359 018a E300     		.2byte	(.L18-.L20)/2
 360 018c E300     		.2byte	(.L18-.L20)/2
 361 018e E300     		.2byte	(.L18-.L20)/2
 362 0190 E300     		.2byte	(.L18-.L20)/2
 363 0192 6101     		.2byte	(.L23-.L20)/2
 364 0194 2701     		.2byte	(.L19-.L20)/2
 365 0196 E300     		.2byte	(.L18-.L20)/2
 366 0198 E300     		.2byte	(.L18-.L20)/2
 367 019a 6800     		.2byte	(.L22-.L20)/2
 368 019c E300     		.2byte	(.L18-.L20)/2
 369 019e F700     		.2byte	(.L73-.L20)/2
 370 01a0 E300     		.2byte	(.L18-.L20)/2
 371 01a2 E300     		.2byte	(.L18-.L20)/2
 372 01a4 2701     		.2byte	(.L19-.L20)/2
 373              	.LVL30:
 374              		.p2align 1
 375              	.L130:
 376              		.loc 1 170 7 view .LVU97
 377              		.loc 1 171 7 view .LVU98
 378              		.loc 1 171 14 is_stmt 0 view .LVU99
 379 01a6 1E46     		mov	r6, r3
 380              		.loc 1 170 10 view .LVU100
 381 01a8 0132     		adds	r2, r2, #1
 382              	.LVL31:
 383              		.loc 1 170 10 view .LVU101
 384 01aa 1378     		ldrb	r3, [r2]	@ zero_extendqisi2
 385 01ac 53E7     		b	.L8
 386              	.LVL32:
 387              	.L129:
 388              		.loc 1 163 7 is_stmt 1 view .LVU102
 389              		.loc 1 164 7 view .LVU103
 390              		.loc 1 164 15 is_stmt 0 view .LVU104
 391 01ae 0127     		movs	r7, #1
 392 01b0 5378     		ldrb	r3, [r2, #1]	@ zero_extendqisi2
 393              		.loc 1 163 10 view .LVU105
 394 01b2 3A44     		add	r2, r2, r7
 395              	.LVL33:
 396              		.loc 1 163 10 view .LVU106
 397 01b4 4BE7     		b	.L7
 398              	.LVL34:
 399              	.L128:
ARM GAS  /tmp/cc1YFoAo.s 			page 8


 400              		.loc 1 156 7 is_stmt 1 view .LVU107
 401              		.loc 1 156 10 is_stmt 0 view .LVU108
 402 01b6 AA1C     		adds	r2, r5, #2
 403              	.LVL35:
 404              		.loc 1 157 7 is_stmt 1 view .LVU109
 405              		.loc 1 157 7 is_stmt 0 view .LVU110
 406 01b8 AB78     		ldrb	r3, [r5, #2]	@ zero_extendqisi2
 407              		.loc 1 157 18 view .LVU111
 408 01ba 0120     		movs	r0, #1
 409 01bc 43E7     		b	.L6
 410              	.LVL36:
 411              	.L131:
 412              		.loc 1 200 7 is_stmt 1 view .LVU112
 413              		.loc 1 200 9 is_stmt 0 view .LVU113
 414 01be 2B78     		ldrb	r3, [r5]	@ zero_extendqisi2
 415              	.LVL37:
 416              		.loc 1 201 7 is_stmt 1 view .LVU114
 417              		.loc 1 201 10 is_stmt 0 view .LVU115
 418 01c0 002B     		cmp	r3, #0
 419 01c2 3FF437AF 		beq	.L1
 420              		.loc 1 204 7 is_stmt 1 view .LVU116
 421              		.loc 1 204 10 is_stmt 0 view .LVU117
 422 01c6 2A2B     		cmp	r3, #42
 423 01c8 08D1     		bne	.L72
 424              		.loc 1 205 9 is_stmt 1 view .LVU118
 425              		.loc 1 206 11 is_stmt 0 view .LVU119
 426 01ca 6B78     		ldrb	r3, [r5, #1]	@ zero_extendqisi2
 427              	.LVL38:
 428              		.loc 1 206 11 view .LVU120
 429 01cc 05F1030E 		add	lr, r5, #3
 430              		.loc 1 205 19 view .LVU121
 431 01d0 5CF804BB 		ldr	fp, [ip], #4
 432              	.LVL39:
 433              		.loc 1 206 9 is_stmt 1 view .LVU122
 434              		.loc 1 206 17 is_stmt 0 view .LVU123
 435 01d4 0235     		adds	r5, r5, #2
 436 01d6 4CE7     		b	.L13
 437              	.LVL40:
 438              	.L133:
 439              		.loc 1 206 17 view .LVU124
 440 01d8 D446     		mov	ip, r10
 441 01da 43E7     		b	.L10
 442              	.LVL41:
 443              	.L72:
 444              		.loc 1 198 15 view .LVU125
 445 01dc 4FF0000B 		mov	fp, #0
 446 01e0 07E0     		b	.L14
 447              	.LVL42:
 448              	.L15:
 449              		.loc 1 212 13 view .LVU126
 450 01e2 19F8013C 		ldrb	r3, [r9, #-1]	@ zero_extendqisi2
 451              		.loc 1 211 21 view .LVU127
 452 01e6 01EB450B 		add	fp, r1, r5, lsl #1
 453              	.LVL43:
 454              		.loc 1 212 11 is_stmt 1 view .LVU128
 455              		.loc 1 213 11 view .LVU129
 456              		.loc 1 213 11 is_stmt 0 view .LVU130
ARM GAS  /tmp/cc1YFoAo.s 			page 9


 457 01ea CE46     		mov	lr, r9
 458              		.loc 1 213 14 view .LVU131
 459 01ec 002B     		cmp	r3, #0
 460 01ee 3FF421AF 		beq	.L1
 461              	.LVL44:
 462              	.L14:
 463              		.loc 1 210 11 is_stmt 1 view .LVU132
 464              		.loc 1 209 25 is_stmt 0 view .LVU133
 465 01f2 A3F13001 		sub	r1, r3, #48
 466 01f6 0EF10109 		add	r9, lr, #1
 467              		.loc 1 211 33 view .LVU134
 468 01fa 0BEB8B05 		add	r5, fp, fp, lsl #2
 469              		.loc 1 209 25 view .LVU135
 470 01fe C9B2     		uxtb	r1, r1
 471              	.LVL45:
 472              		.loc 1 211 11 is_stmt 1 view .LVU136
 473              		.loc 1 209 15 is_stmt 0 view .LVU137
 474 0200 0929     		cmp	r1, #9
 475 0202 EED9     		bls	.L15
 476              		.loc 1 209 15 view .LVU138
 477 0204 7546     		mov	r5, lr
 478              	.LVL46:
 479              		.loc 1 209 15 view .LVU139
 480 0206 CE46     		mov	lr, r9
 481 0208 33E7     		b	.L13
 482              	.LVL47:
 483              	.L84:
 484              		.loc 1 223 15 view .LVU140
 485 020a 7546     		mov	r5, lr
 486              	.LVL48:
 487              	.L22:
 488              		.loc 1 239 7 is_stmt 1 view .LVU141
 489              		.loc 1 240 7 view .LVU142
 490              		.loc 1 240 14 is_stmt 0 view .LVU143
 491 020c E246     		mov	r10, ip
 492              	.LVL49:
 493              		.loc 1 240 14 view .LVU144
 494 020e 5AF8043B 		ldr	r3, [r10], #4
 495              	.LVL50:
 496              		.loc 1 240 10 view .LVU145
 497 0212 002B     		cmp	r3, #0
 498 0214 00F03681 		beq	.L134
 499 0218 1978     		ldrb	r1, [r3]	@ zero_extendqisi2
 500              	.LVL51:
 501              		.loc 1 243 7 is_stmt 1 view .LVU146
 502              		.loc 1 243 10 is_stmt 0 view .LVU147
 503 021a BBF1000F 		cmp	fp, #0
 504 021e 40F01781 		bne	.L135
 505              	.LVL52:
 506              		.loc 1 246 7 view .LVU148
 507 0222 0029     		cmp	r1, #0
 508 0224 00F04181 		beq	.L136
 509              	.LVL53:
 510              	.L85:
 511              		.loc 1 246 22 view .LVU149
 512 0228 47F6FE77 		movw	r7, #32766
 513              	.LVL54:
ARM GAS  /tmp/cc1YFoAo.s 			page 10


 514              	.L28:
 515              		.loc 1 246 22 discriminator 4 view .LVU150
 516 022c 9B46     		mov	fp, r3
 517 022e 01E0     		b	.L32
 518              	.LVL55:
 519              	.L31:
 520              		.loc 1 246 22 discriminator 3 view .LVU151
 521 0230 FE42     		cmn	r6, r7
 522 0232 05D4     		bmi	.L125
 523              	.LVL56:
 524              	.L32:
 525              		.loc 1 247 9 is_stmt 1 discriminator 4 view .LVU152
 526              		.loc 1 246 7 is_stmt 0 discriminator 4 view .LVU153
 527 0234 1BF8011F 		ldrb	r1, [fp, #1]!	@ zero_extendqisi2
 528              	.LVL57:
 529              		.loc 1 246 7 discriminator 4 view .LVU154
 530 0238 A3EB0B06 		sub	r6, r3, fp
 531 023c 0029     		cmp	r1, #0
 532 023e F7D1     		bne	.L31
 533              	.L125:
 534 0240 ABEB030B 		sub	fp, fp, r3
 535              	.LVL58:
 536              		.loc 1 239 14 view .LVU155
 537 0244 2026     		movs	r6, #32
 538 0246 A2EB0B07 		sub	r7, r2, fp
 539              		.loc 1 239 14 view .LVU156
 540 024a 0BF1FF31 		add	r1, fp, #-1
 541              		.loc 1 311 8 view .LVU157
 542 024e 002F     		cmp	r7, #0
 543 0250 0091     		str	r1, [sp]
 544              	.LVL59:
 545              		.loc 1 310 5 is_stmt 1 view .LVU158
 546              		.loc 1 311 5 view .LVU159
 547              		.loc 1 311 8 is_stmt 0 view .LVU160
 548 0252 16DA     		bge	.L47
 549              	.LVL60:
 550              	.L137:
 551              		.loc 1 312 7 is_stmt 1 view .LVU161
 552              		.loc 1 314 5 view .LVU162
 553              		.loc 1 314 8 is_stmt 0 view .LVU163
 554 0254 0028     		cmp	r0, #0
 555 0256 62D1     		bne	.L51
 556              		.loc 1 328 11 view .LVU164
 557 0258 009A     		ldr	r2, [sp]
 558 025a 002A     		cmp	r2, #0
 559 025c FFF6D8AE 		blt	.L2
 560              		.loc 1 315 13 view .LVU165
 561 0260 0746     		mov	r7, r0
 562 0262 2CE0     		b	.L57
 563              	.LVL61:
 564              	.L83:
 565              		.loc 1 223 15 view .LVU166
 566 0264 7546     		mov	r5, lr
 567              	.LVL62:
 568              	.L25:
 569              		.loc 1 235 7 is_stmt 1 view .LVU167
 570              		.loc 1 236 7 view .LVU168
ARM GAS  /tmp/cc1YFoAo.s 			page 11


 571              		.loc 1 237 7 is_stmt 0 view .LVU169
 572 0266 0023     		movs	r3, #0
 573              	.LVL63:
 574              		.loc 1 236 14 view .LVU170
 575 0268 E246     		mov	r10, ip
 576              	.LVL64:
 577              		.loc 1 236 14 view .LVU171
 578 026a 571E     		subs	r7, r2, #1
 579              	.LVL65:
 580              		.loc 1 237 7 view .LVU172
 581 026c 4FF0010B 		mov	fp, #1
 582              	.LVL66:
 583              		.loc 1 237 7 view .LVU173
 584 0270 0093     		str	r3, [sp]
 585              		.loc 1 235 14 view .LVU174
 586 0272 2026     		movs	r6, #32
 587              		.loc 1 236 12 view .LVU175
 588 0274 5AF8041B 		ldr	r1, [r10], #4
 589              	.LVL67:
 590              		.loc 1 151 7 view .LVU176
 591 0278 03AB     		add	r3, sp, #12
 592              	.LVL68:
 593              		.loc 1 236 12 view .LVU177
 594 027a 8DF80C10 		strb	r1, [sp, #12]
 595              		.loc 1 237 7 is_stmt 1 view .LVU178
 596              	.LVL69:
 597              	.L26:
 598              		.loc 1 310 5 view .LVU179
 599              		.loc 1 311 5 view .LVU180
 600              		.loc 1 311 8 is_stmt 0 view .LVU181
 601 027e 002F     		cmp	r7, #0
 602 0280 E8DB     		blt	.L137
 603              	.L47:
 604              		.loc 1 314 5 is_stmt 1 view .LVU182
 605              		.loc 1 314 8 is_stmt 0 view .LVU183
 606 0282 0028     		cmp	r0, #0
 607 0284 47D1     		bne	.L50
 608              		.loc 1 315 7 is_stmt 1 view .LVU184
 609              	.LVL70:
 610              		.loc 1 317 5 view .LVU185
 611              		.loc 1 317 8 is_stmt 0 view .LVU186
 612 0286 BBEB020B 		subs	fp, fp, r2
 613              	.LVL71:
 614              		.loc 1 317 8 view .LVU187
 615 028a 48D0     		beq	.L51
 616              		.loc 1 318 7 is_stmt 1 view .LVU188
 617              		.loc 1 318 10 is_stmt 0 view .LVU189
 618 028c 1978     		ldrb	r1, [r3]	@ zero_extendqisi2
 619 028e 2268     		ldr	r2, [r4]
 620              		.loc 1 318 21 view .LVU190
 621 0290 2D29     		cmp	r1, #45
 622 0292 D268     		ldr	r2, [r2, #12]
 623 0294 02D1     		bne	.L52
 624 0296 302E     		cmp	r6, #48
 625 0298 00F0E780 		beq	.L138
 626              	.LVL72:
 627              	.L52:
ARM GAS  /tmp/cc1YFoAo.s 			page 12


 628              		.loc 1 239 14 discriminator 1 view .LVU191
 629 029c 5F46     		mov	r7, fp
 630 029e 9946     		mov	r9, r3
 631 02a0 01E0     		b	.L54
 632              	.LVL73:
 633              	.L139:
 634              		.loc 1 239 14 discriminator 1 view .LVU192
 635 02a2 2368     		ldr	r3, [r4]
 636 02a4 DA68     		ldr	r2, [r3, #12]
 637              	.LVL74:
 638              	.L54:
 639              		.loc 1 323 7 is_stmt 1 discriminator 1 view .LVU193
 640              		.loc 1 324 9 discriminator 1 view .LVU194
 641 02a6 3146     		mov	r1, r6
 642 02a8 2046     		mov	r0, r4
 643 02aa 9047     		blx	r2
 644              	.LVL75:
 645              		.loc 1 325 9 discriminator 1 view .LVU195
 646              		.loc 1 326 7 is_stmt 0 discriminator 1 view .LVU196
 647 02ac 0137     		adds	r7, r7, #1
 648              	.LVL76:
 649              		.loc 1 326 7 discriminator 1 view .LVU197
 650 02ae F8D1     		bne	.L139
 651              		.loc 1 328 11 view .LVU198
 652 02b0 009A     		ldr	r2, [sp]
 653 02b2 4B46     		mov	r3, r9
 654 02b4 A8EB0B08 		sub	r8, r8, fp
 655              	.LVL77:
 656              		.loc 1 328 11 view .LVU199
 657 02b8 002A     		cmp	r2, #0
 658 02ba FFF6A9AE 		blt	.L2
 659              	.LVL78:
 660              	.L57:
 661              		.loc 1 312 13 view .LVU200
 662 02be 9946     		mov	r9, r3
 663 02c0 009B     		ldr	r3, [sp]
 664 02c2 09EB030B 		add	fp, r9, r3
 665              	.LVL79:
 666              	.L55:
 667              		.loc 1 329 7 is_stmt 1 view .LVU201
 668              		.loc 1 329 7 is_stmt 0 view .LVU202
 669 02c6 2368     		ldr	r3, [r4]
 670 02c8 2046     		mov	r0, r4
 671 02ca 19F8011B 		ldrb	r1, [r9], #1	@ zero_extendqisi2
 672              	.LVL80:
 673              		.loc 1 329 7 view .LVU203
 674 02ce DB68     		ldr	r3, [r3, #12]
 675 02d0 9847     		blx	r3
 676              	.LVL81:
 677              		.loc 1 330 7 is_stmt 1 view .LVU204
 678              		.loc 1 330 7 is_stmt 0 view .LVU205
 679 02d2 ABEB0903 		sub	r3, fp, r9
 680              		.loc 1 328 11 view .LVU206
 681 02d6 002B     		cmp	r3, #0
 682 02d8 F5DA     		bge	.L55
 683 02da 08F10108 		add	r8, r8, #1
 684 02de 009B     		ldr	r3, [sp]
ARM GAS  /tmp/cc1YFoAo.s 			page 13


 685 02e0 4344     		add	r3, r3, r8
 686 02e2 9846     		mov	r8, r3
 687              	.LVL82:
 688              	.L56:
 689              		.loc 1 333 11 view .LVU207
 690 02e4 002F     		cmp	r7, #0
 691 02e6 3FF493AE 		beq	.L2
 692 02ea B946     		mov	r9, r7
 693              	.LVL83:
 694              	.L58:
 695              		.loc 1 334 7 is_stmt 1 view .LVU208
 696 02ec 2368     		ldr	r3, [r4]
 697 02ee 3146     		mov	r1, r6
 698 02f0 2046     		mov	r0, r4
 699 02f2 DB68     		ldr	r3, [r3, #12]
 700 02f4 9847     		blx	r3
 701              	.LVL84:
 702              		.loc 1 335 7 view .LVU209
 703              		.loc 1 336 7 view .LVU210
 704              		.loc 1 333 11 is_stmt 0 view .LVU211
 705 02f6 B9F10109 		subs	r9, r9, #1
 706              	.LVL85:
 707              		.loc 1 333 11 view .LVU212
 708 02fa F7D1     		bne	.L58
 709 02fc B844     		add	r8, r8, r7
 710 02fe 87E6     		b	.L2
 711              	.LVL86:
 712              	.L82:
 713              		.loc 1 223 15 view .LVU213
 714 0300 7546     		mov	r5, lr
 715              	.LVL87:
 716              	.L18:
 717              		.loc 1 307 7 is_stmt 1 view .LVU214
 718              		.loc 1 307 12 is_stmt 0 view .LVU215
 719 0302 8DF80C30 		strb	r3, [sp, #12]
 720              		.loc 1 308 7 is_stmt 1 view .LVU216
 721 0306 0023     		movs	r3, #0
 722              	.LVL88:
 723              		.loc 1 308 7 is_stmt 0 view .LVU217
 724 0308 E246     		mov	r10, ip
 725 030a 571E     		subs	r7, r2, #1
 726              	.LVL89:
 727              		.loc 1 308 7 view .LVU218
 728 030c 0093     		str	r3, [sp]
 729 030e 4FF0010B 		mov	fp, #1
 730              	.LVL90:
 731              		.loc 1 151 7 view .LVU219
 732 0312 03AB     		add	r3, sp, #12
 733              	.LVL91:
 734              		.loc 1 308 7 view .LVU220
 735 0314 B3E7     		b	.L26
 736              	.LVL92:
 737              	.L50:
 738              		.loc 1 328 11 view .LVU221
 739 0316 009A     		ldr	r2, [sp]
 740 0318 002A     		cmp	r2, #0
 741 031a D0DA     		bge	.L57
ARM GAS  /tmp/cc1YFoAo.s 			page 14


 742              		.loc 1 328 11 view .LVU222
 743 031c E2E7     		b	.L56
 744              	.LVL93:
 745              	.L51:
 746              		.loc 1 328 11 view .LVU223
 747 031e 009A     		ldr	r2, [sp]
 748 0320 002A     		cmp	r2, #0
 749 0322 FFF675AE 		blt	.L2
 750              		.loc 1 312 13 view .LVU224
 751 0326 0027     		movs	r7, #0
 752 0328 C9E7     		b	.L57
 753              	.LVL94:
 754              	.L73:
 755              		.loc 1 233 5 view .LVU225
 756 032a 4FF00A09 		mov	r9, #10
 757              	.L21:
 758              	.LVL95:
 759              		.loc 1 298 7 is_stmt 1 view .LVU226
 760 032e E246     		mov	r10, ip
 761 0330 5AF8047B 		ldr	r7, [r10], #4
 762              	.LVL96:
 763              	.L42:
 764              		.loc 1 304 7 view .LVU227
 765              	.LBB12:
 766              	.LBI12:
 767              		.loc 1 72 14 view .LVU228
 768              	.LBE12:
 769              		.loc 1 74 3 view .LVU229
 770              	.LBB15:
 771              	.LBB13:
 772              	.LBI13:
 773              		.loc 1 38 14 view .LVU230
 774              	.LBB14:
 775              		.loc 1 42 3 view .LVU231
 776              		.loc 1 43 3 view .LVU232
 777              		.loc 1 44 3 view .LVU233
 778              		.loc 1 46 3 view .LVU234
 779              		.loc 1 47 3 view .LVU235
 780              		.loc 1 53 3 view .LVU236
 781              		.loc 1 53 5 is_stmt 0 view .LVU237
 782 0334 0DF11701 		add	r1, sp, #23
 783              	.LVL97:
 784              		.loc 1 53 5 view .LVU238
 785 0338 00E0     		b	.L44
 786              	.LVL98:
 787              	.L79:
 788              		.loc 1 62 3 view .LVU239
 789 033a 7146     		mov	r1, lr
 790              	.LVL99:
 791              	.L44:
 792              		.loc 1 54 3 is_stmt 1 view .LVU240
 793              		.loc 1 55 5 view .LVU241
 794              		.loc 1 58 7 view .LVU242
 795              		.loc 1 55 17 is_stmt 0 view .LVU243
 796 033c BC46     		mov	ip, r7
 797              		.loc 1 60 10 view .LVU244
 798 033e 01F1FF3E 		add	lr, r1, #-1
ARM GAS  /tmp/cc1YFoAo.s 			page 15


 799              		.loc 1 55 17 view .LVU245
 800 0342 B7FBF9F7 		udiv	r7, r7, r9
 801              	.LVL100:
 802              		.loc 1 55 17 view .LVU246
 803 0346 09FB17CB 		mls	fp, r9, r7, ip
 804              	.LVL101:
 805              		.loc 1 56 5 is_stmt 1 view .LVU247
 806              		.loc 1 56 7 is_stmt 0 view .LVU248
 807 034a 0BF13003 		add	r3, fp, #48
 808              	.LVL102:
 809              		.loc 1 57 5 is_stmt 1 view .LVU249
 810              		.loc 1 57 8 is_stmt 0 view .LVU250
 811 034e 392B     		cmp	r3, #57
 812              		.loc 1 58 9 view .LVU251
 813 0350 C8BF     		it	gt
 814 0352 0BF13703 		addgt	r3, fp, #55
 815              	.LVL103:
 816              		.loc 1 60 5 is_stmt 1 view .LVU252
 817              		.loc 1 62 3 is_stmt 0 view .LVU253
 818 0356 CC45     		cmp	ip, r9
 819              		.loc 1 60 10 view .LVU254
 820 0358 DBB2     		uxtb	r3, r3
 821              	.LVL104:
 822              		.loc 1 60 10 view .LVU255
 823 035a 01F8013C 		strb	r3, [r1, #-1]
 824              		.loc 1 61 5 is_stmt 1 view .LVU256
 825              	.LVL105:
 826              		.loc 1 62 3 is_stmt 0 view .LVU257
 827 035e ECD2     		bcs	.L79
 828              		.loc 1 64 3 is_stmt 1 view .LVU258
 829              		.loc 1 64 5 is_stmt 0 view .LVU259
 830 0360 0DF1170C 		add	ip, sp, #23
 831 0364 03AF     		add	r7, sp, #12
 832              	.LVL106:
 833              		.loc 1 64 5 view .LVU260
 834 0366 ACEB0E0B 		sub	fp, ip, lr
 835              	.LVL107:
 836              		.loc 1 64 5 view .LVU261
 837 036a BC46     		mov	ip, r7
 838 036c DE44     		add	lr, lr, fp
 839              	.LVL108:
 840              		.loc 1 64 5 view .LVU262
 841 036e 01E0     		b	.L46
 842              	.LVL109:
 843              	.L45:
 844              		.loc 1 64 5 view .LVU263
 845 0370 11F8013B 		ldrb	r3, [r1], #1	@ zero_extendqisi2
 846              	.LVL110:
 847              	.L46:
 848              		.loc 1 65 3 is_stmt 1 view .LVU264
 849              		.loc 1 66 5 view .LVU265
 850              		.loc 1 67 3 is_stmt 0 view .LVU266
 851 0374 8E45     		cmp	lr, r1
 852              		.loc 1 66 10 view .LVU267
 853 0376 0CF8013B 		strb	r3, [ip], #1
 854              	.LVL111:
 855              		.loc 1 67 3 view .LVU268
ARM GAS  /tmp/cc1YFoAo.s 			page 16


 856 037a F9D1     		bne	.L45
 857 037c 0BF1FF31 		add	r1, fp, #-1
 858              	.LBE14:
 859              	.LBE13:
 860              	.LBE15:
 861              		.loc 1 151 7 view .LVU269
 862 0380 3B46     		mov	r3, r7
 863 0382 A2EB0B07 		sub	r7, r2, fp
 864              	.LVL112:
 865              		.loc 1 151 7 view .LVU270
 866 0386 0091     		str	r1, [sp]
 867 0388 79E7     		b	.L26
 868              	.LVL113:
 869              	.L19:
 870              		.loc 1 233 5 view .LVU271
 871 038a 4FF01009 		mov	r9, #16
 872 038e CEE7     		b	.L21
 873              	.L24:
 874              		.loc 1 253 7 is_stmt 1 view .LVU272
 875 0390 0CF1040A 		add	r10, ip, #4
 876              		.loc 1 257 9 view .LVU273
 877              	.LVL114:
 878              		.loc 1 257 11 is_stmt 0 view .LVU274
 879 0394 DCF800C0 		ldr	ip, [ip]
 880              	.LVL115:
 881              		.loc 1 259 7 is_stmt 1 view .LVU275
 882              		.loc 1 259 10 is_stmt 0 view .LVU276
 883 0398 BCF1000F 		cmp	ip, #0
 884 039c 48DB     		blt	.L140
 885              	.LVL116:
 886              	.L35:
 887              		.loc 1 264 9 is_stmt 1 view .LVU277
 888              		.loc 1 264 12 is_stmt 0 view .LVU278
 889 039e 002F     		cmp	r7, #0
 890 03a0 76D0     		beq	.L77
 891              		.loc 1 265 11 is_stmt 1 view .LVU279
 892              	.LVL117:
 893              		.loc 1 265 16 is_stmt 0 view .LVU280
 894 03a2 2B23     		movs	r3, #43
 895              	.LVL118:
 896              		.loc 1 265 13 view .LVU281
 897 03a4 0DF10D09 		add	r9, sp, #13
 898              	.LVL119:
 899              		.loc 1 265 13 view .LVU282
 900 03a8 03AF     		add	r7, sp, #12
 901              	.LVL120:
 902              		.loc 1 265 16 view .LVU283
 903 03aa 8DF80C30 		strb	r3, [sp, #12]
 904              	.L36:
 905              		.loc 1 267 7 is_stmt 1 view .LVU284
 906              	.LVL121:
 907              	.LBB16:
 908              	.LBI16:
 909              		.loc 1 72 14 view .LVU285
 910              	.LBE16:
 911              		.loc 1 74 3 view .LVU286
 912              	.LBB19:
ARM GAS  /tmp/cc1YFoAo.s 			page 17


 913              	.LBB17:
 914              	.LBI17:
 915              		.loc 1 38 14 view .LVU287
 916              	.LBB18:
 917              		.loc 1 42 3 view .LVU288
 918              		.loc 1 43 3 view .LVU289
 919              		.loc 1 44 3 view .LVU290
 920              		.loc 1 46 3 view .LVU291
 921              		.loc 1 47 3 view .LVU292
 922              		.loc 1 53 3 view .LVU293
 923              		.loc 1 53 5 is_stmt 0 view .LVU294
 924 03ae 09F10B0B 		add	fp, r9, #11
 925              	.LVL122:
 926              		.loc 1 53 5 view .LVU295
 927 03b2 DE46     		mov	lr, fp
 928              	.LVL123:
 929              	.L37:
 930              		.loc 1 54 3 is_stmt 1 view .LVU296
 931              		.loc 1 55 5 view .LVU297
 932              		.loc 1 55 17 is_stmt 0 view .LVU298
 933 03b4 404B     		ldr	r3, .L141
 934              		.loc 1 62 3 view .LVU299
 935 03b6 BCF1090F 		cmp	ip, #9
 936              		.loc 1 55 17 view .LVU300
 937 03ba A3FB0C13 		umull	r1, r3, r3, ip
 938 03be 4FEAD303 		lsr	r3, r3, #3
 939 03c2 03EB8301 		add	r1, r3, r3, lsl #2
 940 03c6 ACEB4101 		sub	r1, ip, r1, lsl #1
 941              	.LVL124:
 942              		.loc 1 56 5 is_stmt 1 view .LVU301
 943              		.loc 1 57 5 view .LVU302
 944              		.loc 1 60 5 view .LVU303
 945              		.loc 1 62 3 is_stmt 0 view .LVU304
 946 03ca 9C46     		mov	ip, r3
 947              	.LVL125:
 948              		.loc 1 56 7 view .LVU305
 949 03cc 01F13001 		add	r1, r1, #48
 950              	.LVL126:
 951              		.loc 1 60 10 view .LVU306
 952 03d0 C9B2     		uxtb	r1, r1
 953              	.LVL127:
 954              		.loc 1 60 10 view .LVU307
 955 03d2 0EF8011D 		strb	r1, [lr, #-1]!
 956              	.LVL128:
 957              		.loc 1 61 5 is_stmt 1 view .LVU308
 958              		.loc 1 62 3 is_stmt 0 view .LVU309
 959 03d6 EDDC     		bgt	.L37
 960              		.loc 1 64 3 is_stmt 1 view .LVU310
 961              	.LVL129:
 962              		.loc 1 64 5 is_stmt 0 view .LVU311
 963 03d8 ABEB0E0B 		sub	fp, fp, lr
 964              	.LVL130:
 965              		.loc 1 64 5 view .LVU312
 966 03dc CB44     		add	fp, fp, r9
 967 03de 01E0     		b	.L39
 968              	.LVL131:
 969              	.L38:
ARM GAS  /tmp/cc1YFoAo.s 			page 18


 970              		.loc 1 64 5 view .LVU313
 971 03e0 1EF8011F 		ldrb	r1, [lr, #1]!	@ zero_extendqisi2
 972              	.LVL132:
 973              	.L39:
 974              		.loc 1 65 3 is_stmt 1 view .LVU314
 975              		.loc 1 66 5 view .LVU315
 976              		.loc 1 66 10 is_stmt 0 view .LVU316
 977 03e4 09F8011B 		strb	r1, [r9], #1
 978              	.LVL133:
 979              		.loc 1 67 3 view .LVU317
 980 03e8 CB45     		cmp	fp, r9
 981 03ea F9D1     		bne	.L38
 982 03ec ABEB070B 		sub	fp, fp, r7
 983              	.LBE18:
 984              	.LBE17:
 985              	.LBE19:
 986              		.loc 1 151 7 view .LVU318
 987 03f0 3B46     		mov	r3, r7
 988              	.LVL134:
 989              		.loc 1 151 7 view .LVU319
 990 03f2 0BF1FF31 		add	r1, fp, #-1
 991 03f6 A2EB0B07 		sub	r7, r2, fp
 992              	.LVL135:
 993              		.loc 1 151 7 view .LVU320
 994 03fa 0091     		str	r1, [sp]
 995 03fc 3FE7     		b	.L26
 996              	.LVL136:
 997              	.L23:
 998              		.loc 1 233 5 view .LVU321
 999 03fe 4FF00809 		mov	r9, #8
 1000 0402 94E7     		b	.L21
 1001              	.LVL137:
 1002              	.L60:
 1003              		.loc 1 233 5 view .LVU322
 1004 0404 E246     		mov	r10, ip
 1005              		.loc 1 223 15 view .LVU323
 1006 0406 7546     		mov	r5, lr
 1007              		.loc 1 233 5 view .LVU324
 1008 0408 4FF01009 		mov	r9, #16
 1009 040c 5AF8047B 		ldr	r7, [r10], #4
 1010              	.LVL138:
 1011              		.loc 1 233 5 view .LVU325
 1012 0410 90E7     		b	.L42
 1013              	.LVL139:
 1014              	.L40:
 1015              		.loc 1 298 7 is_stmt 1 view .LVU326
 1016 0412 E246     		mov	r10, ip
 1017              		.loc 1 223 15 is_stmt 0 view .LVU327
 1018 0414 7546     		mov	r5, lr
 1019              		.loc 1 233 5 view .LVU328
 1020 0416 4FF00A09 		mov	r9, #10
 1021 041a 5AF8047B 		ldr	r7, [r10], #4
 1022              	.LVL140:
 1023              		.loc 1 233 5 view .LVU329
 1024 041e 89E7     		b	.L42
 1025              	.LVL141:
 1026              	.L63:
ARM GAS  /tmp/cc1YFoAo.s 			page 19


 1027              		.loc 1 233 5 view .LVU330
 1028 0420 0CF1040A 		add	r10, ip, #4
 1029              		.loc 1 257 9 is_stmt 1 view .LVU331
 1030              	.LVL142:
 1031              		.loc 1 257 11 is_stmt 0 view .LVU332
 1032 0424 DCF800C0 		ldr	ip, [ip]
 1033              	.LVL143:
 1034              		.loc 1 259 7 is_stmt 1 view .LVU333
 1035              		.loc 1 223 15 is_stmt 0 view .LVU334
 1036 0428 7546     		mov	r5, lr
 1037              		.loc 1 259 10 view .LVU335
 1038 042a BCF1000F 		cmp	ip, #0
 1039 042e B6DA     		bge	.L35
 1040              	.LVL144:
 1041              	.L140:
 1042              		.loc 1 260 9 is_stmt 1 view .LVU336
 1043              		.loc 1 260 14 is_stmt 0 view .LVU337
 1044 0430 2D23     		movs	r3, #45
 1045              	.LVL145:
 1046              		.loc 1 261 11 view .LVU338
 1047 0432 CCF1000C 		rsb	ip, ip, #0
 1048              	.LVL146:
 1049              		.loc 1 260 11 view .LVU339
 1050 0436 0DF10D09 		add	r9, sp, #13
 1051              	.LVL147:
 1052              		.loc 1 260 11 view .LVU340
 1053 043a 03AF     		add	r7, sp, #12
 1054              	.LVL148:
 1055              		.loc 1 260 14 view .LVU341
 1056 043c 8DF80C30 		strb	r3, [sp, #12]
 1057              		.loc 1 261 9 is_stmt 1 view .LVU342
 1058              	.LVL149:
 1059              		.loc 1 261 9 is_stmt 0 view .LVU343
 1060 0440 B5E7     		b	.L36
 1061              	.LVL150:
 1062              	.L62:
 1063              		.loc 1 298 7 is_stmt 1 view .LVU344
 1064 0442 E246     		mov	r10, ip
 1065              		.loc 1 223 15 is_stmt 0 view .LVU345
 1066 0444 7546     		mov	r5, lr
 1067              		.loc 1 233 5 view .LVU346
 1068 0446 4FF00809 		mov	r9, #8
 1069 044a 5AF8047B 		ldr	r7, [r10], #4
 1070              	.LVL151:
 1071              		.loc 1 233 5 view .LVU347
 1072 044e 71E7     		b	.L42
 1073              	.LVL152:
 1074              	.L135:
 1075              		.loc 1 246 7 discriminator 1 view .LVU348
 1076 0450 21B3     		cbz	r1, .L75
 1077              	.LVL153:
 1078              	.L29:
 1079              		.loc 1 246 22 view .LVU349
 1080 0452 BBF10107 		subs	r7, fp, #1
 1081              	.LVL154:
 1082              		.loc 1 246 22 view .LVU350
 1083 0456 7FF5E9AE 		bpl	.L28
ARM GAS  /tmp/cc1YFoAo.s 			page 20


 1084 045a 4FF0FF31 		mov	r1, #-1
 1085 045e 1746     		mov	r7, r2
 1086              	.LVL155:
 1087              		.loc 1 246 22 view .LVU351
 1088 0460 4FF0000B 		mov	fp, #0
 1089              	.LVL156:
 1090              		.loc 1 239 14 view .LVU352
 1091 0464 2026     		movs	r6, #32
 1092              		.loc 1 246 22 view .LVU353
 1093 0466 0091     		str	r1, [sp]
 1094 0468 09E7     		b	.L26
 1095              	.LVL157:
 1096              	.L138:
 1097              		.loc 1 319 9 view .LVU354
 1098 046a 2046     		mov	r0, r4
 1099              	.LVL158:
 1100              		.loc 1 319 9 view .LVU355
 1101 046c 0193     		str	r3, [sp, #4]
 1102 046e 9047     		blx	r2
 1103              	.LVL159:
 1104 0470 0099     		ldr	r1, [sp]
 1105 0472 2268     		ldr	r2, [r4]
 1106 0474 08F10108 		add	r8, r8, #1
 1107              	.LVL160:
 1108              		.loc 1 319 9 is_stmt 1 view .LVU356
 1109              		.loc 1 319 9 is_stmt 0 view .LVU357
 1110 0478 019B     		ldr	r3, [sp, #4]
 1111 047a 0139     		subs	r1, r1, #1
 1112 047c D268     		ldr	r2, [r2, #12]
 1113 047e 0133     		adds	r3, r3, #1
 1114              	.LVL161:
 1115              		.loc 1 320 9 is_stmt 1 view .LVU358
 1116              		.loc 1 321 9 view .LVU359
 1117              		.loc 1 321 9 is_stmt 0 view .LVU360
 1118 0480 0091     		str	r1, [sp]
 1119 0482 0BE7     		b	.L52
 1120              	.LVL162:
 1121              	.L134:
 1122              		.loc 1 243 7 is_stmt 1 view .LVU361
 1123              		.loc 1 241 11 is_stmt 0 view .LVU362
 1124 0484 0D4B     		ldr	r3, .L141+4
 1125              		.loc 1 243 10 view .LVU363
 1126 0486 BBF1000F 		cmp	fp, #0
 1127 048a 3FF4CDAE 		beq	.L85
 1128 048e E0E7     		b	.L29
 1129              	.LVL163:
 1130              	.L77:
 1131              		.loc 1 150 7 view .LVU364
 1132 0490 03AF     		add	r7, sp, #12
 1133              	.LVL164:
 1134              		.loc 1 150 7 view .LVU365
 1135 0492 B946     		mov	r9, r7
 1136 0494 8BE7     		b	.L36
 1137              	.LVL165:
 1138              	.L132:
 1139              		.loc 1 187 12 view .LVU366
 1140 0496 D446     		mov	ip, r10
ARM GAS  /tmp/cc1YFoAo.s 			page 21


 1141              		.loc 1 181 13 view .LVU367
 1142 0498 0022     		movs	r2, #0
 1143              	.LVL166:
 1144              		.loc 1 181 13 view .LVU368
 1145 049a E3E5     		b	.L10
 1146              	.LVL167:
 1147              	.L75:
 1148              		.loc 1 246 7 view .LVU369
 1149 049c 8B46     		mov	fp, r1
 1150              	.LVL168:
 1151              		.loc 1 246 7 view .LVU370
 1152 049e 4FF0FF31 		mov	r1, #-1
 1153 04a2 1746     		mov	r7, r2
 1154              	.LVL169:
 1155              		.loc 1 239 14 view .LVU371
 1156 04a4 2026     		movs	r6, #32
 1157              		.loc 1 246 7 view .LVU372
 1158 04a6 0091     		str	r1, [sp]
 1159 04a8 E9E6     		b	.L26
 1160              	.LVL170:
 1161              	.L136:
 1162              		.loc 1 246 7 view .LVU373
 1163 04aa 4FF0FF31 		mov	r1, #-1
 1164 04ae 1746     		mov	r7, r2
 1165              	.LVL171:
 1166              		.loc 1 239 14 view .LVU374
 1167 04b0 2026     		movs	r6, #32
 1168              		.loc 1 246 7 view .LVU375
 1169 04b2 0091     		str	r1, [sp]
 1170 04b4 E3E6     		b	.L26
 1171              	.L142:
 1172 04b6 00BF     		.align	2
 1173              	.L141:
 1174 04b8 CDCCCCCC 		.word	-858993459
 1175 04bc 00000000 		.word	.LC0
 1176              		.cfi_endproc
 1177              	.LFE364:
 1178              		.size	chvprintf, .-chvprintf
 1179              		.align	1
 1180              		.p2align 4,,15
 1181              		.global	chprintf
 1182              		.syntax unified
 1183              		.thumb
 1184              		.thumb_func
 1185              		.fpu fpv4-sp-d16
 1186              		.type	chprintf, %function
 1187              	chprintf:
 1188              	.LVL172:
 1189              	.LFB365:
 1190              		.loc 1 366 63 is_stmt 1 view -0
 1191              		.cfi_startproc
 1192              		@ args = 4, pretend = 12, frame = 8
 1193              		@ frame_needed = 0, uses_anonymous_args = 1
 1194              		.loc 1 367 3 view .LVU377
 1195              		.loc 1 368 3 view .LVU378
 1196              		.loc 1 370 3 view .LVU379
 1197              		.loc 1 366 63 is_stmt 0 view .LVU380
ARM GAS  /tmp/cc1YFoAo.s 			page 22


 1198 04c0 0EB4     		push	{r1, r2, r3}
 1199              		.cfi_def_cfa_offset 12
 1200              		.cfi_offset 1, -12
 1201              		.cfi_offset 2, -8
 1202              		.cfi_offset 3, -4
 1203 04c2 00B5     		push	{lr}
 1204              		.cfi_def_cfa_offset 16
 1205              		.cfi_offset 14, -16
 1206 04c4 82B0     		sub	sp, sp, #8
 1207              		.cfi_def_cfa_offset 24
 1208              		.loc 1 366 63 view .LVU381
 1209 04c6 03AB     		add	r3, sp, #12
 1210 04c8 53F8041B 		ldr	r1, [r3], #4
 1211              		.loc 1 371 21 view .LVU382
 1212 04cc 1A46     		mov	r2, r3
 1213              		.loc 1 370 3 view .LVU383
 1214 04ce 0193     		str	r3, [sp, #4]
 1215              		.loc 1 371 3 is_stmt 1 view .LVU384
 1216              		.loc 1 371 21 is_stmt 0 view .LVU385
 1217 04d0 FFF7FEFF 		bl	chvprintf
 1218              	.LVL173:
 1219              		.loc 1 372 3 is_stmt 1 view .LVU386
 1220              		.loc 1 374 3 view .LVU387
 1221              		.loc 1 375 1 is_stmt 0 view .LVU388
 1222 04d4 02B0     		add	sp, sp, #8
 1223              		.cfi_def_cfa_offset 16
 1224              		@ sp needed
 1225 04d6 5DF804EB 		ldr	lr, [sp], #4
 1226              		.cfi_restore 14
 1227              		.cfi_def_cfa_offset 12
 1228 04da 03B0     		add	sp, sp, #12
 1229              		.cfi_restore 3
 1230              		.cfi_restore 2
 1231              		.cfi_restore 1
 1232              		.cfi_def_cfa_offset 0
 1233 04dc 7047     		bx	lr
 1234              		.cfi_endproc
 1235              	.LFE365:
 1236              		.size	chprintf, .-chprintf
 1237              		.align	1
 1238 04de 00BF     		.p2align 4,,15
 1239              		.global	chvsnprintf
 1240              		.syntax unified
 1241              		.thumb
 1242              		.thumb_func
 1243              		.fpu fpv4-sp-d16
 1244              		.type	chvsnprintf, %function
 1245              	chvsnprintf:
 1246              	.LVL174:
 1247              	.LFB367:
 1248              		.loc 1 445 70 is_stmt 1 view -0
 1249              		.cfi_startproc
 1250              		@ args = 0, pretend = 0, frame = 24
 1251              		@ frame_needed = 0, uses_anonymous_args = 0
 1252              		.loc 1 446 3 view .LVU390
 1253              		.loc 1 447 3 view .LVU391
 1254              		.loc 1 448 3 view .LVU392
ARM GAS  /tmp/cc1YFoAo.s 			page 23


 1255              		.loc 1 449 3 view .LVU393
 1256              		.loc 1 451 3 view .LVU394
 1257              		.loc 1 445 70 is_stmt 0 view .LVU395
 1258 04e0 F0B5     		push	{r4, r5, r6, r7, lr}
 1259              		.cfi_def_cfa_offset 20
 1260              		.cfi_offset 4, -20
 1261              		.cfi_offset 5, -16
 1262              		.cfi_offset 6, -12
 1263              		.cfi_offset 7, -8
 1264              		.cfi_offset 14, -4
 1265 04e2 0546     		mov	r5, r0
 1266 04e4 87B0     		sub	sp, sp, #28
 1267              		.cfi_def_cfa_offset 48
 1268              		.loc 1 445 70 view .LVU396
 1269 04e6 1646     		mov	r6, r2
 1270 04e8 1F46     		mov	r7, r3
 1271              		.loc 1 451 6 view .LVU397
 1272 04ea 0C46     		mov	r4, r1
 1273 04ec 89B1     		cbz	r1, .L146
 1274              		.loc 1 452 5 is_stmt 1 view .LVU398
 1275              	.LVL175:
 1276              		.loc 1 458 3 view .LVU399
 1277 04ee 0023     		movs	r3, #0
 1278              	.LVL176:
 1279              		.loc 1 458 3 is_stmt 0 view .LVU400
 1280 04f0 4A1E     		subs	r2, r1, #1
 1281              	.LVL177:
 1282              		.loc 1 458 3 view .LVU401
 1283 04f2 0146     		mov	r1, r0
 1284              	.LVL178:
 1285              		.loc 1 458 3 view .LVU402
 1286 04f4 01A8     		add	r0, sp, #4
 1287              	.LVL179:
 1288              		.loc 1 458 3 view .LVU403
 1289 04f6 FFF7FEFF 		bl	msObjectInit
 1290              	.LVL180:
 1291              		.loc 1 461 3 is_stmt 1 view .LVU404
 1292              		.loc 1 462 3 view .LVU405
 1293              		.loc 1 462 12 is_stmt 0 view .LVU406
 1294 04fa 3A46     		mov	r2, r7
 1295 04fc 3146     		mov	r1, r6
 1296 04fe 01A8     		add	r0, sp, #4
 1297              	.LVL181:
 1298              		.loc 1 462 12 view .LVU407
 1299 0500 FFF7FEFF 		bl	chvprintf
 1300              	.LVL182:
 1301              		.loc 1 465 3 is_stmt 1 view .LVU408
 1302              		.loc 1 465 9 is_stmt 0 view .LVU409
 1303 0504 049B     		ldr	r3, [sp, #16]
 1304              		.loc 1 465 6 view .LVU410
 1305 0506 A342     		cmp	r3, r4
 1306 0508 01D2     		bcs	.L145
 1307              		.loc 1 466 5 is_stmt 1 view .LVU411
 1308              		.loc 1 466 17 is_stmt 0 view .LVU412
 1309 050a 0022     		movs	r2, #0
 1310 050c EA54     		strb	r2, [r5, r3]
 1311              		.loc 1 470 3 is_stmt 1 view .LVU413
ARM GAS  /tmp/cc1YFoAo.s 			page 24


 1312              	.L145:
 1313              		.loc 1 471 1 is_stmt 0 view .LVU414
 1314 050e 07B0     		add	sp, sp, #28
 1315              		.cfi_remember_state
 1316              		.cfi_def_cfa_offset 20
 1317              		@ sp needed
 1318 0510 F0BD     		pop	{r4, r5, r6, r7, pc}
 1319              	.LVL183:
 1320              	.L146:
 1321              		.cfi_restore_state
 1322              		.loc 1 458 3 is_stmt 1 view .LVU415
 1323 0512 0146     		mov	r1, r0
 1324              	.LVL184:
 1325              		.loc 1 458 3 is_stmt 0 view .LVU416
 1326 0514 2346     		mov	r3, r4
 1327              	.LVL185:
 1328              		.loc 1 458 3 view .LVU417
 1329 0516 2246     		mov	r2, r4
 1330              	.LVL186:
 1331              		.loc 1 458 3 view .LVU418
 1332 0518 01A8     		add	r0, sp, #4
 1333              	.LVL187:
 1334              		.loc 1 458 3 view .LVU419
 1335 051a FFF7FEFF 		bl	msObjectInit
 1336              	.LVL188:
 1337              		.loc 1 461 3 is_stmt 1 view .LVU420
 1338              		.loc 1 462 3 view .LVU421
 1339              		.loc 1 462 12 is_stmt 0 view .LVU422
 1340 051e 3A46     		mov	r2, r7
 1341 0520 3146     		mov	r1, r6
 1342 0522 01A8     		add	r0, sp, #4
 1343              	.LVL189:
 1344              		.loc 1 462 12 view .LVU423
 1345 0524 FFF7FEFF 		bl	chvprintf
 1346              	.LVL190:
 1347              		.loc 1 465 3 is_stmt 1 view .LVU424
 1348              		.loc 1 471 1 is_stmt 0 view .LVU425
 1349 0528 07B0     		add	sp, sp, #28
 1350              		.cfi_def_cfa_offset 20
 1351              		@ sp needed
 1352 052a F0BD     		pop	{r4, r5, r6, r7, pc}
 1353              		.loc 1 471 1 view .LVU426
 1354              		.cfi_endproc
 1355              	.LFE367:
 1356              		.size	chvsnprintf, .-chvsnprintf
 1357              		.align	1
 1358 052c AFF30080 		.p2align 4,,15
 1359              		.global	chsnprintf
 1360              		.syntax unified
 1361              		.thumb
 1362              		.thumb_func
 1363              		.fpu fpv4-sp-d16
 1364              		.type	chsnprintf, %function
 1365              	chsnprintf:
 1366              	.LVL191:
 1367              	.LFB366:
 1368              		.loc 1 404 62 is_stmt 1 view -0
ARM GAS  /tmp/cc1YFoAo.s 			page 25


 1369              		.cfi_startproc
 1370              		@ args = 4, pretend = 8, frame = 8
 1371              		@ frame_needed = 0, uses_anonymous_args = 1
 1372              		.loc 1 405 3 view .LVU428
 1373              		.loc 1 406 3 view .LVU429
 1374              		.loc 1 409 3 view .LVU430
 1375              		.loc 1 404 62 is_stmt 0 view .LVU431
 1376 0530 0CB4     		push	{r2, r3}
 1377              		.cfi_def_cfa_offset 8
 1378              		.cfi_offset 2, -8
 1379              		.cfi_offset 3, -4
 1380 0532 10B5     		push	{r4, lr}
 1381              		.cfi_def_cfa_offset 16
 1382              		.cfi_offset 4, -16
 1383              		.cfi_offset 14, -12
 1384 0534 82B0     		sub	sp, sp, #8
 1385              		.cfi_def_cfa_offset 24
 1386              		.loc 1 404 62 view .LVU432
 1387 0536 04AC     		add	r4, sp, #16
 1388 0538 54F8042B 		ldr	r2, [r4], #4
 1389              		.loc 1 410 12 view .LVU433
 1390 053c 2346     		mov	r3, r4
 1391              		.loc 1 409 3 view .LVU434
 1392 053e 0194     		str	r4, [sp, #4]
 1393              		.loc 1 410 3 is_stmt 1 view .LVU435
 1394              		.loc 1 410 12 is_stmt 0 view .LVU436
 1395 0540 FFF7FEFF 		bl	chvsnprintf
 1396              	.LVL192:
 1397              		.loc 1 411 3 is_stmt 1 view .LVU437
 1398              		.loc 1 414 3 view .LVU438
 1399              		.loc 1 415 1 is_stmt 0 view .LVU439
 1400 0544 02B0     		add	sp, sp, #8
 1401              		.cfi_def_cfa_offset 16
 1402              		@ sp needed
 1403 0546 BDE81040 		pop	{r4, lr}
 1404              		.cfi_restore 14
 1405              		.cfi_restore 4
 1406              		.cfi_def_cfa_offset 8
 1407 054a 02B0     		add	sp, sp, #8
 1408              		.cfi_restore 3
 1409              		.cfi_restore 2
 1410              		.cfi_def_cfa_offset 0
 1411 054c 7047     		bx	lr
 1412              		.cfi_endproc
 1413              	.LFE366:
 1414              		.size	chsnprintf, .-chsnprintf
 1415              		.section	.rodata.str1.4,"aMS",%progbits,1
 1416              		.align	2
 1417              	.LC0:
 1418 0000 286E756C 		.ascii	"(null)\000"
 1418      6C2900
 1419              		.text
 1420              	.Letext0:
 1421              		.file 2 "/home/nicolas/arm/gcc-arm-none-eabi-8-2019-q3-update/lib/gcc/arm-none-eabi/8.3.1/include/
 1422              		.file 3 "/home/nicolas/arm/gcc-arm-none-eabi-8-2019-q3-update/arm-none-eabi/include/machine/_defau
 1423              		.file 4 "/home/nicolas/arm/gcc-arm-none-eabi-8-2019-q3-update/arm-none-eabi/include/sys/_stdint.h"
 1424              		.file 5 "/home/nicolas/arm/gcc-arm-none-eabi-8-2019-q3-update/arm-none-eabi/include/stdint.h"
ARM GAS  /tmp/cc1YFoAo.s 			page 26


 1425              		.file 6 "../../../external/ChibiOS/os/common/ports/ARMCMx/compilers/GCC/chtypes.h"
 1426              		.file 7 "../../../external/ChibiOS/os/rt/include/chsystypes.h"
 1427              		.file 8 "../../../external/ChibiOS/os/rt/include/chschd.h"
 1428              		.file 9 "../../../external/ChibiOS/os/rt/include/chtime.h"
 1429              		.file 10 "../../../external/ChibiOS/os/common/ext/ARM/CMSIS/Core/Include/core_cm7.h"
 1430              		.file 11 "../../../external/ChibiOS/os/common/ext/ST/STM32H7xx/system_stm32h7xx.h"
 1431              		.file 12 "../../../external/ChibiOS/os/common/ext/ST/STM32H7xx/stm32h753xx.h"
 1432              		.file 13 "../../../external/ChibiOS/os/common/ports/ARMCMx/chcore.h"
 1433              		.file 14 "../../../external/ChibiOS/os/common/ports/ARMCMx/chcore_v7m.h"
 1434              		.file 15 "../../../external/ChibiOS/os/rt/include/chtrace.h"
 1435              		.file 16 "../../../external/ChibiOS/os/rt/include/chtm.h"
 1436              		.file 17 "../../../external/ChibiOS/os/rt/include/chsem.h"
 1437              		.file 18 "../../../external/ChibiOS/os/rt/include/chmtx.h"
 1438              		.file 19 "../../../external/ChibiOS/os/rt/include/chsys.h"
 1439              		.file 20 "../../../external/ChibiOS/os/rt/include/chregistry.h"
 1440              		.file 21 "../../../external/ChibiOS/os/rt/include/chevents.h"
 1441              		.file 22 "../../../external/ChibiOS/os/oslib/include/chmemcore.h"
 1442              		.file 23 "../../../external/ChibiOS/os/oslib/include/chmempools.h"
 1443              		.file 24 "/home/nicolas/arm/gcc-arm-none-eabi-8-2019-q3-update/lib/gcc/arm-none-eabi/8.3.1/include
 1444              		.file 25 "../../../external/ChibiOS/os/oslib/include/chfactory.h"
 1445              		.file 26 "../../../external/ChibiOS/os/hal/ports/STM32/LLD/DMAv2/stm32_dma.h"
 1446              		.file 27 "../../../external/ChibiOS/os/hal/ports/STM32/LLD/BDMAv1/stm32_bdma.h"
 1447              		.file 28 "../../../external/ChibiOS/os/hal/ports/STM32/LLD/TIMv1/stm32_tim.h"
 1448              		.file 29 "../../../external/ChibiOS/os/hal/include/hal_streams.h"
 1449              		.file 30 "../../../external/ChibiOS/os/hal/include/hal_ioblock.h"
 1450              		.file 31 "../../../external/ChibiOS/os/hal/include/hal_queues.h"
 1451              		.file 32 "../../../external/ChibiOS/os/hal/ports/STM32/LLD/GPIOv2/stm32_gpio.h"
 1452              		.file 33 "../../../external/ChibiOS/os/hal/ports/STM32/LLD/GPIOv2/hal_pal_lld.h"
 1453              		.file 34 "../../../external/ChibiOS/os/hal/include/hal_adc.h"
 1454              		.file 35 "../../../external/ChibiOS/os/hal/ports/STM32/LLD/ADCv4/hal_adc_lld.h"
 1455              		.file 36 "../../../external/ChibiOS/os/hal/include/hal_i2c.h"
 1456              		.file 37 "../../../external/ChibiOS/os/hal/ports/STM32/LLD/I2Cv3/hal_i2c_lld.h"
 1457              		.file 38 "../../../external/ChibiOS/os/hal/include/hal_pwm.h"
 1458              		.file 39 "../../../external/ChibiOS/os/hal/ports/STM32/LLD/TIMv1/hal_pwm_lld.h"
 1459              		.file 40 "../../../external/ChibiOS/os/hal/include/hal_serial.h"
 1460              		.file 41 "../../../external/ChibiOS/os/hal/ports/STM32/LLD/USARTv2/hal_serial_lld.h"
 1461              		.file 42 "../../../external/ChibiOS/os/hal/include/hal_sdc.h"
 1462              		.file 43 "../../../external/ChibiOS/os/hal/ports/STM32/LLD/SDMMCv2/hal_sdc_lld.h"
 1463              		.file 44 "../../../external/ChibiOS/os/hal/include/hal_spi.h"
 1464              		.file 45 "../../../external/ChibiOS/os/hal/ports/STM32/LLD/SPIv3/hal_spi_lld.h"
 1465              		.file 46 "../../../external/ChibiOS/os/hal/include/hal_trng.h"
 1466              		.file 47 "../../../external/ChibiOS/os/hal/ports/STM32/LLD/RNGv1/hal_trng_lld.h"
 1467              		.file 48 "../../../external/ChibiOS/os/hal/include/hal_usb.h"
 1468              		.file 49 "../../../external/ChibiOS/os/hal/ports/STM32/LLD/OTGv1/hal_usb_lld.h"
 1469              		.file 50 "../../../external/ChibiOS/os/hal/ports/STM32/LLD/OTGv1/stm32_otg.h"
 1470              		.file 51 "../../../external/ChibiOS-Contrib/os/hal/include/hal_fsmc.h"
 1471              		.file 52 "../../../external/ChibiOS-Contrib/os/hal/include/hal_sdram.h"
 1472              		.file 53 "../../../external/ChibiOS/os/hal/lib/streams/memstreams.h"
 1473              		.file 54 "<built-in>"