ARM GAS  /tmp/ccYHlgzE.s 			page 1


   1              		.cpu cortex-m7
   2              		.eabi_attribute 27, 1
   3              		.eabi_attribute 28, 1
   4              		.eabi_attribute 20, 1
   5              		.eabi_attribute 21, 1
   6              		.eabi_attribute 23, 3
   7              		.eabi_attribute 24, 1
   8              		.eabi_attribute 25, 1
   9              		.eabi_attribute 26, 1
  10              		.eabi_attribute 30, 2
  11              		.eabi_attribute 34, 1
  12              		.eabi_attribute 18, 4
  13              		.file	"chregistry.c"
  14              		.text
  15              	.Ltext0:
  16              		.cfi_sections	.debug_frame
  17              		.align	1
  18              		.p2align 4,,15
  19              		.global	chRegFirstThread
  20              		.arch armv7e-m
  21              		.syntax unified
  22              		.thumb
  23              		.thumb_func
  24              		.fpu fpv4-sp-d16
  25              		.type	chRegFirstThread, %function
  26              	chRegFirstThread:
  27              	.LFB323:
  28              		.file 1 "../../../external/ChibiOS/os/rt/src/chregistry.c"
  29              		.loc 1 134 34 view -0
  30              		.cfi_startproc
  31              		@ args = 0, pretend = 0, frame = 0
  32              		@ frame_needed = 0, uses_anonymous_args = 0
  33              		@ link register save eliminated.
  34              		.loc 1 135 3 view .LVU1
  35              		.loc 1 137 3 view .LVU2
  36              	.LBB104:
  37              	.LBI104:
  38              		.file 2 "../../../external/ChibiOS/os/rt/include/chsys.h"
  39              		.loc 2 353 20 view .LVU3
  40              	.LBE104:
  41              		.loc 2 355 3 view .LVU4
  42              	.LBB109:
  43              	.LBB105:
  44              	.LBI105:
  45              		.file 3 "../../../external/ChibiOS/os/common/ports/ARMCMx/chcore_v7m.h"
  46              		.loc 3 669 27 view .LVU5
  47              	.LBE105:
  48              	.LBE109:
  49              		.loc 3 677 3 view .LVU6
  50              	.LVL0:
  51              	.LBB110:
  52              	.LBB108:
  53              	.LBB106:
  54              	.LBI106:
  55              		.file 4 "../../../external/ChibiOS/os/common/ext/ARM/CMSIS/Core/Include/cmsis_gcc.h"
  56              		.loc 4 491 27 view .LVU7
  57              	.LBB107:
ARM GAS  /tmp/ccYHlgzE.s 			page 2


  58              		.loc 4 493 3 view .LVU8
  59 0000 2023     		movs	r3, #32
  60              		.syntax unified
  61              	@ 493 "../../../external/ChibiOS/os/common/ext/ARM/CMSIS/Core/Include/cmsis_gcc.h" 1
  62 0002 83F31188 		MSR basepri, r3
  63              	@ 0 "" 2
  64              	.LVL1:
  65              		.loc 4 493 3 is_stmt 0 view .LVU9
  66              		.thumb
  67              		.syntax unified
  68              	.LBE107:
  69              	.LBE106:
  70              	.LBE108:
  71              	.LBE110:
  72              		.loc 2 356 34 is_stmt 1 view .LVU10
  73              		.loc 2 357 20 view .LVU11
  74              		.loc 1 138 3 view .LVU12
  75              		.loc 1 138 6 is_stmt 0 view .LVU13
  76 0006 054B     		ldr	r3, .L3
  77              	.LBB111:
  78              	.LBB112:
  79              	.LBB113:
  80              	.LBB114:
  81              	.LBB115:
  82              		.loc 4 493 3 view .LVU14
  83 0008 0022     		movs	r2, #0
  84              	.LBE115:
  85              	.LBE114:
  86              	.LBE113:
  87              	.LBE112:
  88              	.LBE111:
  89              		.loc 1 138 6 view .LVU15
  90 000a 1869     		ldr	r0, [r3, #16]
  91              	.LVL2:
  92              		.loc 1 140 3 is_stmt 1 view .LVU16
  93              		.loc 1 140 11 is_stmt 0 view .LVU17
  94 000c 90F82230 		ldrb	r3, [r0, #34]	@ zero_extendqisi2
  95 0010 0133     		adds	r3, r3, #1
  96 0012 80F82230 		strb	r3, [r0, #34]
  97              		.loc 1 142 3 is_stmt 1 view .LVU18
  98              	.LBB122:
  99              	.LBI111:
 100              		.loc 2 365 20 view .LVU19
 101              	.LBB120:
 102              		.loc 2 367 22 view .LVU20
 103              		.loc 2 368 33 view .LVU21
 104              		.loc 2 374 3 view .LVU22
 105              		.loc 2 374 3 view .LVU23
 106              		.loc 2 378 3 view .LVU24
 107              	.LBB118:
 108              	.LBI113:
 109              		.loc 3 693 27 view .LVU25
 110              	.LBE118:
 111              	.LBE120:
 112              	.LBE122:
 113              		.loc 3 696 3 view .LVU26
 114              	.LVL3:
ARM GAS  /tmp/ccYHlgzE.s 			page 3


 115              	.LBB123:
 116              	.LBB121:
 117              	.LBB119:
 118              	.LBB117:
 119              	.LBI114:
 120              		.loc 4 491 27 view .LVU27
 121              	.LBB116:
 122              		.loc 4 493 3 view .LVU28
 123              		.syntax unified
 124              	@ 493 "../../../external/ChibiOS/os/common/ext/ARM/CMSIS/Core/Include/cmsis_gcc.h" 1
 125 0016 82F31188 		MSR basepri, r2
 126              	@ 0 "" 2
 127              	.LVL4:
 128              		.loc 4 493 3 is_stmt 0 view .LVU29
 129              		.thumb
 130              		.syntax unified
 131              	.LBE116:
 132              	.LBE117:
 133              	.LBE119:
 134              	.LBE121:
 135              	.LBE123:
 136              		.loc 1 144 3 is_stmt 1 view .LVU30
 137              		.loc 1 145 1 is_stmt 0 view .LVU31
 138 001a 7047     		bx	lr
 139              	.L4:
 140              		.align	2
 141              	.L3:
 142 001c 00000000 		.word	ch
 143              		.cfi_endproc
 144              	.LFE323:
 145              		.size	chRegFirstThread, .-chRegFirstThread
 146              		.align	1
 147              		.p2align 4,,15
 148              		.global	chRegNextThread
 149              		.syntax unified
 150              		.thumb
 151              		.thumb_func
 152              		.fpu fpv4-sp-d16
 153              		.type	chRegNextThread, %function
 154              	chRegNextThread:
 155              	.LVL5:
 156              	.LFB324:
 157              		.loc 1 158 41 is_stmt 1 view -0
 158              		.cfi_startproc
 159              		@ args = 0, pretend = 0, frame = 0
 160              		@ frame_needed = 0, uses_anonymous_args = 0
 161              		.loc 1 159 3 view .LVU33
 162              		.loc 1 161 3 view .LVU34
 163              	.LBB124:
 164              	.LBI124:
 165              		.loc 2 353 20 view .LVU35
 166              	.LBE124:
 167              		.loc 2 355 3 view .LVU36
 168              	.LBB132:
 169              	.LBB125:
 170              	.LBI125:
 171              		.loc 3 669 27 view .LVU37
ARM GAS  /tmp/ccYHlgzE.s 			page 4


 172              	.LBE125:
 173              	.LBE132:
 174              		.loc 3 677 3 view .LVU38
 175              	.LBB133:
 176              	.LBB130:
 177              	.LBB126:
 178              	.LBI126:
 179              		.loc 4 491 27 view .LVU39
 180              	.LBB127:
 181              		.loc 4 493 3 view .LVU40
 182              	.LBE127:
 183              	.LBE126:
 184              	.LBE130:
 185              	.LBE133:
 186              		.loc 1 158 41 is_stmt 0 view .LVU41
 187 0020 10B5     		push	{r4, lr}
 188              		.cfi_def_cfa_offset 8
 189              		.cfi_offset 4, -8
 190              		.cfi_offset 14, -4
 191              	.LBB134:
 192              	.LBB131:
 193              	.LBB129:
 194              	.LBB128:
 195              		.loc 4 493 3 view .LVU42
 196 0022 2023     		movs	r3, #32
 197              		.syntax unified
 198              	@ 493 "../../../external/ChibiOS/os/common/ext/ARM/CMSIS/Core/Include/cmsis_gcc.h" 1
 199 0024 83F31188 		MSR basepri, r3
 200              	@ 0 "" 2
 201              	.LVL6:
 202              		.loc 4 493 3 view .LVU43
 203              		.thumb
 204              		.syntax unified
 205              	.LBE128:
 206              	.LBE129:
 207              	.LBE131:
 208              	.LBE134:
 209              		.loc 2 356 34 is_stmt 1 view .LVU44
 210              		.loc 2 357 20 view .LVU45
 211              		.loc 1 162 3 view .LVU46
 212              		.loc 1 164 6 is_stmt 0 view .LVU47
 213 0028 0B4B     		ldr	r3, .L9
 214              		.loc 1 162 7 view .LVU48
 215 002a 0469     		ldr	r4, [r0, #16]
 216              	.LVL7:
 217              		.loc 1 164 3 is_stmt 1 view .LVU49
 218              		.loc 1 164 6 is_stmt 0 view .LVU50
 219 002c 9C42     		cmp	r4, r3
 220 002e 0BD0     		beq	.L7
 221              		.loc 1 170 5 is_stmt 1 view .LVU51
 222              		.loc 1 170 5 view .LVU52
 223              		.loc 1 171 5 view .LVU53
 224              		.loc 1 171 14 is_stmt 0 view .LVU54
 225 0030 94F82230 		ldrb	r3, [r4, #34]	@ zero_extendqisi2
 226 0034 0133     		adds	r3, r3, #1
 227 0036 84F82230 		strb	r3, [r4, #34]
 228              		.loc 1 174 3 is_stmt 1 view .LVU55
ARM GAS  /tmp/ccYHlgzE.s 			page 5


 229              	.LBB135:
 230              	.LBI135:
 231              		.loc 2 365 20 view .LVU56
 232              	.LBB136:
 233              		.loc 2 367 22 view .LVU57
 234              		.loc 2 368 33 view .LVU58
 235              		.loc 2 374 3 view .LVU59
 236              		.loc 2 374 3 view .LVU60
 237              		.loc 2 378 3 view .LVU61
 238              	.LBB137:
 239              	.LBI137:
 240              		.loc 3 693 27 view .LVU62
 241              	.LBE137:
 242              	.LBE136:
 243              	.LBE135:
 244              		.loc 3 696 3 view .LVU63
 245              	.LVL8:
 246              	.LBB148:
 247              	.LBB145:
 248              	.LBB142:
 249              	.LBB138:
 250              	.LBI138:
 251              		.loc 4 491 27 view .LVU64
 252              	.LBB139:
 253              		.loc 4 493 3 view .LVU65
 254 003a 0023     		movs	r3, #0
 255              		.syntax unified
 256              	@ 493 "../../../external/ChibiOS/os/common/ext/ARM/CMSIS/Core/Include/cmsis_gcc.h" 1
 257 003c 83F31188 		MSR basepri, r3
 258              	@ 0 "" 2
 259              	.LVL9:
 260              		.loc 4 493 3 is_stmt 0 view .LVU66
 261              		.thumb
 262              		.syntax unified
 263              	.LBE139:
 264              	.LBE138:
 265              	.LBE142:
 266              	.LBE145:
 267              	.LBE148:
 268              		.loc 1 176 3 is_stmt 1 view .LVU67
 269 0040 FFF7FEFF 		bl	chThdRelease
 270              	.LVL10:
 271              		.loc 1 179 3 view .LVU68
 272              		.loc 1 180 1 is_stmt 0 view .LVU69
 273 0044 2046     		mov	r0, r4
 274 0046 10BD     		pop	{r4, pc}
 275              	.LVL11:
 276              	.L7:
 277              		.loc 1 166 9 view .LVU70
 278 0048 0024     		movs	r4, #0
 279              	.LVL12:
 280              		.loc 1 174 3 is_stmt 1 view .LVU71
 281              	.LBB149:
 282              		.loc 2 365 20 view .LVU72
 283              	.LBB146:
 284              		.loc 2 367 22 view .LVU73
 285              		.loc 2 368 33 view .LVU74
ARM GAS  /tmp/ccYHlgzE.s 			page 6


 286              		.loc 2 374 3 view .LVU75
 287              		.loc 2 374 3 view .LVU76
 288              		.loc 2 378 3 view .LVU77
 289              	.LBB143:
 290              		.loc 3 693 27 view .LVU78
 291              	.LBE143:
 292              	.LBE146:
 293              	.LBE149:
 294              		.loc 3 696 3 view .LVU79
 295              	.LBB150:
 296              	.LBB147:
 297              	.LBB144:
 298              	.LBB141:
 299              		.loc 4 491 27 view .LVU80
 300              	.LBB140:
 301              		.loc 4 493 3 view .LVU81
 302 004a 0023     		movs	r3, #0
 303              		.syntax unified
 304              	@ 493 "../../../external/ChibiOS/os/common/ext/ARM/CMSIS/Core/Include/cmsis_gcc.h" 1
 305 004c 83F31188 		MSR basepri, r3
 306              	@ 0 "" 2
 307              	.LVL13:
 308              		.loc 4 493 3 is_stmt 0 view .LVU82
 309              		.thumb
 310              		.syntax unified
 311              	.LBE140:
 312              	.LBE141:
 313              	.LBE144:
 314              	.LBE147:
 315              	.LBE150:
 316              		.loc 1 176 3 is_stmt 1 view .LVU83
 317 0050 FFF7FEFF 		bl	chThdRelease
 318              	.LVL14:
 319              		.loc 1 179 3 view .LVU84
 320              		.loc 1 180 1 is_stmt 0 view .LVU85
 321 0054 2046     		mov	r0, r4
 322 0056 10BD     		pop	{r4, pc}
 323              	.LVL15:
 324              	.L10:
 325              		.loc 1 180 1 view .LVU86
 326              		.align	2
 327              	.L9:
 328 0058 00000000 		.word	ch
 329              		.cfi_endproc
 330              	.LFE324:
 331              		.size	chRegNextThread, .-chRegNextThread
 332              		.align	1
 333 005c AFF30080 		.p2align 4,,15
 334              		.global	chRegFindThreadByName
 335              		.syntax unified
 336              		.thumb
 337              		.thumb_func
 338              		.fpu fpv4-sp-d16
 339              		.type	chRegFindThreadByName, %function
 340              	chRegFindThreadByName:
 341              	.LVL16:
 342              	.LFB325:
ARM GAS  /tmp/ccYHlgzE.s 			page 7


 343              		.loc 1 194 51 is_stmt 1 view -0
 344              		.cfi_startproc
 345              		@ args = 0, pretend = 0, frame = 0
 346              		@ frame_needed = 0, uses_anonymous_args = 0
 347              		.loc 1 195 3 view .LVU88
 348              		.loc 1 198 3 view .LVU89
 349              	.LBB151:
 350              	.LBI151:
 351              		.loc 1 134 11 view .LVU90
 352              	.LBB152:
 353              		.loc 1 135 3 view .LVU91
 354              		.loc 1 137 3 view .LVU92
 355              	.LBB153:
 356              	.LBI153:
 357              		.loc 2 353 20 view .LVU93
 358              	.LBE153:
 359              	.LBE152:
 360              	.LBE151:
 361              		.loc 2 355 3 view .LVU94
 362              	.LBB182:
 363              	.LBB177:
 364              	.LBB161:
 365              	.LBB154:
 366              	.LBI154:
 367              		.loc 3 669 27 view .LVU95
 368              	.LBE154:
 369              	.LBE161:
 370              	.LBE177:
 371              	.LBE182:
 372              		.loc 3 677 3 view .LVU96
 373              	.LBB183:
 374              	.LBB178:
 375              	.LBB162:
 376              	.LBB159:
 377              	.LBB155:
 378              	.LBI155:
 379              		.loc 4 491 27 view .LVU97
 380              	.LBB156:
 381              		.loc 4 493 3 view .LVU98
 382              	.LBE156:
 383              	.LBE155:
 384              	.LBE159:
 385              	.LBE162:
 386              	.LBE178:
 387              	.LBE183:
 388              		.loc 1 194 51 is_stmt 0 view .LVU99
 389 0060 2DE9F041 		push	{r4, r5, r6, r7, r8, lr}
 390              		.cfi_def_cfa_offset 24
 391              		.cfi_offset 4, -24
 392              		.cfi_offset 5, -20
 393              		.cfi_offset 6, -16
 394              		.cfi_offset 7, -12
 395              		.cfi_offset 8, -8
 396              		.cfi_offset 14, -4
 397              		.loc 1 194 51 view .LVU100
 398 0064 8046     		mov	r8, r0
 399              	.LBB184:
ARM GAS  /tmp/ccYHlgzE.s 			page 8


 400              	.LBB179:
 401              	.LBB163:
 402              	.LBB160:
 403              	.LBB158:
 404              	.LBB157:
 405              		.loc 4 493 3 view .LVU101
 406 0066 2025     		movs	r5, #32
 407              		.syntax unified
 408              	@ 493 "../../../external/ChibiOS/os/common/ext/ARM/CMSIS/Core/Include/cmsis_gcc.h" 1
 409 0068 85F31188 		MSR basepri, r5
 410              	@ 0 "" 2
 411              	.LVL17:
 412              		.loc 4 493 3 view .LVU102
 413              		.thumb
 414              		.syntax unified
 415              	.LBE157:
 416              	.LBE158:
 417              	.LBE160:
 418              	.LBE163:
 419              	.LBE179:
 420              	.LBE184:
 421              		.loc 2 356 34 is_stmt 1 view .LVU103
 422              		.loc 2 357 20 view .LVU104
 423              	.LBB185:
 424              	.LBB180:
 425              		.loc 1 138 3 view .LVU105
 426              		.loc 1 138 6 is_stmt 0 view .LVU106
 427 006c 144F     		ldr	r7, .L19
 428              	.LBB164:
 429              	.LBB165:
 430              	.LBB166:
 431              	.LBB167:
 432              	.LBB168:
 433              		.loc 4 493 3 view .LVU107
 434 006e 0026     		movs	r6, #0
 435              	.LBE168:
 436              	.LBE167:
 437              	.LBE166:
 438              	.LBE165:
 439              	.LBE164:
 440              		.loc 1 138 6 view .LVU108
 441 0070 3C69     		ldr	r4, [r7, #16]
 442              	.LVL18:
 443              		.loc 1 140 3 is_stmt 1 view .LVU109
 444              		.loc 1 140 11 is_stmt 0 view .LVU110
 445 0072 94F82230 		ldrb	r3, [r4, #34]	@ zero_extendqisi2
 446 0076 0133     		adds	r3, r3, #1
 447 0078 84F82230 		strb	r3, [r4, #34]
 448              		.loc 1 142 3 is_stmt 1 view .LVU111
 449              	.LBB175:
 450              	.LBI164:
 451              		.loc 2 365 20 view .LVU112
 452              	.LBB173:
 453              		.loc 2 367 22 view .LVU113
 454              		.loc 2 368 33 view .LVU114
 455              		.loc 2 374 3 view .LVU115
 456              		.loc 2 374 3 view .LVU116
ARM GAS  /tmp/ccYHlgzE.s 			page 9


 457              		.loc 2 378 3 view .LVU117
 458              	.LBB171:
 459              	.LBI166:
 460              		.loc 3 693 27 view .LVU118
 461              	.LBE171:
 462              	.LBE173:
 463              	.LBE175:
 464              	.LBE180:
 465              	.LBE185:
 466              		.loc 3 696 3 view .LVU119
 467              	.LVL19:
 468              	.LBB186:
 469              	.LBB181:
 470              	.LBB176:
 471              	.LBB174:
 472              	.LBB172:
 473              	.LBB170:
 474              	.LBI167:
 475              		.loc 4 491 27 view .LVU120
 476              	.LBB169:
 477              		.loc 4 493 3 view .LVU121
 478              		.syntax unified
 479              	@ 493 "../../../external/ChibiOS/os/common/ext/ARM/CMSIS/Core/Include/cmsis_gcc.h" 1
 480 007c 86F31188 		MSR basepri, r6
 481              	@ 0 "" 2
 482              	.LVL20:
 483              		.loc 4 493 3 is_stmt 0 view .LVU122
 484              		.thumb
 485              		.syntax unified
 486              	.LBE169:
 487              	.LBE170:
 488              	.LBE172:
 489              	.LBE174:
 490              	.LBE176:
 491              		.loc 1 144 3 is_stmt 1 view .LVU123
 492              		.loc 1 144 3 is_stmt 0 view .LVU124
 493 0080 0AE0     		b	.L14
 494              	.LVL21:
 495              	.L13:
 496              		.loc 1 144 3 view .LVU125
 497              	.LBE181:
 498              	.LBE186:
 499              	.LBB187:
 500              	.LBB188:
 501              		.loc 1 171 14 view .LVU126
 502 0082 93F82220 		ldrb	r2, [r3, #34]	@ zero_extendqisi2
 503 0086 0132     		adds	r2, r2, #1
 504 0088 83F82220 		strb	r2, [r3, #34]
 505              		.loc 1 174 3 is_stmt 1 view .LVU127
 506              	.LBB189:
 507              	.LBI189:
 508              		.loc 2 365 20 view .LVU128
 509              	.LBB190:
 510              		.loc 2 367 22 view .LVU129
 511              		.loc 2 368 33 view .LVU130
 512              		.loc 2 374 3 view .LVU131
 513              		.loc 2 374 3 view .LVU132
ARM GAS  /tmp/ccYHlgzE.s 			page 10


 514              		.loc 2 378 3 view .LVU133
 515              	.LBB191:
 516              	.LBI191:
 517              		.loc 3 693 27 view .LVU134
 518              	.LBE191:
 519              	.LBE190:
 520              	.LBE189:
 521              	.LBE188:
 522              	.LBE187:
 523              		.loc 3 696 3 view .LVU135
 524              	.LVL22:
 525              	.LBB224:
 526              	.LBB216:
 527              	.LBB202:
 528              	.LBB199:
 529              	.LBB196:
 530              	.LBB192:
 531              	.LBI192:
 532              		.loc 4 491 27 view .LVU136
 533              	.LBB193:
 534              		.loc 4 493 3 view .LVU137
 535              		.syntax unified
 536              	@ 493 "../../../external/ChibiOS/os/common/ext/ARM/CMSIS/Core/Include/cmsis_gcc.h" 1
 537 008c 86F31188 		MSR basepri, r6
 538              	@ 0 "" 2
 539              	.LVL23:
 540              		.loc 4 493 3 is_stmt 0 view .LVU138
 541              		.thumb
 542              		.syntax unified
 543              	.LBE193:
 544              	.LBE192:
 545              	.LBE196:
 546              	.LBE199:
 547              	.LBE202:
 548              		.loc 1 176 3 is_stmt 1 view .LVU139
 549 0090 2046     		mov	r0, r4
 550 0092 1C46     		mov	r4, r3
 551              	.LVL24:
 552              		.loc 1 176 3 is_stmt 0 view .LVU140
 553 0094 FFF7FEFF 		bl	chThdRelease
 554              	.LVL25:
 555              		.loc 1 179 3 is_stmt 1 view .LVU141
 556              	.L14:
 557              		.loc 1 179 3 is_stmt 0 view .LVU142
 558              	.LBE216:
 559              	.LBE224:
 560              		.loc 1 199 3 is_stmt 1 view .LVU143
 561              		.loc 1 200 5 view .LVU144
 562              		.file 5 "../../../external/ChibiOS/os/rt/include/chregistry.h"
 563              		.loc 5 156 3 view .LVU145
 564              		.loc 1 200 9 is_stmt 0 view .LVU146
 565 0098 4146     		mov	r1, r8
 566 009a A069     		ldr	r0, [r4, #24]
 567 009c FFF7FEFF 		bl	strcmp
 568              	.LVL26:
 569              		.loc 1 203 5 is_stmt 1 view .LVU147
 570              	.LBB225:
ARM GAS  /tmp/ccYHlgzE.s 			page 11


 571              	.LBI187:
 572              		.loc 1 158 11 view .LVU148
 573              	.LBB217:
 574              		.loc 1 159 3 view .LVU149
 575              		.loc 1 161 3 view .LVU150
 576              	.LBB203:
 577              	.LBI203:
 578              		.loc 2 353 20 view .LVU151
 579              	.LBE203:
 580              	.LBE217:
 581              	.LBE225:
 582              		.loc 2 355 3 view .LVU152
 583              	.LBB226:
 584              	.LBB218:
 585              	.LBB211:
 586              	.LBB204:
 587              	.LBI204:
 588              		.loc 3 669 27 view .LVU153
 589              	.LBE204:
 590              	.LBE211:
 591              	.LBE218:
 592              	.LBE226:
 593              		.loc 3 677 3 view .LVU154
 594              	.LBB227:
 595              	.LBB219:
 596              	.LBB212:
 597              	.LBB209:
 598              	.LBB205:
 599              	.LBI205:
 600              		.loc 4 491 27 view .LVU155
 601              	.LBB206:
 602              		.loc 4 493 3 view .LVU156
 603              	.LBE206:
 604              	.LBE205:
 605              	.LBE209:
 606              	.LBE212:
 607              	.LBE219:
 608              	.LBE227:
 609              		.loc 1 200 8 is_stmt 0 view .LVU157
 610 00a0 58B1     		cbz	r0, .L11
 611              	.LBB228:
 612              	.LBB220:
 613              	.LBB213:
 614              	.LBB210:
 615              	.LBB208:
 616              	.LBB207:
 617              		.loc 4 493 3 view .LVU158
 618              		.syntax unified
 619              	@ 493 "../../../external/ChibiOS/os/common/ext/ARM/CMSIS/Core/Include/cmsis_gcc.h" 1
 620 00a2 85F31188 		MSR basepri, r5
 621              	@ 0 "" 2
 622              	.LVL27:
 623              		.loc 4 493 3 view .LVU159
 624              		.thumb
 625              		.syntax unified
 626              	.LBE207:
 627              	.LBE208:
ARM GAS  /tmp/ccYHlgzE.s 			page 12


 628              	.LBE210:
 629              	.LBE213:
 630              	.LBE220:
 631              	.LBE228:
 632              		.loc 2 356 34 is_stmt 1 view .LVU160
 633              		.loc 2 357 20 view .LVU161
 634              	.LBB229:
 635              	.LBB221:
 636              		.loc 1 162 3 view .LVU162
 637              		.loc 1 170 5 view .LVU163
 638              		.loc 1 170 5 view .LVU164
 639              		.loc 1 171 5 view .LVU165
 640              		.loc 1 162 7 is_stmt 0 view .LVU166
 641 00a6 2369     		ldr	r3, [r4, #16]
 642              	.LVL28:
 643              		.loc 1 164 3 is_stmt 1 view .LVU167
 644              		.loc 1 164 6 is_stmt 0 view .LVU168
 645 00a8 BB42     		cmp	r3, r7
 646 00aa EAD1     		bne	.L13
 647              	.LVL29:
 648              		.loc 1 174 3 is_stmt 1 view .LVU169
 649              	.LBB214:
 650              		.loc 2 365 20 view .LVU170
 651              	.LBB200:
 652              		.loc 2 367 22 view .LVU171
 653              		.loc 2 368 33 view .LVU172
 654              		.loc 2 374 3 view .LVU173
 655              		.loc 2 374 3 view .LVU174
 656              		.loc 2 378 3 view .LVU175
 657              	.LBB197:
 658              		.loc 3 693 27 view .LVU176
 659              	.LBE197:
 660              	.LBE200:
 661              	.LBE214:
 662              	.LBE221:
 663              	.LBE229:
 664              		.loc 3 696 3 view .LVU177
 665              	.LBB230:
 666              	.LBB222:
 667              	.LBB215:
 668              	.LBB201:
 669              	.LBB198:
 670              	.LBB195:
 671              		.loc 4 491 27 view .LVU178
 672              	.LBB194:
 673              		.loc 4 493 3 view .LVU179
 674 00ac 0023     		movs	r3, #0
 675              		.syntax unified
 676              	@ 493 "../../../external/ChibiOS/os/common/ext/ARM/CMSIS/Core/Include/cmsis_gcc.h" 1
 677 00ae 83F31188 		MSR basepri, r3
 678              	@ 0 "" 2
 679              	.LVL30:
 680              		.loc 4 493 3 is_stmt 0 view .LVU180
 681              		.thumb
 682              		.syntax unified
 683              	.LBE194:
 684              	.LBE195:
ARM GAS  /tmp/ccYHlgzE.s 			page 13


 685              	.LBE198:
 686              	.LBE201:
 687              	.LBE215:
 688              		.loc 1 176 3 is_stmt 1 view .LVU181
 689 00b2 2046     		mov	r0, r4
 690              	.LBE222:
 691              	.LBE230:
 692              		.loc 1 206 10 is_stmt 0 view .LVU182
 693 00b4 1C46     		mov	r4, r3
 694              	.LVL31:
 695              	.LBB231:
 696              	.LBB223:
 697              		.loc 1 176 3 view .LVU183
 698 00b6 FFF7FEFF 		bl	chThdRelease
 699              	.LVL32:
 700              		.loc 1 179 3 is_stmt 1 view .LVU184
 701              	.L11:
 702              		.loc 1 179 3 is_stmt 0 view .LVU185
 703              	.LBE223:
 704              	.LBE231:
 705              		.loc 1 207 1 view .LVU186
 706 00ba 2046     		mov	r0, r4
 707 00bc BDE8F081 		pop	{r4, r5, r6, r7, r8, pc}
 708              	.LVL33:
 709              	.L20:
 710              		.loc 1 207 1 view .LVU187
 711              		.align	2
 712              	.L19:
 713 00c0 00000000 		.word	ch
 714              		.cfi_endproc
 715              	.LFE325:
 716              		.size	chRegFindThreadByName, .-chRegFindThreadByName
 717              		.align	1
 718 00c4 AFF30080 		.p2align 4,,15
 718      AFF30080 
 718      AFF30080 
 719              		.global	chRegFindThreadByPointer
 720              		.syntax unified
 721              		.thumb
 722              		.thumb_func
 723              		.fpu fpv4-sp-d16
 724              		.type	chRegFindThreadByPointer, %function
 725              	chRegFindThreadByPointer:
 726              	.LVL34:
 727              	.LFB326:
 728              		.loc 1 221 50 is_stmt 1 view -0
 729              		.cfi_startproc
 730              		@ args = 0, pretend = 0, frame = 0
 731              		@ frame_needed = 0, uses_anonymous_args = 0
 732              		.loc 1 222 3 view .LVU189
 733              		.loc 1 225 3 view .LVU190
 734              	.LBB232:
 735              	.LBI232:
 736              		.loc 1 134 11 view .LVU191
 737              	.LBB233:
 738              		.loc 1 135 3 view .LVU192
 739              		.loc 1 137 3 view .LVU193
ARM GAS  /tmp/ccYHlgzE.s 			page 14


 740              	.LBB234:
 741              	.LBI234:
 742              		.loc 2 353 20 view .LVU194
 743              	.LBE234:
 744              	.LBE233:
 745              	.LBE232:
 746              		.loc 2 355 3 view .LVU195
 747              	.LBB263:
 748              	.LBB258:
 749              	.LBB242:
 750              	.LBB235:
 751              	.LBI235:
 752              		.loc 3 669 27 view .LVU196
 753              	.LBE235:
 754              	.LBE242:
 755              	.LBE258:
 756              	.LBE263:
 757              		.loc 3 677 3 view .LVU197
 758              	.LBB264:
 759              	.LBB259:
 760              	.LBB243:
 761              	.LBB240:
 762              	.LBB236:
 763              	.LBI236:
 764              		.loc 4 491 27 view .LVU198
 765              	.LBB237:
 766              		.loc 4 493 3 view .LVU199
 767              	.LBE237:
 768              	.LBE236:
 769              	.LBE240:
 770              	.LBE243:
 771              	.LBE259:
 772              	.LBE264:
 773              		.loc 1 221 50 is_stmt 0 view .LVU200
 774 00d0 2DE9F041 		push	{r4, r5, r6, r7, r8, lr}
 775              		.cfi_def_cfa_offset 24
 776              		.cfi_offset 4, -24
 777              		.cfi_offset 5, -20
 778              		.cfi_offset 6, -16
 779              		.cfi_offset 7, -12
 780              		.cfi_offset 8, -8
 781              		.cfi_offset 14, -4
 782              		.loc 1 221 50 view .LVU201
 783 00d4 0646     		mov	r6, r0
 784              	.LBB265:
 785              	.LBB260:
 786              	.LBB244:
 787              	.LBB241:
 788              	.LBB239:
 789              	.LBB238:
 790              		.loc 4 493 3 view .LVU202
 791 00d6 2025     		movs	r5, #32
 792              		.syntax unified
 793              	@ 493 "../../../external/ChibiOS/os/common/ext/ARM/CMSIS/Core/Include/cmsis_gcc.h" 1
 794 00d8 85F31188 		MSR basepri, r5
 795              	@ 0 "" 2
 796              	.LVL35:
ARM GAS  /tmp/ccYHlgzE.s 			page 15


 797              		.loc 4 493 3 view .LVU203
 798              		.thumb
 799              		.syntax unified
 800              	.LBE238:
 801              	.LBE239:
 802              	.LBE241:
 803              	.LBE244:
 804              	.LBE260:
 805              	.LBE265:
 806              		.loc 2 356 34 is_stmt 1 view .LVU204
 807              		.loc 2 357 20 view .LVU205
 808              	.LBB266:
 809              	.LBB261:
 810              		.loc 1 138 3 view .LVU206
 811              		.loc 1 138 6 is_stmt 0 view .LVU207
 812 00dc DFF86480 		ldr	r8, .L30
 813              	.LBB245:
 814              	.LBB246:
 815              	.LBB247:
 816              	.LBB248:
 817              	.LBB249:
 818              		.loc 4 493 3 view .LVU208
 819 00e0 0027     		movs	r7, #0
 820              	.LBE249:
 821              	.LBE248:
 822              	.LBE247:
 823              	.LBE246:
 824              	.LBE245:
 825              		.loc 1 138 6 view .LVU209
 826 00e2 D8F81000 		ldr	r0, [r8, #16]
 827              	.LVL36:
 828              		.loc 1 140 3 is_stmt 1 view .LVU210
 829              		.loc 1 140 11 is_stmt 0 view .LVU211
 830 00e6 90F82230 		ldrb	r3, [r0, #34]	@ zero_extendqisi2
 831 00ea 0133     		adds	r3, r3, #1
 832 00ec 80F82230 		strb	r3, [r0, #34]
 833              		.loc 1 142 3 is_stmt 1 view .LVU212
 834              	.LBB256:
 835              	.LBI245:
 836              		.loc 2 365 20 view .LVU213
 837              	.LBB254:
 838              		.loc 2 367 22 view .LVU214
 839              		.loc 2 368 33 view .LVU215
 840              		.loc 2 374 3 view .LVU216
 841              		.loc 2 374 3 view .LVU217
 842              		.loc 2 378 3 view .LVU218
 843              	.LBB252:
 844              	.LBI247:
 845              		.loc 3 693 27 view .LVU219
 846              	.LBE252:
 847              	.LBE254:
 848              	.LBE256:
 849              	.LBE261:
 850              	.LBE266:
 851              		.loc 3 696 3 view .LVU220
 852              	.LVL37:
 853              	.LBB267:
ARM GAS  /tmp/ccYHlgzE.s 			page 16


 854              	.LBB262:
 855              	.LBB257:
 856              	.LBB255:
 857              	.LBB253:
 858              	.LBB251:
 859              	.LBI248:
 860              		.loc 4 491 27 view .LVU221
 861              	.LBB250:
 862              		.loc 4 493 3 view .LVU222
 863              		.syntax unified
 864              	@ 493 "../../../external/ChibiOS/os/common/ext/ARM/CMSIS/Core/Include/cmsis_gcc.h" 1
 865 00f0 87F31188 		MSR basepri, r7
 866              	@ 0 "" 2
 867              	.LVL38:
 868              		.loc 4 493 3 is_stmt 0 view .LVU223
 869              		.thumb
 870              		.syntax unified
 871              	.LBE250:
 872              	.LBE251:
 873              	.LBE253:
 874              	.LBE255:
 875              	.LBE257:
 876              		.loc 1 144 3 is_stmt 1 view .LVU224
 877              		.loc 1 144 3 is_stmt 0 view .LVU225
 878              	.LBE262:
 879              	.LBE267:
 880              		.loc 1 226 3 is_stmt 1 view .LVU226
 881              		.loc 1 227 5 view .LVU227
 882              		.loc 1 227 8 is_stmt 0 view .LVU228
 883 00f4 8642     		cmp	r6, r0
 884 00f6 23D0     		beq	.L26
 885              		.loc 1 230 5 is_stmt 1 view .LVU229
 886              	.LVL39:
 887              	.LBB268:
 888              	.LBI268:
 889              		.loc 1 158 11 view .LVU230
 890              	.LBB269:
 891              		.loc 1 159 3 view .LVU231
 892              		.loc 1 161 3 view .LVU232
 893              	.LBB270:
 894              	.LBI270:
 895              		.loc 2 353 20 view .LVU233
 896              	.LBE270:
 897              	.LBE269:
 898              	.LBE268:
 899              		.loc 2 355 3 view .LVU234
 900              	.LBB316:
 901              	.LBB304:
 902              	.LBB282:
 903              	.LBB271:
 904              	.LBI271:
 905              		.loc 3 669 27 view .LVU235
 906              	.LBE271:
 907              	.LBE282:
 908              	.LBE304:
 909              	.LBE316:
 910              		.loc 3 677 3 view .LVU236
ARM GAS  /tmp/ccYHlgzE.s 			page 17


 911              	.LBB317:
 912              	.LBB305:
 913              	.LBB283:
 914              	.LBB278:
 915              	.LBB272:
 916              	.LBI272:
 917              		.loc 4 491 27 view .LVU237
 918              	.LBB273:
 919              		.loc 4 493 3 view .LVU238
 920              		.syntax unified
 921              	@ 493 "../../../external/ChibiOS/os/common/ext/ARM/CMSIS/Core/Include/cmsis_gcc.h" 1
 922 00f8 85F31188 		MSR basepri, r5
 923              	@ 0 "" 2
 924              	.LVL40:
 925              		.loc 4 493 3 is_stmt 0 view .LVU239
 926              		.thumb
 927              		.syntax unified
 928              	.LBE273:
 929              	.LBE272:
 930              	.LBE278:
 931              	.LBE283:
 932              	.LBE305:
 933              	.LBE317:
 934              		.loc 2 356 34 is_stmt 1 view .LVU240
 935              		.loc 2 357 20 view .LVU241
 936              	.LBB318:
 937              	.LBB306:
 938              		.loc 1 162 3 view .LVU242
 939              		.loc 1 162 7 is_stmt 0 view .LVU243
 940 00fc 0469     		ldr	r4, [r0, #16]
 941              	.LVL41:
 942              		.loc 1 164 3 is_stmt 1 view .LVU244
 943              		.loc 1 164 6 is_stmt 0 view .LVU245
 944 00fe 4445     		cmp	r4, r8
 945 0100 01D1     		bne	.L24
 946 0102 1BE0     		b	.L27
 947              	.LVL42:
 948              	.L28:
 949              		.loc 1 164 6 view .LVU246
 950 0104 1C46     		mov	r4, r3
 951              	.LVL43:
 952              	.L24:
 953              		.loc 1 170 5 is_stmt 1 view .LVU247
 954              		.loc 1 170 5 view .LVU248
 955              		.loc 1 171 5 view .LVU249
 956              		.loc 1 171 14 is_stmt 0 view .LVU250
 957 0106 94F82230 		ldrb	r3, [r4, #34]	@ zero_extendqisi2
 958 010a 0133     		adds	r3, r3, #1
 959 010c 84F82230 		strb	r3, [r4, #34]
 960              		.loc 1 174 3 is_stmt 1 view .LVU251
 961              	.LBB284:
 962              	.LBI284:
 963              		.loc 2 365 20 view .LVU252
 964              	.LBB285:
 965              		.loc 2 367 22 view .LVU253
 966              		.loc 2 368 33 view .LVU254
 967              		.loc 2 374 3 view .LVU255
ARM GAS  /tmp/ccYHlgzE.s 			page 18


 968              		.loc 2 374 3 view .LVU256
 969              		.loc 2 378 3 view .LVU257
 970              	.LBB286:
 971              	.LBI286:
 972              		.loc 3 693 27 view .LVU258
 973              	.LBE286:
 974              	.LBE285:
 975              	.LBE284:
 976              	.LBE306:
 977              	.LBE318:
 978              		.loc 3 696 3 view .LVU259
 979              	.LVL44:
 980              	.LBB319:
 981              	.LBB307:
 982              	.LBB297:
 983              	.LBB294:
 984              	.LBB291:
 985              	.LBB287:
 986              	.LBI287:
 987              		.loc 4 491 27 view .LVU260
 988              	.LBB288:
 989              		.loc 4 493 3 view .LVU261
 990              		.syntax unified
 991              	@ 493 "../../../external/ChibiOS/os/common/ext/ARM/CMSIS/Core/Include/cmsis_gcc.h" 1
 992 0110 87F31188 		MSR basepri, r7
 993              	@ 0 "" 2
 994              	.LVL45:
 995              		.loc 4 493 3 is_stmt 0 view .LVU262
 996              		.thumb
 997              		.syntax unified
 998              	.LBE288:
 999              	.LBE287:
 1000              	.LBE291:
 1001              	.LBE294:
 1002              	.LBE297:
 1003              		.loc 1 176 3 is_stmt 1 view .LVU263
 1004 0114 FFF7FEFF 		bl	chThdRelease
 1005              	.LVL46:
 1006              		.loc 1 176 3 is_stmt 0 view .LVU264
 1007              	.LBE307:
 1008              	.LBE319:
 1009              		.loc 1 230 5 is_stmt 1 view .LVU265
 1010              	.LBB320:
 1011              		.loc 1 158 11 view .LVU266
 1012              	.LBB308:
 1013              		.loc 1 159 3 view .LVU267
 1014              		.loc 1 161 3 view .LVU268
 1015              	.LBB298:
 1016              		.loc 2 353 20 view .LVU269
 1017              	.LBE298:
 1018              	.LBE308:
 1019              	.LBE320:
 1020              		.loc 2 355 3 view .LVU270
 1021              	.LBB321:
 1022              	.LBB309:
 1023              	.LBB299:
 1024              	.LBB279:
ARM GAS  /tmp/ccYHlgzE.s 			page 19


 1025              		.loc 3 669 27 view .LVU271
 1026              	.LBE279:
 1027              	.LBE299:
 1028              	.LBE309:
 1029              	.LBE321:
 1030              		.loc 3 677 3 view .LVU272
 1031              	.LBB322:
 1032              	.LBB310:
 1033              	.LBB300:
 1034              	.LBB280:
 1035              	.LBB276:
 1036              		.loc 4 491 27 view .LVU273
 1037              	.LBB274:
 1038              		.loc 4 493 3 view .LVU274
 1039              	.LBE274:
 1040              	.LBE276:
 1041              	.LBE280:
 1042              	.LBE300:
 1043              		.loc 1 179 3 view .LVU275
 1044              		.loc 1 179 3 is_stmt 0 view .LVU276
 1045              	.LBE310:
 1046              	.LBE322:
 1047              		.loc 1 226 3 is_stmt 1 view .LVU277
 1048              		.loc 1 227 5 view .LVU278
 1049              		.loc 1 227 8 is_stmt 0 view .LVU279
 1050 0118 A642     		cmp	r6, r4
 1051 011a 0CD0     		beq	.L21
 1052              	.LBB323:
 1053              	.LBB311:
 1054              	.LBB301:
 1055              	.LBB281:
 1056              	.LBB277:
 1057              	.LBB275:
 1058              		.loc 4 493 3 view .LVU280
 1059              		.syntax unified
 1060              	@ 493 "../../../external/ChibiOS/os/common/ext/ARM/CMSIS/Core/Include/cmsis_gcc.h" 1
 1061 011c 85F31188 		MSR basepri, r5
 1062              	@ 0 "" 2
 1063              	.LVL47:
 1064              		.loc 4 493 3 view .LVU281
 1065              		.thumb
 1066              		.syntax unified
 1067              	.LBE275:
 1068              	.LBE277:
 1069              	.LBE281:
 1070              	.LBE301:
 1071              	.LBE311:
 1072              	.LBE323:
 1073              		.loc 2 356 34 is_stmt 1 view .LVU282
 1074              		.loc 2 357 20 view .LVU283
 1075              	.LBB324:
 1076              	.LBB312:
 1077              		.loc 1 162 3 view .LVU284
 1078              		.loc 1 162 7 is_stmt 0 view .LVU285
 1079 0120 2369     		ldr	r3, [r4, #16]
 1080              	.LVL48:
 1081              		.loc 1 164 3 is_stmt 1 view .LVU286
ARM GAS  /tmp/ccYHlgzE.s 			page 20


 1082 0122 2046     		mov	r0, r4
 1083              		.loc 1 164 6 is_stmt 0 view .LVU287
 1084 0124 4345     		cmp	r3, r8
 1085 0126 EDD1     		bne	.L28
 1086              	.LVL49:
 1087              	.L23:
 1088              		.loc 1 174 3 is_stmt 1 view .LVU288
 1089              	.LBB302:
 1090              		.loc 2 365 20 view .LVU289
 1091              	.LBB295:
 1092              		.loc 2 367 22 view .LVU290
 1093              		.loc 2 368 33 view .LVU291
 1094              		.loc 2 374 3 view .LVU292
 1095              		.loc 2 374 3 view .LVU293
 1096              		.loc 2 378 3 view .LVU294
 1097              	.LBB292:
 1098              		.loc 3 693 27 view .LVU295
 1099              	.LBE292:
 1100              	.LBE295:
 1101              	.LBE302:
 1102              	.LBE312:
 1103              	.LBE324:
 1104              		.loc 3 696 3 view .LVU296
 1105              	.LBB325:
 1106              	.LBB313:
 1107              	.LBB303:
 1108              	.LBB296:
 1109              	.LBB293:
 1110              	.LBB290:
 1111              		.loc 4 491 27 view .LVU297
 1112              	.LBB289:
 1113              		.loc 4 493 3 view .LVU298
 1114 0128 0023     		movs	r3, #0
 1115              		.syntax unified
 1116              	@ 493 "../../../external/ChibiOS/os/common/ext/ARM/CMSIS/Core/Include/cmsis_gcc.h" 1
 1117 012a 83F31188 		MSR basepri, r3
 1118              	@ 0 "" 2
 1119              	.LVL50:
 1120              		.loc 4 493 3 is_stmt 0 view .LVU299
 1121              		.thumb
 1122              		.syntax unified
 1123              	.LBE289:
 1124              	.LBE290:
 1125              	.LBE293:
 1126              	.LBE296:
 1127              	.LBE303:
 1128              		.loc 1 176 3 is_stmt 1 view .LVU300
 1129 012e 2046     		mov	r0, r4
 1130              	.LVL51:
 1131              		.loc 1 176 3 is_stmt 0 view .LVU301
 1132              	.LBE313:
 1133              	.LBE325:
 1134              		.loc 1 233 10 view .LVU302
 1135 0130 1C46     		mov	r4, r3
 1136              	.LVL52:
 1137              	.LBB326:
 1138              	.LBB314:
ARM GAS  /tmp/ccYHlgzE.s 			page 21


 1139              		.loc 1 176 3 view .LVU303
 1140 0132 FFF7FEFF 		bl	chThdRelease
 1141              	.LVL53:
 1142              		.loc 1 179 3 is_stmt 1 view .LVU304
 1143              	.L21:
 1144              		.loc 1 179 3 is_stmt 0 view .LVU305
 1145              	.LBE314:
 1146              	.LBE326:
 1147              		.loc 1 234 1 view .LVU306
 1148 0136 2046     		mov	r0, r4
 1149 0138 BDE8F081 		pop	{r4, r5, r6, r7, r8, pc}
 1150              	.LVL54:
 1151              	.L27:
 1152              	.LBB327:
 1153              	.LBB315:
 1154              		.loc 1 164 6 view .LVU307
 1155 013c 0446     		mov	r4, r0
 1156              	.LVL55:
 1157              		.loc 1 164 6 view .LVU308
 1158 013e F3E7     		b	.L23
 1159              	.LVL56:
 1160              	.L26:
 1161              		.loc 1 164 6 view .LVU309
 1162              	.LBE315:
 1163              	.LBE327:
 1164              		.loc 1 227 8 view .LVU310
 1165 0140 3446     		mov	r4, r6
 1166 0142 F8E7     		b	.L21
 1167              	.L31:
 1168              		.align	2
 1169              	.L30:
 1170 0144 00000000 		.word	ch
 1171              		.cfi_endproc
 1172              	.LFE326:
 1173              		.size	chRegFindThreadByPointer, .-chRegFindThreadByPointer
 1174              		.align	1
 1175 0148 AFF30080 		.p2align 4,,15
 1175      AFF30080 
 1176              		.global	chRegFindThreadByWorkingArea
 1177              		.syntax unified
 1178              		.thumb
 1179              		.thumb_func
 1180              		.fpu fpv4-sp-d16
 1181              		.type	chRegFindThreadByWorkingArea, %function
 1182              	chRegFindThreadByWorkingArea:
 1183              	.LVL57:
 1184              	.LFB327:
 1185              		.loc 1 250 56 is_stmt 1 view -0
 1186              		.cfi_startproc
 1187              		@ args = 0, pretend = 0, frame = 0
 1188              		@ frame_needed = 0, uses_anonymous_args = 0
 1189              		.loc 1 251 3 view .LVU312
 1190              		.loc 1 254 3 view .LVU313
 1191              	.LBB328:
 1192              	.LBI328:
 1193              		.loc 1 134 11 view .LVU314
 1194              	.LBB329:
ARM GAS  /tmp/ccYHlgzE.s 			page 22


 1195              		.loc 1 135 3 view .LVU315
 1196              		.loc 1 137 3 view .LVU316
 1197              	.LBB330:
 1198              	.LBI330:
 1199              		.loc 2 353 20 view .LVU317
 1200              	.LBE330:
 1201              	.LBE329:
 1202              	.LBE328:
 1203              		.loc 2 355 3 view .LVU318
 1204              	.LBB359:
 1205              	.LBB354:
 1206              	.LBB338:
 1207              	.LBB331:
 1208              	.LBI331:
 1209              		.loc 3 669 27 view .LVU319
 1210              	.LBE331:
 1211              	.LBE338:
 1212              	.LBE354:
 1213              	.LBE359:
 1214              		.loc 3 677 3 view .LVU320
 1215              	.LBB360:
 1216              	.LBB355:
 1217              	.LBB339:
 1218              	.LBB336:
 1219              	.LBB332:
 1220              	.LBI332:
 1221              		.loc 4 491 27 view .LVU321
 1222              	.LBB333:
 1223              		.loc 4 493 3 view .LVU322
 1224              	.LBE333:
 1225              	.LBE332:
 1226              	.LBE336:
 1227              	.LBE339:
 1228              	.LBE355:
 1229              	.LBE360:
 1230              		.loc 1 250 56 is_stmt 0 view .LVU323
 1231 0150 2DE9F041 		push	{r4, r5, r6, r7, r8, lr}
 1232              		.cfi_def_cfa_offset 24
 1233              		.cfi_offset 4, -24
 1234              		.cfi_offset 5, -20
 1235              		.cfi_offset 6, -16
 1236              		.cfi_offset 7, -12
 1237              		.cfi_offset 8, -8
 1238              		.cfi_offset 14, -4
 1239              		.loc 1 250 56 view .LVU324
 1240 0154 0646     		mov	r6, r0
 1241              	.LBB361:
 1242              	.LBB356:
 1243              	.LBB340:
 1244              	.LBB337:
 1245              	.LBB335:
 1246              	.LBB334:
 1247              		.loc 4 493 3 view .LVU325
 1248 0156 2025     		movs	r5, #32
 1249              		.syntax unified
 1250              	@ 493 "../../../external/ChibiOS/os/common/ext/ARM/CMSIS/Core/Include/cmsis_gcc.h" 1
 1251 0158 85F31188 		MSR basepri, r5
ARM GAS  /tmp/ccYHlgzE.s 			page 23


 1252              	@ 0 "" 2
 1253              	.LVL58:
 1254              		.loc 4 493 3 view .LVU326
 1255              		.thumb
 1256              		.syntax unified
 1257              	.LBE334:
 1258              	.LBE335:
 1259              	.LBE337:
 1260              	.LBE340:
 1261              	.LBE356:
 1262              	.LBE361:
 1263              		.loc 2 356 34 is_stmt 1 view .LVU327
 1264              		.loc 2 357 20 view .LVU328
 1265              	.LBB362:
 1266              	.LBB357:
 1267              		.loc 1 138 3 view .LVU329
 1268              		.loc 1 138 6 is_stmt 0 view .LVU330
 1269 015c DFF86880 		ldr	r8, .L41
 1270              	.LBB341:
 1271              	.LBB342:
 1272              	.LBB343:
 1273              	.LBB344:
 1274              	.LBB345:
 1275              		.loc 4 493 3 view .LVU331
 1276 0160 0027     		movs	r7, #0
 1277              	.LBE345:
 1278              	.LBE344:
 1279              	.LBE343:
 1280              	.LBE342:
 1281              	.LBE341:
 1282              		.loc 1 138 6 view .LVU332
 1283 0162 D8F81000 		ldr	r0, [r8, #16]
 1284              	.LVL59:
 1285              		.loc 1 140 3 is_stmt 1 view .LVU333
 1286              		.loc 1 140 11 is_stmt 0 view .LVU334
 1287 0166 90F82230 		ldrb	r3, [r0, #34]	@ zero_extendqisi2
 1288 016a 0133     		adds	r3, r3, #1
 1289 016c 80F82230 		strb	r3, [r0, #34]
 1290              		.loc 1 142 3 is_stmt 1 view .LVU335
 1291              	.LBB352:
 1292              	.LBI341:
 1293              		.loc 2 365 20 view .LVU336
 1294              	.LBB350:
 1295              		.loc 2 367 22 view .LVU337
 1296              		.loc 2 368 33 view .LVU338
 1297              		.loc 2 374 3 view .LVU339
 1298              		.loc 2 374 3 view .LVU340
 1299              		.loc 2 378 3 view .LVU341
 1300              	.LBB348:
 1301              	.LBI343:
 1302              		.loc 3 693 27 view .LVU342
 1303              	.LBE348:
 1304              	.LBE350:
 1305              	.LBE352:
 1306              	.LBE357:
 1307              	.LBE362:
 1308              		.loc 3 696 3 view .LVU343
ARM GAS  /tmp/ccYHlgzE.s 			page 24


 1309              	.LVL60:
 1310              	.LBB363:
 1311              	.LBB358:
 1312              	.LBB353:
 1313              	.LBB351:
 1314              	.LBB349:
 1315              	.LBB347:
 1316              	.LBI344:
 1317              		.loc 4 491 27 view .LVU344
 1318              	.LBB346:
 1319              		.loc 4 493 3 view .LVU345
 1320              		.syntax unified
 1321              	@ 493 "../../../external/ChibiOS/os/common/ext/ARM/CMSIS/Core/Include/cmsis_gcc.h" 1
 1322 0170 87F31188 		MSR basepri, r7
 1323              	@ 0 "" 2
 1324              	.LVL61:
 1325              		.loc 4 493 3 is_stmt 0 view .LVU346
 1326              		.thumb
 1327              		.syntax unified
 1328              	.LBE346:
 1329              	.LBE347:
 1330              	.LBE349:
 1331              	.LBE351:
 1332              	.LBE353:
 1333              		.loc 1 144 3 is_stmt 1 view .LVU347
 1334              		.loc 1 144 3 is_stmt 0 view .LVU348
 1335              	.LBE358:
 1336              	.LBE363:
 1337              		.loc 1 255 3 is_stmt 1 view .LVU349
 1338              		.loc 1 256 5 view .LVU350
 1339              		.file 6 "../../../external/ChibiOS/os/rt/include/chthreads.h"
 1340              		.loc 6 319 3 view .LVU351
 1341              		.loc 1 256 8 is_stmt 0 view .LVU352
 1342 0174 C369     		ldr	r3, [r0, #28]
 1343 0176 9E42     		cmp	r6, r3
 1344 0178 24D0     		beq	.L37
 1345              		.loc 1 259 5 is_stmt 1 view .LVU353
 1346              	.LVL62:
 1347              	.LBB364:
 1348              	.LBI364:
 1349              		.loc 1 158 11 view .LVU354
 1350              	.LBB365:
 1351              		.loc 1 159 3 view .LVU355
 1352              		.loc 1 161 3 view .LVU356
 1353              	.LBB366:
 1354              	.LBI366:
 1355              		.loc 2 353 20 view .LVU357
 1356              	.LBE366:
 1357              	.LBE365:
 1358              	.LBE364:
 1359              		.loc 2 355 3 view .LVU358
 1360              	.LBB412:
 1361              	.LBB400:
 1362              	.LBB378:
 1363              	.LBB367:
 1364              	.LBI367:
 1365              		.loc 3 669 27 view .LVU359
ARM GAS  /tmp/ccYHlgzE.s 			page 25


 1366              	.LBE367:
 1367              	.LBE378:
 1368              	.LBE400:
 1369              	.LBE412:
 1370              		.loc 3 677 3 view .LVU360
 1371              	.LBB413:
 1372              	.LBB401:
 1373              	.LBB379:
 1374              	.LBB374:
 1375              	.LBB368:
 1376              	.LBI368:
 1377              		.loc 4 491 27 view .LVU361
 1378              	.LBB369:
 1379              		.loc 4 493 3 view .LVU362
 1380              		.syntax unified
 1381              	@ 493 "../../../external/ChibiOS/os/common/ext/ARM/CMSIS/Core/Include/cmsis_gcc.h" 1
 1382 017a 85F31188 		MSR basepri, r5
 1383              	@ 0 "" 2
 1384              	.LVL63:
 1385              		.loc 4 493 3 is_stmt 0 view .LVU363
 1386              		.thumb
 1387              		.syntax unified
 1388              	.LBE369:
 1389              	.LBE368:
 1390              	.LBE374:
 1391              	.LBE379:
 1392              	.LBE401:
 1393              	.LBE413:
 1394              		.loc 2 356 34 is_stmt 1 view .LVU364
 1395              		.loc 2 357 20 view .LVU365
 1396              	.LBB414:
 1397              	.LBB402:
 1398              		.loc 1 162 3 view .LVU366
 1399              		.loc 1 162 7 is_stmt 0 view .LVU367
 1400 017e 0469     		ldr	r4, [r0, #16]
 1401              	.LVL64:
 1402              		.loc 1 164 3 is_stmt 1 view .LVU368
 1403              		.loc 1 164 6 is_stmt 0 view .LVU369
 1404 0180 4445     		cmp	r4, r8
 1405 0182 01D1     		bne	.L35
 1406 0184 1CE0     		b	.L38
 1407              	.LVL65:
 1408              	.L39:
 1409              		.loc 1 164 6 view .LVU370
 1410 0186 1C46     		mov	r4, r3
 1411              	.LVL66:
 1412              	.L35:
 1413              		.loc 1 170 5 is_stmt 1 view .LVU371
 1414              		.loc 1 170 5 view .LVU372
 1415              		.loc 1 171 5 view .LVU373
 1416              		.loc 1 171 14 is_stmt 0 view .LVU374
 1417 0188 94F82230 		ldrb	r3, [r4, #34]	@ zero_extendqisi2
 1418 018c 0133     		adds	r3, r3, #1
 1419 018e 84F82230 		strb	r3, [r4, #34]
 1420              		.loc 1 174 3 is_stmt 1 view .LVU375
 1421              	.LBB380:
 1422              	.LBI380:
ARM GAS  /tmp/ccYHlgzE.s 			page 26


 1423              		.loc 2 365 20 view .LVU376
 1424              	.LBB381:
 1425              		.loc 2 367 22 view .LVU377
 1426              		.loc 2 368 33 view .LVU378
 1427              		.loc 2 374 3 view .LVU379
 1428              		.loc 2 374 3 view .LVU380
 1429              		.loc 2 378 3 view .LVU381
 1430              	.LBB382:
 1431              	.LBI382:
 1432              		.loc 3 693 27 view .LVU382
 1433              	.LBE382:
 1434              	.LBE381:
 1435              	.LBE380:
 1436              	.LBE402:
 1437              	.LBE414:
 1438              		.loc 3 696 3 view .LVU383
 1439              	.LVL67:
 1440              	.LBB415:
 1441              	.LBB403:
 1442              	.LBB393:
 1443              	.LBB390:
 1444              	.LBB387:
 1445              	.LBB383:
 1446              	.LBI383:
 1447              		.loc 4 491 27 view .LVU384
 1448              	.LBB384:
 1449              		.loc 4 493 3 view .LVU385
 1450              		.syntax unified
 1451              	@ 493 "../../../external/ChibiOS/os/common/ext/ARM/CMSIS/Core/Include/cmsis_gcc.h" 1
 1452 0192 87F31188 		MSR basepri, r7
 1453              	@ 0 "" 2
 1454              	.LVL68:
 1455              		.loc 4 493 3 is_stmt 0 view .LVU386
 1456              		.thumb
 1457              		.syntax unified
 1458              	.LBE384:
 1459              	.LBE383:
 1460              	.LBE387:
 1461              	.LBE390:
 1462              	.LBE393:
 1463              		.loc 1 176 3 is_stmt 1 view .LVU387
 1464 0196 FFF7FEFF 		bl	chThdRelease
 1465              	.LVL69:
 1466              		.loc 1 176 3 is_stmt 0 view .LVU388
 1467              	.LBE403:
 1468              	.LBE415:
 1469              		.loc 1 259 5 is_stmt 1 view .LVU389
 1470              	.LBB416:
 1471              		.loc 1 158 11 view .LVU390
 1472              	.LBB404:
 1473              		.loc 1 159 3 view .LVU391
 1474              		.loc 1 161 3 view .LVU392
 1475              	.LBB394:
 1476              		.loc 2 353 20 view .LVU393
 1477              	.LBE394:
 1478              	.LBE404:
 1479              	.LBE416:
ARM GAS  /tmp/ccYHlgzE.s 			page 27


 1480              		.loc 2 355 3 view .LVU394
 1481              	.LBB417:
 1482              	.LBB405:
 1483              	.LBB395:
 1484              	.LBB375:
 1485              		.loc 3 669 27 view .LVU395
 1486              	.LBE375:
 1487              	.LBE395:
 1488              	.LBE405:
 1489              	.LBE417:
 1490              		.loc 3 677 3 view .LVU396
 1491              	.LBB418:
 1492              	.LBB406:
 1493              	.LBB396:
 1494              	.LBB376:
 1495              	.LBB372:
 1496              		.loc 4 491 27 view .LVU397
 1497              	.LBB370:
 1498              		.loc 4 493 3 view .LVU398
 1499              	.LBE370:
 1500              	.LBE372:
 1501              	.LBE376:
 1502              	.LBE396:
 1503              		.loc 1 179 3 view .LVU399
 1504              		.loc 1 179 3 is_stmt 0 view .LVU400
 1505              	.LBE406:
 1506              	.LBE418:
 1507              		.loc 1 255 3 is_stmt 1 view .LVU401
 1508              		.loc 1 256 5 view .LVU402
 1509              		.loc 6 319 3 view .LVU403
 1510              		.loc 1 256 8 is_stmt 0 view .LVU404
 1511 019a E369     		ldr	r3, [r4, #28]
 1512 019c 9E42     		cmp	r6, r3
 1513 019e 0CD0     		beq	.L32
 1514              	.LBB419:
 1515              	.LBB407:
 1516              	.LBB397:
 1517              	.LBB377:
 1518              	.LBB373:
 1519              	.LBB371:
 1520              		.loc 4 493 3 view .LVU405
 1521              		.syntax unified
 1522              	@ 493 "../../../external/ChibiOS/os/common/ext/ARM/CMSIS/Core/Include/cmsis_gcc.h" 1
 1523 01a0 85F31188 		MSR basepri, r5
 1524              	@ 0 "" 2
 1525              	.LVL70:
 1526              		.loc 4 493 3 view .LVU406
 1527              		.thumb
 1528              		.syntax unified
 1529              	.LBE371:
 1530              	.LBE373:
 1531              	.LBE377:
 1532              	.LBE397:
 1533              	.LBE407:
 1534              	.LBE419:
 1535              		.loc 2 356 34 is_stmt 1 view .LVU407
 1536              		.loc 2 357 20 view .LVU408
ARM GAS  /tmp/ccYHlgzE.s 			page 28


 1537              	.LBB420:
 1538              	.LBB408:
 1539              		.loc 1 162 3 view .LVU409
 1540              		.loc 1 162 7 is_stmt 0 view .LVU410
 1541 01a4 2369     		ldr	r3, [r4, #16]
 1542              	.LVL71:
 1543              		.loc 1 164 3 is_stmt 1 view .LVU411
 1544 01a6 2046     		mov	r0, r4
 1545              		.loc 1 164 6 is_stmt 0 view .LVU412
 1546 01a8 4345     		cmp	r3, r8
 1547 01aa ECD1     		bne	.L39
 1548              	.LVL72:
 1549              	.L34:
 1550              		.loc 1 174 3 is_stmt 1 view .LVU413
 1551              	.LBB398:
 1552              		.loc 2 365 20 view .LVU414
 1553              	.LBB391:
 1554              		.loc 2 367 22 view .LVU415
 1555              		.loc 2 368 33 view .LVU416
 1556              		.loc 2 374 3 view .LVU417
 1557              		.loc 2 374 3 view .LVU418
 1558              		.loc 2 378 3 view .LVU419
 1559              	.LBB388:
 1560              		.loc 3 693 27 view .LVU420
 1561              	.LBE388:
 1562              	.LBE391:
 1563              	.LBE398:
 1564              	.LBE408:
 1565              	.LBE420:
 1566              		.loc 3 696 3 view .LVU421
 1567              	.LBB421:
 1568              	.LBB409:
 1569              	.LBB399:
 1570              	.LBB392:
 1571              	.LBB389:
 1572              	.LBB386:
 1573              		.loc 4 491 27 view .LVU422
 1574              	.LBB385:
 1575              		.loc 4 493 3 view .LVU423
 1576 01ac 0023     		movs	r3, #0
 1577              		.syntax unified
 1578              	@ 493 "../../../external/ChibiOS/os/common/ext/ARM/CMSIS/Core/Include/cmsis_gcc.h" 1
 1579 01ae 83F31188 		MSR basepri, r3
 1580              	@ 0 "" 2
 1581              	.LVL73:
 1582              		.loc 4 493 3 is_stmt 0 view .LVU424
 1583              		.thumb
 1584              		.syntax unified
 1585              	.LBE385:
 1586              	.LBE386:
 1587              	.LBE389:
 1588              	.LBE392:
 1589              	.LBE399:
 1590              		.loc 1 176 3 is_stmt 1 view .LVU425
 1591 01b2 2046     		mov	r0, r4
 1592              	.LVL74:
 1593              		.loc 1 176 3 is_stmt 0 view .LVU426
ARM GAS  /tmp/ccYHlgzE.s 			page 29


 1594              	.LBE409:
 1595              	.LBE421:
 1596              		.loc 1 262 10 view .LVU427
 1597 01b4 1C46     		mov	r4, r3
 1598              	.LVL75:
 1599              	.LBB422:
 1600              	.LBB410:
 1601              		.loc 1 176 3 view .LVU428
 1602 01b6 FFF7FEFF 		bl	chThdRelease
 1603              	.LVL76:
 1604              		.loc 1 179 3 is_stmt 1 view .LVU429
 1605              	.L32:
 1606              		.loc 1 179 3 is_stmt 0 view .LVU430
 1607              	.LBE410:
 1608              	.LBE422:
 1609              		.loc 1 263 1 view .LVU431
 1610 01ba 2046     		mov	r0, r4
 1611 01bc BDE8F081 		pop	{r4, r5, r6, r7, r8, pc}
 1612              	.LVL77:
 1613              	.L38:
 1614              	.LBB423:
 1615              	.LBB411:
 1616              		.loc 1 164 6 view .LVU432
 1617 01c0 0446     		mov	r4, r0
 1618              	.LVL78:
 1619              		.loc 1 164 6 view .LVU433
 1620 01c2 F3E7     		b	.L34
 1621              	.LVL79:
 1622              	.L37:
 1623              		.loc 1 164 6 view .LVU434
 1624              	.LBE411:
 1625              	.LBE423:
 1626              		.loc 1 256 8 view .LVU435
 1627 01c4 0446     		mov	r4, r0
 1628 01c6 F8E7     		b	.L32
 1629              	.L42:
 1630              		.align	2
 1631              	.L41:
 1632 01c8 00000000 		.word	ch
 1633              		.cfi_endproc
 1634              	.LFE327:
 1635              		.size	chRegFindThreadByWorkingArea, .-chRegFindThreadByWorkingArea
 1636              		.global	ch_debug
 1637              		.section	.rodata
 1638              		.align	2
 1639              		.type	ch_debug, %object
 1640              		.size	ch_debug, 22
 1641              	ch_debug:
 1642 0000 6D       		.byte	109
 1643 0001 61       		.byte	97
 1644 0002 69       		.byte	105
 1645 0003 6E       		.byte	110
 1646 0004 00       		.byte	0
 1647 0005 16       		.byte	22
 1648 0006 4130     		.short	12353
 1649 0008 04       		.byte	4
 1650 0009 04       		.byte	4
ARM GAS  /tmp/ccYHlgzE.s 			page 30


 1651 000a 44       		.byte	68
 1652 000b 08       		.byte	8
 1653 000c 0C       		.byte	12
 1654 000d 10       		.byte	16
 1655 000e 14       		.byte	20
 1656 000f 18       		.byte	24
 1657 0010 1C       		.byte	28
 1658 0011 20       		.byte	32
 1659 0012 21       		.byte	33
 1660 0013 22       		.byte	34
 1661 0014 00       		.byte	0
 1662 0015 00       		.byte	0
 1663              		.text
 1664              	.Letext0:
 1665              		.file 7 "/home/nicolas/arm/gcc-arm-none-eabi-8-2019-q3-update/lib/gcc/arm-none-eabi/8.3.1/include/
 1666              		.file 8 "/home/nicolas/arm/gcc-arm-none-eabi-8-2019-q3-update/arm-none-eabi/include/machine/_defau
 1667              		.file 9 "/home/nicolas/arm/gcc-arm-none-eabi-8-2019-q3-update/arm-none-eabi/include/sys/_types.h"
 1668              		.file 10 "/home/nicolas/arm/gcc-arm-none-eabi-8-2019-q3-update/arm-none-eabi/include/sys/reent.h"
 1669              		.file 11 "/home/nicolas/arm/gcc-arm-none-eabi-8-2019-q3-update/arm-none-eabi/include/sys/lock.h"
 1670              		.file 12 "/home/nicolas/arm/gcc-arm-none-eabi-8-2019-q3-update/arm-none-eabi/include/sys/_stdint.h
 1671              		.file 13 "../../../external/ChibiOS/os/common/ports/ARMCMx/compilers/GCC/chtypes.h"
 1672              		.file 14 "../../../external/ChibiOS/os/rt/include/chsystypes.h"
 1673              		.file 15 "../../../external/ChibiOS/os/rt/include/chschd.h"
 1674              		.file 16 "../../../external/ChibiOS/os/rt/include/chtime.h"
 1675              		.file 17 "../../../external/ChibiOS/os/common/ext/ARM/CMSIS/Core/Include/core_cm7.h"
 1676              		.file 18 "../../../external/ChibiOS/os/common/ext/ST/STM32H7xx/system_stm32h7xx.h"
 1677              		.file 19 "../../../external/ChibiOS/os/common/ports/ARMCMx/chcore.h"
 1678              		.file 20 "../../../external/ChibiOS/os/rt/include/chtrace.h"
 1679              		.file 21 "../../../external/ChibiOS/os/rt/include/chtm.h"
 1680              		.file 22 "../../../external/ChibiOS/os/rt/include/chsem.h"
 1681              		.file 23 "../../../external/ChibiOS/os/rt/include/chmtx.h"
 1682              		.file 24 "../../../external/ChibiOS/os/oslib/include/chmemcore.h"
 1683              		.file 25 "../../../external/ChibiOS/os/oslib/include/chmempools.h"
 1684              		.file 26 "../../../external/ChibiOS/os/oslib/include/chfactory.h"
 1685              		.file 27 "/home/nicolas/arm/gcc-arm-none-eabi-8-2019-q3-update/arm-none-eabi/include/string.h"