ARM GAS  /tmp/ccFoR8NM.s 			page 1


   1              		.cpu cortex-m7
   2              		.eabi_attribute 27, 1
   3              		.eabi_attribute 28, 1
   4              		.eabi_attribute 20, 1
   5              		.eabi_attribute 21, 1
   6              		.eabi_attribute 23, 3
   7              		.eabi_attribute 24, 1
   8              		.eabi_attribute 25, 1
   9              		.eabi_attribute 26, 1
  10              		.eabi_attribute 30, 2
  11              		.eabi_attribute 34, 1
  12              		.eabi_attribute 18, 4
  13              		.file	"chschd.c"
  14              		.text
  15              	.Ltext0:
  16              		.cfi_sections	.debug_frame
  17              		.align	1
  18              		.p2align 4,,15
  19              		.arch armv7e-m
  20              		.syntax unified
  21              		.thumb
  22              		.thumb_func
  23              		.fpu fpv4-sp-d16
  24              		.type	wakeup, %function
  25              	wakeup:
  26              	.LVL0:
  27              	.LFB327:
  28              		.file 1 "../../../external/ChibiOS/os/rt/src/chschd.c"
  29              		.loc 1 319 29 view -0
  30              		.cfi_startproc
  31              		@ args = 0, pretend = 0, frame = 0
  32              		@ frame_needed = 0, uses_anonymous_args = 0
  33              		@ link register save eliminated.
  34              		.loc 1 320 3 view .LVU1
  35              		.loc 1 322 3 view .LVU2
  36              	.LBB133:
  37              	.LBI133:
  38              		.file 2 "../../../external/ChibiOS/os/rt/include/chsys.h"
  39              		.loc 2 393 20 view .LVU3
  40              	.LBE133:
  41              		.loc 2 395 3 view .LVU4
  42              	.LBB141:
  43              	.LBB134:
  44              	.LBI134:
  45              		.file 3 "../../../external/ChibiOS/os/common/ports/ARMCMx/chcore_v7m.h"
  46              		.loc 3 708 27 view .LVU5
  47              	.LBE134:
  48              	.LBE141:
  49              		.loc 3 710 3 view .LVU6
  50              	.LBB142:
  51              	.LBB139:
  52              	.LBB135:
  53              	.LBI135:
  54              		.loc 3 669 27 view .LVU7
  55              	.LBE135:
  56              	.LBE139:
  57              	.LBE142:
ARM GAS  /tmp/ccFoR8NM.s 			page 2


  58              		.loc 3 677 3 view .LVU8
  59              	.LBB143:
  60              	.LBB140:
  61              	.LBB138:
  62              	.LBB136:
  63              	.LBI136:
  64              		.file 4 "../../../external/ChibiOS/os/common/ext/ARM/CMSIS/Core/Include/cmsis_gcc.h"
  65              		.loc 4 491 27 view .LVU9
  66              	.LBB137:
  67              		.loc 4 493 3 view .LVU10
  68 0000 2023     		movs	r3, #32
  69              		.syntax unified
  70              	@ 493 "../../../external/ChibiOS/os/common/ext/ARM/CMSIS/Core/Include/cmsis_gcc.h" 1
  71 0002 83F31188 		MSR basepri, r3
  72              	@ 0 "" 2
  73              	.LVL1:
  74              		.loc 4 493 3 is_stmt 0 view .LVU11
  75              		.thumb
  76              		.syntax unified
  77              	.LBE137:
  78              	.LBE136:
  79              	.LBE138:
  80              	.LBE140:
  81              	.LBE143:
  82              		.loc 2 396 34 is_stmt 1 view .LVU12
  83              		.loc 2 397 29 view .LVU13
  84              		.loc 1 323 3 view .LVU14
  85 0006 90F82030 		ldrb	r3, [r0, #32]	@ zero_extendqisi2
  86 000a 072B     		cmp	r3, #7
  87 000c 0DD8     		bhi	.L2
  88 000e DFE803F0 		tbb	[pc, r3]
  89              	.L4:
  90 0012 28       		.byte	(.L7-.L4)/2
  91 0013 0C       		.byte	(.L2-.L4)/2
  92 0014 0C       		.byte	(.L2-.L4)/2
  93 0015 24       		.byte	(.L6-.L4)/2
  94 0016 08       		.byte	(.L3-.L4)/2
  95 0017 04       		.byte	(.L5-.L4)/2
  96 0018 0C       		.byte	(.L2-.L4)/2
  97 0019 08       		.byte	(.L3-.L4)/2
  98              		.p2align 1
  99              	.L5:
 100              		.loc 1 334 5 view .LVU15
 101              		.loc 1 334 27 is_stmt 0 view .LVU16
 102 001a 426A     		ldr	r2, [r0, #36]
 103              	.LBB144:
 104              	.LBI144:
 105              		.file 5 "../../../external/ChibiOS/os/rt/include/chsem.h"
 106              		.loc 5 174 20 is_stmt 1 view .LVU17
 107              	.LVL2:
 108              	.LBB145:
 109              		.loc 5 176 21 view .LVU18
 110              		.loc 5 178 3 view .LVU19
 111              		.loc 5 178 10 is_stmt 0 view .LVU20
 112 001c 9368     		ldr	r3, [r2, #8]
 113 001e 0133     		adds	r3, r3, #1
 114 0020 9360     		str	r3, [r2, #8]
ARM GAS  /tmp/ccFoR8NM.s 			page 3


 115              	.LVL3:
 116              	.L3:
 117              		.loc 5 178 10 view .LVU21
 118              	.LBE145:
 119              	.LBE144:
 120              		.loc 1 343 5 is_stmt 1 view .LVU22
 121              	.LBB146:
 122              	.LBI146:
 123              		.file 6 "../../../external/ChibiOS/os/rt/include/chschd.h"
 124              		.loc 6 624 25 view .LVU23
 125              	.LBB147:
 126              		.loc 6 626 3 view .LVU24
 127              		.loc 6 626 41 is_stmt 0 view .LVU25
 128 0022 D0E90032 		ldrd	r3, r2, [r0]
 129              		.loc 6 626 30 view .LVU26
 130 0026 1360     		str	r3, [r2]
 131              		.loc 6 627 3 is_stmt 1 view .LVU27
 132              		.loc 6 627 30 is_stmt 0 view .LVU28
 133 0028 5A60     		str	r2, [r3, #4]
 134              		.loc 6 629 3 is_stmt 1 view .LVU29
 135              	.LVL4:
 136              	.L2:
 137              		.loc 6 629 3 is_stmt 0 view .LVU30
 138              	.LBE147:
 139              	.LBE146:
 140              		.loc 1 349 3 is_stmt 1 view .LVU31
 141              	.LBB148:
 142              	.LBB149:
 143              		.loc 1 227 13 is_stmt 0 view .LVU32
 144 002a 0022     		movs	r2, #0
 145              	.LBE149:
 146              	.LBE148:
 147              	.LBB152:
 148              	.LBB153:
 149              	.LBB154:
 150              	.LBB155:
 151              		.loc 1 231 26 view .LVU33
 152 002c 8168     		ldr	r1, [r0, #8]
 153              		.loc 1 228 6 view .LVU34
 154 002e 0F4B     		ldr	r3, .L15
 155              	.LBE155:
 156              	.LBE154:
 157              	.LBE153:
 158              	.LBE152:
 159              	.LBB180:
 160              	.LBB150:
 161              		.loc 1 227 13 view .LVU35
 162 0030 80F82020 		strb	r2, [r0, #32]
 163              	.LBE150:
 164              	.LBE180:
 165              		.loc 1 319 29 view .LVU36
 166 0034 10B4     		push	{r4}
 167              		.cfi_def_cfa_offset 4
 168              		.cfi_offset 4, -4
 169              		.loc 1 349 16 view .LVU37
 170 0036 4FF0FF34 		mov	r4, #-1
 171 003a 4462     		str	r4, [r0, #36]
ARM GAS  /tmp/ccFoR8NM.s 			page 4


 172              		.loc 1 350 3 is_stmt 1 view .LVU38
 173              	.LVL5:
 174              	.LBB181:
 175              	.LBI148:
 176              		.loc 1 218 11 view .LVU39
 177              	.LBB151:
 178              		.loc 1 219 3 view .LVU40
 179              		.loc 1 221 21 view .LVU41
 180              		.loc 1 222 3 view .LVU42
 181              		.loc 1 222 3 view .LVU43
 182              		.loc 1 223 3 view .LVU44
 183              		.loc 1 223 3 view .LVU45
 184              		.loc 1 227 3 view .LVU46
 185              		.loc 1 228 3 view .LVU47
 186              		.loc 1 228 3 is_stmt 0 view .LVU48
 187              	.LBE151:
 188              	.LBE181:
 189              	.LBB182:
 190              	.LBI152:
 191              		.loc 1 319 13 is_stmt 1 view .LVU49
 192              	.L9:
 193              	.LBB176:
 194              	.LBB158:
 195              	.LBB156:
 196              		.loc 1 229 3 view .LVU50
 197              		.loc 1 230 5 view .LVU51
 198              		.loc 1 230 8 is_stmt 0 view .LVU52
 199 003c 1B68     		ldr	r3, [r3]
 200              	.LVL6:
 201              		.loc 1 231 3 view .LVU53
 202 003e 9A68     		ldr	r2, [r3, #8]
 203 0040 8A42     		cmp	r2, r1
 204 0042 FBD2     		bcs	.L9
 205              		.loc 1 233 3 is_stmt 1 view .LVU54
 206              		.loc 1 234 41 is_stmt 0 view .LVU55
 207 0044 5A68     		ldr	r2, [r3, #4]
 208              	.LBE156:
 209              	.LBE158:
 210              	.LBB159:
 211              	.LBB160:
 212              	.LBB161:
 213              	.LBB162:
 214              	.LBB163:
 215              		.loc 4 493 3 view .LVU56
 216 0046 0021     		movs	r1, #0
 217              	.LBE163:
 218              	.LBE162:
 219              	.LBE161:
 220              	.LBE160:
 221              	.LBE159:
 222              	.LBB171:
 223              	.LBB157:
 224              		.loc 1 234 30 view .LVU57
 225 0048 C0E90032 		strd	r3, r2, [r0]
 226              		.loc 1 235 3 is_stmt 1 view .LVU58
 227              		.loc 1 235 30 is_stmt 0 view .LVU59
 228 004c 1060     		str	r0, [r2]
ARM GAS  /tmp/ccFoR8NM.s 			page 5


 229              		.loc 1 236 3 is_stmt 1 view .LVU60
 230              		.loc 1 236 30 is_stmt 0 view .LVU61
 231 004e 5860     		str	r0, [r3, #4]
 232              		.loc 1 238 3 is_stmt 1 view .LVU62
 233              	.LVL7:
 234              		.loc 1 238 3 is_stmt 0 view .LVU63
 235              	.LBE157:
 236              	.LBE171:
 237              		.loc 1 351 3 is_stmt 1 view .LVU64
 238              	.LBB172:
 239              	.LBI159:
 240              		.loc 2 413 20 view .LVU65
 241              	.LBE172:
 242              	.LBE176:
 243              	.LBE182:
 244              		.loc 2 415 31 view .LVU66
 245              		.loc 2 416 33 view .LVU67
 246              		.loc 2 417 3 view .LVU68
 247              	.LBB183:
 248              	.LBB177:
 249              	.LBB173:
 250              	.LBB168:
 251              	.LBI160:
 252              		.loc 3 719 27 view .LVU69
 253              	.LBE168:
 254              	.LBE173:
 255              	.LBE177:
 256              	.LBE183:
 257              		.loc 3 721 3 view .LVU70
 258              	.LBB184:
 259              	.LBB178:
 260              	.LBB174:
 261              	.LBB169:
 262              	.LBB166:
 263              	.LBI161:
 264              		.loc 3 693 27 view .LVU71
 265              	.LBE166:
 266              	.LBE169:
 267              	.LBE174:
 268              	.LBE178:
 269              	.LBE184:
 270              		.loc 3 696 3 view .LVU72
 271              	.LBB185:
 272              	.LBB179:
 273              	.LBB175:
 274              	.LBB170:
 275              	.LBB167:
 276              	.LBB165:
 277              	.LBI162:
 278              		.loc 4 491 27 view .LVU73
 279              	.LBB164:
 280              		.loc 4 493 3 view .LVU74
 281              		.syntax unified
 282              	@ 493 "../../../external/ChibiOS/os/common/ext/ARM/CMSIS/Core/Include/cmsis_gcc.h" 1
 283 0050 81F31188 		MSR basepri, r1
 284              	@ 0 "" 2
 285              	.LVL8:
ARM GAS  /tmp/ccFoR8NM.s 			page 6


 286              		.loc 4 493 3 is_stmt 0 view .LVU75
 287              		.thumb
 288              		.syntax unified
 289              	.LBE164:
 290              	.LBE165:
 291              	.LBE167:
 292              	.LBE170:
 293              	.LBE175:
 294              	.LBE179:
 295              	.LBE185:
 296              		.loc 1 352 1 view .LVU76
 297 0054 5DF8044B 		ldr	r4, [sp], #4
 298              		.cfi_restore 4
 299              		.cfi_def_cfa_offset 0
 300 0058 7047     		bx	lr
 301              	.LVL9:
 302              	.L6:
 303              		.loc 1 330 5 is_stmt 1 view .LVU77
 304              		.loc 1 330 11 is_stmt 0 view .LVU78
 305 005a 436A     		ldr	r3, [r0, #36]
 306              		.loc 1 330 18 view .LVU79
 307 005c 0022     		movs	r2, #0
 308 005e 1A60     		str	r2, [r3]
 309              		.loc 1 331 5 is_stmt 1 view .LVU80
 310 0060 E3E7     		b	.L2
 311              	.L7:
 312              		.loc 1 327 5 view .LVU81
 313              	.LBB186:
 314              	.LBI186:
 315              		.loc 2 413 20 view .LVU82
 316              	.LBE186:
 317              		.loc 2 415 31 view .LVU83
 318              		.loc 2 416 33 view .LVU84
 319              		.loc 2 417 3 view .LVU85
 320              	.LBB194:
 321              	.LBB187:
 322              	.LBI187:
 323              		.loc 3 719 27 view .LVU86
 324              	.LBE187:
 325              	.LBE194:
 326              		.loc 3 721 3 view .LVU87
 327              	.LBB195:
 328              	.LBB192:
 329              	.LBB188:
 330              	.LBI188:
 331              		.loc 3 693 27 view .LVU88
 332              	.LBE188:
 333              	.LBE192:
 334              	.LBE195:
 335              		.loc 3 696 3 view .LVU89
 336              	.LVL10:
 337              	.LBB196:
 338              	.LBB193:
 339              	.LBB191:
 340              	.LBB189:
 341              	.LBI189:
 342              		.loc 4 491 27 view .LVU90
ARM GAS  /tmp/ccFoR8NM.s 			page 7


 343              	.LBB190:
 344              		.loc 4 493 3 view .LVU91
 345 0062 0023     		movs	r3, #0
 346              		.syntax unified
 347              	@ 493 "../../../external/ChibiOS/os/common/ext/ARM/CMSIS/Core/Include/cmsis_gcc.h" 1
 348 0064 83F31188 		MSR basepri, r3
 349              	@ 0 "" 2
 350              	.LVL11:
 351              		.loc 4 493 3 is_stmt 0 view .LVU92
 352              		.thumb
 353              		.syntax unified
 354 0068 7047     		bx	lr
 355              	.L16:
 356 006a 00BF     		.align	2
 357              	.L15:
 358 006c 00000000 		.word	ch
 359              	.LBE190:
 360              	.LBE189:
 361              	.LBE191:
 362              	.LBE193:
 363              	.LBE196:
 364              		.cfi_endproc
 365              	.LFE327:
 366              		.size	wakeup, .-wakeup
 367              		.align	1
 368              		.p2align 4,,15
 369              		.global	_scheduler_init
 370              		.syntax unified
 371              		.thumb
 372              		.thumb_func
 373              		.fpu fpv4-sp-d16
 374              		.type	_scheduler_init, %function
 375              	_scheduler_init:
 376              	.LFB323:
 377              		.loc 1 65 28 is_stmt 1 view -0
 378              		.cfi_startproc
 379              		@ args = 0, pretend = 0, frame = 0
 380              		@ frame_needed = 0, uses_anonymous_args = 0
 381              		@ link register save eliminated.
 382              		.loc 1 67 3 view .LVU94
 383              	.LVL12:
 384              	.LBB197:
 385              	.LBI197:
 386              		.loc 6 537 20 view .LVU95
 387              	.LBB198:
 388              		.loc 6 539 3 view .LVU96
 389              		.loc 6 539 13 is_stmt 0 view .LVU97
 390 0070 034B     		ldr	r3, .L18
 391              	.LBE198:
 392              	.LBE197:
 393              		.loc 1 68 17 view .LVU98
 394 0072 0022     		movs	r2, #0
 395              	.LBB200:
 396              	.LBB199:
 397              		.loc 6 540 13 view .LVU99
 398 0074 C3E90033 		strd	r3, r3, [r3]
 399              	.LVL13:
ARM GAS  /tmp/ccFoR8NM.s 			page 8


 400              		.loc 6 540 13 view .LVU100
 401              	.LBE199:
 402              	.LBE200:
 403              		.loc 1 68 3 is_stmt 1 view .LVU101
 404              		.loc 1 71 18 is_stmt 0 view .LVU102
 405 0078 C3E90433 		strd	r3, r3, [r3, #16]
 406              		.loc 1 68 17 view .LVU103
 407 007c 9A60     		str	r2, [r3, #8]
 408              		.loc 1 70 3 is_stmt 1 view .LVU104
 409              		.loc 1 71 3 view .LVU105
 410              		.loc 1 73 1 is_stmt 0 view .LVU106
 411 007e 7047     		bx	lr
 412              	.L19:
 413              		.align	2
 414              	.L18:
 415 0080 00000000 		.word	ch
 416              		.cfi_endproc
 417              	.LFE323:
 418              		.size	_scheduler_init, .-_scheduler_init
 419              		.align	1
 420 0084 AFF30080 		.p2align 4,,15
 420      AFF30080 
 420      AFF30080 
 421              		.global	chSchReadyI
 422              		.syntax unified
 423              		.thumb
 424              		.thumb_func
 425              		.fpu fpv4-sp-d16
 426              		.type	chSchReadyI, %function
 427              	chSchReadyI:
 428              	.LVL14:
 429              	.LFB324:
 430              		.loc 1 218 37 is_stmt 1 view -0
 431              		.cfi_startproc
 432              		@ args = 0, pretend = 0, frame = 0
 433              		@ frame_needed = 0, uses_anonymous_args = 0
 434              		@ link register save eliminated.
 435              		.loc 1 219 3 view .LVU108
 436              		.loc 1 221 21 view .LVU109
 437              		.loc 1 222 3 view .LVU110
 438              		.loc 1 222 3 view .LVU111
 439              		.loc 1 223 3 view .LVU112
 440              		.loc 1 223 3 view .LVU113
 441              		.loc 1 227 3 view .LVU114
 442              		.loc 1 218 37 is_stmt 0 view .LVU115
 443 0090 10B4     		push	{r4}
 444              		.cfi_def_cfa_offset 4
 445              		.cfi_offset 4, -4
 446              		.loc 1 227 13 view .LVU116
 447 0092 0022     		movs	r2, #0
 448              		.loc 1 218 37 view .LVU117
 449 0094 0446     		mov	r4, r0
 450              		.loc 1 228 6 view .LVU118
 451 0096 084B     		ldr	r3, .L24
 452              		.loc 1 231 26 view .LVU119
 453 0098 8168     		ldr	r1, [r0, #8]
 454              		.loc 1 227 13 view .LVU120
ARM GAS  /tmp/ccFoR8NM.s 			page 9


 455 009a 80F82020 		strb	r2, [r0, #32]
 456              		.loc 1 228 3 is_stmt 1 view .LVU121
 457              	.LVL15:
 458              	.L21:
 459              		.loc 1 229 3 discriminator 1 view .LVU122
 460              		.loc 1 230 5 discriminator 1 view .LVU123
 461              		.loc 1 230 8 is_stmt 0 discriminator 1 view .LVU124
 462 009e 1B68     		ldr	r3, [r3]
 463              	.LVL16:
 464              		.loc 1 231 3 discriminator 1 view .LVU125
 465 00a0 9A68     		ldr	r2, [r3, #8]
 466 00a2 8A42     		cmp	r2, r1
 467 00a4 FBD2     		bcs	.L21
 468              		.loc 1 233 3 is_stmt 1 view .LVU126
 469              		.loc 1 234 41 is_stmt 0 view .LVU127
 470 00a6 5A68     		ldr	r2, [r3, #4]
 471              		.loc 1 239 1 view .LVU128
 472 00a8 2046     		mov	r0, r4
 473              	.LVL17:
 474              		.loc 1 234 30 view .LVU129
 475 00aa C4E90032 		strd	r3, r2, [r4]
 476              		.loc 1 235 3 is_stmt 1 view .LVU130
 477              		.loc 1 235 30 is_stmt 0 view .LVU131
 478 00ae 1460     		str	r4, [r2]
 479              		.loc 1 236 3 is_stmt 1 view .LVU132
 480              		.loc 1 236 30 is_stmt 0 view .LVU133
 481 00b0 5C60     		str	r4, [r3, #4]
 482              		.loc 1 238 3 is_stmt 1 view .LVU134
 483              		.loc 1 239 1 is_stmt 0 view .LVU135
 484 00b2 5DF8044B 		ldr	r4, [sp], #4
 485              		.cfi_restore 4
 486              		.cfi_def_cfa_offset 0
 487              	.LVL18:
 488              		.loc 1 239 1 view .LVU136
 489 00b6 7047     		bx	lr
 490              	.L25:
 491              		.align	2
 492              	.L24:
 493 00b8 00000000 		.word	ch
 494              		.cfi_endproc
 495              	.LFE324:
 496              		.size	chSchReadyI, .-chSchReadyI
 497              		.align	1
 498 00bc AFF30080 		.p2align 4,,15
 499              		.global	chSchReadyAheadI
 500              		.syntax unified
 501              		.thumb
 502              		.thumb_func
 503              		.fpu fpv4-sp-d16
 504              		.type	chSchReadyAheadI, %function
 505              	chSchReadyAheadI:
 506              	.LVL19:
 507              	.LFB325:
 508              		.loc 1 257 42 is_stmt 1 view -0
 509              		.cfi_startproc
 510              		@ args = 0, pretend = 0, frame = 0
 511              		@ frame_needed = 0, uses_anonymous_args = 0
ARM GAS  /tmp/ccFoR8NM.s 			page 10


 512              		@ link register save eliminated.
 513              		.loc 1 258 3 view .LVU138
 514              		.loc 1 260 21 view .LVU139
 515              		.loc 1 261 3 view .LVU140
 516              		.loc 1 261 3 view .LVU141
 517              		.loc 1 262 3 view .LVU142
 518              		.loc 1 262 3 view .LVU143
 519              		.loc 1 266 3 view .LVU144
 520              		.loc 1 257 42 is_stmt 0 view .LVU145
 521 00c0 10B4     		push	{r4}
 522              		.cfi_def_cfa_offset 4
 523              		.cfi_offset 4, -4
 524              		.loc 1 266 13 view .LVU146
 525 00c2 0022     		movs	r2, #0
 526              		.loc 1 257 42 view .LVU147
 527 00c4 0446     		mov	r4, r0
 528              		.loc 1 267 6 view .LVU148
 529 00c6 084B     		ldr	r3, .L30
 530              		.loc 1 270 25 view .LVU149
 531 00c8 8168     		ldr	r1, [r0, #8]
 532              		.loc 1 266 13 view .LVU150
 533 00ca 80F82020 		strb	r2, [r0, #32]
 534              		.loc 1 267 3 is_stmt 1 view .LVU151
 535              	.LVL20:
 536              	.L27:
 537              		.loc 1 268 3 discriminator 1 view .LVU152
 538              		.loc 1 269 5 discriminator 1 view .LVU153
 539              		.loc 1 269 8 is_stmt 0 discriminator 1 view .LVU154
 540 00ce 1B68     		ldr	r3, [r3]
 541              	.LVL21:
 542              		.loc 1 270 3 discriminator 1 view .LVU155
 543 00d0 9A68     		ldr	r2, [r3, #8]
 544 00d2 8A42     		cmp	r2, r1
 545 00d4 FBD8     		bhi	.L27
 546              		.loc 1 272 3 is_stmt 1 view .LVU156
 547              		.loc 1 273 41 is_stmt 0 view .LVU157
 548 00d6 5A68     		ldr	r2, [r3, #4]
 549              		.loc 1 278 1 view .LVU158
 550 00d8 2046     		mov	r0, r4
 551              	.LVL22:
 552              		.loc 1 273 30 view .LVU159
 553 00da C4E90032 		strd	r3, r2, [r4]
 554              		.loc 1 274 3 is_stmt 1 view .LVU160
 555              		.loc 1 274 30 is_stmt 0 view .LVU161
 556 00de 1460     		str	r4, [r2]
 557              		.loc 1 275 3 is_stmt 1 view .LVU162
 558              		.loc 1 275 30 is_stmt 0 view .LVU163
 559 00e0 5C60     		str	r4, [r3, #4]
 560              		.loc 1 277 3 is_stmt 1 view .LVU164
 561              		.loc 1 278 1 is_stmt 0 view .LVU165
 562 00e2 5DF8044B 		ldr	r4, [sp], #4
 563              		.cfi_restore 4
 564              		.cfi_def_cfa_offset 0
 565              	.LVL23:
 566              		.loc 1 278 1 view .LVU166
 567 00e6 7047     		bx	lr
 568              	.L31:
ARM GAS  /tmp/ccFoR8NM.s 			page 11


 569              		.align	2
 570              	.L30:
 571 00e8 00000000 		.word	ch
 572              		.cfi_endproc
 573              	.LFE325:
 574              		.size	chSchReadyAheadI, .-chSchReadyAheadI
 575              		.align	1
 576 00ec AFF30080 		.p2align 4,,15
 577              		.global	chSchGoSleepS
 578              		.syntax unified
 579              		.thumb
 580              		.thumb_func
 581              		.fpu fpv4-sp-d16
 582              		.type	chSchGoSleepS, %function
 583              	chSchGoSleepS:
 584              	.LVL24:
 585              	.LFB326:
 586              		.loc 1 289 39 is_stmt 1 view -0
 587              		.cfi_startproc
 588              		@ args = 0, pretend = 0, frame = 0
 589              		@ frame_needed = 0, uses_anonymous_args = 0
 590              		.loc 1 290 3 view .LVU168
 591              		.loc 1 289 39 is_stmt 0 view .LVU169
 592 00f0 70B5     		push	{r4, r5, r6, lr}
 593              		.cfi_def_cfa_offset 16
 594              		.cfi_offset 4, -16
 595              		.cfi_offset 5, -12
 596              		.cfi_offset 6, -8
 597              		.cfi_offset 14, -4
 598              		.loc 1 290 13 view .LVU170
 599 00f2 0B4C     		ldr	r4, .L34
 600              		.loc 1 305 16 view .LVU171
 601 00f4 0126     		movs	r6, #1
 602              		.loc 1 290 13 view .LVU172
 603 00f6 A569     		ldr	r5, [r4, #24]
 604              	.LVL25:
 605              		.loc 1 292 21 is_stmt 1 view .LVU173
 606              		.loc 1 295 3 view .LVU174
 607              	.LBB201:
 608              	.LBB202:
 609              		.loc 6 607 13 is_stmt 0 view .LVU175
 610 00f8 2368     		ldr	r3, [r4]
 611              	.LBE202:
 612              	.LBE201:
 613              		.loc 1 295 14 view .LVU176
 614 00fa 85F82000 		strb	r0, [r5, #32]
 615              		.loc 1 304 3 is_stmt 1 view .LVU177
 616              	.LVL26:
 617              	.LBB207:
 618              	.LBI201:
 619              		.loc 6 606 25 view .LVU178
 620              	.LBB203:
 621              		.loc 6 607 3 view .LVU179
 622              		.loc 6 609 3 view .LVU180
 623              	.LBE203:
 624              	.LBE207:
 625              		.loc 1 313 3 is_stmt 0 view .LVU181
ARM GAS  /tmp/ccFoR8NM.s 			page 12


 626 00fe 2946     		mov	r1, r5
 627              	.LBB208:
 628              	.LBB204:
 629              		.loc 6 609 36 view .LVU182
 630 0100 1A68     		ldr	r2, [r3]
 631              	.LBE204:
 632              	.LBE208:
 633              		.loc 1 313 3 view .LVU183
 634 0102 1846     		mov	r0, r3
 635              	.LVL27:
 636              	.LBB209:
 637              	.LBB205:
 638              		.loc 6 610 25 view .LVU184
 639 0104 5460     		str	r4, [r2, #4]
 640              	.LVL28:
 641              		.loc 6 610 25 view .LVU185
 642              	.LBE205:
 643              	.LBE209:
 644              		.loc 1 305 16 view .LVU186
 645 0106 83F82060 		strb	r6, [r3, #32]
 646              	.LBB210:
 647              	.LBB206:
 648              		.loc 6 609 25 view .LVU187
 649 010a 2260     		str	r2, [r4]
 650              		.loc 6 610 3 is_stmt 1 view .LVU188
 651              		.loc 6 612 3 view .LVU189
 652              	.LVL29:
 653              		.loc 6 612 3 is_stmt 0 view .LVU190
 654              	.LBE206:
 655              	.LBE210:
 656              		.loc 1 304 9 view .LVU191
 657 010c A361     		str	r3, [r4, #24]
 658              		.loc 1 305 3 is_stmt 1 view .LVU192
 659              		.loc 1 308 3 view .LVU193
 660              		.loc 1 309 5 view .LVU194
 661              		.loc 1 309 29 view .LVU195
 662              		.loc 1 313 3 view .LVU196
 663 010e FFF7FEFF 		bl	_trace_switch
 664              	.LVL30:
 665              		.loc 1 313 3 view .LVU197
 666              		.loc 1 313 3 view .LVU198
 667              		.loc 1 313 3 view .LVU199
 668              		.loc 1 313 3 view .LVU200
 669 0112 2946     		mov	r1, r5
 670 0114 A069     		ldr	r0, [r4, #24]
 671              		.loc 1 314 1 is_stmt 0 view .LVU201
 672 0116 BDE87040 		pop	{r4, r5, r6, lr}
 673              		.cfi_restore 14
 674              		.cfi_restore 6
 675              		.cfi_restore 5
 676              		.cfi_restore 4
 677              		.cfi_def_cfa_offset 0
 678              	.LVL31:
 679              		.loc 1 313 3 view .LVU202
 680 011a FFF7FEBF 		b	_port_switch
 681              	.LVL32:
 682              	.L35:
ARM GAS  /tmp/ccFoR8NM.s 			page 13


 683              		.loc 1 313 3 view .LVU203
 684 011e 00BF     		.align	2
 685              	.L34:
 686 0120 00000000 		.word	ch
 687              		.cfi_endproc
 688              	.LFE326:
 689              		.size	chSchGoSleepS, .-chSchGoSleepS
 690              		.align	1
 691 0124 AFF30080 		.p2align 4,,15
 691      AFF30080 
 691      AFF30080 
 692              		.global	chSchGoSleepTimeoutS
 693              		.syntax unified
 694              		.thumb
 695              		.thumb_func
 696              		.fpu fpv4-sp-d16
 697              		.type	chSchGoSleepTimeoutS, %function
 698              	chSchGoSleepTimeoutS:
 699              	.LVL33:
 700              	.LFB328:
 701              		.loc 1 375 70 is_stmt 1 view -0
 702              		.cfi_startproc
 703              		@ args = 0, pretend = 0, frame = 24
 704              		@ frame_needed = 0, uses_anonymous_args = 0
 705              		.loc 1 377 21 view .LVU205
 706              		.loc 1 379 3 view .LVU206
 707              		.loc 1 379 6 is_stmt 0 view .LVU207
 708 0130 4B1C     		adds	r3, r1, #1
 709              		.loc 1 375 70 view .LVU208
 710 0132 30B5     		push	{r4, r5, lr}
 711              		.cfi_def_cfa_offset 12
 712              		.cfi_offset 4, -12
 713              		.cfi_offset 5, -8
 714              		.cfi_offset 14, -4
 715 0134 87B0     		sub	sp, sp, #28
 716              		.cfi_def_cfa_offset 40
 717              		.loc 1 379 6 view .LVU209
 718 0136 12D0     		beq	.L37
 719              	.LBB211:
 720              		.loc 1 380 5 is_stmt 1 view .LVU210
 721              		.loc 1 382 5 view .LVU211
 722              		.loc 1 382 38 is_stmt 0 view .LVU212
 723 0138 0C4C     		ldr	r4, .L44
 724 013a 0546     		mov	r5, r0
 725              		.loc 1 382 5 view .LVU213
 726 013c 0C4A     		ldr	r2, .L44+4
 727 013e 01A8     		add	r0, sp, #4
 728              	.LVL34:
 729              		.loc 1 382 5 view .LVU214
 730 0140 A369     		ldr	r3, [r4, #24]
 731 0142 FFF7FEFF 		bl	chVTDoSetI
 732              	.LVL35:
 733              		.loc 1 383 5 is_stmt 1 view .LVU215
 734 0146 2846     		mov	r0, r5
 735 0148 FFF7FEFF 		bl	chSchGoSleepS
 736              	.LVL36:
 737              		.loc 1 384 5 view .LVU216
ARM GAS  /tmp/ccFoR8NM.s 			page 14


 738              		.loc 1 384 5 is_stmt 0 view .LVU217
 739              	.LBE211:
 740              		.file 7 "../../../external/ChibiOS/os/rt/include/chvt.h"
 741              		.loc 7 242 21 is_stmt 1 view .LVU218
 742              		.loc 7 244 3 view .LVU219
 743              	.LBB212:
 744              		.loc 1 384 8 is_stmt 0 view .LVU220
 745 014c 049B     		ldr	r3, [sp, #16]
 746 014e 13B1     		cbz	r3, .L39
 747              		.loc 1 385 7 is_stmt 1 view .LVU221
 748 0150 01A8     		add	r0, sp, #4
 749              	.LVL37:
 750              		.loc 1 385 7 is_stmt 0 view .LVU222
 751 0152 FFF7FEFF 		bl	chVTDoResetI
 752              	.LVL38:
 753              	.L39:
 754              		.loc 1 385 7 view .LVU223
 755              	.LBE212:
 756              		.loc 1 392 3 is_stmt 1 view .LVU224
 757              		.loc 1 392 18 is_stmt 0 view .LVU225
 758 0156 A369     		ldr	r3, [r4, #24]
 759              		.loc 1 393 1 view .LVU226
 760 0158 586A     		ldr	r0, [r3, #36]
 761 015a 07B0     		add	sp, sp, #28
 762              		.cfi_remember_state
 763              		.cfi_def_cfa_offset 12
 764              		@ sp needed
 765 015c 30BD     		pop	{r4, r5, pc}
 766              	.LVL39:
 767              	.L37:
 768              		.cfi_restore_state
 769              		.loc 1 389 5 is_stmt 1 view .LVU227
 770 015e 034C     		ldr	r4, .L44
 771 0160 FFF7FEFF 		bl	chSchGoSleepS
 772              	.LVL40:
 773              		.loc 1 392 3 view .LVU228
 774              		.loc 1 392 18 is_stmt 0 view .LVU229
 775 0164 A369     		ldr	r3, [r4, #24]
 776              		.loc 1 393 1 view .LVU230
 777 0166 586A     		ldr	r0, [r3, #36]
 778 0168 07B0     		add	sp, sp, #28
 779              		.cfi_def_cfa_offset 12
 780              		@ sp needed
 781 016a 30BD     		pop	{r4, r5, pc}
 782              	.L45:
 783              		.align	2
 784              	.L44:
 785 016c 00000000 		.word	ch
 786 0170 00000000 		.word	wakeup
 787              		.cfi_endproc
 788              	.LFE328:
 789              		.size	chSchGoSleepTimeoutS, .-chSchGoSleepTimeoutS
 790              		.align	1
 791 0174 AFF30080 		.p2align 4,,15
 791      AFF30080 
 791      AFF30080 
 792              		.global	chSchWakeupS
ARM GAS  /tmp/ccFoR8NM.s 			page 15


 793              		.syntax unified
 794              		.thumb
 795              		.thumb_func
 796              		.fpu fpv4-sp-d16
 797              		.type	chSchWakeupS, %function
 798              	chSchWakeupS:
 799              	.LVL41:
 800              	.LFB329:
 801              		.loc 1 412 45 is_stmt 1 view -0
 802              		.cfi_startproc
 803              		@ args = 0, pretend = 0, frame = 0
 804              		@ frame_needed = 0, uses_anonymous_args = 0
 805              		.loc 1 413 3 view .LVU232
 806              		.loc 1 413 13 is_stmt 0 view .LVU233
 807 0180 184B     		ldr	r3, .L55
 808              		.loc 1 412 45 view .LVU234
 809 0182 70B5     		push	{r4, r5, r6, lr}
 810              		.cfi_def_cfa_offset 16
 811              		.cfi_offset 4, -16
 812              		.cfi_offset 5, -12
 813              		.cfi_offset 6, -8
 814              		.cfi_offset 14, -4
 815              		.loc 1 413 13 view .LVU235
 816 0184 9E69     		ldr	r6, [r3, #24]
 817              	.LVL42:
 818              		.loc 1 415 21 is_stmt 1 view .LVU236
 819              		.loc 1 417 3 view .LVU237
 820              		.loc 1 417 3 view .LVU238
 821              		.loc 1 423 3 view .LVU239
 822              		.loc 1 429 10 is_stmt 0 view .LVU240
 823 0186 8568     		ldr	r5, [r0, #8]
 824              		.loc 1 429 23 view .LVU241
 825 0188 B468     		ldr	r4, [r6, #8]
 826              		.loc 1 423 17 view .LVU242
 827 018a 4162     		str	r1, [r0, #36]
 828              		.loc 1 429 3 is_stmt 1 view .LVU243
 829              		.loc 1 429 6 is_stmt 0 view .LVU244
 830 018c A542     		cmp	r5, r4
 831 018e 0CD8     		bhi	.L47
 832              		.loc 1 430 5 is_stmt 1 view .LVU245
 833              	.LVL43:
 834              	.LBB213:
 835              	.LBI213:
 836              		.loc 1 218 11 view .LVU246
 837              	.LBB214:
 838              		.loc 1 219 3 view .LVU247
 839              		.loc 1 221 21 view .LVU248
 840              		.loc 1 222 3 view .LVU249
 841              		.loc 1 222 3 view .LVU250
 842              		.loc 1 223 3 view .LVU251
 843              		.loc 1 223 3 view .LVU252
 844              		.loc 1 227 3 view .LVU253
 845              		.loc 1 227 13 is_stmt 0 view .LVU254
 846 0190 0022     		movs	r2, #0
 847 0192 80F82020 		strb	r2, [r0, #32]
 848              		.loc 1 228 3 is_stmt 1 view .LVU255
 849              	.LVL44:
ARM GAS  /tmp/ccFoR8NM.s 			page 16


 850              	.L48:
 851              		.loc 1 229 3 view .LVU256
 852              		.loc 1 230 5 view .LVU257
 853              		.loc 1 230 8 is_stmt 0 view .LVU258
 854 0196 1B68     		ldr	r3, [r3]
 855              	.LVL45:
 856              		.loc 1 231 3 view .LVU259
 857 0198 9A68     		ldr	r2, [r3, #8]
 858 019a 9542     		cmp	r5, r2
 859 019c FBD9     		bls	.L48
 860              		.loc 1 233 3 is_stmt 1 view .LVU260
 861              		.loc 1 234 41 is_stmt 0 view .LVU261
 862 019e 5A68     		ldr	r2, [r3, #4]
 863              		.loc 1 234 30 view .LVU262
 864 01a0 C0E90032 		strd	r3, r2, [r0]
 865              		.loc 1 235 3 is_stmt 1 view .LVU263
 866              		.loc 1 235 30 is_stmt 0 view .LVU264
 867 01a4 1060     		str	r0, [r2]
 868              		.loc 1 236 3 is_stmt 1 view .LVU265
 869              		.loc 1 236 30 is_stmt 0 view .LVU266
 870 01a6 5860     		str	r0, [r3, #4]
 871              		.loc 1 238 3 is_stmt 1 view .LVU267
 872              	.LBE214:
 873              	.LBE213:
 874              		.loc 1 447 1 is_stmt 0 view .LVU268
 875 01a8 70BD     		pop	{r4, r5, r6, pc}
 876              	.LVL46:
 877              	.L47:
 878              		.loc 1 433 5 is_stmt 1 view .LVU269
 879              	.LBB215:
 880              	.LBI215:
 881              		.loc 1 257 11 view .LVU270
 882              	.LBB216:
 883              		.loc 1 258 3 view .LVU271
 884              		.loc 1 260 21 view .LVU272
 885              		.loc 1 261 3 view .LVU273
 886              		.loc 1 261 3 view .LVU274
 887              		.loc 1 262 3 view .LVU275
 888              		.loc 1 262 3 view .LVU276
 889              		.loc 1 266 3 view .LVU277
 890              		.loc 1 266 13 is_stmt 0 view .LVU278
 891 01aa 0021     		movs	r1, #0
 892              	.LVL47:
 893              		.loc 1 267 6 view .LVU279
 894 01ac 1A46     		mov	r2, r3
 895              		.loc 1 266 13 view .LVU280
 896 01ae 86F82010 		strb	r1, [r6, #32]
 897              	.LVL48:
 898              		.loc 1 267 3 is_stmt 1 view .LVU281
 899              	.L50:
 900              		.loc 1 268 3 view .LVU282
 901              		.loc 1 269 5 view .LVU283
 902              		.loc 1 269 8 is_stmt 0 view .LVU284
 903 01b2 1268     		ldr	r2, [r2]
 904              	.LVL49:
 905              		.loc 1 270 3 view .LVU285
 906 01b4 9168     		ldr	r1, [r2, #8]
ARM GAS  /tmp/ccFoR8NM.s 			page 17


 907 01b6 8C42     		cmp	r4, r1
 908 01b8 FBD3     		bcc	.L50
 909 01ba 0446     		mov	r4, r0
 910              		.loc 1 272 3 is_stmt 1 view .LVU286
 911              	.LBE216:
 912              	.LBE215:
 913              		.loc 1 442 16 is_stmt 0 view .LVU287
 914 01bc 0125     		movs	r5, #1
 915              	.LBB220:
 916              	.LBB217:
 917              		.loc 1 273 41 view .LVU288
 918 01be 5068     		ldr	r0, [r2, #4]
 919              	.LVL50:
 920              		.loc 1 273 41 view .LVU289
 921              	.LBE217:
 922              	.LBE220:
 923              		.loc 1 445 5 view .LVU290
 924 01c0 3146     		mov	r1, r6
 925              	.LBB221:
 926              	.LBB218:
 927              		.loc 1 272 30 view .LVU291
 928 01c2 3260     		str	r2, [r6]
 929              		.loc 1 273 3 is_stmt 1 view .LVU292
 930              		.loc 1 273 30 is_stmt 0 view .LVU293
 931 01c4 7060     		str	r0, [r6, #4]
 932              		.loc 1 274 3 is_stmt 1 view .LVU294
 933              		.loc 1 274 30 is_stmt 0 view .LVU295
 934 01c6 0660     		str	r6, [r0]
 935              		.loc 1 275 3 is_stmt 1 view .LVU296
 936              	.LBE218:
 937              	.LBE221:
 938              		.loc 1 445 5 is_stmt 0 view .LVU297
 939 01c8 2046     		mov	r0, r4
 940              	.LBB222:
 941              	.LBB219:
 942              		.loc 1 275 30 view .LVU298
 943 01ca 5660     		str	r6, [r2, #4]
 944              		.loc 1 277 3 is_stmt 1 view .LVU299
 945              	.LVL51:
 946              		.loc 1 277 3 is_stmt 0 view .LVU300
 947              	.LBE219:
 948              	.LBE222:
 949              		.loc 1 436 5 is_stmt 1 view .LVU301
 950              		.loc 1 437 7 view .LVU302
 951              		.loc 1 437 31 view .LVU303
 952              		.loc 1 441 5 view .LVU304
 953              		.loc 1 442 16 is_stmt 0 view .LVU305
 954 01cc 84F82050 		strb	r5, [r4, #32]
 955              		.loc 1 441 11 view .LVU306
 956 01d0 9C61     		str	r4, [r3, #24]
 957              		.loc 1 442 5 is_stmt 1 view .LVU307
 958              		.loc 1 445 5 view .LVU308
 959 01d2 FFF7FEFF 		bl	_trace_switch
 960              	.LVL52:
 961              		.loc 1 445 5 view .LVU309
 962              		.loc 1 445 5 view .LVU310
 963              		.loc 1 445 5 view .LVU311
ARM GAS  /tmp/ccFoR8NM.s 			page 18


 964              		.loc 1 445 5 view .LVU312
 965 01d6 3146     		mov	r1, r6
 966 01d8 2046     		mov	r0, r4
 967              		.loc 1 447 1 is_stmt 0 view .LVU313
 968 01da BDE87040 		pop	{r4, r5, r6, lr}
 969              		.cfi_restore 14
 970              		.cfi_restore 6
 971              		.cfi_restore 5
 972              		.cfi_restore 4
 973              		.cfi_def_cfa_offset 0
 974              	.LVL53:
 975              		.loc 1 445 5 view .LVU314
 976 01de FFF7FEBF 		b	_port_switch
 977              	.LVL54:
 978              	.L56:
 979              		.loc 1 445 5 view .LVU315
 980 01e2 00BF     		.align	2
 981              	.L55:
 982 01e4 00000000 		.word	ch
 983              		.cfi_endproc
 984              	.LFE329:
 985              		.size	chSchWakeupS, .-chSchWakeupS
 986              		.align	1
 987 01e8 AFF30080 		.p2align 4,,15
 987      AFF30080 
 988              		.global	chSchIsPreemptionRequired
 989              		.syntax unified
 990              		.thumb
 991              		.thumb_func
 992              		.fpu fpv4-sp-d16
 993              		.type	chSchIsPreemptionRequired, %function
 994              	chSchIsPreemptionRequired:
 995              	.LFB331:
 996              		.loc 1 479 38 is_stmt 1 view -0
 997              		.cfi_startproc
 998              		@ args = 0, pretend = 0, frame = 0
 999              		@ frame_needed = 0, uses_anonymous_args = 0
 1000              		@ link register save eliminated.
 1001              		.loc 1 480 3 view .LVU317
 1002              	.LVL55:
 1003              		.loc 1 481 3 view .LVU318
 1004              		.loc 1 492 3 view .LVU319
 1005              		.loc 1 480 16 is_stmt 0 view .LVU320
 1006 01f0 044B     		ldr	r3, .L58
 1007              	.LVL56:
 1008              		.loc 1 480 11 view .LVU321
 1009 01f2 1A68     		ldr	r2, [r3]
 1010              		.loc 1 481 11 view .LVU322
 1011 01f4 9B69     		ldr	r3, [r3, #24]
 1012              	.LVL57:
 1013              		.loc 1 492 13 view .LVU323
 1014 01f6 9068     		ldr	r0, [r2, #8]
 1015 01f8 9B68     		ldr	r3, [r3, #8]
 1016              		.loc 1 494 1 view .LVU324
 1017 01fa 9842     		cmp	r0, r3
 1018 01fc 94BF     		ite	ls
 1019 01fe 0020     		movls	r0, #0
ARM GAS  /tmp/ccFoR8NM.s 			page 19


 1020 0200 0120     		movhi	r0, #1
 1021 0202 7047     		bx	lr
 1022              	.L59:
 1023              		.align	2
 1024              	.L58:
 1025 0204 00000000 		.word	ch
 1026              		.cfi_endproc
 1027              	.LFE331:
 1028              		.size	chSchIsPreemptionRequired, .-chSchIsPreemptionRequired
 1029              		.align	1
 1030 0208 AFF30080 		.p2align 4,,15
 1030      AFF30080 
 1031              		.global	chSchDoRescheduleBehind
 1032              		.syntax unified
 1033              		.thumb
 1034              		.thumb_func
 1035              		.fpu fpv4-sp-d16
 1036              		.type	chSchDoRescheduleBehind, %function
 1037              	chSchDoRescheduleBehind:
 1038              	.LFB332:
 1039              		.loc 1 507 36 is_stmt 1 view -0
 1040              		.cfi_startproc
 1041              		@ args = 0, pretend = 0, frame = 0
 1042              		@ frame_needed = 0, uses_anonymous_args = 0
 1043              		.loc 1 508 3 view .LVU326
 1044              		.loc 1 508 13 is_stmt 0 view .LVU327
 1045 0210 114A     		ldr	r2, .L64
 1046              	.LBB223:
 1047              	.LBB224:
 1048              		.loc 6 607 13 view .LVU328
 1049 0212 1068     		ldr	r0, [r2]
 1050              	.LBE224:
 1051              	.LBE223:
 1052              		.loc 1 507 36 view .LVU329
 1053 0214 F8B5     		push	{r3, r4, r5, r6, r7, lr}
 1054              		.cfi_def_cfa_offset 24
 1055              		.cfi_offset 3, -24
 1056              		.cfi_offset 4, -20
 1057              		.cfi_offset 5, -16
 1058              		.cfi_offset 6, -12
 1059              		.cfi_offset 7, -8
 1060              		.cfi_offset 14, -4
 1061              	.LBB229:
 1062              	.LBB225:
 1063              		.loc 6 609 36 view .LVU330
 1064 0216 0168     		ldr	r1, [r0]
 1065              	.LBE225:
 1066              	.LBE229:
 1067              		.loc 1 512 16 view .LVU331
 1068 0218 0127     		movs	r7, #1
 1069              		.loc 1 508 13 view .LVU332
 1070 021a 9469     		ldr	r4, [r2, #24]
 1071              	.LVL58:
 1072              		.loc 1 511 3 is_stmt 1 view .LVU333
 1073              	.LBB230:
 1074              	.LBI223:
 1075              		.loc 6 606 25 view .LVU334
ARM GAS  /tmp/ccFoR8NM.s 			page 20


 1076              	.LBB226:
 1077              		.loc 6 607 3 view .LVU335
 1078              		.loc 6 609 3 view .LVU336
 1079              	.LBE226:
 1080              	.LBE230:
 1081              	.LBB231:
 1082              	.LBB232:
 1083              		.loc 1 227 13 is_stmt 0 view .LVU337
 1084 021c 0026     		movs	r6, #0
 1085              	.LBE232:
 1086              	.LBE231:
 1087              	.LBB237:
 1088              	.LBB227:
 1089              		.loc 6 610 25 view .LVU338
 1090 021e 4A60     		str	r2, [r1, #4]
 1091              	.LBE227:
 1092              	.LBE237:
 1093              	.LBB238:
 1094              	.LBB233:
 1095              		.loc 1 228 6 view .LVU339
 1096 0220 1546     		mov	r5, r2
 1097              	.LBE233:
 1098              	.LBE238:
 1099              		.loc 1 512 16 view .LVU340
 1100 0222 80F82070 		strb	r7, [r0, #32]
 1101              	.LBB239:
 1102              	.LBB234:
 1103              		.loc 1 228 6 view .LVU341
 1104 0226 1346     		mov	r3, r2
 1105              	.LBE234:
 1106              	.LBE239:
 1107              	.LBB240:
 1108              	.LBB228:
 1109              		.loc 6 609 25 view .LVU342
 1110 0228 1160     		str	r1, [r2]
 1111              		.loc 6 610 3 is_stmt 1 view .LVU343
 1112              		.loc 6 612 3 view .LVU344
 1113              	.LVL59:
 1114              		.loc 6 612 3 is_stmt 0 view .LVU345
 1115              	.LBE228:
 1116              	.LBE240:
 1117              		.loc 1 515 10 view .LVU346
 1118 022a A168     		ldr	r1, [r4, #8]
 1119              		.loc 1 511 9 view .LVU347
 1120 022c 9061     		str	r0, [r2, #24]
 1121              		.loc 1 512 3 is_stmt 1 view .LVU348
 1122              		.loc 1 515 3 view .LVU349
 1123              		.loc 1 516 5 view .LVU350
 1124              		.loc 1 516 29 view .LVU351
 1125              		.loc 1 525 3 view .LVU352
 1126              	.LVL60:
 1127              	.LBB241:
 1128              	.LBI231:
 1129              		.loc 1 218 11 view .LVU353
 1130              	.LBB235:
 1131              		.loc 1 219 3 view .LVU354
 1132              		.loc 1 221 21 view .LVU355
ARM GAS  /tmp/ccFoR8NM.s 			page 21


 1133              		.loc 1 222 3 view .LVU356
 1134              		.loc 1 222 3 view .LVU357
 1135              		.loc 1 223 3 view .LVU358
 1136              		.loc 1 223 3 view .LVU359
 1137              		.loc 1 227 3 view .LVU360
 1138              		.loc 1 227 13 is_stmt 0 view .LVU361
 1139 022e 84F82060 		strb	r6, [r4, #32]
 1140              		.loc 1 228 3 is_stmt 1 view .LVU362
 1141              	.LVL61:
 1142              	.L61:
 1143              		.loc 1 229 3 view .LVU363
 1144              		.loc 1 230 5 view .LVU364
 1145              		.loc 1 230 8 is_stmt 0 view .LVU365
 1146 0232 1B68     		ldr	r3, [r3]
 1147              	.LVL62:
 1148              		.loc 1 231 3 view .LVU366
 1149 0234 9A68     		ldr	r2, [r3, #8]
 1150 0236 9142     		cmp	r1, r2
 1151 0238 FBD9     		bls	.L61
 1152              		.loc 1 233 3 is_stmt 1 view .LVU367
 1153              		.loc 1 234 41 is_stmt 0 view .LVU368
 1154 023a 5A68     		ldr	r2, [r3, #4]
 1155              	.LBE235:
 1156              	.LBE241:
 1157              		.loc 1 528 3 view .LVU369
 1158 023c 2146     		mov	r1, r4
 1159              	.LBB242:
 1160              	.LBB236:
 1161              		.loc 1 233 30 view .LVU370
 1162 023e 2360     		str	r3, [r4]
 1163              		.loc 1 234 3 is_stmt 1 view .LVU371
 1164              		.loc 1 234 30 is_stmt 0 view .LVU372
 1165 0240 6260     		str	r2, [r4, #4]
 1166              		.loc 1 235 3 is_stmt 1 view .LVU373
 1167              		.loc 1 235 30 is_stmt 0 view .LVU374
 1168 0242 1460     		str	r4, [r2]
 1169              		.loc 1 236 3 is_stmt 1 view .LVU375
 1170              		.loc 1 236 30 is_stmt 0 view .LVU376
 1171 0244 5C60     		str	r4, [r3, #4]
 1172              		.loc 1 238 3 is_stmt 1 view .LVU377
 1173              	.LVL63:
 1174              		.loc 1 238 3 is_stmt 0 view .LVU378
 1175              	.LBE236:
 1176              	.LBE242:
 1177              		.loc 1 528 3 is_stmt 1 view .LVU379
 1178 0246 FFF7FEFF 		bl	_trace_switch
 1179              	.LVL64:
 1180              		.loc 1 528 3 view .LVU380
 1181              		.loc 1 528 3 view .LVU381
 1182              		.loc 1 528 3 view .LVU382
 1183              		.loc 1 528 3 view .LVU383
 1184 024a 2146     		mov	r1, r4
 1185 024c A869     		ldr	r0, [r5, #24]
 1186              		.loc 1 529 1 is_stmt 0 view .LVU384
 1187 024e BDE8F840 		pop	{r3, r4, r5, r6, r7, lr}
 1188              		.cfi_restore 14
 1189              		.cfi_restore 7
ARM GAS  /tmp/ccFoR8NM.s 			page 22


 1190              		.cfi_restore 6
 1191              		.cfi_restore 5
 1192              		.cfi_restore 4
 1193              		.cfi_restore 3
 1194              		.cfi_def_cfa_offset 0
 1195              	.LVL65:
 1196              		.loc 1 528 3 view .LVU385
 1197 0252 FFF7FEBF 		b	_port_switch
 1198              	.LVL66:
 1199              	.L65:
 1200              		.loc 1 528 3 view .LVU386
 1201 0256 00BF     		.align	2
 1202              	.L64:
 1203 0258 00000000 		.word	ch
 1204              		.cfi_endproc
 1205              	.LFE332:
 1206              		.size	chSchDoRescheduleBehind, .-chSchDoRescheduleBehind
 1207              		.align	1
 1208 025c AFF30080 		.p2align 4,,15
 1209              		.global	chSchDoRescheduleAhead
 1210              		.syntax unified
 1211              		.thumb
 1212              		.thumb_func
 1213              		.fpu fpv4-sp-d16
 1214              		.type	chSchDoRescheduleAhead, %function
 1215              	chSchDoRescheduleAhead:
 1216              	.LFB333:
 1217              		.loc 1 540 35 is_stmt 1 view -0
 1218              		.cfi_startproc
 1219              		@ args = 0, pretend = 0, frame = 0
 1220              		@ frame_needed = 0, uses_anonymous_args = 0
 1221              		.loc 1 541 3 view .LVU388
 1222              		.loc 1 541 13 is_stmt 0 view .LVU389
 1223 0260 114A     		ldr	r2, .L70
 1224              	.LBB243:
 1225              	.LBB244:
 1226              		.loc 6 607 13 view .LVU390
 1227 0262 1068     		ldr	r0, [r2]
 1228              	.LBE244:
 1229              	.LBE243:
 1230              		.loc 1 540 35 view .LVU391
 1231 0264 F8B5     		push	{r3, r4, r5, r6, r7, lr}
 1232              		.cfi_def_cfa_offset 24
 1233              		.cfi_offset 3, -24
 1234              		.cfi_offset 4, -20
 1235              		.cfi_offset 5, -16
 1236              		.cfi_offset 6, -12
 1237              		.cfi_offset 7, -8
 1238              		.cfi_offset 14, -4
 1239              	.LBB249:
 1240              	.LBB245:
 1241              		.loc 6 609 36 view .LVU392
 1242 0266 0168     		ldr	r1, [r0]
 1243              	.LBE245:
 1244              	.LBE249:
 1245              		.loc 1 545 16 view .LVU393
 1246 0268 0127     		movs	r7, #1
ARM GAS  /tmp/ccFoR8NM.s 			page 23


 1247              		.loc 1 541 13 view .LVU394
 1248 026a 9469     		ldr	r4, [r2, #24]
 1249              	.LVL67:
 1250              		.loc 1 544 3 is_stmt 1 view .LVU395
 1251              	.LBB250:
 1252              	.LBI243:
 1253              		.loc 6 606 25 view .LVU396
 1254              	.LBB246:
 1255              		.loc 6 607 3 view .LVU397
 1256              		.loc 6 609 3 view .LVU398
 1257              	.LBE246:
 1258              	.LBE250:
 1259              	.LBB251:
 1260              	.LBB252:
 1261              		.loc 1 266 13 is_stmt 0 view .LVU399
 1262 026c 0026     		movs	r6, #0
 1263              	.LBE252:
 1264              	.LBE251:
 1265              	.LBB257:
 1266              	.LBB247:
 1267              		.loc 6 610 25 view .LVU400
 1268 026e 4A60     		str	r2, [r1, #4]
 1269              	.LBE247:
 1270              	.LBE257:
 1271              	.LBB258:
 1272              	.LBB253:
 1273              		.loc 1 267 6 view .LVU401
 1274 0270 1546     		mov	r5, r2
 1275              	.LBE253:
 1276              	.LBE258:
 1277              		.loc 1 545 16 view .LVU402
 1278 0272 80F82070 		strb	r7, [r0, #32]
 1279              	.LBB259:
 1280              	.LBB254:
 1281              		.loc 1 267 6 view .LVU403
 1282 0276 1346     		mov	r3, r2
 1283              	.LBE254:
 1284              	.LBE259:
 1285              	.LBB260:
 1286              	.LBB248:
 1287              		.loc 6 609 25 view .LVU404
 1288 0278 1160     		str	r1, [r2]
 1289              		.loc 6 610 3 is_stmt 1 view .LVU405
 1290              		.loc 6 612 3 view .LVU406
 1291              	.LVL68:
 1292              		.loc 6 612 3 is_stmt 0 view .LVU407
 1293              	.LBE248:
 1294              	.LBE260:
 1295              		.loc 1 548 10 view .LVU408
 1296 027a A168     		ldr	r1, [r4, #8]
 1297              		.loc 1 544 9 view .LVU409
 1298 027c 9061     		str	r0, [r2, #24]
 1299              		.loc 1 545 3 is_stmt 1 view .LVU410
 1300              		.loc 1 548 3 view .LVU411
 1301              		.loc 1 549 5 view .LVU412
 1302              		.loc 1 549 29 view .LVU413
 1303              		.loc 1 553 3 view .LVU414
ARM GAS  /tmp/ccFoR8NM.s 			page 24


 1304              	.LVL69:
 1305              	.LBB261:
 1306              	.LBI251:
 1307              		.loc 1 257 11 view .LVU415
 1308              	.LBB255:
 1309              		.loc 1 258 3 view .LVU416
 1310              		.loc 1 260 21 view .LVU417
 1311              		.loc 1 261 3 view .LVU418
 1312              		.loc 1 261 3 view .LVU419
 1313              		.loc 1 262 3 view .LVU420
 1314              		.loc 1 262 3 view .LVU421
 1315              		.loc 1 266 3 view .LVU422
 1316              		.loc 1 266 13 is_stmt 0 view .LVU423
 1317 027e 84F82060 		strb	r6, [r4, #32]
 1318              		.loc 1 267 3 is_stmt 1 view .LVU424
 1319              	.LVL70:
 1320              	.L67:
 1321              		.loc 1 268 3 view .LVU425
 1322              		.loc 1 269 5 view .LVU426
 1323              		.loc 1 269 8 is_stmt 0 view .LVU427
 1324 0282 1B68     		ldr	r3, [r3]
 1325              	.LVL71:
 1326              		.loc 1 270 3 view .LVU428
 1327 0284 9A68     		ldr	r2, [r3, #8]
 1328 0286 9142     		cmp	r1, r2
 1329 0288 FBD3     		bcc	.L67
 1330              		.loc 1 272 3 is_stmt 1 view .LVU429
 1331              		.loc 1 273 41 is_stmt 0 view .LVU430
 1332 028a 5A68     		ldr	r2, [r3, #4]
 1333              	.LBE255:
 1334              	.LBE261:
 1335              		.loc 1 556 3 view .LVU431
 1336 028c 2146     		mov	r1, r4
 1337              	.LBB262:
 1338              	.LBB256:
 1339              		.loc 1 272 30 view .LVU432
 1340 028e 2360     		str	r3, [r4]
 1341              		.loc 1 273 3 is_stmt 1 view .LVU433
 1342              		.loc 1 273 30 is_stmt 0 view .LVU434
 1343 0290 6260     		str	r2, [r4, #4]
 1344              		.loc 1 274 3 is_stmt 1 view .LVU435
 1345              		.loc 1 274 30 is_stmt 0 view .LVU436
 1346 0292 1460     		str	r4, [r2]
 1347              		.loc 1 275 3 is_stmt 1 view .LVU437
 1348              		.loc 1 275 30 is_stmt 0 view .LVU438
 1349 0294 5C60     		str	r4, [r3, #4]
 1350              		.loc 1 277 3 is_stmt 1 view .LVU439
 1351              	.LVL72:
 1352              		.loc 1 277 3 is_stmt 0 view .LVU440
 1353              	.LBE256:
 1354              	.LBE262:
 1355              		.loc 1 556 3 is_stmt 1 view .LVU441
 1356 0296 FFF7FEFF 		bl	_trace_switch
 1357              	.LVL73:
 1358              		.loc 1 556 3 view .LVU442
 1359              		.loc 1 556 3 view .LVU443
 1360              		.loc 1 556 3 view .LVU444
ARM GAS  /tmp/ccFoR8NM.s 			page 25


 1361              		.loc 1 556 3 view .LVU445
 1362 029a 2146     		mov	r1, r4
 1363 029c A869     		ldr	r0, [r5, #24]
 1364              		.loc 1 557 1 is_stmt 0 view .LVU446
 1365 029e BDE8F840 		pop	{r3, r4, r5, r6, r7, lr}
 1366              		.cfi_restore 14
 1367              		.cfi_restore 7
 1368              		.cfi_restore 6
 1369              		.cfi_restore 5
 1370              		.cfi_restore 4
 1371              		.cfi_restore 3
 1372              		.cfi_def_cfa_offset 0
 1373              	.LVL74:
 1374              		.loc 1 556 3 view .LVU447
 1375 02a2 FFF7FEBF 		b	_port_switch
 1376              	.LVL75:
 1377              	.L71:
 1378              		.loc 1 556 3 view .LVU448
 1379 02a6 00BF     		.align	2
 1380              	.L70:
 1381 02a8 00000000 		.word	ch
 1382              		.cfi_endproc
 1383              	.LFE333:
 1384              		.size	chSchDoRescheduleAhead, .-chSchDoRescheduleAhead
 1385              		.align	1
 1386 02ac AFF30080 		.p2align 4,,15
 1387              		.global	chSchRescheduleS
 1388              		.syntax unified
 1389              		.thumb
 1390              		.thumb_func
 1391              		.fpu fpv4-sp-d16
 1392              		.type	chSchRescheduleS, %function
 1393              	chSchRescheduleS:
 1394              	.LFB330:
 1395              		.loc 1 456 29 is_stmt 1 view -0
 1396              		.cfi_startproc
 1397              		@ args = 0, pretend = 0, frame = 0
 1398              		@ frame_needed = 0, uses_anonymous_args = 0
 1399              		@ link register save eliminated.
 1400              		.loc 1 458 21 view .LVU450
 1401              		.loc 1 460 3 view .LVU451
 1402              	.LBB263:
 1403              	.LBI263:
 1404              		.loc 6 644 20 view .LVU452
 1405              	.LBB264:
 1406              		.loc 6 646 21 view .LVU453
 1407              		.loc 6 648 3 view .LVU454
 1408              		.loc 6 648 10 is_stmt 0 view .LVU455
 1409 02b0 044B     		ldr	r3, .L75
 1410 02b2 1A68     		ldr	r2, [r3]
 1411              		.loc 6 648 44 view .LVU456
 1412 02b4 9B69     		ldr	r3, [r3, #24]
 1413              	.LBE264:
 1414              	.LBE263:
 1415              		.loc 1 460 6 view .LVU457
 1416 02b6 9268     		ldr	r2, [r2, #8]
 1417 02b8 9B68     		ldr	r3, [r3, #8]
ARM GAS  /tmp/ccFoR8NM.s 			page 26


 1418 02ba 9A42     		cmp	r2, r3
 1419 02bc 00D8     		bhi	.L74
 1420              		.loc 1 463 1 view .LVU458
 1421 02be 7047     		bx	lr
 1422              	.L74:
 1423              		.loc 1 461 5 is_stmt 1 view .LVU459
 1424 02c0 FFF7FEBF 		b	chSchDoRescheduleAhead
 1425              	.LVL76:
 1426              	.L76:
 1427              		.align	2
 1428              	.L75:
 1429 02c4 00000000 		.word	ch
 1430              		.cfi_endproc
 1431              	.LFE330:
 1432              		.size	chSchRescheduleS, .-chSchRescheduleS
 1433              		.align	1
 1434 02c8 AFF30080 		.p2align 4,,15
 1434      AFF30080 
 1435              		.global	chSchDoReschedule
 1436              		.syntax unified
 1437              		.thumb
 1438              		.thumb_func
 1439              		.fpu fpv4-sp-d16
 1440              		.type	chSchDoReschedule, %function
 1441              	chSchDoReschedule:
 1442              	.LFB339:
 1443              		.cfi_startproc
 1444              		@ args = 0, pretend = 0, frame = 0
 1445              		@ frame_needed = 0, uses_anonymous_args = 0
 1446              		@ link register save eliminated.
 1447 02d0 FFF7FEBF 		b	chSchDoRescheduleAhead
 1448              		.cfi_endproc
 1449              	.LFE339:
 1450              		.size	chSchDoReschedule, .-chSchDoReschedule
 1451              		.comm	ch,2176,4
 1452              	.Letext0:
 1453              		.file 8 "/home/nicolas/arm/gcc-arm-none-eabi-8-2019-q3-update/lib/gcc/arm-none-eabi/8.3.1/include/
 1454              		.file 9 "/home/nicolas/arm/gcc-arm-none-eabi-8-2019-q3-update/arm-none-eabi/include/machine/_defau
 1455              		.file 10 "/home/nicolas/arm/gcc-arm-none-eabi-8-2019-q3-update/arm-none-eabi/include/sys/_stdint.h
 1456              		.file 11 "../../../external/ChibiOS/os/common/ports/ARMCMx/compilers/GCC/chtypes.h"
 1457              		.file 12 "../../../external/ChibiOS/os/rt/include/chsystypes.h"
 1458              		.file 13 "../../../external/ChibiOS/os/rt/include/chtime.h"
 1459              		.file 14 "../../../external/ChibiOS/os/common/ext/ARM/CMSIS/Core/Include/core_cm7.h"
 1460              		.file 15 "../../../external/ChibiOS/os/common/ext/ST/STM32H7xx/system_stm32h7xx.h"
 1461              		.file 16 "../../../external/ChibiOS/os/common/ports/ARMCMx/chcore.h"
 1462              		.file 17 "../../../external/ChibiOS/os/rt/include/chtrace.h"
 1463              		.file 18 "../../../external/ChibiOS/os/rt/include/chtm.h"
 1464              		.file 19 "../../../external/ChibiOS/os/rt/include/chmtx.h"
 1465              		.file 20 "../../../external/ChibiOS/os/rt/include/chregistry.h"
 1466              		.file 21 "../../../external/ChibiOS/os/oslib/include/chmemcore.h"
 1467              		.file 22 "../../../external/ChibiOS/os/oslib/include/chmempools.h"
 1468              		.file 23 "../../../external/ChibiOS/os/oslib/include/chfactory.h"