ARM GAS  /tmp/ccOihbJY.s 			page 1


   1              		.cpu cortex-m7
   2              		.eabi_attribute 27, 1
   3              		.eabi_attribute 28, 1
   4              		.eabi_attribute 20, 1
   5              		.eabi_attribute 21, 1
   6              		.eabi_attribute 23, 3
   7              		.eabi_attribute 24, 1
   8              		.eabi_attribute 25, 1
   9              		.eabi_attribute 26, 1
  10              		.eabi_attribute 30, 2
  11              		.eabi_attribute 34, 1
  12              		.eabi_attribute 18, 4
  13              		.file	"chsem.c"
  14              		.text
  15              	.Ltext0:
  16              		.cfi_sections	.debug_frame
  17              		.align	1
  18              		.p2align 4,,15
  19              		.global	chSemObjectInit
  20              		.arch armv7e-m
  21              		.syntax unified
  22              		.thumb
  23              		.thumb_func
  24              		.fpu fpv4-sp-d16
  25              		.type	chSemObjectInit, %function
  26              	chSemObjectInit:
  27              	.LVL0:
  28              	.LFB323:
  29              		.file 1 "../../../external/ChibiOS/os/rt/src/chsem.c"
  30              		.loc 1 97 48 view -0
  31              		.cfi_startproc
  32              		@ args = 0, pretend = 0, frame = 0
  33              		@ frame_needed = 0, uses_anonymous_args = 0
  34              		@ link register save eliminated.
  35              		.loc 1 99 3 view .LVU1
  36              		.loc 1 99 3 view .LVU2
  37              		.loc 1 101 3 view .LVU3
  38              	.LBB100:
  39              	.LBI100:
  40              		.file 2 "../../../external/ChibiOS/os/rt/include/chschd.h"
  41              		.loc 2 537 20 view .LVU4
  42              	.LBB101:
  43              		.loc 2 539 3 view .LVU5
  44              		.loc 2 540 13 is_stmt 0 view .LVU6
  45 0000 C0E90000 		strd	r0, r0, [r0]
  46              	.LVL1:
  47              		.loc 2 540 13 view .LVU7
  48              	.LBE101:
  49              	.LBE100:
  50              		.loc 1 102 3 is_stmt 1 view .LVU8
  51              		.loc 1 102 11 is_stmt 0 view .LVU9
  52 0004 8160     		str	r1, [r0, #8]
  53              		.loc 1 103 1 view .LVU10
  54 0006 7047     		bx	lr
  55              		.cfi_endproc
  56              	.LFE323:
  57              		.size	chSemObjectInit, .-chSemObjectInit
ARM GAS  /tmp/ccOihbJY.s 			page 2


  58              		.align	1
  59 0008 AFF30080 		.p2align 4,,15
  59      AFF30080 
  60              		.global	chSemResetWithMessage
  61              		.syntax unified
  62              		.thumb
  63              		.thumb_func
  64              		.fpu fpv4-sp-d16
  65              		.type	chSemResetWithMessage, %function
  66              	chSemResetWithMessage:
  67              	.LVL2:
  68              	.LFB324:
  69              		.loc 1 118 65 is_stmt 1 view -0
  70              		.cfi_startproc
  71              		@ args = 0, pretend = 0, frame = 0
  72              		@ frame_needed = 0, uses_anonymous_args = 0
  73              		.loc 1 120 3 view .LVU12
  74              	.LBB102:
  75              	.LBI102:
  76              		.file 3 "../../../external/ChibiOS/os/rt/include/chsys.h"
  77              		.loc 3 353 20 view .LVU13
  78              	.LBE102:
  79              		.loc 3 355 3 view .LVU14
  80              	.LBB110:
  81              	.LBB103:
  82              	.LBI103:
  83              		.file 4 "../../../external/ChibiOS/os/common/ports/ARMCMx/chcore_v7m.h"
  84              		.loc 4 669 27 view .LVU15
  85              	.LBE103:
  86              	.LBE110:
  87              		.loc 4 677 3 view .LVU16
  88              	.LBB111:
  89              	.LBB108:
  90              	.LBB104:
  91              	.LBI104:
  92              		.file 5 "../../../external/ChibiOS/os/common/ext/ARM/CMSIS/Core/Include/cmsis_gcc.h"
  93              		.loc 5 491 27 view .LVU17
  94              	.LBB105:
  95              		.loc 5 493 3 view .LVU18
  96              	.LBE105:
  97              	.LBE104:
  98              	.LBE108:
  99              	.LBE111:
 100              		.loc 1 118 65 is_stmt 0 view .LVU19
 101 0010 38B5     		push	{r3, r4, r5, lr}
 102              		.cfi_def_cfa_offset 16
 103              		.cfi_offset 3, -16
 104              		.cfi_offset 4, -12
 105              		.cfi_offset 5, -8
 106              		.cfi_offset 14, -4
 107              	.LBB112:
 108              	.LBB109:
 109              	.LBB107:
 110              	.LBB106:
 111              		.loc 5 493 3 view .LVU20
 112 0012 2023     		movs	r3, #32
 113              		.syntax unified
ARM GAS  /tmp/ccOihbJY.s 			page 3


 114              	@ 493 "../../../external/ChibiOS/os/common/ext/ARM/CMSIS/Core/Include/cmsis_gcc.h" 1
 115 0014 83F31188 		MSR basepri, r3
 116              	@ 0 "" 2
 117              	.LVL3:
 118              		.loc 5 493 3 view .LVU21
 119              		.thumb
 120              		.syntax unified
 121              	.LBE106:
 122              	.LBE107:
 123              	.LBE109:
 124              	.LBE112:
 125              		.loc 3 356 34 is_stmt 1 view .LVU22
 126              		.loc 3 357 20 view .LVU23
 127              		.loc 1 121 3 view .LVU24
 128              	.LBB113:
 129              	.LBI113:
 130              		.loc 1 143 6 view .LVU25
 131              	.LBB114:
 132              		.loc 1 145 21 view .LVU26
 133              		.loc 1 146 3 view .LVU27
 134              		.loc 1 146 3 view .LVU28
 135              		.loc 1 147 3 view .LVU29
 136              		.loc 1 147 3 view .LVU30
 137              		.loc 1 151 3 view .LVU31
 138              		.loc 1 152 9 is_stmt 0 view .LVU32
 139 0018 0368     		ldr	r3, [r0]
 140              		.loc 1 151 11 view .LVU33
 141 001a 8160     		str	r1, [r0, #8]
 142              		.loc 1 152 3 is_stmt 1 view .LVU34
 143              	.LVL4:
 144              	.LBB115:
 145              	.LBI115:
 146              		.loc 2 564 20 view .LVU35
 147              	.LBB116:
 148              		.loc 2 566 3 view .LVU36
 149              		.loc 2 566 3 is_stmt 0 view .LVU37
 150              	.LBE116:
 151              	.LBE115:
 152              		.loc 1 152 9 view .LVU38
 153 001c 8342     		cmp	r3, r0
 154 001e 0BD0     		beq	.L4
 155 0020 0446     		mov	r4, r0
 156 0022 1546     		mov	r5, r2
 157              	.LVL5:
 158              	.L5:
 159              		.loc 1 153 5 is_stmt 1 view .LVU39
 160              	.LBB118:
 161              	.LBI118:
 162              		.loc 2 615 25 view .LVU40
 163              	.LBB119:
 164              		.loc 2 616 3 view .LVU41
 165              		.loc 2 616 13 is_stmt 0 view .LVU42
 166 0024 6068     		ldr	r0, [r4, #4]
 167              	.LVL6:
 168              		.loc 2 618 3 is_stmt 1 view .LVU43
 169              		.loc 2 618 36 is_stmt 0 view .LVU44
 170 0026 4368     		ldr	r3, [r0, #4]
ARM GAS  /tmp/ccOihbJY.s 			page 4


 171              		.loc 2 618 25 view .LVU45
 172 0028 6360     		str	r3, [r4, #4]
 173              		.loc 2 619 3 is_stmt 1 view .LVU46
 174              		.loc 2 619 25 is_stmt 0 view .LVU47
 175 002a 1C60     		str	r4, [r3]
 176              		.loc 2 621 3 is_stmt 1 view .LVU48
 177              	.LVL7:
 178              		.loc 2 621 3 is_stmt 0 view .LVU49
 179              	.LBE119:
 180              	.LBE118:
 181              		.loc 1 153 5 view .LVU50
 182 002c FFF7FEFF 		bl	chSchReadyI
 183              	.LVL8:
 184              		.loc 1 152 9 view .LVU51
 185 0030 2368     		ldr	r3, [r4]
 186              		.loc 1 153 58 view .LVU52
 187 0032 4562     		str	r5, [r0, #36]
 188              	.LVL9:
 189              	.LBB120:
 190              		.loc 2 564 20 is_stmt 1 view .LVU53
 191              	.LBB117:
 192              		.loc 2 566 3 view .LVU54
 193              		.loc 2 566 3 is_stmt 0 view .LVU55
 194              	.LBE117:
 195              	.LBE120:
 196              		.loc 1 152 9 view .LVU56
 197 0034 A342     		cmp	r3, r4
 198 0036 F5D1     		bne	.L5
 199              	.LVL10:
 200              	.L4:
 201              		.loc 1 152 9 view .LVU57
 202              	.LBE114:
 203              	.LBE113:
 204              		.loc 1 122 3 is_stmt 1 view .LVU58
 205 0038 FFF7FEFF 		bl	chSchRescheduleS
 206              	.LVL11:
 207              		.loc 1 123 3 view .LVU59
 208              	.LBB121:
 209              	.LBI121:
 210              		.loc 3 365 20 view .LVU60
 211              	.LBB122:
 212              		.loc 3 367 22 view .LVU61
 213              		.loc 3 368 33 view .LVU62
 214              		.loc 3 374 3 view .LVU63
 215              		.loc 3 374 3 view .LVU64
 216              		.loc 3 378 3 view .LVU65
 217              	.LBB123:
 218              	.LBI123:
 219              		.loc 4 693 27 view .LVU66
 220              	.LBE123:
 221              	.LBE122:
 222              	.LBE121:
 223              		.loc 4 696 3 view .LVU67
 224              	.LBB128:
 225              	.LBB127:
 226              	.LBB126:
 227              	.LBB124:
ARM GAS  /tmp/ccOihbJY.s 			page 5


 228              	.LBI124:
 229              		.loc 5 491 27 view .LVU68
 230              	.LBB125:
 231              		.loc 5 493 3 view .LVU69
 232 003c 0023     		movs	r3, #0
 233              		.syntax unified
 234              	@ 493 "../../../external/ChibiOS/os/common/ext/ARM/CMSIS/Core/Include/cmsis_gcc.h" 1
 235 003e 83F31188 		MSR basepri, r3
 236              	@ 0 "" 2
 237              	.LVL12:
 238              		.loc 5 493 3 is_stmt 0 view .LVU70
 239              		.thumb
 240              		.syntax unified
 241              	.LBE125:
 242              	.LBE124:
 243              	.LBE126:
 244              	.LBE127:
 245              	.LBE128:
 246              		.loc 1 124 1 view .LVU71
 247 0042 38BD     		pop	{r3, r4, r5, pc}
 248              		.cfi_endproc
 249              	.LFE324:
 250              		.size	chSemResetWithMessage, .-chSemResetWithMessage
 251              		.align	1
 252 0044 AFF30080 		.p2align 4,,15
 252      AFF30080 
 252      AFF30080 
 253              		.global	chSemResetWithMessageI
 254              		.syntax unified
 255              		.thumb
 256              		.thumb_func
 257              		.fpu fpv4-sp-d16
 258              		.type	chSemResetWithMessageI, %function
 259              	chSemResetWithMessageI:
 260              	.LVL13:
 261              	.LFB325:
 262              		.loc 1 143 66 is_stmt 1 view -0
 263              		.cfi_startproc
 264              		@ args = 0, pretend = 0, frame = 0
 265              		@ frame_needed = 0, uses_anonymous_args = 0
 266              		.loc 1 145 21 view .LVU73
 267              		.loc 1 146 3 view .LVU74
 268              		.loc 1 146 3 view .LVU75
 269              		.loc 1 147 3 view .LVU76
 270              		.loc 1 147 3 view .LVU77
 271              		.loc 1 151 3 view .LVU78
 272              		.loc 1 143 66 is_stmt 0 view .LVU79
 273 0050 38B5     		push	{r3, r4, r5, lr}
 274              		.cfi_def_cfa_offset 16
 275              		.cfi_offset 3, -16
 276              		.cfi_offset 4, -12
 277              		.cfi_offset 5, -8
 278              		.cfi_offset 14, -4
 279              		.loc 1 152 9 view .LVU80
 280 0052 0368     		ldr	r3, [r0]
 281              		.loc 1 151 11 view .LVU81
 282 0054 8160     		str	r1, [r0, #8]
ARM GAS  /tmp/ccOihbJY.s 			page 6


 283              		.loc 1 152 3 is_stmt 1 view .LVU82
 284              	.LVL14:
 285              	.LBB129:
 286              	.LBI129:
 287              		.loc 2 564 20 view .LVU83
 288              	.LBB130:
 289              		.loc 2 566 3 view .LVU84
 290              		.loc 2 566 3 is_stmt 0 view .LVU85
 291              	.LBE130:
 292              	.LBE129:
 293              		.loc 1 152 9 view .LVU86
 294 0056 8342     		cmp	r3, r0
 295 0058 0BD0     		beq	.L8
 296 005a 0446     		mov	r4, r0
 297 005c 1546     		mov	r5, r2
 298              	.LVL15:
 299              	.L10:
 300              		.loc 1 153 5 is_stmt 1 view .LVU87
 301              	.LBB132:
 302              	.LBI132:
 303              		.loc 2 615 25 view .LVU88
 304              	.LBB133:
 305              		.loc 2 616 3 view .LVU89
 306              		.loc 2 616 13 is_stmt 0 view .LVU90
 307 005e 6068     		ldr	r0, [r4, #4]
 308              	.LVL16:
 309              		.loc 2 618 3 is_stmt 1 view .LVU91
 310              		.loc 2 618 36 is_stmt 0 view .LVU92
 311 0060 4368     		ldr	r3, [r0, #4]
 312              		.loc 2 618 25 view .LVU93
 313 0062 6360     		str	r3, [r4, #4]
 314              		.loc 2 619 3 is_stmt 1 view .LVU94
 315              		.loc 2 619 25 is_stmt 0 view .LVU95
 316 0064 1C60     		str	r4, [r3]
 317              		.loc 2 621 3 is_stmt 1 view .LVU96
 318              	.LVL17:
 319              		.loc 2 621 3 is_stmt 0 view .LVU97
 320              	.LBE133:
 321              	.LBE132:
 322              		.loc 1 153 5 view .LVU98
 323 0066 FFF7FEFF 		bl	chSchReadyI
 324              	.LVL18:
 325              		.loc 1 152 9 view .LVU99
 326 006a 2368     		ldr	r3, [r4]
 327              		.loc 1 153 58 view .LVU100
 328 006c 4562     		str	r5, [r0, #36]
 329              	.LVL19:
 330              	.LBB134:
 331              		.loc 2 564 20 is_stmt 1 view .LVU101
 332              	.LBB131:
 333              		.loc 2 566 3 view .LVU102
 334              		.loc 2 566 3 is_stmt 0 view .LVU103
 335              	.LBE131:
 336              	.LBE134:
 337              		.loc 1 152 9 view .LVU104
 338 006e A342     		cmp	r3, r4
 339 0070 F5D1     		bne	.L10
ARM GAS  /tmp/ccOihbJY.s 			page 7


 340              	.LVL20:
 341              	.L8:
 342              		.loc 1 155 1 view .LVU105
 343 0072 38BD     		pop	{r3, r4, r5, pc}
 344              		.cfi_endproc
 345              	.LFE325:
 346              		.size	chSemResetWithMessageI, .-chSemResetWithMessageI
 347              		.align	1
 348 0074 AFF30080 		.p2align 4,,15
 348      AFF30080 
 348      AFF30080 
 349              		.global	chSemWait
 350              		.syntax unified
 351              		.thumb
 352              		.thumb_func
 353              		.fpu fpv4-sp-d16
 354              		.type	chSemWait, %function
 355              	chSemWait:
 356              	.LVL21:
 357              	.LFB326:
 358              		.loc 1 169 34 is_stmt 1 view -0
 359              		.cfi_startproc
 360              		@ args = 0, pretend = 0, frame = 0
 361              		@ frame_needed = 0, uses_anonymous_args = 0
 362              		.loc 1 170 3 view .LVU107
 363              		.loc 1 172 3 view .LVU108
 364              	.LBB150:
 365              	.LBI150:
 366              		.loc 3 353 20 view .LVU109
 367              	.LBE150:
 368              		.loc 3 355 3 view .LVU110
 369              	.LBB155:
 370              	.LBB151:
 371              	.LBI151:
 372              		.loc 4 669 27 view .LVU111
 373              	.LBE151:
 374              	.LBE155:
 375              		.loc 4 677 3 view .LVU112
 376              	.LBB156:
 377              	.LBB154:
 378              	.LBB152:
 379              	.LBI152:
 380              		.loc 5 491 27 view .LVU113
 381              	.LBB153:
 382              		.loc 5 493 3 view .LVU114
 383 0080 2023     		movs	r3, #32
 384              		.syntax unified
 385              	@ 493 "../../../external/ChibiOS/os/common/ext/ARM/CMSIS/Core/Include/cmsis_gcc.h" 1
 386 0082 83F31188 		MSR basepri, r3
 387              	@ 0 "" 2
 388              	.LVL22:
 389              		.loc 5 493 3 is_stmt 0 view .LVU115
 390              		.thumb
 391              		.syntax unified
 392              	.LBE153:
 393              	.LBE152:
 394              	.LBE154:
ARM GAS  /tmp/ccOihbJY.s 			page 8


 395              	.LBE156:
 396              		.loc 3 356 34 is_stmt 1 view .LVU116
 397              		.loc 3 357 20 view .LVU117
 398              		.loc 1 173 3 view .LVU118
 399              	.LBB157:
 400              	.LBI157:
 401              		.loc 1 191 7 view .LVU119
 402              	.LBB158:
 403              		.loc 1 193 21 view .LVU120
 404              		.loc 1 194 3 view .LVU121
 405              		.loc 1 194 3 view .LVU122
 406              		.loc 1 195 3 view .LVU123
 407              		.loc 1 195 3 view .LVU124
 408              		.loc 1 199 3 view .LVU125
 409              		.loc 1 199 7 is_stmt 0 view .LVU126
 410 0086 8368     		ldr	r3, [r0, #8]
 411 0088 013B     		subs	r3, r3, #1
 412              		.loc 1 199 6 view .LVU127
 413 008a 002B     		cmp	r3, #0
 414 008c 8360     		str	r3, [r0, #8]
 415 008e 04DB     		blt	.L20
 416              		.loc 1 207 10 view .LVU128
 417 0090 0020     		movs	r0, #0
 418              	.LVL23:
 419              		.loc 1 207 10 view .LVU129
 420              	.LBE158:
 421              	.LBE157:
 422              		.loc 1 174 3 is_stmt 1 view .LVU130
 423              	.LBB166:
 424              	.LBI166:
 425              		.loc 3 365 20 view .LVU131
 426              	.LBB167:
 427              		.loc 3 367 22 view .LVU132
 428              		.loc 3 368 33 view .LVU133
 429              		.loc 3 374 3 view .LVU134
 430              		.loc 3 374 3 view .LVU135
 431              		.loc 3 378 3 view .LVU136
 432              	.LBB168:
 433              	.LBI168:
 434              		.loc 4 693 27 view .LVU137
 435              	.LBE168:
 436              	.LBE167:
 437              	.LBE166:
 438              		.loc 4 696 3 view .LVU138
 439              	.LBB179:
 440              	.LBB176:
 441              	.LBB173:
 442              	.LBB169:
 443              	.LBI169:
 444              		.loc 5 491 27 view .LVU139
 445              	.LBB170:
 446              		.loc 5 493 3 view .LVU140
 447 0092 0023     		movs	r3, #0
 448              		.syntax unified
 449              	@ 493 "../../../external/ChibiOS/os/common/ext/ARM/CMSIS/Core/Include/cmsis_gcc.h" 1
 450 0094 83F31188 		MSR basepri, r3
 451              	@ 0 "" 2
ARM GAS  /tmp/ccOihbJY.s 			page 9


 452              	.LVL24:
 453              		.loc 5 493 3 is_stmt 0 view .LVU141
 454              		.thumb
 455              		.syntax unified
 456              	.LBE170:
 457              	.LBE169:
 458              	.LBE173:
 459              	.LBE176:
 460              	.LBE179:
 461              		.loc 1 176 3 is_stmt 1 view .LVU142
 462              		.loc 1 177 1 is_stmt 0 view .LVU143
 463 0098 7047     		bx	lr
 464              	.LVL25:
 465              	.L20:
 466              		.loc 1 169 34 view .LVU144
 467 009a 10B5     		push	{r4, lr}
 468              		.cfi_def_cfa_offset 8
 469              		.cfi_offset 4, -8
 470              		.cfi_offset 14, -4
 471 009c 0346     		mov	r3, r0
 472              	.LVL26:
 473              	.LBB180:
 474              	.LBB165:
 475              	.LBB159:
 476              	.LBI159:
 477              		.loc 1 191 7 is_stmt 1 view .LVU145
 478              	.LBB160:
 479              		.loc 1 200 5 view .LVU146
 480 009e 084C     		ldr	r4, .L21
 481              		.loc 1 202 5 is_stmt 0 view .LVU147
 482 00a0 0520     		movs	r0, #5
 483              	.LVL27:
 484              	.LBB161:
 485              	.LBB162:
 486              		.loc 2 601 35 view .LVU148
 487 00a2 5968     		ldr	r1, [r3, #4]
 488              	.LBE162:
 489              	.LBE161:
 490              		.loc 1 200 5 view .LVU149
 491 00a4 A269     		ldr	r2, [r4, #24]
 492              		.loc 1 200 21 view .LVU150
 493 00a6 5362     		str	r3, [r2, #36]
 494              		.loc 1 201 5 is_stmt 1 view .LVU151
 495              	.LVL28:
 496              	.LBB164:
 497              	.LBI161:
 498              		.loc 2 598 20 view .LVU152
 499              	.LBB163:
 500              		.loc 2 600 3 view .LVU153
 501              		.loc 2 601 30 is_stmt 0 view .LVU154
 502 00a8 C2E90031 		strd	r3, r1, [r2]
 503              		.loc 2 602 3 is_stmt 1 view .LVU155
 504              		.loc 2 602 30 is_stmt 0 view .LVU156
 505 00ac 0A60     		str	r2, [r1]
 506              		.loc 2 603 3 is_stmt 1 view .LVU157
 507              		.loc 2 603 30 is_stmt 0 view .LVU158
 508 00ae 5A60     		str	r2, [r3, #4]
ARM GAS  /tmp/ccOihbJY.s 			page 10


 509              	.LVL29:
 510              		.loc 2 603 30 view .LVU159
 511              	.LBE163:
 512              	.LBE164:
 513              		.loc 1 202 5 is_stmt 1 view .LVU160
 514 00b0 FFF7FEFF 		bl	chSchGoSleepS
 515              	.LVL30:
 516              		.loc 1 204 5 view .LVU161
 517              		.loc 1 204 20 is_stmt 0 view .LVU162
 518 00b4 A369     		ldr	r3, [r4, #24]
 519 00b6 586A     		ldr	r0, [r3, #36]
 520              	.LVL31:
 521              		.loc 1 204 20 view .LVU163
 522              	.LBE160:
 523              	.LBE159:
 524              	.LBE165:
 525              	.LBE180:
 526              		.loc 1 174 3 is_stmt 1 view .LVU164
 527              	.LBB181:
 528              		.loc 3 365 20 view .LVU165
 529              	.LBB177:
 530              		.loc 3 367 22 view .LVU166
 531              		.loc 3 368 33 view .LVU167
 532              		.loc 3 374 3 view .LVU168
 533              		.loc 3 374 3 view .LVU169
 534              		.loc 3 378 3 view .LVU170
 535              	.LBB174:
 536              		.loc 4 693 27 view .LVU171
 537              	.LBE174:
 538              	.LBE177:
 539              	.LBE181:
 540              		.loc 4 696 3 view .LVU172
 541              	.LBB182:
 542              	.LBB178:
 543              	.LBB175:
 544              	.LBB172:
 545              		.loc 5 491 27 view .LVU173
 546              	.LBB171:
 547              		.loc 5 493 3 view .LVU174
 548 00b8 0023     		movs	r3, #0
 549              		.syntax unified
 550              	@ 493 "../../../external/ChibiOS/os/common/ext/ARM/CMSIS/Core/Include/cmsis_gcc.h" 1
 551 00ba 83F31188 		MSR basepri, r3
 552              	@ 0 "" 2
 553              	.LVL32:
 554              		.loc 5 493 3 is_stmt 0 view .LVU175
 555              		.thumb
 556              		.syntax unified
 557              	.LBE171:
 558              	.LBE172:
 559              	.LBE175:
 560              	.LBE178:
 561              	.LBE182:
 562              		.loc 1 176 3 is_stmt 1 view .LVU176
 563              		.loc 1 177 1 is_stmt 0 view .LVU177
 564 00be 10BD     		pop	{r4, pc}
 565              	.L22:
ARM GAS  /tmp/ccOihbJY.s 			page 11


 566              		.align	2
 567              	.L21:
 568 00c0 00000000 		.word	ch
 569              		.cfi_endproc
 570              	.LFE326:
 571              		.size	chSemWait, .-chSemWait
 572              		.align	1
 573 00c4 AFF30080 		.p2align 4,,15
 573      AFF30080 
 573      AFF30080 
 574              		.global	chSemWaitS
 575              		.syntax unified
 576              		.thumb
 577              		.thumb_func
 578              		.fpu fpv4-sp-d16
 579              		.type	chSemWaitS, %function
 580              	chSemWaitS:
 581              	.LVL33:
 582              	.LFB327:
 583              		.loc 1 191 35 is_stmt 1 view -0
 584              		.cfi_startproc
 585              		@ args = 0, pretend = 0, frame = 0
 586              		@ frame_needed = 0, uses_anonymous_args = 0
 587              		.loc 1 193 21 view .LVU179
 588              		.loc 1 194 3 view .LVU180
 589              		.loc 1 194 3 view .LVU181
 590              		.loc 1 195 3 view .LVU182
 591              		.loc 1 195 3 view .LVU183
 592              		.loc 1 199 3 view .LVU184
 593              		.loc 1 199 7 is_stmt 0 view .LVU185
 594 00d0 8368     		ldr	r3, [r0, #8]
 595 00d2 013B     		subs	r3, r3, #1
 596              		.loc 1 199 6 view .LVU186
 597 00d4 002B     		cmp	r3, #0
 598 00d6 8360     		str	r3, [r0, #8]
 599 00d8 01DB     		blt	.L30
 600              		.loc 1 207 10 view .LVU187
 601 00da 0020     		movs	r0, #0
 602              	.LVL34:
 603              		.loc 1 208 1 view .LVU188
 604 00dc 7047     		bx	lr
 605              	.LVL35:
 606              	.L30:
 607              		.loc 1 191 35 view .LVU189
 608 00de 10B5     		push	{r4, lr}
 609              		.cfi_def_cfa_offset 8
 610              		.cfi_offset 4, -8
 611              		.cfi_offset 14, -4
 612 00e0 0346     		mov	r3, r0
 613              	.LVL36:
 614              	.LBB187:
 615              	.LBI187:
 616              		.loc 1 191 7 is_stmt 1 view .LVU190
 617              	.LBB188:
 618              		.loc 1 200 5 view .LVU191
 619 00e2 074C     		ldr	r4, .L31
 620              		.loc 1 202 5 is_stmt 0 view .LVU192
ARM GAS  /tmp/ccOihbJY.s 			page 12


 621 00e4 0520     		movs	r0, #5
 622              	.LVL37:
 623              	.LBB189:
 624              	.LBB190:
 625              		.loc 2 601 35 view .LVU193
 626 00e6 5968     		ldr	r1, [r3, #4]
 627              	.LBE190:
 628              	.LBE189:
 629              		.loc 1 200 5 view .LVU194
 630 00e8 A269     		ldr	r2, [r4, #24]
 631              		.loc 1 200 21 view .LVU195
 632 00ea 5362     		str	r3, [r2, #36]
 633              		.loc 1 201 5 is_stmt 1 view .LVU196
 634              	.LVL38:
 635              	.LBB192:
 636              	.LBI189:
 637              		.loc 2 598 20 view .LVU197
 638              	.LBB191:
 639              		.loc 2 600 3 view .LVU198
 640              		.loc 2 601 30 is_stmt 0 view .LVU199
 641 00ec C2E90031 		strd	r3, r1, [r2]
 642              		.loc 2 602 3 is_stmt 1 view .LVU200
 643              		.loc 2 602 30 is_stmt 0 view .LVU201
 644 00f0 0A60     		str	r2, [r1]
 645              		.loc 2 603 3 is_stmt 1 view .LVU202
 646              		.loc 2 603 30 is_stmt 0 view .LVU203
 647 00f2 5A60     		str	r2, [r3, #4]
 648              	.LVL39:
 649              		.loc 2 603 30 view .LVU204
 650              	.LBE191:
 651              	.LBE192:
 652              		.loc 1 202 5 is_stmt 1 view .LVU205
 653 00f4 FFF7FEFF 		bl	chSchGoSleepS
 654              	.LVL40:
 655              		.loc 1 204 5 view .LVU206
 656              		.loc 1 204 20 is_stmt 0 view .LVU207
 657 00f8 A369     		ldr	r3, [r4, #24]
 658 00fa 586A     		ldr	r0, [r3, #36]
 659              	.LVL41:
 660              		.loc 1 204 20 view .LVU208
 661              	.LBE188:
 662              	.LBE187:
 663              		.loc 1 208 1 view .LVU209
 664 00fc 10BD     		pop	{r4, pc}
 665              	.L32:
 666 00fe 00BF     		.align	2
 667              	.L31:
 668 0100 00000000 		.word	ch
 669              		.cfi_endproc
 670              	.LFE327:
 671              		.size	chSemWaitS, .-chSemWaitS
 672              		.align	1
 673 0104 AFF30080 		.p2align 4,,15
 673      AFF30080 
 673      AFF30080 
 674              		.global	chSemWaitTimeout
 675              		.syntax unified
ARM GAS  /tmp/ccOihbJY.s 			page 13


 676              		.thumb
 677              		.thumb_func
 678              		.fpu fpv4-sp-d16
 679              		.type	chSemWaitTimeout, %function
 680              	chSemWaitTimeout:
 681              	.LVL42:
 682              	.LFB328:
 683              		.loc 1 229 64 is_stmt 1 view -0
 684              		.cfi_startproc
 685              		@ args = 0, pretend = 0, frame = 0
 686              		@ frame_needed = 0, uses_anonymous_args = 0
 687              		.loc 1 230 3 view .LVU211
 688              		.loc 1 232 3 view .LVU212
 689              	.LBB208:
 690              	.LBI208:
 691              		.loc 3 353 20 view .LVU213
 692              	.LBE208:
 693              		.loc 3 355 3 view .LVU214
 694              	.LBB213:
 695              	.LBB209:
 696              	.LBI209:
 697              		.loc 4 669 27 view .LVU215
 698              	.LBE209:
 699              	.LBE213:
 700              		.loc 4 677 3 view .LVU216
 701              	.LBB214:
 702              	.LBB212:
 703              	.LBB210:
 704              	.LBI210:
 705              		.loc 5 491 27 view .LVU217
 706              	.LBB211:
 707              		.loc 5 493 3 view .LVU218
 708 0110 2023     		movs	r3, #32
 709              		.syntax unified
 710              	@ 493 "../../../external/ChibiOS/os/common/ext/ARM/CMSIS/Core/Include/cmsis_gcc.h" 1
 711 0112 83F31188 		MSR basepri, r3
 712              	@ 0 "" 2
 713              	.LVL43:
 714              		.loc 5 493 3 is_stmt 0 view .LVU219
 715              		.thumb
 716              		.syntax unified
 717              	.LBE211:
 718              	.LBE210:
 719              	.LBE212:
 720              	.LBE214:
 721              		.loc 3 356 34 is_stmt 1 view .LVU220
 722              		.loc 3 357 20 view .LVU221
 723              		.loc 1 233 3 view .LVU222
 724              	.LBB215:
 725              	.LBI215:
 726              		.loc 1 258 7 view .LVU223
 727              	.LBB216:
 728              		.loc 1 260 21 view .LVU224
 729              		.loc 1 261 3 view .LVU225
 730              		.loc 1 261 3 view .LVU226
 731              		.loc 1 262 3 view .LVU227
 732              		.loc 1 262 3 view .LVU228
ARM GAS  /tmp/ccOihbJY.s 			page 14


 733              		.loc 1 266 3 view .LVU229
 734              		.loc 1 266 11 is_stmt 0 view .LVU230
 735 0116 8268     		ldr	r2, [r0, #8]
 736              		.loc 1 266 7 view .LVU231
 737 0118 531E     		subs	r3, r2, #1
 738              		.loc 1 266 6 view .LVU232
 739 011a 002B     		cmp	r3, #0
 740 011c 8360     		str	r3, [r0, #8]
 741 011e 04DB     		blt	.L41
 742              		.loc 1 278 10 view .LVU233
 743 0120 0020     		movs	r0, #0
 744              	.LVL44:
 745              		.loc 1 278 10 view .LVU234
 746              	.LBE216:
 747              	.LBE215:
 748              		.loc 1 234 3 is_stmt 1 view .LVU235
 749              	.LBB226:
 750              	.LBI226:
 751              		.loc 3 365 20 view .LVU236
 752              	.LBB227:
 753              		.loc 3 367 22 view .LVU237
 754              		.loc 3 368 33 view .LVU238
 755              		.loc 3 374 3 view .LVU239
 756              		.loc 3 374 3 view .LVU240
 757              		.loc 3 378 3 view .LVU241
 758              	.LBB228:
 759              	.LBI228:
 760              		.loc 4 693 27 view .LVU242
 761              	.LBE228:
 762              	.LBE227:
 763              	.LBE226:
 764              		.loc 4 696 3 view .LVU243
 765              	.LBB239:
 766              	.LBB236:
 767              	.LBB233:
 768              	.LBB229:
 769              	.LBI229:
 770              		.loc 5 491 27 view .LVU244
 771              	.LBB230:
 772              		.loc 5 493 3 view .LVU245
 773 0122 0023     		movs	r3, #0
 774              		.syntax unified
 775              	@ 493 "../../../external/ChibiOS/os/common/ext/ARM/CMSIS/Core/Include/cmsis_gcc.h" 1
 776 0124 83F31188 		MSR basepri, r3
 777              	@ 0 "" 2
 778              	.LVL45:
 779              		.loc 5 493 3 is_stmt 0 view .LVU246
 780              		.thumb
 781              		.syntax unified
 782              	.LBE230:
 783              	.LBE229:
 784              	.LBE233:
 785              	.LBE236:
 786              	.LBE239:
 787              		.loc 1 236 3 is_stmt 1 view .LVU247
 788              		.loc 1 237 1 is_stmt 0 view .LVU248
 789 0128 7047     		bx	lr
ARM GAS  /tmp/ccOihbJY.s 			page 15


 790              	.LVL46:
 791              	.L41:
 792              	.LBB240:
 793              	.LBB223:
 794              		.loc 1 267 5 is_stmt 1 view .LVU249
 795              	.LBE223:
 796              	.LBE240:
 797              		.loc 1 229 64 is_stmt 0 view .LVU250
 798 012a 10B5     		push	{r4, lr}
 799              		.cfi_def_cfa_offset 8
 800              		.cfi_offset 4, -8
 801              		.cfi_offset 14, -4
 802              	.LBB241:
 803              	.LBB224:
 804              		.loc 1 267 8 view .LVU251
 805 012c 79B1     		cbz	r1, .L42
 806 012e 0346     		mov	r3, r0
 807              	.LVL47:
 808              	.LBB217:
 809              	.LBI217:
 810              		.loc 1 258 7 is_stmt 1 view .LVU252
 811              	.LBB218:
 812              		.loc 1 272 5 view .LVU253
 813 0130 094A     		ldr	r2, .L43
 814              		.loc 1 275 12 is_stmt 0 view .LVU254
 815 0132 0520     		movs	r0, #5
 816              	.LVL48:
 817              	.LBB219:
 818              	.LBB220:
 819              		.loc 2 601 35 view .LVU255
 820 0134 5C68     		ldr	r4, [r3, #4]
 821              	.LBE220:
 822              	.LBE219:
 823              		.loc 1 272 5 view .LVU256
 824 0136 9269     		ldr	r2, [r2, #24]
 825              		.loc 1 272 21 view .LVU257
 826 0138 5362     		str	r3, [r2, #36]
 827              		.loc 1 273 5 is_stmt 1 view .LVU258
 828              	.LVL49:
 829              	.LBB222:
 830              	.LBI219:
 831              		.loc 2 598 20 view .LVU259
 832              	.LBB221:
 833              		.loc 2 600 3 view .LVU260
 834              		.loc 2 601 30 is_stmt 0 view .LVU261
 835 013a C2E90034 		strd	r3, r4, [r2]
 836              		.loc 2 602 3 is_stmt 1 view .LVU262
 837              		.loc 2 602 30 is_stmt 0 view .LVU263
 838 013e 2260     		str	r2, [r4]
 839              		.loc 2 603 3 is_stmt 1 view .LVU264
 840              		.loc 2 603 30 is_stmt 0 view .LVU265
 841 0140 5A60     		str	r2, [r3, #4]
 842              	.LVL50:
 843              		.loc 2 603 30 view .LVU266
 844              	.LBE221:
 845              	.LBE222:
 846              		.loc 1 275 5 is_stmt 1 view .LVU267
ARM GAS  /tmp/ccOihbJY.s 			page 16


 847              		.loc 1 275 12 is_stmt 0 view .LVU268
 848 0142 FFF7FEFF 		bl	chSchGoSleepTimeoutS
 849              	.LVL51:
 850              	.L34:
 851              		.loc 1 275 12 view .LVU269
 852              	.LBE218:
 853              	.LBE217:
 854              	.LBE224:
 855              	.LBE241:
 856              		.loc 1 234 3 is_stmt 1 view .LVU270
 857              	.LBB242:
 858              		.loc 3 365 20 view .LVU271
 859              	.LBB237:
 860              		.loc 3 367 22 view .LVU272
 861              		.loc 3 368 33 view .LVU273
 862              		.loc 3 374 3 view .LVU274
 863              		.loc 3 374 3 view .LVU275
 864              		.loc 3 378 3 view .LVU276
 865              	.LBB234:
 866              		.loc 4 693 27 view .LVU277
 867              	.LBE234:
 868              	.LBE237:
 869              	.LBE242:
 870              		.loc 4 696 3 view .LVU278
 871              	.LBB243:
 872              	.LBB238:
 873              	.LBB235:
 874              	.LBB232:
 875              		.loc 5 491 27 view .LVU279
 876              	.LBB231:
 877              		.loc 5 493 3 view .LVU280
 878 0146 0023     		movs	r3, #0
 879              		.syntax unified
 880              	@ 493 "../../../external/ChibiOS/os/common/ext/ARM/CMSIS/Core/Include/cmsis_gcc.h" 1
 881 0148 83F31188 		MSR basepri, r3
 882              	@ 0 "" 2
 883              	.LVL52:
 884              		.loc 5 493 3 is_stmt 0 view .LVU281
 885              		.thumb
 886              		.syntax unified
 887              	.LBE231:
 888              	.LBE232:
 889              	.LBE235:
 890              	.LBE238:
 891              	.LBE243:
 892              		.loc 1 236 3 is_stmt 1 view .LVU282
 893              		.loc 1 237 1 is_stmt 0 view .LVU283
 894 014c 10BD     		pop	{r4, pc}
 895              	.LVL53:
 896              	.L42:
 897              	.LBB244:
 898              	.LBB225:
 899              		.loc 1 268 7 is_stmt 1 view .LVU284
 900              		.loc 1 268 14 is_stmt 0 view .LVU285
 901 014e 8260     		str	r2, [r0, #8]
 902              		.loc 1 270 7 is_stmt 1 view .LVU286
 903              		.loc 1 270 14 is_stmt 0 view .LVU287
ARM GAS  /tmp/ccOihbJY.s 			page 17


 904 0150 4FF0FF30 		mov	r0, #-1
 905              	.LVL54:
 906              		.loc 1 270 14 view .LVU288
 907 0154 F7E7     		b	.L34
 908              	.L44:
 909 0156 00BF     		.align	2
 910              	.L43:
 911 0158 00000000 		.word	ch
 912              	.LBE225:
 913              	.LBE244:
 914              		.cfi_endproc
 915              	.LFE328:
 916              		.size	chSemWaitTimeout, .-chSemWaitTimeout
 917              		.align	1
 918 015c AFF30080 		.p2align 4,,15
 919              		.global	chSemWaitTimeoutS
 920              		.syntax unified
 921              		.thumb
 922              		.thumb_func
 923              		.fpu fpv4-sp-d16
 924              		.type	chSemWaitTimeoutS, %function
 925              	chSemWaitTimeoutS:
 926              	.LVL55:
 927              	.LFB329:
 928              		.loc 1 258 65 is_stmt 1 view -0
 929              		.cfi_startproc
 930              		@ args = 0, pretend = 0, frame = 0
 931              		@ frame_needed = 0, uses_anonymous_args = 0
 932              		@ link register save eliminated.
 933              		.loc 1 260 21 view .LVU290
 934              		.loc 1 261 3 view .LVU291
 935              		.loc 1 261 3 view .LVU292
 936              		.loc 1 262 3 view .LVU293
 937              		.loc 1 262 3 view .LVU294
 938              		.loc 1 266 3 view .LVU295
 939              		.loc 1 258 65 is_stmt 0 view .LVU296
 940 0160 0346     		mov	r3, r0
 941              		.loc 1 266 11 view .LVU297
 942 0162 8068     		ldr	r0, [r0, #8]
 943              	.LVL56:
 944              		.loc 1 266 7 view .LVU298
 945 0164 421E     		subs	r2, r0, #1
 946              		.loc 1 266 6 view .LVU299
 947 0166 002A     		cmp	r2, #0
 948 0168 9A60     		str	r2, [r3, #8]
 949 016a 01DB     		blt	.L53
 950              		.loc 1 278 10 view .LVU300
 951 016c 0020     		movs	r0, #0
 952              		.loc 1 279 1 view .LVU301
 953 016e 7047     		bx	lr
 954              	.L53:
 955              		.loc 1 267 5 is_stmt 1 view .LVU302
 956              		.loc 1 258 65 is_stmt 0 view .LVU303
 957 0170 10B4     		push	{r4}
 958              		.cfi_def_cfa_offset 4
 959              		.cfi_offset 4, -4
 960              		.loc 1 267 8 view .LVU304
ARM GAS  /tmp/ccOihbJY.s 			page 18


 961 0172 61B1     		cbz	r1, .L54
 962              	.LVL57:
 963              	.LBB249:
 964              	.LBI249:
 965              		.loc 1 258 7 is_stmt 1 view .LVU305
 966              	.LBB250:
 967              		.loc 1 272 5 view .LVU306
 968 0174 094A     		ldr	r2, .L55
 969              		.loc 1 275 12 is_stmt 0 view .LVU307
 970 0176 0520     		movs	r0, #5
 971              	.LBB251:
 972              	.LBB252:
 973              		.loc 2 601 35 view .LVU308
 974 0178 5C68     		ldr	r4, [r3, #4]
 975              	.LBE252:
 976              	.LBE251:
 977              		.loc 1 272 5 view .LVU309
 978 017a 9269     		ldr	r2, [r2, #24]
 979              	.LBB255:
 980              	.LBB253:
 981              		.loc 2 601 30 view .LVU310
 982 017c C2E90034 		strd	r3, r4, [r2]
 983              	.LBE253:
 984              	.LBE255:
 985              		.loc 1 272 21 view .LVU311
 986 0180 5362     		str	r3, [r2, #36]
 987              		.loc 1 273 5 is_stmt 1 view .LVU312
 988              	.LVL58:
 989              	.LBB256:
 990              	.LBI251:
 991              		.loc 2 598 20 view .LVU313
 992              	.LBB254:
 993              		.loc 2 600 3 view .LVU314
 994              		.loc 2 602 3 view .LVU315
 995              		.loc 2 602 30 is_stmt 0 view .LVU316
 996 0182 2260     		str	r2, [r4]
 997              		.loc 2 603 3 is_stmt 1 view .LVU317
 998              		.loc 2 603 30 is_stmt 0 view .LVU318
 999 0184 5A60     		str	r2, [r3, #4]
 1000              	.LVL59:
 1001              		.loc 2 603 30 view .LVU319
 1002              	.LBE254:
 1003              	.LBE256:
 1004              		.loc 1 275 5 is_stmt 1 view .LVU320
 1005              	.LBE250:
 1006              	.LBE249:
 1007              		.loc 1 279 1 is_stmt 0 view .LVU321
 1008 0186 5DF8044B 		ldr	r4, [sp], #4
 1009              		.cfi_remember_state
 1010              		.cfi_restore 4
 1011              		.cfi_def_cfa_offset 0
 1012              	.LBB258:
 1013              	.LBB257:
 1014              		.loc 1 275 12 view .LVU322
 1015 018a FFF7FEBF 		b	chSchGoSleepTimeoutS
 1016              	.LVL60:
 1017              	.L54:
ARM GAS  /tmp/ccOihbJY.s 			page 19


 1018              		.cfi_restore_state
 1019              		.loc 1 275 12 view .LVU323
 1020              	.LBE257:
 1021              	.LBE258:
 1022              		.loc 1 268 7 is_stmt 1 view .LVU324
 1023              		.loc 1 268 14 is_stmt 0 view .LVU325
 1024 018e 9860     		str	r0, [r3, #8]
 1025              		.loc 1 270 7 is_stmt 1 view .LVU326
 1026              		.loc 1 270 14 is_stmt 0 view .LVU327
 1027 0190 4FF0FF30 		mov	r0, #-1
 1028              		.loc 1 279 1 view .LVU328
 1029 0194 5DF8044B 		ldr	r4, [sp], #4
 1030              		.cfi_restore 4
 1031              		.cfi_def_cfa_offset 0
 1032 0198 7047     		bx	lr
 1033              	.L56:
 1034 019a 00BF     		.align	2
 1035              	.L55:
 1036 019c 00000000 		.word	ch
 1037              		.cfi_endproc
 1038              	.LFE329:
 1039              		.size	chSemWaitTimeoutS, .-chSemWaitTimeoutS
 1040              		.align	1
 1041              		.p2align 4,,15
 1042              		.global	chSemSignal
 1043              		.syntax unified
 1044              		.thumb
 1045              		.thumb_func
 1046              		.fpu fpv4-sp-d16
 1047              		.type	chSemSignal, %function
 1048              	chSemSignal:
 1049              	.LVL61:
 1050              	.LFB330:
 1051              		.loc 1 288 35 is_stmt 1 view -0
 1052              		.cfi_startproc
 1053              		@ args = 0, pretend = 0, frame = 0
 1054              		@ frame_needed = 0, uses_anonymous_args = 0
 1055              		.loc 1 290 3 view .LVU330
 1056              		.loc 1 290 3 view .LVU331
 1057              		.loc 1 292 3 view .LVU332
 1058              	.LBB259:
 1059              	.LBI259:
 1060              		.loc 3 353 20 view .LVU333
 1061              	.LBE259:
 1062              		.loc 3 355 3 view .LVU334
 1063              	.LBB267:
 1064              	.LBB260:
 1065              	.LBI260:
 1066              		.loc 4 669 27 view .LVU335
 1067              	.LBE260:
 1068              	.LBE267:
 1069              		.loc 4 677 3 view .LVU336
 1070              	.LBB268:
 1071              	.LBB265:
 1072              	.LBB261:
 1073              	.LBI261:
 1074              		.loc 5 491 27 view .LVU337
ARM GAS  /tmp/ccOihbJY.s 			page 20


 1075              	.LBB262:
 1076              		.loc 5 493 3 view .LVU338
 1077              	.LBE262:
 1078              	.LBE261:
 1079              	.LBE265:
 1080              	.LBE268:
 1081              		.loc 1 288 35 is_stmt 0 view .LVU339
 1082 01a0 08B5     		push	{r3, lr}
 1083              		.cfi_def_cfa_offset 8
 1084              		.cfi_offset 3, -8
 1085              		.cfi_offset 14, -4
 1086              	.LBB269:
 1087              	.LBB266:
 1088              	.LBB264:
 1089              	.LBB263:
 1090              		.loc 5 493 3 view .LVU340
 1091 01a2 2023     		movs	r3, #32
 1092              		.syntax unified
 1093              	@ 493 "../../../external/ChibiOS/os/common/ext/ARM/CMSIS/Core/Include/cmsis_gcc.h" 1
 1094 01a4 83F31188 		MSR basepri, r3
 1095              	@ 0 "" 2
 1096              	.LVL62:
 1097              		.loc 5 493 3 view .LVU341
 1098              		.thumb
 1099              		.syntax unified
 1100              	.LBE263:
 1101              	.LBE264:
 1102              	.LBE266:
 1103              	.LBE269:
 1104              		.loc 3 356 34 is_stmt 1 view .LVU342
 1105              		.loc 3 357 20 view .LVU343
 1106              		.loc 1 293 3 view .LVU344
 1107              		.loc 1 293 3 view .LVU345
 1108              		.loc 1 296 3 view .LVU346
 1109              		.loc 1 296 7 is_stmt 0 view .LVU347
 1110 01a8 8368     		ldr	r3, [r0, #8]
 1111 01aa 0133     		adds	r3, r3, #1
 1112              		.loc 1 296 6 view .LVU348
 1113 01ac 002B     		cmp	r3, #0
 1114 01ae 8360     		str	r3, [r0, #8]
 1115 01b0 03DD     		ble	.L60
 1116              		.loc 1 299 3 is_stmt 1 view .LVU349
 1117              	.LBB270:
 1118              	.LBI270:
 1119              		.loc 3 365 20 view .LVU350
 1120              	.LBB271:
 1121              		.loc 3 367 22 view .LVU351
 1122              		.loc 3 368 33 view .LVU352
 1123              		.loc 3 374 3 view .LVU353
 1124              		.loc 3 374 3 view .LVU354
 1125              		.loc 3 378 3 view .LVU355
 1126              	.LBB272:
 1127              	.LBI272:
 1128              		.loc 4 693 27 view .LVU356
 1129              	.LBE272:
 1130              	.LBE271:
 1131              	.LBE270:
ARM GAS  /tmp/ccOihbJY.s 			page 21


 1132              		.loc 4 696 3 view .LVU357
 1133              	.LVL63:
 1134              	.LBB283:
 1135              	.LBB280:
 1136              	.LBB277:
 1137              	.LBB273:
 1138              	.LBI273:
 1139              		.loc 5 491 27 view .LVU358
 1140              	.LBB274:
 1141              		.loc 5 493 3 view .LVU359
 1142 01b2 0023     		movs	r3, #0
 1143              		.syntax unified
 1144              	@ 493 "../../../external/ChibiOS/os/common/ext/ARM/CMSIS/Core/Include/cmsis_gcc.h" 1
 1145 01b4 83F31188 		MSR basepri, r3
 1146              	@ 0 "" 2
 1147              	.LVL64:
 1148              		.loc 5 493 3 is_stmt 0 view .LVU360
 1149              		.thumb
 1150              		.syntax unified
 1151              	.LBE274:
 1152              	.LBE273:
 1153              	.LBE277:
 1154              	.LBE280:
 1155              	.LBE283:
 1156              		.loc 1 300 1 view .LVU361
 1157 01b8 08BD     		pop	{r3, pc}
 1158              	.L60:
 1159 01ba 0346     		mov	r3, r0
 1160              		.loc 1 297 5 is_stmt 1 view .LVU362
 1161              	.LVL65:
 1162              	.LBB284:
 1163              	.LBI284:
 1164              		.loc 2 606 25 view .LVU363
 1165              	.LBB285:
 1166              		.loc 2 607 3 view .LVU364
 1167              		.loc 2 607 13 is_stmt 0 view .LVU365
 1168 01bc 0068     		ldr	r0, [r0]
 1169              	.LVL66:
 1170              		.loc 2 609 3 is_stmt 1 view .LVU366
 1171              	.LBE285:
 1172              	.LBE284:
 1173              		.loc 1 297 5 is_stmt 0 view .LVU367
 1174 01be 0021     		movs	r1, #0
 1175              	.LBB287:
 1176              	.LBB286:
 1177              		.loc 2 609 36 view .LVU368
 1178 01c0 0268     		ldr	r2, [r0]
 1179              		.loc 2 609 25 view .LVU369
 1180 01c2 1A60     		str	r2, [r3]
 1181              		.loc 2 610 3 is_stmt 1 view .LVU370
 1182              		.loc 2 610 25 is_stmt 0 view .LVU371
 1183 01c4 5360     		str	r3, [r2, #4]
 1184              		.loc 2 612 3 is_stmt 1 view .LVU372
 1185              	.LVL67:
 1186              		.loc 2 612 3 is_stmt 0 view .LVU373
 1187              	.LBE286:
 1188              	.LBE287:
ARM GAS  /tmp/ccOihbJY.s 			page 22


 1189              		.loc 1 297 5 view .LVU374
 1190 01c6 FFF7FEFF 		bl	chSchWakeupS
 1191              	.LVL68:
 1192              		.loc 1 299 3 is_stmt 1 view .LVU375
 1193              	.LBB288:
 1194              		.loc 3 365 20 view .LVU376
 1195              	.LBB281:
 1196              		.loc 3 367 22 view .LVU377
 1197              		.loc 3 368 33 view .LVU378
 1198              		.loc 3 374 3 view .LVU379
 1199              		.loc 3 374 3 view .LVU380
 1200              		.loc 3 378 3 view .LVU381
 1201              	.LBB278:
 1202              		.loc 4 693 27 view .LVU382
 1203              	.LBE278:
 1204              	.LBE281:
 1205              	.LBE288:
 1206              		.loc 4 696 3 view .LVU383
 1207              	.LBB289:
 1208              	.LBB282:
 1209              	.LBB279:
 1210              	.LBB276:
 1211              		.loc 5 491 27 view .LVU384
 1212              	.LBB275:
 1213              		.loc 5 493 3 view .LVU385
 1214 01ca 0023     		movs	r3, #0
 1215              		.syntax unified
 1216              	@ 493 "../../../external/ChibiOS/os/common/ext/ARM/CMSIS/Core/Include/cmsis_gcc.h" 1
 1217 01cc 83F31188 		MSR basepri, r3
 1218              	@ 0 "" 2
 1219              	.LVL69:
 1220              		.loc 5 493 3 is_stmt 0 view .LVU386
 1221              		.thumb
 1222              		.syntax unified
 1223              	.LBE275:
 1224              	.LBE276:
 1225              	.LBE279:
 1226              	.LBE282:
 1227              	.LBE289:
 1228              		.loc 1 300 1 view .LVU387
 1229 01d0 08BD     		pop	{r3, pc}
 1230              		.cfi_endproc
 1231              	.LFE330:
 1232              		.size	chSemSignal, .-chSemSignal
 1233              		.align	1
 1234 01d2 00BFAFF3 		.p2align 4,,15
 1234      0080AFF3 
 1234      0080AFF3 
 1234      0080
 1235              		.global	chSemSignalI
 1236              		.syntax unified
 1237              		.thumb
 1238              		.thumb_func
 1239              		.fpu fpv4-sp-d16
 1240              		.type	chSemSignalI, %function
 1241              	chSemSignalI:
 1242              	.LVL70:
ARM GAS  /tmp/ccOihbJY.s 			page 23


 1243              	.LFB331:
 1244              		.loc 1 313 36 is_stmt 1 view -0
 1245              		.cfi_startproc
 1246              		@ args = 0, pretend = 0, frame = 0
 1247              		@ frame_needed = 0, uses_anonymous_args = 0
 1248              		@ link register save eliminated.
 1249              		.loc 1 315 21 view .LVU389
 1250              		.loc 1 316 3 view .LVU390
 1251              		.loc 1 316 3 view .LVU391
 1252              		.loc 1 317 3 view .LVU392
 1253              		.loc 1 317 3 view .LVU393
 1254              		.loc 1 321 3 view .LVU394
 1255              		.loc 1 321 7 is_stmt 0 view .LVU395
 1256 01e0 8368     		ldr	r3, [r0, #8]
 1257 01e2 0133     		adds	r3, r3, #1
 1258              		.loc 1 321 6 view .LVU396
 1259 01e4 002B     		cmp	r3, #0
 1260 01e6 8360     		str	r3, [r0, #8]
 1261 01e8 00DD     		ble	.L66
 1262 01ea 7047     		bx	lr
 1263              	.L66:
 1264              	.LBB290:
 1265              	.LBB291:
 1266              	.LBB292:
 1267              		.loc 2 607 13 view .LVU397
 1268 01ec 0368     		ldr	r3, [r0]
 1269 01ee 0246     		mov	r2, r0
 1270              	.LBE292:
 1271              	.LBE291:
 1272              		.loc 1 324 5 is_stmt 1 view .LVU398
 1273              	.LVL71:
 1274              	.LBB296:
 1275              	.LBI291:
 1276              		.loc 2 606 25 view .LVU399
 1277              	.LBB293:
 1278              		.loc 2 607 3 view .LVU400
 1279              		.loc 2 609 3 view .LVU401
 1280              	.LBE293:
 1281              	.LBE296:
 1282              	.LBE290:
 1283              		.loc 1 313 36 is_stmt 0 view .LVU402
 1284 01f0 10B4     		push	{r4}
 1285              		.cfi_def_cfa_offset 4
 1286              		.cfi_offset 4, -4
 1287              	.LBB299:
 1288              	.LBB297:
 1289              	.LBB294:
 1290              		.loc 2 609 36 view .LVU403
 1291 01f2 1968     		ldr	r1, [r3]
 1292              	.LBE294:
 1293              	.LBE297:
 1294              		.loc 1 325 18 view .LVU404
 1295 01f4 0024     		movs	r4, #0
 1296              		.loc 1 326 12 view .LVU405
 1297 01f6 1846     		mov	r0, r3
 1298              	.LVL72:
 1299              	.LBB298:
ARM GAS  /tmp/ccOihbJY.s 			page 24


 1300              	.LBB295:
 1301              		.loc 2 609 25 view .LVU406
 1302 01f8 1160     		str	r1, [r2]
 1303              		.loc 2 610 3 is_stmt 1 view .LVU407
 1304              		.loc 2 610 25 is_stmt 0 view .LVU408
 1305 01fa 4A60     		str	r2, [r1, #4]
 1306              		.loc 2 612 3 is_stmt 1 view .LVU409
 1307              	.LVL73:
 1308              		.loc 2 612 3 is_stmt 0 view .LVU410
 1309              	.LBE295:
 1310              	.LBE298:
 1311              		.loc 1 325 5 is_stmt 1 view .LVU411
 1312              		.loc 1 325 18 is_stmt 0 view .LVU412
 1313 01fc 5C62     		str	r4, [r3, #36]
 1314              		.loc 1 326 5 is_stmt 1 view .LVU413
 1315              	.LBE299:
 1316              		.loc 1 328 1 is_stmt 0 view .LVU414
 1317 01fe 5DF8044B 		ldr	r4, [sp], #4
 1318              		.cfi_restore 4
 1319              		.cfi_def_cfa_offset 0
 1320              	.LBB300:
 1321              		.loc 1 326 12 view .LVU415
 1322 0202 FFF7FEBF 		b	chSchReadyI
 1323              	.LVL74:
 1324              		.loc 1 326 12 view .LVU416
 1325              	.LBE300:
 1326              		.cfi_endproc
 1327              	.LFE331:
 1328              		.size	chSemSignalI, .-chSemSignalI
 1329              		.align	1
 1330 0206 00BFAFF3 		.p2align 4,,15
 1330      0080AFF3 
 1330      0080
 1331              		.global	chSemAddCounterI
 1332              		.syntax unified
 1333              		.thumb
 1334              		.thumb_func
 1335              		.fpu fpv4-sp-d16
 1336              		.type	chSemAddCounterI, %function
 1337              	chSemAddCounterI:
 1338              	.LVL75:
 1339              	.LFB332:
 1340              		.loc 1 343 49 is_stmt 1 view -0
 1341              		.cfi_startproc
 1342              		@ args = 0, pretend = 0, frame = 0
 1343              		@ frame_needed = 0, uses_anonymous_args = 0
 1344              		.loc 1 345 21 view .LVU418
 1345              		.loc 1 346 3 view .LVU419
 1346              		.loc 1 346 3 view .LVU420
 1347              		.loc 1 347 3 view .LVU421
 1348              		.loc 1 347 3 view .LVU422
 1349              		.loc 1 343 49 is_stmt 0 view .LVU423
 1350 0210 70B5     		push	{r4, r5, r6, lr}
 1351              		.cfi_def_cfa_offset 16
 1352              		.cfi_offset 4, -16
 1353              		.cfi_offset 5, -12
 1354              		.cfi_offset 6, -8
ARM GAS  /tmp/ccOihbJY.s 			page 25


 1355              		.cfi_offset 14, -4
 1356              		.loc 1 351 9 view .LVU424
 1357 0212 0C1E     		subs	r4, r1, #0
 1358 0214 12DD     		ble	.L67
 1359 0216 0546     		mov	r5, r0
 1360              		.loc 1 353 60 view .LVU425
 1361 0218 0026     		movs	r6, #0
 1362 021a 01E0     		b	.L70
 1363              	.LVL76:
 1364              	.L69:
 1365              		.loc 1 355 5 is_stmt 1 view .LVU426
 1366              		.loc 1 351 9 is_stmt 0 view .LVU427
 1367 021c 013C     		subs	r4, r4, #1
 1368              	.LVL77:
 1369              		.loc 1 351 9 view .LVU428
 1370 021e 0DD0     		beq	.L67
 1371              	.LVL78:
 1372              	.L70:
 1373              		.loc 1 352 5 is_stmt 1 view .LVU429
 1374              		.loc 1 352 9 is_stmt 0 view .LVU430
 1375 0220 AB68     		ldr	r3, [r5, #8]
 1376 0222 0133     		adds	r3, r3, #1
 1377              		.loc 1 352 8 view .LVU431
 1378 0224 002B     		cmp	r3, #0
 1379 0226 AB60     		str	r3, [r5, #8]
 1380 0228 F8DC     		bgt	.L69
 1381              		.loc 1 353 7 is_stmt 1 view .LVU432
 1382              	.LVL79:
 1383              	.LBB301:
 1384              	.LBI301:
 1385              		.loc 2 606 25 view .LVU433
 1386              	.LBB302:
 1387              		.loc 2 607 3 view .LVU434
 1388              		.loc 2 607 13 is_stmt 0 view .LVU435
 1389 022a 2868     		ldr	r0, [r5]
 1390              	.LVL80:
 1391              		.loc 2 609 3 is_stmt 1 view .LVU436
 1392              		.loc 2 609 36 is_stmt 0 view .LVU437
 1393 022c 0368     		ldr	r3, [r0]
 1394              		.loc 2 609 25 view .LVU438
 1395 022e 2B60     		str	r3, [r5]
 1396              		.loc 2 610 3 is_stmt 1 view .LVU439
 1397              		.loc 2 610 25 is_stmt 0 view .LVU440
 1398 0230 5D60     		str	r5, [r3, #4]
 1399              		.loc 2 612 3 is_stmt 1 view .LVU441
 1400              	.LVL81:
 1401              		.loc 2 612 3 is_stmt 0 view .LVU442
 1402              	.LBE302:
 1403              	.LBE301:
 1404              		.loc 1 353 7 view .LVU443
 1405 0232 FFF7FEFF 		bl	chSchReadyI
 1406              	.LVL82:
 1407              		.loc 1 351 9 view .LVU444
 1408 0236 013C     		subs	r4, r4, #1
 1409              	.LVL83:
 1410              		.loc 1 353 60 view .LVU445
 1411 0238 4662     		str	r6, [r0, #36]
ARM GAS  /tmp/ccOihbJY.s 			page 26


 1412              		.loc 1 355 5 is_stmt 1 view .LVU446
 1413              	.LVL84:
 1414              		.loc 1 351 9 is_stmt 0 view .LVU447
 1415 023a F1D1     		bne	.L70
 1416              	.LVL85:
 1417              	.L67:
 1418              		.loc 1 357 1 view .LVU448
 1419 023c 70BD     		pop	{r4, r5, r6, pc}
 1420              		.cfi_endproc
 1421              	.LFE332:
 1422              		.size	chSemAddCounterI, .-chSemAddCounterI
 1423              		.align	1
 1424 023e 00BF     		.p2align 4,,15
 1425              		.global	chSemSignalWait
 1426              		.syntax unified
 1427              		.thumb
 1428              		.thumb_func
 1429              		.fpu fpv4-sp-d16
 1430              		.type	chSemSignalWait, %function
 1431              	chSemSignalWait:
 1432              	.LVL86:
 1433              	.LFB333:
 1434              		.loc 1 372 59 is_stmt 1 view -0
 1435              		.cfi_startproc
 1436              		@ args = 0, pretend = 0, frame = 0
 1437              		@ frame_needed = 0, uses_anonymous_args = 0
 1438              		.loc 1 373 3 view .LVU450
 1439              		.loc 1 375 3 view .LVU451
 1440              		.loc 1 375 3 view .LVU452
 1441              		.loc 1 377 3 view .LVU453
 1442              	.LBB303:
 1443              	.LBI303:
 1444              		.loc 3 353 20 view .LVU454
 1445              	.LBE303:
 1446              		.loc 3 355 3 view .LVU455
 1447              	.LBB311:
 1448              	.LBB304:
 1449              	.LBI304:
 1450              		.loc 4 669 27 view .LVU456
 1451              	.LBE304:
 1452              	.LBE311:
 1453              		.loc 4 677 3 view .LVU457
 1454              	.LBB312:
 1455              	.LBB309:
 1456              	.LBB305:
 1457              	.LBI305:
 1458              		.loc 5 491 27 view .LVU458
 1459              	.LBB306:
 1460              		.loc 5 493 3 view .LVU459
 1461              	.LBE306:
 1462              	.LBE305:
 1463              	.LBE309:
 1464              	.LBE312:
 1465              		.loc 1 372 59 is_stmt 0 view .LVU460
 1466 0240 38B5     		push	{r3, r4, r5, lr}
 1467              		.cfi_def_cfa_offset 16
 1468              		.cfi_offset 3, -16
ARM GAS  /tmp/ccOihbJY.s 			page 27


 1469              		.cfi_offset 4, -12
 1470              		.cfi_offset 5, -8
 1471              		.cfi_offset 14, -4
 1472              		.loc 1 372 59 view .LVU461
 1473 0242 0C46     		mov	r4, r1
 1474              	.LBB313:
 1475              	.LBB310:
 1476              	.LBB308:
 1477              	.LBB307:
 1478              		.loc 5 493 3 view .LVU462
 1479 0244 2023     		movs	r3, #32
 1480              		.syntax unified
 1481              	@ 493 "../../../external/ChibiOS/os/common/ext/ARM/CMSIS/Core/Include/cmsis_gcc.h" 1
 1482 0246 83F31188 		MSR basepri, r3
 1483              	@ 0 "" 2
 1484              	.LVL87:
 1485              		.loc 5 493 3 view .LVU463
 1486              		.thumb
 1487              		.syntax unified
 1488              	.LBE307:
 1489              	.LBE308:
 1490              	.LBE310:
 1491              	.LBE313:
 1492              		.loc 3 356 34 is_stmt 1 view .LVU464
 1493              		.loc 3 357 20 view .LVU465
 1494              		.loc 1 378 3 view .LVU466
 1495              		.loc 1 378 3 view .LVU467
 1496              		.loc 1 381 3 view .LVU468
 1497              		.loc 1 381 3 view .LVU469
 1498              		.loc 1 384 3 view .LVU470
 1499              		.loc 1 384 7 is_stmt 0 view .LVU471
 1500 024a 8368     		ldr	r3, [r0, #8]
 1501 024c 0133     		adds	r3, r3, #1
 1502              		.loc 1 384 6 view .LVU472
 1503 024e 002B     		cmp	r3, #0
 1504 0250 8360     		str	r3, [r0, #8]
 1505 0252 1BDD     		ble	.L78
 1506              	.LVL88:
 1507              	.L74:
 1508              		.loc 1 387 3 is_stmt 1 view .LVU473
 1509              		.loc 1 387 7 is_stmt 0 view .LVU474
 1510 0254 A368     		ldr	r3, [r4, #8]
 1511 0256 013B     		subs	r3, r3, #1
 1512              		.loc 1 387 6 view .LVU475
 1513 0258 002B     		cmp	r3, #0
 1514 025a A360     		str	r3, [r4, #8]
 1515 025c 06DB     		blt	.L79
 1516              		.loc 1 395 5 is_stmt 1 view .LVU476
 1517 025e FFF7FEFF 		bl	chSchRescheduleS
 1518              	.LVL89:
 1519              		.loc 1 396 5 view .LVU477
 1520              		.loc 1 396 9 is_stmt 0 view .LVU478
 1521 0262 0020     		movs	r0, #0
 1522              	.LVL90:
 1523              		.loc 1 398 3 is_stmt 1 view .LVU479
 1524              	.LBB314:
 1525              	.LBI314:
ARM GAS  /tmp/ccOihbJY.s 			page 28


 1526              		.loc 3 365 20 view .LVU480
 1527              	.LBB315:
 1528              		.loc 3 367 22 view .LVU481
 1529              		.loc 3 368 33 view .LVU482
 1530              		.loc 3 374 3 view .LVU483
 1531              		.loc 3 374 3 view .LVU484
 1532              		.loc 3 378 3 view .LVU485
 1533              	.LBB316:
 1534              	.LBI316:
 1535              		.loc 4 693 27 view .LVU486
 1536              	.LBE316:
 1537              	.LBE315:
 1538              	.LBE314:
 1539              		.loc 4 696 3 view .LVU487
 1540              	.LBB327:
 1541              	.LBB324:
 1542              	.LBB321:
 1543              	.LBB317:
 1544              	.LBI317:
 1545              		.loc 5 491 27 view .LVU488
 1546              	.LBB318:
 1547              		.loc 5 493 3 view .LVU489
 1548 0264 0023     		movs	r3, #0
 1549              		.syntax unified
 1550              	@ 493 "../../../external/ChibiOS/os/common/ext/ARM/CMSIS/Core/Include/cmsis_gcc.h" 1
 1551 0266 83F31188 		MSR basepri, r3
 1552              	@ 0 "" 2
 1553              	.LVL91:
 1554              		.loc 5 493 3 is_stmt 0 view .LVU490
 1555              		.thumb
 1556              		.syntax unified
 1557              	.LBE318:
 1558              	.LBE317:
 1559              	.LBE321:
 1560              	.LBE324:
 1561              	.LBE327:
 1562              		.loc 1 400 3 is_stmt 1 view .LVU491
 1563              		.loc 1 401 1 is_stmt 0 view .LVU492
 1564 026a 38BD     		pop	{r3, r4, r5, pc}
 1565              	.LVL92:
 1566              	.L79:
 1567              	.LBB328:
 1568              		.loc 1 388 5 is_stmt 1 view .LVU493
 1569              		.loc 1 388 15 is_stmt 0 view .LVU494
 1570 026c 0C4A     		ldr	r2, .L80
 1571              		.loc 1 391 5 view .LVU495
 1572 026e 0520     		movs	r0, #5
 1573              	.LBB329:
 1574              	.LBB330:
 1575              		.loc 2 601 35 view .LVU496
 1576 0270 6368     		ldr	r3, [r4, #4]
 1577              	.LBE330:
 1578              	.LBE329:
 1579              		.loc 1 388 15 view .LVU497
 1580 0272 9569     		ldr	r5, [r2, #24]
 1581              	.LVL93:
 1582              		.loc 1 389 5 is_stmt 1 view .LVU498
ARM GAS  /tmp/ccOihbJY.s 			page 29


 1583              	.LBB332:
 1584              	.LBI329:
 1585              		.loc 2 598 20 view .LVU499
 1586              	.LBB331:
 1587              		.loc 2 600 3 view .LVU500
 1588              		.loc 2 601 30 is_stmt 0 view .LVU501
 1589 0274 C5E90043 		strd	r4, r3, [r5]
 1590              		.loc 2 602 3 is_stmt 1 view .LVU502
 1591              		.loc 2 602 30 is_stmt 0 view .LVU503
 1592 0278 1D60     		str	r5, [r3]
 1593              		.loc 2 603 3 is_stmt 1 view .LVU504
 1594              		.loc 2 603 30 is_stmt 0 view .LVU505
 1595 027a 6560     		str	r5, [r4, #4]
 1596              	.LVL94:
 1597              		.loc 2 603 30 view .LVU506
 1598              	.LBE331:
 1599              	.LBE332:
 1600              		.loc 1 390 5 is_stmt 1 view .LVU507
 1601              		.loc 1 390 19 is_stmt 0 view .LVU508
 1602 027c 6C62     		str	r4, [r5, #36]
 1603              		.loc 1 391 5 is_stmt 1 view .LVU509
 1604 027e FFF7FEFF 		bl	chSchGoSleepS
 1605              	.LVL95:
 1606              		.loc 1 392 5 view .LVU510
 1607              		.loc 1 392 9 is_stmt 0 view .LVU511
 1608 0282 686A     		ldr	r0, [r5, #36]
 1609              	.LVL96:
 1610              		.loc 1 392 9 view .LVU512
 1611              	.LBE328:
 1612              		.loc 1 398 3 is_stmt 1 view .LVU513
 1613              	.LBB333:
 1614              		.loc 3 365 20 view .LVU514
 1615              	.LBB325:
 1616              		.loc 3 367 22 view .LVU515
 1617              		.loc 3 368 33 view .LVU516
 1618              		.loc 3 374 3 view .LVU517
 1619              		.loc 3 374 3 view .LVU518
 1620              		.loc 3 378 3 view .LVU519
 1621              	.LBB322:
 1622              		.loc 4 693 27 view .LVU520
 1623              	.LBE322:
 1624              	.LBE325:
 1625              	.LBE333:
 1626              		.loc 4 696 3 view .LVU521
 1627              	.LBB334:
 1628              	.LBB326:
 1629              	.LBB323:
 1630              	.LBB320:
 1631              		.loc 5 491 27 view .LVU522
 1632              	.LBB319:
 1633              		.loc 5 493 3 view .LVU523
 1634 0284 0023     		movs	r3, #0
 1635              		.syntax unified
 1636              	@ 493 "../../../external/ChibiOS/os/common/ext/ARM/CMSIS/Core/Include/cmsis_gcc.h" 1
 1637 0286 83F31188 		MSR basepri, r3
 1638              	@ 0 "" 2
 1639              	.LVL97:
ARM GAS  /tmp/ccOihbJY.s 			page 30


 1640              		.loc 5 493 3 is_stmt 0 view .LVU524
 1641              		.thumb
 1642              		.syntax unified
 1643              	.LBE319:
 1644              	.LBE320:
 1645              	.LBE323:
 1646              	.LBE326:
 1647              	.LBE334:
 1648              		.loc 1 400 3 is_stmt 1 view .LVU525
 1649              		.loc 1 401 1 is_stmt 0 view .LVU526
 1650 028a 38BD     		pop	{r3, r4, r5, pc}
 1651              	.LVL98:
 1652              	.L78:
 1653              		.loc 1 401 1 view .LVU527
 1654 028c 0246     		mov	r2, r0
 1655              		.loc 1 385 5 is_stmt 1 view .LVU528
 1656              	.LVL99:
 1657              	.LBB335:
 1658              	.LBI335:
 1659              		.loc 2 606 25 view .LVU529
 1660              	.LBB336:
 1661              		.loc 2 607 3 view .LVU530
 1662              		.loc 2 607 13 is_stmt 0 view .LVU531
 1663 028e 0068     		ldr	r0, [r0]
 1664              	.LVL100:
 1665              		.loc 2 609 3 is_stmt 1 view .LVU532
 1666              		.loc 2 609 36 is_stmt 0 view .LVU533
 1667 0290 0368     		ldr	r3, [r0]
 1668              		.loc 2 609 25 view .LVU534
 1669 0292 1360     		str	r3, [r2]
 1670              		.loc 2 610 3 is_stmt 1 view .LVU535
 1671              		.loc 2 610 25 is_stmt 0 view .LVU536
 1672 0294 5A60     		str	r2, [r3, #4]
 1673              		.loc 2 612 3 is_stmt 1 view .LVU537
 1674              	.LVL101:
 1675              		.loc 2 612 3 is_stmt 0 view .LVU538
 1676              	.LBE336:
 1677              	.LBE335:
 1678              		.loc 1 385 5 view .LVU539
 1679 0296 FFF7FEFF 		bl	chSchReadyI
 1680              	.LVL102:
 1681              		.loc 1 385 59 view .LVU540
 1682 029a 0023     		movs	r3, #0
 1683 029c 4362     		str	r3, [r0, #36]
 1684 029e D9E7     		b	.L74
 1685              	.L81:
 1686              		.align	2
 1687              	.L80:
 1688 02a0 00000000 		.word	ch
 1689              		.cfi_endproc
 1690              	.LFE333:
 1691              		.size	chSemSignalWait, .-chSemSignalWait
 1692              	.Letext0:
 1693              		.file 6 "/home/nicolas/arm/gcc-arm-none-eabi-8-2019-q3-update/lib/gcc/arm-none-eabi/8.3.1/include/
 1694              		.file 7 "/home/nicolas/arm/gcc-arm-none-eabi-8-2019-q3-update/arm-none-eabi/include/machine/_defau
 1695              		.file 8 "/home/nicolas/arm/gcc-arm-none-eabi-8-2019-q3-update/arm-none-eabi/include/sys/_stdint.h"
 1696              		.file 9 "../../../external/ChibiOS/os/common/ports/ARMCMx/compilers/GCC/chtypes.h"
ARM GAS  /tmp/ccOihbJY.s 			page 31


 1697              		.file 10 "../../../external/ChibiOS/os/rt/include/chsystypes.h"
 1698              		.file 11 "../../../external/ChibiOS/os/rt/include/chtime.h"
 1699              		.file 12 "../../../external/ChibiOS/os/common/ext/ARM/CMSIS/Core/Include/core_cm7.h"
 1700              		.file 13 "../../../external/ChibiOS/os/common/ext/ST/STM32H7xx/system_stm32h7xx.h"
 1701              		.file 14 "../../../external/ChibiOS/os/common/ports/ARMCMx/chcore.h"
 1702              		.file 15 "../../../external/ChibiOS/os/rt/include/chtrace.h"
 1703              		.file 16 "../../../external/ChibiOS/os/rt/include/chtm.h"
 1704              		.file 17 "../../../external/ChibiOS/os/rt/include/chsem.h"
 1705              		.file 18 "../../../external/ChibiOS/os/rt/include/chmtx.h"
 1706              		.file 19 "../../../external/ChibiOS/os/rt/include/chregistry.h"
 1707              		.file 20 "../../../external/ChibiOS/os/oslib/include/chmemcore.h"
 1708              		.file 21 "../../../external/ChibiOS/os/oslib/include/chmempools.h"
 1709              		.file 22 "../../../external/ChibiOS/os/oslib/include/chfactory.h"