ARM GAS  /tmp/cc23GjE5.s 			page 1


   1              		.cpu cortex-m7
   2              		.eabi_attribute 27, 1
   3              		.eabi_attribute 28, 1
   4              		.eabi_attribute 20, 1
   5              		.eabi_attribute 21, 1
   6              		.eabi_attribute 23, 3
   7              		.eabi_attribute 24, 1
   8              		.eabi_attribute 25, 1
   9              		.eabi_attribute 26, 1
  10              		.eabi_attribute 30, 2
  11              		.eabi_attribute 34, 1
  12              		.eabi_attribute 18, 4
  13              		.file	"chthreads.c"
  14              		.text
  15              	.Ltext0:
  16              		.cfi_sections	.debug_frame
  17              		.align	1
  18              		.p2align 4,,15
  19              		.global	_thread_init
  20              		.arch armv7e-m
  21              		.syntax unified
  22              		.thumb
  23              		.thumb_func
  24              		.fpu fpv4-sp-d16
  25              		.type	_thread_init, %function
  26              	_thread_init:
  27              	.LVL0:
  28              	.LFB323:
  29              		.file 1 "../../../external/ChibiOS/os/rt/src/chthreads.c"
  30              		.loc 1 88 70 view -0
  31              		.cfi_startproc
  32              		@ args = 0, pretend = 0, frame = 0
  33              		@ frame_needed = 0, uses_anonymous_args = 0
  34              		.loc 1 90 3 view .LVU1
  35              		.loc 1 88 70 is_stmt 0 view .LVU2
  36 0000 F0B5     		push	{r4, r5, r6, r7, lr}
  37              		.cfi_def_cfa_offset 20
  38              		.cfi_offset 4, -20
  39              		.cfi_offset 5, -16
  40              		.cfi_offset 6, -12
  41              		.cfi_offset 7, -8
  42              		.cfi_offset 14, -4
  43              		.loc 1 109 3 view .LVU3
  44 0002 0E4C     		ldr	r4, .L4
  45              		.loc 1 91 17 view .LVU4
  46 0004 4FF0020E 		mov	lr, #2
  47              		.loc 1 97 17 view .LVU5
  48 0008 C263     		str	r2, [r0, #60]
  49              		.loc 1 107 17 view .LVU6
  50 000a 4FF0010C 		mov	ip, #1
  51              		.loc 1 109 3 view .LVU7
  52 000e 6569     		ldr	r5, [r4, #20]
  53              		.loc 1 98 17 view .LVU8
  54 0010 0026     		movs	r6, #0
  55              		.loc 1 90 17 view .LVU9
  56 0012 8260     		str	r2, [r0, #8]
  57              		.loc 1 91 3 is_stmt 1 view .LVU10
ARM GAS  /tmp/cc23GjE5.s 			page 2


  58              		.loc 1 92 3 view .LVU11
  59              		.loc 1 97 3 view .LVU12
  60              		.loc 1 98 3 view .LVU13
  61              		.loc 1 114 3 is_stmt 0 view .LVU14
  62 0014 00F12807 		add	r7, r0, #40
  63              		.loc 1 117 3 view .LVU15
  64 0018 00F12C02 		add	r2, r0, #44
  65              	.LVL1:
  66              		.loc 1 109 3 view .LVU16
  67 001c 4561     		str	r5, [r0, #20]
  68 001e 0461     		str	r4, [r0, #16]
  69              		.loc 1 108 17 view .LVU17
  70 0020 8161     		str	r1, [r0, #24]
  71              		.loc 1 91 17 view .LVU18
  72 0022 A0F820E0 		strh	lr, [r0, #32]	@ movhi
  73              		.loc 1 107 17 view .LVU19
  74 0026 80F822C0 		strb	ip, [r0, #34]
  75              		.loc 1 101 17 view .LVU20
  76 002a C0E90D66 		strd	r6, r6, [r0, #52]
  77              		.loc 1 107 3 is_stmt 1 view .LVU21
  78              		.loc 1 108 3 view .LVU22
  79              		.loc 1 109 3 view .LVU23
  80              		.loc 1 109 3 view .LVU24
  81              		.loc 1 109 3 view .LVU25
  82 002e 2861     		str	r0, [r5, #16]
  83              		.loc 1 109 3 view .LVU26
  84 0030 6061     		str	r0, [r4, #20]
  85              		.loc 1 109 17 view .LVU27
  86              		.loc 1 114 3 view .LVU28
  87              	.LVL2:
  88              	.LBB261:
  89              	.LBI261:
  90              		.file 2 "../../../external/ChibiOS/os/rt/include/chschd.h"
  91              		.loc 2 499 20 view .LVU29
  92              	.LBB262:
  93              		.loc 2 501 3 view .LVU30
  94              	.LBE262:
  95              	.LBE261:
  96              	.LBB263:
  97              	.LBB264:
  98              		.loc 2 540 13 is_stmt 0 view .LVU31
  99 0032 0263     		str	r2, [r0, #48]
 100              		.loc 2 539 13 view .LVU32
 101 0034 C0E90A72 		strd	r7, r2, [r0, #40]
 102              		.loc 2 540 3 is_stmt 1 view .LVU33
 103              	.LBE264:
 104              	.LBE263:
 105              		.loc 1 122 3 view .LVU34
 106              		.loc 1 122 30 view .LVU35
 107              		.loc 1 123 3 view .LVU36
 108              		.loc 1 124 1 is_stmt 0 view .LVU37
 109 0038 F0BD     		pop	{r4, r5, r6, r7, pc}
 110              	.LVL3:
 111              	.L5:
 112              		.loc 1 124 1 view .LVU38
 113 003a 00BF     		.align	2
 114              	.L4:
ARM GAS  /tmp/cc23GjE5.s 			page 3


 115 003c 00000000 		.word	ch
 116              		.cfi_endproc
 117              	.LFE323:
 118              		.size	_thread_init, .-_thread_init
 119              		.align	1
 120              		.p2align 4,,15
 121              		.global	chThdCreateSuspendedI
 122              		.syntax unified
 123              		.thumb
 124              		.thumb_func
 125              		.fpu fpv4-sp-d16
 126              		.type	chThdCreateSuspendedI, %function
 127              	chThdCreateSuspendedI:
 128              	.LVL4:
 129              	.LFB324:
 130              		.loc 1 167 65 is_stmt 1 view -0
 131              		.cfi_startproc
 132              		@ args = 0, pretend = 0, frame = 0
 133              		@ frame_needed = 0, uses_anonymous_args = 0
 134              		@ link register save eliminated.
 135              		.loc 1 168 3 view .LVU40
 136              		.loc 1 170 21 view .LVU41
 137              		.loc 1 171 3 view .LVU42
 138              		.loc 1 171 3 view .LVU43
 139              		.loc 1 172 3 view .LVU44
 140              		.loc 1 172 3 view .LVU45
 141              		.loc 1 176 3 view .LVU46
 142              		.loc 1 176 3 view .LVU47
 143              		.loc 1 181 3 view .LVU48
 144              		.loc 1 167 65 is_stmt 0 view .LVU49
 145 0040 F0B4     		push	{r4, r5, r6, r7}
 146              		.cfi_def_cfa_offset 16
 147              		.cfi_offset 4, -16
 148              		.cfi_offset 5, -12
 149              		.cfi_offset 6, -8
 150              		.cfi_offset 7, -4
 151              		.loc 1 181 35 view .LVU50
 152 0042 8368     		ldr	r3, [r0, #8]
 153              	.LBB265:
 154              	.LBB266:
 155              		.loc 1 92 17 view .LVU51
 156 0044 0024     		movs	r4, #0
 157              	.LBE266:
 158              	.LBE265:
 159              		.loc 1 186 14 view .LVU52
 160 0046 4668     		ldr	r6, [r0, #4]
 161              	.LBB278:
 162              	.LBB271:
 163              		.loc 1 107 17 view .LVU53
 164 0048 0125     		movs	r5, #1
 165              		.loc 1 109 3 view .LVU54
 166 004a 1B4A     		ldr	r2, .L8
 167              	.LBE271:
 168              	.LBE278:
 169              		.loc 1 190 3 view .LVU55
 170 004c A3F1AC01 		sub	r1, r3, #172
 171              		.loc 1 186 14 view .LVU56
ARM GAS  /tmp/cc23GjE5.s 			page 4


 172 0050 43F82C6C 		str	r6, [r3, #-44]
 173              	.LBB279:
 174              	.LBB272:
 175              		.loc 1 91 17 view .LVU57
 176 0054 4FF0020C 		mov	ip, #2
 177              	.LBE272:
 178              	.LBE279:
 179              		.loc 1 190 3 view .LVU58
 180 0058 0669     		ldr	r6, [r0, #16]
 181              	.LBB280:
 182              	.LBB273:
 183              		.loc 1 114 3 view .LVU59
 184 005a A3F12007 		sub	r7, r3, #32
 185              	.LBE273:
 186              	.LBE280:
 187              		.loc 1 190 3 view .LVU60
 188 005e 43F83C1C 		str	r1, [r3, #-60]
 189              		.loc 1 181 6 view .LVU61
 190 0062 A3F14801 		sub	r1, r3, #72
 191              	.LVL5:
 192              		.loc 1 186 3 is_stmt 1 view .LVU62
 193              		.loc 1 190 3 view .LVU63
 194              		.loc 1 190 3 view .LVU64
 195 0066 43F86C6C 		str	r6, [r3, #-108]
 196              		.loc 1 190 3 view .LVU65
 197 006a 4669     		ldr	r6, [r0, #20]
 198 006c 43F8686C 		str	r6, [r3, #-104]
 199              		.loc 1 190 3 view .LVU66
 200              		.loc 1 193 10 is_stmt 0 view .LVU67
 201 0070 0668     		ldr	r6, [r0]
 202 0072 C068     		ldr	r0, [r0, #12]
 203              	.LVL6:
 204              	.LBB281:
 205              	.LBB274:
 206              		.loc 1 107 17 view .LVU68
 207 0074 03F8265C 		strb	r5, [r3, #-38]
 208              		.loc 1 117 3 view .LVU69
 209 0078 A3F11C05 		sub	r5, r3, #28
 210              		.loc 1 90 17 view .LVU70
 211 007c 43F8400C 		str	r0, [r3, #-64]
 212              		.loc 1 97 17 view .LVU71
 213 0080 43F80C0C 		str	r0, [r3, #-12]
 214              	.LBE274:
 215              	.LBE281:
 216              		.loc 1 190 3 view .LVU72
 217 0084 0D48     		ldr	r0, .L8+4
 218              	.LBB282:
 219              	.LBB275:
 220              		.loc 1 91 17 view .LVU73
 221 0086 03F828CC 		strb	ip, [r3, #-40]
 222              		.loc 1 92 17 view .LVU74
 223 008a 03F8274C 		strb	r4, [r3, #-39]
 224              	.LBE275:
 225              	.LBE282:
 226              		.loc 1 190 3 view .LVU75
 227 008e 43F84C0C 		str	r0, [r3, #-76]
 228              		.loc 1 190 3 is_stmt 1 view .LVU76
ARM GAS  /tmp/cc23GjE5.s 			page 5


 229              		.loc 1 190 3 view .LVU77
 230              		.loc 1 190 63 view .LVU78
 231              		.loc 1 193 3 view .LVU79
 232              	.LVL7:
 233              	.LBB283:
 234              	.LBI265:
 235              		.loc 1 88 11 view .LVU80
 236              	.LBB276:
 237              		.loc 1 90 3 view .LVU81
 238              		.loc 1 91 3 view .LVU82
 239              		.loc 1 92 3 view .LVU83
 240              		.loc 1 97 3 view .LVU84
 241              		.loc 1 98 3 view .LVU85
 242              		.loc 1 101 3 view .LVU86
 243              		.loc 1 109 3 is_stmt 0 view .LVU87
 244 0092 5069     		ldr	r0, [r2, #20]
 245              		.loc 1 108 17 view .LVU88
 246 0094 43F8306C 		str	r6, [r3, #-48]
 247              		.loc 1 98 17 view .LVU89
 248 0098 43F8104C 		str	r4, [r3, #-16]
 249              		.loc 1 101 17 view .LVU90
 250 009c 43F8144C 		str	r4, [r3, #-20]
 251              		.loc 1 107 3 is_stmt 1 view .LVU91
 252              		.loc 1 108 3 view .LVU92
 253              		.loc 1 109 3 view .LVU93
 254 00a0 43E90E20 		strd	r2, r0, [r3, #-56]
 255              		.loc 1 109 3 view .LVU94
 256 00a4 0161     		str	r1, [r0, #16]
 257              		.loc 1 109 3 view .LVU95
 258              	.LBE276:
 259              	.LBE283:
 260              		.loc 1 194 1 is_stmt 0 view .LVU96
 261 00a6 0846     		mov	r0, r1
 262              	.LBB284:
 263              	.LBB277:
 264              		.loc 1 109 3 view .LVU97
 265 00a8 5161     		str	r1, [r2, #20]
 266              		.loc 1 109 17 is_stmt 1 view .LVU98
 267              		.loc 1 114 3 view .LVU99
 268              	.LVL8:
 269              	.LBB267:
 270              	.LBI267:
 271              		.loc 2 499 20 view .LVU100
 272              	.LBB268:
 273              		.loc 2 501 3 view .LVU101
 274              	.LBE268:
 275              	.LBE267:
 276              	.LBB269:
 277              	.LBB270:
 278              		.loc 2 540 13 is_stmt 0 view .LVU102
 279 00aa 43F8185C 		str	r5, [r3, #-24]
 280              		.loc 2 539 13 view .LVU103
 281 00ae 43E90875 		strd	r7, r5, [r3, #-32]
 282              		.loc 2 540 3 is_stmt 1 view .LVU104
 283              	.LBE270:
 284              	.LBE269:
 285              		.loc 1 122 3 view .LVU105
ARM GAS  /tmp/cc23GjE5.s 			page 6


 286              		.loc 1 122 30 view .LVU106
 287              		.loc 1 123 3 view .LVU107
 288              	.LVL9:
 289              		.loc 1 123 3 is_stmt 0 view .LVU108
 290              	.LBE277:
 291              	.LBE284:
 292              		.loc 1 194 1 view .LVU109
 293 00b2 F0BC     		pop	{r4, r5, r6, r7}
 294              		.cfi_restore 7
 295              		.cfi_restore 6
 296              		.cfi_restore 5
 297              		.cfi_restore 4
 298              		.cfi_def_cfa_offset 0
 299              	.LVL10:
 300              		.loc 1 194 1 view .LVU110
 301 00b4 7047     		bx	lr
 302              	.L9:
 303 00b6 00BF     		.align	2
 304              	.L8:
 305 00b8 00000000 		.word	ch
 306 00bc 00000000 		.word	_port_thread_start
 307              		.cfi_endproc
 308              	.LFE324:
 309              		.size	chThdCreateSuspendedI, .-chThdCreateSuspendedI
 310              		.align	1
 311              		.p2align 4,,15
 312              		.global	chThdCreateSuspended
 313              		.syntax unified
 314              		.thumb
 315              		.thumb_func
 316              		.fpu fpv4-sp-d16
 317              		.type	chThdCreateSuspended, %function
 318              	chThdCreateSuspended:
 319              	.LVL11:
 320              	.LFB325:
 321              		.loc 1 216 64 is_stmt 1 view -0
 322              		.cfi_startproc
 323              		@ args = 0, pretend = 0, frame = 0
 324              		@ frame_needed = 0, uses_anonymous_args = 0
 325              		.loc 1 217 3 view .LVU112
 326              		.loc 1 220 3 view .LVU113
 327              		.loc 1 220 3 view .LVU114
 328              		.loc 1 230 3 view .LVU115
 329              	.LBB285:
 330              	.LBI285:
 331              		.file 3 "../../../external/ChibiOS/os/rt/include/chsys.h"
 332              		.loc 3 353 20 view .LVU116
 333              	.LBE285:
 334              		.loc 3 355 3 view .LVU117
 335              	.LBB293:
 336              	.LBB286:
 337              	.LBI286:
 338              		.file 4 "../../../external/ChibiOS/os/common/ports/ARMCMx/chcore_v7m.h"
 339              		.loc 4 669 27 view .LVU118
 340              	.LBE286:
 341              	.LBE293:
 342              		.loc 4 677 3 view .LVU119
ARM GAS  /tmp/cc23GjE5.s 			page 7


 343              	.LBB294:
 344              	.LBB291:
 345              	.LBB287:
 346              	.LBI287:
 347              		.file 5 "../../../external/ChibiOS/os/common/ext/ARM/CMSIS/Core/Include/cmsis_gcc.h"
 348              		.loc 5 491 27 view .LVU120
 349              	.LBB288:
 350              		.loc 5 493 3 view .LVU121
 351              	.LBE288:
 352              	.LBE287:
 353              	.LBE291:
 354              	.LBE294:
 355              		.loc 1 216 64 is_stmt 0 view .LVU122
 356 00c0 08B5     		push	{r3, lr}
 357              		.cfi_def_cfa_offset 8
 358              		.cfi_offset 3, -8
 359              		.cfi_offset 14, -4
 360              	.LBB295:
 361              	.LBB292:
 362              	.LBB290:
 363              	.LBB289:
 364              		.loc 5 493 3 view .LVU123
 365 00c2 2023     		movs	r3, #32
 366              		.syntax unified
 367              	@ 493 "../../../external/ChibiOS/os/common/ext/ARM/CMSIS/Core/Include/cmsis_gcc.h" 1
 368 00c4 83F31188 		MSR basepri, r3
 369              	@ 0 "" 2
 370              	.LVL12:
 371              		.loc 5 493 3 view .LVU124
 372              		.thumb
 373              		.syntax unified
 374              	.LBE289:
 375              	.LBE290:
 376              	.LBE292:
 377              	.LBE295:
 378              		.loc 3 356 34 is_stmt 1 view .LVU125
 379              		.loc 3 357 20 view .LVU126
 380              		.loc 1 231 3 view .LVU127
 381              		.loc 1 231 8 is_stmt 0 view .LVU128
 382 00c8 FFF7FEFF 		bl	chThdCreateSuspendedI
 383              	.LVL13:
 384              		.loc 1 232 3 is_stmt 1 view .LVU129
 385              	.LBB296:
 386              	.LBI296:
 387              		.loc 3 365 20 view .LVU130
 388              	.LBB297:
 389              		.loc 3 367 22 view .LVU131
 390              		.loc 3 368 33 view .LVU132
 391              		.loc 3 374 3 view .LVU133
 392              		.loc 3 374 3 view .LVU134
 393              		.loc 3 378 3 view .LVU135
 394              	.LBB298:
 395              	.LBI298:
 396              		.loc 4 693 27 view .LVU136
 397              	.LBE298:
 398              	.LBE297:
 399              	.LBE296:
ARM GAS  /tmp/cc23GjE5.s 			page 8


 400              		.loc 4 696 3 view .LVU137
 401              	.LBB303:
 402              	.LBB302:
 403              	.LBB301:
 404              	.LBB299:
 405              	.LBI299:
 406              		.loc 5 491 27 view .LVU138
 407              	.LBB300:
 408              		.loc 5 493 3 view .LVU139
 409 00cc 0023     		movs	r3, #0
 410              		.syntax unified
 411              	@ 493 "../../../external/ChibiOS/os/common/ext/ARM/CMSIS/Core/Include/cmsis_gcc.h" 1
 412 00ce 83F31188 		MSR basepri, r3
 413              	@ 0 "" 2
 414              	.LVL14:
 415              		.loc 5 493 3 is_stmt 0 view .LVU140
 416              		.thumb
 417              		.syntax unified
 418              	.LBE300:
 419              	.LBE299:
 420              	.LBE301:
 421              	.LBE302:
 422              	.LBE303:
 423              		.loc 1 234 3 is_stmt 1 view .LVU141
 424              		.loc 1 235 1 is_stmt 0 view .LVU142
 425 00d2 08BD     		pop	{r3, pc}
 426              		.cfi_endproc
 427              	.LFE325:
 428              		.size	chThdCreateSuspended, .-chThdCreateSuspended
 429              		.align	1
 430 00d4 AFF30080 		.p2align 4,,15
 430      AFF30080 
 430      AFF30080 
 431              		.global	chThdCreateI
 432              		.syntax unified
 433              		.thumb
 434              		.thumb_func
 435              		.fpu fpv4-sp-d16
 436              		.type	chThdCreateI, %function
 437              	chThdCreateI:
 438              	.LVL15:
 439              	.LFB326:
 440              		.loc 1 259 56 is_stmt 1 view -0
 441              		.cfi_startproc
 442              		@ args = 0, pretend = 0, frame = 0
 443              		@ frame_needed = 0, uses_anonymous_args = 0
 444              		.loc 1 261 3 view .LVU144
 445              		.loc 1 259 56 is_stmt 0 view .LVU145
 446 00e0 08B5     		push	{r3, lr}
 447              		.cfi_def_cfa_offset 8
 448              		.cfi_offset 3, -8
 449              		.cfi_offset 14, -4
 450              		.loc 1 261 10 view .LVU146
 451 00e2 FFF7FEFF 		bl	chThdCreateSuspendedI
 452              	.LVL16:
 453              		.loc 1 262 1 view .LVU147
 454 00e6 BDE80840 		pop	{r3, lr}
ARM GAS  /tmp/cc23GjE5.s 			page 9


 455              		.cfi_restore 14
 456              		.cfi_restore 3
 457              		.cfi_def_cfa_offset 0
 458              		.loc 1 261 10 view .LVU148
 459 00ea FFF7FEBF 		b	chSchReadyI
 460              	.LVL17:
 461              		.cfi_endproc
 462              	.LFE326:
 463              		.size	chThdCreateI, .-chThdCreateI
 464              		.align	1
 465 00ee 00BF     		.p2align 4,,15
 466              		.global	chThdCreate
 467              		.syntax unified
 468              		.thumb
 469              		.thumb_func
 470              		.fpu fpv4-sp-d16
 471              		.type	chThdCreate, %function
 472              	chThdCreate:
 473              	.LVL18:
 474              	.LFB327:
 475              		.loc 1 280 55 is_stmt 1 view -0
 476              		.cfi_startproc
 477              		@ args = 0, pretend = 0, frame = 0
 478              		@ frame_needed = 0, uses_anonymous_args = 0
 479              		.loc 1 281 3 view .LVU150
 480              		.loc 1 285 3 view .LVU151
 481              		.loc 1 285 3 view .LVU152
 482              		.loc 1 295 3 view .LVU153
 483              	.LBB304:
 484              	.LBI304:
 485              		.loc 3 353 20 view .LVU154
 486              	.LBE304:
 487              		.loc 3 355 3 view .LVU155
 488              	.LBB312:
 489              	.LBB305:
 490              	.LBI305:
 491              		.loc 4 669 27 view .LVU156
 492              	.LBE305:
 493              	.LBE312:
 494              		.loc 4 677 3 view .LVU157
 495              	.LBB313:
 496              	.LBB310:
 497              	.LBB306:
 498              	.LBI306:
 499              		.loc 5 491 27 view .LVU158
 500              	.LBB307:
 501              		.loc 5 493 3 view .LVU159
 502              	.LBE307:
 503              	.LBE306:
 504              	.LBE310:
 505              	.LBE313:
 506              		.loc 1 280 55 is_stmt 0 view .LVU160
 507 00f0 10B5     		push	{r4, lr}
 508              		.cfi_def_cfa_offset 8
 509              		.cfi_offset 4, -8
 510              		.cfi_offset 14, -4
 511              	.LBB314:
ARM GAS  /tmp/cc23GjE5.s 			page 10


 512              	.LBB311:
 513              	.LBB309:
 514              	.LBB308:
 515              		.loc 5 493 3 view .LVU161
 516 00f2 2023     		movs	r3, #32
 517              		.syntax unified
 518              	@ 493 "../../../external/ChibiOS/os/common/ext/ARM/CMSIS/Core/Include/cmsis_gcc.h" 1
 519 00f4 83F31188 		MSR basepri, r3
 520              	@ 0 "" 2
 521              	.LVL19:
 522              		.loc 5 493 3 view .LVU162
 523              		.thumb
 524              		.syntax unified
 525              	.LBE308:
 526              	.LBE309:
 527              	.LBE311:
 528              	.LBE314:
 529              		.loc 3 356 34 is_stmt 1 view .LVU163
 530              		.loc 3 357 20 view .LVU164
 531              		.loc 1 296 3 view .LVU165
 532              		.loc 1 296 8 is_stmt 0 view .LVU166
 533 00f8 FFF7FEFF 		bl	chThdCreateSuspendedI
 534              	.LVL20:
 535              		.loc 1 297 3 view .LVU167
 536 00fc 0021     		movs	r1, #0
 537              		.loc 1 296 8 view .LVU168
 538 00fe 0446     		mov	r4, r0
 539              	.LVL21:
 540              		.loc 1 297 3 is_stmt 1 view .LVU169
 541 0100 FFF7FEFF 		bl	chSchWakeupS
 542              	.LVL22:
 543              		.loc 1 298 3 view .LVU170
 544              	.LBB315:
 545              	.LBI315:
 546              		.loc 3 365 20 view .LVU171
 547              	.LBB316:
 548              		.loc 3 367 22 view .LVU172
 549              		.loc 3 368 33 view .LVU173
 550              		.loc 3 374 3 view .LVU174
 551              		.loc 3 374 3 view .LVU175
 552              		.loc 3 378 3 view .LVU176
 553              	.LBB317:
 554              	.LBI317:
 555              		.loc 4 693 27 view .LVU177
 556              	.LBE317:
 557              	.LBE316:
 558              	.LBE315:
 559              		.loc 4 696 3 view .LVU178
 560              	.LBB322:
 561              	.LBB321:
 562              	.LBB320:
 563              	.LBB318:
 564              	.LBI318:
 565              		.loc 5 491 27 view .LVU179
 566              	.LBB319:
 567              		.loc 5 493 3 view .LVU180
 568 0104 0023     		movs	r3, #0
ARM GAS  /tmp/cc23GjE5.s 			page 11


 569              		.syntax unified
 570              	@ 493 "../../../external/ChibiOS/os/common/ext/ARM/CMSIS/Core/Include/cmsis_gcc.h" 1
 571 0106 83F31188 		MSR basepri, r3
 572              	@ 0 "" 2
 573              	.LVL23:
 574              		.loc 5 493 3 is_stmt 0 view .LVU181
 575              		.thumb
 576              		.syntax unified
 577              	.LBE319:
 578              	.LBE318:
 579              	.LBE320:
 580              	.LBE321:
 581              	.LBE322:
 582              		.loc 1 300 3 is_stmt 1 view .LVU182
 583              		.loc 1 301 1 is_stmt 0 view .LVU183
 584 010a 2046     		mov	r0, r4
 585 010c 10BD     		pop	{r4, pc}
 586              		.loc 1 301 1 view .LVU184
 587              		.cfi_endproc
 588              	.LFE327:
 589              		.size	chThdCreate, .-chThdCreate
 590              		.align	1
 591 010e 00BF     		.p2align 4,,15
 592              		.global	chThdCreateStatic
 593              		.syntax unified
 594              		.thumb
 595              		.thumb_func
 596              		.fpu fpv4-sp-d16
 597              		.type	chThdCreateStatic, %function
 598              	chThdCreateStatic:
 599              	.LVL24:
 600              	.LFB328:
 601              		.loc 1 324 66 is_stmt 1 view -0
 602              		.cfi_startproc
 603              		@ args = 4, pretend = 0, frame = 0
 604              		@ frame_needed = 0, uses_anonymous_args = 0
 605              		.loc 1 325 3 view .LVU186
 606              		.loc 1 327 3 view .LVU187
 607              		.loc 1 327 3 view .LVU188
 608              		.loc 1 335 3 view .LVU189
 609              		.loc 1 335 3 view .LVU190
 610              		.loc 1 345 3 view .LVU191
 611              	.LBB323:
 612              	.LBI323:
 613              		.loc 3 353 20 view .LVU192
 614              	.LBE323:
 615              		.loc 3 355 3 view .LVU193
 616              	.LBB331:
 617              	.LBB324:
 618              	.LBI324:
 619              		.loc 4 669 27 view .LVU194
 620              	.LBE324:
 621              	.LBE331:
 622              		.loc 4 677 3 view .LVU195
 623              	.LBB332:
 624              	.LBB329:
 625              	.LBB325:
ARM GAS  /tmp/cc23GjE5.s 			page 12


 626              	.LBI325:
 627              		.loc 5 491 27 view .LVU196
 628              	.LBB326:
 629              		.loc 5 493 3 view .LVU197
 630              	.LBE326:
 631              	.LBE325:
 632              	.LBE329:
 633              	.LBE332:
 634              		.loc 1 324 66 is_stmt 0 view .LVU198
 635 0110 F8B5     		push	{r3, r4, r5, r6, r7, lr}
 636              		.cfi_def_cfa_offset 24
 637              		.cfi_offset 3, -24
 638              		.cfi_offset 4, -20
 639              		.cfi_offset 5, -16
 640              		.cfi_offset 6, -12
 641              		.cfi_offset 7, -8
 642              		.cfi_offset 14, -4
 643              		.loc 1 324 66 view .LVU199
 644 0112 069D     		ldr	r5, [sp, #24]
 645              	.LBB333:
 646              	.LBB330:
 647              	.LBB328:
 648              	.LBB327:
 649              		.loc 5 493 3 view .LVU200
 650 0114 2024     		movs	r4, #32
 651              		.syntax unified
 652              	@ 493 "../../../external/ChibiOS/os/common/ext/ARM/CMSIS/Core/Include/cmsis_gcc.h" 1
 653 0116 84F31188 		MSR basepri, r4
 654              	@ 0 "" 2
 655              	.LVL25:
 656              		.loc 5 493 3 view .LVU201
 657              		.thumb
 658              		.syntax unified
 659              	.LBE327:
 660              	.LBE328:
 661              	.LBE330:
 662              	.LBE333:
 663              		.loc 3 356 34 is_stmt 1 view .LVU202
 664              		.loc 3 357 20 view .LVU203
 665              		.loc 1 350 3 view .LVU204
 666              		.loc 1 350 43 is_stmt 0 view .LVU205
 667 011a 4839     		subs	r1, r1, #72
 668              	.LVL26:
 669              	.LBB334:
 670              	.LBB335:
 671              		.loc 1 109 3 view .LVU206
 672 011c 174E     		ldr	r6, .L18
 673              	.LBE335:
 674              	.LBE334:
 675              		.loc 1 359 3 view .LVU207
 676 011e DFF864E0 		ldr	lr, .L18+8
 677              	.LBB351:
 678              	.LBB344:
 679              		.loc 1 91 17 view .LVU208
 680 0122 4FF0020C 		mov	ip, #2
 681              	.LBE344:
 682              	.LBE351:
ARM GAS  /tmp/cc23GjE5.s 			page 13


 683              		.loc 1 350 6 view .LVU209
 684 0126 4418     		adds	r4, r0, r1
 685              	.LVL27:
 686              		.loc 1 355 3 is_stmt 1 view .LVU210
 687              	.LBB352:
 688              	.LBB345:
 689              		.loc 1 107 17 is_stmt 0 view .LVU211
 690 0128 0121     		movs	r1, #1
 691              	.LVL28:
 692              		.loc 1 90 17 view .LVU212
 693 012a A260     		str	r2, [r4, #8]
 694              		.loc 1 114 3 view .LVU213
 695 012c 04F12807 		add	r7, r4, #40
 696              		.loc 1 97 17 view .LVU214
 697 0130 E263     		str	r2, [r4, #60]
 698              		.loc 1 108 17 view .LVU215
 699 0132 134A     		ldr	r2, .L18+4
 700              	.LVL29:
 701              		.loc 1 108 17 view .LVU216
 702              	.LBE345:
 703              	.LBE352:
 704              		.loc 1 359 3 view .LVU217
 705 0134 44F8243C 		str	r3, [r4, #-36]
 706              	.LBB353:
 707              	.LBB346:
 708              		.loc 1 117 3 view .LVU218
 709 0138 04F12C03 		add	r3, r4, #44
 710              	.LVL30:
 711              		.loc 1 117 3 view .LVU219
 712              	.LBE346:
 713              	.LBE353:
 714              		.loc 1 359 3 view .LVU220
 715 013c 44F8205C 		str	r5, [r4, #-32]
 716              	.LBB354:
 717              	.LBB347:
 718              		.loc 1 98 17 view .LVU221
 719 0140 0025     		movs	r5, #0
 720              	.LBE347:
 721              	.LBE354:
 722              		.loc 1 355 14 view .LVU222
 723 0142 E061     		str	r0, [r4, #28]
 724              		.loc 1 359 3 is_stmt 1 view .LVU223
 725 0144 A4F16400 		sub	r0, r4, #100
 726              	.LVL31:
 727              	.LBB355:
 728              	.LBB348:
 729              		.loc 1 108 17 is_stmt 0 view .LVU224
 730 0148 A261     		str	r2, [r4, #24]
 731              		.loc 1 109 3 view .LVU225
 732 014a 7269     		ldr	r2, [r6, #20]
 733              	.LBE348:
 734              	.LBE355:
 735              		.loc 1 359 3 view .LVU226
 736 014c E060     		str	r0, [r4, #12]
 737              		.loc 1 359 3 is_stmt 1 view .LVU227
 738              		.loc 1 359 3 view .LVU228
 739              		.loc 1 359 3 view .LVU229
ARM GAS  /tmp/cc23GjE5.s 			page 14


 740              		.loc 1 364 3 is_stmt 0 view .LVU230
 741 014e 2046     		mov	r0, r4
 742              		.loc 1 359 3 view .LVU231
 743 0150 44F804EC 		str	lr, [r4, #-4]
 744              		.loc 1 359 3 is_stmt 1 view .LVU232
 745              		.loc 1 359 3 view .LVU233
 746              		.loc 1 359 43 view .LVU234
 747              		.loc 1 361 3 view .LVU235
 748              	.LVL32:
 749              	.LBB356:
 750              	.LBI334:
 751              		.loc 1 88 11 view .LVU236
 752              	.LBB349:
 753              		.loc 1 90 3 view .LVU237
 754              		.loc 1 91 3 view .LVU238
 755              		.loc 1 92 3 view .LVU239
 756              		.loc 1 97 3 view .LVU240
 757              		.loc 1 98 3 view .LVU241
 758              		.loc 1 107 17 is_stmt 0 view .LVU242
 759 0154 84F82210 		strb	r1, [r4, #34]
 760              	.LBE349:
 761              	.LBE356:
 762              		.loc 1 364 3 view .LVU243
 763 0158 2946     		mov	r1, r5
 764              	.LBB357:
 765              	.LBB350:
 766              		.loc 1 91 17 view .LVU244
 767 015a A4F820C0 		strh	ip, [r4, #32]	@ movhi
 768              		.loc 1 98 17 view .LVU245
 769 015e A563     		str	r5, [r4, #56]
 770              		.loc 1 101 3 is_stmt 1 view .LVU246
 771              		.loc 1 101 17 is_stmt 0 view .LVU247
 772 0160 6563     		str	r5, [r4, #52]
 773              		.loc 1 107 3 is_stmt 1 view .LVU248
 774              		.loc 1 108 3 view .LVU249
 775              		.loc 1 109 3 view .LVU250
 776 0162 C4E90462 		strd	r6, r2, [r4, #16]
 777              		.loc 1 109 3 view .LVU251
 778 0166 1461     		str	r4, [r2, #16]
 779              		.loc 1 109 3 view .LVU252
 780              	.LBB336:
 781              	.LBB337:
 782              		.loc 2 540 13 is_stmt 0 view .LVU253
 783 0168 2363     		str	r3, [r4, #48]
 784              	.LBE337:
 785              	.LBE336:
 786              		.loc 1 109 3 view .LVU254
 787 016a 7461     		str	r4, [r6, #20]
 788              	.LBB340:
 789              	.LBB338:
 790              		.loc 2 539 13 view .LVU255
 791 016c C4E90A73 		strd	r7, r3, [r4, #40]
 792              	.LBE338:
 793              	.LBE340:
 794              		.loc 1 109 17 is_stmt 1 view .LVU256
 795              		.loc 1 114 3 view .LVU257
 796              	.LVL33:
ARM GAS  /tmp/cc23GjE5.s 			page 15


 797              	.LBB341:
 798              	.LBI341:
 799              		.loc 2 499 20 view .LVU258
 800              	.LBB342:
 801              		.loc 2 501 3 view .LVU259
 802              		.loc 2 501 3 is_stmt 0 view .LVU260
 803              	.LBE342:
 804              	.LBE341:
 805              		.loc 1 117 3 is_stmt 1 view .LVU261
 806              	.LBB343:
 807              	.LBI336:
 808              		.loc 2 537 20 view .LVU262
 809              	.LBB339:
 810              		.loc 2 539 3 view .LVU263
 811              		.loc 2 540 3 view .LVU264
 812              		.loc 2 540 3 is_stmt 0 view .LVU265
 813              	.LBE339:
 814              	.LBE343:
 815              		.loc 1 122 3 is_stmt 1 view .LVU266
 816              		.loc 1 122 30 view .LVU267
 817              		.loc 1 123 3 view .LVU268
 818              		.loc 1 123 3 is_stmt 0 view .LVU269
 819              	.LBE350:
 820              	.LBE357:
 821              		.loc 1 364 3 is_stmt 1 view .LVU270
 822 0170 FFF7FEFF 		bl	chSchWakeupS
 823              	.LVL34:
 824              		.loc 1 365 3 view .LVU271
 825              	.LBB358:
 826              	.LBI358:
 827              		.loc 3 365 20 view .LVU272
 828              	.LBB359:
 829              		.loc 3 367 22 view .LVU273
 830              		.loc 3 368 33 view .LVU274
 831              		.loc 3 374 3 view .LVU275
 832              		.loc 3 374 3 view .LVU276
 833              		.loc 3 378 3 view .LVU277
 834              	.LBB360:
 835              	.LBI360:
 836              		.loc 4 693 27 view .LVU278
 837              	.LBE360:
 838              	.LBE359:
 839              	.LBE358:
 840              		.loc 4 696 3 view .LVU279
 841              	.LBB365:
 842              	.LBB364:
 843              	.LBB363:
 844              	.LBB361:
 845              	.LBI361:
 846              		.loc 5 491 27 view .LVU280
 847              	.LBB362:
 848              		.loc 5 493 3 view .LVU281
 849              		.syntax unified
 850              	@ 493 "../../../external/ChibiOS/os/common/ext/ARM/CMSIS/Core/Include/cmsis_gcc.h" 1
 851 0174 85F31188 		MSR basepri, r5
 852              	@ 0 "" 2
 853              	.LVL35:
ARM GAS  /tmp/cc23GjE5.s 			page 16


 854              		.loc 5 493 3 is_stmt 0 view .LVU282
 855              		.thumb
 856              		.syntax unified
 857              	.LBE362:
 858              	.LBE361:
 859              	.LBE363:
 860              	.LBE364:
 861              	.LBE365:
 862              		.loc 1 367 3 is_stmt 1 view .LVU283
 863              		.loc 1 368 1 is_stmt 0 view .LVU284
 864 0178 2046     		mov	r0, r4
 865 017a F8BD     		pop	{r3, r4, r5, r6, r7, pc}
 866              	.LVL36:
 867              	.L19:
 868              		.loc 1 368 1 view .LVU285
 869              		.align	2
 870              	.L18:
 871 017c 00000000 		.word	ch
 872 0180 00000000 		.word	.LC0
 873 0184 00000000 		.word	_port_thread_start
 874              		.cfi_endproc
 875              	.LFE328:
 876              		.size	chThdCreateStatic, .-chThdCreateStatic
 877              		.align	1
 878 0188 AFF30080 		.p2align 4,,15
 878      AFF30080 
 879              		.global	chThdStart
 880              		.syntax unified
 881              		.thumb
 882              		.thumb_func
 883              		.fpu fpv4-sp-d16
 884              		.type	chThdStart, %function
 885              	chThdStart:
 886              	.LVL37:
 887              	.LFB329:
 888              		.loc 1 379 36 is_stmt 1 view -0
 889              		.cfi_startproc
 890              		@ args = 0, pretend = 0, frame = 0
 891              		@ frame_needed = 0, uses_anonymous_args = 0
 892              		.loc 1 381 3 view .LVU287
 893              	.LBB366:
 894              	.LBI366:
 895              		.loc 3 353 20 view .LVU288
 896              	.LBE366:
 897              		.loc 3 355 3 view .LVU289
 898              	.LBB377:
 899              	.LBB367:
 900              	.LBI367:
 901              		.loc 4 669 27 view .LVU290
 902              	.LBE367:
 903              	.LBE377:
 904              		.loc 4 677 3 view .LVU291
 905              	.LBB378:
 906              	.LBB374:
 907              	.LBB368:
 908              	.LBI368:
 909              		.loc 5 491 27 view .LVU292
ARM GAS  /tmp/cc23GjE5.s 			page 17


 910              	.LBB369:
 911              		.loc 5 493 3 view .LVU293
 912              	.LBE369:
 913              	.LBE368:
 914              	.LBE374:
 915              	.LBE378:
 916              		.loc 1 379 36 is_stmt 0 view .LVU294
 917 0190 10B5     		push	{r4, lr}
 918              		.cfi_def_cfa_offset 8
 919              		.cfi_offset 4, -8
 920              		.cfi_offset 14, -4
 921              	.LBB379:
 922              	.LBB375:
 923              	.LBB372:
 924              	.LBB370:
 925              		.loc 5 493 3 view .LVU295
 926 0192 2023     		movs	r3, #32
 927              	.LBE370:
 928              	.LBE372:
 929              	.LBE375:
 930              	.LBE379:
 931              		.loc 1 379 36 view .LVU296
 932 0194 0446     		mov	r4, r0
 933              	.LBB380:
 934              	.LBB376:
 935              	.LBB373:
 936              	.LBB371:
 937              		.loc 5 493 3 view .LVU297
 938              		.syntax unified
 939              	@ 493 "../../../external/ChibiOS/os/common/ext/ARM/CMSIS/Core/Include/cmsis_gcc.h" 1
 940 0196 83F31188 		MSR basepri, r3
 941              	@ 0 "" 2
 942              	.LVL38:
 943              		.loc 5 493 3 view .LVU298
 944              		.thumb
 945              		.syntax unified
 946              	.LBE371:
 947              	.LBE373:
 948              	.LBE376:
 949              	.LBE380:
 950              		.loc 3 356 34 is_stmt 1 view .LVU299
 951              		.loc 3 357 20 view .LVU300
 952              		.loc 1 382 3 view .LVU301
 953              		.loc 1 382 3 view .LVU302
 954              		.loc 1 383 3 view .LVU303
 955 019a 0021     		movs	r1, #0
 956 019c FFF7FEFF 		bl	chSchWakeupS
 957              	.LVL39:
 958              		.loc 1 384 3 view .LVU304
 959              	.LBB381:
 960              	.LBI381:
 961              		.loc 3 365 20 view .LVU305
 962              	.LBB382:
 963              		.loc 3 367 22 view .LVU306
 964              		.loc 3 368 33 view .LVU307
 965              		.loc 3 374 3 view .LVU308
 966              		.loc 3 374 3 view .LVU309
ARM GAS  /tmp/cc23GjE5.s 			page 18


 967              		.loc 3 378 3 view .LVU310
 968              	.LBB383:
 969              	.LBI383:
 970              		.loc 4 693 27 view .LVU311
 971              	.LBE383:
 972              	.LBE382:
 973              	.LBE381:
 974              		.loc 4 696 3 view .LVU312
 975              	.LBB388:
 976              	.LBB387:
 977              	.LBB386:
 978              	.LBB384:
 979              	.LBI384:
 980              		.loc 5 491 27 view .LVU313
 981              	.LBB385:
 982              		.loc 5 493 3 view .LVU314
 983 01a0 0023     		movs	r3, #0
 984              		.syntax unified
 985              	@ 493 "../../../external/ChibiOS/os/common/ext/ARM/CMSIS/Core/Include/cmsis_gcc.h" 1
 986 01a2 83F31188 		MSR basepri, r3
 987              	@ 0 "" 2
 988              	.LVL40:
 989              		.loc 5 493 3 is_stmt 0 view .LVU315
 990              		.thumb
 991              		.syntax unified
 992              	.LBE385:
 993              	.LBE384:
 994              	.LBE386:
 995              	.LBE387:
 996              	.LBE388:
 997              		.loc 1 386 3 is_stmt 1 view .LVU316
 998              		.loc 1 387 1 is_stmt 0 view .LVU317
 999 01a6 2046     		mov	r0, r4
 1000 01a8 10BD     		pop	{r4, pc}
 1001              		.loc 1 387 1 view .LVU318
 1002              		.cfi_endproc
 1003              	.LFE329:
 1004              		.size	chThdStart, .-chThdStart
 1005              		.align	1
 1006 01aa 00BFAFF3 		.p2align 4,,15
 1006      0080
 1007              		.global	chThdAddRef
 1008              		.syntax unified
 1009              		.thumb
 1010              		.thumb_func
 1011              		.fpu fpv4-sp-d16
 1012              		.type	chThdAddRef, %function
 1013              	chThdAddRef:
 1014              	.LVL41:
 1015              	.LFB330:
 1016              		.loc 1 401 37 is_stmt 1 view -0
 1017              		.cfi_startproc
 1018              		@ args = 0, pretend = 0, frame = 0
 1019              		@ frame_needed = 0, uses_anonymous_args = 0
 1020              		@ link register save eliminated.
 1021              		.loc 1 403 3 view .LVU320
 1022              	.LBB389:
ARM GAS  /tmp/cc23GjE5.s 			page 19


 1023              	.LBI389:
 1024              		.loc 3 353 20 view .LVU321
 1025              	.LBE389:
 1026              		.loc 3 355 3 view .LVU322
 1027              	.LBB394:
 1028              	.LBB390:
 1029              	.LBI390:
 1030              		.loc 4 669 27 view .LVU323
 1031              	.LBE390:
 1032              	.LBE394:
 1033              		.loc 4 677 3 view .LVU324
 1034              	.LBB395:
 1035              	.LBB393:
 1036              	.LBB391:
 1037              	.LBI391:
 1038              		.loc 5 491 27 view .LVU325
 1039              	.LBB392:
 1040              		.loc 5 493 3 view .LVU326
 1041 01b0 2023     		movs	r3, #32
 1042              		.syntax unified
 1043              	@ 493 "../../../external/ChibiOS/os/common/ext/ARM/CMSIS/Core/Include/cmsis_gcc.h" 1
 1044 01b2 83F31188 		MSR basepri, r3
 1045              	@ 0 "" 2
 1046              	.LVL42:
 1047              		.loc 5 493 3 is_stmt 0 view .LVU327
 1048              		.thumb
 1049              		.syntax unified
 1050              	.LBE392:
 1051              	.LBE391:
 1052              	.LBE393:
 1053              	.LBE395:
 1054              		.loc 3 356 34 is_stmt 1 view .LVU328
 1055              		.loc 3 357 20 view .LVU329
 1056              		.loc 1 404 3 view .LVU330
 1057              		.loc 1 404 3 view .LVU331
 1058              		.loc 1 405 3 view .LVU332
 1059              		.loc 1 405 11 is_stmt 0 view .LVU333
 1060 01b6 90F82230 		ldrb	r3, [r0, #34]	@ zero_extendqisi2
 1061              	.LBB396:
 1062              	.LBB397:
 1063              	.LBB398:
 1064              	.LBB399:
 1065              	.LBB400:
 1066              		.loc 5 493 3 view .LVU334
 1067 01ba 0021     		movs	r1, #0
 1068              	.LBE400:
 1069              	.LBE399:
 1070              	.LBE398:
 1071              	.LBE397:
 1072              	.LBE396:
 1073              		.loc 1 405 11 view .LVU335
 1074 01bc 0133     		adds	r3, r3, #1
 1075 01be 80F82230 		strb	r3, [r0, #34]
 1076              		.loc 1 406 3 is_stmt 1 view .LVU336
 1077              	.LBB407:
 1078              	.LBI396:
 1079              		.loc 3 365 20 view .LVU337
ARM GAS  /tmp/cc23GjE5.s 			page 20


 1080              	.LBB405:
 1081              		.loc 3 367 22 view .LVU338
 1082              		.loc 3 368 33 view .LVU339
 1083              		.loc 3 374 3 view .LVU340
 1084              		.loc 3 374 3 view .LVU341
 1085              		.loc 3 378 3 view .LVU342
 1086              	.LBB403:
 1087              	.LBI398:
 1088              		.loc 4 693 27 view .LVU343
 1089              	.LBE403:
 1090              	.LBE405:
 1091              	.LBE407:
 1092              		.loc 4 696 3 view .LVU344
 1093              	.LVL43:
 1094              	.LBB408:
 1095              	.LBB406:
 1096              	.LBB404:
 1097              	.LBB402:
 1098              	.LBI399:
 1099              		.loc 5 491 27 view .LVU345
 1100              	.LBB401:
 1101              		.loc 5 493 3 view .LVU346
 1102              		.syntax unified
 1103              	@ 493 "../../../external/ChibiOS/os/common/ext/ARM/CMSIS/Core/Include/cmsis_gcc.h" 1
 1104 01c2 81F31188 		MSR basepri, r1
 1105              	@ 0 "" 2
 1106              	.LVL44:
 1107              		.loc 5 493 3 is_stmt 0 view .LVU347
 1108              		.thumb
 1109              		.syntax unified
 1110              	.LBE401:
 1111              	.LBE402:
 1112              	.LBE404:
 1113              	.LBE406:
 1114              	.LBE408:
 1115              		.loc 1 408 3 is_stmt 1 view .LVU348
 1116              		.loc 1 409 1 is_stmt 0 view .LVU349
 1117 01c6 7047     		bx	lr
 1118              		.cfi_endproc
 1119              	.LFE330:
 1120              		.size	chThdAddRef, .-chThdAddRef
 1121              		.align	1
 1122 01c8 AFF30080 		.p2align 4,,15
 1122      AFF30080 
 1123              		.global	chThdRelease
 1124              		.syntax unified
 1125              		.thumb
 1126              		.thumb_func
 1127              		.fpu fpv4-sp-d16
 1128              		.type	chThdRelease, %function
 1129              	chThdRelease:
 1130              	.LVL45:
 1131              	.LFB331:
 1132              		.loc 1 427 33 is_stmt 1 view -0
 1133              		.cfi_startproc
 1134              		@ args = 0, pretend = 0, frame = 0
 1135              		@ frame_needed = 0, uses_anonymous_args = 0
ARM GAS  /tmp/cc23GjE5.s 			page 21


 1136              		@ link register save eliminated.
 1137              		.loc 1 429 3 view .LVU351
 1138              	.LBB438:
 1139              	.LBI438:
 1140              		.loc 3 353 20 view .LVU352
 1141              	.LBE438:
 1142              		.loc 3 355 3 view .LVU353
 1143              	.LBB443:
 1144              	.LBB439:
 1145              	.LBI439:
 1146              		.loc 4 669 27 view .LVU354
 1147              	.LBE439:
 1148              	.LBE443:
 1149              		.loc 4 677 3 view .LVU355
 1150              	.LBB444:
 1151              	.LBB442:
 1152              	.LBB440:
 1153              	.LBI440:
 1154              		.loc 5 491 27 view .LVU356
 1155              	.LBB441:
 1156              		.loc 5 493 3 view .LVU357
 1157 01d0 2023     		movs	r3, #32
 1158              		.syntax unified
 1159              	@ 493 "../../../external/ChibiOS/os/common/ext/ARM/CMSIS/Core/Include/cmsis_gcc.h" 1
 1160 01d2 83F31188 		MSR basepri, r3
 1161              	@ 0 "" 2
 1162              	.LVL46:
 1163              		.loc 5 493 3 is_stmt 0 view .LVU358
 1164              		.thumb
 1165              		.syntax unified
 1166              	.LBE441:
 1167              	.LBE440:
 1168              	.LBE442:
 1169              	.LBE444:
 1170              		.loc 3 356 34 is_stmt 1 view .LVU359
 1171              		.loc 3 357 20 view .LVU360
 1172              		.loc 1 430 3 view .LVU361
 1173              		.loc 1 430 3 view .LVU362
 1174              		.loc 1 431 3 view .LVU363
 1175              		.loc 1 431 11 is_stmt 0 view .LVU364
 1176 01d6 90F82230 		ldrb	r3, [r0, #34]	@ zero_extendqisi2
 1177 01da 013B     		subs	r3, r3, #1
 1178 01dc 80F82230 		strb	r3, [r0, #34]
 1179              		.loc 1 436 3 is_stmt 1 view .LVU365
 1180              		.loc 1 436 32 is_stmt 0 view .LVU366
 1181 01e0 036A     		ldr	r3, [r0, #32]
 1182 01e2 03F0FF13 		and	r3, r3, #16711935
 1183              		.loc 1 436 6 view .LVU367
 1184 01e6 0F2B     		cmp	r3, #15
 1185 01e8 03D0     		beq	.L28
 1186              		.loc 1 459 3 is_stmt 1 view .LVU368
 1187              	.LBB445:
 1188              	.LBI445:
 1189              		.loc 3 365 20 view .LVU369
 1190              	.LBB446:
 1191              		.loc 3 367 22 view .LVU370
 1192              		.loc 3 368 33 view .LVU371
ARM GAS  /tmp/cc23GjE5.s 			page 22


 1193              		.loc 3 374 3 view .LVU372
 1194              		.loc 3 374 3 view .LVU373
 1195              		.loc 3 378 3 view .LVU374
 1196              	.LBB447:
 1197              	.LBI447:
 1198              		.loc 4 693 27 view .LVU375
 1199              	.LBE447:
 1200              	.LBE446:
 1201              	.LBE445:
 1202              		.loc 4 696 3 view .LVU376
 1203              	.LVL47:
 1204              	.LBB452:
 1205              	.LBB451:
 1206              	.LBB450:
 1207              	.LBB448:
 1208              	.LBI448:
 1209              		.loc 5 491 27 view .LVU377
 1210              	.LBB449:
 1211              		.loc 5 493 3 view .LVU378
 1212 01ea 0023     		movs	r3, #0
 1213              		.syntax unified
 1214              	@ 493 "../../../external/ChibiOS/os/common/ext/ARM/CMSIS/Core/Include/cmsis_gcc.h" 1
 1215 01ec 83F31188 		MSR basepri, r3
 1216              	@ 0 "" 2
 1217              	.LVL48:
 1218              		.loc 5 493 3 is_stmt 0 view .LVU379
 1219              		.thumb
 1220              		.syntax unified
 1221              	.LBE449:
 1222              	.LBE448:
 1223              	.LBE450:
 1224              	.LBE451:
 1225              	.LBE452:
 1226              		.loc 1 460 1 view .LVU380
 1227 01f0 7047     		bx	lr
 1228              	.L28:
 1229              	.LVL49:
 1230              	.LBB453:
 1231              	.LBI453:
 1232              		.loc 1 427 6 is_stmt 1 view .LVU381
 1233              	.LBB454:
 1234              		.loc 1 437 5 view .LVU382
 1235 01f2 0169     		ldr	r1, [r0, #16]
 1236              	.LBB455:
 1237              	.LBB456:
 1238              	.LBB457:
 1239              	.LBB458:
 1240              	.LBB459:
 1241              		.loc 5 493 3 is_stmt 0 view .LVU383
 1242 01f4 0022     		movs	r2, #0
 1243              	.LBE459:
 1244              	.LBE458:
 1245              	.LBE457:
 1246              	.LBE456:
 1247              	.LBE455:
 1248              		.loc 1 437 5 view .LVU384
 1249 01f6 4369     		ldr	r3, [r0, #20]
ARM GAS  /tmp/cc23GjE5.s 			page 23


 1250 01f8 1961     		str	r1, [r3, #16]
 1251              		.loc 1 437 5 is_stmt 1 view .LVU385
 1252 01fa 0169     		ldr	r1, [r0, #16]
 1253 01fc 4B61     		str	r3, [r1, #20]
 1254              		.loc 1 437 19 view .LVU386
 1255              		.loc 1 438 5 view .LVU387
 1256              	.LBB466:
 1257              	.LBI455:
 1258              		.loc 3 365 20 view .LVU388
 1259              	.LBB464:
 1260              		.loc 3 367 22 view .LVU389
 1261              		.loc 3 368 33 view .LVU390
 1262              		.loc 3 374 3 view .LVU391
 1263              		.loc 3 374 3 view .LVU392
 1264              		.loc 3 378 3 view .LVU393
 1265              	.LBB462:
 1266              	.LBI457:
 1267              		.loc 4 693 27 view .LVU394
 1268              	.LBE462:
 1269              	.LBE464:
 1270              	.LBE466:
 1271              	.LBE454:
 1272              	.LBE453:
 1273              		.loc 4 696 3 view .LVU395
 1274              	.LVL50:
 1275              	.LBB471:
 1276              	.LBB468:
 1277              	.LBB467:
 1278              	.LBB465:
 1279              	.LBB463:
 1280              	.LBB461:
 1281              	.LBI458:
 1282              		.loc 5 491 27 view .LVU396
 1283              	.LBB460:
 1284              		.loc 5 493 3 view .LVU397
 1285              		.syntax unified
 1286              	@ 493 "../../../external/ChibiOS/os/common/ext/ARM/CMSIS/Core/Include/cmsis_gcc.h" 1
 1287 01fe 82F31188 		MSR basepri, r2
 1288              	@ 0 "" 2
 1289              	.LVL51:
 1290              		.loc 5 493 3 is_stmt 0 view .LVU398
 1291              		.thumb
 1292              		.syntax unified
 1293              	.LBE460:
 1294              	.LBE461:
 1295              	.LBE463:
 1296              	.LBE465:
 1297              	.LBE467:
 1298              		.loc 1 441 5 is_stmt 1 view .LVU399
 1299 0202 90F82130 		ldrb	r3, [r0, #33]	@ zero_extendqisi2
 1300 0206 03F00303 		and	r3, r3, #3
 1301 020a 012B     		cmp	r3, #1
 1302 020c 06D0     		beq	.L25
 1303 020e 022B     		cmp	r3, #2
 1304 0210 00D0     		beq	.L26
 1305 0212 7047     		bx	lr
 1306              	.L26:
ARM GAS  /tmp/cc23GjE5.s 			page 24


 1307              		.loc 1 449 7 view .LVU400
 1308              	.LVL52:
 1309              		.loc 1 449 7 is_stmt 0 view .LVU401
 1310              	.LBE468:
 1311              	.LBE471:
 1312              		.file 6 "../../../external/ChibiOS/os/rt/include/chthreads.h"
 1313              		.loc 6 319 3 is_stmt 1 view .LVU402
 1314              	.LBB472:
 1315              	.LBB469:
 1316              		.loc 1 449 7 is_stmt 0 view .LVU403
 1317 0214 C169     		ldr	r1, [r0, #28]
 1318 0216 006C     		ldr	r0, [r0, #64]
 1319              	.LVL53:
 1320              		.loc 1 449 7 view .LVU404
 1321 0218 FFF7FEBF 		b	chPoolFree
 1322              	.LVL54:
 1323              	.L25:
 1324              		.loc 1 444 7 is_stmt 1 view .LVU405
 1325              		.loc 1 444 7 is_stmt 0 view .LVU406
 1326              	.LBE469:
 1327              	.LBE472:
 1328              		.loc 6 319 3 is_stmt 1 view .LVU407
 1329              	.LBB473:
 1330              	.LBB470:
 1331              		.loc 1 444 7 is_stmt 0 view .LVU408
 1332 021c C069     		ldr	r0, [r0, #28]
 1333              	.LVL55:
 1334              		.loc 1 444 7 view .LVU409
 1335 021e FFF7FEBF 		b	chHeapFree
 1336              	.LVL56:
 1337              	.LBE470:
 1338              	.LBE473:
 1339              		.cfi_endproc
 1340              	.LFE331:
 1341              		.size	chThdRelease, .-chThdRelease
 1342              		.align	1
 1343 0222 00BFAFF3 		.p2align 4,,15
 1343      0080AFF3 
 1343      0080AFF3 
 1343      0080
 1344              		.global	chThdExitS
 1345              		.syntax unified
 1346              		.thumb
 1347              		.thumb_func
 1348              		.fpu fpv4-sp-d16
 1349              		.type	chThdExitS, %function
 1350              	chThdExitS:
 1351              	.LVL57:
 1352              	.LFB333:
 1353              		.loc 1 501 28 is_stmt 1 view -0
 1354              		.cfi_startproc
 1355              		@ args = 0, pretend = 0, frame = 0
 1356              		@ frame_needed = 0, uses_anonymous_args = 0
 1357              		.loc 1 502 3 view .LVU411
 1358              		.loc 1 501 28 is_stmt 0 view .LVU412
 1359 0230 38B5     		push	{r3, r4, r5, lr}
 1360              		.cfi_def_cfa_offset 16
ARM GAS  /tmp/cc23GjE5.s 			page 25


 1361              		.cfi_offset 3, -16
 1362              		.cfi_offset 4, -12
 1363              		.cfi_offset 5, -8
 1364              		.cfi_offset 14, -4
 1365              		.loc 1 502 13 view .LVU413
 1366 0232 104B     		ldr	r3, .L35
 1367 0234 9C69     		ldr	r4, [r3, #24]
 1368              	.LVL58:
 1369              		.loc 1 505 3 is_stmt 1 view .LVU414
 1370              		.loc 1 512 10 is_stmt 0 view .LVU415
 1371 0236 04F12805 		add	r5, r4, #40
 1372              	.LBB474:
 1373              	.LBB475:
 1374              		.loc 2 527 20 view .LVU416
 1375 023a A36A     		ldr	r3, [r4, #40]
 1376              	.LBE475:
 1377              	.LBE474:
 1378              		.loc 1 505 18 view .LVU417
 1379 023c 6062     		str	r0, [r4, #36]
 1380              		.loc 1 508 3 is_stmt 1 view .LVU418
 1381              		.loc 1 508 30 view .LVU419
 1382              		.loc 1 512 3 view .LVU420
 1383              	.LVL59:
 1384              	.LBB478:
 1385              	.LBI474:
 1386              		.loc 2 525 20 view .LVU421
 1387              	.LBB476:
 1388              		.loc 2 527 3 view .LVU422
 1389              		.loc 2 527 3 is_stmt 0 view .LVU423
 1390              	.LBE476:
 1391              	.LBE478:
 1392              		.loc 1 512 9 view .LVU424
 1393 023e AB42     		cmp	r3, r5
 1394 0240 07D0     		beq	.L30
 1395              	.LVL60:
 1396              	.L31:
 1397              		.loc 1 513 5 is_stmt 1 view .LVU425
 1398              	.LBB479:
 1399              	.LBI479:
 1400              		.loc 2 578 25 view .LVU426
 1401              	.LBB480:
 1402              		.loc 2 580 3 view .LVU427
 1403              		.loc 2 581 3 view .LVU428
 1404              		.loc 2 581 24 is_stmt 0 view .LVU429
 1405 0242 1A68     		ldr	r2, [r3]
 1406              	.LBE480:
 1407              	.LBE479:
 1408              		.loc 1 513 12 view .LVU430
 1409 0244 1846     		mov	r0, r3
 1410              	.LBB482:
 1411              	.LBB481:
 1412              		.loc 2 581 13 view .LVU431
 1413 0246 A262     		str	r2, [r4, #40]
 1414              		.loc 2 583 3 is_stmt 1 view .LVU432
 1415              	.LVL61:
 1416              		.loc 2 583 3 is_stmt 0 view .LVU433
 1417              	.LBE481:
ARM GAS  /tmp/cc23GjE5.s 			page 26


 1418              	.LBE482:
 1419              		.loc 1 513 12 view .LVU434
 1420 0248 FFF7FEFF 		bl	chSchReadyI
 1421              	.LVL62:
 1422              	.LBB483:
 1423              		.loc 2 525 20 is_stmt 1 view .LVU435
 1424              	.LBB477:
 1425              		.loc 2 527 3 view .LVU436
 1426              		.loc 2 527 20 is_stmt 0 view .LVU437
 1427 024c A36A     		ldr	r3, [r4, #40]
 1428              	.LVL63:
 1429              		.loc 2 527 20 view .LVU438
 1430              	.LBE477:
 1431              	.LBE483:
 1432              		.loc 1 512 9 view .LVU439
 1433 024e AB42     		cmp	r3, r5
 1434 0250 F7D1     		bne	.L31
 1435              	.LVL64:
 1436              	.L30:
 1437              		.loc 1 521 3 is_stmt 1 view .LVU440
 1438              		.loc 1 521 6 is_stmt 0 view .LVU441
 1439 0252 94F82230 		ldrb	r3, [r4, #34]	@ zero_extendqisi2
 1440 0256 3BB9     		cbnz	r3, .L32
 1441              		.loc 1 521 32 discriminator 1 view .LVU442
 1442 0258 94F82130 		ldrb	r3, [r4, #33]	@ zero_extendqisi2
 1443 025c 9B07     		lsls	r3, r3, #30
 1444 025e 03D1     		bne	.L32
 1445              		.loc 1 523 5 is_stmt 1 view .LVU443
 1446 0260 D4E90432 		ldrd	r3, r2, [r4, #16]
 1447 0264 1361     		str	r3, [r2, #16]
 1448              		.loc 1 523 5 view .LVU444
 1449 0266 5A61     		str	r2, [r3, #20]
 1450              	.L32:
 1451              		.loc 1 523 19 discriminator 1 view .LVU445
 1452              		.loc 1 533 3 discriminator 1 view .LVU446
 1453 0268 0F20     		movs	r0, #15
 1454              		.loc 1 537 1 is_stmt 0 discriminator 1 view .LVU447
 1455 026a BDE83840 		pop	{r3, r4, r5, lr}
 1456              		.cfi_restore 14
 1457              		.cfi_restore 5
 1458              		.cfi_restore 4
 1459              		.cfi_restore 3
 1460              		.cfi_def_cfa_offset 0
 1461              	.LVL65:
 1462              		.loc 1 533 3 discriminator 1 view .LVU448
 1463 026e FFF7FEBF 		b	chSchGoSleepS
 1464              	.LVL66:
 1465              	.L36:
 1466 0272 00BF     		.align	2
 1467              	.L35:
 1468 0274 00000000 		.word	ch
 1469              		.cfi_endproc
 1470              	.LFE333:
 1471              		.size	chThdExitS, .-chThdExitS
 1472              		.align	1
 1473 0278 AFF30080 		.p2align 4,,15
 1473      AFF30080 
ARM GAS  /tmp/cc23GjE5.s 			page 27


 1474              		.global	chThdExit
 1475              		.syntax unified
 1476              		.thumb
 1477              		.thumb_func
 1478              		.fpu fpv4-sp-d16
 1479              		.type	chThdExit, %function
 1480              	chThdExit:
 1481              	.LVL67:
 1482              	.LFB332:
 1483              		.loc 1 477 27 is_stmt 1 view -0
 1484              		.cfi_startproc
 1485              		@ args = 0, pretend = 0, frame = 0
 1486              		@ frame_needed = 0, uses_anonymous_args = 0
 1487              		@ link register save eliminated.
 1488              		.loc 1 479 3 view .LVU450
 1489              	.LBB484:
 1490              	.LBI484:
 1491              		.loc 3 353 20 view .LVU451
 1492              	.LBE484:
 1493              		.loc 3 355 3 view .LVU452
 1494              	.LBB489:
 1495              	.LBB485:
 1496              	.LBI485:
 1497              		.loc 4 669 27 view .LVU453
 1498              	.LBE485:
 1499              	.LBE489:
 1500              		.loc 4 677 3 view .LVU454
 1501              	.LBB490:
 1502              	.LBB488:
 1503              	.LBB486:
 1504              	.LBI486:
 1505              		.loc 5 491 27 view .LVU455
 1506              	.LBB487:
 1507              		.loc 5 493 3 view .LVU456
 1508 0280 2023     		movs	r3, #32
 1509              		.syntax unified
 1510              	@ 493 "../../../external/ChibiOS/os/common/ext/ARM/CMSIS/Core/Include/cmsis_gcc.h" 1
 1511 0282 83F31188 		MSR basepri, r3
 1512              	@ 0 "" 2
 1513              	.LVL68:
 1514              		.loc 5 493 3 is_stmt 0 view .LVU457
 1515              		.thumb
 1516              		.syntax unified
 1517              	.LBE487:
 1518              	.LBE486:
 1519              	.LBE488:
 1520              	.LBE490:
 1521              		.loc 3 356 34 is_stmt 1 view .LVU458
 1522              		.loc 3 357 20 view .LVU459
 1523              		.loc 1 480 3 view .LVU460
 1524 0286 FFF7FEBF 		b	chThdExitS
 1525              	.LVL69:
 1526              		.loc 1 480 3 is_stmt 0 view .LVU461
 1527              		.cfi_endproc
 1528              	.LFE332:
 1529              		.size	chThdExit, .-chThdExit
 1530              		.align	1
ARM GAS  /tmp/cc23GjE5.s 			page 28


 1531 028a 00BFAFF3 		.p2align 4,,15
 1531      0080
 1532              		.global	chThdWait
 1533              		.syntax unified
 1534              		.thumb
 1535              		.thumb_func
 1536              		.fpu fpv4-sp-d16
 1537              		.type	chThdWait, %function
 1538              	chThdWait:
 1539              	.LVL70:
 1540              	.LFB334:
 1541              		.loc 1 559 31 is_stmt 1 view -0
 1542              		.cfi_startproc
 1543              		@ args = 0, pretend = 0, frame = 0
 1544              		@ frame_needed = 0, uses_anonymous_args = 0
 1545              		.loc 1 560 3 view .LVU463
 1546              		.loc 1 562 3 view .LVU464
 1547              		.loc 1 562 3 view .LVU465
 1548              		.loc 1 564 3 view .LVU466
 1549              	.LBB491:
 1550              	.LBI491:
 1551              		.loc 3 353 20 view .LVU467
 1552              	.LBE491:
 1553              		.loc 3 355 3 view .LVU468
 1554              	.LBB499:
 1555              	.LBB492:
 1556              	.LBI492:
 1557              		.loc 4 669 27 view .LVU469
 1558              	.LBE492:
 1559              	.LBE499:
 1560              		.loc 4 677 3 view .LVU470
 1561              	.LBB500:
 1562              	.LBB497:
 1563              	.LBB493:
 1564              	.LBI493:
 1565              		.loc 5 491 27 view .LVU471
 1566              	.LBB494:
 1567              		.loc 5 493 3 view .LVU472
 1568              	.LBE494:
 1569              	.LBE493:
 1570              	.LBE497:
 1571              	.LBE500:
 1572              		.loc 1 559 31 is_stmt 0 view .LVU473
 1573 0290 38B5     		push	{r3, r4, r5, lr}
 1574              		.cfi_def_cfa_offset 16
 1575              		.cfi_offset 3, -16
 1576              		.cfi_offset 4, -12
 1577              		.cfi_offset 5, -8
 1578              		.cfi_offset 14, -4
 1579              		.loc 1 559 31 view .LVU474
 1580 0292 0446     		mov	r4, r0
 1581              	.LBB501:
 1582              	.LBB498:
 1583              	.LBB496:
 1584              	.LBB495:
 1585              		.loc 5 493 3 view .LVU475
 1586 0294 2023     		movs	r3, #32
ARM GAS  /tmp/cc23GjE5.s 			page 29


 1587              		.syntax unified
 1588              	@ 493 "../../../external/ChibiOS/os/common/ext/ARM/CMSIS/Core/Include/cmsis_gcc.h" 1
 1589 0296 83F31188 		MSR basepri, r3
 1590              	@ 0 "" 2
 1591              	.LVL71:
 1592              		.loc 5 493 3 view .LVU476
 1593              		.thumb
 1594              		.syntax unified
 1595              	.LBE495:
 1596              	.LBE496:
 1597              	.LBE498:
 1598              	.LBE501:
 1599              		.loc 3 356 34 is_stmt 1 view .LVU477
 1600              		.loc 3 357 20 view .LVU478
 1601              		.loc 1 565 3 view .LVU479
 1602              		.loc 1 565 3 view .LVU480
 1603              		.loc 1 567 3 view .LVU481
 1604              		.loc 1 567 3 view .LVU482
 1605              		.loc 1 570 3 view .LVU483
 1606              		.loc 1 570 6 is_stmt 0 view .LVU484
 1607 029a 90F82030 		ldrb	r3, [r0, #32]	@ zero_extendqisi2
 1608 029e 0F2B     		cmp	r3, #15
 1609 02a0 07D0     		beq	.L39
 1610              		.loc 1 571 5 is_stmt 1 view .LVU485
 1611 02a2 084B     		ldr	r3, .L44
 1612              		.loc 1 572 5 is_stmt 0 view .LVU486
 1613 02a4 0920     		movs	r0, #9
 1614              	.LVL72:
 1615              	.LBB502:
 1616              	.LBB503:
 1617              		.loc 2 574 23 view .LVU487
 1618 02a6 A26A     		ldr	r2, [r4, #40]
 1619              	.LBE503:
 1620              	.LBE502:
 1621              		.loc 1 571 5 view .LVU488
 1622 02a8 9B69     		ldr	r3, [r3, #24]
 1623              	.LVL73:
 1624              	.LBB505:
 1625              	.LBI502:
 1626              		.loc 2 572 20 is_stmt 1 view .LVU489
 1627              	.LBB504:
 1628              		.loc 2 574 3 view .LVU490
 1629              		.loc 2 574 18 is_stmt 0 view .LVU491
 1630 02aa 1A60     		str	r2, [r3]
 1631              		.loc 2 575 3 is_stmt 1 view .LVU492
 1632              		.loc 2 575 13 is_stmt 0 view .LVU493
 1633 02ac A362     		str	r3, [r4, #40]
 1634              	.LVL74:
 1635              		.loc 2 575 13 view .LVU494
 1636              	.LBE504:
 1637              	.LBE505:
 1638              		.loc 1 572 5 is_stmt 1 view .LVU495
 1639 02ae FFF7FEFF 		bl	chSchGoSleepS
 1640              	.LVL75:
 1641              	.L39:
 1642              		.loc 1 574 3 view .LVU496
 1643              		.loc 1 574 7 is_stmt 0 view .LVU497
ARM GAS  /tmp/cc23GjE5.s 			page 30


 1644 02b2 656A     		ldr	r5, [r4, #36]
 1645              	.LVL76:
 1646              		.loc 1 575 3 is_stmt 1 view .LVU498
 1647              	.LBB506:
 1648              	.LBI506:
 1649              		.loc 3 365 20 view .LVU499
 1650              	.LBB507:
 1651              		.loc 3 367 22 view .LVU500
 1652              		.loc 3 368 33 view .LVU501
 1653              		.loc 3 374 3 view .LVU502
 1654              		.loc 3 374 3 view .LVU503
 1655              		.loc 3 378 3 view .LVU504
 1656              	.LBB508:
 1657              	.LBI508:
 1658              		.loc 4 693 27 view .LVU505
 1659              	.LBE508:
 1660              	.LBE507:
 1661              	.LBE506:
 1662              		.loc 4 696 3 view .LVU506
 1663              	.LBB513:
 1664              	.LBB512:
 1665              	.LBB511:
 1666              	.LBB509:
 1667              	.LBI509:
 1668              		.loc 5 491 27 view .LVU507
 1669              	.LBB510:
 1670              		.loc 5 493 3 view .LVU508
 1671 02b4 0023     		movs	r3, #0
 1672              		.syntax unified
 1673              	@ 493 "../../../external/ChibiOS/os/common/ext/ARM/CMSIS/Core/Include/cmsis_gcc.h" 1
 1674 02b6 83F31188 		MSR basepri, r3
 1675              	@ 0 "" 2
 1676              	.LVL77:
 1677              		.loc 5 493 3 is_stmt 0 view .LVU509
 1678              		.thumb
 1679              		.syntax unified
 1680              	.LBE510:
 1681              	.LBE509:
 1682              	.LBE511:
 1683              	.LBE512:
 1684              	.LBE513:
 1685              		.loc 1 579 3 is_stmt 1 view .LVU510
 1686 02ba 2046     		mov	r0, r4
 1687 02bc FFF7FEFF 		bl	chThdRelease
 1688              	.LVL78:
 1689              		.loc 1 582 3 view .LVU511
 1690              		.loc 1 583 1 is_stmt 0 view .LVU512
 1691 02c0 2846     		mov	r0, r5
 1692 02c2 38BD     		pop	{r3, r4, r5, pc}
 1693              	.LVL79:
 1694              	.L45:
 1695              		.loc 1 583 1 view .LVU513
 1696              		.align	2
 1697              	.L44:
 1698 02c4 00000000 		.word	ch
 1699              		.cfi_endproc
 1700              	.LFE334:
ARM GAS  /tmp/cc23GjE5.s 			page 31


 1701              		.size	chThdWait, .-chThdWait
 1702              		.align	1
 1703 02c8 AFF30080 		.p2align 4,,15
 1703      AFF30080 
 1704              		.global	chThdSetPriority
 1705              		.syntax unified
 1706              		.thumb
 1707              		.thumb_func
 1708              		.fpu fpv4-sp-d16
 1709              		.type	chThdSetPriority, %function
 1710              	chThdSetPriority:
 1711              	.LVL80:
 1712              	.LFB335:
 1713              		.loc 1 598 43 is_stmt 1 view -0
 1714              		.cfi_startproc
 1715              		@ args = 0, pretend = 0, frame = 0
 1716              		@ frame_needed = 0, uses_anonymous_args = 0
 1717              		.loc 1 599 3 view .LVU515
 1718              		.loc 1 601 3 view .LVU516
 1719              		.loc 1 601 3 view .LVU517
 1720              		.loc 1 603 3 view .LVU518
 1721              	.LBB514:
 1722              	.LBI514:
 1723              		.loc 3 353 20 view .LVU519
 1724              	.LBE514:
 1725              		.loc 3 355 3 view .LVU520
 1726              	.LBB522:
 1727              	.LBB515:
 1728              	.LBI515:
 1729              		.loc 4 669 27 view .LVU521
 1730              	.LBE515:
 1731              	.LBE522:
 1732              		.loc 4 677 3 view .LVU522
 1733              	.LBB523:
 1734              	.LBB520:
 1735              	.LBB516:
 1736              	.LBI516:
 1737              		.loc 5 491 27 view .LVU523
 1738              	.LBB517:
 1739              		.loc 5 493 3 view .LVU524
 1740              	.LBE517:
 1741              	.LBE516:
 1742              	.LBE520:
 1743              	.LBE523:
 1744              		.loc 1 598 43 is_stmt 0 view .LVU525
 1745 02d0 10B5     		push	{r4, lr}
 1746              		.cfi_def_cfa_offset 8
 1747              		.cfi_offset 4, -8
 1748              		.cfi_offset 14, -4
 1749              	.LBB524:
 1750              	.LBB521:
 1751              	.LBB519:
 1752              	.LBB518:
 1753              		.loc 5 493 3 view .LVU526
 1754 02d2 2023     		movs	r3, #32
 1755              		.syntax unified
 1756              	@ 493 "../../../external/ChibiOS/os/common/ext/ARM/CMSIS/Core/Include/cmsis_gcc.h" 1
ARM GAS  /tmp/cc23GjE5.s 			page 32


 1757 02d4 83F31188 		MSR basepri, r3
 1758              	@ 0 "" 2
 1759              	.LVL81:
 1760              		.loc 5 493 3 view .LVU527
 1761              		.thumb
 1762              		.syntax unified
 1763              	.LBE518:
 1764              	.LBE519:
 1765              	.LBE521:
 1766              	.LBE524:
 1767              		.loc 3 356 34 is_stmt 1 view .LVU528
 1768              		.loc 3 357 20 view .LVU529
 1769              		.loc 1 605 3 view .LVU530
 1770              		.loc 1 605 13 is_stmt 0 view .LVU531
 1771 02d8 084B     		ldr	r3, .L54
 1772 02da 9B69     		ldr	r3, [r3, #24]
 1773              		.loc 1 606 13 view .LVU532
 1774 02dc 9968     		ldr	r1, [r3, #8]
 1775              		.loc 1 605 11 view .LVU533
 1776 02de DC6B     		ldr	r4, [r3, #60]
 1777              	.LVL82:
 1778              		.loc 1 606 3 is_stmt 1 view .LVU534
 1779              		.loc 1 606 40 is_stmt 0 view .LVU535
 1780 02e0 8142     		cmp	r1, r0
 1781 02e2 01D3     		bcc	.L49
 1782 02e4 A142     		cmp	r1, r4
 1783 02e6 00D1     		bne	.L47
 1784              	.L49:
 1785              		.loc 1 607 5 is_stmt 1 view .LVU536
 1786              		.loc 1 607 17 is_stmt 0 view .LVU537
 1787 02e8 9860     		str	r0, [r3, #8]
 1788              	.L47:
 1789              		.loc 1 609 3 is_stmt 1 view .LVU538
 1790              		.loc 1 609 19 is_stmt 0 view .LVU539
 1791 02ea D863     		str	r0, [r3, #60]
 1792              		.loc 1 614 3 is_stmt 1 view .LVU540
 1793 02ec FFF7FEFF 		bl	chSchRescheduleS
 1794              	.LVL83:
 1795              		.loc 1 615 3 view .LVU541
 1796              	.LBB525:
 1797              	.LBI525:
 1798              		.loc 3 365 20 view .LVU542
 1799              	.LBB526:
 1800              		.loc 3 367 22 view .LVU543
 1801              		.loc 3 368 33 view .LVU544
 1802              		.loc 3 374 3 view .LVU545
 1803              		.loc 3 374 3 view .LVU546
 1804              		.loc 3 378 3 view .LVU547
 1805              	.LBB527:
 1806              	.LBI527:
 1807              		.loc 4 693 27 view .LVU548
 1808              	.LBE527:
 1809              	.LBE526:
 1810              	.LBE525:
 1811              		.loc 4 696 3 view .LVU549
 1812              	.LBB532:
 1813              	.LBB531:
ARM GAS  /tmp/cc23GjE5.s 			page 33


 1814              	.LBB530:
 1815              	.LBB528:
 1816              	.LBI528:
 1817              		.loc 5 491 27 view .LVU550
 1818              	.LBB529:
 1819              		.loc 5 493 3 view .LVU551
 1820 02f0 0023     		movs	r3, #0
 1821              		.syntax unified
 1822              	@ 493 "../../../external/ChibiOS/os/common/ext/ARM/CMSIS/Core/Include/cmsis_gcc.h" 1
 1823 02f2 83F31188 		MSR basepri, r3
 1824              	@ 0 "" 2
 1825              	.LVL84:
 1826              		.loc 5 493 3 is_stmt 0 view .LVU552
 1827              		.thumb
 1828              		.syntax unified
 1829              	.LBE529:
 1830              	.LBE528:
 1831              	.LBE530:
 1832              	.LBE531:
 1833              	.LBE532:
 1834              		.loc 1 617 3 is_stmt 1 view .LVU553
 1835              		.loc 1 618 1 is_stmt 0 view .LVU554
 1836 02f6 2046     		mov	r0, r4
 1837 02f8 10BD     		pop	{r4, pc}
 1838              	.LVL85:
 1839              	.L55:
 1840              		.loc 1 618 1 view .LVU555
 1841 02fa 00BF     		.align	2
 1842              	.L54:
 1843 02fc 00000000 		.word	ch
 1844              		.cfi_endproc
 1845              	.LFE335:
 1846              		.size	chThdSetPriority, .-chThdSetPriority
 1847              		.align	1
 1848              		.p2align 4,,15
 1849              		.global	chThdTerminate
 1850              		.syntax unified
 1851              		.thumb
 1852              		.thumb_func
 1853              		.fpu fpv4-sp-d16
 1854              		.type	chThdTerminate, %function
 1855              	chThdTerminate:
 1856              	.LVL86:
 1857              	.LFB336:
 1858              		.loc 1 632 35 is_stmt 1 view -0
 1859              		.cfi_startproc
 1860              		@ args = 0, pretend = 0, frame = 0
 1861              		@ frame_needed = 0, uses_anonymous_args = 0
 1862              		@ link register save eliminated.
 1863              		.loc 1 634 3 view .LVU557
 1864              	.LBB533:
 1865              	.LBI533:
 1866              		.loc 3 353 20 view .LVU558
 1867              	.LBE533:
 1868              		.loc 3 355 3 view .LVU559
 1869              	.LBB538:
 1870              	.LBB534:
ARM GAS  /tmp/cc23GjE5.s 			page 34


 1871              	.LBI534:
 1872              		.loc 4 669 27 view .LVU560
 1873              	.LBE534:
 1874              	.LBE538:
 1875              		.loc 4 677 3 view .LVU561
 1876              	.LBB539:
 1877              	.LBB537:
 1878              	.LBB535:
 1879              	.LBI535:
 1880              		.loc 5 491 27 view .LVU562
 1881              	.LBB536:
 1882              		.loc 5 493 3 view .LVU563
 1883 0300 2023     		movs	r3, #32
 1884              		.syntax unified
 1885              	@ 493 "../../../external/ChibiOS/os/common/ext/ARM/CMSIS/Core/Include/cmsis_gcc.h" 1
 1886 0302 83F31188 		MSR basepri, r3
 1887              	@ 0 "" 2
 1888              	.LVL87:
 1889              		.loc 5 493 3 is_stmt 0 view .LVU564
 1890              		.thumb
 1891              		.syntax unified
 1892              	.LBE536:
 1893              	.LBE535:
 1894              	.LBE537:
 1895              	.LBE539:
 1896              		.loc 3 356 34 is_stmt 1 view .LVU565
 1897              		.loc 3 357 20 view .LVU566
 1898              		.loc 1 635 3 view .LVU567
 1899              		.loc 1 635 13 is_stmt 0 view .LVU568
 1900 0306 90F82130 		ldrb	r3, [r0, #33]	@ zero_extendqisi2
 1901              	.LBB540:
 1902              	.LBB541:
 1903              	.LBB542:
 1904              	.LBB543:
 1905              	.LBB544:
 1906              		.loc 5 493 3 view .LVU569
 1907 030a 0022     		movs	r2, #0
 1908              	.LBE544:
 1909              	.LBE543:
 1910              	.LBE542:
 1911              	.LBE541:
 1912              	.LBE540:
 1913              		.loc 1 635 13 view .LVU570
 1914 030c 43F00403 		orr	r3, r3, #4
 1915 0310 80F82130 		strb	r3, [r0, #33]
 1916              		.loc 1 636 3 is_stmt 1 view .LVU571
 1917              	.LBB551:
 1918              	.LBI540:
 1919              		.loc 3 365 20 view .LVU572
 1920              	.LBB549:
 1921              		.loc 3 367 22 view .LVU573
 1922              		.loc 3 368 33 view .LVU574
 1923              		.loc 3 374 3 view .LVU575
 1924              		.loc 3 374 3 view .LVU576
 1925              		.loc 3 378 3 view .LVU577
 1926              	.LBB547:
 1927              	.LBI542:
ARM GAS  /tmp/cc23GjE5.s 			page 35


 1928              		.loc 4 693 27 view .LVU578
 1929              	.LBE547:
 1930              	.LBE549:
 1931              	.LBE551:
 1932              		.loc 4 696 3 view .LVU579
 1933              	.LVL88:
 1934              	.LBB552:
 1935              	.LBB550:
 1936              	.LBB548:
 1937              	.LBB546:
 1938              	.LBI543:
 1939              		.loc 5 491 27 view .LVU580
 1940              	.LBB545:
 1941              		.loc 5 493 3 view .LVU581
 1942              		.syntax unified
 1943              	@ 493 "../../../external/ChibiOS/os/common/ext/ARM/CMSIS/Core/Include/cmsis_gcc.h" 1
 1944 0314 82F31188 		MSR basepri, r2
 1945              	@ 0 "" 2
 1946              	.LVL89:
 1947              		.loc 5 493 3 is_stmt 0 view .LVU582
 1948              		.thumb
 1949              		.syntax unified
 1950              	.LBE545:
 1951              	.LBE546:
 1952              	.LBE548:
 1953              	.LBE550:
 1954              	.LBE552:
 1955              		.loc 1 637 1 view .LVU583
 1956 0318 7047     		bx	lr
 1957              		.cfi_endproc
 1958              	.LFE336:
 1959              		.size	chThdTerminate, .-chThdTerminate
 1960              		.align	1
 1961 031a 00BFAFF3 		.p2align 4,,15
 1961      0080
 1962              		.global	chThdSleep
 1963              		.syntax unified
 1964              		.thumb
 1965              		.thumb_func
 1966              		.fpu fpv4-sp-d16
 1967              		.type	chThdSleep, %function
 1968              	chThdSleep:
 1969              	.LVL90:
 1970              	.LFB337:
 1971              		.loc 1 651 37 is_stmt 1 view -0
 1972              		.cfi_startproc
 1973              		@ args = 0, pretend = 0, frame = 0
 1974              		@ frame_needed = 0, uses_anonymous_args = 0
 1975              		.loc 1 653 3 view .LVU585
 1976              	.LBB553:
 1977              	.LBI553:
 1978              		.loc 3 353 20 view .LVU586
 1979              	.LBE553:
 1980              		.loc 3 355 3 view .LVU587
 1981              	.LBB561:
 1982              	.LBB554:
 1983              	.LBI554:
ARM GAS  /tmp/cc23GjE5.s 			page 36


 1984              		.loc 4 669 27 view .LVU588
 1985              	.LBE554:
 1986              	.LBE561:
 1987              		.loc 4 677 3 view .LVU589
 1988              	.LBB562:
 1989              	.LBB559:
 1990              	.LBB555:
 1991              	.LBI555:
 1992              		.loc 5 491 27 view .LVU590
 1993              	.LBB556:
 1994              		.loc 5 493 3 view .LVU591
 1995              	.LBE556:
 1996              	.LBE555:
 1997              	.LBE559:
 1998              	.LBE562:
 1999              		.loc 1 651 37 is_stmt 0 view .LVU592
 2000 0320 08B5     		push	{r3, lr}
 2001              		.cfi_def_cfa_offset 8
 2002              		.cfi_offset 3, -8
 2003              		.cfi_offset 14, -4
 2004              		.loc 1 651 37 view .LVU593
 2005 0322 0146     		mov	r1, r0
 2006              	.LBB563:
 2007              	.LBB560:
 2008              	.LBB558:
 2009              	.LBB557:
 2010              		.loc 5 493 3 view .LVU594
 2011 0324 2023     		movs	r3, #32
 2012              		.syntax unified
 2013              	@ 493 "../../../external/ChibiOS/os/common/ext/ARM/CMSIS/Core/Include/cmsis_gcc.h" 1
 2014 0326 83F31188 		MSR basepri, r3
 2015              	@ 0 "" 2
 2016              	.LVL91:
 2017              		.loc 5 493 3 view .LVU595
 2018              		.thumb
 2019              		.syntax unified
 2020              	.LBE557:
 2021              	.LBE558:
 2022              	.LBE560:
 2023              	.LBE563:
 2024              		.loc 3 356 34 is_stmt 1 view .LVU596
 2025              		.loc 3 357 20 view .LVU597
 2026              		.loc 1 654 3 view .LVU598
 2027              	.LBB564:
 2028              	.LBI564:
 2029              		.loc 6 378 20 view .LVU599
 2030              	.LBB565:
 2031              		.loc 6 380 3 view .LVU600
 2032              		.loc 6 380 3 view .LVU601
 2033              		.loc 6 382 3 view .LVU602
 2034              		.loc 6 382 10 is_stmt 0 view .LVU603
 2035 032a 0820     		movs	r0, #8
 2036              	.LVL92:
 2037              		.loc 6 382 10 view .LVU604
 2038 032c FFF7FEFF 		bl	chSchGoSleepTimeoutS
 2039              	.LVL93:
 2040              		.loc 6 382 10 view .LVU605
ARM GAS  /tmp/cc23GjE5.s 			page 37


 2041              	.LBE565:
 2042              	.LBE564:
 2043              		.loc 1 655 3 is_stmt 1 view .LVU606
 2044              	.LBB566:
 2045              	.LBI566:
 2046              		.loc 3 365 20 view .LVU607
 2047              	.LBB567:
 2048              		.loc 3 367 22 view .LVU608
 2049              		.loc 3 368 33 view .LVU609
 2050              		.loc 3 374 3 view .LVU610
 2051              		.loc 3 374 3 view .LVU611
 2052              		.loc 3 378 3 view .LVU612
 2053              	.LBB568:
 2054              	.LBI568:
 2055              		.loc 4 693 27 view .LVU613
 2056              	.LBE568:
 2057              	.LBE567:
 2058              	.LBE566:
 2059              		.loc 4 696 3 view .LVU614
 2060              	.LBB573:
 2061              	.LBB572:
 2062              	.LBB571:
 2063              	.LBB569:
 2064              	.LBI569:
 2065              		.loc 5 491 27 view .LVU615
 2066              	.LBB570:
 2067              		.loc 5 493 3 view .LVU616
 2068 0330 0023     		movs	r3, #0
 2069              		.syntax unified
 2070              	@ 493 "../../../external/ChibiOS/os/common/ext/ARM/CMSIS/Core/Include/cmsis_gcc.h" 1
 2071 0332 83F31188 		MSR basepri, r3
 2072              	@ 0 "" 2
 2073              	.LVL94:
 2074              		.loc 5 493 3 is_stmt 0 view .LVU617
 2075              		.thumb
 2076              		.syntax unified
 2077              	.LBE570:
 2078              	.LBE569:
 2079              	.LBE571:
 2080              	.LBE572:
 2081              	.LBE573:
 2082              		.loc 1 656 1 view .LVU618
 2083 0336 08BD     		pop	{r3, pc}
 2084              		.cfi_endproc
 2085              	.LFE337:
 2086              		.size	chThdSleep, .-chThdSleep
 2087              		.align	1
 2088 0338 AFF30080 		.p2align 4,,15
 2088      AFF30080 
 2089              		.global	chThdSleepUntil
 2090              		.syntax unified
 2091              		.thumb
 2092              		.thumb_func
 2093              		.fpu fpv4-sp-d16
 2094              		.type	chThdSleepUntil, %function
 2095              	chThdSleepUntil:
 2096              	.LVL95:
ARM GAS  /tmp/cc23GjE5.s 			page 38


 2097              	.LFB338:
 2098              		.loc 1 671 38 is_stmt 1 view -0
 2099              		.cfi_startproc
 2100              		@ args = 0, pretend = 0, frame = 0
 2101              		@ frame_needed = 0, uses_anonymous_args = 0
 2102              		.loc 1 672 3 view .LVU620
 2103              		.loc 1 674 3 view .LVU621
 2104              	.LBB574:
 2105              	.LBI574:
 2106              		.loc 3 353 20 view .LVU622
 2107              	.LBE574:
 2108              		.loc 3 355 3 view .LVU623
 2109              	.LBB585:
 2110              	.LBB575:
 2111              	.LBI575:
 2112              		.loc 4 669 27 view .LVU624
 2113              	.LBE575:
 2114              	.LBE585:
 2115              		.loc 4 677 3 view .LVU625
 2116              	.LBB586:
 2117              	.LBB582:
 2118              	.LBB576:
 2119              	.LBI576:
 2120              		.loc 5 491 27 view .LVU626
 2121              	.LBB577:
 2122              		.loc 5 493 3 view .LVU627
 2123              	.LBE577:
 2124              	.LBE576:
 2125              	.LBE582:
 2126              	.LBE586:
 2127              		.loc 1 671 38 is_stmt 0 view .LVU628
 2128 0340 10B5     		push	{r4, lr}
 2129              		.cfi_def_cfa_offset 8
 2130              		.cfi_offset 4, -8
 2131              		.cfi_offset 14, -4
 2132              	.LBB587:
 2133              	.LBB583:
 2134              	.LBB580:
 2135              	.LBB578:
 2136              		.loc 5 493 3 view .LVU629
 2137 0342 2023     		movs	r3, #32
 2138              	.LBE578:
 2139              	.LBE580:
 2140              	.LBE583:
 2141              	.LBE587:
 2142              		.loc 1 671 38 view .LVU630
 2143 0344 0446     		mov	r4, r0
 2144              	.LBB588:
 2145              	.LBB584:
 2146              	.LBB581:
 2147              	.LBB579:
 2148              		.loc 5 493 3 view .LVU631
 2149              		.syntax unified
 2150              	@ 493 "../../../external/ChibiOS/os/common/ext/ARM/CMSIS/Core/Include/cmsis_gcc.h" 1
 2151 0346 83F31188 		MSR basepri, r3
 2152              	@ 0 "" 2
 2153              	.LVL96:
ARM GAS  /tmp/cc23GjE5.s 			page 39


 2154              		.loc 5 493 3 view .LVU632
 2155              		.thumb
 2156              		.syntax unified
 2157              	.LBE579:
 2158              	.LBE581:
 2159              	.LBE584:
 2160              	.LBE588:
 2161              		.loc 3 356 34 is_stmt 1 view .LVU633
 2162              		.loc 3 357 20 view .LVU634
 2163              		.loc 1 675 3 view .LVU635
 2164              	.LBB589:
 2165              	.LBI589:
 2166              		.file 7 "../../../external/ChibiOS/os/rt/include/chvt.h"
 2167              		.loc 7 116 25 view .LVU636
 2168              	.LBE589:
 2169              		.loc 7 121 3 view .LVU637
 2170              	.LBB592:
 2171              	.LBB590:
 2172              	.LBI590:
 2173              		.file 8 "../../../external/ChibiOS/os/common/ports/ARMCMx/chcore_timer.h"
 2174              		.loc 8 114 25 view .LVU638
 2175              	.LBB591:
 2176              		.loc 8 116 3 view .LVU639
 2177              		.loc 8 116 10 is_stmt 0 view .LVU640
 2178 034a FFF7FEFF 		bl	stGetCounter
 2179              	.LVL97:
 2180              		.loc 8 116 10 view .LVU641
 2181              	.LBE591:
 2182              	.LBE590:
 2183              	.LBE592:
 2184              	.LBB593:
 2185              	.LBI593:
 2186              		.file 9 "../../../external/ChibiOS/os/rt/include/chtime.h"
 2187              		.loc 9 459 29 is_stmt 1 view .LVU642
 2188              	.LBB594:
 2189              		.loc 9 463 3 view .LVU643
 2190              		.loc 9 463 3 is_stmt 0 view .LVU644
 2191              	.LBE594:
 2192              	.LBE593:
 2193              		.loc 1 676 3 is_stmt 1 view .LVU645
 2194              		.loc 1 676 6 is_stmt 0 view .LVU646
 2195 034e 211A     		subs	r1, r4, r0
 2196              	.LVL98:
 2197              		.loc 1 676 6 view .LVU647
 2198 0350 03D1     		bne	.L65
 2199              		.loc 1 679 3 is_stmt 1 view .LVU648
 2200              	.LBB595:
 2201              	.LBI595:
 2202              		.loc 3 365 20 view .LVU649
 2203              	.LBB596:
 2204              		.loc 3 367 22 view .LVU650
 2205              		.loc 3 368 33 view .LVU651
 2206              		.loc 3 374 3 view .LVU652
 2207              		.loc 3 374 3 view .LVU653
 2208              		.loc 3 378 3 view .LVU654
 2209              	.LBB597:
 2210              	.LBI597:
ARM GAS  /tmp/cc23GjE5.s 			page 40


 2211              		.loc 4 693 27 view .LVU655
 2212              	.LBE597:
 2213              	.LBE596:
 2214              	.LBE595:
 2215              		.loc 4 696 3 view .LVU656
 2216              	.LVL99:
 2217              	.LBB608:
 2218              	.LBB605:
 2219              	.LBB602:
 2220              	.LBB598:
 2221              	.LBI598:
 2222              		.loc 5 491 27 view .LVU657
 2223              	.LBB599:
 2224              		.loc 5 493 3 view .LVU658
 2225 0352 0023     		movs	r3, #0
 2226              		.syntax unified
 2227              	@ 493 "../../../external/ChibiOS/os/common/ext/ARM/CMSIS/Core/Include/cmsis_gcc.h" 1
 2228 0354 83F31188 		MSR basepri, r3
 2229              	@ 0 "" 2
 2230              	.LVL100:
 2231              		.loc 5 493 3 is_stmt 0 view .LVU659
 2232              		.thumb
 2233              		.syntax unified
 2234              	.LBE599:
 2235              	.LBE598:
 2236              	.LBE602:
 2237              	.LBE605:
 2238              	.LBE608:
 2239              		.loc 1 680 1 view .LVU660
 2240 0358 10BD     		pop	{r4, pc}
 2241              	.LVL101:
 2242              	.L65:
 2243              		.loc 1 677 5 is_stmt 1 view .LVU661
 2244              	.LBB609:
 2245              	.LBI609:
 2246              		.loc 6 378 20 view .LVU662
 2247              	.LBB610:
 2248              		.loc 6 380 3 view .LVU663
 2249              		.loc 6 380 3 view .LVU664
 2250              		.loc 6 382 3 view .LVU665
 2251              		.loc 6 382 10 is_stmt 0 view .LVU666
 2252 035a 0820     		movs	r0, #8
 2253 035c FFF7FEFF 		bl	chSchGoSleepTimeoutS
 2254              	.LVL102:
 2255              		.loc 6 382 10 view .LVU667
 2256              	.LBE610:
 2257              	.LBE609:
 2258              		.loc 1 679 3 is_stmt 1 view .LVU668
 2259              	.LBB611:
 2260              		.loc 3 365 20 view .LVU669
 2261              	.LBB606:
 2262              		.loc 3 367 22 view .LVU670
 2263              		.loc 3 368 33 view .LVU671
 2264              		.loc 3 374 3 view .LVU672
 2265              		.loc 3 374 3 view .LVU673
 2266              		.loc 3 378 3 view .LVU674
 2267              	.LBB603:
ARM GAS  /tmp/cc23GjE5.s 			page 41


 2268              		.loc 4 693 27 view .LVU675
 2269              	.LBE603:
 2270              	.LBE606:
 2271              	.LBE611:
 2272              		.loc 4 696 3 view .LVU676
 2273              	.LBB612:
 2274              	.LBB607:
 2275              	.LBB604:
 2276              	.LBB601:
 2277              		.loc 5 491 27 view .LVU677
 2278              	.LBB600:
 2279              		.loc 5 493 3 view .LVU678
 2280 0360 0023     		movs	r3, #0
 2281              		.syntax unified
 2282              	@ 493 "../../../external/ChibiOS/os/common/ext/ARM/CMSIS/Core/Include/cmsis_gcc.h" 1
 2283 0362 83F31188 		MSR basepri, r3
 2284              	@ 0 "" 2
 2285              	.LVL103:
 2286              		.loc 5 493 3 is_stmt 0 view .LVU679
 2287              		.thumb
 2288              		.syntax unified
 2289              	.LBE600:
 2290              	.LBE601:
 2291              	.LBE604:
 2292              	.LBE607:
 2293              	.LBE612:
 2294              		.loc 1 680 1 view .LVU680
 2295 0366 10BD     		pop	{r4, pc}
 2296              		.loc 1 680 1 view .LVU681
 2297              		.cfi_endproc
 2298              	.LFE338:
 2299              		.size	chThdSleepUntil, .-chThdSleepUntil
 2300              		.align	1
 2301 0368 AFF30080 		.p2align 4,,15
 2301      AFF30080 
 2302              		.global	chThdSleepUntilWindowed
 2303              		.syntax unified
 2304              		.thumb
 2305              		.thumb_func
 2306              		.fpu fpv4-sp-d16
 2307              		.type	chThdSleepUntilWindowed, %function
 2308              	chThdSleepUntilWindowed:
 2309              	.LVL104:
 2310              	.LFB339:
 2311              		.loc 1 696 67 is_stmt 1 view -0
 2312              		.cfi_startproc
 2313              		@ args = 0, pretend = 0, frame = 0
 2314              		@ frame_needed = 0, uses_anonymous_args = 0
 2315              		.loc 1 697 3 view .LVU683
 2316              		.loc 1 699 3 view .LVU684
 2317              	.LBB613:
 2318              	.LBI613:
 2319              		.loc 3 353 20 view .LVU685
 2320              	.LBE613:
 2321              		.loc 3 355 3 view .LVU686
 2322              	.LBB621:
 2323              	.LBB614:
ARM GAS  /tmp/cc23GjE5.s 			page 42


 2324              	.LBI614:
 2325              		.loc 4 669 27 view .LVU687
 2326              	.LBE614:
 2327              	.LBE621:
 2328              		.loc 4 677 3 view .LVU688
 2329              	.LBB622:
 2330              	.LBB619:
 2331              	.LBB615:
 2332              	.LBI615:
 2333              		.loc 5 491 27 view .LVU689
 2334              	.LBB616:
 2335              		.loc 5 493 3 view .LVU690
 2336              	.LBE616:
 2337              	.LBE615:
 2338              	.LBE619:
 2339              	.LBE622:
 2340              		.loc 1 696 67 is_stmt 0 view .LVU691
 2341 0370 38B5     		push	{r3, r4, r5, lr}
 2342              		.cfi_def_cfa_offset 16
 2343              		.cfi_offset 3, -16
 2344              		.cfi_offset 4, -12
 2345              		.cfi_offset 5, -8
 2346              		.cfi_offset 14, -4
 2347              		.loc 1 696 67 view .LVU692
 2348 0372 0446     		mov	r4, r0
 2349 0374 0D46     		mov	r5, r1
 2350              	.LBB623:
 2351              	.LBB620:
 2352              	.LBB618:
 2353              	.LBB617:
 2354              		.loc 5 493 3 view .LVU693
 2355 0376 2023     		movs	r3, #32
 2356              		.syntax unified
 2357              	@ 493 "../../../external/ChibiOS/os/common/ext/ARM/CMSIS/Core/Include/cmsis_gcc.h" 1
 2358 0378 83F31188 		MSR basepri, r3
 2359              	@ 0 "" 2
 2360              	.LVL105:
 2361              		.loc 5 493 3 view .LVU694
 2362              		.thumb
 2363              		.syntax unified
 2364              	.LBE617:
 2365              	.LBE618:
 2366              	.LBE620:
 2367              	.LBE623:
 2368              		.loc 3 356 34 is_stmt 1 view .LVU695
 2369              		.loc 3 357 20 view .LVU696
 2370              		.loc 1 700 3 view .LVU697
 2371              	.LBB624:
 2372              	.LBI624:
 2373              		.loc 7 116 25 view .LVU698
 2374              	.LBE624:
 2375              		.loc 7 121 3 view .LVU699
 2376              	.LBB627:
 2377              	.LBB625:
 2378              	.LBI625:
 2379              		.loc 8 114 25 view .LVU700
 2380              	.LBB626:
ARM GAS  /tmp/cc23GjE5.s 			page 43


 2381              		.loc 8 116 3 view .LVU701
 2382              		.loc 8 116 10 is_stmt 0 view .LVU702
 2383 037c FFF7FEFF 		bl	stGetCounter
 2384              	.LVL106:
 2385              		.loc 8 116 10 view .LVU703
 2386              	.LBE626:
 2387              	.LBE625:
 2388              	.LBE627:
 2389              		.loc 1 701 3 is_stmt 1 view .LVU704
 2390              	.LBB628:
 2391              	.LBI628:
 2392              		.loc 9 480 20 view .LVU705
 2393              	.LBB629:
 2394              		.loc 9 484 3 view .LVU706
 2395              		.loc 9 485 17 is_stmt 0 view .LVU707
 2396 0380 2B1B     		subs	r3, r5, r4
 2397              		.loc 9 484 17 view .LVU708
 2398 0382 041B     		subs	r4, r0, r4
 2399              	.LVL107:
 2400              		.loc 9 484 17 view .LVU709
 2401              	.LBE629:
 2402              	.LBE628:
 2403              		.loc 1 701 6 view .LVU710
 2404 0384 A342     		cmp	r3, r4
 2405 0386 04D8     		bhi	.L69
 2406              		.loc 1 704 3 is_stmt 1 view .LVU711
 2407              	.LBB630:
 2408              	.LBI630:
 2409              		.loc 3 365 20 view .LVU712
 2410              	.LBB631:
 2411              		.loc 3 367 22 view .LVU713
 2412              		.loc 3 368 33 view .LVU714
 2413              		.loc 3 374 3 view .LVU715
 2414              		.loc 3 374 3 view .LVU716
 2415              		.loc 3 378 3 view .LVU717
 2416              	.LBB632:
 2417              	.LBI632:
 2418              		.loc 4 693 27 view .LVU718
 2419              	.LBE632:
 2420              	.LBE631:
 2421              	.LBE630:
 2422              		.loc 4 696 3 view .LVU719
 2423              	.LVL108:
 2424              	.LBB643:
 2425              	.LBB640:
 2426              	.LBB637:
 2427              	.LBB633:
 2428              	.LBI633:
 2429              		.loc 5 491 27 view .LVU720
 2430              	.LBB634:
 2431              		.loc 5 493 3 view .LVU721
 2432 0388 0023     		movs	r3, #0
 2433              		.syntax unified
 2434              	@ 493 "../../../external/ChibiOS/os/common/ext/ARM/CMSIS/Core/Include/cmsis_gcc.h" 1
 2435 038a 83F31188 		MSR basepri, r3
 2436              	@ 0 "" 2
 2437              	.LVL109:
ARM GAS  /tmp/cc23GjE5.s 			page 44


 2438              		.loc 5 493 3 is_stmt 0 view .LVU722
 2439              		.thumb
 2440              		.syntax unified
 2441              	.LBE634:
 2442              	.LBE633:
 2443              	.LBE637:
 2444              	.LBE640:
 2445              	.LBE643:
 2446              		.loc 1 706 3 is_stmt 1 view .LVU723
 2447              		.loc 1 707 1 is_stmt 0 view .LVU724
 2448 038e 2846     		mov	r0, r5
 2449              	.LVL110:
 2450              		.loc 1 707 1 view .LVU725
 2451 0390 38BD     		pop	{r3, r4, r5, pc}
 2452              	.LVL111:
 2453              	.L69:
 2454              		.loc 1 702 5 is_stmt 1 view .LVU726
 2455              	.LBB644:
 2456              	.LBI644:
 2457              		.loc 9 459 29 view .LVU727
 2458              	.LBB645:
 2459              		.loc 9 463 3 view .LVU728
 2460              		.loc 9 463 3 is_stmt 0 view .LVU729
 2461              	.LBE645:
 2462              	.LBE644:
 2463              	.LBB646:
 2464              	.LBI646:
 2465              		.loc 6 378 20 is_stmt 1 view .LVU730
 2466              	.LBB647:
 2467              		.loc 6 380 3 view .LVU731
 2468              		.loc 6 380 3 view .LVU732
 2469              		.loc 6 382 3 view .LVU733
 2470              		.loc 6 382 10 is_stmt 0 view .LVU734
 2471 0392 291A     		subs	r1, r5, r0
 2472              	.LVL112:
 2473              		.loc 6 382 10 view .LVU735
 2474 0394 0820     		movs	r0, #8
 2475              	.LVL113:
 2476              		.loc 6 382 10 view .LVU736
 2477 0396 FFF7FEFF 		bl	chSchGoSleepTimeoutS
 2478              	.LVL114:
 2479              		.loc 6 382 10 view .LVU737
 2480              	.LBE647:
 2481              	.LBE646:
 2482              		.loc 1 704 3 is_stmt 1 view .LVU738
 2483              	.LBB648:
 2484              		.loc 3 365 20 view .LVU739
 2485              	.LBB641:
 2486              		.loc 3 367 22 view .LVU740
 2487              		.loc 3 368 33 view .LVU741
 2488              		.loc 3 374 3 view .LVU742
 2489              		.loc 3 374 3 view .LVU743
 2490              		.loc 3 378 3 view .LVU744
 2491              	.LBB638:
 2492              		.loc 4 693 27 view .LVU745
 2493              	.LBE638:
 2494              	.LBE641:
ARM GAS  /tmp/cc23GjE5.s 			page 45


 2495              	.LBE648:
 2496              		.loc 4 696 3 view .LVU746
 2497              	.LBB649:
 2498              	.LBB642:
 2499              	.LBB639:
 2500              	.LBB636:
 2501              		.loc 5 491 27 view .LVU747
 2502              	.LBB635:
 2503              		.loc 5 493 3 view .LVU748
 2504 039a 0023     		movs	r3, #0
 2505              		.syntax unified
 2506              	@ 493 "../../../external/ChibiOS/os/common/ext/ARM/CMSIS/Core/Include/cmsis_gcc.h" 1
 2507 039c 83F31188 		MSR basepri, r3
 2508              	@ 0 "" 2
 2509              	.LVL115:
 2510              		.loc 5 493 3 is_stmt 0 view .LVU749
 2511              		.thumb
 2512              		.syntax unified
 2513              	.LBE635:
 2514              	.LBE636:
 2515              	.LBE639:
 2516              	.LBE642:
 2517              	.LBE649:
 2518              		.loc 1 706 3 is_stmt 1 view .LVU750
 2519              		.loc 1 707 1 is_stmt 0 view .LVU751
 2520 03a0 2846     		mov	r0, r5
 2521 03a2 38BD     		pop	{r3, r4, r5, pc}
 2522              		.loc 1 707 1 view .LVU752
 2523              		.cfi_endproc
 2524              	.LFE339:
 2525              		.size	chThdSleepUntilWindowed, .-chThdSleepUntilWindowed
 2526              		.align	1
 2527 03a4 AFF30080 		.p2align 4,,15
 2527      AFF30080 
 2527      AFF30080 
 2528              		.global	chThdYield
 2529              		.syntax unified
 2530              		.thumb
 2531              		.thumb_func
 2532              		.fpu fpv4-sp-d16
 2533              		.type	chThdYield, %function
 2534              	chThdYield:
 2535              	.LFB340:
 2536              		.loc 1 716 23 is_stmt 1 view -0
 2537              		.cfi_startproc
 2538              		@ args = 0, pretend = 0, frame = 0
 2539              		@ frame_needed = 0, uses_anonymous_args = 0
 2540              		.loc 1 718 3 view .LVU754
 2541              	.LBB650:
 2542              	.LBI650:
 2543              		.loc 3 353 20 view .LVU755
 2544              	.LBE650:
 2545              		.loc 3 355 3 view .LVU756
 2546              	.LBB658:
 2547              	.LBB651:
 2548              	.LBI651:
 2549              		.loc 4 669 27 view .LVU757
ARM GAS  /tmp/cc23GjE5.s 			page 46


 2550              	.LBE651:
 2551              	.LBE658:
 2552              		.loc 4 677 3 view .LVU758
 2553              	.LVL116:
 2554              	.LBB659:
 2555              	.LBB656:
 2556              	.LBB652:
 2557              	.LBI652:
 2558              		.loc 5 491 27 view .LVU759
 2559              	.LBB653:
 2560              		.loc 5 493 3 view .LVU760
 2561              	.LBE653:
 2562              	.LBE652:
 2563              	.LBE656:
 2564              	.LBE659:
 2565              		.loc 1 716 23 is_stmt 0 view .LVU761
 2566 03b0 08B5     		push	{r3, lr}
 2567              		.cfi_def_cfa_offset 8
 2568              		.cfi_offset 3, -8
 2569              		.cfi_offset 14, -4
 2570              	.LBB660:
 2571              	.LBB657:
 2572              	.LBB655:
 2573              	.LBB654:
 2574              		.loc 5 493 3 view .LVU762
 2575 03b2 2023     		movs	r3, #32
 2576              		.syntax unified
 2577              	@ 493 "../../../external/ChibiOS/os/common/ext/ARM/CMSIS/Core/Include/cmsis_gcc.h" 1
 2578 03b4 83F31188 		MSR basepri, r3
 2579              	@ 0 "" 2
 2580              	.LVL117:
 2581              		.loc 5 493 3 view .LVU763
 2582              		.thumb
 2583              		.syntax unified
 2584              	.LBE654:
 2585              	.LBE655:
 2586              	.LBE657:
 2587              	.LBE660:
 2588              		.loc 3 356 34 is_stmt 1 view .LVU764
 2589              		.loc 3 357 20 view .LVU765
 2590              		.loc 1 719 3 view .LVU766
 2591              	.LBB661:
 2592              	.LBI661:
 2593              		.loc 2 676 20 view .LVU767
 2594              	.LBB662:
 2595              		.loc 2 678 21 view .LVU768
 2596              		.loc 2 680 3 view .LVU769
 2597              	.LBB663:
 2598              	.LBI663:
 2599              		.loc 2 662 20 view .LVU770
 2600              	.LBB664:
 2601              		.loc 2 664 21 view .LVU771
 2602              		.loc 2 666 3 view .LVU772
 2603              		.loc 2 666 10 is_stmt 0 view .LVU773
 2604 03b8 084B     		ldr	r3, .L74
 2605 03ba 1A68     		ldr	r2, [r3]
 2606              		.loc 2 666 45 view .LVU774
ARM GAS  /tmp/cc23GjE5.s 			page 47


 2607 03bc 9B69     		ldr	r3, [r3, #24]
 2608              	.LBE664:
 2609              	.LBE663:
 2610              		.loc 2 680 6 view .LVU775
 2611 03be 9268     		ldr	r2, [r2, #8]
 2612 03c0 9B68     		ldr	r3, [r3, #8]
 2613 03c2 9A42     		cmp	r2, r3
 2614 03c4 03D2     		bcs	.L73
 2615              	.LBE662:
 2616              	.LBE661:
 2617              		.loc 1 720 3 is_stmt 1 view .LVU776
 2618              	.LBB666:
 2619              	.LBI666:
 2620              		.loc 3 365 20 view .LVU777
 2621              	.LBB667:
 2622              		.loc 3 367 22 view .LVU778
 2623              		.loc 3 368 33 view .LVU779
 2624              		.loc 3 374 3 view .LVU780
 2625              		.loc 3 374 3 view .LVU781
 2626              		.loc 3 378 3 view .LVU782
 2627              	.LBB668:
 2628              	.LBI668:
 2629              		.loc 4 693 27 view .LVU783
 2630              	.LBE668:
 2631              	.LBE667:
 2632              	.LBE666:
 2633              		.loc 4 696 3 view .LVU784
 2634              	.LVL118:
 2635              	.LBB679:
 2636              	.LBB676:
 2637              	.LBB673:
 2638              	.LBB669:
 2639              	.LBI669:
 2640              		.loc 5 491 27 view .LVU785
 2641              	.LBB670:
 2642              		.loc 5 493 3 view .LVU786
 2643 03c6 0023     		movs	r3, #0
 2644              		.syntax unified
 2645              	@ 493 "../../../external/ChibiOS/os/common/ext/ARM/CMSIS/Core/Include/cmsis_gcc.h" 1
 2646 03c8 83F31188 		MSR basepri, r3
 2647              	@ 0 "" 2
 2648              	.LVL119:
 2649              		.loc 5 493 3 is_stmt 0 view .LVU787
 2650              		.thumb
 2651              		.syntax unified
 2652              	.LBE670:
 2653              	.LBE669:
 2654              	.LBE673:
 2655              	.LBE676:
 2656              	.LBE679:
 2657              		.loc 1 721 1 view .LVU788
 2658 03cc 08BD     		pop	{r3, pc}
 2659              	.L73:
 2660              	.LBB680:
 2661              	.LBB665:
 2662              		.loc 2 681 5 is_stmt 1 view .LVU789
 2663 03ce FFF7FEFF 		bl	chSchDoRescheduleBehind
ARM GAS  /tmp/cc23GjE5.s 			page 48


 2664              	.LVL120:
 2665              	.LBE665:
 2666              	.LBE680:
 2667              		.loc 1 720 3 view .LVU790
 2668              	.LBB681:
 2669              		.loc 3 365 20 view .LVU791
 2670              	.LBB677:
 2671              		.loc 3 367 22 view .LVU792
 2672              		.loc 3 368 33 view .LVU793
 2673              		.loc 3 374 3 view .LVU794
 2674              		.loc 3 374 3 view .LVU795
 2675              		.loc 3 378 3 view .LVU796
 2676              	.LBB674:
 2677              		.loc 4 693 27 view .LVU797
 2678              	.LBE674:
 2679              	.LBE677:
 2680              	.LBE681:
 2681              		.loc 4 696 3 view .LVU798
 2682              	.LBB682:
 2683              	.LBB678:
 2684              	.LBB675:
 2685              	.LBB672:
 2686              		.loc 5 491 27 view .LVU799
 2687              	.LBB671:
 2688              		.loc 5 493 3 view .LVU800
 2689 03d2 0023     		movs	r3, #0
 2690              		.syntax unified
 2691              	@ 493 "../../../external/ChibiOS/os/common/ext/ARM/CMSIS/Core/Include/cmsis_gcc.h" 1
 2692 03d4 83F31188 		MSR basepri, r3
 2693              	@ 0 "" 2
 2694              	.LVL121:
 2695              		.loc 5 493 3 is_stmt 0 view .LVU801
 2696              		.thumb
 2697              		.syntax unified
 2698              	.LBE671:
 2699              	.LBE672:
 2700              	.LBE675:
 2701              	.LBE678:
 2702              	.LBE682:
 2703              		.loc 1 721 1 view .LVU802
 2704 03d8 08BD     		pop	{r3, pc}
 2705              	.L75:
 2706 03da 00BF     		.align	2
 2707              	.L74:
 2708 03dc 00000000 		.word	ch
 2709              		.cfi_endproc
 2710              	.LFE340:
 2711              		.size	chThdYield, .-chThdYield
 2712              		.align	1
 2713              		.p2align 4,,15
 2714              		.global	chThdSuspendS
 2715              		.syntax unified
 2716              		.thumb
 2717              		.thumb_func
 2718              		.fpu fpv4-sp-d16
 2719              		.type	chThdSuspendS, %function
 2720              	chThdSuspendS:
ARM GAS  /tmp/cc23GjE5.s 			page 49


 2721              	.LVL122:
 2722              	.LFB341:
 2723              		.loc 1 733 46 is_stmt 1 view -0
 2724              		.cfi_startproc
 2725              		@ args = 0, pretend = 0, frame = 0
 2726              		@ frame_needed = 0, uses_anonymous_args = 0
 2727              		.loc 1 734 3 view .LVU804
 2728              	.LBB683:
 2729              	.LBI683:
 2730              		.loc 6 272 25 view .LVU805
 2731              	.LBB684:
 2732              		.loc 6 274 3 view .LVU806
 2733              	.LBE684:
 2734              	.LBE683:
 2735              		.loc 1 733 46 is_stmt 0 view .LVU807
 2736 03e0 10B5     		push	{r4, lr}
 2737              		.cfi_def_cfa_offset 8
 2738              		.cfi_offset 4, -8
 2739              		.cfi_offset 14, -4
 2740              	.LBB687:
 2741              	.LBB685:
 2742              		.loc 6 274 18 view .LVU808
 2743 03e2 054C     		ldr	r4, .L78
 2744              	.LBE685:
 2745              	.LBE687:
 2746              		.loc 1 733 46 view .LVU809
 2747 03e4 0246     		mov	r2, r0
 2748              		.loc 1 740 3 view .LVU810
 2749 03e6 0320     		movs	r0, #3
 2750              	.LVL123:
 2751              	.LBB688:
 2752              	.LBB686:
 2753              		.loc 6 274 18 view .LVU811
 2754 03e8 A369     		ldr	r3, [r4, #24]
 2755              	.LVL124:
 2756              		.loc 6 274 18 view .LVU812
 2757              	.LBE686:
 2758              	.LBE688:
 2759              		.loc 1 736 3 is_stmt 1 view .LVU813
 2760              		.loc 1 736 3 view .LVU814
 2761              		.loc 1 738 3 view .LVU815
 2762              		.loc 1 738 8 is_stmt 0 view .LVU816
 2763 03ea 1360     		str	r3, [r2]
 2764              		.loc 1 739 3 is_stmt 1 view .LVU817
 2765              		.loc 1 739 15 is_stmt 0 view .LVU818
 2766 03ec 5A62     		str	r2, [r3, #36]
 2767              		.loc 1 740 3 is_stmt 1 view .LVU819
 2768 03ee FFF7FEFF 		bl	chSchGoSleepS
 2769              	.LVL125:
 2770              		.loc 1 742 3 view .LVU820
 2771              	.LBB689:
 2772              	.LBI689:
 2773              		.loc 6 272 25 view .LVU821
 2774              	.LBB690:
 2775              		.loc 6 274 3 view .LVU822
 2776              	.LBE690:
 2777              	.LBE689:
ARM GAS  /tmp/cc23GjE5.s 			page 50


 2778              		.loc 1 742 28 is_stmt 0 view .LVU823
 2779 03f2 A369     		ldr	r3, [r4, #24]
 2780              		.loc 1 743 1 view .LVU824
 2781 03f4 586A     		ldr	r0, [r3, #36]
 2782 03f6 10BD     		pop	{r4, pc}
 2783              	.L79:
 2784              		.align	2
 2785              	.L78:
 2786 03f8 00000000 		.word	ch
 2787              		.cfi_endproc
 2788              	.LFE341:
 2789              		.size	chThdSuspendS, .-chThdSuspendS
 2790              		.align	1
 2791 03fc AFF30080 		.p2align 4,,15
 2792              		.global	chThdSuspendTimeoutS
 2793              		.syntax unified
 2794              		.thumb
 2795              		.thumb_func
 2796              		.fpu fpv4-sp-d16
 2797              		.type	chThdSuspendTimeoutS, %function
 2798              	chThdSuspendTimeoutS:
 2799              	.LVL126:
 2800              	.LFB342:
 2801              		.loc 1 764 76 is_stmt 1 view -0
 2802              		.cfi_startproc
 2803              		@ args = 0, pretend = 0, frame = 0
 2804              		@ frame_needed = 0, uses_anonymous_args = 0
 2805              		@ link register save eliminated.
 2806              		.loc 1 765 3 view .LVU826
 2807              	.LBB691:
 2808              	.LBI691:
 2809              		.loc 6 272 25 view .LVU827
 2810              	.LBB692:
 2811              		.loc 6 274 3 view .LVU828
 2812              		.loc 6 274 18 is_stmt 0 view .LVU829
 2813 0400 054B     		ldr	r3, .L82
 2814              	.LBE692:
 2815              	.LBE691:
 2816              		.loc 1 764 76 view .LVU830
 2817 0402 0246     		mov	r2, r0
 2818              	.LBB694:
 2819              	.LBB693:
 2820              		.loc 6 274 18 view .LVU831
 2821 0404 9B69     		ldr	r3, [r3, #24]
 2822              	.LVL127:
 2823              		.loc 6 274 18 view .LVU832
 2824              	.LBE693:
 2825              	.LBE694:
 2826              		.loc 1 767 3 is_stmt 1 view .LVU833
 2827              		.loc 1 767 3 view .LVU834
 2828              		.loc 1 769 3 view .LVU835
 2829              		.loc 1 769 6 is_stmt 0 view .LVU836
 2830 0406 21B1     		cbz	r1, .L81
 2831              		.loc 1 773 3 is_stmt 1 view .LVU837
 2832              		.loc 1 773 8 is_stmt 0 view .LVU838
 2833 0408 0360     		str	r3, [r0]
 2834              		.loc 1 774 3 is_stmt 1 view .LVU839
ARM GAS  /tmp/cc23GjE5.s 			page 51


 2835              		.loc 1 776 10 is_stmt 0 view .LVU840
 2836 040a 0320     		movs	r0, #3
 2837              	.LVL128:
 2838              		.loc 1 774 15 view .LVU841
 2839 040c 5A62     		str	r2, [r3, #36]
 2840              		.loc 1 776 3 is_stmt 1 view .LVU842
 2841              		.loc 1 776 10 is_stmt 0 view .LVU843
 2842 040e FFF7FEBF 		b	chSchGoSleepTimeoutS
 2843              	.LVL129:
 2844              	.L81:
 2845              		.loc 1 777 1 view .LVU844
 2846 0412 4FF0FF30 		mov	r0, #-1
 2847              	.LVL130:
 2848              		.loc 1 777 1 view .LVU845
 2849 0416 7047     		bx	lr
 2850              	.L83:
 2851              		.align	2
 2852              	.L82:
 2853 0418 00000000 		.word	ch
 2854              		.cfi_endproc
 2855              	.LFE342:
 2856              		.size	chThdSuspendTimeoutS, .-chThdSuspendTimeoutS
 2857              		.align	1
 2858 041c AFF30080 		.p2align 4,,15
 2859              		.global	chThdResumeI
 2860              		.syntax unified
 2861              		.thumb
 2862              		.thumb_func
 2863              		.fpu fpv4-sp-d16
 2864              		.type	chThdResumeI, %function
 2865              	chThdResumeI:
 2866              	.LVL131:
 2867              	.LFB343:
 2868              		.loc 1 789 55 is_stmt 1 view -0
 2869              		.cfi_startproc
 2870              		@ args = 0, pretend = 0, frame = 0
 2871              		@ frame_needed = 0, uses_anonymous_args = 0
 2872              		@ link register save eliminated.
 2873              		.loc 1 791 3 view .LVU847
 2874              		.loc 1 791 7 is_stmt 0 view .LVU848
 2875 0420 0368     		ldr	r3, [r0]
 2876              		.loc 1 791 6 view .LVU849
 2877 0422 4BB1     		cbz	r3, .L84
 2878 0424 0246     		mov	r2, r0
 2879              	.LBB695:
 2880              		.loc 1 792 5 is_stmt 1 view .LVU850
 2881              	.LVL132:
 2882              		.loc 1 794 5 view .LVU851
 2883              		.loc 1 794 5 view .LVU852
 2884              		.loc 1 796 5 view .LVU853
 2885              		.loc 1 798 12 is_stmt 0 view .LVU854
 2886 0426 1846     		mov	r0, r3
 2887              	.LVL133:
 2888              		.loc 1 798 12 view .LVU855
 2889              	.LBE695:
 2890              		.loc 1 789 55 view .LVU856
 2891 0428 10B4     		push	{r4}
ARM GAS  /tmp/cc23GjE5.s 			page 52


 2892              		.cfi_def_cfa_offset 4
 2893              		.cfi_offset 4, -4
 2894              	.LBB696:
 2895              		.loc 1 796 10 view .LVU857
 2896 042a 0024     		movs	r4, #0
 2897 042c 1460     		str	r4, [r2]
 2898              		.loc 1 797 5 is_stmt 1 view .LVU858
 2899              		.loc 1 797 18 is_stmt 0 view .LVU859
 2900 042e 5962     		str	r1, [r3, #36]
 2901              		.loc 1 798 5 is_stmt 1 view .LVU860
 2902              	.LBE696:
 2903              		.loc 1 800 1 is_stmt 0 view .LVU861
 2904 0430 5DF8044B 		ldr	r4, [sp], #4
 2905              		.cfi_restore 4
 2906              		.cfi_def_cfa_offset 0
 2907              	.LBB697:
 2908              		.loc 1 798 12 view .LVU862
 2909 0434 FFF7FEBF 		b	chSchReadyI
 2910              	.LVL134:
 2911              	.L84:
 2912              		.loc 1 798 12 view .LVU863
 2913 0438 7047     		bx	lr
 2914              	.LBE697:
 2915              		.cfi_endproc
 2916              	.LFE343:
 2917              		.size	chThdResumeI, .-chThdResumeI
 2918              		.align	1
 2919 043a 00BFAFF3 		.p2align 4,,15
 2919      0080
 2920              		.global	chThdResumeS
 2921              		.syntax unified
 2922              		.thumb
 2923              		.thumb_func
 2924              		.fpu fpv4-sp-d16
 2925              		.type	chThdResumeS, %function
 2926              	chThdResumeS:
 2927              	.LVL135:
 2928              	.LFB344:
 2929              		.loc 1 812 55 is_stmt 1 view -0
 2930              		.cfi_startproc
 2931              		@ args = 0, pretend = 0, frame = 0
 2932              		@ frame_needed = 0, uses_anonymous_args = 0
 2933              		@ link register save eliminated.
 2934              		.loc 1 814 3 view .LVU865
 2935              		.loc 1 812 55 is_stmt 0 view .LVU866
 2936 0440 0346     		mov	r3, r0
 2937              		.loc 1 814 7 view .LVU867
 2938 0442 0068     		ldr	r0, [r0]
 2939              	.LVL136:
 2940              		.loc 1 814 6 view .LVU868
 2941 0444 18B1     		cbz	r0, .L89
 2942              	.LBB698:
 2943              		.loc 1 815 5 is_stmt 1 view .LVU869
 2944              	.LVL137:
 2945              		.loc 1 817 5 view .LVU870
 2946              		.loc 1 817 5 view .LVU871
 2947              		.loc 1 819 5 view .LVU872
ARM GAS  /tmp/cc23GjE5.s 			page 53


 2948              		.loc 1 819 10 is_stmt 0 view .LVU873
 2949 0446 0022     		movs	r2, #0
 2950 0448 1A60     		str	r2, [r3]
 2951              		.loc 1 820 5 is_stmt 1 view .LVU874
 2952 044a FFF7FEBF 		b	chSchWakeupS
 2953              	.LVL138:
 2954              	.L89:
 2955              		.loc 1 820 5 is_stmt 0 view .LVU875
 2956              	.LBE698:
 2957              		.loc 1 822 1 view .LVU876
 2958 044e 7047     		bx	lr
 2959              		.cfi_endproc
 2960              	.LFE344:
 2961              		.size	chThdResumeS, .-chThdResumeS
 2962              		.align	1
 2963              		.p2align 4,,15
 2964              		.global	chThdResume
 2965              		.syntax unified
 2966              		.thumb
 2967              		.thumb_func
 2968              		.fpu fpv4-sp-d16
 2969              		.type	chThdResume, %function
 2970              	chThdResume:
 2971              	.LVL139:
 2972              	.LFB345:
 2973              		.loc 1 834 54 is_stmt 1 view -0
 2974              		.cfi_startproc
 2975              		@ args = 0, pretend = 0, frame = 0
 2976              		@ frame_needed = 0, uses_anonymous_args = 0
 2977              		.loc 1 836 3 view .LVU878
 2978              	.LBB699:
 2979              	.LBI699:
 2980              		.loc 3 353 20 view .LVU879
 2981              	.LBE699:
 2982              		.loc 3 355 3 view .LVU880
 2983              	.LBB704:
 2984              	.LBB700:
 2985              	.LBI700:
 2986              		.loc 4 669 27 view .LVU881
 2987              	.LBE700:
 2988              	.LBE704:
 2989              		.loc 4 677 3 view .LVU882
 2990              	.LBB705:
 2991              	.LBB703:
 2992              	.LBB701:
 2993              	.LBI701:
 2994              		.loc 5 491 27 view .LVU883
 2995              	.LBB702:
 2996              		.loc 5 493 3 view .LVU884
 2997 0450 2023     		movs	r3, #32
 2998              		.syntax unified
 2999              	@ 493 "../../../external/ChibiOS/os/common/ext/ARM/CMSIS/Core/Include/cmsis_gcc.h" 1
 3000 0452 83F31188 		MSR basepri, r3
 3001              	@ 0 "" 2
 3002              	.LVL140:
 3003              		.loc 5 493 3 is_stmt 0 view .LVU885
 3004              		.thumb
ARM GAS  /tmp/cc23GjE5.s 			page 54


 3005              		.syntax unified
 3006              	.LBE702:
 3007              	.LBE701:
 3008              	.LBE703:
 3009              	.LBE705:
 3010              		.loc 3 356 34 is_stmt 1 view .LVU886
 3011              		.loc 3 357 20 view .LVU887
 3012              		.loc 1 837 3 view .LVU888
 3013              	.LBB706:
 3014              	.LBI706:
 3015              		.loc 1 812 6 view .LVU889
 3016              	.LBB707:
 3017              		.loc 1 814 3 view .LVU890
 3018              		.loc 1 814 7 is_stmt 0 view .LVU891
 3019 0456 0268     		ldr	r2, [r0]
 3020              		.loc 1 814 6 view .LVU892
 3021 0458 52B1     		cbz	r2, .L97
 3022 045a 0346     		mov	r3, r0
 3023              	.LBB708:
 3024              		.loc 1 815 5 is_stmt 1 view .LVU893
 3025              	.LVL141:
 3026              		.loc 1 817 5 view .LVU894
 3027              		.loc 1 817 5 view .LVU895
 3028              		.loc 1 819 5 view .LVU896
 3029              		.loc 1 820 5 is_stmt 0 view .LVU897
 3030 045c 1046     		mov	r0, r2
 3031              	.LVL142:
 3032              		.loc 1 820 5 view .LVU898
 3033              	.LBE708:
 3034              	.LBE707:
 3035              	.LBE706:
 3036              		.loc 1 834 54 view .LVU899
 3037 045e 10B5     		push	{r4, lr}
 3038              		.cfi_def_cfa_offset 8
 3039              		.cfi_offset 4, -8
 3040              		.cfi_offset 14, -4
 3041              	.LBB711:
 3042              	.LBB710:
 3043              	.LBB709:
 3044              		.loc 1 819 10 view .LVU900
 3045 0460 0024     		movs	r4, #0
 3046 0462 1C60     		str	r4, [r3]
 3047              		.loc 1 820 5 is_stmt 1 view .LVU901
 3048 0464 FFF7FEFF 		bl	chSchWakeupS
 3049              	.LVL143:
 3050              		.loc 1 820 5 is_stmt 0 view .LVU902
 3051              	.LBE709:
 3052              	.LBE710:
 3053              	.LBE711:
 3054              		.loc 1 838 3 is_stmt 1 view .LVU903
 3055              	.LBB712:
 3056              	.LBI712:
 3057              		.loc 3 365 20 view .LVU904
 3058              	.LBB713:
 3059              		.loc 3 367 22 view .LVU905
 3060              		.loc 3 368 33 view .LVU906
 3061              		.loc 3 374 3 view .LVU907
ARM GAS  /tmp/cc23GjE5.s 			page 55


 3062              		.loc 3 374 3 view .LVU908
 3063              		.loc 3 378 3 view .LVU909
 3064              	.LBB714:
 3065              	.LBI714:
 3066              		.loc 4 693 27 view .LVU910
 3067              	.LBE714:
 3068              	.LBE713:
 3069              	.LBE712:
 3070              		.loc 4 696 3 view .LVU911
 3071              	.LBB725:
 3072              	.LBB722:
 3073              	.LBB719:
 3074              	.LBB715:
 3075              	.LBI715:
 3076              		.loc 5 491 27 view .LVU912
 3077              	.LBB716:
 3078              		.loc 5 493 3 view .LVU913
 3079 0468 0023     		movs	r3, #0
 3080              		.syntax unified
 3081              	@ 493 "../../../external/ChibiOS/os/common/ext/ARM/CMSIS/Core/Include/cmsis_gcc.h" 1
 3082 046a 83F31188 		MSR basepri, r3
 3083              	@ 0 "" 2
 3084              	.LVL144:
 3085              		.loc 5 493 3 is_stmt 0 view .LVU914
 3086              		.thumb
 3087              		.syntax unified
 3088              	.LBE716:
 3089              	.LBE715:
 3090              	.LBE719:
 3091              	.LBE722:
 3092              	.LBE725:
 3093              		.loc 1 839 1 view .LVU915
 3094 046e 10BD     		pop	{r4, pc}
 3095              	.LVL145:
 3096              	.L97:
 3097              		.cfi_def_cfa_offset 0
 3098              		.cfi_restore 4
 3099              		.cfi_restore 14
 3100              		.loc 1 838 3 is_stmt 1 view .LVU916
 3101              	.LBB726:
 3102              		.loc 3 365 20 view .LVU917
 3103              	.LBB723:
 3104              		.loc 3 367 22 view .LVU918
 3105              		.loc 3 368 33 view .LVU919
 3106              		.loc 3 374 3 view .LVU920
 3107              		.loc 3 374 3 view .LVU921
 3108              		.loc 3 378 3 view .LVU922
 3109              	.LBB720:
 3110              		.loc 4 693 27 view .LVU923
 3111              	.LBE720:
 3112              	.LBE723:
 3113              	.LBE726:
 3114              		.loc 4 696 3 view .LVU924
 3115              	.LBB727:
 3116              	.LBB724:
 3117              	.LBB721:
 3118              	.LBB718:
ARM GAS  /tmp/cc23GjE5.s 			page 56


 3119              		.loc 5 491 27 view .LVU925
 3120              	.LBB717:
 3121              		.loc 5 493 3 view .LVU926
 3122 0470 0023     		movs	r3, #0
 3123              		.syntax unified
 3124              	@ 493 "../../../external/ChibiOS/os/common/ext/ARM/CMSIS/Core/Include/cmsis_gcc.h" 1
 3125 0472 83F31188 		MSR basepri, r3
 3126              	@ 0 "" 2
 3127              	.LVL146:
 3128              		.loc 5 493 3 is_stmt 0 view .LVU927
 3129              		.thumb
 3130              		.syntax unified
 3131 0476 7047     		bx	lr
 3132              	.LBE717:
 3133              	.LBE718:
 3134              	.LBE721:
 3135              	.LBE724:
 3136              	.LBE727:
 3137              		.cfi_endproc
 3138              	.LFE345:
 3139              		.size	chThdResume, .-chThdResume
 3140              		.align	1
 3141 0478 AFF30080 		.p2align 4,,15
 3141      AFF30080 
 3142              		.global	chThdEnqueueTimeoutS
 3143              		.syntax unified
 3144              		.thumb
 3145              		.thumb_func
 3146              		.fpu fpv4-sp-d16
 3147              		.type	chThdEnqueueTimeoutS, %function
 3148              	chThdEnqueueTimeoutS:
 3149              	.LVL147:
 3150              	.LFB346:
 3151              		.loc 1 864 73 is_stmt 1 view -0
 3152              		.cfi_startproc
 3153              		@ args = 0, pretend = 0, frame = 0
 3154              		@ frame_needed = 0, uses_anonymous_args = 0
 3155              		@ link register save eliminated.
 3156              		.loc 1 866 3 view .LVU929
 3157              		.loc 1 866 6 is_stmt 0 view .LVU930
 3158 0480 69B1     		cbz	r1, .L101
 3159 0482 0246     		mov	r2, r0
 3160              		.loc 1 870 3 is_stmt 1 view .LVU931
 3161 0484 074B     		ldr	r3, .L105
 3162              		.loc 1 872 10 is_stmt 0 view .LVU932
 3163 0486 0420     		movs	r0, #4
 3164              	.LVL148:
 3165              		.loc 1 870 3 view .LVU933
 3166 0488 9B69     		ldr	r3, [r3, #24]
 3167              	.LVL149:
 3168              	.LBB728:
 3169              	.LBI728:
 3170              		.loc 2 598 20 is_stmt 1 view .LVU934
 3171              	.LBB729:
 3172              		.loc 2 600 3 view .LVU935
 3173              	.LBE729:
 3174              	.LBE728:
ARM GAS  /tmp/cc23GjE5.s 			page 57


 3175              		.loc 1 864 73 is_stmt 0 view .LVU936
 3176 048a 10B4     		push	{r4}
 3177              		.cfi_def_cfa_offset 4
 3178              		.cfi_offset 4, -4
 3179              	.LBB731:
 3180              	.LBB730:
 3181              		.loc 2 601 35 view .LVU937
 3182 048c 5468     		ldr	r4, [r2, #4]
 3183              		.loc 2 601 30 view .LVU938
 3184 048e C3E90024 		strd	r2, r4, [r3]
 3185              		.loc 2 602 3 is_stmt 1 view .LVU939
 3186              		.loc 2 602 30 is_stmt 0 view .LVU940
 3187 0492 2360     		str	r3, [r4]
 3188              		.loc 2 603 3 is_stmt 1 view .LVU941
 3189              		.loc 2 603 30 is_stmt 0 view .LVU942
 3190 0494 5360     		str	r3, [r2, #4]
 3191              	.LVL150:
 3192              		.loc 2 603 30 view .LVU943
 3193              	.LBE730:
 3194              	.LBE731:
 3195              		.loc 1 872 3 is_stmt 1 view .LVU944
 3196              		.loc 1 873 1 is_stmt 0 view .LVU945
 3197 0496 5DF8044B 		ldr	r4, [sp], #4
 3198              		.cfi_restore 4
 3199              		.cfi_def_cfa_offset 0
 3200              		.loc 1 872 10 view .LVU946
 3201 049a FFF7FEBF 		b	chSchGoSleepTimeoutS
 3202              	.LVL151:
 3203              	.L101:
 3204              		.loc 1 873 1 view .LVU947
 3205 049e 4FF0FF30 		mov	r0, #-1
 3206              	.LVL152:
 3207              		.loc 1 873 1 view .LVU948
 3208 04a2 7047     		bx	lr
 3209              	.L106:
 3210              		.align	2
 3211              	.L105:
 3212 04a4 00000000 		.word	ch
 3213              		.cfi_endproc
 3214              	.LFE346:
 3215              		.size	chThdEnqueueTimeoutS, .-chThdEnqueueTimeoutS
 3216              		.align	1
 3217 04a8 AFF30080 		.p2align 4,,15
 3217      AFF30080 
 3218              		.global	chThdDequeueNextI
 3219              		.syntax unified
 3220              		.thumb
 3221              		.thumb_func
 3222              		.fpu fpv4-sp-d16
 3223              		.type	chThdDequeueNextI, %function
 3224              	chThdDequeueNextI:
 3225              	.LVL153:
 3226              	.LFB347:
 3227              		.loc 1 884 57 is_stmt 1 view -0
 3228              		.cfi_startproc
 3229              		@ args = 0, pretend = 0, frame = 0
 3230              		@ frame_needed = 0, uses_anonymous_args = 0
ARM GAS  /tmp/cc23GjE5.s 			page 58


 3231              		@ link register save eliminated.
 3232              		.loc 1 886 3 view .LVU950
 3233              	.LBB732:
 3234              	.LBI732:
 3235              		.loc 2 564 20 view .LVU951
 3236              	.LBB733:
 3237              		.loc 2 566 3 view .LVU952
 3238              		.loc 2 566 20 is_stmt 0 view .LVU953
 3239 04b0 0268     		ldr	r2, [r0]
 3240              	.LVL154:
 3241              		.loc 2 566 20 view .LVU954
 3242              	.LBE733:
 3243              	.LBE732:
 3244              		.loc 1 886 6 view .LVU955
 3245 04b2 9042     		cmp	r0, r2
 3246 04b4 0AD0     		beq	.L107
 3247 04b6 0346     		mov	r3, r0
 3248              		.loc 1 887 5 is_stmt 1 view .LVU956
 3249              	.LVL155:
 3250              	.LBB734:
 3251              	.LBI734:
 3252              		.loc 6 425 20 view .LVU957
 3253              	.LBB735:
 3254              		.loc 6 426 3 view .LVU958
 3255              		.loc 6 428 3 view .LVU959
 3256              		.loc 6 428 3 view .LVU960
 3257              		.loc 6 430 3 view .LVU961
 3258              	.LBB736:
 3259              	.LBI736:
 3260              		.loc 2 606 25 view .LVU962
 3261              	.LBB737:
 3262              		.loc 2 607 3 view .LVU963
 3263              		.loc 2 609 3 view .LVU964
 3264              	.LBE737:
 3265              	.LBE736:
 3266              		.loc 6 435 10 is_stmt 0 view .LVU965
 3267 04b8 1046     		mov	r0, r2
 3268              	.LVL156:
 3269              		.loc 6 435 10 view .LVU966
 3270              	.LBE735:
 3271              	.LBE734:
 3272              		.loc 1 884 57 view .LVU967
 3273 04ba 10B4     		push	{r4}
 3274              		.cfi_def_cfa_offset 4
 3275              		.cfi_offset 4, -4
 3276              	.LBB742:
 3277              	.LBB740:
 3278              	.LBB739:
 3279              	.LBB738:
 3280              		.loc 2 609 36 view .LVU968
 3281 04bc 1468     		ldr	r4, [r2]
 3282              		.loc 2 609 25 view .LVU969
 3283 04be 1C60     		str	r4, [r3]
 3284              		.loc 2 610 3 is_stmt 1 view .LVU970
 3285              		.loc 2 610 25 is_stmt 0 view .LVU971
 3286 04c0 6360     		str	r3, [r4, #4]
 3287              		.loc 2 612 3 is_stmt 1 view .LVU972
ARM GAS  /tmp/cc23GjE5.s 			page 59


 3288              	.LVL157:
 3289              		.loc 2 612 3 is_stmt 0 view .LVU973
 3290              	.LBE738:
 3291              	.LBE739:
 3292              		.loc 6 432 3 is_stmt 1 view .LVU974
 3293              		.loc 6 432 3 view .LVU975
 3294              		.loc 6 434 3 view .LVU976
 3295              		.loc 6 434 16 is_stmt 0 view .LVU977
 3296 04c2 5162     		str	r1, [r2, #36]
 3297              		.loc 6 435 3 is_stmt 1 view .LVU978
 3298              	.LBE740:
 3299              	.LBE742:
 3300              		.loc 1 889 1 is_stmt 0 view .LVU979
 3301 04c4 5DF8044B 		ldr	r4, [sp], #4
 3302              		.cfi_restore 4
 3303              		.cfi_def_cfa_offset 0
 3304              	.LBB743:
 3305              	.LBB741:
 3306              		.loc 6 435 10 view .LVU980
 3307 04c8 FFF7FEBF 		b	chSchReadyI
 3308              	.LVL158:
 3309              	.L107:
 3310              		.loc 6 435 10 view .LVU981
 3311 04cc 7047     		bx	lr
 3312              	.LBE741:
 3313              	.LBE743:
 3314              		.cfi_endproc
 3315              	.LFE347:
 3316              		.size	chThdDequeueNextI, .-chThdDequeueNextI
 3317              		.align	1
 3318 04ce 00BF     		.p2align 4,,15
 3319              		.global	chThdDequeueAllI
 3320              		.syntax unified
 3321              		.thumb
 3322              		.thumb_func
 3323              		.fpu fpv4-sp-d16
 3324              		.type	chThdDequeueAllI, %function
 3325              	chThdDequeueAllI:
 3326              	.LVL159:
 3327              	.LFB348:
 3328              		.loc 1 899 56 is_stmt 1 view -0
 3329              		.cfi_startproc
 3330              		@ args = 0, pretend = 0, frame = 0
 3331              		@ frame_needed = 0, uses_anonymous_args = 0
 3332              		.loc 1 901 3 view .LVU983
 3333              	.LBB744:
 3334              	.LBI744:
 3335              		.loc 2 564 20 view .LVU984
 3336              	.LBB745:
 3337              		.loc 2 566 3 view .LVU985
 3338              	.LBE745:
 3339              	.LBE744:
 3340              		.loc 1 899 56 is_stmt 0 view .LVU986
 3341 04d0 38B5     		push	{r3, r4, r5, lr}
 3342              		.cfi_def_cfa_offset 16
 3343              		.cfi_offset 3, -16
 3344              		.cfi_offset 4, -12
ARM GAS  /tmp/cc23GjE5.s 			page 60


 3345              		.cfi_offset 5, -8
 3346              		.cfi_offset 14, -4
 3347              	.LBB748:
 3348              	.LBB746:
 3349              		.loc 2 566 20 view .LVU987
 3350 04d2 0368     		ldr	r3, [r0]
 3351              	.LVL160:
 3352              		.loc 2 566 20 view .LVU988
 3353              	.LBE746:
 3354              	.LBE748:
 3355              		.loc 1 901 9 view .LVU989
 3356 04d4 9842     		cmp	r0, r3
 3357 04d6 0BD0     		beq	.L112
 3358 04d8 0446     		mov	r4, r0
 3359 04da 0D46     		mov	r5, r1
 3360              	.LVL161:
 3361              	.L114:
 3362              		.loc 1 902 5 is_stmt 1 view .LVU990
 3363              	.LBB749:
 3364              	.LBI749:
 3365              		.loc 6 425 20 view .LVU991
 3366              	.LBB750:
 3367              		.loc 6 426 3 view .LVU992
 3368              		.loc 6 428 3 view .LVU993
 3369              		.loc 6 428 3 view .LVU994
 3370              		.loc 6 430 3 view .LVU995
 3371              	.LBB751:
 3372              	.LBI751:
 3373              		.loc 2 606 25 view .LVU996
 3374              	.LBB752:
 3375              		.loc 2 607 3 view .LVU997
 3376              		.loc 2 609 3 view .LVU998
 3377              		.loc 2 609 36 is_stmt 0 view .LVU999
 3378 04dc 1A68     		ldr	r2, [r3]
 3379              	.LBE752:
 3380              	.LBE751:
 3381              		.loc 6 435 10 view .LVU1000
 3382 04de 1846     		mov	r0, r3
 3383              	.LBB754:
 3384              	.LBB753:
 3385              		.loc 2 609 25 view .LVU1001
 3386 04e0 2260     		str	r2, [r4]
 3387              		.loc 2 610 3 is_stmt 1 view .LVU1002
 3388              		.loc 2 610 25 is_stmt 0 view .LVU1003
 3389 04e2 5460     		str	r4, [r2, #4]
 3390              		.loc 2 612 3 is_stmt 1 view .LVU1004
 3391              	.LVL162:
 3392              		.loc 2 612 3 is_stmt 0 view .LVU1005
 3393              	.LBE753:
 3394              	.LBE754:
 3395              		.loc 6 432 3 is_stmt 1 view .LVU1006
 3396              		.loc 6 432 3 view .LVU1007
 3397              		.loc 6 434 3 view .LVU1008
 3398              		.loc 6 434 16 is_stmt 0 view .LVU1009
 3399 04e4 5D62     		str	r5, [r3, #36]
 3400              		.loc 6 435 3 is_stmt 1 view .LVU1010
 3401              		.loc 6 435 10 is_stmt 0 view .LVU1011
ARM GAS  /tmp/cc23GjE5.s 			page 61


 3402 04e6 FFF7FEFF 		bl	chSchReadyI
 3403              	.LVL163:
 3404              		.loc 6 435 10 view .LVU1012
 3405              	.LBE750:
 3406              	.LBE749:
 3407              	.LBB755:
 3408              		.loc 2 564 20 is_stmt 1 view .LVU1013
 3409              	.LBB747:
 3410              		.loc 2 566 3 view .LVU1014
 3411              		.loc 2 566 20 is_stmt 0 view .LVU1015
 3412 04ea 2368     		ldr	r3, [r4]
 3413              	.LVL164:
 3414              		.loc 2 566 20 view .LVU1016
 3415              	.LBE747:
 3416              	.LBE755:
 3417              		.loc 1 901 9 view .LVU1017
 3418 04ec 9C42     		cmp	r4, r3
 3419 04ee F5D1     		bne	.L114
 3420              	.LVL165:
 3421              	.L112:
 3422              		.loc 1 904 1 view .LVU1018
 3423 04f0 38BD     		pop	{r3, r4, r5, pc}
 3424              		.cfi_endproc
 3425              	.LFE348:
 3426              		.size	chThdDequeueAllI, .-chThdDequeueAllI
 3427              		.section	.rodata.str1.4,"aMS",%progbits,1
 3428              		.align	2
 3429              	.LC0:
 3430 0000 6E6F6E61 		.ascii	"noname\000"
 3430      6D6500
 3431              		.text
 3432              	.Letext0:
 3433              		.file 10 "/home/nicolas/arm/gcc-arm-none-eabi-8-2019-q3-update/lib/gcc/arm-none-eabi/8.3.1/include
 3434              		.file 11 "/home/nicolas/arm/gcc-arm-none-eabi-8-2019-q3-update/arm-none-eabi/include/machine/_defa
 3435              		.file 12 "/home/nicolas/arm/gcc-arm-none-eabi-8-2019-q3-update/arm-none-eabi/include/sys/_stdint.h
 3436              		.file 13 "../../../external/ChibiOS/os/common/ports/ARMCMx/compilers/GCC/chtypes.h"
 3437              		.file 14 "../../../external/ChibiOS/os/rt/include/chsystypes.h"
 3438              		.file 15 "../../../external/ChibiOS/os/common/ext/ARM/CMSIS/Core/Include/core_cm7.h"
 3439              		.file 16 "../../../external/ChibiOS/os/common/ext/ST/STM32H7xx/system_stm32h7xx.h"
 3440              		.file 17 "../../../external/ChibiOS/os/common/ports/ARMCMx/chcore.h"
 3441              		.file 18 "../../../external/ChibiOS/os/rt/include/chtrace.h"
 3442              		.file 19 "../../../external/ChibiOS/os/rt/include/chtm.h"
 3443              		.file 20 "../../../external/ChibiOS/os/rt/include/chsem.h"
 3444              		.file 21 "../../../external/ChibiOS/os/rt/include/chmtx.h"
 3445              		.file 22 "../../../external/ChibiOS/os/rt/include/chregistry.h"
 3446              		.file 23 "../../../external/ChibiOS/os/oslib/include/chmemcore.h"
 3447              		.file 24 "../../../external/ChibiOS/os/oslib/include/chmempools.h"
 3448              		.file 25 "../../../external/ChibiOS/os/oslib/include/chfactory.h"
 3449              		.file 26 "../../../external/ChibiOS/os/oslib/include/chmemheaps.h"