ARM GAS  /tmp/ccOddNcm.s 			page 1


   1              		.cpu cortex-m7
   2              		.eabi_attribute 27, 1
   3              		.eabi_attribute 28, 1
   4              		.eabi_attribute 20, 1
   5              		.eabi_attribute 21, 1
   6              		.eabi_attribute 23, 3
   7              		.eabi_attribute 24, 1
   8              		.eabi_attribute 25, 1
   9              		.eabi_attribute 26, 1
  10              		.eabi_attribute 30, 2
  11              		.eabi_attribute 34, 1
  12              		.eabi_attribute 18, 4
  13              		.file	"chtm.c"
  14              		.text
  15              	.Ltext0:
  16              		.cfi_sections	.debug_frame
  17              		.align	1
  18              		.p2align 4,,15
  19              		.global	chTMObjectInit
  20              		.arch armv7e-m
  21              		.syntax unified
  22              		.thumb
  23              		.thumb_func
  24              		.fpu fpv4-sp-d16
  25              		.type	chTMObjectInit, %function
  26              	chTMObjectInit:
  27              	.LVL0:
  28              	.LFB325:
  29              		.file 1 "../../../external/ChibiOS/os/rt/src/chtm.c"
  30              		.loc 1 109 46 view -0
  31              		.cfi_startproc
  32              		@ args = 0, pretend = 0, frame = 0
  33              		@ frame_needed = 0, uses_anonymous_args = 0
  34              		@ link register save eliminated.
  35              		.loc 1 111 3 view .LVU1
  36              		.loc 1 109 46 is_stmt 0 view .LVU2
  37 0000 30B4     		push	{r4, r5}
  38              		.cfi_def_cfa_offset 8
  39              		.cfi_offset 4, -8
  40              		.cfi_offset 5, -4
  41              		.loc 1 112 19 view .LVU3
  42 0002 0023     		movs	r3, #0
  43              		.loc 1 115 19 view .LVU4
  44 0004 0024     		movs	r4, #0
  45 0006 0025     		movs	r5, #0
  46              		.loc 1 111 19 view .LVU5
  47 0008 4FF0FF32 		mov	r2, #-1
  48              		.loc 1 115 19 view .LVU6
  49 000c C0E90445 		strd	r4, [r0, #16]
  50              		.loc 1 112 19 view .LVU7
  51 0010 C0E90023 		strd	r2, r3, [r0]
  52              		.loc 1 113 3 is_stmt 1 view .LVU8
  53              		.loc 1 114 19 is_stmt 0 view .LVU9
  54 0014 C0E90233 		strd	r3, r3, [r0, #8]
  55              		.loc 1 115 3 is_stmt 1 view .LVU10
  56              		.loc 1 116 1 is_stmt 0 view .LVU11
  57 0018 30BC     		pop	{r4, r5}
ARM GAS  /tmp/ccOddNcm.s 			page 2


  58              		.cfi_restore 5
  59              		.cfi_restore 4
  60              		.cfi_def_cfa_offset 0
  61 001a 7047     		bx	lr
  62              		.cfi_endproc
  63              	.LFE325:
  64              		.size	chTMObjectInit, .-chTMObjectInit
  65              		.align	1
  66 001c AFF30080 		.p2align 4,,15
  67              		.global	chTMStartMeasurementX
  68              		.syntax unified
  69              		.thumb
  70              		.thumb_func
  71              		.fpu fpv4-sp-d16
  72              		.type	chTMStartMeasurementX, %function
  73              	chTMStartMeasurementX:
  74              	.LVL1:
  75              	.LFB326:
  76              		.loc 1 126 62 is_stmt 1 view -0
  77              		.cfi_startproc
  78              		@ args = 0, pretend = 0, frame = 0
  79              		@ frame_needed = 0, uses_anonymous_args = 0
  80              		@ link register save eliminated.
  81              		.loc 1 128 3 view .LVU13
  82              	.LBB18:
  83              	.LBI18:
  84              		.file 2 "../../../external/ChibiOS/os/common/ports/ARMCMx/chcore_v7m.h"
  85              		.loc 2 781 30 view .LVU14
  86              	.LBB19:
  87              		.loc 2 783 3 view .LVU15
  88              		.loc 2 783 13 is_stmt 0 view .LVU16
  89 0020 014B     		ldr	r3, .L5
  90 0022 5B68     		ldr	r3, [r3, #4]
  91              	.LBE19:
  92              	.LBE18:
  93              		.loc 1 128 13 view .LVU17
  94 0024 8360     		str	r3, [r0, #8]
  95              		.loc 1 129 1 view .LVU18
  96 0026 7047     		bx	lr
  97              	.L6:
  98              		.align	2
  99              	.L5:
 100 0028 001000E0 		.word	-536866816
 101              		.cfi_endproc
 102              	.LFE326:
 103              		.size	chTMStartMeasurementX, .-chTMStartMeasurementX
 104              		.align	1
 105 002c AFF30080 		.p2align 4,,15
 106              		.global	chTMStopMeasurementX
 107              		.syntax unified
 108              		.thumb
 109              		.thumb_func
 110              		.fpu fpv4-sp-d16
 111              		.type	chTMStopMeasurementX, %function
 112              	chTMStopMeasurementX:
 113              	.LVL2:
 114              	.LFB327:
ARM GAS  /tmp/ccOddNcm.s 			page 3


 115              		.loc 1 139 61 is_stmt 1 view -0
 116              		.cfi_startproc
 117              		@ args = 0, pretend = 0, frame = 0
 118              		@ frame_needed = 0, uses_anonymous_args = 0
 119              		@ link register save eliminated.
 120              		.loc 1 141 3 view .LVU20
 121              	.LBB20:
 122              	.LBI20:
 123              		.loc 2 781 30 view .LVU21
 124              	.LBB21:
 125              		.loc 2 783 3 view .LVU22
 126              		.loc 2 783 13 is_stmt 0 view .LVU23
 127 0030 104B     		ldr	r3, .L11
 128              	.LBE21:
 129              	.LBE20:
 130              		.loc 1 141 3 view .LVU24
 131 0032 114A     		ldr	r2, .L11+4
 132              	.LBB23:
 133              	.LBB22:
 134              		.loc 2 783 13 view .LVU25
 135 0034 5B68     		ldr	r3, [r3, #4]
 136              	.LBE22:
 137              	.LBE23:
 138              		.loc 1 141 3 view .LVU26
 139 0036 D2F87C28 		ldr	r2, [r2, #2172]
 140              	.LVL3:
 141              	.LBB24:
 142              	.LBI24:
 143              		.loc 1 60 20 is_stmt 1 view .LVU27
 144              	.LBB25:
 145              		.loc 1 64 3 view .LVU28
 146              		.loc 1 64 9 is_stmt 0 view .LVU29
 147 003a C168     		ldr	r1, [r0, #12]
 148              		.loc 1 65 33 view .LVU30
 149 003c 9B1A     		subs	r3, r3, r2
 150              	.LVL4:
 151              		.loc 1 67 6 view .LVU31
 152 003e 4268     		ldr	r2, [r0, #4]
 153              	.LVL5:
 154              		.loc 1 64 9 view .LVU32
 155 0040 0131     		adds	r1, r1, #1
 156              	.LBE25:
 157              	.LBE24:
 158              		.loc 1 139 61 view .LVU33
 159 0042 2DE93008 		push	{r4, r5, fp}
 160              		.cfi_def_cfa_offset 12
 161              		.cfi_offset 4, -12
 162              		.cfi_offset 5, -8
 163              		.cfi_offset 11, -4
 164              	.LBB27:
 165              	.LBB26:
 166              		.loc 1 65 33 view .LVU34
 167 0046 8468     		ldr	r4, [r0, #8]
 168              		.loc 1 64 9 view .LVU35
 169 0048 C160     		str	r1, [r0, #12]
 170              		.loc 1 65 3 is_stmt 1 view .LVU36
 171              		.loc 1 65 33 is_stmt 0 view .LVU37
ARM GAS  /tmp/ccOddNcm.s 			page 4


 172 004a 1B1B     		subs	r3, r3, r4
 173              		.loc 1 66 19 view .LVU38
 174 004c D0E90445 		ldrd	r4, [r0, #16]
 175              		.loc 1 65 13 view .LVU39
 176 0050 8360     		str	r3, [r0, #8]
 177              		.loc 1 66 3 is_stmt 1 view .LVU40
 178              		.loc 1 66 19 is_stmt 0 view .LVU41
 179 0052 14EB030B 		adds	fp, r4, r3
 180 0056 45F1000C 		adc	ip, r5, #0
 181              		.loc 1 67 6 view .LVU42
 182 005a 9342     		cmp	r3, r2
 183              		.loc 1 70 6 view .LVU43
 184 005c 0268     		ldr	r2, [r0]
 185              		.loc 1 68 16 view .LVU44
 186 005e 88BF     		it	hi
 187 0060 4360     		strhi	r3, [r0, #4]
 188              		.loc 1 70 6 view .LVU45
 189 0062 9342     		cmp	r3, r2
 190              		.loc 1 66 19 view .LVU46
 191 0064 C0E904BC 		strd	fp, [r0, #16]
 192              		.loc 1 67 3 is_stmt 1 view .LVU47
 193              		.loc 1 68 5 view .LVU48
 194              		.loc 1 70 3 view .LVU49
 195              		.loc 1 71 5 view .LVU50
 196              		.loc 1 71 15 is_stmt 0 view .LVU51
 197 0068 38BF     		it	cc
 198 006a 0360     		strcc	r3, [r0]
 199              	.LVL6:
 200              		.loc 1 71 15 view .LVU52
 201              	.LBE26:
 202              	.LBE27:
 203              		.loc 1 142 1 view .LVU53
 204 006c BDE83008 		pop	{r4, r5, fp}
 205              		.cfi_restore 11
 206              		.cfi_restore 5
 207              		.cfi_restore 4
 208              		.cfi_def_cfa_offset 0
 209 0070 7047     		bx	lr
 210              	.L12:
 211 0072 00BF     		.align	2
 212              	.L11:
 213 0074 001000E0 		.word	-536866816
 214 0078 00000000 		.word	ch
 215              		.cfi_endproc
 216              	.LFE327:
 217              		.size	chTMStopMeasurementX, .-chTMStopMeasurementX
 218              		.align	1
 219 007c AFF30080 		.p2align 4,,15
 220              		.global	_tm_init
 221              		.syntax unified
 222              		.thumb
 223              		.thumb_func
 224              		.fpu fpv4-sp-d16
 225              		.type	_tm_init, %function
 226              	_tm_init:
 227              	.LFB324:
 228              		.loc 1 84 21 is_stmt 1 view -0
ARM GAS  /tmp/ccOddNcm.s 			page 5


 229              		.cfi_startproc
 230              		@ args = 0, pretend = 0, frame = 24
 231              		@ frame_needed = 0, uses_anonymous_args = 0
 232              		.loc 1 85 3 view .LVU55
 233              		.loc 1 86 3 view .LVU56
 234              		.loc 1 91 3 view .LVU57
 235              		.loc 1 84 21 is_stmt 0 view .LVU58
 236 0080 30B5     		push	{r4, r5, lr}
 237              		.cfi_def_cfa_offset 12
 238              		.cfi_offset 4, -12
 239              		.cfi_offset 5, -8
 240              		.cfi_offset 14, -4
 241              		.loc 1 91 16 view .LVU59
 242 0082 0023     		movs	r3, #0
 243              		.loc 1 84 21 view .LVU60
 244 0084 87B0     		sub	sp, sp, #28
 245              		.cfi_def_cfa_offset 40
 246              		.loc 1 91 16 view .LVU61
 247 0086 0D4D     		ldr	r5, .L17
 248              	.LBB28:
 249              	.LBB29:
 250              		.loc 1 111 19 view .LVU62
 251 0088 4FF0FF32 		mov	r2, #-1
 252              		.loc 1 115 19 view .LVU63
 253 008c 0020     		movs	r0, #0
 254 008e 0021     		movs	r1, #0
 255 0090 0424     		movs	r4, #4
 256              	.LBE29:
 257              	.LBE28:
 258              		.loc 1 91 16 view .LVU64
 259 0092 C5F87C38 		str	r3, [r5, #2172]
 260              		.loc 1 92 3 is_stmt 1 view .LVU65
 261              	.LVL7:
 262              	.LBB31:
 263              	.LBI28:
 264              		.loc 1 109 6 view .LVU66
 265              	.LBB30:
 266              		.loc 1 111 3 view .LVU67
 267              		.loc 1 114 19 is_stmt 0 view .LVU68
 268 0096 0393     		str	r3, [sp, #12]
 269              		.loc 1 111 19 view .LVU69
 270 0098 0092     		str	r2, [sp]
 271              		.loc 1 112 3 is_stmt 1 view .LVU70
 272              		.loc 1 113 3 view .LVU71
 273              		.loc 1 114 3 view .LVU72
 274              		.loc 1 115 3 view .LVU73
 275              		.loc 1 113 19 is_stmt 0 view .LVU74
 276 009a CDE90133 		strd	r3, r3, [sp, #4]
 277              		.loc 1 115 19 view .LVU75
 278 009e CDE90401 		strd	r0, [sp, #16]
 279              	.LVL8:
 280              		.loc 1 115 19 view .LVU76
 281              	.LBE30:
 282              	.LBE31:
 283              		.loc 1 93 3 is_stmt 1 view .LVU77
 284              	.L14:
 285              		.loc 1 94 3 discriminator 1 view .LVU78
ARM GAS  /tmp/ccOddNcm.s 			page 6


 286              		.loc 1 95 5 discriminator 1 view .LVU79
 287 00a2 6846     		mov	r0, sp
 288 00a4 FFF7FEFF 		bl	chTMStartMeasurementX
 289              	.LVL9:
 290              		.loc 1 96 5 discriminator 1 view .LVU80
 291 00a8 6846     		mov	r0, sp
 292 00aa FFF7FEFF 		bl	chTMStopMeasurementX
 293              	.LVL10:
 294              		.loc 1 97 5 discriminator 1 view .LVU81
 295              		.loc 1 98 3 is_stmt 0 discriminator 1 view .LVU82
 296 00ae 013C     		subs	r4, r4, #1
 297              	.LVL11:
 298              		.loc 1 98 3 discriminator 1 view .LVU83
 299 00b0 F7D1     		bne	.L14
 300              		.loc 1 99 3 is_stmt 1 view .LVU84
 301              		.loc 1 99 16 is_stmt 0 view .LVU85
 302 00b2 009B     		ldr	r3, [sp]
 303 00b4 C5F87C38 		str	r3, [r5, #2172]
 304              		.loc 1 100 1 view .LVU86
 305 00b8 07B0     		add	sp, sp, #28
 306              		.cfi_def_cfa_offset 12
 307              		@ sp needed
 308 00ba 30BD     		pop	{r4, r5, pc}
 309              	.LVL12:
 310              	.L18:
 311              		.loc 1 100 1 view .LVU87
 312              		.align	2
 313              	.L17:
 314 00bc 00000000 		.word	ch
 315              		.cfi_endproc
 316              	.LFE324:
 317              		.size	_tm_init, .-_tm_init
 318              		.align	1
 319              		.p2align 4,,15
 320              		.global	chTMChainMeasurementToX
 321              		.syntax unified
 322              		.thumb
 323              		.thumb_func
 324              		.fpu fpv4-sp-d16
 325              		.type	chTMChainMeasurementToX, %function
 326              	chTMChainMeasurementToX:
 327              	.LVL13:
 328              	.LFB328:
 329              		.loc 1 157 65 is_stmt 1 view -0
 330              		.cfi_startproc
 331              		@ args = 0, pretend = 0, frame = 0
 332              		@ frame_needed = 0, uses_anonymous_args = 0
 333              		@ link register save eliminated.
 334              		.loc 1 160 3 view .LVU89
 335              	.LBB32:
 336              	.LBI32:
 337              		.loc 2 781 30 view .LVU90
 338              	.LBB33:
 339              		.loc 2 783 3 view .LVU91
 340              		.loc 2 783 13 is_stmt 0 view .LVU92
 341 00c0 0E4B     		ldr	r3, .L23
 342              	.LBE33:
ARM GAS  /tmp/ccOddNcm.s 			page 7


 343              	.LBE32:
 344              	.LBB35:
 345              	.LBB36:
 346              		.loc 1 64 9 view .LVU93
 347 00c2 C268     		ldr	r2, [r0, #12]
 348              	.LBE36:
 349              	.LBE35:
 350              	.LBB39:
 351              	.LBB34:
 352              		.loc 2 783 13 view .LVU94
 353 00c4 5B68     		ldr	r3, [r3, #4]
 354              	.LBE34:
 355              	.LBE39:
 356              	.LBB40:
 357              	.LBB37:
 358              		.loc 1 64 9 view .LVU95
 359 00c6 0132     		adds	r2, r2, #1
 360              	.LBE37:
 361              	.LBE40:
 362              		.loc 1 157 65 view .LVU96
 363 00c8 2DE93008 		push	{r4, r5, fp}
 364              		.cfi_def_cfa_offset 12
 365              		.cfi_offset 4, -12
 366              		.cfi_offset 5, -8
 367              		.cfi_offset 11, -4
 368              		.loc 1 160 14 view .LVU97
 369 00cc 8B60     		str	r3, [r1, #8]
 370              		.loc 1 163 3 is_stmt 1 view .LVU98
 371              	.LVL14:
 372              	.LBB41:
 373              	.LBI35:
 374              		.loc 1 60 20 view .LVU99
 375              	.LBB38:
 376              		.loc 1 64 3 view .LVU100
 377              		.loc 1 65 20 is_stmt 0 view .LVU101
 378 00ce 8468     		ldr	r4, [r0, #8]
 379              		.loc 1 67 6 view .LVU102
 380 00d0 4168     		ldr	r1, [r0, #4]
 381              	.LVL15:
 382              		.loc 1 65 20 view .LVU103
 383 00d2 1B1B     		subs	r3, r3, r4
 384              	.LVL16:
 385              		.loc 1 64 9 view .LVU104
 386 00d4 C260     		str	r2, [r0, #12]
 387              		.loc 1 65 3 is_stmt 1 view .LVU105
 388              		.loc 1 70 6 is_stmt 0 view .LVU106
 389 00d6 0268     		ldr	r2, [r0]
 390              		.loc 1 65 13 view .LVU107
 391 00d8 8360     		str	r3, [r0, #8]
 392              	.LVL17:
 393              		.loc 1 66 3 is_stmt 1 view .LVU108
 394              		.loc 1 66 19 is_stmt 0 view .LVU109
 395 00da D0E90445 		ldrd	r4, [r0, #16]
 396 00de 14EB030B 		adds	fp, r4, r3
 397 00e2 45F1000C 		adc	ip, r5, #0
 398              		.loc 1 67 6 view .LVU110
 399 00e6 8B42     		cmp	r3, r1
ARM GAS  /tmp/ccOddNcm.s 			page 8


 400              		.loc 1 68 16 view .LVU111
 401 00e8 88BF     		it	hi
 402 00ea 4360     		strhi	r3, [r0, #4]
 403              		.loc 1 70 6 view .LVU112
 404 00ec 9342     		cmp	r3, r2
 405              		.loc 1 66 19 view .LVU113
 406 00ee C0E904BC 		strd	fp, [r0, #16]
 407              		.loc 1 67 3 is_stmt 1 view .LVU114
 408              		.loc 1 68 5 view .LVU115
 409              		.loc 1 70 3 view .LVU116
 410              		.loc 1 71 5 view .LVU117
 411              		.loc 1 71 15 is_stmt 0 view .LVU118
 412 00f2 38BF     		it	cc
 413 00f4 0360     		strcc	r3, [r0]
 414              	.LVL18:
 415              		.loc 1 71 15 view .LVU119
 416              	.LBE38:
 417              	.LBE41:
 418              		.loc 1 164 1 view .LVU120
 419 00f6 BDE83008 		pop	{r4, r5, fp}
 420              		.cfi_restore 11
 421              		.cfi_restore 5
 422              		.cfi_restore 4
 423              		.cfi_def_cfa_offset 0
 424 00fa 7047     		bx	lr
 425              	.L24:
 426              		.align	2
 427              	.L23:
 428 00fc 001000E0 		.word	-536866816
 429              		.cfi_endproc
 430              	.LFE328:
 431              		.size	chTMChainMeasurementToX, .-chTMChainMeasurementToX
 432              	.Letext0:
 433              		.file 3 "/home/nicolas/arm/gcc-arm-none-eabi-8-2019-q3-update/lib/gcc/arm-none-eabi/8.3.1/include/
 434              		.file 4 "/home/nicolas/arm/gcc-arm-none-eabi-8-2019-q3-update/arm-none-eabi/include/machine/_defau
 435              		.file 5 "/home/nicolas/arm/gcc-arm-none-eabi-8-2019-q3-update/arm-none-eabi/include/sys/_stdint.h"
 436              		.file 6 "../../../external/ChibiOS/os/common/ports/ARMCMx/compilers/GCC/chtypes.h"
 437              		.file 7 "../../../external/ChibiOS/os/rt/include/chsystypes.h"
 438              		.file 8 "../../../external/ChibiOS/os/rt/include/chschd.h"
 439              		.file 9 "../../../external/ChibiOS/os/rt/include/chtime.h"
 440              		.file 10 "../../../external/ChibiOS/os/common/ext/ARM/CMSIS/Core/Include/core_cm7.h"
 441              		.file 11 "../../../external/ChibiOS/os/common/ext/ST/STM32H7xx/system_stm32h7xx.h"
 442              		.file 12 "../../../external/ChibiOS/os/common/ports/ARMCMx/chcore.h"
 443              		.file 13 "../../../external/ChibiOS/os/rt/include/chtrace.h"
 444              		.file 14 "../../../external/ChibiOS/os/rt/include/chtm.h"
 445              		.file 15 "../../../external/ChibiOS/os/rt/include/chsem.h"
 446              		.file 16 "../../../external/ChibiOS/os/rt/include/chmtx.h"
 447              		.file 17 "../../../external/ChibiOS/os/rt/include/chsys.h"
 448              		.file 18 "../../../external/ChibiOS/os/rt/include/chregistry.h"
 449              		.file 19 "../../../external/ChibiOS/os/oslib/include/chmemcore.h"
 450              		.file 20 "../../../external/ChibiOS/os/oslib/include/chmempools.h"
 451              		.file 21 "../../../external/ChibiOS/os/oslib/include/chfactory.h"
 452              		.section	.debug_info,"",%progbits
 453              	.Ldebug_info0:
 454 0000 BF100000 		.4byte	0x10bf
 455 0004 0400     		.2byte	0x4
 456 0006 00000000 		.4byte	.Ldebug_abbrev0
ARM GAS  /tmp/ccOddNcm.s 			page 9


 457 000a 04       		.byte	0x4
 458 000b 01       		.uleb128 0x1
 459 000c 15080000 		.4byte	.LASF191
 460 0010 0C       		.byte	0xc
 461 0011 72030000 		.4byte	.LASF192
 462 0015 CD010000 		.4byte	.LASF193
 463 0019 00000000 		.4byte	.Ltext0
 464 001d 00010000 		.4byte	.Letext0-.Ltext0
 465 0021 00000000 		.4byte	.Ldebug_line0
 466 0025 02       		.uleb128 0x2
 467 0026 04       		.byte	0x4
 468 0027 05       		.byte	0x5
 469 0028 696E7400 		.ascii	"int\000"
 470 002c 03       		.uleb128 0x3
 471 002d 04020000 		.4byte	.LASF4
 472 0031 03       		.byte	0x3
 473 0032 D8       		.byte	0xd8
 474 0033 17       		.byte	0x17
 475 0034 38000000 		.4byte	0x38
 476 0038 04       		.uleb128 0x4
 477 0039 04       		.byte	0x4
 478 003a 07       		.byte	0x7
 479 003b AC040000 		.4byte	.LASF0
 480 003f 04       		.uleb128 0x4
 481 0040 08       		.byte	0x8
 482 0041 05       		.byte	0x5
 483 0042 08010000 		.4byte	.LASF1
 484 0046 04       		.uleb128 0x4
 485 0047 08       		.byte	0x8
 486 0048 04       		.byte	0x4
 487 0049 89060000 		.4byte	.LASF2
 488 004d 04       		.uleb128 0x4
 489 004e 01       		.byte	0x1
 490 004f 06       		.byte	0x6
 491 0050 16010000 		.4byte	.LASF3
 492 0054 03       		.uleb128 0x3
 493 0055 48000000 		.4byte	.LASF5
 494 0059 04       		.byte	0x4
 495 005a 2B       		.byte	0x2b
 496 005b 18       		.byte	0x18
 497 005c 60000000 		.4byte	0x60
 498 0060 04       		.uleb128 0x4
 499 0061 01       		.byte	0x1
 500 0062 08       		.byte	0x8
 501 0063 11070000 		.4byte	.LASF6
 502 0067 04       		.uleb128 0x4
 503 0068 02       		.byte	0x2
 504 0069 05       		.byte	0x5
 505 006a D1050000 		.4byte	.LASF7
 506 006e 03       		.uleb128 0x3
 507 006f B0060000 		.4byte	.LASF8
 508 0073 04       		.byte	0x4
 509 0074 39       		.byte	0x39
 510 0075 19       		.byte	0x19
 511 0076 7A000000 		.4byte	0x7a
 512 007a 04       		.uleb128 0x4
 513 007b 02       		.byte	0x2
ARM GAS  /tmp/ccOddNcm.s 			page 10


 514 007c 07       		.byte	0x7
 515 007d FE060000 		.4byte	.LASF9
 516 0081 03       		.uleb128 0x3
 517 0082 C0030000 		.4byte	.LASF10
 518 0086 04       		.byte	0x4
 519 0087 4D       		.byte	0x4d
 520 0088 18       		.byte	0x18
 521 0089 8D000000 		.4byte	0x8d
 522 008d 04       		.uleb128 0x4
 523 008e 04       		.byte	0x4
 524 008f 05       		.byte	0x5
 525 0090 5B010000 		.4byte	.LASF11
 526 0094 03       		.uleb128 0x3
 527 0095 C2010000 		.4byte	.LASF12
 528 0099 04       		.byte	0x4
 529 009a 4F       		.byte	0x4f
 530 009b 19       		.byte	0x19
 531 009c A0000000 		.4byte	0xa0
 532 00a0 04       		.uleb128 0x4
 533 00a1 04       		.byte	0x4
 534 00a2 07       		.byte	0x7
 535 00a3 22010000 		.4byte	.LASF13
 536 00a7 03       		.uleb128 0x3
 537 00a8 F6040000 		.4byte	.LASF14
 538 00ac 04       		.byte	0x4
 539 00ad 69       		.byte	0x69
 540 00ae 19       		.byte	0x19
 541 00af B3000000 		.4byte	0xb3
 542 00b3 04       		.uleb128 0x4
 543 00b4 08       		.byte	0x8
 544 00b5 07       		.byte	0x7
 545 00b6 CA030000 		.4byte	.LASF15
 546 00ba 03       		.uleb128 0x3
 547 00bb DB060000 		.4byte	.LASF16
 548 00bf 05       		.byte	0x5
 549 00c0 18       		.byte	0x18
 550 00c1 13       		.byte	0x13
 551 00c2 54000000 		.4byte	0x54
 552 00c6 05       		.uleb128 0x5
 553 00c7 BA000000 		.4byte	0xba
 554 00cb 03       		.uleb128 0x3
 555 00cc 83010000 		.4byte	.LASF17
 556 00d0 05       		.byte	0x5
 557 00d1 24       		.byte	0x24
 558 00d2 14       		.byte	0x14
 559 00d3 6E000000 		.4byte	0x6e
 560 00d7 03       		.uleb128 0x3
 561 00d8 79050000 		.4byte	.LASF18
 562 00dc 05       		.byte	0x5
 563 00dd 2C       		.byte	0x2c
 564 00de 13       		.byte	0x13
 565 00df 81000000 		.4byte	0x81
 566 00e3 06       		.uleb128 0x6
 567 00e4 D7000000 		.4byte	0xd7
 568 00e8 03       		.uleb128 0x3
 569 00e9 63060000 		.4byte	.LASF19
 570 00ed 05       		.byte	0x5
ARM GAS  /tmp/ccOddNcm.s 			page 11


 571 00ee 30       		.byte	0x30
 572 00ef 14       		.byte	0x14
 573 00f0 94000000 		.4byte	0x94
 574 00f4 06       		.uleb128 0x6
 575 00f5 E8000000 		.4byte	0xe8
 576 00f9 05       		.uleb128 0x5
 577 00fa F4000000 		.4byte	0xf4
 578 00fe 03       		.uleb128 0x3
 579 00ff 3F000000 		.4byte	.LASF20
 580 0103 05       		.byte	0x5
 581 0104 3C       		.byte	0x3c
 582 0105 14       		.byte	0x14
 583 0106 A7000000 		.4byte	0xa7
 584 010a 03       		.uleb128 0x3
 585 010b 46040000 		.4byte	.LASF21
 586 010f 06       		.byte	0x6
 587 0110 27       		.byte	0x27
 588 0111 1D       		.byte	0x1d
 589 0112 E8000000 		.4byte	0xe8
 590 0116 03       		.uleb128 0x3
 591 0117 05000000 		.4byte	.LASF22
 592 011b 06       		.byte	0x6
 593 011c 28       		.byte	0x28
 594 011d 1D       		.byte	0x1d
 595 011e FE000000 		.4byte	0xfe
 596 0122 03       		.uleb128 0x3
 597 0123 6A030000 		.4byte	.LASF23
 598 0127 06       		.byte	0x6
 599 0128 2A       		.byte	0x2a
 600 0129 1D       		.byte	0x1d
 601 012a BA000000 		.4byte	0xba
 602 012e 03       		.uleb128 0x3
 603 012f 64010000 		.4byte	.LASF24
 604 0133 06       		.byte	0x6
 605 0134 2B       		.byte	0x2b
 606 0135 1D       		.byte	0x1d
 607 0136 BA000000 		.4byte	0xba
 608 013a 03       		.uleb128 0x3
 609 013b 16050000 		.4byte	.LASF25
 610 013f 06       		.byte	0x6
 611 0140 2C       		.byte	0x2c
 612 0141 1D       		.byte	0x1d
 613 0142 BA000000 		.4byte	0xba
 614 0146 03       		.uleb128 0x3
 615 0147 60050000 		.4byte	.LASF26
 616 014b 06       		.byte	0x6
 617 014c 2E       		.byte	0x2e
 618 014d 1D       		.byte	0x1d
 619 014e E8000000 		.4byte	0xe8
 620 0152 03       		.uleb128 0x3
 621 0153 30030000 		.4byte	.LASF27
 622 0157 06       		.byte	0x6
 623 0158 2F       		.byte	0x2f
 624 0159 1D       		.byte	0x1d
 625 015a D7000000 		.4byte	0xd7
 626 015e 03       		.uleb128 0x3
 627 015f AB030000 		.4byte	.LASF28
ARM GAS  /tmp/ccOddNcm.s 			page 12


 628 0163 06       		.byte	0x6
 629 0164 31       		.byte	0x31
 630 0165 1D       		.byte	0x1d
 631 0166 E8000000 		.4byte	0xe8
 632 016a 03       		.uleb128 0x3
 633 016b 4B020000 		.4byte	.LASF29
 634 016f 06       		.byte	0x6
 635 0170 33       		.byte	0x33
 636 0171 1D       		.byte	0x1d
 637 0172 D7000000 		.4byte	0xd7
 638 0176 03       		.uleb128 0x3
 639 0177 3B030000 		.4byte	.LASF30
 640 017b 06       		.byte	0x6
 641 017c 34       		.byte	0x34
 642 017d 1D       		.byte	0x1d
 643 017e E8000000 		.4byte	0xe8
 644 0182 03       		.uleb128 0x3
 645 0183 C3060000 		.4byte	.LASF31
 646 0187 07       		.byte	0x7
 647 0188 34       		.byte	0x34
 648 0189 1A       		.byte	0x1a
 649 018a 8E010000 		.4byte	0x18e
 650 018e 07       		.uleb128 0x7
 651 018f 1F030000 		.4byte	.LASF49
 652 0193 44       		.byte	0x44
 653 0194 08       		.byte	0x8
 654 0195 8E       		.byte	0x8e
 655 0196 08       		.byte	0x8
 656 0197 7E020000 		.4byte	0x27e
 657 019b 08       		.uleb128 0x8
 658 019c 01030000 		.4byte	.LASF32
 659 01a0 08       		.byte	0x8
 660 01a1 8F       		.byte	0x8f
 661 01a2 19       		.byte	0x19
 662 01a3 B7020000 		.4byte	0x2b7
 663 01a7 00       		.byte	0
 664 01a8 08       		.uleb128 0x8
 665 01a9 E9040000 		.4byte	.LASF33
 666 01ad 08       		.byte	0x8
 667 01ae 90       		.byte	0x90
 668 01af 19       		.byte	0x19
 669 01b0 46010000 		.4byte	0x146
 670 01b4 08       		.byte	0x8
 671 01b5 09       		.uleb128 0x9
 672 01b6 63747800 		.ascii	"ctx\000"
 673 01ba 08       		.byte	0x8
 674 01bb 91       		.byte	0x91
 675 01bc 19       		.byte	0x19
 676 01bd 40080000 		.4byte	0x840
 677 01c1 0C       		.byte	0xc
 678 01c2 08       		.uleb128 0x8
 679 01c3 1A040000 		.4byte	.LASF34
 680 01c7 08       		.byte	0x8
 681 01c8 93       		.byte	0x93
 682 01c9 1A       		.byte	0x1a
 683 01ca 8A020000 		.4byte	0x28a
 684 01ce 10       		.byte	0x10
ARM GAS  /tmp/ccOddNcm.s 			page 13


 685 01cf 08       		.uleb128 0x8
 686 01d0 A1060000 		.4byte	.LASF35
 687 01d4 08       		.byte	0x8
 688 01d5 94       		.byte	0x94
 689 01d6 1A       		.byte	0x1a
 690 01d7 8A020000 		.4byte	0x28a
 691 01db 14       		.byte	0x14
 692 01dc 08       		.uleb128 0x8
 693 01dd FC020000 		.4byte	.LASF36
 694 01e1 08       		.byte	0x8
 695 01e2 9B       		.byte	0x9b
 696 01e3 1A       		.byte	0x1a
 697 01e4 9D080000 		.4byte	0x89d
 698 01e8 18       		.byte	0x18
 699 01e9 08       		.uleb128 0x8
 700 01ea 95060000 		.4byte	.LASF37
 701 01ee 08       		.byte	0x8
 702 01ef A4       		.byte	0xa4
 703 01f0 1A       		.byte	0x1a
 704 01f1 390B0000 		.4byte	0xb39
 705 01f5 1C       		.byte	0x1c
 706 01f6 08       		.uleb128 0x8
 707 01f7 40010000 		.4byte	.LASF38
 708 01fb 08       		.byte	0x8
 709 01fc A9       		.byte	0xa9
 710 01fd 19       		.byte	0x19
 711 01fe 2E010000 		.4byte	0x12e
 712 0202 20       		.byte	0x20
 713 0203 08       		.uleb128 0x8
 714 0204 68070000 		.4byte	.LASF39
 715 0208 08       		.byte	0x8
 716 0209 AD       		.byte	0xad
 717 020a 19       		.byte	0x19
 718 020b 22010000 		.4byte	0x122
 719 020f 21       		.byte	0x21
 720 0210 08       		.uleb128 0x8
 721 0211 3C050000 		.4byte	.LASF40
 722 0215 08       		.byte	0x8
 723 0216 B2       		.byte	0xb2
 724 0217 19       		.byte	0x19
 725 0218 3A010000 		.4byte	0x13a
 726 021c 22       		.byte	0x22
 727 021d 0A       		.uleb128 0xa
 728 021e 7500     		.ascii	"u\000"
 729 0220 08       		.byte	0x8
 730 0221 0301     		.2byte	0x103
 731 0223 19       		.byte	0x19
 732 0224 5F0A0000 		.4byte	0xa5f
 733 0228 24       		.byte	0x24
 734 0229 0B       		.uleb128 0xb
 735 022a 0B020000 		.4byte	.LASF41
 736 022e 08       		.byte	0x8
 737 022f 0801     		.2byte	0x108
 738 0231 19       		.byte	0x19
 739 0232 90020000 		.4byte	0x290
 740 0236 28       		.byte	0x28
 741 0237 0B       		.uleb128 0xb
ARM GAS  /tmp/ccOddNcm.s 			page 14


 742 0238 51020000 		.4byte	.LASF42
 743 023c 08       		.byte	0x8
 744 023d 0E01     		.2byte	0x10e
 745 023f 19       		.byte	0x19
 746 0240 B7020000 		.4byte	0x2b7
 747 0244 2C       		.byte	0x2c
 748 0245 0B       		.uleb128 0xb
 749 0246 42030000 		.4byte	.LASF43
 750 024a 08       		.byte	0x8
 751 024b 1401     		.2byte	0x114
 752 024d 19       		.byte	0x19
 753 024e 5E010000 		.4byte	0x15e
 754 0252 34       		.byte	0x34
 755 0253 0B       		.uleb128 0xb
 756 0254 F8070000 		.4byte	.LASF44
 757 0258 08       		.byte	0x8
 758 0259 1B01     		.2byte	0x11b
 759 025b 1A       		.byte	0x1a
 760 025c 330B0000 		.4byte	0xb33
 761 0260 38       		.byte	0x38
 762 0261 0B       		.uleb128 0xb
 763 0262 2F040000 		.4byte	.LASF45
 764 0266 08       		.byte	0x8
 765 0267 1F01     		.2byte	0x11f
 766 0269 19       		.byte	0x19
 767 026a 46010000 		.4byte	0x146
 768 026e 3C       		.byte	0x3c
 769 026f 0B       		.uleb128 0xb
 770 0270 07030000 		.4byte	.LASF46
 771 0274 08       		.byte	0x8
 772 0275 2601     		.2byte	0x126
 773 0277 1A       		.byte	0x1a
 774 0278 77030000 		.4byte	0x377
 775 027c 40       		.byte	0x40
 776 027d 00       		.byte	0
 777 027e 03       		.uleb128 0x3
 778 027f 92020000 		.4byte	.LASF47
 779 0283 07       		.byte	0x7
 780 0284 39       		.byte	0x39
 781 0285 14       		.byte	0x14
 782 0286 8A020000 		.4byte	0x28a
 783 028a 0C       		.uleb128 0xc
 784 028b 04       		.byte	0x4
 785 028c 82010000 		.4byte	0x182
 786 0290 03       		.uleb128 0x3
 787 0291 9E070000 		.4byte	.LASF48
 788 0295 07       		.byte	0x7
 789 0296 3E       		.byte	0x3e
 790 0297 20       		.byte	0x20
 791 0298 9C020000 		.4byte	0x29c
 792 029c 07       		.uleb128 0x7
 793 029d 73060000 		.4byte	.LASF50
 794 02a1 04       		.byte	0x4
 795 02a2 08       		.byte	0x8
 796 02a3 7C       		.byte	0x7c
 797 02a4 08       		.byte	0x8
 798 02a5 B7020000 		.4byte	0x2b7
ARM GAS  /tmp/ccOddNcm.s 			page 15


 799 02a9 08       		.uleb128 0x8
 800 02aa C9000000 		.4byte	.LASF51
 801 02ae 08       		.byte	0x8
 802 02af 7D       		.byte	0x7d
 803 02b0 1A       		.byte	0x1a
 804 02b1 8A020000 		.4byte	0x28a
 805 02b5 00       		.byte	0
 806 02b6 00       		.byte	0
 807 02b7 03       		.uleb128 0x3
 808 02b8 3D070000 		.4byte	.LASF52
 809 02bc 07       		.byte	0x7
 810 02bd 45       		.byte	0x45
 811 02be 21       		.byte	0x21
 812 02bf C3020000 		.4byte	0x2c3
 813 02c3 07       		.uleb128 0x7
 814 02c4 CE000000 		.4byte	.LASF53
 815 02c8 08       		.byte	0x8
 816 02c9 08       		.byte	0x8
 817 02ca 83       		.byte	0x83
 818 02cb 08       		.byte	0x8
 819 02cc EB020000 		.4byte	0x2eb
 820 02d0 08       		.uleb128 0x8
 821 02d1 C9000000 		.4byte	.LASF51
 822 02d5 08       		.byte	0x8
 823 02d6 84       		.byte	0x84
 824 02d7 1A       		.byte	0x1a
 825 02d8 8A020000 		.4byte	0x28a
 826 02dc 00       		.byte	0
 827 02dd 08       		.uleb128 0x8
 828 02de 00000000 		.4byte	.LASF54
 829 02e2 08       		.byte	0x8
 830 02e3 85       		.byte	0x85
 831 02e4 1A       		.byte	0x1a
 832 02e5 8A020000 		.4byte	0x28a
 833 02e9 04       		.byte	0x4
 834 02ea 00       		.byte	0
 835 02eb 03       		.uleb128 0x3
 836 02ec 0E000000 		.4byte	.LASF55
 837 02f0 07       		.byte	0x7
 838 02f1 4C       		.byte	0x4c
 839 02f2 1E       		.byte	0x1e
 840 02f3 F7020000 		.4byte	0x2f7
 841 02f7 0D       		.uleb128 0xd
 842 02f8 9D030000 		.4byte	.LASF56
 843 02fc 1C       		.byte	0x1c
 844 02fd 08       		.byte	0x8
 845 02fe 5E01     		.2byte	0x15e
 846 0300 08       		.byte	0x8
 847 0301 5A030000 		.4byte	0x35a
 848 0305 0B       		.uleb128 0xb
 849 0306 01030000 		.4byte	.LASF32
 850 030a 08       		.byte	0x8
 851 030b 5F01     		.2byte	0x15f
 852 030d 19       		.byte	0x19
 853 030e B7020000 		.4byte	0x2b7
 854 0312 00       		.byte	0
 855 0313 0B       		.uleb128 0xb
ARM GAS  /tmp/ccOddNcm.s 			page 16


 856 0314 E9040000 		.4byte	.LASF33
 857 0318 08       		.byte	0x8
 858 0319 6001     		.2byte	0x160
 859 031b 19       		.byte	0x19
 860 031c 46010000 		.4byte	0x146
 861 0320 08       		.byte	0x8
 862 0321 0A       		.uleb128 0xa
 863 0322 63747800 		.ascii	"ctx\000"
 864 0326 08       		.byte	0x8
 865 0327 6201     		.2byte	0x162
 866 0329 19       		.byte	0x19
 867 032a 40080000 		.4byte	0x840
 868 032e 0C       		.byte	0xc
 869 032f 0B       		.uleb128 0xb
 870 0330 1A040000 		.4byte	.LASF34
 871 0334 08       		.byte	0x8
 872 0335 6501     		.2byte	0x165
 873 0337 1A       		.byte	0x1a
 874 0338 8A020000 		.4byte	0x28a
 875 033c 10       		.byte	0x10
 876 033d 0B       		.uleb128 0xb
 877 033e A1060000 		.4byte	.LASF35
 878 0342 08       		.byte	0x8
 879 0343 6601     		.2byte	0x166
 880 0345 1A       		.byte	0x1a
 881 0346 8A020000 		.4byte	0x28a
 882 034a 14       		.byte	0x14
 883 034b 0B       		.uleb128 0xb
 884 034c EE040000 		.4byte	.LASF57
 885 0350 08       		.byte	0x8
 886 0351 6901     		.2byte	0x169
 887 0353 1A       		.byte	0x1a
 888 0354 8A020000 		.4byte	0x28a
 889 0358 18       		.byte	0x18
 890 0359 00       		.byte	0
 891 035a 03       		.uleb128 0x3
 892 035b 6D040000 		.4byte	.LASF58
 893 035f 07       		.byte	0x7
 894 0360 51       		.byte	0x51
 895 0361 10       		.byte	0x10
 896 0362 66030000 		.4byte	0x366
 897 0366 0C       		.uleb128 0xc
 898 0367 04       		.byte	0x4
 899 0368 6C030000 		.4byte	0x36c
 900 036c 0E       		.uleb128 0xe
 901 036d 77030000 		.4byte	0x377
 902 0371 0F       		.uleb128 0xf
 903 0372 77030000 		.4byte	0x377
 904 0376 00       		.byte	0
 905 0377 10       		.uleb128 0x10
 906 0378 04       		.byte	0x4
 907 0379 03       		.uleb128 0x3
 908 037a 41050000 		.4byte	.LASF59
 909 037e 07       		.byte	0x7
 910 037f 56       		.byte	0x56
 911 0380 21       		.byte	0x21
 912 0381 85030000 		.4byte	0x385
ARM GAS  /tmp/ccOddNcm.s 			page 17


 913 0385 0D       		.uleb128 0xd
 914 0386 10060000 		.4byte	.LASF60
 915 038a 14       		.byte	0x14
 916 038b 08       		.byte	0x8
 917 038c 3901     		.2byte	0x139
 918 038e 08       		.byte	0x8
 919 038f DA030000 		.4byte	0x3da
 920 0393 0B       		.uleb128 0xb
 921 0394 C9000000 		.4byte	.LASF51
 922 0398 08       		.byte	0x8
 923 0399 3A01     		.2byte	0x13a
 924 039b 1A       		.byte	0x1a
 925 039c 3F0B0000 		.4byte	0xb3f
 926 03a0 00       		.byte	0
 927 03a1 0B       		.uleb128 0xb
 928 03a2 00000000 		.4byte	.LASF54
 929 03a6 08       		.byte	0x8
 930 03a7 3B01     		.2byte	0x13b
 931 03a9 1A       		.byte	0x1a
 932 03aa 3F0B0000 		.4byte	0xb3f
 933 03ae 04       		.byte	0x4
 934 03af 0B       		.uleb128 0xb
 935 03b0 B6000000 		.4byte	.LASF61
 936 03b4 08       		.byte	0x8
 937 03b5 3C01     		.2byte	0x13c
 938 03b7 19       		.byte	0x19
 939 03b8 D4040000 		.4byte	0x4d4
 940 03bc 08       		.byte	0x8
 941 03bd 0B       		.uleb128 0xb
 942 03be 7E010000 		.4byte	.LASF62
 943 03c2 08       		.byte	0x8
 944 03c3 3D01     		.2byte	0x13d
 945 03c5 19       		.byte	0x19
 946 03c6 5A030000 		.4byte	0x35a
 947 03ca 0C       		.byte	0xc
 948 03cb 0A       		.uleb128 0xa
 949 03cc 70617200 		.ascii	"par\000"
 950 03d0 08       		.byte	0x8
 951 03d1 3F01     		.2byte	0x13f
 952 03d3 1A       		.byte	0x1a
 953 03d4 77030000 		.4byte	0x377
 954 03d8 10       		.byte	0x10
 955 03d9 00       		.byte	0
 956 03da 03       		.uleb128 0x3
 957 03db E1030000 		.4byte	.LASF63
 958 03df 07       		.byte	0x7
 959 03e0 5B       		.byte	0x5b
 960 03e1 28       		.byte	0x28
 961 03e2 E6030000 		.4byte	0x3e6
 962 03e6 0D       		.uleb128 0xd
 963 03e7 34020000 		.4byte	.LASF64
 964 03eb 10       		.byte	0x10
 965 03ec 08       		.byte	0x8
 966 03ed 4901     		.2byte	0x149
 967 03ef 08       		.byte	0x8
 968 03f0 2D040000 		.4byte	0x42d
 969 03f4 0B       		.uleb128 0xb
ARM GAS  /tmp/ccOddNcm.s 			page 18


 970 03f5 C9000000 		.4byte	.LASF51
 971 03f9 08       		.byte	0x8
 972 03fa 4A01     		.2byte	0x14a
 973 03fc 1A       		.byte	0x1a
 974 03fd 3F0B0000 		.4byte	0xb3f
 975 0401 00       		.byte	0
 976 0402 0B       		.uleb128 0xb
 977 0403 00000000 		.4byte	.LASF54
 978 0407 08       		.byte	0x8
 979 0408 4C01     		.2byte	0x14c
 980 040a 1A       		.byte	0x1a
 981 040b 3F0B0000 		.4byte	0xb3f
 982 040f 04       		.byte	0x4
 983 0410 0B       		.uleb128 0xb
 984 0411 B6000000 		.4byte	.LASF61
 985 0415 08       		.byte	0x8
 986 0416 4E01     		.2byte	0x14e
 987 0418 19       		.byte	0x19
 988 0419 D4040000 		.4byte	0x4d4
 989 041d 08       		.byte	0x8
 990 041e 0B       		.uleb128 0xb
 991 041f DB050000 		.4byte	.LASF65
 992 0423 08       		.byte	0x8
 993 0424 5601     		.2byte	0x156
 994 0426 19       		.byte	0x19
 995 0427 C8040000 		.4byte	0x4c8
 996 042b 0C       		.byte	0xc
 997 042c 00       		.byte	0
 998 042d 03       		.uleb128 0x3
 999 042e BD020000 		.4byte	.LASF66
 1000 0432 07       		.byte	0x7
 1001 0433 60       		.byte	0x60
 1002 0434 20       		.byte	0x20
 1003 0435 39040000 		.4byte	0x439
 1004 0439 11       		.uleb128 0x11
 1005 043a DE070000 		.4byte	.LASF67
 1006 043e 0C08     		.2byte	0x80c
 1007 0440 08       		.byte	0x8
 1008 0441 7001     		.2byte	0x170
 1009 0443 08       		.byte	0x8
 1010 0444 65040000 		.4byte	0x465
 1011 0448 0B       		.uleb128 0xb
 1012 0449 E3060000 		.4byte	.LASF68
 1013 044d 08       		.byte	0x8
 1014 044e 7801     		.2byte	0x178
 1015 0450 24       		.byte	0x24
 1016 0451 A3080000 		.4byte	0x8a3
 1017 0455 00       		.byte	0
 1018 0456 0B       		.uleb128 0xb
 1019 0457 D1070000 		.4byte	.LASF69
 1020 045b 08       		.byte	0x8
 1021 045c 8701     		.2byte	0x187
 1022 045e 19       		.byte	0x19
 1023 045f DB090000 		.4byte	0x9db
 1024 0463 04       		.byte	0x4
 1025 0464 00       		.byte	0
 1026 0465 03       		.uleb128 0x3
ARM GAS  /tmp/ccOddNcm.s 			page 19


 1027 0466 56030000 		.4byte	.LASF70
 1028 046a 07       		.byte	0x7
 1029 046b 65       		.byte	0x65
 1030 046c 1A       		.byte	0x1a
 1031 046d 71040000 		.4byte	0x471
 1032 0471 11       		.uleb128 0x11
 1033 0472 EB050000 		.4byte	.LASF71
 1034 0476 8008     		.2byte	0x880
 1035 0478 08       		.byte	0x8
 1036 0479 9001     		.2byte	0x190
 1037 047b 08       		.byte	0x8
 1038 047c C8040000 		.4byte	0x4c8
 1039 0480 0B       		.uleb128 0xb
 1040 0481 59070000 		.4byte	.LASF72
 1041 0485 08       		.byte	0x8
 1042 0486 9401     		.2byte	0x194
 1043 0488 19       		.byte	0x19
 1044 0489 EB020000 		.4byte	0x2eb
 1045 048d 00       		.byte	0
 1046 048e 0B       		.uleb128 0xb
 1047 048f 67000000 		.4byte	.LASF73
 1048 0493 08       		.byte	0x8
 1049 0494 9801     		.2byte	0x198
 1050 0496 19       		.byte	0x19
 1051 0497 DA030000 		.4byte	0x3da
 1052 049b 1C       		.byte	0x1c
 1053 049c 0A       		.uleb128 0xa
 1054 049d 64626700 		.ascii	"dbg\000"
 1055 04a1 08       		.byte	0x8
 1056 04a2 9C01     		.2byte	0x19c
 1057 04a4 19       		.byte	0x19
 1058 04a5 2D040000 		.4byte	0x42d
 1059 04a9 2C       		.byte	0x2c
 1060 04aa 12       		.uleb128 0x12
 1061 04ab A3000000 		.4byte	.LASF74
 1062 04af 08       		.byte	0x8
 1063 04b0 A001     		.2byte	0x1a0
 1064 04b2 19       		.byte	0x19
 1065 04b3 82010000 		.4byte	0x182
 1066 04b7 3808     		.2byte	0x838
 1067 04b9 13       		.uleb128 0x13
 1068 04ba 746D00   		.ascii	"tm\000"
 1069 04bd 08       		.byte	0x8
 1070 04be A501     		.2byte	0x1a5
 1071 04c0 19       		.byte	0x19
 1072 04c1 FE090000 		.4byte	0x9fe
 1073 04c5 7C08     		.2byte	0x87c
 1074 04c7 00       		.byte	0
 1075 04c8 03       		.uleb128 0x3
 1076 04c9 D1060000 		.4byte	.LASF75
 1077 04cd 09       		.byte	0x9
 1078 04ce 6D       		.byte	0x6d
 1079 04cf 12       		.byte	0x12
 1080 04d0 E8000000 		.4byte	0xe8
 1081 04d4 03       		.uleb128 0x3
 1082 04d5 26020000 		.4byte	.LASF76
 1083 04d9 09       		.byte	0x9
ARM GAS  /tmp/ccOddNcm.s 			page 20


 1084 04da 79       		.byte	0x79
 1085 04db 12       		.byte	0x12
 1086 04dc E8000000 		.4byte	0xe8
 1087 04e0 14       		.uleb128 0x14
 1088 04e1 E8000000 		.4byte	0xe8
 1089 04e5 F0040000 		.4byte	0x4f0
 1090 04e9 15       		.uleb128 0x15
 1091 04ea 38000000 		.4byte	0x38
 1092 04ee 00       		.byte	0
 1093 04ef 00       		.byte	0
 1094 04f0 16       		.uleb128 0x16
 1095 04f1 B80F     		.2byte	0xfb8
 1096 04f3 0A       		.byte	0xa
 1097 04f4 5C04     		.2byte	0x45c
 1098 04f6 09       		.byte	0x9
 1099 04f7 6A060000 		.4byte	0x66a
 1100 04fb 0B       		.uleb128 0xb
 1101 04fc 2A070000 		.4byte	.LASF77
 1102 0500 0A       		.byte	0xa
 1103 0501 5E04     		.2byte	0x45e
 1104 0503 12       		.byte	0x12
 1105 0504 F4000000 		.4byte	0xf4
 1106 0508 00       		.byte	0
 1107 0509 0B       		.uleb128 0xb
 1108 050a 28040000 		.4byte	.LASF78
 1109 050e 0A       		.byte	0xa
 1110 050f 5F04     		.2byte	0x45f
 1111 0511 12       		.byte	0x12
 1112 0512 F4000000 		.4byte	0xf4
 1113 0516 04       		.byte	0x4
 1114 0517 0B       		.uleb128 0xb
 1115 0518 39010000 		.4byte	.LASF79
 1116 051c 0A       		.byte	0xa
 1117 051d 6004     		.2byte	0x460
 1118 051f 12       		.byte	0x12
 1119 0520 F4000000 		.4byte	0xf4
 1120 0524 08       		.byte	0x8
 1121 0525 0B       		.uleb128 0xb
 1122 0526 29030000 		.4byte	.LASF80
 1123 052a 0A       		.byte	0xa
 1124 052b 6104     		.2byte	0x461
 1125 052d 12       		.byte	0x12
 1126 052e F4000000 		.4byte	0xf4
 1127 0532 0C       		.byte	0xc
 1128 0533 0B       		.uleb128 0xb
 1129 0534 96010000 		.4byte	.LASF81
 1130 0538 0A       		.byte	0xa
 1131 0539 6204     		.2byte	0x462
 1132 053b 12       		.byte	0x12
 1133 053c F4000000 		.4byte	0xf4
 1134 0540 10       		.byte	0x10
 1135 0541 0B       		.uleb128 0xb
 1136 0542 5C060000 		.4byte	.LASF82
 1137 0546 0A       		.byte	0xa
 1138 0547 6304     		.2byte	0x463
 1139 0549 12       		.byte	0x12
 1140 054a F4000000 		.4byte	0xf4
ARM GAS  /tmp/ccOddNcm.s 			page 21


 1141 054e 14       		.byte	0x14
 1142 054f 0B       		.uleb128 0xb
 1143 0550 78070000 		.4byte	.LASF83
 1144 0554 0A       		.byte	0xa
 1145 0555 6404     		.2byte	0x464
 1146 0557 12       		.byte	0x12
 1147 0558 F4000000 		.4byte	0xf4
 1148 055c 18       		.byte	0x18
 1149 055d 0B       		.uleb128 0xb
 1150 055e 80070000 		.4byte	.LASF84
 1151 0562 0A       		.byte	0xa
 1152 0563 6504     		.2byte	0x465
 1153 0565 12       		.byte	0x12
 1154 0566 F9000000 		.4byte	0xf9
 1155 056a 1C       		.byte	0x1c
 1156 056b 0B       		.uleb128 0xb
 1157 056c 2F070000 		.4byte	.LASF85
 1158 0570 0A       		.byte	0xa
 1159 0571 6604     		.2byte	0x466
 1160 0573 12       		.byte	0x12
 1161 0574 F4000000 		.4byte	0xf4
 1162 0578 20       		.byte	0x20
 1163 0579 0B       		.uleb128 0xb
 1164 057a 6D050000 		.4byte	.LASF86
 1165 057e 0A       		.byte	0xa
 1166 057f 6704     		.2byte	0x467
 1167 0581 12       		.byte	0x12
 1168 0582 F4000000 		.4byte	0xf4
 1169 0586 24       		.byte	0x24
 1170 0587 0B       		.uleb128 0xb
 1171 0588 A9050000 		.4byte	.LASF87
 1172 058c 0A       		.byte	0xa
 1173 058d 6804     		.2byte	0x468
 1174 058f 12       		.byte	0x12
 1175 0590 F4000000 		.4byte	0xf4
 1176 0594 28       		.byte	0x28
 1177 0595 0B       		.uleb128 0xb
 1178 0596 1E050000 		.4byte	.LASF88
 1179 059a 0A       		.byte	0xa
 1180 059b 6904     		.2byte	0x469
 1181 059d 12       		.byte	0x12
 1182 059e E0040000 		.4byte	0x4e0
 1183 05a2 2C       		.byte	0x2c
 1184 05a3 0B       		.uleb128 0xb
 1185 05a4 C6040000 		.4byte	.LASF89
 1186 05a8 0A       		.byte	0xa
 1187 05a9 6A04     		.2byte	0x46a
 1188 05ab 12       		.byte	0x12
 1189 05ac F4000000 		.4byte	0xf4
 1190 05b0 30       		.byte	0x30
 1191 05b1 0B       		.uleb128 0xb
 1192 05b2 70020000 		.4byte	.LASF90
 1193 05b6 0A       		.byte	0xa
 1194 05b7 6B04     		.2byte	0x46b
 1195 05b9 12       		.byte	0x12
 1196 05ba F4000000 		.4byte	0xf4
 1197 05be 34       		.byte	0x34
ARM GAS  /tmp/ccOddNcm.s 			page 22


 1198 05bf 0B       		.uleb128 0xb
 1199 05c0 B3050000 		.4byte	.LASF91
 1200 05c4 0A       		.byte	0xa
 1201 05c5 6C04     		.2byte	0x46c
 1202 05c7 12       		.byte	0x12
 1203 05c8 F4000000 		.4byte	0xf4
 1204 05cc 38       		.byte	0x38
 1205 05cd 0B       		.uleb128 0xb
 1206 05ce 28050000 		.4byte	.LASF92
 1207 05d2 0A       		.byte	0xa
 1208 05d3 6D04     		.2byte	0x46d
 1209 05d5 12       		.byte	0x12
 1210 05d6 E0040000 		.4byte	0x4e0
 1211 05da 3C       		.byte	0x3c
 1212 05db 0B       		.uleb128 0xb
 1213 05dc 40040000 		.4byte	.LASF93
 1214 05e0 0A       		.byte	0xa
 1215 05e1 6E04     		.2byte	0x46e
 1216 05e3 12       		.byte	0x12
 1217 05e4 F4000000 		.4byte	0xf4
 1218 05e8 40       		.byte	0x40
 1219 05e9 0B       		.uleb128 0xb
 1220 05ea 76020000 		.4byte	.LASF94
 1221 05ee 0A       		.byte	0xa
 1222 05ef 6F04     		.2byte	0x46f
 1223 05f1 12       		.byte	0x12
 1224 05f2 F4000000 		.4byte	0xf4
 1225 05f6 44       		.byte	0x44
 1226 05f7 0B       		.uleb128 0xb
 1227 05f8 BD050000 		.4byte	.LASF95
 1228 05fc 0A       		.byte	0xa
 1229 05fd 7004     		.2byte	0x470
 1230 05ff 12       		.byte	0x12
 1231 0600 F4000000 		.4byte	0xf4
 1232 0604 48       		.byte	0x48
 1233 0605 0B       		.uleb128 0xb
 1234 0606 32050000 		.4byte	.LASF96
 1235 060a 0A       		.byte	0xa
 1236 060b 7104     		.2byte	0x471
 1237 060d 12       		.byte	0x12
 1238 060e E0040000 		.4byte	0x4e0
 1239 0612 4C       		.byte	0x4c
 1240 0613 0B       		.uleb128 0xb
 1241 0614 D8040000 		.4byte	.LASF97
 1242 0618 0A       		.byte	0xa
 1243 0619 7204     		.2byte	0x472
 1244 061b 12       		.byte	0x12
 1245 061c F4000000 		.4byte	0xf4
 1246 0620 50       		.byte	0x50
 1247 0621 0B       		.uleb128 0xb
 1248 0622 8C020000 		.4byte	.LASF98
 1249 0626 0A       		.byte	0xa
 1250 0627 7304     		.2byte	0x473
 1251 0629 12       		.byte	0x12
 1252 062a F4000000 		.4byte	0xf4
 1253 062e 54       		.byte	0x54
 1254 062f 0B       		.uleb128 0xb
ARM GAS  /tmp/ccOddNcm.s 			page 23


 1255 0630 C7050000 		.4byte	.LASF99
 1256 0634 0A       		.byte	0xa
 1257 0635 7404     		.2byte	0x474
 1258 0637 12       		.byte	0x12
 1259 0638 F4000000 		.4byte	0xf4
 1260 063c 58       		.byte	0x58
 1261 063d 0B       		.uleb128 0xb
 1262 063e 35000000 		.4byte	.LASF100
 1263 0642 0A       		.byte	0xa
 1264 0643 7504     		.2byte	0x475
 1265 0645 12       		.byte	0x12
 1266 0646 6A060000 		.4byte	0x66a
 1267 064a 5C       		.byte	0x5c
 1268 064b 13       		.uleb128 0x13
 1269 064c 4C415200 		.ascii	"LAR\000"
 1270 0650 0A       		.byte	0xa
 1271 0651 7604     		.2byte	0x476
 1272 0653 12       		.byte	0x12
 1273 0654 F4000000 		.4byte	0xf4
 1274 0658 B00F     		.2byte	0xfb0
 1275 065a 13       		.uleb128 0x13
 1276 065b 4C535200 		.ascii	"LSR\000"
 1277 065f 0A       		.byte	0xa
 1278 0660 7704     		.2byte	0x477
 1279 0662 12       		.byte	0x12
 1280 0663 F9000000 		.4byte	0xf9
 1281 0667 B40F     		.2byte	0xfb4
 1282 0669 00       		.byte	0
 1283 066a 14       		.uleb128 0x14
 1284 066b E8000000 		.4byte	0xe8
 1285 066f 7B060000 		.4byte	0x67b
 1286 0673 17       		.uleb128 0x17
 1287 0674 38000000 		.4byte	0x38
 1288 0678 D403     		.2byte	0x3d4
 1289 067a 00       		.byte	0
 1290 067b 18       		.uleb128 0x18
 1291 067c 52000000 		.4byte	.LASF101
 1292 0680 0A       		.byte	0xa
 1293 0681 7804     		.2byte	0x478
 1294 0683 03       		.byte	0x3
 1295 0684 F0040000 		.4byte	0x4f0
 1296 0688 19       		.uleb128 0x19
 1297 0689 BC000000 		.4byte	.LASF102
 1298 068d 0A       		.byte	0xa
 1299 068e 220A     		.2byte	0xa22
 1300 0690 19       		.byte	0x19
 1301 0691 E3000000 		.4byte	0xe3
 1302 0695 1A       		.uleb128 0x1a
 1303 0696 7C020000 		.4byte	.LASF103
 1304 069a 0B       		.byte	0xb
 1305 069b 3A       		.byte	0x3a
 1306 069c 11       		.byte	0x11
 1307 069d E8000000 		.4byte	0xe8
 1308 06a1 1A       		.uleb128 0x1a
 1309 06a2 E8000000 		.4byte	.LASF104
 1310 06a6 0B       		.byte	0xb
 1311 06a7 3B       		.byte	0x3b
ARM GAS  /tmp/ccOddNcm.s 			page 24


 1312 06a8 11       		.byte	0x11
 1313 06a9 E8000000 		.4byte	0xe8
 1314 06ad 14       		.uleb128 0x14
 1315 06ae C6000000 		.4byte	0xc6
 1316 06b2 BD060000 		.4byte	0x6bd
 1317 06b6 15       		.uleb128 0x15
 1318 06b7 38000000 		.4byte	0x38
 1319 06bb 0F       		.byte	0xf
 1320 06bc 00       		.byte	0
 1321 06bd 05       		.uleb128 0x5
 1322 06be AD060000 		.4byte	0x6ad
 1323 06c2 1A       		.uleb128 0x1a
 1324 06c3 AC020000 		.4byte	.LASF105
 1325 06c7 0B       		.byte	0xb
 1326 06c8 3C       		.byte	0x3c
 1327 06c9 17       		.byte	0x17
 1328 06ca BD060000 		.4byte	0x6bd
 1329 06ce 03       		.uleb128 0x3
 1330 06cf 0F040000 		.4byte	.LASF106
 1331 06d3 0C       		.byte	0xc
 1332 06d4 68       		.byte	0x68
 1333 06d5 12       		.byte	0x12
 1334 06d6 FE000000 		.4byte	0xfe
 1335 06da 0D       		.uleb128 0xd
 1336 06db 5B000000 		.4byte	.LASF107
 1337 06df 64       		.byte	0x64
 1338 06e0 02       		.byte	0x2
 1339 06e1 8501     		.2byte	0x185
 1340 06e3 08       		.byte	0x8
 1341 06e4 40080000 		.4byte	0x840
 1342 06e8 0A       		.uleb128 0xa
 1343 06e9 73313600 		.ascii	"s16\000"
 1344 06ed 02       		.byte	0x2
 1345 06ee 8D01     		.2byte	0x18d
 1346 06f0 11       		.byte	0x11
 1347 06f1 E8000000 		.4byte	0xe8
 1348 06f5 00       		.byte	0
 1349 06f6 0A       		.uleb128 0xa
 1350 06f7 73313700 		.ascii	"s17\000"
 1351 06fb 02       		.byte	0x2
 1352 06fc 8E01     		.2byte	0x18e
 1353 06fe 11       		.byte	0x11
 1354 06ff E8000000 		.4byte	0xe8
 1355 0703 04       		.byte	0x4
 1356 0704 0A       		.uleb128 0xa
 1357 0705 73313800 		.ascii	"s18\000"
 1358 0709 02       		.byte	0x2
 1359 070a 8F01     		.2byte	0x18f
 1360 070c 11       		.byte	0x11
 1361 070d E8000000 		.4byte	0xe8
 1362 0711 08       		.byte	0x8
 1363 0712 0A       		.uleb128 0xa
 1364 0713 73313900 		.ascii	"s19\000"
 1365 0717 02       		.byte	0x2
 1366 0718 9001     		.2byte	0x190
 1367 071a 11       		.byte	0x11
 1368 071b E8000000 		.4byte	0xe8
ARM GAS  /tmp/ccOddNcm.s 			page 25


 1369 071f 0C       		.byte	0xc
 1370 0720 0A       		.uleb128 0xa
 1371 0721 73323000 		.ascii	"s20\000"
 1372 0725 02       		.byte	0x2
 1373 0726 9101     		.2byte	0x191
 1374 0728 11       		.byte	0x11
 1375 0729 E8000000 		.4byte	0xe8
 1376 072d 10       		.byte	0x10
 1377 072e 0A       		.uleb128 0xa
 1378 072f 73323100 		.ascii	"s21\000"
 1379 0733 02       		.byte	0x2
 1380 0734 9201     		.2byte	0x192
 1381 0736 11       		.byte	0x11
 1382 0737 E8000000 		.4byte	0xe8
 1383 073b 14       		.byte	0x14
 1384 073c 0A       		.uleb128 0xa
 1385 073d 73323200 		.ascii	"s22\000"
 1386 0741 02       		.byte	0x2
 1387 0742 9301     		.2byte	0x193
 1388 0744 11       		.byte	0x11
 1389 0745 E8000000 		.4byte	0xe8
 1390 0749 18       		.byte	0x18
 1391 074a 0A       		.uleb128 0xa
 1392 074b 73323300 		.ascii	"s23\000"
 1393 074f 02       		.byte	0x2
 1394 0750 9401     		.2byte	0x194
 1395 0752 11       		.byte	0x11
 1396 0753 E8000000 		.4byte	0xe8
 1397 0757 1C       		.byte	0x1c
 1398 0758 0A       		.uleb128 0xa
 1399 0759 73323400 		.ascii	"s24\000"
 1400 075d 02       		.byte	0x2
 1401 075e 9501     		.2byte	0x195
 1402 0760 11       		.byte	0x11
 1403 0761 E8000000 		.4byte	0xe8
 1404 0765 20       		.byte	0x20
 1405 0766 0A       		.uleb128 0xa
 1406 0767 73323500 		.ascii	"s25\000"
 1407 076b 02       		.byte	0x2
 1408 076c 9601     		.2byte	0x196
 1409 076e 11       		.byte	0x11
 1410 076f E8000000 		.4byte	0xe8
 1411 0773 24       		.byte	0x24
 1412 0774 0A       		.uleb128 0xa
 1413 0775 73323600 		.ascii	"s26\000"
 1414 0779 02       		.byte	0x2
 1415 077a 9701     		.2byte	0x197
 1416 077c 11       		.byte	0x11
 1417 077d E8000000 		.4byte	0xe8
 1418 0781 28       		.byte	0x28
 1419 0782 0A       		.uleb128 0xa
 1420 0783 73323700 		.ascii	"s27\000"
 1421 0787 02       		.byte	0x2
 1422 0788 9801     		.2byte	0x198
 1423 078a 11       		.byte	0x11
 1424 078b E8000000 		.4byte	0xe8
 1425 078f 2C       		.byte	0x2c
ARM GAS  /tmp/ccOddNcm.s 			page 26


 1426 0790 0A       		.uleb128 0xa
 1427 0791 73323800 		.ascii	"s28\000"
 1428 0795 02       		.byte	0x2
 1429 0796 9901     		.2byte	0x199
 1430 0798 11       		.byte	0x11
 1431 0799 E8000000 		.4byte	0xe8
 1432 079d 30       		.byte	0x30
 1433 079e 0A       		.uleb128 0xa
 1434 079f 73323900 		.ascii	"s29\000"
 1435 07a3 02       		.byte	0x2
 1436 07a4 9A01     		.2byte	0x19a
 1437 07a6 11       		.byte	0x11
 1438 07a7 E8000000 		.4byte	0xe8
 1439 07ab 34       		.byte	0x34
 1440 07ac 0A       		.uleb128 0xa
 1441 07ad 73333000 		.ascii	"s30\000"
 1442 07b1 02       		.byte	0x2
 1443 07b2 9B01     		.2byte	0x19b
 1444 07b4 11       		.byte	0x11
 1445 07b5 E8000000 		.4byte	0xe8
 1446 07b9 38       		.byte	0x38
 1447 07ba 0A       		.uleb128 0xa
 1448 07bb 73333100 		.ascii	"s31\000"
 1449 07bf 02       		.byte	0x2
 1450 07c0 9C01     		.2byte	0x19c
 1451 07c2 11       		.byte	0x11
 1452 07c3 E8000000 		.4byte	0xe8
 1453 07c7 3C       		.byte	0x3c
 1454 07c8 0A       		.uleb128 0xa
 1455 07c9 723400   		.ascii	"r4\000"
 1456 07cc 02       		.byte	0x2
 1457 07cd 9E01     		.2byte	0x19e
 1458 07cf 11       		.byte	0x11
 1459 07d0 E8000000 		.4byte	0xe8
 1460 07d4 40       		.byte	0x40
 1461 07d5 0A       		.uleb128 0xa
 1462 07d6 723500   		.ascii	"r5\000"
 1463 07d9 02       		.byte	0x2
 1464 07da 9F01     		.2byte	0x19f
 1465 07dc 11       		.byte	0x11
 1466 07dd E8000000 		.4byte	0xe8
 1467 07e1 44       		.byte	0x44
 1468 07e2 0A       		.uleb128 0xa
 1469 07e3 723600   		.ascii	"r6\000"
 1470 07e6 02       		.byte	0x2
 1471 07e7 A001     		.2byte	0x1a0
 1472 07e9 11       		.byte	0x11
 1473 07ea E8000000 		.4byte	0xe8
 1474 07ee 48       		.byte	0x48
 1475 07ef 0A       		.uleb128 0xa
 1476 07f0 723700   		.ascii	"r7\000"
 1477 07f3 02       		.byte	0x2
 1478 07f4 A101     		.2byte	0x1a1
 1479 07f6 11       		.byte	0x11
 1480 07f7 E8000000 		.4byte	0xe8
 1481 07fb 4C       		.byte	0x4c
 1482 07fc 0A       		.uleb128 0xa
ARM GAS  /tmp/ccOddNcm.s 			page 27


 1483 07fd 723800   		.ascii	"r8\000"
 1484 0800 02       		.byte	0x2
 1485 0801 A201     		.2byte	0x1a2
 1486 0803 11       		.byte	0x11
 1487 0804 E8000000 		.4byte	0xe8
 1488 0808 50       		.byte	0x50
 1489 0809 0A       		.uleb128 0xa
 1490 080a 723900   		.ascii	"r9\000"
 1491 080d 02       		.byte	0x2
 1492 080e A301     		.2byte	0x1a3
 1493 0810 11       		.byte	0x11
 1494 0811 E8000000 		.4byte	0xe8
 1495 0815 54       		.byte	0x54
 1496 0816 0A       		.uleb128 0xa
 1497 0817 72313000 		.ascii	"r10\000"
 1498 081b 02       		.byte	0x2
 1499 081c A401     		.2byte	0x1a4
 1500 081e 11       		.byte	0x11
 1501 081f E8000000 		.4byte	0xe8
 1502 0823 58       		.byte	0x58
 1503 0824 0A       		.uleb128 0xa
 1504 0825 72313100 		.ascii	"r11\000"
 1505 0829 02       		.byte	0x2
 1506 082a A501     		.2byte	0x1a5
 1507 082c 11       		.byte	0x11
 1508 082d E8000000 		.4byte	0xe8
 1509 0831 5C       		.byte	0x5c
 1510 0832 0A       		.uleb128 0xa
 1511 0833 6C7200   		.ascii	"lr\000"
 1512 0836 02       		.byte	0x2
 1513 0837 A601     		.2byte	0x1a6
 1514 0839 11       		.byte	0x11
 1515 083a E8000000 		.4byte	0xe8
 1516 083e 60       		.byte	0x60
 1517 083f 00       		.byte	0
 1518 0840 0D       		.uleb128 0xd
 1519 0841 B9040000 		.4byte	.LASF108
 1520 0845 04       		.byte	0x4
 1521 0846 02       		.byte	0x2
 1522 0847 A901     		.2byte	0x1a9
 1523 0849 08       		.byte	0x8
 1524 084a 5C080000 		.4byte	0x85c
 1525 084e 0A       		.uleb128 0xa
 1526 084f 737000   		.ascii	"sp\000"
 1527 0852 02       		.byte	0x2
 1528 0853 AA01     		.2byte	0x1aa
 1529 0855 1A       		.byte	0x1a
 1530 0856 5C080000 		.4byte	0x85c
 1531 085a 00       		.byte	0
 1532 085b 00       		.byte	0
 1533 085c 0C       		.uleb128 0xc
 1534 085d 04       		.byte	0x4
 1535 085e DA060000 		.4byte	0x6da
 1536 0862 1B       		.uleb128 0x1b
 1537 0863 08       		.byte	0x8
 1538 0864 0D       		.byte	0xd
 1539 0865 7F       		.byte	0x7f
ARM GAS  /tmp/ccOddNcm.s 			page 28


 1540 0866 05       		.byte	0x5
 1541 0867 86080000 		.4byte	0x886
 1542 086b 09       		.uleb128 0x9
 1543 086c 6E747000 		.ascii	"ntp\000"
 1544 0870 0D       		.byte	0xd
 1545 0871 83       		.byte	0x83
 1546 0872 1E       		.byte	0x1e
 1547 0873 8A020000 		.4byte	0x28a
 1548 0877 00       		.byte	0
 1549 0878 08       		.uleb128 0x8
 1550 0879 8E070000 		.4byte	.LASF109
 1551 087d 0D       		.byte	0xd
 1552 087e 87       		.byte	0x87
 1553 087f 1E       		.byte	0x1e
 1554 0880 77030000 		.4byte	0x377
 1555 0884 04       		.byte	0x4
 1556 0885 00       		.byte	0
 1557 0886 1B       		.uleb128 0x1b
 1558 0887 04       		.byte	0x4
 1559 0888 0D       		.byte	0xd
 1560 0889 8C       		.byte	0x8c
 1561 088a 05       		.byte	0x5
 1562 088b 9D080000 		.4byte	0x89d
 1563 088f 08       		.uleb128 0x8
 1564 0890 FC020000 		.4byte	.LASF36
 1565 0894 0D       		.byte	0xd
 1566 0895 90       		.byte	0x90
 1567 0896 1E       		.byte	0x1e
 1568 0897 9D080000 		.4byte	0x89d
 1569 089b 00       		.byte	0
 1570 089c 00       		.byte	0
 1571 089d 0C       		.uleb128 0xc
 1572 089e 04       		.byte	0x4
 1573 089f AF080000 		.4byte	0x8af
 1574 08a3 06       		.uleb128 0x6
 1575 08a4 9D080000 		.4byte	0x89d
 1576 08a8 04       		.uleb128 0x4
 1577 08a9 01       		.byte	0x1
 1578 08aa 08       		.byte	0x8
 1579 08ab 9C060000 		.4byte	.LASF110
 1580 08af 05       		.uleb128 0x5
 1581 08b0 A8080000 		.4byte	0x8a8
 1582 08b4 1B       		.uleb128 0x1b
 1583 08b5 04       		.byte	0x4
 1584 08b6 0D       		.byte	0xd
 1585 08b7 95       		.byte	0x95
 1586 08b8 05       		.byte	0x5
 1587 08b9 CB080000 		.4byte	0x8cb
 1588 08bd 08       		.uleb128 0x8
 1589 08be 09060000 		.4byte	.LASF111
 1590 08c2 0D       		.byte	0xd
 1591 08c3 99       		.byte	0x99
 1592 08c4 1E       		.byte	0x1e
 1593 08c5 9D080000 		.4byte	0x89d
 1594 08c9 00       		.byte	0
 1595 08ca 00       		.byte	0
 1596 08cb 1B       		.uleb128 0x1b
ARM GAS  /tmp/ccOddNcm.s 			page 29


 1597 08cc 08       		.byte	0x8
 1598 08cd 0D       		.byte	0xd
 1599 08ce 9E       		.byte	0x9e
 1600 08cf 05       		.byte	0x5
 1601 08d0 EF080000 		.4byte	0x8ef
 1602 08d4 09       		.uleb128 0x9
 1603 08d5 75703100 		.ascii	"up1\000"
 1604 08d9 0D       		.byte	0xd
 1605 08da A2       		.byte	0xa2
 1606 08db 1E       		.byte	0x1e
 1607 08dc 77030000 		.4byte	0x377
 1608 08e0 00       		.byte	0
 1609 08e1 09       		.uleb128 0x9
 1610 08e2 75703200 		.ascii	"up2\000"
 1611 08e6 0D       		.byte	0xd
 1612 08e7 A6       		.byte	0xa6
 1613 08e8 1E       		.byte	0x1e
 1614 08e9 77030000 		.4byte	0x377
 1615 08ed 04       		.byte	0x4
 1616 08ee 00       		.byte	0
 1617 08ef 1C       		.uleb128 0x1c
 1618 08f0 08       		.byte	0x8
 1619 08f1 0D       		.byte	0xd
 1620 08f2 7B       		.byte	0x7b
 1621 08f3 03       		.byte	0x3
 1622 08f4 28090000 		.4byte	0x928
 1623 08f8 1D       		.uleb128 0x1d
 1624 08f9 737700   		.ascii	"sw\000"
 1625 08fc 0D       		.byte	0xd
 1626 08fd 88       		.byte	0x88
 1627 08fe 07       		.byte	0x7
 1628 08ff 62080000 		.4byte	0x862
 1629 0903 1D       		.uleb128 0x1d
 1630 0904 69737200 		.ascii	"isr\000"
 1631 0908 0D       		.byte	0xd
 1632 0909 91       		.byte	0x91
 1633 090a 07       		.byte	0x7
 1634 090b 86080000 		.4byte	0x886
 1635 090f 1E       		.uleb128 0x1e
 1636 0910 9E000000 		.4byte	.LASF112
 1637 0914 0D       		.byte	0xd
 1638 0915 9A       		.byte	0x9a
 1639 0916 07       		.byte	0x7
 1640 0917 B4080000 		.4byte	0x8b4
 1641 091b 1E       		.uleb128 0x1e
 1642 091c 68050000 		.4byte	.LASF113
 1643 0920 0D       		.byte	0xd
 1644 0921 A7       		.byte	0xa7
 1645 0922 07       		.byte	0x7
 1646 0923 CB080000 		.4byte	0x8cb
 1647 0927 00       		.byte	0
 1648 0928 1B       		.uleb128 0x1b
 1649 0929 10       		.byte	0x10
 1650 092a 0D       		.byte	0xd
 1651 092b 68       		.byte	0x68
 1652 092c 09       		.byte	0x9
 1653 092d 7A090000 		.4byte	0x97a
ARM GAS  /tmp/ccOddNcm.s 			page 30


 1654 0931 1F       		.uleb128 0x1f
 1655 0932 77000000 		.4byte	.LASF114
 1656 0936 0D       		.byte	0xd
 1657 0937 6C       		.byte	0x6c
 1658 0938 19       		.byte	0x19
 1659 0939 E8000000 		.4byte	0xe8
 1660 093d 04       		.byte	0x4
 1661 093e 03       		.byte	0x3
 1662 093f 1D       		.byte	0x1d
 1663 0940 00       		.byte	0
 1664 0941 1F       		.uleb128 0x1f
 1665 0942 40010000 		.4byte	.LASF38
 1666 0946 0D       		.byte	0xd
 1667 0947 70       		.byte	0x70
 1668 0948 19       		.byte	0x19
 1669 0949 E8000000 		.4byte	0xe8
 1670 094d 04       		.byte	0x4
 1671 094e 05       		.byte	0x5
 1672 094f 18       		.byte	0x18
 1673 0950 00       		.byte	0
 1674 0951 1F       		.uleb128 0x1f
 1675 0952 20040000 		.4byte	.LASF115
 1676 0956 0D       		.byte	0xd
 1677 0957 76       		.byte	0x76
 1678 0958 19       		.byte	0x19
 1679 0959 E8000000 		.4byte	0xe8
 1680 095d 04       		.byte	0x4
 1681 095e 18       		.byte	0x18
 1682 095f 00       		.byte	0
 1683 0960 00       		.byte	0
 1684 0961 08       		.uleb128 0x8
 1685 0962 DE040000 		.4byte	.LASF116
 1686 0966 0D       		.byte	0xd
 1687 0967 7A       		.byte	0x7a
 1688 0968 19       		.byte	0x19
 1689 0969 C8040000 		.4byte	0x4c8
 1690 096d 04       		.byte	0x4
 1691 096e 09       		.uleb128 0x9
 1692 096f 7500     		.ascii	"u\000"
 1693 0971 0D       		.byte	0xd
 1694 0972 A8       		.byte	0xa8
 1695 0973 05       		.byte	0x5
 1696 0974 EF080000 		.4byte	0x8ef
 1697 0978 08       		.byte	0x8
 1698 0979 00       		.byte	0
 1699 097a 03       		.uleb128 0x3
 1700 097b 6D010000 		.4byte	.LASF117
 1701 097f 0D       		.byte	0xd
 1702 0980 A9       		.byte	0xa9
 1703 0981 03       		.byte	0x3
 1704 0982 28090000 		.4byte	0x928
 1705 0986 20       		.uleb128 0x20
 1706 0987 0808     		.2byte	0x808
 1707 0989 0D       		.byte	0xd
 1708 098a AF       		.byte	0xaf
 1709 098b 09       		.byte	0x9
 1710 098c C5090000 		.4byte	0x9c5
ARM GAS  /tmp/ccOddNcm.s 			page 31


 1711 0990 08       		.uleb128 0x8
 1712 0991 94000000 		.4byte	.LASF118
 1713 0995 0D       		.byte	0xd
 1714 0996 B3       		.byte	0xb3
 1715 0997 19       		.byte	0x19
 1716 0998 CB000000 		.4byte	0xcb
 1717 099c 00       		.byte	0
 1718 099d 08       		.uleb128 0x8
 1719 099e 34010000 		.4byte	.LASF119
 1720 09a2 0D       		.byte	0xd
 1721 09a3 B7       		.byte	0xb7
 1722 09a4 19       		.byte	0x19
 1723 09a5 CB000000 		.4byte	0xcb
 1724 09a9 02       		.byte	0x2
 1725 09aa 09       		.uleb128 0x9
 1726 09ab 70747200 		.ascii	"ptr\000"
 1727 09af 0D       		.byte	0xd
 1728 09b0 BB       		.byte	0xbb
 1729 09b1 1A       		.byte	0x1a
 1730 09b2 C5090000 		.4byte	0x9c5
 1731 09b6 04       		.byte	0x4
 1732 09b7 08       		.uleb128 0x8
 1733 09b8 B2010000 		.4byte	.LASF120
 1734 09bc 0D       		.byte	0xd
 1735 09bd BF       		.byte	0xbf
 1736 09be 19       		.byte	0x19
 1737 09bf CB090000 		.4byte	0x9cb
 1738 09c3 08       		.byte	0x8
 1739 09c4 00       		.byte	0
 1740 09c5 0C       		.uleb128 0xc
 1741 09c6 04       		.byte	0x4
 1742 09c7 7A090000 		.4byte	0x97a
 1743 09cb 14       		.uleb128 0x14
 1744 09cc 7A090000 		.4byte	0x97a
 1745 09d0 DB090000 		.4byte	0x9db
 1746 09d4 15       		.uleb128 0x15
 1747 09d5 38000000 		.4byte	0x38
 1748 09d9 7F       		.byte	0x7f
 1749 09da 00       		.byte	0
 1750 09db 03       		.uleb128 0x3
 1751 09dc 81050000 		.4byte	.LASF121
 1752 09e0 0D       		.byte	0xd
 1753 09e1 C0       		.byte	0xc0
 1754 09e2 03       		.byte	0x3
 1755 09e3 86090000 		.4byte	0x986
 1756 09e7 1B       		.uleb128 0x1b
 1757 09e8 04       		.byte	0x4
 1758 09e9 0E       		.byte	0xe
 1759 09ea 38       		.byte	0x38
 1760 09eb 09       		.byte	0x9
 1761 09ec FE090000 		.4byte	0x9fe
 1762 09f0 08       		.uleb128 0x8
 1763 09f1 ED060000 		.4byte	.LASF122
 1764 09f5 0E       		.byte	0xe
 1765 09f6 3C       		.byte	0x3c
 1766 09f7 19       		.byte	0x19
 1767 09f8 0A010000 		.4byte	0x10a
ARM GAS  /tmp/ccOddNcm.s 			page 32


 1768 09fc 00       		.byte	0
 1769 09fd 00       		.byte	0
 1770 09fe 03       		.uleb128 0x3
 1771 09ff 8C040000 		.4byte	.LASF123
 1772 0a03 0E       		.byte	0xe
 1773 0a04 3D       		.byte	0x3d
 1774 0a05 03       		.byte	0x3
 1775 0a06 E7090000 		.4byte	0x9e7
 1776 0a0a 1B       		.uleb128 0x1b
 1777 0a0b 18       		.byte	0x18
 1778 0a0c 0E       		.byte	0xe
 1779 0a0d 48       		.byte	0x48
 1780 0a0e 09       		.byte	0x9
 1781 0a0f 530A0000 		.4byte	0xa53
 1782 0a13 08       		.uleb128 0x8
 1783 0a14 CC060000 		.4byte	.LASF124
 1784 0a18 0E       		.byte	0xe
 1785 0a19 49       		.byte	0x49
 1786 0a1a 19       		.byte	0x19
 1787 0a1b 0A010000 		.4byte	0x10a
 1788 0a1f 00       		.byte	0
 1789 0a20 08       		.uleb128 0x8
 1790 0a21 E3040000 		.4byte	.LASF125
 1791 0a25 0E       		.byte	0xe
 1792 0a26 4A       		.byte	0x4a
 1793 0a27 19       		.byte	0x19
 1794 0a28 0A010000 		.4byte	0x10a
 1795 0a2c 04       		.byte	0x4
 1796 0a2d 08       		.uleb128 0x8
 1797 0a2e 36030000 		.4byte	.LASF126
 1798 0a32 0E       		.byte	0xe
 1799 0a33 4B       		.byte	0x4b
 1800 0a34 19       		.byte	0x19
 1801 0a35 0A010000 		.4byte	0x10a
 1802 0a39 08       		.byte	0x8
 1803 0a3a 09       		.uleb128 0x9
 1804 0a3b 6E00     		.ascii	"n\000"
 1805 0a3d 0E       		.byte	0xe
 1806 0a3e 4C       		.byte	0x4c
 1807 0a3f 19       		.byte	0x19
 1808 0a40 76010000 		.4byte	0x176
 1809 0a44 0C       		.byte	0xc
 1810 0a45 08       		.uleb128 0x8
 1811 0a46 0B050000 		.4byte	.LASF127
 1812 0a4a 0E       		.byte	0xe
 1813 0a4b 4D       		.byte	0x4d
 1814 0a4c 19       		.byte	0x19
 1815 0a4d 16010000 		.4byte	0x116
 1816 0a51 10       		.byte	0x10
 1817 0a52 00       		.byte	0
 1818 0a53 03       		.uleb128 0x3
 1819 0a54 9F010000 		.4byte	.LASF128
 1820 0a58 0E       		.byte	0xe
 1821 0a59 4E       		.byte	0x4e
 1822 0a5a 03       		.byte	0x3
 1823 0a5b 0A0A0000 		.4byte	0xa0a
 1824 0a5f 1C       		.uleb128 0x1c
ARM GAS  /tmp/ccOddNcm.s 			page 33


 1825 0a60 04       		.byte	0x4
 1826 0a61 08       		.byte	0x8
 1827 0a62 C6       		.byte	0xc6
 1828 0a63 03       		.byte	0x3
 1829 0a64 CA0A0000 		.4byte	0xaca
 1830 0a68 1E       		.uleb128 0x1e
 1831 0a69 2E000000 		.4byte	.LASF129
 1832 0a6d 08       		.byte	0x8
 1833 0a6e CD       		.byte	0xcd
 1834 0a6f 19       		.byte	0x19
 1835 0a70 52010000 		.4byte	0x152
 1836 0a74 1E       		.uleb128 0x1e
 1837 0a75 B9010000 		.4byte	.LASF130
 1838 0a79 08       		.byte	0x8
 1839 0a7a D4       		.byte	0xd4
 1840 0a7b 19       		.byte	0x19
 1841 0a7c 52010000 		.4byte	0x152
 1842 0a80 1E       		.uleb128 0x1e
 1843 0a81 8E070000 		.4byte	.LASF109
 1844 0a85 08       		.byte	0x8
 1845 0a86 DB       		.byte	0xdb
 1846 0a87 1A       		.byte	0x1a
 1847 0a88 77030000 		.4byte	0x377
 1848 0a8c 1E       		.uleb128 0x1e
 1849 0a8d 67040000 		.4byte	.LASF131
 1850 0a91 08       		.byte	0x8
 1851 0a92 E2       		.byte	0xe2
 1852 0a93 1A       		.byte	0x1a
 1853 0a94 CA0A0000 		.4byte	0xaca
 1854 0a98 1E       		.uleb128 0x1e
 1855 0a99 AE000000 		.4byte	.LASF132
 1856 0a9d 08       		.byte	0x8
 1857 0a9e E7       		.byte	0xe7
 1858 0a9f 19       		.byte	0x19
 1859 0aa0 52010000 		.4byte	0x152
 1860 0aa4 1E       		.uleb128 0x1e
 1861 0aa5 A5020000 		.4byte	.LASF133
 1862 0aa9 08       		.byte	0x8
 1863 0aaa F0       		.byte	0xf0
 1864 0aab 1A       		.byte	0x1a
 1865 0aac F80A0000 		.4byte	0xaf8
 1866 0ab0 1E       		.uleb128 0x1e
 1867 0ab1 6C060000 		.4byte	.LASF134
 1868 0ab5 08       		.byte	0x8
 1869 0ab6 F9       		.byte	0xf9
 1870 0ab7 1A       		.byte	0x1a
 1871 0ab8 330B0000 		.4byte	0xb33
 1872 0abc 21       		.uleb128 0x21
 1873 0abd E4050000 		.4byte	.LASF135
 1874 0ac1 08       		.byte	0x8
 1875 0ac2 0101     		.2byte	0x101
 1876 0ac4 19       		.byte	0x19
 1877 0ac5 5E010000 		.4byte	0x15e
 1878 0ac9 00       		.byte	0
 1879 0aca 0C       		.uleb128 0xc
 1880 0acb 04       		.byte	0x4
 1881 0acc 7E020000 		.4byte	0x27e
ARM GAS  /tmp/ccOddNcm.s 			page 34


 1882 0ad0 07       		.uleb128 0x7
 1883 0ad1 21060000 		.4byte	.LASF136
 1884 0ad5 0C       		.byte	0xc
 1885 0ad6 0F       		.byte	0xf
 1886 0ad7 34       		.byte	0x34
 1887 0ad8 10       		.byte	0x10
 1888 0ad9 F80A0000 		.4byte	0xaf8
 1889 0add 08       		.uleb128 0x8
 1890 0ade 01030000 		.4byte	.LASF32
 1891 0ae2 0F       		.byte	0xf
 1892 0ae3 35       		.byte	0x35
 1893 0ae4 19       		.byte	0x19
 1894 0ae5 B7020000 		.4byte	0x2b7
 1895 0ae9 00       		.byte	0
 1896 0aea 09       		.uleb128 0x9
 1897 0aeb 636E7400 		.ascii	"cnt\000"
 1898 0aef 0F       		.byte	0xf
 1899 0af0 37       		.byte	0x37
 1900 0af1 19       		.byte	0x19
 1901 0af2 6A010000 		.4byte	0x16a
 1902 0af6 08       		.byte	0x8
 1903 0af7 00       		.byte	0
 1904 0af8 0C       		.uleb128 0xc
 1905 0af9 04       		.byte	0x4
 1906 0afa D00A0000 		.4byte	0xad0
 1907 0afe 07       		.uleb128 0x7
 1908 0aff 85070000 		.4byte	.LASF137
 1909 0b03 10       		.byte	0x10
 1910 0b04 10       		.byte	0x10
 1911 0b05 39       		.byte	0x39
 1912 0b06 08       		.byte	0x8
 1913 0b07 330B0000 		.4byte	0xb33
 1914 0b0b 08       		.uleb128 0x8
 1915 0b0c 01030000 		.4byte	.LASF32
 1916 0b10 10       		.byte	0x10
 1917 0b11 3A       		.byte	0x3a
 1918 0b12 19       		.byte	0x19
 1919 0b13 B7020000 		.4byte	0x2b7
 1920 0b17 00       		.byte	0
 1921 0b18 08       		.uleb128 0x8
 1922 0b19 83060000 		.4byte	.LASF138
 1923 0b1d 10       		.byte	0x10
 1924 0b1e 3C       		.byte	0x3c
 1925 0b1f 1A       		.byte	0x1a
 1926 0b20 8A020000 		.4byte	0x28a
 1927 0b24 08       		.byte	0x8
 1928 0b25 08       		.uleb128 0x8
 1929 0b26 C9000000 		.4byte	.LASF51
 1930 0b2a 10       		.byte	0x10
 1931 0b2b 3E       		.byte	0x3e
 1932 0b2c 1A       		.byte	0x1a
 1933 0b2d 960C0000 		.4byte	0xc96
 1934 0b31 0C       		.byte	0xc
 1935 0b32 00       		.byte	0
 1936 0b33 0C       		.uleb128 0xc
 1937 0b34 04       		.byte	0x4
 1938 0b35 FE0A0000 		.4byte	0xafe
ARM GAS  /tmp/ccOddNcm.s 			page 35


 1939 0b39 0C       		.uleb128 0xc
 1940 0b3a 04       		.byte	0x4
 1941 0b3b CE060000 		.4byte	0x6ce
 1942 0b3f 0C       		.uleb128 0xc
 1943 0b40 04       		.byte	0x4
 1944 0b41 79030000 		.4byte	0x379
 1945 0b45 22       		.uleb128 0x22
 1946 0b46 636800   		.ascii	"ch\000"
 1947 0b49 08       		.byte	0x8
 1948 0b4a C701     		.2byte	0x1c7
 1949 0b4c 14       		.byte	0x14
 1950 0b4d 65040000 		.4byte	0x465
 1951 0b51 14       		.uleb128 0x14
 1952 0b52 CE060000 		.4byte	0x6ce
 1953 0b56 5C0B0000 		.4byte	0xb5c
 1954 0b5a 23       		.uleb128 0x23
 1955 0b5b 00       		.byte	0
 1956 0b5c 19       		.uleb128 0x19
 1957 0b5d 37060000 		.4byte	.LASF139
 1958 0b61 11       		.byte	0x11
 1959 0b62 1701     		.2byte	0x117
 1960 0b64 13       		.byte	0x13
 1961 0b65 510B0000 		.4byte	0xb51
 1962 0b69 1B       		.uleb128 0x1b
 1963 0b6a 16       		.byte	0x16
 1964 0b6b 12       		.byte	0x12
 1965 0b6c 34       		.byte	0x34
 1966 0b6d 09       		.byte	0x9
 1967 0b6e 5D0C0000 		.4byte	0xc5d
 1968 0b72 08       		.uleb128 0x8
 1969 0b73 1F070000 		.4byte	.LASF140
 1970 0b77 12       		.byte	0x12
 1971 0b78 35       		.byte	0x35
 1972 0b79 0D       		.byte	0xd
 1973 0b7a 5D0C0000 		.4byte	0xc5d
 1974 0b7e 00       		.byte	0
 1975 0b7f 08       		.uleb128 0x8
 1976 0b80 13020000 		.4byte	.LASF141
 1977 0b84 12       		.byte	0x12
 1978 0b85 36       		.byte	0x36
 1979 0b86 0D       		.byte	0xd
 1980 0b87 BA000000 		.4byte	0xba
 1981 0b8b 04       		.byte	0x4
 1982 0b8c 08       		.uleb128 0x8
 1983 0b8d 34010000 		.4byte	.LASF119
 1984 0b91 12       		.byte	0x12
 1985 0b92 37       		.byte	0x37
 1986 0b93 0D       		.byte	0xd
 1987 0b94 BA000000 		.4byte	0xba
 1988 0b98 05       		.byte	0x5
 1989 0b99 08       		.uleb128 0x8
 1990 0b9a 38040000 		.4byte	.LASF142
 1991 0b9e 12       		.byte	0x12
 1992 0b9f 38       		.byte	0x38
 1993 0ba0 0D       		.byte	0xd
 1994 0ba1 CB000000 		.4byte	0xcb
 1995 0ba5 06       		.byte	0x6
ARM GAS  /tmp/ccOddNcm.s 			page 36


 1996 0ba6 08       		.uleb128 0x8
 1997 0ba7 35070000 		.4byte	.LASF143
 1998 0bab 12       		.byte	0x12
 1999 0bac 39       		.byte	0x39
 2000 0bad 0D       		.byte	0xd
 2001 0bae BA000000 		.4byte	0xba
 2002 0bb2 08       		.byte	0x8
 2003 0bb3 08       		.uleb128 0x8
 2004 0bb4 49060000 		.4byte	.LASF144
 2005 0bb8 12       		.byte	0x12
 2006 0bb9 3A       		.byte	0x3a
 2007 0bba 0D       		.byte	0xd
 2008 0bbb BA000000 		.4byte	0xba
 2009 0bbf 09       		.byte	0x9
 2010 0bc0 08       		.uleb128 0x8
 2011 0bc1 7C000000 		.4byte	.LASF145
 2012 0bc5 12       		.byte	0x12
 2013 0bc6 3B       		.byte	0x3b
 2014 0bc7 0D       		.byte	0xd
 2015 0bc8 BA000000 		.4byte	0xba
 2016 0bcc 0A       		.byte	0xa
 2017 0bcd 08       		.uleb128 0x8
 2018 0bce 93050000 		.4byte	.LASF146
 2019 0bd2 12       		.byte	0x12
 2020 0bd3 3C       		.byte	0x3c
 2021 0bd4 0D       		.byte	0xd
 2022 0bd5 BA000000 		.4byte	0xba
 2023 0bd9 0B       		.byte	0xb
 2024 0bda 08       		.uleb128 0x8
 2025 0bdb 62030000 		.4byte	.LASF147
 2026 0bdf 12       		.byte	0x12
 2027 0be0 3D       		.byte	0x3d
 2028 0be1 0D       		.byte	0xd
 2029 0be2 BA000000 		.4byte	0xba
 2030 0be6 0C       		.byte	0xc
 2031 0be7 08       		.uleb128 0x8
 2032 0be8 82040000 		.4byte	.LASF148
 2033 0bec 12       		.byte	0x12
 2034 0bed 3E       		.byte	0x3e
 2035 0bee 0D       		.byte	0xd
 2036 0bef BA000000 		.4byte	0xba
 2037 0bf3 0D       		.byte	0xd
 2038 0bf4 08       		.uleb128 0x8
 2039 0bf5 F4060000 		.4byte	.LASF149
 2040 0bf9 12       		.byte	0x12
 2041 0bfa 3F       		.byte	0x3f
 2042 0bfb 0D       		.byte	0xd
 2043 0bfc BA000000 		.4byte	0xba
 2044 0c00 0E       		.byte	0xe
 2045 0c01 08       		.uleb128 0x8
 2046 0c02 B7030000 		.4byte	.LASF150
 2047 0c06 12       		.byte	0x12
 2048 0c07 40       		.byte	0x40
 2049 0c08 0D       		.byte	0xd
 2050 0c09 BA000000 		.4byte	0xba
 2051 0c0d 0F       		.byte	0xf
 2052 0c0e 08       		.uleb128 0x8
ARM GAS  /tmp/ccOddNcm.s 			page 37


 2053 0c0f 9C050000 		.4byte	.LASF151
 2054 0c13 12       		.byte	0x12
 2055 0c14 41       		.byte	0x41
 2056 0c15 0D       		.byte	0xd
 2057 0c16 BA000000 		.4byte	0xba
 2058 0c1a 10       		.byte	0x10
 2059 0c1b 08       		.uleb128 0x8
 2060 0c1c C7070000 		.4byte	.LASF152
 2061 0c20 12       		.byte	0x12
 2062 0c21 42       		.byte	0x42
 2063 0c22 0D       		.byte	0xd
 2064 0c23 BA000000 		.4byte	0xba
 2065 0c27 11       		.byte	0x11
 2066 0c28 08       		.uleb128 0x8
 2067 0c29 EE070000 		.4byte	.LASF153
 2068 0c2d 12       		.byte	0x12
 2069 0c2e 43       		.byte	0x43
 2070 0c2f 0D       		.byte	0xd
 2071 0c30 BA000000 		.4byte	0xba
 2072 0c34 12       		.byte	0x12
 2073 0c35 08       		.uleb128 0x8
 2074 0c36 0D030000 		.4byte	.LASF154
 2075 0c3a 12       		.byte	0x12
 2076 0c3b 44       		.byte	0x44
 2077 0c3c 0D       		.byte	0xd
 2078 0c3d BA000000 		.4byte	0xba
 2079 0c41 13       		.byte	0x13
 2080 0c42 08       		.uleb128 0x8
 2081 0c43 00080000 		.4byte	.LASF155
 2082 0c47 12       		.byte	0x12
 2083 0c48 45       		.byte	0x45
 2084 0c49 0D       		.byte	0xd
 2085 0c4a BA000000 		.4byte	0xba
 2086 0c4e 14       		.byte	0x14
 2087 0c4f 08       		.uleb128 0x8
 2088 0c50 2E060000 		.4byte	.LASF156
 2089 0c54 12       		.byte	0x12
 2090 0c55 46       		.byte	0x46
 2091 0c56 0D       		.byte	0xd
 2092 0c57 BA000000 		.4byte	0xba
 2093 0c5b 15       		.byte	0x15
 2094 0c5c 00       		.byte	0
 2095 0c5d 14       		.uleb128 0x14
 2096 0c5e A8080000 		.4byte	0x8a8
 2097 0c62 6D0C0000 		.4byte	0xc6d
 2098 0c66 15       		.uleb128 0x15
 2099 0c67 38000000 		.4byte	0x38
 2100 0c6b 03       		.byte	0x3
 2101 0c6c 00       		.byte	0
 2102 0c6d 03       		.uleb128 0x3
 2103 0c6e 8C010000 		.4byte	.LASF157
 2104 0c72 12       		.byte	0x12
 2105 0c73 47       		.byte	0x47
 2106 0c74 03       		.byte	0x3
 2107 0c75 690B0000 		.4byte	0xb69
 2108 0c79 05       		.uleb128 0x5
 2109 0c7a 6D0C0000 		.4byte	0xc6d
ARM GAS  /tmp/ccOddNcm.s 			page 38


 2110 0c7e 1A       		.uleb128 0x1a
 2111 0c7f E5020000 		.4byte	.LASF158
 2112 0c83 12       		.byte	0x12
 2113 0c84 6C       		.byte	0x6c
 2114 0c85 1D       		.byte	0x1d
 2115 0c86 790C0000 		.4byte	0xc79
 2116 0c8a 03       		.uleb128 0x3
 2117 0c8b 18020000 		.4byte	.LASF159
 2118 0c8f 10       		.byte	0x10
 2119 0c90 34       		.byte	0x34
 2120 0c91 19       		.byte	0x19
 2121 0c92 FE0A0000 		.4byte	0xafe
 2122 0c96 0C       		.uleb128 0xc
 2123 0c97 04       		.byte	0x4
 2124 0c98 8A0C0000 		.4byte	0xc8a
 2125 0c9c 04       		.uleb128 0x4
 2126 0c9d 01       		.byte	0x1
 2127 0c9e 02       		.byte	0x2
 2128 0c9f 73050000 		.4byte	.LASF160
 2129 0ca3 03       		.uleb128 0x3
 2130 0ca4 87000000 		.4byte	.LASF161
 2131 0ca8 13       		.byte	0x13
 2132 0ca9 47       		.byte	0x47
 2133 0caa 11       		.byte	0x11
 2134 0cab AF0C0000 		.4byte	0xcaf
 2135 0caf 0C       		.uleb128 0xc
 2136 0cb0 04       		.byte	0x4
 2137 0cb1 B50C0000 		.4byte	0xcb5
 2138 0cb5 24       		.uleb128 0x24
 2139 0cb6 77030000 		.4byte	0x377
 2140 0cba C90C0000 		.4byte	0xcc9
 2141 0cbe 0F       		.uleb128 0xf
 2142 0cbf 2C000000 		.4byte	0x2c
 2143 0cc3 0F       		.uleb128 0xf
 2144 0cc4 38000000 		.4byte	0x38
 2145 0cc8 00       		.byte	0
 2146 0cc9 1B       		.uleb128 0x1b
 2147 0cca 08       		.byte	0x8
 2148 0ccb 13       		.byte	0x13
 2149 0ccc 51       		.byte	0x51
 2150 0ccd 09       		.byte	0x9
 2151 0cce ED0C0000 		.4byte	0xced
 2152 0cd2 08       		.uleb128 0x8
 2153 0cd3 00010000 		.4byte	.LASF162
 2154 0cd7 13       		.byte	0x13
 2155 0cd8 55       		.byte	0x55
 2156 0cd9 0C       		.byte	0xc
 2157 0cda ED0C0000 		.4byte	0xced
 2158 0cde 00       		.byte	0
 2159 0cdf 08       		.uleb128 0x8
 2160 0ce0 DE020000 		.4byte	.LASF163
 2161 0ce4 13       		.byte	0x13
 2162 0ce5 59       		.byte	0x59
 2163 0ce6 0C       		.byte	0xc
 2164 0ce7 ED0C0000 		.4byte	0xced
 2165 0ceb 04       		.byte	0x4
 2166 0cec 00       		.byte	0
ARM GAS  /tmp/ccOddNcm.s 			page 39


 2167 0ced 0C       		.uleb128 0xc
 2168 0cee 04       		.byte	0x4
 2169 0cef BA000000 		.4byte	0xba
 2170 0cf3 03       		.uleb128 0x3
 2171 0cf4 01050000 		.4byte	.LASF164
 2172 0cf8 13       		.byte	0x13
 2173 0cf9 5A       		.byte	0x5a
 2174 0cfa 03       		.byte	0x3
 2175 0cfb C90C0000 		.4byte	0xcc9
 2176 0cff 1A       		.uleb128 0x1a
 2177 0d00 5C040000 		.4byte	.LASF165
 2178 0d04 13       		.byte	0x13
 2179 0d05 75       		.byte	0x75
 2180 0d06 12       		.byte	0x12
 2181 0d07 F30C0000 		.4byte	0xcf3
 2182 0d0b 07       		.uleb128 0x7
 2183 0d0c 4D070000 		.4byte	.LASF166
 2184 0d10 04       		.byte	0x4
 2185 0d11 14       		.byte	0x14
 2186 0d12 38       		.byte	0x38
 2187 0d13 08       		.byte	0x8
 2188 0d14 260D0000 		.4byte	0xd26
 2189 0d18 08       		.uleb128 0x8
 2190 0d19 C9000000 		.4byte	.LASF51
 2191 0d1d 14       		.byte	0x14
 2192 0d1e 39       		.byte	0x39
 2193 0d1f 1A       		.byte	0x1a
 2194 0d20 260D0000 		.4byte	0xd26
 2195 0d24 00       		.byte	0
 2196 0d25 00       		.byte	0
 2197 0d26 0C       		.uleb128 0xc
 2198 0d27 04       		.byte	0x4
 2199 0d28 0B0D0000 		.4byte	0xd0b
 2200 0d2c 1B       		.uleb128 0x1b
 2201 0d2d 10       		.byte	0x10
 2202 0d2e 14       		.byte	0x14
 2203 0d2f 40       		.byte	0x40
 2204 0d30 09       		.byte	0x9
 2205 0d31 6A0D0000 		.4byte	0xd6a
 2206 0d35 08       		.uleb128 0x8
 2207 0d36 C9000000 		.4byte	.LASF51
 2208 0d3a 14       		.byte	0x14
 2209 0d3b 41       		.byte	0x41
 2210 0d3c 1A       		.byte	0x1a
 2211 0d3d 260D0000 		.4byte	0xd26
 2212 0d41 00       		.byte	0
 2213 0d42 08       		.uleb128 0x8
 2214 0d43 CC040000 		.4byte	.LASF167
 2215 0d47 14       		.byte	0x14
 2216 0d48 42       		.byte	0x42
 2217 0d49 19       		.byte	0x19
 2218 0d4a 2C000000 		.4byte	0x2c
 2219 0d4e 04       		.byte	0x4
 2220 0d4f 08       		.uleb128 0x8
 2221 0d50 20020000 		.4byte	.LASF168
 2222 0d54 14       		.byte	0x14
 2223 0d55 44       		.byte	0x44
ARM GAS  /tmp/ccOddNcm.s 			page 40


 2224 0d56 19       		.byte	0x19
 2225 0d57 38000000 		.4byte	0x38
 2226 0d5b 08       		.byte	0x8
 2227 0d5c 08       		.uleb128 0x8
 2228 0d5d 6E000000 		.4byte	.LASF169
 2229 0d61 14       		.byte	0x14
 2230 0d62 45       		.byte	0x45
 2231 0d63 19       		.byte	0x19
 2232 0d64 A30C0000 		.4byte	0xca3
 2233 0d68 0C       		.byte	0xc
 2234 0d69 00       		.byte	0
 2235 0d6a 03       		.uleb128 0x3
 2236 0d6b EE020000 		.4byte	.LASF170
 2237 0d6f 14       		.byte	0x14
 2238 0d70 47       		.byte	0x47
 2239 0d71 03       		.byte	0x3
 2240 0d72 2C0D0000 		.4byte	0xd2c
 2241 0d76 07       		.uleb128 0x7
 2242 0d77 51050000 		.4byte	.LASF171
 2243 0d7b 10       		.byte	0x10
 2244 0d7c 15       		.byte	0x15
 2245 0d7d A9       		.byte	0xa9
 2246 0d7e 10       		.byte	0x10
 2247 0d7f AB0D0000 		.4byte	0xdab
 2248 0d83 08       		.uleb128 0x8
 2249 0d84 C9000000 		.4byte	.LASF51
 2250 0d88 15       		.byte	0x15
 2251 0d89 AD       		.byte	0xad
 2252 0d8a 1A       		.byte	0x1a
 2253 0d8b AB0D0000 		.4byte	0xdab
 2254 0d8f 00       		.byte	0
 2255 0d90 08       		.uleb128 0x8
 2256 0d91 3C050000 		.4byte	.LASF40
 2257 0d95 15       		.byte	0x15
 2258 0d96 B1       		.byte	0xb1
 2259 0d97 19       		.byte	0x19
 2260 0d98 76010000 		.4byte	0x176
 2261 0d9c 04       		.byte	0x4
 2262 0d9d 08       		.uleb128 0x8
 2263 0d9e FC020000 		.4byte	.LASF36
 2264 0da2 15       		.byte	0x15
 2265 0da3 B3       		.byte	0xb3
 2266 0da4 19       		.byte	0x19
 2267 0da5 B10D0000 		.4byte	0xdb1
 2268 0da9 08       		.byte	0x8
 2269 0daa 00       		.byte	0
 2270 0dab 0C       		.uleb128 0xc
 2271 0dac 04       		.byte	0x4
 2272 0dad 760D0000 		.4byte	0xd76
 2273 0db1 14       		.uleb128 0x14
 2274 0db2 A8080000 		.4byte	0x8a8
 2275 0db6 C10D0000 		.4byte	0xdc1
 2276 0dba 15       		.uleb128 0x15
 2277 0dbb 38000000 		.4byte	0x38
 2278 0dbf 07       		.byte	0x7
 2279 0dc0 00       		.byte	0
 2280 0dc1 03       		.uleb128 0x3
ARM GAS  /tmp/ccOddNcm.s 			page 41


 2281 0dc2 4E040000 		.4byte	.LASF172
 2282 0dc6 15       		.byte	0x15
 2283 0dc7 B7       		.byte	0xb7
 2284 0dc8 03       		.byte	0x3
 2285 0dc9 760D0000 		.4byte	0xd76
 2286 0dcd 07       		.uleb128 0x7
 2287 0dce 76040000 		.4byte	.LASF173
 2288 0dd2 04       		.byte	0x4
 2289 0dd3 15       		.byte	0x15
 2290 0dd4 BC       		.byte	0xbc
 2291 0dd5 10       		.byte	0x10
 2292 0dd6 E80D0000 		.4byte	0xde8
 2293 0dda 08       		.uleb128 0x8
 2294 0ddb C9000000 		.4byte	.LASF51
 2295 0ddf 15       		.byte	0x15
 2296 0de0 BD       		.byte	0xbd
 2297 0de1 1A       		.byte	0x1a
 2298 0de2 E80D0000 		.4byte	0xde8
 2299 0de6 00       		.byte	0
 2300 0de7 00       		.byte	0
 2301 0de8 0C       		.uleb128 0xc
 2302 0de9 04       		.byte	0x4
 2303 0dea C10D0000 		.4byte	0xdc1
 2304 0dee 03       		.uleb128 0x3
 2305 0def 4B030000 		.4byte	.LASF174
 2306 0df3 15       		.byte	0x15
 2307 0df4 BE       		.byte	0xbe
 2308 0df5 03       		.byte	0x3
 2309 0df6 CD0D0000 		.4byte	0xdcd
 2310 0dfa 0D       		.uleb128 0xd
 2311 0dfb 1B000000 		.4byte	.LASF175
 2312 0dff 48       		.byte	0x48
 2313 0e00 15       		.byte	0x15
 2314 0e01 2001     		.2byte	0x120
 2315 0e03 10       		.byte	0x10
 2316 0e04 870E0000 		.4byte	0xe87
 2317 0e08 0A       		.uleb128 0xa
 2318 0e09 6D747800 		.ascii	"mtx\000"
 2319 0e0d 15       		.byte	0x15
 2320 0e0e 2501     		.2byte	0x125
 2321 0e10 19       		.byte	0x19
 2322 0e11 8A0C0000 		.4byte	0xc8a
 2323 0e15 00       		.byte	0
 2324 0e16 0B       		.uleb128 0xb
 2325 0e17 A7060000 		.4byte	.LASF176
 2326 0e1b 15       		.byte	0x15
 2327 0e1c 2C01     		.2byte	0x12c
 2328 0e1e 19       		.byte	0x19
 2329 0e1f EE0D0000 		.4byte	0xdee
 2330 0e23 10       		.byte	0x10
 2331 0e24 0B       		.uleb128 0xb
 2332 0e25 00060000 		.4byte	.LASF177
 2333 0e29 15       		.byte	0x15
 2334 0e2a 3001     		.2byte	0x130
 2335 0e2c 19       		.byte	0x19
 2336 0e2d 6A0D0000 		.4byte	0xd6a
 2337 0e31 14       		.byte	0x14
ARM GAS  /tmp/ccOddNcm.s 			page 42


 2338 0e32 0B       		.uleb128 0xb
 2339 0e33 16030000 		.4byte	.LASF178
 2340 0e37 15       		.byte	0x15
 2341 0e38 3501     		.2byte	0x135
 2342 0e3a 19       		.byte	0x19
 2343 0e3b EE0D0000 		.4byte	0xdee
 2344 0e3f 24       		.byte	0x24
 2345 0e40 0B       		.uleb128 0xb
 2346 0e41 95070000 		.4byte	.LASF179
 2347 0e45 15       		.byte	0x15
 2348 0e46 3B01     		.2byte	0x13b
 2349 0e48 19       		.byte	0x19
 2350 0e49 EE0D0000 		.4byte	0xdee
 2351 0e4d 28       		.byte	0x28
 2352 0e4e 0B       		.uleb128 0xb
 2353 0e4f 5F070000 		.4byte	.LASF180
 2354 0e53 15       		.byte	0x15
 2355 0e54 3F01     		.2byte	0x13f
 2356 0e56 19       		.byte	0x19
 2357 0e57 6A0D0000 		.4byte	0xd6a
 2358 0e5b 2C       		.byte	0x2c
 2359 0e5c 0B       		.uleb128 0xb
 2360 0e5d DF000000 		.4byte	.LASF181
 2361 0e61 15       		.byte	0x15
 2362 0e62 4501     		.2byte	0x145
 2363 0e64 19       		.byte	0x19
 2364 0e65 EE0D0000 		.4byte	0xdee
 2365 0e69 3C       		.byte	0x3c
 2366 0e6a 0B       		.uleb128 0xb
 2367 0e6b 6E070000 		.4byte	.LASF182
 2368 0e6f 15       		.byte	0x15
 2369 0e70 4B01     		.2byte	0x14b
 2370 0e72 19       		.byte	0x19
 2371 0e73 EE0D0000 		.4byte	0xdee
 2372 0e77 40       		.byte	0x40
 2373 0e78 0B       		.uleb128 0xb
 2374 0e79 52060000 		.4byte	.LASF183
 2375 0e7d 15       		.byte	0x15
 2376 0e7e 5101     		.2byte	0x151
 2377 0e80 19       		.byte	0x19
 2378 0e81 EE0D0000 		.4byte	0xdee
 2379 0e85 44       		.byte	0x44
 2380 0e86 00       		.byte	0
 2381 0e87 18       		.uleb128 0x18
 2382 0e88 CC020000 		.4byte	.LASF184
 2383 0e8c 15       		.byte	0x15
 2384 0e8d 5301     		.2byte	0x153
 2385 0e8f 03       		.byte	0x3
 2386 0e90 FA0D0000 		.4byte	0xdfa
 2387 0e94 19       		.uleb128 0x19
 2388 0e95 F5050000 		.4byte	.LASF185
 2389 0e99 15       		.byte	0x15
 2390 0e9a 5E01     		.2byte	0x15e
 2391 0e9c 1A       		.byte	0x1a
 2392 0e9d 870E0000 		.4byte	0xe87
 2393 0ea1 25       		.uleb128 0x25
 2394 0ea2 F7030000 		.4byte	.LASF186
ARM GAS  /tmp/ccOddNcm.s 			page 43


 2395 0ea6 01       		.byte	0x1
 2396 0ea7 9C       		.byte	0x9c
 2397 0ea8 0F       		.byte	0xf
 2398 0ea9 C0000000 		.4byte	.LFB328
 2399 0ead 40000000 		.4byte	.LFE328-.LFB328
 2400 0eb1 01       		.uleb128 0x1
 2401 0eb2 9C       		.byte	0x9c
 2402 0eb3 240F0000 		.4byte	0xf24
 2403 0eb7 26       		.uleb128 0x26
 2404 0eb8 F6000000 		.4byte	.LASF188
 2405 0ebc 01       		.byte	0x1
 2406 0ebd 9C       		.byte	0x9c
 2407 0ebe 3B       		.byte	0x3b
 2408 0ebf 240F0000 		.4byte	0xf24
 2409 0ec3 01       		.uleb128 0x1
 2410 0ec4 50       		.byte	0x50
 2411 0ec5 27       		.uleb128 0x27
 2412 0ec6 FB000000 		.4byte	.LASF194
 2413 0eca 01       		.byte	0x1
 2414 0ecb 9D       		.byte	0x9d
 2415 0ecc 3B       		.byte	0x3b
 2416 0ecd 240F0000 		.4byte	0xf24
 2417 0ed1 04000000 		.4byte	.LLST5
 2418 0ed5 00000000 		.4byte	.LVUS5
 2419 0ed9 28       		.uleb128 0x28
 2420 0eda 9D100000 		.4byte	0x109d
 2421 0ede C0000000 		.4byte	.LBI32
 2422 0ee2 02       		.byte	.LVU90
 2423 0ee3 48000000 		.4byte	.Ldebug_ranges0+0x48
 2424 0ee7 01       		.byte	0x1
 2425 0ee8 A0       		.byte	0xa0
 2426 0ee9 10       		.byte	0x10
 2427 0eea 29       		.uleb128 0x29
 2428 0eeb 6B100000 		.4byte	0x106b
 2429 0eef CE000000 		.4byte	.LBI35
 2430 0ef3 01       		.byte	.LVU99
 2431 0ef4 60000000 		.4byte	.Ldebug_ranges0+0x60
 2432 0ef8 01       		.byte	0x1
 2433 0ef9 A3       		.byte	0xa3
 2434 0efa 03       		.byte	0x3
 2435 0efb 2A       		.uleb128 0x2a
 2436 0efc 90100000 		.4byte	0x1090
 2437 0f00 27000000 		.4byte	.LLST6
 2438 0f04 25000000 		.4byte	.LVUS6
 2439 0f08 2A       		.uleb128 0x2a
 2440 0f09 84100000 		.4byte	0x1084
 2441 0f0d 3F000000 		.4byte	.LLST7
 2442 0f11 3B000000 		.4byte	.LVUS7
 2443 0f15 2A       		.uleb128 0x2a
 2444 0f16 78100000 		.4byte	0x1078
 2445 0f1a 63000000 		.4byte	.LLST8
 2446 0f1e 61000000 		.4byte	.LVUS8
 2447 0f22 00       		.byte	0
 2448 0f23 00       		.byte	0
 2449 0f24 0C       		.uleb128 0xc
 2450 0f25 04       		.byte	0x4
 2451 0f26 530A0000 		.4byte	0xa53
ARM GAS  /tmp/ccOddNcm.s 			page 44


 2452 0f2a 25       		.uleb128 0x25
 2453 0f2b 46010000 		.4byte	.LASF187
 2454 0f2f 01       		.byte	0x1
 2455 0f30 8B       		.byte	0x8b
 2456 0f31 0F       		.byte	0xf
 2457 0f32 30000000 		.4byte	.LFB327
 2458 0f36 4C000000 		.4byte	.LFE327-.LFB327
 2459 0f3a 01       		.uleb128 0x1
 2460 0f3b 9C       		.byte	0x9c
 2461 0f3c 990F0000 		.4byte	0xf99
 2462 0f40 2B       		.uleb128 0x2b
 2463 0f41 746D7000 		.ascii	"tmp\000"
 2464 0f45 01       		.byte	0x1
 2465 0f46 8B       		.byte	0x8b
 2466 0f47 38       		.byte	0x38
 2467 0f48 240F0000 		.4byte	0xf24
 2468 0f4c 01       		.uleb128 0x1
 2469 0f4d 50       		.byte	0x50
 2470 0f4e 28       		.uleb128 0x28
 2471 0f4f 9D100000 		.4byte	0x109d
 2472 0f53 30000000 		.4byte	.LBI20
 2473 0f57 02       		.byte	.LVU21
 2474 0f58 00000000 		.4byte	.Ldebug_ranges0+0
 2475 0f5c 01       		.byte	0x1
 2476 0f5d 8D       		.byte	0x8d
 2477 0f5e 10       		.byte	0x10
 2478 0f5f 29       		.uleb128 0x29
 2479 0f60 6B100000 		.4byte	0x106b
 2480 0f64 3A000000 		.4byte	.LBI24
 2481 0f68 00       		.byte	.LVU27
 2482 0f69 18000000 		.4byte	.Ldebug_ranges0+0x18
 2483 0f6d 01       		.byte	0x1
 2484 0f6e 8D       		.byte	0x8d
 2485 0f6f 03       		.byte	0x3
 2486 0f70 2A       		.uleb128 0x2a
 2487 0f71 90100000 		.4byte	0x1090
 2488 0f75 78000000 		.4byte	.LLST0
 2489 0f79 76000000 		.4byte	.LVUS0
 2490 0f7d 2A       		.uleb128 0x2a
 2491 0f7e 84100000 		.4byte	0x1084
 2492 0f82 8D000000 		.4byte	.LLST1
 2493 0f86 8B000000 		.4byte	.LVUS1
 2494 0f8a 2A       		.uleb128 0x2a
 2495 0f8b 78100000 		.4byte	0x1078
 2496 0f8f A2000000 		.4byte	.LLST2
 2497 0f93 A0000000 		.4byte	.LVUS2
 2498 0f97 00       		.byte	0
 2499 0f98 00       		.byte	0
 2500 0f99 25       		.uleb128 0x25
 2501 0f9a 5A020000 		.4byte	.LASF189
 2502 0f9e 01       		.byte	0x1
 2503 0f9f 7E       		.byte	0x7e
 2504 0fa0 0F       		.byte	0xf
 2505 0fa1 20000000 		.4byte	.LFB326
 2506 0fa5 0C000000 		.4byte	.LFE326-.LFB326
 2507 0fa9 01       		.uleb128 0x1
 2508 0faa 9C       		.byte	0x9c
ARM GAS  /tmp/ccOddNcm.s 			page 45


 2509 0fab D30F0000 		.4byte	0xfd3
 2510 0faf 2B       		.uleb128 0x2b
 2511 0fb0 746D7000 		.ascii	"tmp\000"
 2512 0fb4 01       		.byte	0x1
 2513 0fb5 7E       		.byte	0x7e
 2514 0fb6 39       		.byte	0x39
 2515 0fb7 240F0000 		.4byte	0xf24
 2516 0fbb 01       		.uleb128 0x1
 2517 0fbc 50       		.byte	0x50
 2518 0fbd 2C       		.uleb128 0x2c
 2519 0fbe 9D100000 		.4byte	0x109d
 2520 0fc2 20000000 		.4byte	.LBI18
 2521 0fc6 02       		.byte	.LVU14
 2522 0fc7 20000000 		.4byte	.LBB18
 2523 0fcb 04000000 		.4byte	.LBE18-.LBB18
 2524 0fcf 01       		.byte	0x1
 2525 0fd0 80       		.byte	0x80
 2526 0fd1 0F       		.byte	0xf
 2527 0fd2 00       		.byte	0
 2528 0fd3 2D       		.uleb128 0x2d
 2529 0fd4 9D040000 		.4byte	.LASF195
 2530 0fd8 01       		.byte	0x1
 2531 0fd9 6D       		.byte	0x6d
 2532 0fda 06       		.byte	0x6
 2533 0fdb 01       		.byte	0x1
 2534 0fdc ED0F0000 		.4byte	0xfed
 2535 0fe0 2E       		.uleb128 0x2e
 2536 0fe1 746D7000 		.ascii	"tmp\000"
 2537 0fe5 01       		.byte	0x1
 2538 0fe6 6D       		.byte	0x6d
 2539 0fe7 29       		.byte	0x29
 2540 0fe8 240F0000 		.4byte	0xf24
 2541 0fec 00       		.byte	0
 2542 0fed 25       		.uleb128 0x25
 2543 0fee 0C080000 		.4byte	.LASF190
 2544 0ff2 01       		.byte	0x1
 2545 0ff3 54       		.byte	0x54
 2546 0ff4 06       		.byte	0x6
 2547 0ff5 80000000 		.4byte	.LFB324
 2548 0ff9 40000000 		.4byte	.LFE324-.LFB324
 2549 0ffd 01       		.uleb128 0x1
 2550 0ffe 9C       		.byte	0x9c
 2551 0fff 6B100000 		.4byte	0x106b
 2552 1003 2F       		.uleb128 0x2f
 2553 1004 746D00   		.ascii	"tm\000"
 2554 1007 01       		.byte	0x1
 2555 1008 55       		.byte	0x55
 2556 1009 16       		.byte	0x16
 2557 100a 530A0000 		.4byte	0xa53
 2558 100e 02       		.uleb128 0x2
 2559 100f 91       		.byte	0x91
 2560 1010 58       		.sleb128 -40
 2561 1011 30       		.uleb128 0x30
 2562 1012 6900     		.ascii	"i\000"
 2563 1014 01       		.byte	0x1
 2564 1015 56       		.byte	0x56
 2565 1016 0C       		.byte	0xc
ARM GAS  /tmp/ccOddNcm.s 			page 46


 2566 1017 38000000 		.4byte	0x38
 2567 101b BB000000 		.4byte	.LLST3
 2568 101f B5000000 		.4byte	.LVUS3
 2569 1023 31       		.uleb128 0x31
 2570 1024 D30F0000 		.4byte	0xfd3
 2571 1028 96000000 		.4byte	.LBI28
 2572 102c 01       		.byte	.LVU66
 2573 102d 30000000 		.4byte	.Ldebug_ranges0+0x30
 2574 1031 01       		.byte	0x1
 2575 1032 5C       		.byte	0x5c
 2576 1033 03       		.byte	0x3
 2577 1034 46100000 		.4byte	0x1046
 2578 1038 2A       		.uleb128 0x2a
 2579 1039 E00F0000 		.4byte	0xfe0
 2580 103d E8000000 		.4byte	.LLST4
 2581 1041 E6000000 		.4byte	.LVUS4
 2582 1045 00       		.byte	0
 2583 1046 32       		.uleb128 0x32
 2584 1047 A8000000 		.4byte	.LVL9
 2585 104b 990F0000 		.4byte	0xf99
 2586 104f 5A100000 		.4byte	0x105a
 2587 1053 33       		.uleb128 0x33
 2588 1054 01       		.uleb128 0x1
 2589 1055 50       		.byte	0x50
 2590 1056 02       		.uleb128 0x2
 2591 1057 7D       		.byte	0x7d
 2592 1058 00       		.sleb128 0
 2593 1059 00       		.byte	0
 2594 105a 34       		.uleb128 0x34
 2595 105b AE000000 		.4byte	.LVL10
 2596 105f 2A0F0000 		.4byte	0xf2a
 2597 1063 33       		.uleb128 0x33
 2598 1064 01       		.uleb128 0x1
 2599 1065 50       		.byte	0x50
 2600 1066 02       		.uleb128 0x2
 2601 1067 7D       		.byte	0x7d
 2602 1068 00       		.sleb128 0
 2603 1069 00       		.byte	0
 2604 106a 00       		.byte	0
 2605 106b 35       		.uleb128 0x35
 2606 106c BB060000 		.4byte	.LASF196
 2607 1070 01       		.byte	0x1
 2608 1071 3C       		.byte	0x3c
 2609 1072 14       		.byte	0x14
 2610 1073 03       		.byte	0x3
 2611 1074 9D100000 		.4byte	0x109d
 2612 1078 2E       		.uleb128 0x2e
 2613 1079 746D7000 		.ascii	"tmp\000"
 2614 107d 01       		.byte	0x1
 2615 107e 3C       		.byte	0x3c
 2616 107f 30       		.byte	0x30
 2617 1080 240F0000 		.4byte	0xf24
 2618 1084 2E       		.uleb128 0x2e
 2619 1085 6E6F7700 		.ascii	"now\000"
 2620 1089 01       		.byte	0x1
 2621 108a 3D       		.byte	0x3d
 2622 108b 24       		.byte	0x24
ARM GAS  /tmp/ccOddNcm.s 			page 47


 2623 108c 0A010000 		.4byte	0x10a
 2624 1090 36       		.uleb128 0x36
 2625 1091 ED060000 		.4byte	.LASF122
 2626 1095 01       		.byte	0x1
 2627 1096 3E       		.byte	0x3e
 2628 1097 24       		.byte	0x24
 2629 1098 0A010000 		.4byte	0x10a
 2630 109c 00       		.byte	0
 2631 109d 37       		.uleb128 0x37
 2632 109e AD070000 		.4byte	.LASF197
 2633 10a2 02       		.byte	0x2
 2634 10a3 0D03     		.2byte	0x30d
 2635 10a5 1E       		.byte	0x1e
 2636 10a6 0A010000 		.4byte	0x10a
 2637 10aa 03       		.byte	0x3
 2638 10ab 38       		.uleb128 0x38
 2639 10ac D30F0000 		.4byte	0xfd3
 2640 10b0 00000000 		.4byte	.LFB325
 2641 10b4 1C000000 		.4byte	.LFE325-.LFB325
 2642 10b8 01       		.uleb128 0x1
 2643 10b9 9C       		.byte	0x9c
 2644 10ba 39       		.uleb128 0x39
 2645 10bb E00F0000 		.4byte	0xfe0
 2646 10bf 01       		.uleb128 0x1
 2647 10c0 50       		.byte	0x50
 2648 10c1 00       		.byte	0
 2649 10c2 00       		.byte	0
 2650              		.section	.debug_abbrev,"",%progbits
 2651              	.Ldebug_abbrev0:
 2652 0000 01       		.uleb128 0x1
 2653 0001 11       		.uleb128 0x11
 2654 0002 01       		.byte	0x1
 2655 0003 25       		.uleb128 0x25
 2656 0004 0E       		.uleb128 0xe
 2657 0005 13       		.uleb128 0x13
 2658 0006 0B       		.uleb128 0xb
 2659 0007 03       		.uleb128 0x3
 2660 0008 0E       		.uleb128 0xe
 2661 0009 1B       		.uleb128 0x1b
 2662 000a 0E       		.uleb128 0xe
 2663 000b 11       		.uleb128 0x11
 2664 000c 01       		.uleb128 0x1
 2665 000d 12       		.uleb128 0x12
 2666 000e 06       		.uleb128 0x6
 2667 000f 10       		.uleb128 0x10
 2668 0010 17       		.uleb128 0x17
 2669 0011 00       		.byte	0
 2670 0012 00       		.byte	0
 2671 0013 02       		.uleb128 0x2
 2672 0014 24       		.uleb128 0x24
 2673 0015 00       		.byte	0
 2674 0016 0B       		.uleb128 0xb
 2675 0017 0B       		.uleb128 0xb
 2676 0018 3E       		.uleb128 0x3e
 2677 0019 0B       		.uleb128 0xb
 2678 001a 03       		.uleb128 0x3
 2679 001b 08       		.uleb128 0x8
ARM GAS  /tmp/ccOddNcm.s 			page 48


 2680 001c 00       		.byte	0
 2681 001d 00       		.byte	0
 2682 001e 03       		.uleb128 0x3
 2683 001f 16       		.uleb128 0x16
 2684 0020 00       		.byte	0
 2685 0021 03       		.uleb128 0x3
 2686 0022 0E       		.uleb128 0xe
 2687 0023 3A       		.uleb128 0x3a
 2688 0024 0B       		.uleb128 0xb
 2689 0025 3B       		.uleb128 0x3b
 2690 0026 0B       		.uleb128 0xb
 2691 0027 39       		.uleb128 0x39
 2692 0028 0B       		.uleb128 0xb
 2693 0029 49       		.uleb128 0x49
 2694 002a 13       		.uleb128 0x13
 2695 002b 00       		.byte	0
 2696 002c 00       		.byte	0
 2697 002d 04       		.uleb128 0x4
 2698 002e 24       		.uleb128 0x24
 2699 002f 00       		.byte	0
 2700 0030 0B       		.uleb128 0xb
 2701 0031 0B       		.uleb128 0xb
 2702 0032 3E       		.uleb128 0x3e
 2703 0033 0B       		.uleb128 0xb
 2704 0034 03       		.uleb128 0x3
 2705 0035 0E       		.uleb128 0xe
 2706 0036 00       		.byte	0
 2707 0037 00       		.byte	0
 2708 0038 05       		.uleb128 0x5
 2709 0039 26       		.uleb128 0x26
 2710 003a 00       		.byte	0
 2711 003b 49       		.uleb128 0x49
 2712 003c 13       		.uleb128 0x13
 2713 003d 00       		.byte	0
 2714 003e 00       		.byte	0
 2715 003f 06       		.uleb128 0x6
 2716 0040 35       		.uleb128 0x35
 2717 0041 00       		.byte	0
 2718 0042 49       		.uleb128 0x49
 2719 0043 13       		.uleb128 0x13
 2720 0044 00       		.byte	0
 2721 0045 00       		.byte	0
 2722 0046 07       		.uleb128 0x7
 2723 0047 13       		.uleb128 0x13
 2724 0048 01       		.byte	0x1
 2725 0049 03       		.uleb128 0x3
 2726 004a 0E       		.uleb128 0xe
 2727 004b 0B       		.uleb128 0xb
 2728 004c 0B       		.uleb128 0xb
 2729 004d 3A       		.uleb128 0x3a
 2730 004e 0B       		.uleb128 0xb
 2731 004f 3B       		.uleb128 0x3b
 2732 0050 0B       		.uleb128 0xb
 2733 0051 39       		.uleb128 0x39
 2734 0052 0B       		.uleb128 0xb
 2735 0053 01       		.uleb128 0x1
 2736 0054 13       		.uleb128 0x13
ARM GAS  /tmp/ccOddNcm.s 			page 49


 2737 0055 00       		.byte	0
 2738 0056 00       		.byte	0
 2739 0057 08       		.uleb128 0x8
 2740 0058 0D       		.uleb128 0xd
 2741 0059 00       		.byte	0
 2742 005a 03       		.uleb128 0x3
 2743 005b 0E       		.uleb128 0xe
 2744 005c 3A       		.uleb128 0x3a
 2745 005d 0B       		.uleb128 0xb
 2746 005e 3B       		.uleb128 0x3b
 2747 005f 0B       		.uleb128 0xb
 2748 0060 39       		.uleb128 0x39
 2749 0061 0B       		.uleb128 0xb
 2750 0062 49       		.uleb128 0x49
 2751 0063 13       		.uleb128 0x13
 2752 0064 38       		.uleb128 0x38
 2753 0065 0B       		.uleb128 0xb
 2754 0066 00       		.byte	0
 2755 0067 00       		.byte	0
 2756 0068 09       		.uleb128 0x9
 2757 0069 0D       		.uleb128 0xd
 2758 006a 00       		.byte	0
 2759 006b 03       		.uleb128 0x3
 2760 006c 08       		.uleb128 0x8
 2761 006d 3A       		.uleb128 0x3a
 2762 006e 0B       		.uleb128 0xb
 2763 006f 3B       		.uleb128 0x3b
 2764 0070 0B       		.uleb128 0xb
 2765 0071 39       		.uleb128 0x39
 2766 0072 0B       		.uleb128 0xb
 2767 0073 49       		.uleb128 0x49
 2768 0074 13       		.uleb128 0x13
 2769 0075 38       		.uleb128 0x38
 2770 0076 0B       		.uleb128 0xb
 2771 0077 00       		.byte	0
 2772 0078 00       		.byte	0
 2773 0079 0A       		.uleb128 0xa
 2774 007a 0D       		.uleb128 0xd
 2775 007b 00       		.byte	0
 2776 007c 03       		.uleb128 0x3
 2777 007d 08       		.uleb128 0x8
 2778 007e 3A       		.uleb128 0x3a
 2779 007f 0B       		.uleb128 0xb
 2780 0080 3B       		.uleb128 0x3b
 2781 0081 05       		.uleb128 0x5
 2782 0082 39       		.uleb128 0x39
 2783 0083 0B       		.uleb128 0xb
 2784 0084 49       		.uleb128 0x49
 2785 0085 13       		.uleb128 0x13
 2786 0086 38       		.uleb128 0x38
 2787 0087 0B       		.uleb128 0xb
 2788 0088 00       		.byte	0
 2789 0089 00       		.byte	0
 2790 008a 0B       		.uleb128 0xb
 2791 008b 0D       		.uleb128 0xd
 2792 008c 00       		.byte	0
 2793 008d 03       		.uleb128 0x3
ARM GAS  /tmp/ccOddNcm.s 			page 50


 2794 008e 0E       		.uleb128 0xe
 2795 008f 3A       		.uleb128 0x3a
 2796 0090 0B       		.uleb128 0xb
 2797 0091 3B       		.uleb128 0x3b
 2798 0092 05       		.uleb128 0x5
 2799 0093 39       		.uleb128 0x39
 2800 0094 0B       		.uleb128 0xb
 2801 0095 49       		.uleb128 0x49
 2802 0096 13       		.uleb128 0x13
 2803 0097 38       		.uleb128 0x38
 2804 0098 0B       		.uleb128 0xb
 2805 0099 00       		.byte	0
 2806 009a 00       		.byte	0
 2807 009b 0C       		.uleb128 0xc
 2808 009c 0F       		.uleb128 0xf
 2809 009d 00       		.byte	0
 2810 009e 0B       		.uleb128 0xb
 2811 009f 0B       		.uleb128 0xb
 2812 00a0 49       		.uleb128 0x49
 2813 00a1 13       		.uleb128 0x13
 2814 00a2 00       		.byte	0
 2815 00a3 00       		.byte	0
 2816 00a4 0D       		.uleb128 0xd
 2817 00a5 13       		.uleb128 0x13
 2818 00a6 01       		.byte	0x1
 2819 00a7 03       		.uleb128 0x3
 2820 00a8 0E       		.uleb128 0xe
 2821 00a9 0B       		.uleb128 0xb
 2822 00aa 0B       		.uleb128 0xb
 2823 00ab 3A       		.uleb128 0x3a
 2824 00ac 0B       		.uleb128 0xb
 2825 00ad 3B       		.uleb128 0x3b
 2826 00ae 05       		.uleb128 0x5
 2827 00af 39       		.uleb128 0x39
 2828 00b0 0B       		.uleb128 0xb
 2829 00b1 01       		.uleb128 0x1
 2830 00b2 13       		.uleb128 0x13
 2831 00b3 00       		.byte	0
 2832 00b4 00       		.byte	0
 2833 00b5 0E       		.uleb128 0xe
 2834 00b6 15       		.uleb128 0x15
 2835 00b7 01       		.byte	0x1
 2836 00b8 27       		.uleb128 0x27
 2837 00b9 19       		.uleb128 0x19
 2838 00ba 01       		.uleb128 0x1
 2839 00bb 13       		.uleb128 0x13
 2840 00bc 00       		.byte	0
 2841 00bd 00       		.byte	0
 2842 00be 0F       		.uleb128 0xf
 2843 00bf 05       		.uleb128 0x5
 2844 00c0 00       		.byte	0
 2845 00c1 49       		.uleb128 0x49
 2846 00c2 13       		.uleb128 0x13
 2847 00c3 00       		.byte	0
 2848 00c4 00       		.byte	0
 2849 00c5 10       		.uleb128 0x10
 2850 00c6 0F       		.uleb128 0xf
ARM GAS  /tmp/ccOddNcm.s 			page 51


 2851 00c7 00       		.byte	0
 2852 00c8 0B       		.uleb128 0xb
 2853 00c9 0B       		.uleb128 0xb
 2854 00ca 00       		.byte	0
 2855 00cb 00       		.byte	0
 2856 00cc 11       		.uleb128 0x11
 2857 00cd 13       		.uleb128 0x13
 2858 00ce 01       		.byte	0x1
 2859 00cf 03       		.uleb128 0x3
 2860 00d0 0E       		.uleb128 0xe
 2861 00d1 0B       		.uleb128 0xb
 2862 00d2 05       		.uleb128 0x5
 2863 00d3 3A       		.uleb128 0x3a
 2864 00d4 0B       		.uleb128 0xb
 2865 00d5 3B       		.uleb128 0x3b
 2866 00d6 05       		.uleb128 0x5
 2867 00d7 39       		.uleb128 0x39
 2868 00d8 0B       		.uleb128 0xb
 2869 00d9 01       		.uleb128 0x1
 2870 00da 13       		.uleb128 0x13
 2871 00db 00       		.byte	0
 2872 00dc 00       		.byte	0
 2873 00dd 12       		.uleb128 0x12
 2874 00de 0D       		.uleb128 0xd
 2875 00df 00       		.byte	0
 2876 00e0 03       		.uleb128 0x3
 2877 00e1 0E       		.uleb128 0xe
 2878 00e2 3A       		.uleb128 0x3a
 2879 00e3 0B       		.uleb128 0xb
 2880 00e4 3B       		.uleb128 0x3b
 2881 00e5 05       		.uleb128 0x5
 2882 00e6 39       		.uleb128 0x39
 2883 00e7 0B       		.uleb128 0xb
 2884 00e8 49       		.uleb128 0x49
 2885 00e9 13       		.uleb128 0x13
 2886 00ea 38       		.uleb128 0x38
 2887 00eb 05       		.uleb128 0x5
 2888 00ec 00       		.byte	0
 2889 00ed 00       		.byte	0
 2890 00ee 13       		.uleb128 0x13
 2891 00ef 0D       		.uleb128 0xd
 2892 00f0 00       		.byte	0
 2893 00f1 03       		.uleb128 0x3
 2894 00f2 08       		.uleb128 0x8
 2895 00f3 3A       		.uleb128 0x3a
 2896 00f4 0B       		.uleb128 0xb
 2897 00f5 3B       		.uleb128 0x3b
 2898 00f6 05       		.uleb128 0x5
 2899 00f7 39       		.uleb128 0x39
 2900 00f8 0B       		.uleb128 0xb
 2901 00f9 49       		.uleb128 0x49
 2902 00fa 13       		.uleb128 0x13
 2903 00fb 38       		.uleb128 0x38
 2904 00fc 05       		.uleb128 0x5
 2905 00fd 00       		.byte	0
 2906 00fe 00       		.byte	0
 2907 00ff 14       		.uleb128 0x14
ARM GAS  /tmp/ccOddNcm.s 			page 52


 2908 0100 01       		.uleb128 0x1
 2909 0101 01       		.byte	0x1
 2910 0102 49       		.uleb128 0x49
 2911 0103 13       		.uleb128 0x13
 2912 0104 01       		.uleb128 0x1
 2913 0105 13       		.uleb128 0x13
 2914 0106 00       		.byte	0
 2915 0107 00       		.byte	0
 2916 0108 15       		.uleb128 0x15
 2917 0109 21       		.uleb128 0x21
 2918 010a 00       		.byte	0
 2919 010b 49       		.uleb128 0x49
 2920 010c 13       		.uleb128 0x13
 2921 010d 2F       		.uleb128 0x2f
 2922 010e 0B       		.uleb128 0xb
 2923 010f 00       		.byte	0
 2924 0110 00       		.byte	0
 2925 0111 16       		.uleb128 0x16
 2926 0112 13       		.uleb128 0x13
 2927 0113 01       		.byte	0x1
 2928 0114 0B       		.uleb128 0xb
 2929 0115 05       		.uleb128 0x5
 2930 0116 3A       		.uleb128 0x3a
 2931 0117 0B       		.uleb128 0xb
 2932 0118 3B       		.uleb128 0x3b
 2933 0119 05       		.uleb128 0x5
 2934 011a 39       		.uleb128 0x39
 2935 011b 0B       		.uleb128 0xb
 2936 011c 01       		.uleb128 0x1
 2937 011d 13       		.uleb128 0x13
 2938 011e 00       		.byte	0
 2939 011f 00       		.byte	0
 2940 0120 17       		.uleb128 0x17
 2941 0121 21       		.uleb128 0x21
 2942 0122 00       		.byte	0
 2943 0123 49       		.uleb128 0x49
 2944 0124 13       		.uleb128 0x13
 2945 0125 2F       		.uleb128 0x2f
 2946 0126 05       		.uleb128 0x5
 2947 0127 00       		.byte	0
 2948 0128 00       		.byte	0
 2949 0129 18       		.uleb128 0x18
 2950 012a 16       		.uleb128 0x16
 2951 012b 00       		.byte	0
 2952 012c 03       		.uleb128 0x3
 2953 012d 0E       		.uleb128 0xe
 2954 012e 3A       		.uleb128 0x3a
 2955 012f 0B       		.uleb128 0xb
 2956 0130 3B       		.uleb128 0x3b
 2957 0131 05       		.uleb128 0x5
 2958 0132 39       		.uleb128 0x39
 2959 0133 0B       		.uleb128 0xb
 2960 0134 49       		.uleb128 0x49
 2961 0135 13       		.uleb128 0x13
 2962 0136 00       		.byte	0
 2963 0137 00       		.byte	0
 2964 0138 19       		.uleb128 0x19
ARM GAS  /tmp/ccOddNcm.s 			page 53


 2965 0139 34       		.uleb128 0x34
 2966 013a 00       		.byte	0
 2967 013b 03       		.uleb128 0x3
 2968 013c 0E       		.uleb128 0xe
 2969 013d 3A       		.uleb128 0x3a
 2970 013e 0B       		.uleb128 0xb
 2971 013f 3B       		.uleb128 0x3b
 2972 0140 05       		.uleb128 0x5
 2973 0141 39       		.uleb128 0x39
 2974 0142 0B       		.uleb128 0xb
 2975 0143 49       		.uleb128 0x49
 2976 0144 13       		.uleb128 0x13
 2977 0145 3F       		.uleb128 0x3f
 2978 0146 19       		.uleb128 0x19
 2979 0147 3C       		.uleb128 0x3c
 2980 0148 19       		.uleb128 0x19
 2981 0149 00       		.byte	0
 2982 014a 00       		.byte	0
 2983 014b 1A       		.uleb128 0x1a
 2984 014c 34       		.uleb128 0x34
 2985 014d 00       		.byte	0
 2986 014e 03       		.uleb128 0x3
 2987 014f 0E       		.uleb128 0xe
 2988 0150 3A       		.uleb128 0x3a
 2989 0151 0B       		.uleb128 0xb
 2990 0152 3B       		.uleb128 0x3b
 2991 0153 0B       		.uleb128 0xb
 2992 0154 39       		.uleb128 0x39
 2993 0155 0B       		.uleb128 0xb
 2994 0156 49       		.uleb128 0x49
 2995 0157 13       		.uleb128 0x13
 2996 0158 3F       		.uleb128 0x3f
 2997 0159 19       		.uleb128 0x19
 2998 015a 3C       		.uleb128 0x3c
 2999 015b 19       		.uleb128 0x19
 3000 015c 00       		.byte	0
 3001 015d 00       		.byte	0
 3002 015e 1B       		.uleb128 0x1b
 3003 015f 13       		.uleb128 0x13
 3004 0160 01       		.byte	0x1
 3005 0161 0B       		.uleb128 0xb
 3006 0162 0B       		.uleb128 0xb
 3007 0163 3A       		.uleb128 0x3a
 3008 0164 0B       		.uleb128 0xb
 3009 0165 3B       		.uleb128 0x3b
 3010 0166 0B       		.uleb128 0xb
 3011 0167 39       		.uleb128 0x39
 3012 0168 0B       		.uleb128 0xb
 3013 0169 01       		.uleb128 0x1
 3014 016a 13       		.uleb128 0x13
 3015 016b 00       		.byte	0
 3016 016c 00       		.byte	0
 3017 016d 1C       		.uleb128 0x1c
 3018 016e 17       		.uleb128 0x17
 3019 016f 01       		.byte	0x1
 3020 0170 0B       		.uleb128 0xb
 3021 0171 0B       		.uleb128 0xb
ARM GAS  /tmp/ccOddNcm.s 			page 54


 3022 0172 3A       		.uleb128 0x3a
 3023 0173 0B       		.uleb128 0xb
 3024 0174 3B       		.uleb128 0x3b
 3025 0175 0B       		.uleb128 0xb
 3026 0176 39       		.uleb128 0x39
 3027 0177 0B       		.uleb128 0xb
 3028 0178 01       		.uleb128 0x1
 3029 0179 13       		.uleb128 0x13
 3030 017a 00       		.byte	0
 3031 017b 00       		.byte	0
 3032 017c 1D       		.uleb128 0x1d
 3033 017d 0D       		.uleb128 0xd
 3034 017e 00       		.byte	0
 3035 017f 03       		.uleb128 0x3
 3036 0180 08       		.uleb128 0x8
 3037 0181 3A       		.uleb128 0x3a
 3038 0182 0B       		.uleb128 0xb
 3039 0183 3B       		.uleb128 0x3b
 3040 0184 0B       		.uleb128 0xb
 3041 0185 39       		.uleb128 0x39
 3042 0186 0B       		.uleb128 0xb
 3043 0187 49       		.uleb128 0x49
 3044 0188 13       		.uleb128 0x13
 3045 0189 00       		.byte	0
 3046 018a 00       		.byte	0
 3047 018b 1E       		.uleb128 0x1e
 3048 018c 0D       		.uleb128 0xd
 3049 018d 00       		.byte	0
 3050 018e 03       		.uleb128 0x3
 3051 018f 0E       		.uleb128 0xe
 3052 0190 3A       		.uleb128 0x3a
 3053 0191 0B       		.uleb128 0xb
 3054 0192 3B       		.uleb128 0x3b
 3055 0193 0B       		.uleb128 0xb
 3056 0194 39       		.uleb128 0x39
 3057 0195 0B       		.uleb128 0xb
 3058 0196 49       		.uleb128 0x49
 3059 0197 13       		.uleb128 0x13
 3060 0198 00       		.byte	0
 3061 0199 00       		.byte	0
 3062 019a 1F       		.uleb128 0x1f
 3063 019b 0D       		.uleb128 0xd
 3064 019c 00       		.byte	0
 3065 019d 03       		.uleb128 0x3
 3066 019e 0E       		.uleb128 0xe
 3067 019f 3A       		.uleb128 0x3a
 3068 01a0 0B       		.uleb128 0xb
 3069 01a1 3B       		.uleb128 0x3b
 3070 01a2 0B       		.uleb128 0xb
 3071 01a3 39       		.uleb128 0x39
 3072 01a4 0B       		.uleb128 0xb
 3073 01a5 49       		.uleb128 0x49
 3074 01a6 13       		.uleb128 0x13
 3075 01a7 0B       		.uleb128 0xb
 3076 01a8 0B       		.uleb128 0xb
 3077 01a9 0D       		.uleb128 0xd
 3078 01aa 0B       		.uleb128 0xb
ARM GAS  /tmp/ccOddNcm.s 			page 55


 3079 01ab 0C       		.uleb128 0xc
 3080 01ac 0B       		.uleb128 0xb
 3081 01ad 38       		.uleb128 0x38
 3082 01ae 0B       		.uleb128 0xb
 3083 01af 00       		.byte	0
 3084 01b0 00       		.byte	0
 3085 01b1 20       		.uleb128 0x20
 3086 01b2 13       		.uleb128 0x13
 3087 01b3 01       		.byte	0x1
 3088 01b4 0B       		.uleb128 0xb
 3089 01b5 05       		.uleb128 0x5
 3090 01b6 3A       		.uleb128 0x3a
 3091 01b7 0B       		.uleb128 0xb
 3092 01b8 3B       		.uleb128 0x3b
 3093 01b9 0B       		.uleb128 0xb
 3094 01ba 39       		.uleb128 0x39
 3095 01bb 0B       		.uleb128 0xb
 3096 01bc 01       		.uleb128 0x1
 3097 01bd 13       		.uleb128 0x13
 3098 01be 00       		.byte	0
 3099 01bf 00       		.byte	0
 3100 01c0 21       		.uleb128 0x21
 3101 01c1 0D       		.uleb128 0xd
 3102 01c2 00       		.byte	0
 3103 01c3 03       		.uleb128 0x3
 3104 01c4 0E       		.uleb128 0xe
 3105 01c5 3A       		.uleb128 0x3a
 3106 01c6 0B       		.uleb128 0xb
 3107 01c7 3B       		.uleb128 0x3b
 3108 01c8 05       		.uleb128 0x5
 3109 01c9 39       		.uleb128 0x39
 3110 01ca 0B       		.uleb128 0xb
 3111 01cb 49       		.uleb128 0x49
 3112 01cc 13       		.uleb128 0x13
 3113 01cd 00       		.byte	0
 3114 01ce 00       		.byte	0
 3115 01cf 22       		.uleb128 0x22
 3116 01d0 34       		.uleb128 0x34
 3117 01d1 00       		.byte	0
 3118 01d2 03       		.uleb128 0x3
 3119 01d3 08       		.uleb128 0x8
 3120 01d4 3A       		.uleb128 0x3a
 3121 01d5 0B       		.uleb128 0xb
 3122 01d6 3B       		.uleb128 0x3b
 3123 01d7 05       		.uleb128 0x5
 3124 01d8 39       		.uleb128 0x39
 3125 01d9 0B       		.uleb128 0xb
 3126 01da 49       		.uleb128 0x49
 3127 01db 13       		.uleb128 0x13
 3128 01dc 3F       		.uleb128 0x3f
 3129 01dd 19       		.uleb128 0x19
 3130 01de 3C       		.uleb128 0x3c
 3131 01df 19       		.uleb128 0x19
 3132 01e0 00       		.byte	0
 3133 01e1 00       		.byte	0
 3134 01e2 23       		.uleb128 0x23
 3135 01e3 21       		.uleb128 0x21
ARM GAS  /tmp/ccOddNcm.s 			page 56


 3136 01e4 00       		.byte	0
 3137 01e5 00       		.byte	0
 3138 01e6 00       		.byte	0
 3139 01e7 24       		.uleb128 0x24
 3140 01e8 15       		.uleb128 0x15
 3141 01e9 01       		.byte	0x1
 3142 01ea 27       		.uleb128 0x27
 3143 01eb 19       		.uleb128 0x19
 3144 01ec 49       		.uleb128 0x49
 3145 01ed 13       		.uleb128 0x13
 3146 01ee 01       		.uleb128 0x1
 3147 01ef 13       		.uleb128 0x13
 3148 01f0 00       		.byte	0
 3149 01f1 00       		.byte	0
 3150 01f2 25       		.uleb128 0x25
 3151 01f3 2E       		.uleb128 0x2e
 3152 01f4 01       		.byte	0x1
 3153 01f5 3F       		.uleb128 0x3f
 3154 01f6 19       		.uleb128 0x19
 3155 01f7 03       		.uleb128 0x3
 3156 01f8 0E       		.uleb128 0xe
 3157 01f9 3A       		.uleb128 0x3a
 3158 01fa 0B       		.uleb128 0xb
 3159 01fb 3B       		.uleb128 0x3b
 3160 01fc 0B       		.uleb128 0xb
 3161 01fd 39       		.uleb128 0x39
 3162 01fe 0B       		.uleb128 0xb
 3163 01ff 27       		.uleb128 0x27
 3164 0200 19       		.uleb128 0x19
 3165 0201 11       		.uleb128 0x11
 3166 0202 01       		.uleb128 0x1
 3167 0203 12       		.uleb128 0x12
 3168 0204 06       		.uleb128 0x6
 3169 0205 40       		.uleb128 0x40
 3170 0206 18       		.uleb128 0x18
 3171 0207 9742     		.uleb128 0x2117
 3172 0209 19       		.uleb128 0x19
 3173 020a 01       		.uleb128 0x1
 3174 020b 13       		.uleb128 0x13
 3175 020c 00       		.byte	0
 3176 020d 00       		.byte	0
 3177 020e 26       		.uleb128 0x26
 3178 020f 05       		.uleb128 0x5
 3179 0210 00       		.byte	0
 3180 0211 03       		.uleb128 0x3
 3181 0212 0E       		.uleb128 0xe
 3182 0213 3A       		.uleb128 0x3a
 3183 0214 0B       		.uleb128 0xb
 3184 0215 3B       		.uleb128 0x3b
 3185 0216 0B       		.uleb128 0xb
 3186 0217 39       		.uleb128 0x39
 3187 0218 0B       		.uleb128 0xb
 3188 0219 49       		.uleb128 0x49
 3189 021a 13       		.uleb128 0x13
 3190 021b 02       		.uleb128 0x2
 3191 021c 18       		.uleb128 0x18
 3192 021d 00       		.byte	0
ARM GAS  /tmp/ccOddNcm.s 			page 57


 3193 021e 00       		.byte	0
 3194 021f 27       		.uleb128 0x27
 3195 0220 05       		.uleb128 0x5
 3196 0221 00       		.byte	0
 3197 0222 03       		.uleb128 0x3
 3198 0223 0E       		.uleb128 0xe
 3199 0224 3A       		.uleb128 0x3a
 3200 0225 0B       		.uleb128 0xb
 3201 0226 3B       		.uleb128 0x3b
 3202 0227 0B       		.uleb128 0xb
 3203 0228 39       		.uleb128 0x39
 3204 0229 0B       		.uleb128 0xb
 3205 022a 49       		.uleb128 0x49
 3206 022b 13       		.uleb128 0x13
 3207 022c 02       		.uleb128 0x2
 3208 022d 17       		.uleb128 0x17
 3209 022e B742     		.uleb128 0x2137
 3210 0230 17       		.uleb128 0x17
 3211 0231 00       		.byte	0
 3212 0232 00       		.byte	0
 3213 0233 28       		.uleb128 0x28
 3214 0234 1D       		.uleb128 0x1d
 3215 0235 00       		.byte	0
 3216 0236 31       		.uleb128 0x31
 3217 0237 13       		.uleb128 0x13
 3218 0238 52       		.uleb128 0x52
 3219 0239 01       		.uleb128 0x1
 3220 023a B842     		.uleb128 0x2138
 3221 023c 0B       		.uleb128 0xb
 3222 023d 55       		.uleb128 0x55
 3223 023e 17       		.uleb128 0x17
 3224 023f 58       		.uleb128 0x58
 3225 0240 0B       		.uleb128 0xb
 3226 0241 59       		.uleb128 0x59
 3227 0242 0B       		.uleb128 0xb
 3228 0243 57       		.uleb128 0x57
 3229 0244 0B       		.uleb128 0xb
 3230 0245 00       		.byte	0
 3231 0246 00       		.byte	0
 3232 0247 29       		.uleb128 0x29
 3233 0248 1D       		.uleb128 0x1d
 3234 0249 01       		.byte	0x1
 3235 024a 31       		.uleb128 0x31
 3236 024b 13       		.uleb128 0x13
 3237 024c 52       		.uleb128 0x52
 3238 024d 01       		.uleb128 0x1
 3239 024e B842     		.uleb128 0x2138
 3240 0250 0B       		.uleb128 0xb
 3241 0251 55       		.uleb128 0x55
 3242 0252 17       		.uleb128 0x17
 3243 0253 58       		.uleb128 0x58
 3244 0254 0B       		.uleb128 0xb
 3245 0255 59       		.uleb128 0x59
 3246 0256 0B       		.uleb128 0xb
 3247 0257 57       		.uleb128 0x57
 3248 0258 0B       		.uleb128 0xb
 3249 0259 00       		.byte	0
ARM GAS  /tmp/ccOddNcm.s 			page 58


 3250 025a 00       		.byte	0
 3251 025b 2A       		.uleb128 0x2a
 3252 025c 05       		.uleb128 0x5
 3253 025d 00       		.byte	0
 3254 025e 31       		.uleb128 0x31
 3255 025f 13       		.uleb128 0x13
 3256 0260 02       		.uleb128 0x2
 3257 0261 17       		.uleb128 0x17
 3258 0262 B742     		.uleb128 0x2137
 3259 0264 17       		.uleb128 0x17
 3260 0265 00       		.byte	0
 3261 0266 00       		.byte	0
 3262 0267 2B       		.uleb128 0x2b
 3263 0268 05       		.uleb128 0x5
 3264 0269 00       		.byte	0
 3265 026a 03       		.uleb128 0x3
 3266 026b 08       		.uleb128 0x8
 3267 026c 3A       		.uleb128 0x3a
 3268 026d 0B       		.uleb128 0xb
 3269 026e 3B       		.uleb128 0x3b
 3270 026f 0B       		.uleb128 0xb
 3271 0270 39       		.uleb128 0x39
 3272 0271 0B       		.uleb128 0xb
 3273 0272 49       		.uleb128 0x49
 3274 0273 13       		.uleb128 0x13
 3275 0274 02       		.uleb128 0x2
 3276 0275 18       		.uleb128 0x18
 3277 0276 00       		.byte	0
 3278 0277 00       		.byte	0
 3279 0278 2C       		.uleb128 0x2c
 3280 0279 1D       		.uleb128 0x1d
 3281 027a 00       		.byte	0
 3282 027b 31       		.uleb128 0x31
 3283 027c 13       		.uleb128 0x13
 3284 027d 52       		.uleb128 0x52
 3285 027e 01       		.uleb128 0x1
 3286 027f B842     		.uleb128 0x2138
 3287 0281 0B       		.uleb128 0xb
 3288 0282 11       		.uleb128 0x11
 3289 0283 01       		.uleb128 0x1
 3290 0284 12       		.uleb128 0x12
 3291 0285 06       		.uleb128 0x6
 3292 0286 58       		.uleb128 0x58
 3293 0287 0B       		.uleb128 0xb
 3294 0288 59       		.uleb128 0x59
 3295 0289 0B       		.uleb128 0xb
 3296 028a 57       		.uleb128 0x57
 3297 028b 0B       		.uleb128 0xb
 3298 028c 00       		.byte	0
 3299 028d 00       		.byte	0
 3300 028e 2D       		.uleb128 0x2d
 3301 028f 2E       		.uleb128 0x2e
 3302 0290 01       		.byte	0x1
 3303 0291 3F       		.uleb128 0x3f
 3304 0292 19       		.uleb128 0x19
 3305 0293 03       		.uleb128 0x3
 3306 0294 0E       		.uleb128 0xe
ARM GAS  /tmp/ccOddNcm.s 			page 59


 3307 0295 3A       		.uleb128 0x3a
 3308 0296 0B       		.uleb128 0xb
 3309 0297 3B       		.uleb128 0x3b
 3310 0298 0B       		.uleb128 0xb
 3311 0299 39       		.uleb128 0x39
 3312 029a 0B       		.uleb128 0xb
 3313 029b 27       		.uleb128 0x27
 3314 029c 19       		.uleb128 0x19
 3315 029d 20       		.uleb128 0x20
 3316 029e 0B       		.uleb128 0xb
 3317 029f 01       		.uleb128 0x1
 3318 02a0 13       		.uleb128 0x13
 3319 02a1 00       		.byte	0
 3320 02a2 00       		.byte	0
 3321 02a3 2E       		.uleb128 0x2e
 3322 02a4 05       		.uleb128 0x5
 3323 02a5 00       		.byte	0
 3324 02a6 03       		.uleb128 0x3
 3325 02a7 08       		.uleb128 0x8
 3326 02a8 3A       		.uleb128 0x3a
 3327 02a9 0B       		.uleb128 0xb
 3328 02aa 3B       		.uleb128 0x3b
 3329 02ab 0B       		.uleb128 0xb
 3330 02ac 39       		.uleb128 0x39
 3331 02ad 0B       		.uleb128 0xb
 3332 02ae 49       		.uleb128 0x49
 3333 02af 13       		.uleb128 0x13
 3334 02b0 00       		.byte	0
 3335 02b1 00       		.byte	0
 3336 02b2 2F       		.uleb128 0x2f
 3337 02b3 34       		.uleb128 0x34
 3338 02b4 00       		.byte	0
 3339 02b5 03       		.uleb128 0x3
 3340 02b6 08       		.uleb128 0x8
 3341 02b7 3A       		.uleb128 0x3a
 3342 02b8 0B       		.uleb128 0xb
 3343 02b9 3B       		.uleb128 0x3b
 3344 02ba 0B       		.uleb128 0xb
 3345 02bb 39       		.uleb128 0x39
 3346 02bc 0B       		.uleb128 0xb
 3347 02bd 49       		.uleb128 0x49
 3348 02be 13       		.uleb128 0x13
 3349 02bf 02       		.uleb128 0x2
 3350 02c0 18       		.uleb128 0x18
 3351 02c1 00       		.byte	0
 3352 02c2 00       		.byte	0
 3353 02c3 30       		.uleb128 0x30
 3354 02c4 34       		.uleb128 0x34
 3355 02c5 00       		.byte	0
 3356 02c6 03       		.uleb128 0x3
 3357 02c7 08       		.uleb128 0x8
 3358 02c8 3A       		.uleb128 0x3a
 3359 02c9 0B       		.uleb128 0xb
 3360 02ca 3B       		.uleb128 0x3b
 3361 02cb 0B       		.uleb128 0xb
 3362 02cc 39       		.uleb128 0x39
 3363 02cd 0B       		.uleb128 0xb
ARM GAS  /tmp/ccOddNcm.s 			page 60


 3364 02ce 49       		.uleb128 0x49
 3365 02cf 13       		.uleb128 0x13
 3366 02d0 02       		.uleb128 0x2
 3367 02d1 17       		.uleb128 0x17
 3368 02d2 B742     		.uleb128 0x2137
 3369 02d4 17       		.uleb128 0x17
 3370 02d5 00       		.byte	0
 3371 02d6 00       		.byte	0
 3372 02d7 31       		.uleb128 0x31
 3373 02d8 1D       		.uleb128 0x1d
 3374 02d9 01       		.byte	0x1
 3375 02da 31       		.uleb128 0x31
 3376 02db 13       		.uleb128 0x13
 3377 02dc 52       		.uleb128 0x52
 3378 02dd 01       		.uleb128 0x1
 3379 02de B842     		.uleb128 0x2138
 3380 02e0 0B       		.uleb128 0xb
 3381 02e1 55       		.uleb128 0x55
 3382 02e2 17       		.uleb128 0x17
 3383 02e3 58       		.uleb128 0x58
 3384 02e4 0B       		.uleb128 0xb
 3385 02e5 59       		.uleb128 0x59
 3386 02e6 0B       		.uleb128 0xb
 3387 02e7 57       		.uleb128 0x57
 3388 02e8 0B       		.uleb128 0xb
 3389 02e9 01       		.uleb128 0x1
 3390 02ea 13       		.uleb128 0x13
 3391 02eb 00       		.byte	0
 3392 02ec 00       		.byte	0
 3393 02ed 32       		.uleb128 0x32
 3394 02ee 898201   		.uleb128 0x4109
 3395 02f1 01       		.byte	0x1
 3396 02f2 11       		.uleb128 0x11
 3397 02f3 01       		.uleb128 0x1
 3398 02f4 31       		.uleb128 0x31
 3399 02f5 13       		.uleb128 0x13
 3400 02f6 01       		.uleb128 0x1
 3401 02f7 13       		.uleb128 0x13
 3402 02f8 00       		.byte	0
 3403 02f9 00       		.byte	0
 3404 02fa 33       		.uleb128 0x33
 3405 02fb 8A8201   		.uleb128 0x410a
 3406 02fe 00       		.byte	0
 3407 02ff 02       		.uleb128 0x2
 3408 0300 18       		.uleb128 0x18
 3409 0301 9142     		.uleb128 0x2111
 3410 0303 18       		.uleb128 0x18
 3411 0304 00       		.byte	0
 3412 0305 00       		.byte	0
 3413 0306 34       		.uleb128 0x34
 3414 0307 898201   		.uleb128 0x4109
 3415 030a 01       		.byte	0x1
 3416 030b 11       		.uleb128 0x11
 3417 030c 01       		.uleb128 0x1
 3418 030d 31       		.uleb128 0x31
 3419 030e 13       		.uleb128 0x13
 3420 030f 00       		.byte	0
ARM GAS  /tmp/ccOddNcm.s 			page 61


 3421 0310 00       		.byte	0
 3422 0311 35       		.uleb128 0x35
 3423 0312 2E       		.uleb128 0x2e
 3424 0313 01       		.byte	0x1
 3425 0314 03       		.uleb128 0x3
 3426 0315 0E       		.uleb128 0xe
 3427 0316 3A       		.uleb128 0x3a
 3428 0317 0B       		.uleb128 0xb
 3429 0318 3B       		.uleb128 0x3b
 3430 0319 0B       		.uleb128 0xb
 3431 031a 39       		.uleb128 0x39
 3432 031b 0B       		.uleb128 0xb
 3433 031c 27       		.uleb128 0x27
 3434 031d 19       		.uleb128 0x19
 3435 031e 20       		.uleb128 0x20
 3436 031f 0B       		.uleb128 0xb
 3437 0320 01       		.uleb128 0x1
 3438 0321 13       		.uleb128 0x13
 3439 0322 00       		.byte	0
 3440 0323 00       		.byte	0
 3441 0324 36       		.uleb128 0x36
 3442 0325 05       		.uleb128 0x5
 3443 0326 00       		.byte	0
 3444 0327 03       		.uleb128 0x3
 3445 0328 0E       		.uleb128 0xe
 3446 0329 3A       		.uleb128 0x3a
 3447 032a 0B       		.uleb128 0xb
 3448 032b 3B       		.uleb128 0x3b
 3449 032c 0B       		.uleb128 0xb
 3450 032d 39       		.uleb128 0x39
 3451 032e 0B       		.uleb128 0xb
 3452 032f 49       		.uleb128 0x49
 3453 0330 13       		.uleb128 0x13
 3454 0331 00       		.byte	0
 3455 0332 00       		.byte	0
 3456 0333 37       		.uleb128 0x37
 3457 0334 2E       		.uleb128 0x2e
 3458 0335 00       		.byte	0
 3459 0336 03       		.uleb128 0x3
 3460 0337 0E       		.uleb128 0xe
 3461 0338 3A       		.uleb128 0x3a
 3462 0339 0B       		.uleb128 0xb
 3463 033a 3B       		.uleb128 0x3b
 3464 033b 05       		.uleb128 0x5
 3465 033c 39       		.uleb128 0x39
 3466 033d 0B       		.uleb128 0xb
 3467 033e 27       		.uleb128 0x27
 3468 033f 19       		.uleb128 0x19
 3469 0340 49       		.uleb128 0x49
 3470 0341 13       		.uleb128 0x13
 3471 0342 20       		.uleb128 0x20
 3472 0343 0B       		.uleb128 0xb
 3473 0344 00       		.byte	0
 3474 0345 00       		.byte	0
 3475 0346 38       		.uleb128 0x38
 3476 0347 2E       		.uleb128 0x2e
 3477 0348 01       		.byte	0x1
ARM GAS  /tmp/ccOddNcm.s 			page 62


 3478 0349 31       		.uleb128 0x31
 3479 034a 13       		.uleb128 0x13
 3480 034b 11       		.uleb128 0x11
 3481 034c 01       		.uleb128 0x1
 3482 034d 12       		.uleb128 0x12
 3483 034e 06       		.uleb128 0x6
 3484 034f 40       		.uleb128 0x40
 3485 0350 18       		.uleb128 0x18
 3486 0351 9742     		.uleb128 0x2117
 3487 0353 19       		.uleb128 0x19
 3488 0354 00       		.byte	0
 3489 0355 00       		.byte	0
 3490 0356 39       		.uleb128 0x39
 3491 0357 05       		.uleb128 0x5
 3492 0358 00       		.byte	0
 3493 0359 31       		.uleb128 0x31
 3494 035a 13       		.uleb128 0x13
 3495 035b 02       		.uleb128 0x2
 3496 035c 18       		.uleb128 0x18
 3497 035d 00       		.byte	0
 3498 035e 00       		.byte	0
 3499 035f 00       		.byte	0
 3500              		.section	.debug_loc,"",%progbits
 3501              	.Ldebug_loc0:
 3502              	.LVUS5:
 3503 0000 00       		.uleb128 0
 3504 0001 00       		.uleb128 .LVU103
 3505 0002 00       		.uleb128 .LVU103
 3506 0003 00       		.uleb128 0
 3507              	.LLST5:
 3508 0004 C0000000 		.4byte	.LVL13-.Ltext0
 3509 0008 D2000000 		.4byte	.LVL15-.Ltext0
 3510 000c 0100     		.2byte	0x1
 3511 000e 51       		.byte	0x51
 3512 000f D2000000 		.4byte	.LVL15-.Ltext0
 3513 0013 00010000 		.4byte	.LFE328-.Ltext0
 3514 0017 0400     		.2byte	0x4
 3515 0019 F3       		.byte	0xf3
 3516 001a 01       		.uleb128 0x1
 3517 001b 51       		.byte	0x51
 3518 001c 9F       		.byte	0x9f
 3519 001d 00000000 		.4byte	0
 3520 0021 00000000 		.4byte	0
 3521              	.LVUS6:
 3522 0025 01       		.uleb128 .LVU99
 3523 0026 00       		.uleb128 .LVU119
 3524              	.LLST6:
 3525 0027 CE000000 		.4byte	.LVL14-.Ltext0
 3526 002b F6000000 		.4byte	.LVL18-.Ltext0
 3527 002f 0200     		.2byte	0x2
 3528 0031 30       		.byte	0x30
 3529 0032 9F       		.byte	0x9f
 3530 0033 00000000 		.4byte	0
 3531 0037 00000000 		.4byte	0
 3532              	.LVUS7:
 3533 003b 01       		.uleb128 .LVU99
 3534 003c 00       		.uleb128 .LVU104
ARM GAS  /tmp/ccOddNcm.s 			page 63


 3535 003d 00       		.uleb128 .LVU104
 3536 003e 00       		.uleb128 .LVU108
 3537              	.LLST7:
 3538 003f CE000000 		.4byte	.LVL14-.Ltext0
 3539 0043 D4000000 		.4byte	.LVL16-.Ltext0
 3540 0047 0100     		.2byte	0x1
 3541 0049 53       		.byte	0x53
 3542 004a D4000000 		.4byte	.LVL16-.Ltext0
 3543 004e DA000000 		.4byte	.LVL17-.Ltext0
 3544 0052 0500     		.2byte	0x5
 3545 0054 F3       		.byte	0xf3
 3546 0055 01       		.uleb128 0x1
 3547 0056 51       		.byte	0x51
 3548 0057 23       		.byte	0x23
 3549 0058 08       		.uleb128 0x8
 3550 0059 00000000 		.4byte	0
 3551 005d 00000000 		.4byte	0
 3552              	.LVUS8:
 3553 0061 01       		.uleb128 .LVU99
 3554 0062 00       		.uleb128 .LVU119
 3555              	.LLST8:
 3556 0063 CE000000 		.4byte	.LVL14-.Ltext0
 3557 0067 F6000000 		.4byte	.LVL18-.Ltext0
 3558 006b 0100     		.2byte	0x1
 3559 006d 50       		.byte	0x50
 3560 006e 00000000 		.4byte	0
 3561 0072 00000000 		.4byte	0
 3562              	.LVUS0:
 3563 0076 00       		.uleb128 .LVU27
 3564 0077 00       		.uleb128 .LVU32
 3565              	.LLST0:
 3566 0078 3A000000 		.4byte	.LVL3-.Ltext0
 3567 007c 40000000 		.4byte	.LVL5-.Ltext0
 3568 0080 0100     		.2byte	0x1
 3569 0082 52       		.byte	0x52
 3570 0083 00000000 		.4byte	0
 3571 0087 00000000 		.4byte	0
 3572              	.LVUS1:
 3573 008b 00       		.uleb128 .LVU27
 3574 008c 00       		.uleb128 .LVU31
 3575              	.LLST1:
 3576 008d 3A000000 		.4byte	.LVL3-.Ltext0
 3577 0091 3E000000 		.4byte	.LVL4-.Ltext0
 3578 0095 0100     		.2byte	0x1
 3579 0097 53       		.byte	0x53
 3580 0098 00000000 		.4byte	0
 3581 009c 00000000 		.4byte	0
 3582              	.LVUS2:
 3583 00a0 00       		.uleb128 .LVU27
 3584 00a1 00       		.uleb128 .LVU52
 3585              	.LLST2:
 3586 00a2 3A000000 		.4byte	.LVL3-.Ltext0
 3587 00a6 6C000000 		.4byte	.LVL6-.Ltext0
 3588 00aa 0100     		.2byte	0x1
 3589 00ac 50       		.byte	0x50
 3590 00ad 00000000 		.4byte	0
 3591 00b1 00000000 		.4byte	0
ARM GAS  /tmp/ccOddNcm.s 			page 64


 3592              	.LVUS3:
 3593 00b5 02       		.uleb128 .LVU78
 3594 00b6 01       		.uleb128 .LVU82
 3595 00b7 01       		.uleb128 .LVU82
 3596 00b8 00       		.uleb128 .LVU83
 3597 00b9 00       		.uleb128 .LVU83
 3598 00ba 00       		.uleb128 .LVU87
 3599              	.LLST3:
 3600 00bb A2000000 		.4byte	.LVL8-.Ltext0
 3601 00bf AE000000 		.4byte	.LVL10-.Ltext0
 3602 00c3 0100     		.2byte	0x1
 3603 00c5 54       		.byte	0x54
 3604 00c6 AE000000 		.4byte	.LVL10-.Ltext0
 3605 00ca B0000000 		.4byte	.LVL11-.Ltext0
 3606 00ce 0300     		.2byte	0x3
 3607 00d0 74       		.byte	0x74
 3608 00d1 7F       		.sleb128 -1
 3609 00d2 9F       		.byte	0x9f
 3610 00d3 B0000000 		.4byte	.LVL11-.Ltext0
 3611 00d7 BC000000 		.4byte	.LVL12-.Ltext0
 3612 00db 0100     		.2byte	0x1
 3613 00dd 54       		.byte	0x54
 3614 00de 00000000 		.4byte	0
 3615 00e2 00000000 		.4byte	0
 3616              	.LVUS4:
 3617 00e6 01       		.uleb128 .LVU66
 3618 00e7 00       		.uleb128 .LVU76
 3619              	.LLST4:
 3620 00e8 96000000 		.4byte	.LVL7-.Ltext0
 3621 00ec A2000000 		.4byte	.LVL8-.Ltext0
 3622 00f0 0100     		.2byte	0x1
 3623 00f2 5D       		.byte	0x5d
 3624 00f3 00000000 		.4byte	0
 3625 00f7 00000000 		.4byte	0
 3626              		.section	.debug_aranges,"",%progbits
 3627 0000 1C000000 		.4byte	0x1c
 3628 0004 0200     		.2byte	0x2
 3629 0006 00000000 		.4byte	.Ldebug_info0
 3630 000a 04       		.byte	0x4
 3631 000b 00       		.byte	0
 3632 000c 0000     		.2byte	0
 3633 000e 0000     		.2byte	0
 3634 0010 00000000 		.4byte	.Ltext0
 3635 0014 00010000 		.4byte	.Letext0-.Ltext0
 3636 0018 00000000 		.4byte	0
 3637 001c 00000000 		.4byte	0
 3638              		.section	.debug_ranges,"",%progbits
 3639              	.Ldebug_ranges0:
 3640 0000 30000000 		.4byte	.LBB20-.Ltext0
 3641 0004 32000000 		.4byte	.LBE20-.Ltext0
 3642 0008 34000000 		.4byte	.LBB23-.Ltext0
 3643 000c 36000000 		.4byte	.LBE23-.Ltext0
 3644 0010 00000000 		.4byte	0
 3645 0014 00000000 		.4byte	0
 3646 0018 3A000000 		.4byte	.LBB24-.Ltext0
 3647 001c 42000000 		.4byte	.LBE24-.Ltext0
 3648 0020 46000000 		.4byte	.LBB27-.Ltext0
ARM GAS  /tmp/ccOddNcm.s 			page 65


 3649 0024 6C000000 		.4byte	.LBE27-.Ltext0
 3650 0028 00000000 		.4byte	0
 3651 002c 00000000 		.4byte	0
 3652 0030 88000000 		.4byte	.LBB28-.Ltext0
 3653 0034 92000000 		.4byte	.LBE28-.Ltext0
 3654 0038 96000000 		.4byte	.LBB31-.Ltext0
 3655 003c A2000000 		.4byte	.LBE31-.Ltext0
 3656 0040 00000000 		.4byte	0
 3657 0044 00000000 		.4byte	0
 3658 0048 C0000000 		.4byte	.LBB32-.Ltext0
 3659 004c C2000000 		.4byte	.LBE32-.Ltext0
 3660 0050 C4000000 		.4byte	.LBB39-.Ltext0
 3661 0054 C6000000 		.4byte	.LBE39-.Ltext0
 3662 0058 00000000 		.4byte	0
 3663 005c 00000000 		.4byte	0
 3664 0060 C2000000 		.4byte	.LBB35-.Ltext0
 3665 0064 C4000000 		.4byte	.LBE35-.Ltext0
 3666 0068 C6000000 		.4byte	.LBB40-.Ltext0
 3667 006c C8000000 		.4byte	.LBE40-.Ltext0
 3668 0070 CE000000 		.4byte	.LBB41-.Ltext0
 3669 0074 F6000000 		.4byte	.LBE41-.Ltext0
 3670 0078 00000000 		.4byte	0
 3671 007c 00000000 		.4byte	0
 3672              		.section	.debug_line,"",%progbits
 3673              	.Ldebug_line0:
 3674 0000 91050000 		.section	.debug_str,"MS",%progbits,1
 3674      03008B03 
 3674      00000201 
 3674      FB0E0D00 
 3674      01010101 
 3675              	.LASF54:
 3676 0000 70726576 		.ascii	"prev\000"
 3676      00
 3677              	.LASF22:
 3678 0005 72747469 		.ascii	"rttime_t\000"
 3678      6D655F74 
 3678      00
 3679              	.LASF55:
 3680 000e 72656164 		.ascii	"ready_list_t\000"
 3680      795F6C69 
 3680      73745F74 
 3680      00
 3681              	.LASF175:
 3682 001b 63685F6F 		.ascii	"ch_objects_factory\000"
 3682      626A6563 
 3682      74735F66 
 3682      6163746F 
 3682      727900
 3683              	.LASF129:
 3684 002e 7264796D 		.ascii	"rdymsg\000"
 3684      736700
 3685              	.LASF100:
 3686 0035 52455345 		.ascii	"RESERVED3\000"
 3686      52564544 
 3686      3300
 3687              	.LASF20:
 3688 003f 75696E74 		.ascii	"uint64_t\000"
ARM GAS  /tmp/ccOddNcm.s 			page 66


 3688      36345F74 
 3688      00
 3689              	.LASF5:
 3690 0048 5F5F7569 		.ascii	"__uint8_t\000"
 3690      6E74385F 
 3690      7400
 3691              	.LASF101:
 3692 0052 4457545F 		.ascii	"DWT_Type\000"
 3692      54797065 
 3692      00
 3693              	.LASF107:
 3694 005b 706F7274 		.ascii	"port_intctx\000"
 3694      5F696E74 
 3694      63747800 
 3695              	.LASF73:
 3696 0067 76746C69 		.ascii	"vtlist\000"
 3696      737400
 3697              	.LASF169:
 3698 006e 70726F76 		.ascii	"provider\000"
 3698      69646572 
 3698      00
 3699              	.LASF114:
 3700 0077 74797065 		.ascii	"type\000"
 3700      00
 3701              	.LASF145:
 3702 007c 74687265 		.ascii	"threadsize\000"
 3702      61647369 
 3702      7A6500
 3703              	.LASF161:
 3704 0087 6D656D67 		.ascii	"memgetfunc_t\000"
 3704      65746675 
 3704      6E635F74 
 3704      00
 3705              	.LASF118:
 3706 0094 73757370 		.ascii	"suspended\000"
 3706      656E6465 
 3706      6400
 3707              	.LASF112:
 3708 009e 68616C74 		.ascii	"halt\000"
 3708      00
 3709              	.LASF74:
 3710 00a3 6D61696E 		.ascii	"mainthread\000"
 3710      74687265 
 3710      616400
 3711              	.LASF132:
 3712 00ae 73656E74 		.ascii	"sentmsg\000"
 3712      6D736700 
 3713              	.LASF61:
 3714 00b6 64656C74 		.ascii	"delta\000"
 3714      6100
 3715              	.LASF102:
 3716 00bc 49544D5F 		.ascii	"ITM_RxBuffer\000"
 3716      52784275 
 3716      66666572 
 3716      00
 3717              	.LASF51:
 3718 00c9 6E657874 		.ascii	"next\000"
ARM GAS  /tmp/ccOddNcm.s 			page 67


 3718      00
 3719              	.LASF53:
 3720 00ce 63685F74 		.ascii	"ch_threads_queue\000"
 3720      68726561 
 3720      64735F71 
 3720      75657565 
 3720      00
 3721              	.LASF181:
 3722 00df 6D62785F 		.ascii	"mbx_list\000"
 3722      6C697374 
 3722      00
 3723              	.LASF104:
 3724 00e8 53797374 		.ascii	"SystemD2Clock\000"
 3724      656D4432 
 3724      436C6F63 
 3724      6B00
 3725              	.LASF188:
 3726 00f6 746D7031 		.ascii	"tmp1\000"
 3726      00
 3727              	.LASF194:
 3728 00fb 746D7032 		.ascii	"tmp2\000"
 3728      00
 3729              	.LASF162:
 3730 0100 62617365 		.ascii	"basemem\000"
 3730      6D656D00 
 3731              	.LASF1:
 3732 0108 6C6F6E67 		.ascii	"long long int\000"
 3732      206C6F6E 
 3732      6720696E 
 3732      7400
 3733              	.LASF3:
 3734 0116 7369676E 		.ascii	"signed char\000"
 3734      65642063 
 3734      68617200 
 3735              	.LASF13:
 3736 0122 6C6F6E67 		.ascii	"long unsigned int\000"
 3736      20756E73 
 3736      69676E65 
 3736      6420696E 
 3736      7400
 3737              	.LASF119:
 3738 0134 73697A65 		.ascii	"size\000"
 3738      00
 3739              	.LASF79:
 3740 0139 43504943 		.ascii	"CPICNT\000"
 3740      4E5400
 3741              	.LASF38:
 3742 0140 73746174 		.ascii	"state\000"
 3742      6500
 3743              	.LASF187:
 3744 0146 6368544D 		.ascii	"chTMStopMeasurementX\000"
 3744      53746F70 
 3744      4D656173 
 3744      7572656D 
 3744      656E7458 
 3745              	.LASF11:
 3746 015b 6C6F6E67 		.ascii	"long int\000"
ARM GAS  /tmp/ccOddNcm.s 			page 68


 3746      20696E74 
 3746      00
 3747              	.LASF24:
 3748 0164 74737461 		.ascii	"tstate_t\000"
 3748      74655F74 
 3748      00
 3749              	.LASF117:
 3750 016d 63685F74 		.ascii	"ch_trace_event_t\000"
 3750      72616365 
 3750      5F657665 
 3750      6E745F74 
 3750      00
 3751              	.LASF62:
 3752 017e 66756E63 		.ascii	"func\000"
 3752      00
 3753              	.LASF17:
 3754 0183 75696E74 		.ascii	"uint16_t\000"
 3754      31365F74 
 3754      00
 3755              	.LASF157:
 3756 018c 63686465 		.ascii	"chdebug_t\000"
 3756      6275675F 
 3756      7400
 3757              	.LASF81:
 3758 0196 534C4545 		.ascii	"SLEEPCNT\000"
 3758      50434E54 
 3758      00
 3759              	.LASF128:
 3760 019f 74696D65 		.ascii	"time_measurement_t\000"
 3760      5F6D6561 
 3760      73757265 
 3760      6D656E74 
 3760      5F7400
 3761              	.LASF120:
 3762 01b2 62756666 		.ascii	"buffer\000"
 3762      657200
 3763              	.LASF130:
 3764 01b9 65786974 		.ascii	"exitcode\000"
 3764      636F6465 
 3764      00
 3765              	.LASF12:
 3766 01c2 5F5F7569 		.ascii	"__uint32_t\000"
 3766      6E743332 
 3766      5F7400
 3767              	.LASF193:
 3768 01cd 2F686F6D 		.ascii	"/home/nicolas/source/akso-sub/axoloti/firmware/moun"
 3768      652F6E69 
 3768      636F6C61 
 3768      732F736F 
 3768      75726365 
 3769 0200 74657200 		.ascii	"ter\000"
 3770              	.LASF4:
 3771 0204 73697A65 		.ascii	"size_t\000"
 3771      5F7400
 3772              	.LASF41:
 3773 020b 77616974 		.ascii	"waiting\000"
 3773      696E6700 
ARM GAS  /tmp/ccOddNcm.s 			page 69


 3774              	.LASF141:
 3775 0213 7A65726F 		.ascii	"zero\000"
 3775      00
 3776              	.LASF159:
 3777 0218 6D757465 		.ascii	"mutex_t\000"
 3777      785F7400 
 3778              	.LASF168:
 3779 0220 616C6967 		.ascii	"align\000"
 3779      6E00
 3780              	.LASF76:
 3781 0226 73797369 		.ascii	"sysinterval_t\000"
 3781      6E746572 
 3781      76616C5F 
 3781      7400
 3782              	.LASF64:
 3783 0234 63685F76 		.ascii	"ch_virtual_timers_list\000"
 3783      69727475 
 3783      616C5F74 
 3783      696D6572 
 3783      735F6C69 
 3784              	.LASF29:
 3785 024b 636E745F 		.ascii	"cnt_t\000"
 3785      7400
 3786              	.LASF42:
 3787 0251 6D736771 		.ascii	"msgqueue\000"
 3787      75657565 
 3787      00
 3788              	.LASF189:
 3789 025a 6368544D 		.ascii	"chTMStartMeasurementX\000"
 3789      53746172 
 3789      744D6561 
 3789      73757265 
 3789      6D656E74 
 3790              	.LASF90:
 3791 0270 4D41534B 		.ascii	"MASK1\000"
 3791      3100
 3792              	.LASF94:
 3793 0276 4D41534B 		.ascii	"MASK2\000"
 3793      3200
 3794              	.LASF103:
 3795 027c 53797374 		.ascii	"SystemCoreClock\000"
 3795      656D436F 
 3795      7265436C 
 3795      6F636B00 
 3796              	.LASF98:
 3797 028c 4D41534B 		.ascii	"MASK3\000"
 3797      3300
 3798              	.LASF47:
 3799 0292 74687265 		.ascii	"thread_reference_t\000"
 3799      61645F72 
 3799      65666572 
 3799      656E6365 
 3799      5F7400
 3800              	.LASF133:
 3801 02a5 77747365 		.ascii	"wtsemp\000"
 3801      6D7000
 3802              	.LASF105:
ARM GAS  /tmp/ccOddNcm.s 			page 70


 3803 02ac 4431436F 		.ascii	"D1CorePrescTable\000"
 3803      72655072 
 3803      65736354 
 3803      61626C65 
 3803      00
 3804              	.LASF66:
 3805 02bd 73797374 		.ascii	"system_debug_t\000"
 3805      656D5F64 
 3805      65627567 
 3805      5F7400
 3806              	.LASF184:
 3807 02cc 6F626A65 		.ascii	"objects_factory_t\000"
 3807      6374735F 
 3807      66616374 
 3807      6F72795F 
 3807      7400
 3808              	.LASF163:
 3809 02de 746F706D 		.ascii	"topmem\000"
 3809      656D00
 3810              	.LASF158:
 3811 02e5 63685F64 		.ascii	"ch_debug\000"
 3811      65627567 
 3811      00
 3812              	.LASF170:
 3813 02ee 6D656D6F 		.ascii	"memory_pool_t\000"
 3813      72795F70 
 3813      6F6F6C5F 
 3813      7400
 3814              	.LASF36:
 3815 02fc 6E616D65 		.ascii	"name\000"
 3815      00
 3816              	.LASF32:
 3817 0301 71756575 		.ascii	"queue\000"
 3817      6500
 3818              	.LASF46:
 3819 0307 6D706F6F 		.ascii	"mpool\000"
 3819      6C00
 3820              	.LASF154:
 3821 030d 6F66665F 		.ascii	"off_refs\000"
 3821      72656673 
 3821      00
 3822              	.LASF178:
 3823 0316 6275665F 		.ascii	"buf_list\000"
 3823      6C697374 
 3823      00
 3824              	.LASF49:
 3825 031f 63685F74 		.ascii	"ch_thread\000"
 3825      68726561 
 3825      6400
 3826              	.LASF80:
 3827 0329 45584343 		.ascii	"EXCCNT\000"
 3827      4E5400
 3828              	.LASF27:
 3829 0330 6D73675F 		.ascii	"msg_t\000"
 3829      7400
 3830              	.LASF126:
 3831 0336 6C617374 		.ascii	"last\000"
ARM GAS  /tmp/ccOddNcm.s 			page 71


 3831      00
 3832              	.LASF30:
 3833 033b 75636E74 		.ascii	"ucnt_t\000"
 3833      5F7400
 3834              	.LASF43:
 3835 0342 6570656E 		.ascii	"epending\000"
 3835      64696E67 
 3835      00
 3836              	.LASF174:
 3837 034b 64796E5F 		.ascii	"dyn_list_t\000"
 3837      6C697374 
 3837      5F7400
 3838              	.LASF70:
 3839 0356 63685F73 		.ascii	"ch_system_t\000"
 3839      79737465 
 3839      6D5F7400 
 3840              	.LASF147:
 3841 0362 6F66665F 		.ascii	"off_ctx\000"
 3841      63747800 
 3842              	.LASF23:
 3843 036a 746D6F64 		.ascii	"tmode_t\000"
 3843      655F7400 
 3844              	.LASF192:
 3845 0372 2E2E2F2E 		.ascii	"../../../external/ChibiOS/os/rt/src/chtm.c\000"
 3845      2E2F2E2E 
 3845      2F657874 
 3845      65726E61 
 3845      6C2F4368 
 3846              	.LASF56:
 3847 039d 63685F72 		.ascii	"ch_ready_list\000"
 3847      65616479 
 3847      5F6C6973 
 3847      7400
 3848              	.LASF28:
 3849 03ab 6576656E 		.ascii	"eventmask_t\000"
 3849      746D6173 
 3849      6B5F7400 
 3850              	.LASF150:
 3851 03b7 6F66665F 		.ascii	"off_name\000"
 3851      6E616D65 
 3851      00
 3852              	.LASF10:
 3853 03c0 5F5F696E 		.ascii	"__int32_t\000"
 3853      7433325F 
 3853      7400
 3854              	.LASF15:
 3855 03ca 6C6F6E67 		.ascii	"long long unsigned int\000"
 3855      206C6F6E 
 3855      6720756E 
 3855      7369676E 
 3855      65642069 
 3856              	.LASF63:
 3857 03e1 76697274 		.ascii	"virtual_timers_list_t\000"
 3857      75616C5F 
 3857      74696D65 
 3857      72735F6C 
 3857      6973745F 
ARM GAS  /tmp/ccOddNcm.s 			page 72


 3858              	.LASF186:
 3859 03f7 6368544D 		.ascii	"chTMChainMeasurementToX\000"
 3859      43686169 
 3859      6E4D6561 
 3859      73757265 
 3859      6D656E74 
 3860              	.LASF106:
 3861 040f 73746B61 		.ascii	"stkalign_t\000"
 3861      6C69676E 
 3861      5F7400
 3862              	.LASF34:
 3863 041a 6E657765 		.ascii	"newer\000"
 3863      7200
 3864              	.LASF115:
 3865 0420 72747374 		.ascii	"rtstamp\000"
 3865      616D7000 
 3866              	.LASF78:
 3867 0428 43594343 		.ascii	"CYCCNT\000"
 3867      4E5400
 3868              	.LASF45:
 3869 042f 7265616C 		.ascii	"realprio\000"
 3869      7072696F 
 3869      00
 3870              	.LASF142:
 3871 0438 76657273 		.ascii	"version\000"
 3871      696F6E00 
 3872              	.LASF93:
 3873 0440 434F4D50 		.ascii	"COMP2\000"
 3873      3200
 3874              	.LASF21:
 3875 0446 7274636E 		.ascii	"rtcnt_t\000"
 3875      745F7400 
 3876              	.LASF172:
 3877 044e 64796E5F 		.ascii	"dyn_element_t\000"
 3877      656C656D 
 3877      656E745F 
 3877      7400
 3878              	.LASF165:
 3879 045c 63685F6D 		.ascii	"ch_memcore\000"
 3879      656D636F 
 3879      726500
 3880              	.LASF131:
 3881 0467 77747472 		.ascii	"wttrp\000"
 3881      7000
 3882              	.LASF58:
 3883 046d 76746675 		.ascii	"vtfunc_t\000"
 3883      6E635F74 
 3883      00
 3884              	.LASF173:
 3885 0476 63685F64 		.ascii	"ch_dyn_list\000"
 3885      796E5F6C 
 3885      69737400 
 3886              	.LASF148:
 3887 0482 6F66665F 		.ascii	"off_newer\000"
 3887      6E657765 
 3887      7200
 3888              	.LASF123:
ARM GAS  /tmp/ccOddNcm.s 			page 73


 3889 048c 746D5F63 		.ascii	"tm_calibration_t\000"
 3889      616C6962 
 3889      72617469 
 3889      6F6E5F74 
 3889      00
 3890              	.LASF195:
 3891 049d 6368544D 		.ascii	"chTMObjectInit\000"
 3891      4F626A65 
 3891      6374496E 
 3891      697400
 3892              	.LASF0:
 3893 04ac 756E7369 		.ascii	"unsigned int\000"
 3893      676E6564 
 3893      20696E74 
 3893      00
 3894              	.LASF108:
 3895 04b9 706F7274 		.ascii	"port_context\000"
 3895      5F636F6E 
 3895      74657874 
 3895      00
 3896              	.LASF89:
 3897 04c6 434F4D50 		.ascii	"COMP1\000"
 3897      3100
 3898              	.LASF167:
 3899 04cc 6F626A65 		.ascii	"object_size\000"
 3899      63745F73 
 3899      697A6500 
 3900              	.LASF97:
 3901 04d8 434F4D50 		.ascii	"COMP3\000"
 3901      3300
 3902              	.LASF116:
 3903 04de 74696D65 		.ascii	"time\000"
 3903      00
 3904              	.LASF125:
 3905 04e3 776F7273 		.ascii	"worst\000"
 3905      7400
 3906              	.LASF33:
 3907 04e9 7072696F 		.ascii	"prio\000"
 3907      00
 3908              	.LASF57:
 3909 04ee 63757272 		.ascii	"current\000"
 3909      656E7400 
 3910              	.LASF14:
 3911 04f6 5F5F7569 		.ascii	"__uint64_t\000"
 3911      6E743634 
 3911      5F7400
 3912              	.LASF164:
 3913 0501 6D656D63 		.ascii	"memcore_t\000"
 3913      6F72655F 
 3913      7400
 3914              	.LASF127:
 3915 050b 63756D75 		.ascii	"cumulative\000"
 3915      6C617469 
 3915      766500
 3916              	.LASF25:
 3917 0516 74726566 		.ascii	"trefs_t\000"
 3917      735F7400 
ARM GAS  /tmp/ccOddNcm.s 			page 74


 3918              	.LASF88:
 3919 051e 52455345 		.ascii	"RESERVED0\000"
 3919      52564544 
 3919      3000
 3920              	.LASF92:
 3921 0528 52455345 		.ascii	"RESERVED1\000"
 3921      52564544 
 3921      3100
 3922              	.LASF96:
 3923 0532 52455345 		.ascii	"RESERVED2\000"
 3923      52564544 
 3923      3200
 3924              	.LASF40:
 3925 053c 72656673 		.ascii	"refs\000"
 3925      00
 3926              	.LASF59:
 3927 0541 76697274 		.ascii	"virtual_timer_t\000"
 3927      75616C5F 
 3927      74696D65 
 3927      725F7400 
 3928              	.LASF171:
 3929 0551 63685F64 		.ascii	"ch_dyn_element\000"
 3929      796E5F65 
 3929      6C656D65 
 3929      6E7400
 3930              	.LASF26:
 3931 0560 74707269 		.ascii	"tprio_t\000"
 3931      6F5F7400 
 3932              	.LASF113:
 3933 0568 75736572 		.ascii	"user\000"
 3933      00
 3934              	.LASF86:
 3935 056d 4D41534B 		.ascii	"MASK0\000"
 3935      3000
 3936              	.LASF160:
 3937 0573 5F426F6F 		.ascii	"_Bool\000"
 3937      6C00
 3938              	.LASF18:
 3939 0579 696E7433 		.ascii	"int32_t\000"
 3939      325F7400 
 3940              	.LASF121:
 3941 0581 63685F74 		.ascii	"ch_trace_buffer_t\000"
 3941      72616365 
 3941      5F627566 
 3941      6665725F 
 3941      7400
 3942              	.LASF146:
 3943 0593 6F66665F 		.ascii	"off_prio\000"
 3943      7072696F 
 3943      00
 3944              	.LASF151:
 3945 059c 6F66665F 		.ascii	"off_stklimit\000"
 3945      73746B6C 
 3945      696D6974 
 3945      00
 3946              	.LASF87:
 3947 05a9 46554E43 		.ascii	"FUNCTION0\000"
ARM GAS  /tmp/ccOddNcm.s 			page 75


 3947      54494F4E 
 3947      3000
 3948              	.LASF91:
 3949 05b3 46554E43 		.ascii	"FUNCTION1\000"
 3949      54494F4E 
 3949      3100
 3950              	.LASF95:
 3951 05bd 46554E43 		.ascii	"FUNCTION2\000"
 3951      54494F4E 
 3951      3200
 3952              	.LASF99:
 3953 05c7 46554E43 		.ascii	"FUNCTION3\000"
 3953      54494F4E 
 3953      3300
 3954              	.LASF7:
 3955 05d1 73686F72 		.ascii	"short int\000"
 3955      7420696E 
 3955      7400
 3956              	.LASF65:
 3957 05db 6C617374 		.ascii	"lasttime\000"
 3957      74696D65 
 3957      00
 3958              	.LASF135:
 3959 05e4 65776D61 		.ascii	"ewmask\000"
 3959      736B00
 3960              	.LASF71:
 3961 05eb 63685F73 		.ascii	"ch_system\000"
 3961      79737465 
 3961      6D00
 3962              	.LASF185:
 3963 05f5 63685F66 		.ascii	"ch_factory\000"
 3963      6163746F 
 3963      727900
 3964              	.LASF177:
 3965 0600 6F626A5F 		.ascii	"obj_pool\000"
 3965      706F6F6C 
 3965      00
 3966              	.LASF111:
 3967 0609 72656173 		.ascii	"reason\000"
 3967      6F6E00
 3968              	.LASF60:
 3969 0610 63685F76 		.ascii	"ch_virtual_timer\000"
 3969      69727475 
 3969      616C5F74 
 3969      696D6572 
 3969      00
 3970              	.LASF136:
 3971 0621 63685F73 		.ascii	"ch_semaphore\000"
 3971      656D6170 
 3971      686F7265 
 3971      00
 3972              	.LASF156:
 3973 062e 6F66665F 		.ascii	"off_time\000"
 3973      74696D65 
 3973      00
 3974              	.LASF139:
 3975 0637 63685F69 		.ascii	"ch_idle_thread_wa\000"
ARM GAS  /tmp/ccOddNcm.s 			page 76


 3975      646C655F 
 3975      74687265 
 3975      61645F77 
 3975      6100
 3976              	.LASF144:
 3977 0649 74696D65 		.ascii	"timesize\000"
 3977      73697A65 
 3977      00
 3978              	.LASF183:
 3979 0652 70697065 		.ascii	"pipe_list\000"
 3979      5F6C6973 
 3979      7400
 3980              	.LASF82:
 3981 065c 4C535543 		.ascii	"LSUCNT\000"
 3981      4E5400
 3982              	.LASF19:
 3983 0663 75696E74 		.ascii	"uint32_t\000"
 3983      33325F74 
 3983      00
 3984              	.LASF134:
 3985 066c 77746D74 		.ascii	"wtmtxp\000"
 3985      787000
 3986              	.LASF50:
 3987 0673 63685F74 		.ascii	"ch_threads_list\000"
 3987      68726561 
 3987      64735F6C 
 3987      69737400 
 3988              	.LASF138:
 3989 0683 6F776E65 		.ascii	"owner\000"
 3989      7200
 3990              	.LASF2:
 3991 0689 6C6F6E67 		.ascii	"long double\000"
 3991      20646F75 
 3991      626C6500 
 3992              	.LASF37:
 3993 0695 77616261 		.ascii	"wabase\000"
 3993      736500
 3994              	.LASF110:
 3995 069c 63686172 		.ascii	"char\000"
 3995      00
 3996              	.LASF35:
 3997 06a1 6F6C6465 		.ascii	"older\000"
 3997      7200
 3998              	.LASF176:
 3999 06a7 6F626A5F 		.ascii	"obj_list\000"
 3999      6C697374 
 3999      00
 4000              	.LASF8:
 4001 06b0 5F5F7569 		.ascii	"__uint16_t\000"
 4001      6E743136 
 4001      5F7400
 4002              	.LASF196:
 4003 06bb 746D5F73 		.ascii	"tm_stop\000"
 4003      746F7000 
 4004              	.LASF31:
 4005 06c3 74687265 		.ascii	"thread_t\000"
 4005      61645F74 
ARM GAS  /tmp/ccOddNcm.s 			page 77


 4005      00
 4006              	.LASF124:
 4007 06cc 62657374 		.ascii	"best\000"
 4007      00
 4008              	.LASF75:
 4009 06d1 73797374 		.ascii	"systime_t\000"
 4009      696D655F 
 4009      7400
 4010              	.LASF16:
 4011 06db 75696E74 		.ascii	"uint8_t\000"
 4011      385F7400 
 4012              	.LASF68:
 4013 06e3 70616E69 		.ascii	"panic_msg\000"
 4013      635F6D73 
 4013      6700
 4014              	.LASF122:
 4015 06ed 6F666673 		.ascii	"offset\000"
 4015      657400
 4016              	.LASF149:
 4017 06f4 6F66665F 		.ascii	"off_older\000"
 4017      6F6C6465 
 4017      7200
 4018              	.LASF9:
 4019 06fe 73686F72 		.ascii	"short unsigned int\000"
 4019      7420756E 
 4019      7369676E 
 4019      65642069 
 4019      6E7400
 4020              	.LASF6:
 4021 0711 756E7369 		.ascii	"unsigned char\000"
 4021      676E6564 
 4021      20636861 
 4021      7200
 4022              	.LASF140:
 4023 071f 6964656E 		.ascii	"identifier\000"
 4023      74696669 
 4023      657200
 4024              	.LASF77:
 4025 072a 4354524C 		.ascii	"CTRL\000"
 4025      00
 4026              	.LASF85:
 4027 072f 434F4D50 		.ascii	"COMP0\000"
 4027      3000
 4028              	.LASF143:
 4029 0735 70747273 		.ascii	"ptrsize\000"
 4029      697A6500 
 4030              	.LASF52:
 4031 073d 74687265 		.ascii	"threads_queue_t\000"
 4031      6164735F 
 4031      71756575 
 4031      655F7400 
 4032              	.LASF166:
 4033 074d 706F6F6C 		.ascii	"pool_header\000"
 4033      5F686561 
 4033      64657200 
 4034              	.LASF72:
 4035 0759 726C6973 		.ascii	"rlist\000"
ARM GAS  /tmp/ccOddNcm.s 			page 78


 4035      7400
 4036              	.LASF180:
 4037 075f 73656D5F 		.ascii	"sem_pool\000"
 4037      706F6F6C 
 4037      00
 4038              	.LASF39:
 4039 0768 666C6167 		.ascii	"flags\000"
 4039      7300
 4040              	.LASF182:
 4041 076e 6669666F 		.ascii	"fifo_list\000"
 4041      5F6C6973 
 4041      7400
 4042              	.LASF83:
 4043 0778 464F4C44 		.ascii	"FOLDCNT\000"
 4043      434E5400 
 4044              	.LASF84:
 4045 0780 50435352 		.ascii	"PCSR\000"
 4045      00
 4046              	.LASF137:
 4047 0785 63685F6D 		.ascii	"ch_mutex\000"
 4047      75746578 
 4047      00
 4048              	.LASF109:
 4049 078e 77746F62 		.ascii	"wtobjp\000"
 4049      6A7000
 4050              	.LASF179:
 4051 0795 73656D5F 		.ascii	"sem_list\000"
 4051      6C697374 
 4051      00
 4052              	.LASF48:
 4053 079e 74687265 		.ascii	"threads_list_t\000"
 4053      6164735F 
 4053      6C697374 
 4053      5F7400
 4054              	.LASF197:
 4055 07ad 706F7274 		.ascii	"port_rt_get_counter_value\000"
 4055      5F72745F 
 4055      6765745F 
 4055      636F756E 
 4055      7465725F 
 4056              	.LASF152:
 4057 07c7 6F66665F 		.ascii	"off_state\000"
 4057      73746174 
 4057      6500
 4058              	.LASF69:
 4059 07d1 74726163 		.ascii	"trace_buffer\000"
 4059      655F6275 
 4059      66666572 
 4059      00
 4060              	.LASF67:
 4061 07de 63685F73 		.ascii	"ch_system_debug\000"
 4061      79737465 
 4061      6D5F6465 
 4061      62756700 
 4062              	.LASF153:
 4063 07ee 6F66665F 		.ascii	"off_flags\000"
 4063      666C6167 
ARM GAS  /tmp/ccOddNcm.s 			page 79


 4063      7300
 4064              	.LASF44:
 4065 07f8 6D74786C 		.ascii	"mtxlist\000"
 4065      69737400 
 4066              	.LASF155:
 4067 0800 6F66665F 		.ascii	"off_preempt\000"
 4067      70726565 
 4067      6D707400 
 4068              	.LASF190:
 4069 080c 5F746D5F 		.ascii	"_tm_init\000"
 4069      696E6974 
 4069      00
 4070              	.LASF191:
 4071 0815 474E5520 		.ascii	"GNU C17 8.3.1 20190703 (release) [gcc-8-branch revi"
 4071      43313720 
 4071      382E332E 
 4071      31203230 
 4071      31393037 
 4072 0848 73696F6E 		.ascii	"sion 273027] -mcpu=cortex-m7 -mthumb -mfloat-abi=ha"
 4072      20323733 
 4072      3032375D 
 4072      202D6D63 
 4072      70753D63 
 4073 087b 7264202D 		.ascii	"rd -mfpu=fpv4-sp-d16 -march=armv7e-m+fp -ggdb -O2 -"
 4073      6D667075 
 4073      3D667076 
 4073      342D7370 
 4073      2D643136 
 4074 08ae 666F6D69 		.ascii	"fomit-frame-pointer -falign-functions=16 -fno-math-"
 4074      742D6672 
 4074      616D652D 
 4074      706F696E 
 4074      74657220 
 4075 08e1 6572726E 		.ascii	"errno\000"
 4075      6F00
 4076              		.ident	"GCC: (GNU Tools for Arm Embedded Processors 8-2019-q3-update) 8.3.1 20190703 (release) [gc
ARM GAS  /tmp/ccOddNcm.s 			page 80


DEFINED SYMBOLS
                            *ABS*:0000000000000000 chtm.c
     /tmp/ccOddNcm.s:17     .text:0000000000000000 $t
     /tmp/ccOddNcm.s:26     .text:0000000000000000 chTMObjectInit
     /tmp/ccOddNcm.s:73     .text:0000000000000020 chTMStartMeasurementX
     /tmp/ccOddNcm.s:100    .text:0000000000000028 $d
     /tmp/ccOddNcm.s:104    .text:000000000000002c $t
     /tmp/ccOddNcm.s:112    .text:0000000000000030 chTMStopMeasurementX
     /tmp/ccOddNcm.s:213    .text:0000000000000074 $d
     /tmp/ccOddNcm.s:218    .text:000000000000007c $t
     /tmp/ccOddNcm.s:226    .text:0000000000000080 _tm_init
     /tmp/ccOddNcm.s:314    .text:00000000000000bc $d
     /tmp/ccOddNcm.s:318    .text:00000000000000c0 $t
     /tmp/ccOddNcm.s:326    .text:00000000000000c0 chTMChainMeasurementToX
     /tmp/ccOddNcm.s:428    .text:00000000000000fc $d

UNDEFINED SYMBOLS
ch
