ARM GAS  /tmp/ccOddNcm.s 			page 1


   1              		.cpu cortex-m7
   2              		.eabi_attribute 27, 1
   3              		.eabi_attribute 28, 1
   4              		.eabi_attribute 20, 1
   5              		.eabi_attribute 21, 1
   6              		.eabi_attribute 23, 3
   7              		.eabi_attribute 24, 1
   8              		.eabi_attribute 25, 1
   9              		.eabi_attribute 26, 1
  10              		.eabi_attribute 30, 2
  11              		.eabi_attribute 34, 1
  12              		.eabi_attribute 18, 4
  13              		.file	"chtm.c"
  14              		.text
  15              	.Ltext0:
  16              		.cfi_sections	.debug_frame
  17              		.align	1
  18              		.p2align 4,,15
  19              		.global	chTMObjectInit
  20              		.arch armv7e-m
  21              		.syntax unified
  22              		.thumb
  23              		.thumb_func
  24              		.fpu fpv4-sp-d16
  25              		.type	chTMObjectInit, %function
  26              	chTMObjectInit:
  27              	.LVL0:
  28              	.LFB325:
  29              		.file 1 "../../../external/ChibiOS/os/rt/src/chtm.c"
  30              		.loc 1 109 46 view -0
  31              		.cfi_startproc
  32              		@ args = 0, pretend = 0, frame = 0
  33              		@ frame_needed = 0, uses_anonymous_args = 0
  34              		@ link register save eliminated.
  35              		.loc 1 111 3 view .LVU1
  36              		.loc 1 109 46 is_stmt 0 view .LVU2
  37 0000 30B4     		push	{r4, r5}
  38              		.cfi_def_cfa_offset 8
  39              		.cfi_offset 4, -8
  40              		.cfi_offset 5, -4
  41              		.loc 1 112 19 view .LVU3
  42 0002 0023     		movs	r3, #0
  43              		.loc 1 115 19 view .LVU4
  44 0004 0024     		movs	r4, #0
  45 0006 0025     		movs	r5, #0
  46              		.loc 1 111 19 view .LVU5
  47 0008 4FF0FF32 		mov	r2, #-1
  48              		.loc 1 115 19 view .LVU6
  49 000c C0E90445 		strd	r4, [r0, #16]
  50              		.loc 1 112 19 view .LVU7
  51 0010 C0E90023 		strd	r2, r3, [r0]
  52              		.loc 1 113 3 is_stmt 1 view .LVU8
  53              		.loc 1 114 19 is_stmt 0 view .LVU9
  54 0014 C0E90233 		strd	r3, r3, [r0, #8]
  55              		.loc 1 115 3 is_stmt 1 view .LVU10
  56              		.loc 1 116 1 is_stmt 0 view .LVU11
  57 0018 30BC     		pop	{r4, r5}
ARM GAS  /tmp/ccOddNcm.s 			page 2


  58              		.cfi_restore 5
  59              		.cfi_restore 4
  60              		.cfi_def_cfa_offset 0
  61 001a 7047     		bx	lr
  62              		.cfi_endproc
  63              	.LFE325:
  64              		.size	chTMObjectInit, .-chTMObjectInit
  65              		.align	1
  66 001c AFF30080 		.p2align 4,,15
  67              		.global	chTMStartMeasurementX
  68              		.syntax unified
  69              		.thumb
  70              		.thumb_func
  71              		.fpu fpv4-sp-d16
  72              		.type	chTMStartMeasurementX, %function
  73              	chTMStartMeasurementX:
  74              	.LVL1:
  75              	.LFB326:
  76              		.loc 1 126 62 is_stmt 1 view -0
  77              		.cfi_startproc
  78              		@ args = 0, pretend = 0, frame = 0
  79              		@ frame_needed = 0, uses_anonymous_args = 0
  80              		@ link register save eliminated.
  81              		.loc 1 128 3 view .LVU13
  82              	.LBB18:
  83              	.LBI18:
  84              		.file 2 "../../../external/ChibiOS/os/common/ports/ARMCMx/chcore_v7m.h"
  85              		.loc 2 781 30 view .LVU14
  86              	.LBB19:
  87              		.loc 2 783 3 view .LVU15
  88              		.loc 2 783 13 is_stmt 0 view .LVU16
  89 0020 014B     		ldr	r3, .L5
  90 0022 5B68     		ldr	r3, [r3, #4]
  91              	.LBE19:
  92              	.LBE18:
  93              		.loc 1 128 13 view .LVU17
  94 0024 8360     		str	r3, [r0, #8]
  95              		.loc 1 129 1 view .LVU18
  96 0026 7047     		bx	lr
  97              	.L6:
  98              		.align	2
  99              	.L5:
 100 0028 001000E0 		.word	-536866816
 101              		.cfi_endproc
 102              	.LFE326:
 103              		.size	chTMStartMeasurementX, .-chTMStartMeasurementX
 104              		.align	1
 105 002c AFF30080 		.p2align 4,,15
 106              		.global	chTMStopMeasurementX
 107              		.syntax unified
 108              		.thumb
 109              		.thumb_func
 110              		.fpu fpv4-sp-d16
 111              		.type	chTMStopMeasurementX, %function
 112              	chTMStopMeasurementX:
 113              	.LVL2:
 114              	.LFB327:
ARM GAS  /tmp/ccOddNcm.s 			page 3


 115              		.loc 1 139 61 is_stmt 1 view -0
 116              		.cfi_startproc
 117              		@ args = 0, pretend = 0, frame = 0
 118              		@ frame_needed = 0, uses_anonymous_args = 0
 119              		@ link register save eliminated.
 120              		.loc 1 141 3 view .LVU20
 121              	.LBB20:
 122              	.LBI20:
 123              		.loc 2 781 30 view .LVU21
 124              	.LBB21:
 125              		.loc 2 783 3 view .LVU22
 126              		.loc 2 783 13 is_stmt 0 view .LVU23
 127 0030 104B     		ldr	r3, .L11
 128              	.LBE21:
 129              	.LBE20:
 130              		.loc 1 141 3 view .LVU24
 131 0032 114A     		ldr	r2, .L11+4
 132              	.LBB23:
 133              	.LBB22:
 134              		.loc 2 783 13 view .LVU25
 135 0034 5B68     		ldr	r3, [r3, #4]
 136              	.LBE22:
 137              	.LBE23:
 138              		.loc 1 141 3 view .LVU26
 139 0036 D2F87C28 		ldr	r2, [r2, #2172]
 140              	.LVL3:
 141              	.LBB24:
 142              	.LBI24:
 143              		.loc 1 60 20 is_stmt 1 view .LVU27
 144              	.LBB25:
 145              		.loc 1 64 3 view .LVU28
 146              		.loc 1 64 9 is_stmt 0 view .LVU29
 147 003a C168     		ldr	r1, [r0, #12]
 148              		.loc 1 65 33 view .LVU30
 149 003c 9B1A     		subs	r3, r3, r2
 150              	.LVL4:
 151              		.loc 1 67 6 view .LVU31
 152 003e 4268     		ldr	r2, [r0, #4]
 153              	.LVL5:
 154              		.loc 1 64 9 view .LVU32
 155 0040 0131     		adds	r1, r1, #1
 156              	.LBE25:
 157              	.LBE24:
 158              		.loc 1 139 61 view .LVU33
 159 0042 2DE93008 		push	{r4, r5, fp}
 160              		.cfi_def_cfa_offset 12
 161              		.cfi_offset 4, -12
 162              		.cfi_offset 5, -8
 163              		.cfi_offset 11, -4
 164              	.LBB27:
 165              	.LBB26:
 166              		.loc 1 65 33 view .LVU34
 167 0046 8468     		ldr	r4, [r0, #8]
 168              		.loc 1 64 9 view .LVU35
 169 0048 C160     		str	r1, [r0, #12]
 170              		.loc 1 65 3 is_stmt 1 view .LVU36
 171              		.loc 1 65 33 is_stmt 0 view .LVU37
ARM GAS  /tmp/ccOddNcm.s 			page 4


 172 004a 1B1B     		subs	r3, r3, r4
 173              		.loc 1 66 19 view .LVU38
 174 004c D0E90445 		ldrd	r4, [r0, #16]
 175              		.loc 1 65 13 view .LVU39
 176 0050 8360     		str	r3, [r0, #8]
 177              		.loc 1 66 3 is_stmt 1 view .LVU40
 178              		.loc 1 66 19 is_stmt 0 view .LVU41
 179 0052 14EB030B 		adds	fp, r4, r3
 180 0056 45F1000C 		adc	ip, r5, #0
 181              		.loc 1 67 6 view .LVU42
 182 005a 9342     		cmp	r3, r2
 183              		.loc 1 70 6 view .LVU43
 184 005c 0268     		ldr	r2, [r0]
 185              		.loc 1 68 16 view .LVU44
 186 005e 88BF     		it	hi
 187 0060 4360     		strhi	r3, [r0, #4]
 188              		.loc 1 70 6 view .LVU45
 189 0062 9342     		cmp	r3, r2
 190              		.loc 1 66 19 view .LVU46
 191 0064 C0E904BC 		strd	fp, [r0, #16]
 192              		.loc 1 67 3 is_stmt 1 view .LVU47
 193              		.loc 1 68 5 view .LVU48
 194              		.loc 1 70 3 view .LVU49
 195              		.loc 1 71 5 view .LVU50
 196              		.loc 1 71 15 is_stmt 0 view .LVU51
 197 0068 38BF     		it	cc
 198 006a 0360     		strcc	r3, [r0]
 199              	.LVL6:
 200              		.loc 1 71 15 view .LVU52
 201              	.LBE26:
 202              	.LBE27:
 203              		.loc 1 142 1 view .LVU53
 204 006c BDE83008 		pop	{r4, r5, fp}
 205              		.cfi_restore 11
 206              		.cfi_restore 5
 207              		.cfi_restore 4
 208              		.cfi_def_cfa_offset 0
 209 0070 7047     		bx	lr
 210              	.L12:
 211 0072 00BF     		.align	2
 212              	.L11:
 213 0074 001000E0 		.word	-536866816
 214 0078 00000000 		.word	ch
 215              		.cfi_endproc
 216              	.LFE327:
 217              		.size	chTMStopMeasurementX, .-chTMStopMeasurementX
 218              		.align	1
 219 007c AFF30080 		.p2align 4,,15
 220              		.global	_tm_init
 221              		.syntax unified
 222              		.thumb
 223              		.thumb_func
 224              		.fpu fpv4-sp-d16
 225              		.type	_tm_init, %function
 226              	_tm_init:
 227              	.LFB324:
 228              		.loc 1 84 21 is_stmt 1 view -0
ARM GAS  /tmp/ccOddNcm.s 			page 5


 229              		.cfi_startproc
 230              		@ args = 0, pretend = 0, frame = 24
 231              		@ frame_needed = 0, uses_anonymous_args = 0
 232              		.loc 1 85 3 view .LVU55
 233              		.loc 1 86 3 view .LVU56
 234              		.loc 1 91 3 view .LVU57
 235              		.loc 1 84 21 is_stmt 0 view .LVU58
 236 0080 30B5     		push	{r4, r5, lr}
 237              		.cfi_def_cfa_offset 12
 238              		.cfi_offset 4, -12
 239              		.cfi_offset 5, -8
 240              		.cfi_offset 14, -4
 241              		.loc 1 91 16 view .LVU59
 242 0082 0023     		movs	r3, #0
 243              		.loc 1 84 21 view .LVU60
 244 0084 87B0     		sub	sp, sp, #28
 245              		.cfi_def_cfa_offset 40
 246              		.loc 1 91 16 view .LVU61
 247 0086 0D4D     		ldr	r5, .L17
 248              	.LBB28:
 249              	.LBB29:
 250              		.loc 1 111 19 view .LVU62
 251 0088 4FF0FF32 		mov	r2, #-1
 252              		.loc 1 115 19 view .LVU63
 253 008c 0020     		movs	r0, #0
 254 008e 0021     		movs	r1, #0
 255 0090 0424     		movs	r4, #4
 256              	.LBE29:
 257              	.LBE28:
 258              		.loc 1 91 16 view .LVU64
 259 0092 C5F87C38 		str	r3, [r5, #2172]
 260              		.loc 1 92 3 is_stmt 1 view .LVU65
 261              	.LVL7:
 262              	.LBB31:
 263              	.LBI28:
 264              		.loc 1 109 6 view .LVU66
 265              	.LBB30:
 266              		.loc 1 111 3 view .LVU67
 267              		.loc 1 114 19 is_stmt 0 view .LVU68
 268 0096 0393     		str	r3, [sp, #12]
 269              		.loc 1 111 19 view .LVU69
 270 0098 0092     		str	r2, [sp]
 271              		.loc 1 112 3 is_stmt 1 view .LVU70
 272              		.loc 1 113 3 view .LVU71
 273              		.loc 1 114 3 view .LVU72
 274              		.loc 1 115 3 view .LVU73
 275              		.loc 1 113 19 is_stmt 0 view .LVU74
 276 009a CDE90133 		strd	r3, r3, [sp, #4]
 277              		.loc 1 115 19 view .LVU75
 278 009e CDE90401 		strd	r0, [sp, #16]
 279              	.LVL8:
 280              		.loc 1 115 19 view .LVU76
 281              	.LBE30:
 282              	.LBE31:
 283              		.loc 1 93 3 is_stmt 1 view .LVU77
 284              	.L14:
 285              		.loc 1 94 3 discriminator 1 view .LVU78
ARM GAS  /tmp/ccOddNcm.s 			page 6


 286              		.loc 1 95 5 discriminator 1 view .LVU79
 287 00a2 6846     		mov	r0, sp
 288 00a4 FFF7FEFF 		bl	chTMStartMeasurementX
 289              	.LVL9:
 290              		.loc 1 96 5 discriminator 1 view .LVU80
 291 00a8 6846     		mov	r0, sp
 292 00aa FFF7FEFF 		bl	chTMStopMeasurementX
 293              	.LVL10:
 294              		.loc 1 97 5 discriminator 1 view .LVU81
 295              		.loc 1 98 3 is_stmt 0 discriminator 1 view .LVU82
 296 00ae 013C     		subs	r4, r4, #1
 297              	.LVL11:
 298              		.loc 1 98 3 discriminator 1 view .LVU83
 299 00b0 F7D1     		bne	.L14
 300              		.loc 1 99 3 is_stmt 1 view .LVU84
 301              		.loc 1 99 16 is_stmt 0 view .LVU85
 302 00b2 009B     		ldr	r3, [sp]
 303 00b4 C5F87C38 		str	r3, [r5, #2172]
 304              		.loc 1 100 1 view .LVU86
 305 00b8 07B0     		add	sp, sp, #28
 306              		.cfi_def_cfa_offset 12
 307              		@ sp needed
 308 00ba 30BD     		pop	{r4, r5, pc}
 309              	.LVL12:
 310              	.L18:
 311              		.loc 1 100 1 view .LVU87
 312              		.align	2
 313              	.L17:
 314 00bc 00000000 		.word	ch
 315              		.cfi_endproc
 316              	.LFE324:
 317              		.size	_tm_init, .-_tm_init
 318              		.align	1
 319              		.p2align 4,,15
 320              		.global	chTMChainMeasurementToX
 321              		.syntax unified
 322              		.thumb
 323              		.thumb_func
 324              		.fpu fpv4-sp-d16
 325              		.type	chTMChainMeasurementToX, %function
 326              	chTMChainMeasurementToX:
 327              	.LVL13:
 328              	.LFB328:
 329              		.loc 1 157 65 is_stmt 1 view -0
 330              		.cfi_startproc
 331              		@ args = 0, pretend = 0, frame = 0
 332              		@ frame_needed = 0, uses_anonymous_args = 0
 333              		@ link register save eliminated.
 334              		.loc 1 160 3 view .LVU89
 335              	.LBB32:
 336              	.LBI32:
 337              		.loc 2 781 30 view .LVU90
 338              	.LBB33:
 339              		.loc 2 783 3 view .LVU91
 340              		.loc 2 783 13 is_stmt 0 view .LVU92
 341 00c0 0E4B     		ldr	r3, .L23
 342              	.LBE33:
ARM GAS  /tmp/ccOddNcm.s 			page 7


 343              	.LBE32:
 344              	.LBB35:
 345              	.LBB36:
 346              		.loc 1 64 9 view .LVU93
 347 00c2 C268     		ldr	r2, [r0, #12]
 348              	.LBE36:
 349              	.LBE35:
 350              	.LBB39:
 351              	.LBB34:
 352              		.loc 2 783 13 view .LVU94
 353 00c4 5B68     		ldr	r3, [r3, #4]
 354              	.LBE34:
 355              	.LBE39:
 356              	.LBB40:
 357              	.LBB37:
 358              		.loc 1 64 9 view .LVU95
 359 00c6 0132     		adds	r2, r2, #1
 360              	.LBE37:
 361              	.LBE40:
 362              		.loc 1 157 65 view .LVU96
 363 00c8 2DE93008 		push	{r4, r5, fp}
 364              		.cfi_def_cfa_offset 12
 365              		.cfi_offset 4, -12
 366              		.cfi_offset 5, -8
 367              		.cfi_offset 11, -4
 368              		.loc 1 160 14 view .LVU97
 369 00cc 8B60     		str	r3, [r1, #8]
 370              		.loc 1 163 3 is_stmt 1 view .LVU98
 371              	.LVL14:
 372              	.LBB41:
 373              	.LBI35:
 374              		.loc 1 60 20 view .LVU99
 375              	.LBB38:
 376              		.loc 1 64 3 view .LVU100
 377              		.loc 1 65 20 is_stmt 0 view .LVU101
 378 00ce 8468     		ldr	r4, [r0, #8]
 379              		.loc 1 67 6 view .LVU102
 380 00d0 4168     		ldr	r1, [r0, #4]
 381              	.LVL15:
 382              		.loc 1 65 20 view .LVU103
 383 00d2 1B1B     		subs	r3, r3, r4
 384              	.LVL16:
 385              		.loc 1 64 9 view .LVU104
 386 00d4 C260     		str	r2, [r0, #12]
 387              		.loc 1 65 3 is_stmt 1 view .LVU105
 388              		.loc 1 70 6 is_stmt 0 view .LVU106
 389 00d6 0268     		ldr	r2, [r0]
 390              		.loc 1 65 13 view .LVU107
 391 00d8 8360     		str	r3, [r0, #8]
 392              	.LVL17:
 393              		.loc 1 66 3 is_stmt 1 view .LVU108
 394              		.loc 1 66 19 is_stmt 0 view .LVU109
 395 00da D0E90445 		ldrd	r4, [r0, #16]
 396 00de 14EB030B 		adds	fp, r4, r3
 397 00e2 45F1000C 		adc	ip, r5, #0
 398              		.loc 1 67 6 view .LVU110
 399 00e6 8B42     		cmp	r3, r1
ARM GAS  /tmp/ccOddNcm.s 			page 8


 400              		.loc 1 68 16 view .LVU111
 401 00e8 88BF     		it	hi
 402 00ea 4360     		strhi	r3, [r0, #4]
 403              		.loc 1 70 6 view .LVU112
 404 00ec 9342     		cmp	r3, r2
 405              		.loc 1 66 19 view .LVU113
 406 00ee C0E904BC 		strd	fp, [r0, #16]
 407              		.loc 1 67 3 is_stmt 1 view .LVU114
 408              		.loc 1 68 5 view .LVU115
 409              		.loc 1 70 3 view .LVU116
 410              		.loc 1 71 5 view .LVU117
 411              		.loc 1 71 15 is_stmt 0 view .LVU118
 412 00f2 38BF     		it	cc
 413 00f4 0360     		strcc	r3, [r0]
 414              	.LVL18:
 415              		.loc 1 71 15 view .LVU119
 416              	.LBE38:
 417              	.LBE41:
 418              		.loc 1 164 1 view .LVU120
 419 00f6 BDE83008 		pop	{r4, r5, fp}
 420              		.cfi_restore 11
 421              		.cfi_restore 5
 422              		.cfi_restore 4
 423              		.cfi_def_cfa_offset 0
 424 00fa 7047     		bx	lr
 425              	.L24:
 426              		.align	2
 427              	.L23:
 428 00fc 001000E0 		.word	-536866816
 429              		.cfi_endproc
 430              	.LFE328:
 431              		.size	chTMChainMeasurementToX, .-chTMChainMeasurementToX
 432              	.Letext0:
 433              		.file 3 "/home/nicolas/arm/gcc-arm-none-eabi-8-2019-q3-update/lib/gcc/arm-none-eabi/8.3.1/include/
 434              		.file 4 "/home/nicolas/arm/gcc-arm-none-eabi-8-2019-q3-update/arm-none-eabi/include/machine/_defau
 435              		.file 5 "/home/nicolas/arm/gcc-arm-none-eabi-8-2019-q3-update/arm-none-eabi/include/sys/_stdint.h"
 436              		.file 6 "../../../external/ChibiOS/os/common/ports/ARMCMx/compilers/GCC/chtypes.h"
 437              		.file 7 "../../../external/ChibiOS/os/rt/include/chsystypes.h"
 438              		.file 8 "../../../external/ChibiOS/os/rt/include/chschd.h"
 439              		.file 9 "../../../external/ChibiOS/os/rt/include/chtime.h"
 440              		.file 10 "../../../external/ChibiOS/os/common/ext/ARM/CMSIS/Core/Include/core_cm7.h"
 441              		.file 11 "../../../external/ChibiOS/os/common/ext/ST/STM32H7xx/system_stm32h7xx.h"
 442              		.file 12 "../../../external/ChibiOS/os/common/ports/ARMCMx/chcore.h"
 443              		.file 13 "../../../external/ChibiOS/os/rt/include/chtrace.h"
 444              		.file 14 "../../../external/ChibiOS/os/rt/include/chtm.h"
 445              		.file 15 "../../../external/ChibiOS/os/rt/include/chsem.h"
 446              		.file 16 "../../../external/ChibiOS/os/rt/include/chmtx.h"
 447              		.file 17 "../../../external/ChibiOS/os/rt/include/chsys.h"
 448              		.file 18 "../../../external/ChibiOS/os/rt/include/chregistry.h"
 449              		.file 19 "../../../external/ChibiOS/os/oslib/include/chmemcore.h"
 450              		.file 20 "../../../external/ChibiOS/os/oslib/include/chmempools.h"
 451              		.file 21 "../../../external/ChibiOS/os/oslib/include/chfactory.h"