ARM GAS  /tmp/cczAUC5b.s 			page 1


   1              		.cpu cortex-m7
   2              		.eabi_attribute 27, 1
   3              		.eabi_attribute 28, 1
   4              		.eabi_attribute 20, 1
   5              		.eabi_attribute 21, 1
   6              		.eabi_attribute 23, 3
   7              		.eabi_attribute 24, 1
   8              		.eabi_attribute 25, 1
   9              		.eabi_attribute 26, 1
  10              		.eabi_attribute 30, 2
  11              		.eabi_attribute 34, 1
  12              		.eabi_attribute 18, 4
  13              		.file	"chtrace.c"
  14              		.text
  15              	.Ltext0:
  16              		.cfi_sections	.debug_frame
  17              		.align	1
  18              		.p2align 4,,15
  19              		.arch armv7e-m
  20              		.syntax unified
  21              		.thumb
  22              		.thumb_func
  23              		.fpu fpv4-sp-d16
  24              		.type	trace_next, %function
  25              	trace_next:
  26              	.LFB323:
  27              		.file 1 "../../../external/ChibiOS/os/rt/src/chtrace.c"
  28              		.loc 1 57 39 view -0
  29              		.cfi_startproc
  30              		@ args = 0, pretend = 0, frame = 0
  31              		@ frame_needed = 0, uses_anonymous_args = 0
  32              		.loc 1 59 3 view .LVU1
  33              		.loc 1 57 39 is_stmt 0 view .LVU2
  34 0000 38B5     		push	{r3, r4, r5, lr}
  35              		.cfi_def_cfa_offset 16
  36              		.cfi_offset 3, -16
  37              		.cfi_offset 4, -12
  38              		.cfi_offset 5, -8
  39              		.cfi_offset 14, -4
  40              		.loc 1 59 22 view .LVU3
  41 0002 0B4C     		ldr	r4, .L7
  42 0004 656B     		ldr	r5, [r4, #52]
  43              	.LBB88:
  44              	.LBI88:
  45              		.file 2 "../../../external/ChibiOS/os/rt/include/chvt.h"
  46              		.loc 2 116 25 is_stmt 1 view .LVU4
  47              	.LBE88:
  48              		.loc 2 121 3 view .LVU5
  49              	.LBB91:
  50              	.LBB89:
  51              	.LBI89:
  52              		.file 3 "../../../external/ChibiOS/os/common/ports/ARMCMx/chcore_timer.h"
  53              		.loc 3 114 25 view .LVU6
  54              	.LBB90:
  55              		.loc 3 116 3 view .LVU7
  56              		.loc 3 116 10 is_stmt 0 view .LVU8
  57 0006 FFF7FEFF 		bl	stGetCounter
ARM GAS  /tmp/cczAUC5b.s 			page 2


  58              	.LVL0:
  59              	.LBE90:
  60              	.LBE89:
  61              	.LBE91:
  62              		.loc 1 61 22 view .LVU9
  63 000a 626B     		ldr	r2, [r4, #52]
  64              		.loc 1 69 6 view .LVU10
  65 000c 04F63801 		addw	r1, r4, #2104
  66              	.LBB92:
  67              	.LBB93:
  68              		.file 4 "../../../external/ChibiOS/os/common/ports/ARMCMx/chcore_v7m.h"
  69              		.loc 4 783 13 view .LVU11
  70 0010 084B     		ldr	r3, .L7+4
  71              	.LBE93:
  72              	.LBE92:
  73              		.loc 1 59 36 view .LVU12
  74 0012 6860     		str	r0, [r5, #4]
  75              		.loc 1 61 3 is_stmt 1 view .LVU13
  76              	.LBB95:
  77              	.LBI92:
  78              		.loc 4 781 30 view .LVU14
  79              	.LBB94:
  80              		.loc 4 783 3 view .LVU15
  81              		.loc 4 783 13 is_stmt 0 view .LVU16
  82 0014 5868     		ldr	r0, [r3, #4]
  83              	.LBE94:
  84              	.LBE95:
  85              		.loc 1 61 36 view .LVU17
  86 0016 1346     		mov	r3, r2
  87 0018 1268     		ldr	r2, [r2]
  88 001a 60F31F22 		bfi	r2, r0, #8, #24
  89 001e 43F8102B 		str	r2, [r3], #16
  90              		.loc 1 67 3 is_stmt 1 view .LVU18
  91              		.loc 1 67 45 view .LVU19
  92              		.loc 1 69 3 view .LVU20
  93              		.loc 1 69 6 is_stmt 0 view .LVU21
  94 0022 8B42     		cmp	r3, r1
  95              		.loc 1 71 5 is_stmt 1 view .LVU22
  96              		.loc 1 71 29 is_stmt 0 view .LVU23
  97 0024 28BF     		it	cs
  98 0026 04F13803 		addcs	r3, r4, #56
  99 002a 6363     		str	r3, [r4, #52]
 100              		.loc 1 73 1 view .LVU24
 101 002c 38BD     		pop	{r3, r4, r5, pc}
 102              	.L8:
 103 002e 00BF     		.align	2
 104              	.L7:
 105 0030 00000000 		.word	ch
 106 0034 001000E0 		.word	-536866816
 107              		.cfi_endproc
 108              	.LFE323:
 109              		.size	trace_next, .-trace_next
 110              		.align	1
 111 0038 AFF30080 		.p2align 4,,15
 111      AFF30080 
 112              		.global	_trace_init
 113              		.syntax unified
ARM GAS  /tmp/cczAUC5b.s 			page 3


 114              		.thumb
 115              		.thumb_func
 116              		.fpu fpv4-sp-d16
 117              		.type	_trace_init, %function
 118              	_trace_init:
 119              	.LFB324:
 120              		.loc 1 85 24 is_stmt 1 view -0
 121              		.cfi_startproc
 122              		@ args = 0, pretend = 0, frame = 0
 123              		@ frame_needed = 0, uses_anonymous_args = 0
 124              		@ link register save eliminated.
 125              		.loc 1 86 3 view .LVU26
 126              		.loc 1 88 3 view .LVU27
 127              		.loc 1 89 3 view .LVU28
 128              		.loc 1 88 33 is_stmt 0 view .LVU29
 129 0040 0848     		ldr	r0, .L12
 130              		.loc 1 91 10 view .LVU30
 131 0042 0022     		movs	r2, #0
 132              		.loc 1 88 33 view .LVU31
 133 0044 0849     		ldr	r1, .L12+4
 134              		.loc 1 90 33 view .LVU32
 135 0046 00F13803 		add	r3, r0, #56
 136 004a C0E90C13 		strd	r1, r3, [r0, #48]
 137              		.loc 1 91 3 is_stmt 1 view .LVU33
 138              	.LVL1:
 139              	.L10:
 140              		.loc 1 92 5 discriminator 3 view .LVU34
 141              		.loc 1 92 40 is_stmt 0 discriminator 3 view .LVU35
 142 004e D31C     		adds	r3, r2, #3
 143              		.loc 1 91 57 discriminator 3 view .LVU36
 144 0050 0132     		adds	r2, r2, #1
 145              	.LVL2:
 146              		.loc 1 92 40 discriminator 3 view .LVU37
 147 0052 00EB0313 		add	r3, r0, r3, lsl #4
 148              		.loc 1 91 3 discriminator 3 view .LVU38
 149 0056 802A     		cmp	r2, #128
 150              		.loc 1 92 40 discriminator 3 view .LVU39
 151 0058 197A     		ldrb	r1, [r3, #8]	@ zero_extendqisi2
 152 005a 6FF30201 		bfc	r1, #0, #3
 153 005e 1972     		strb	r1, [r3, #8]
 154              		.loc 1 91 3 discriminator 3 view .LVU40
 155 0060 F5D1     		bne	.L10
 156              		.loc 1 94 1 view .LVU41
 157 0062 7047     		bx	lr
 158              	.L13:
 159              		.align	2
 160              	.L12:
 161 0064 00000000 		.word	ch
 162 0068 FFFF8000 		.word	8454143
 163              		.cfi_endproc
 164              	.LFE324:
 165              		.size	_trace_init, .-_trace_init
 166              		.align	1
 167 006c AFF30080 		.p2align 4,,15
 168              		.global	_trace_switch
 169              		.syntax unified
 170              		.thumb
ARM GAS  /tmp/cczAUC5b.s 			page 4


 171              		.thumb_func
 172              		.fpu fpv4-sp-d16
 173              		.type	_trace_switch, %function
 174              	_trace_switch:
 175              	.LVL3:
 176              	.LFB325:
 177              		.loc 1 104 50 is_stmt 1 view -0
 178              		.cfi_startproc
 179              		@ args = 0, pretend = 0, frame = 0
 180              		@ frame_needed = 0, uses_anonymous_args = 0
 181              		@ link register save eliminated.
 182              		.loc 1 106 3 view .LVU43
 183              		.loc 1 108 3 view .LVU44
 184              		.loc 1 108 27 is_stmt 0 view .LVU45
 185 0070 0B4B     		ldr	r3, .L20
 186              		.loc 1 108 6 view .LVU46
 187 0072 1A8E     		ldrh	r2, [r3, #48]
 188 0074 D207     		lsls	r2, r2, #31
 189 0076 00D5     		bpl	.L19
 190 0078 7047     		bx	lr
 191              	.L19:
 192              		.loc 1 109 5 is_stmt 1 view .LVU47
 193              		.loc 1 109 24 is_stmt 0 view .LVU48
 194 007a 586B     		ldr	r0, [r3, #52]
 195              	.LVL4:
 196              		.loc 1 104 50 view .LVU49
 197 007c 30B4     		push	{r4, r5}
 198              		.cfi_def_cfa_offset 8
 199              		.cfi_offset 4, -8
 200              		.cfi_offset 5, -4
 201              		.loc 1 109 42 view .LVU50
 202 007e 0278     		ldrb	r2, [r0]	@ zero_extendqisi2
 203 0080 0125     		movs	r5, #1
 204              		.loc 1 112 42 view .LVU51
 205 0082 4C6A     		ldr	r4, [r1, #36]
 206              		.loc 1 109 42 view .LVU52
 207 0084 65F30202 		bfi	r2, r5, #0, #3
 208 0088 0270     		strb	r2, [r0]
 209              		.loc 1 110 5 is_stmt 1 view .LVU53
 210              		.loc 1 110 42 is_stmt 0 view .LVU54
 211 008a 91F82010 		ldrb	r1, [r1, #32]	@ zero_extendqisi2
 212              	.LVL5:
 213              		.loc 1 110 42 view .LVU55
 214 008e 61F3C702 		bfi	r2, r1, #3, #5
 215 0092 0270     		strb	r2, [r0]
 216              		.loc 1 111 5 is_stmt 1 view .LVU56
 217              		.loc 1 111 42 is_stmt 0 view .LVU57
 218 0094 9B69     		ldr	r3, [r3, #24]
 219 0096 C0E90234 		strd	r3, r4, [r0, #8]
 220              		.loc 1 112 5 is_stmt 1 view .LVU58
 221              		.loc 1 113 5 view .LVU59
 222              		.loc 1 115 1 is_stmt 0 view .LVU60
 223 009a 30BC     		pop	{r4, r5}
 224              		.cfi_restore 5
 225              		.cfi_restore 4
 226              		.cfi_def_cfa_offset 0
 227              		.loc 1 113 5 view .LVU61
ARM GAS  /tmp/cczAUC5b.s 			page 5


 228 009c B0E7     		b	trace_next
 229              	.LVL6:
 230              	.L21:
 231 009e 00BF     		.align	2
 232              	.L20:
 233 00a0 00000000 		.word	ch
 234              		.cfi_endproc
 235              	.LFE325:
 236              		.size	_trace_switch, .-_trace_switch
 237              		.align	1
 238 00a4 AFF30080 		.p2align 4,,15
 238      AFF30080 
 238      AFF30080 
 239              		.global	_trace_isr_enter
 240              		.syntax unified
 241              		.thumb
 242              		.thumb_func
 243              		.fpu fpv4-sp-d16
 244              		.type	_trace_isr_enter, %function
 245              	_trace_isr_enter:
 246              	.LVL7:
 247              	.LFB326:
 248              		.loc 1 124 40 is_stmt 1 view -0
 249              		.cfi_startproc
 250              		@ args = 0, pretend = 0, frame = 0
 251              		@ frame_needed = 0, uses_anonymous_args = 0
 252              		.loc 1 126 3 view .LVU63
 253              		.loc 1 126 27 is_stmt 0 view .LVU64
 254 00b0 094A     		ldr	r2, .L26
 255              		.loc 1 126 6 view .LVU65
 256 00b2 138E     		ldrh	r3, [r2, #48]
 257              		.loc 1 124 40 view .LVU66
 258 00b4 10B5     		push	{r4, lr}
 259              		.cfi_def_cfa_offset 8
 260              		.cfi_offset 4, -8
 261              		.cfi_offset 14, -4
 262              		.loc 1 126 6 view .LVU67
 263 00b6 13F00204 		ands	r4, r3, #2
 264 00ba 00D0     		beq	.L25
 265              		.loc 1 134 1 view .LVU68
 266 00bc 10BD     		pop	{r4, pc}
 267              	.L25:
 268              		.loc 1 127 5 is_stmt 1 view .LVU69
 269              	.LBB96:
 270              	.LBI96:
 271              		.loc 4 708 27 view .LVU70
 272              	.LBE96:
 273              		.loc 4 710 3 view .LVU71
 274              	.LBB101:
 275              	.LBB97:
 276              	.LBI97:
 277              		.loc 4 669 27 view .LVU72
 278              	.LBE97:
 279              	.LBE101:
 280              		.loc 4 677 3 view .LVU73
 281              	.LVL8:
 282              	.LBB102:
ARM GAS  /tmp/cczAUC5b.s 			page 6


 283              	.LBB100:
 284              	.LBB98:
 285              	.LBI98:
 286              		.file 5 "../../../external/ChibiOS/os/common/ext/ARM/CMSIS/Core/Include/cmsis_gcc.h"
 287              		.loc 5 491 27 view .LVU74
 288              	.LBB99:
 289              		.loc 5 493 3 view .LVU75
 290 00be 2023     		movs	r3, #32
 291              		.syntax unified
 292              	@ 493 "../../../external/ChibiOS/os/common/ext/ARM/CMSIS/Core/Include/cmsis_gcc.h" 1
 293 00c0 83F31188 		MSR basepri, r3
 294              	@ 0 "" 2
 295              	.LVL9:
 296              		.loc 5 493 3 is_stmt 0 view .LVU76
 297              		.thumb
 298              		.syntax unified
 299              	.LBE99:
 300              	.LBE98:
 301              	.LBE100:
 302              	.LBE102:
 303              		.loc 1 128 5 is_stmt 1 view .LVU77
 304              		.loc 1 128 42 is_stmt 0 view .LVU78
 305 00c4 0221     		movs	r1, #2
 306              		.loc 1 128 24 view .LVU79
 307 00c6 536B     		ldr	r3, [r2, #52]
 308              		.loc 1 129 5 is_stmt 1 view .LVU80
 309              		.loc 1 130 42 is_stmt 0 view .LVU81
 310 00c8 9860     		str	r0, [r3, #8]
 311              		.loc 1 128 42 view .LVU82
 312 00ca 1970     		strb	r1, [r3]
 313              		.loc 1 130 5 is_stmt 1 view .LVU83
 314              		.loc 1 131 5 view .LVU84
 315 00cc FFF798FF 		bl	trace_next
 316              	.LVL10:
 317              		.loc 1 132 5 view .LVU85
 318              	.LBB103:
 319              	.LBI103:
 320              		.loc 4 719 27 view .LVU86
 321              	.LBE103:
 322              		.loc 4 721 3 view .LVU87
 323              	.LBB108:
 324              	.LBB104:
 325              	.LBI104:
 326              		.loc 4 693 27 view .LVU88
 327              	.LBE104:
 328              	.LBE108:
 329              		.loc 4 696 3 view .LVU89
 330              	.LBB109:
 331              	.LBB107:
 332              	.LBB105:
 333              	.LBI105:
 334              		.loc 5 491 27 view .LVU90
 335              	.LBB106:
 336              		.loc 5 493 3 view .LVU91
 337              		.syntax unified
 338              	@ 493 "../../../external/ChibiOS/os/common/ext/ARM/CMSIS/Core/Include/cmsis_gcc.h" 1
 339 00d0 84F31188 		MSR basepri, r4
ARM GAS  /tmp/cczAUC5b.s 			page 7


 340              	@ 0 "" 2
 341              	.LVL11:
 342              		.loc 5 493 3 is_stmt 0 view .LVU92
 343              		.thumb
 344              		.syntax unified
 345              	.LBE106:
 346              	.LBE105:
 347              	.LBE107:
 348              	.LBE109:
 349              		.loc 1 134 1 view .LVU93
 350 00d4 10BD     		pop	{r4, pc}
 351              	.L27:
 352 00d6 00BF     		.align	2
 353              	.L26:
 354 00d8 00000000 		.word	ch
 355              		.cfi_endproc
 356              	.LFE326:
 357              		.size	_trace_isr_enter, .-_trace_isr_enter
 358              		.align	1
 359 00dc AFF30080 		.p2align 4,,15
 360              		.global	_trace_isr_leave
 361              		.syntax unified
 362              		.thumb
 363              		.thumb_func
 364              		.fpu fpv4-sp-d16
 365              		.type	_trace_isr_leave, %function
 366              	_trace_isr_leave:
 367              	.LVL12:
 368              	.LFB327:
 369              		.loc 1 143 40 is_stmt 1 view -0
 370              		.cfi_startproc
 371              		@ args = 0, pretend = 0, frame = 0
 372              		@ frame_needed = 0, uses_anonymous_args = 0
 373              		.loc 1 145 3 view .LVU95
 374              		.loc 1 145 27 is_stmt 0 view .LVU96
 375 00e0 094A     		ldr	r2, .L32
 376              		.loc 1 145 6 view .LVU97
 377 00e2 138E     		ldrh	r3, [r2, #48]
 378              		.loc 1 143 40 view .LVU98
 379 00e4 10B5     		push	{r4, lr}
 380              		.cfi_def_cfa_offset 8
 381              		.cfi_offset 4, -8
 382              		.cfi_offset 14, -4
 383              		.loc 1 145 6 view .LVU99
 384 00e6 13F00204 		ands	r4, r3, #2
 385 00ea 00D0     		beq	.L31
 386              		.loc 1 153 1 view .LVU100
 387 00ec 10BD     		pop	{r4, pc}
 388              	.L31:
 389              		.loc 1 146 5 is_stmt 1 view .LVU101
 390              	.LBB110:
 391              	.LBI110:
 392              		.loc 4 708 27 view .LVU102
 393              	.LBE110:
 394              		.loc 4 710 3 view .LVU103
 395              	.LBB115:
 396              	.LBB111:
ARM GAS  /tmp/cczAUC5b.s 			page 8


 397              	.LBI111:
 398              		.loc 4 669 27 view .LVU104
 399              	.LBE111:
 400              	.LBE115:
 401              		.loc 4 677 3 view .LVU105
 402              	.LVL13:
 403              	.LBB116:
 404              	.LBB114:
 405              	.LBB112:
 406              	.LBI112:
 407              		.loc 5 491 27 view .LVU106
 408              	.LBB113:
 409              		.loc 5 493 3 view .LVU107
 410 00ee 2023     		movs	r3, #32
 411              		.syntax unified
 412              	@ 493 "../../../external/ChibiOS/os/common/ext/ARM/CMSIS/Core/Include/cmsis_gcc.h" 1
 413 00f0 83F31188 		MSR basepri, r3
 414              	@ 0 "" 2
 415              	.LVL14:
 416              		.loc 5 493 3 is_stmt 0 view .LVU108
 417              		.thumb
 418              		.syntax unified
 419              	.LBE113:
 420              	.LBE112:
 421              	.LBE114:
 422              	.LBE116:
 423              		.loc 1 147 5 is_stmt 1 view .LVU109
 424              		.loc 1 147 42 is_stmt 0 view .LVU110
 425 00f4 0321     		movs	r1, #3
 426              		.loc 1 147 24 view .LVU111
 427 00f6 536B     		ldr	r3, [r2, #52]
 428              		.loc 1 148 5 is_stmt 1 view .LVU112
 429              		.loc 1 149 42 is_stmt 0 view .LVU113
 430 00f8 9860     		str	r0, [r3, #8]
 431              		.loc 1 147 42 view .LVU114
 432 00fa 1970     		strb	r1, [r3]
 433              		.loc 1 149 5 is_stmt 1 view .LVU115
 434              		.loc 1 150 5 view .LVU116
 435 00fc FFF780FF 		bl	trace_next
 436              	.LVL15:
 437              		.loc 1 151 5 view .LVU117
 438              	.LBB117:
 439              	.LBI117:
 440              		.loc 4 719 27 view .LVU118
 441              	.LBE117:
 442              		.loc 4 721 3 view .LVU119
 443              	.LBB122:
 444              	.LBB118:
 445              	.LBI118:
 446              		.loc 4 693 27 view .LVU120
 447              	.LBE118:
 448              	.LBE122:
 449              		.loc 4 696 3 view .LVU121
 450              	.LBB123:
 451              	.LBB121:
 452              	.LBB119:
 453              	.LBI119:
ARM GAS  /tmp/cczAUC5b.s 			page 9


 454              		.loc 5 491 27 view .LVU122
 455              	.LBB120:
 456              		.loc 5 493 3 view .LVU123
 457              		.syntax unified
 458              	@ 493 "../../../external/ChibiOS/os/common/ext/ARM/CMSIS/Core/Include/cmsis_gcc.h" 1
 459 0100 84F31188 		MSR basepri, r4
 460              	@ 0 "" 2
 461              	.LVL16:
 462              		.loc 5 493 3 is_stmt 0 view .LVU124
 463              		.thumb
 464              		.syntax unified
 465              	.LBE120:
 466              	.LBE119:
 467              	.LBE121:
 468              	.LBE123:
 469              		.loc 1 153 1 view .LVU125
 470 0104 10BD     		pop	{r4, pc}
 471              	.L33:
 472 0106 00BF     		.align	2
 473              	.L32:
 474 0108 00000000 		.word	ch
 475              		.cfi_endproc
 476              	.LFE327:
 477              		.size	_trace_isr_leave, .-_trace_isr_leave
 478              		.align	1
 479 010c AFF30080 		.p2align 4,,15
 480              		.global	_trace_halt
 481              		.syntax unified
 482              		.thumb
 483              		.thumb_func
 484              		.fpu fpv4-sp-d16
 485              		.type	_trace_halt, %function
 486              	_trace_halt:
 487              	.LVL17:
 488              	.LFB328:
 489              		.loc 1 162 38 is_stmt 1 view -0
 490              		.cfi_startproc
 491              		@ args = 0, pretend = 0, frame = 0
 492              		@ frame_needed = 0, uses_anonymous_args = 0
 493              		@ link register save eliminated.
 494              		.loc 1 164 3 view .LVU127
 495              		.loc 1 164 27 is_stmt 0 view .LVU128
 496 0110 044B     		ldr	r3, .L37
 497              		.loc 1 164 6 view .LVU129
 498 0112 1A8E     		ldrh	r2, [r3, #48]
 499 0114 5207     		lsls	r2, r2, #29
 500 0116 00D5     		bpl	.L36
 501              		.loc 1 170 1 view .LVU130
 502 0118 7047     		bx	lr
 503              	.L36:
 504              		.loc 1 165 5 is_stmt 1 view .LVU131
 505              		.loc 1 165 24 is_stmt 0 view .LVU132
 506 011a 5B6B     		ldr	r3, [r3, #52]
 507              		.loc 1 166 5 is_stmt 1 view .LVU133
 508              		.loc 1 165 44 is_stmt 0 view .LVU134
 509 011c 0422     		movs	r2, #4
 510              		.loc 1 167 44 view .LVU135
ARM GAS  /tmp/cczAUC5b.s 			page 10


 511 011e 9860     		str	r0, [r3, #8]
 512              		.loc 1 165 44 view .LVU136
 513 0120 1A70     		strb	r2, [r3]
 514              		.loc 1 167 5 is_stmt 1 view .LVU137
 515              		.loc 1 168 5 view .LVU138
 516 0122 6DE7     		b	trace_next
 517              	.LVL18:
 518              	.L38:
 519              		.loc 1 168 5 is_stmt 0 view .LVU139
 520              		.align	2
 521              	.L37:
 522 0124 00000000 		.word	ch
 523              		.cfi_endproc
 524              	.LFE328:
 525              		.size	_trace_halt, .-_trace_halt
 526              		.align	1
 527 0128 AFF30080 		.p2align 4,,15
 527      AFF30080 
 528              		.global	chDbgWriteTraceI
 529              		.syntax unified
 530              		.thumb
 531              		.thumb_func
 532              		.fpu fpv4-sp-d16
 533              		.type	chDbgWriteTraceI, %function
 534              	chDbgWriteTraceI:
 535              	.LVL19:
 536              	.LFB329:
 537              		.loc 1 180 45 is_stmt 1 view -0
 538              		.cfi_startproc
 539              		@ args = 0, pretend = 0, frame = 0
 540              		@ frame_needed = 0, uses_anonymous_args = 0
 541              		@ link register save eliminated.
 542              		.loc 1 182 21 view .LVU141
 543              		.loc 1 184 3 view .LVU142
 544              		.loc 1 184 27 is_stmt 0 view .LVU143
 545 0130 054B     		ldr	r3, .L42
 546              		.loc 1 184 6 view .LVU144
 547 0132 1A8E     		ldrh	r2, [r3, #48]
 548 0134 1207     		lsls	r2, r2, #28
 549 0136 00D5     		bpl	.L41
 550              		.loc 1 191 1 view .LVU145
 551 0138 7047     		bx	lr
 552              	.L41:
 553              	.LVL20:
 554              	.LBB126:
 555              	.LBI126:
 556              		.loc 1 180 6 is_stmt 1 view .LVU146
 557              	.LBB127:
 558              		.loc 1 185 5 view .LVU147
 559              		.loc 1 185 24 is_stmt 0 view .LVU148
 560 013a 5B6B     		ldr	r3, [r3, #52]
 561              		.loc 1 186 5 is_stmt 1 view .LVU149
 562              		.loc 1 185 41 is_stmt 0 view .LVU150
 563 013c 0522     		movs	r2, #5
 564              		.loc 1 188 41 view .LVU151
 565 013e C3E90201 		strd	r0, r1, [r3, #8]
 566              		.loc 1 185 41 view .LVU152
ARM GAS  /tmp/cczAUC5b.s 			page 11


 567 0142 1A70     		strb	r2, [r3]
 568              		.loc 1 187 5 is_stmt 1 view .LVU153
 569              		.loc 1 188 5 view .LVU154
 570              		.loc 1 189 5 view .LVU155
 571 0144 5CE7     		b	trace_next
 572              	.LVL21:
 573              	.L43:
 574              		.loc 1 189 5 is_stmt 0 view .LVU156
 575 0146 00BF     		.align	2
 576              	.L42:
 577 0148 00000000 		.word	ch
 578              	.LBE127:
 579              	.LBE126:
 580              		.cfi_endproc
 581              	.LFE329:
 582              		.size	chDbgWriteTraceI, .-chDbgWriteTraceI
 583              		.align	1
 584 014c AFF30080 		.p2align 4,,15
 585              		.global	chDbgWriteTrace
 586              		.syntax unified
 587              		.thumb
 588              		.thumb_func
 589              		.fpu fpv4-sp-d16
 590              		.type	chDbgWriteTrace, %function
 591              	chDbgWriteTrace:
 592              	.LVL22:
 593              	.LFB330:
 594              		.loc 1 201 44 is_stmt 1 view -0
 595              		.cfi_startproc
 596              		@ args = 0, pretend = 0, frame = 0
 597              		@ frame_needed = 0, uses_anonymous_args = 0
 598              		.loc 1 203 3 view .LVU158
 599              	.LBB141:
 600              	.LBI141:
 601              		.file 6 "../../../external/ChibiOS/os/rt/include/chsys.h"
 602              		.loc 6 353 20 view .LVU159
 603              	.LBE141:
 604              		.loc 6 355 3 view .LVU160
 605              	.LBB149:
 606              	.LBB142:
 607              	.LBI142:
 608              		.loc 4 669 27 view .LVU161
 609              	.LBE142:
 610              	.LBE149:
 611              		.loc 4 677 3 view .LVU162
 612              	.LBB150:
 613              	.LBB147:
 614              	.LBB143:
 615              	.LBI143:
 616              		.loc 5 491 27 view .LVU163
 617              	.LBB144:
 618              		.loc 5 493 3 view .LVU164
 619              	.LBE144:
 620              	.LBE143:
 621              	.LBE147:
 622              	.LBE150:
 623              		.loc 1 201 44 is_stmt 0 view .LVU165
ARM GAS  /tmp/cczAUC5b.s 			page 12


 624 0150 08B5     		push	{r3, lr}
 625              		.cfi_def_cfa_offset 8
 626              		.cfi_offset 3, -8
 627              		.cfi_offset 14, -4
 628              	.LBB151:
 629              	.LBB148:
 630              	.LBB146:
 631              	.LBB145:
 632              		.loc 5 493 3 view .LVU166
 633 0152 2023     		movs	r3, #32
 634              		.syntax unified
 635              	@ 493 "../../../external/ChibiOS/os/common/ext/ARM/CMSIS/Core/Include/cmsis_gcc.h" 1
 636 0154 83F31188 		MSR basepri, r3
 637              	@ 0 "" 2
 638              	.LVL23:
 639              		.loc 5 493 3 view .LVU167
 640              		.thumb
 641              		.syntax unified
 642              	.LBE145:
 643              	.LBE146:
 644              	.LBE148:
 645              	.LBE151:
 646              		.loc 6 356 34 is_stmt 1 view .LVU168
 647              		.loc 6 357 20 view .LVU169
 648              		.loc 1 204 3 view .LVU170
 649              	.LBB152:
 650              	.LBI152:
 651              		.loc 1 180 6 view .LVU171
 652              	.LBB153:
 653              		.loc 1 182 21 view .LVU172
 654              		.loc 1 184 3 view .LVU173
 655              		.loc 1 184 27 is_stmt 0 view .LVU174
 656 0158 094B     		ldr	r3, .L48
 657              		.loc 1 184 6 view .LVU175
 658 015a 1A8E     		ldrh	r2, [r3, #48]
 659 015c 1207     		lsls	r2, r2, #28
 660 015e 03D5     		bpl	.L47
 661              	.LVL24:
 662              		.loc 1 184 6 view .LVU176
 663              	.LBE153:
 664              	.LBE152:
 665              		.loc 1 205 3 is_stmt 1 view .LVU177
 666              	.LBB157:
 667              	.LBI157:
 668              		.loc 6 365 20 view .LVU178
 669              	.LBB158:
 670              		.loc 6 367 22 view .LVU179
 671              		.loc 6 368 33 view .LVU180
 672              		.loc 6 374 3 view .LVU181
 673              		.loc 6 374 3 view .LVU182
 674              		.loc 6 378 3 view .LVU183
 675              	.LBB159:
 676              	.LBI159:
 677              		.loc 4 693 27 view .LVU184
 678              	.LBE159:
 679              	.LBE158:
 680              	.LBE157:
ARM GAS  /tmp/cczAUC5b.s 			page 13


 681              		.loc 4 696 3 view .LVU185
 682              	.LBB170:
 683              	.LBB167:
 684              	.LBB164:
 685              	.LBB160:
 686              	.LBI160:
 687              		.loc 5 491 27 view .LVU186
 688              	.LBB161:
 689              		.loc 5 493 3 view .LVU187
 690 0160 0023     		movs	r3, #0
 691              		.syntax unified
 692              	@ 493 "../../../external/ChibiOS/os/common/ext/ARM/CMSIS/Core/Include/cmsis_gcc.h" 1
 693 0162 83F31188 		MSR basepri, r3
 694              	@ 0 "" 2
 695              	.LVL25:
 696              		.loc 5 493 3 is_stmt 0 view .LVU188
 697              		.thumb
 698              		.syntax unified
 699              	.LBE161:
 700              	.LBE160:
 701              	.LBE164:
 702              	.LBE167:
 703              	.LBE170:
 704              		.loc 1 206 1 view .LVU189
 705 0166 08BD     		pop	{r3, pc}
 706              	.LVL26:
 707              	.L47:
 708              	.LBB171:
 709              	.LBB156:
 710              	.LBB154:
 711              	.LBI154:
 712              		.loc 1 180 6 is_stmt 1 view .LVU190
 713              	.LBB155:
 714              		.loc 1 185 5 view .LVU191
 715              		.loc 1 185 24 is_stmt 0 view .LVU192
 716 0168 5B6B     		ldr	r3, [r3, #52]
 717              		.loc 1 186 5 is_stmt 1 view .LVU193
 718              		.loc 1 185 41 is_stmt 0 view .LVU194
 719 016a 0522     		movs	r2, #5
 720              		.loc 1 188 41 view .LVU195
 721 016c C3E90201 		strd	r0, r1, [r3, #8]
 722              		.loc 1 185 41 view .LVU196
 723 0170 1A70     		strb	r2, [r3]
 724              		.loc 1 187 5 is_stmt 1 view .LVU197
 725              		.loc 1 188 5 view .LVU198
 726              		.loc 1 189 5 view .LVU199
 727 0172 FFF745FF 		bl	trace_next
 728              	.LVL27:
 729              		.loc 1 189 5 is_stmt 0 view .LVU200
 730              	.LBE155:
 731              	.LBE154:
 732              	.LBE156:
 733              	.LBE171:
 734              		.loc 1 205 3 is_stmt 1 view .LVU201
 735              	.LBB172:
 736              		.loc 6 365 20 view .LVU202
 737              	.LBB168:
ARM GAS  /tmp/cczAUC5b.s 			page 14


 738              		.loc 6 367 22 view .LVU203
 739              		.loc 6 368 33 view .LVU204
 740              		.loc 6 374 3 view .LVU205
 741              		.loc 6 374 3 view .LVU206
 742              		.loc 6 378 3 view .LVU207
 743              	.LBB165:
 744              		.loc 4 693 27 view .LVU208
 745              	.LBE165:
 746              	.LBE168:
 747              	.LBE172:
 748              		.loc 4 696 3 view .LVU209
 749              	.LBB173:
 750              	.LBB169:
 751              	.LBB166:
 752              	.LBB163:
 753              		.loc 5 491 27 view .LVU210
 754              	.LBB162:
 755              		.loc 5 493 3 view .LVU211
 756 0176 0023     		movs	r3, #0
 757              		.syntax unified
 758              	@ 493 "../../../external/ChibiOS/os/common/ext/ARM/CMSIS/Core/Include/cmsis_gcc.h" 1
 759 0178 83F31188 		MSR basepri, r3
 760              	@ 0 "" 2
 761              	.LVL28:
 762              		.loc 5 493 3 is_stmt 0 view .LVU212
 763              		.thumb
 764              		.syntax unified
 765              	.LBE162:
 766              	.LBE163:
 767              	.LBE166:
 768              	.LBE169:
 769              	.LBE173:
 770              		.loc 1 206 1 view .LVU213
 771 017c 08BD     		pop	{r3, pc}
 772              	.L49:
 773 017e 00BF     		.align	2
 774              	.L48:
 775 0180 00000000 		.word	ch
 776              		.cfi_endproc
 777              	.LFE330:
 778              		.size	chDbgWriteTrace, .-chDbgWriteTrace
 779              		.align	1
 780 0184 AFF30080 		.p2align 4,,15
 780      AFF30080 
 780      AFF30080 
 781              		.global	chDbgSuspendTraceI
 782              		.syntax unified
 783              		.thumb
 784              		.thumb_func
 785              		.fpu fpv4-sp-d16
 786              		.type	chDbgSuspendTraceI, %function
 787              	chDbgSuspendTraceI:
 788              	.LVL29:
 789              	.LFB331:
 790              		.loc 1 215 40 is_stmt 1 view -0
 791              		.cfi_startproc
 792              		@ args = 0, pretend = 0, frame = 0
ARM GAS  /tmp/cczAUC5b.s 			page 15


 793              		@ frame_needed = 0, uses_anonymous_args = 0
 794              		@ link register save eliminated.
 795              		.loc 1 217 21 view .LVU215
 796              		.loc 1 219 3 view .LVU216
 797              		.loc 1 219 33 is_stmt 0 view .LVU217
 798 0190 024A     		ldr	r2, .L51
 799 0192 138E     		ldrh	r3, [r2, #48]
 800 0194 1843     		orrs	r0, r0, r3
 801              	.LVL30:
 802              		.loc 1 219 33 view .LVU218
 803 0196 1086     		strh	r0, [r2, #48]	@ movhi
 804              		.loc 1 220 1 view .LVU219
 805 0198 7047     		bx	lr
 806              	.L52:
 807 019a 00BF     		.align	2
 808              	.L51:
 809 019c 00000000 		.word	ch
 810              		.cfi_endproc
 811              	.LFE331:
 812              		.size	chDbgSuspendTraceI, .-chDbgSuspendTraceI
 813              		.align	1
 814              		.p2align 4,,15
 815              		.global	chDbgSuspendTrace
 816              		.syntax unified
 817              		.thumb
 818              		.thumb_func
 819              		.fpu fpv4-sp-d16
 820              		.type	chDbgSuspendTrace, %function
 821              	chDbgSuspendTrace:
 822              	.LVL31:
 823              	.LFB332:
 824              		.loc 1 229 39 is_stmt 1 view -0
 825              		.cfi_startproc
 826              		@ args = 0, pretend = 0, frame = 0
 827              		@ frame_needed = 0, uses_anonymous_args = 0
 828              		@ link register save eliminated.
 829              		.loc 1 231 3 view .LVU221
 830              	.LBB174:
 831              	.LBI174:
 832              		.loc 6 353 20 view .LVU222
 833              	.LBE174:
 834              		.loc 6 355 3 view .LVU223
 835              	.LBB179:
 836              	.LBB175:
 837              	.LBI175:
 838              		.loc 4 669 27 view .LVU224
 839              	.LBE175:
 840              	.LBE179:
 841              		.loc 4 677 3 view .LVU225
 842              	.LBB180:
 843              	.LBB178:
 844              	.LBB176:
 845              	.LBI176:
 846              		.loc 5 491 27 view .LVU226
 847              	.LBB177:
 848              		.loc 5 493 3 view .LVU227
 849 01a0 2023     		movs	r3, #32
ARM GAS  /tmp/cczAUC5b.s 			page 16


 850              		.syntax unified
 851              	@ 493 "../../../external/ChibiOS/os/common/ext/ARM/CMSIS/Core/Include/cmsis_gcc.h" 1
 852 01a2 83F31188 		MSR basepri, r3
 853              	@ 0 "" 2
 854              	.LVL32:
 855              		.loc 5 493 3 is_stmt 0 view .LVU228
 856              		.thumb
 857              		.syntax unified
 858              	.LBE177:
 859              	.LBE176:
 860              	.LBE178:
 861              	.LBE180:
 862              		.loc 6 356 34 is_stmt 1 view .LVU229
 863              		.loc 6 357 20 view .LVU230
 864              		.loc 1 232 3 view .LVU231
 865              	.LBB181:
 866              	.LBI181:
 867              		.loc 1 215 6 view .LVU232
 868              	.LBB182:
 869              		.loc 1 217 21 view .LVU233
 870              		.loc 1 219 3 view .LVU234
 871              		.loc 1 219 33 is_stmt 0 view .LVU235
 872 01a6 044B     		ldr	r3, .L54
 873              	.LBE182:
 874              	.LBE181:
 875              	.LBB184:
 876              	.LBB185:
 877              	.LBB186:
 878              	.LBB187:
 879              	.LBB188:
 880              		.loc 5 493 3 view .LVU236
 881 01a8 0022     		movs	r2, #0
 882              	.LBE188:
 883              	.LBE187:
 884              	.LBE186:
 885              	.LBE185:
 886              	.LBE184:
 887              	.LBB195:
 888              	.LBB183:
 889              		.loc 1 219 33 view .LVU237
 890 01aa 198E     		ldrh	r1, [r3, #48]
 891 01ac 0843     		orrs	r0, r0, r1
 892              	.LVL33:
 893              		.loc 1 219 33 view .LVU238
 894 01ae 1886     		strh	r0, [r3, #48]	@ movhi
 895              	.LVL34:
 896              		.loc 1 219 33 view .LVU239
 897              	.LBE183:
 898              	.LBE195:
 899              		.loc 1 233 3 is_stmt 1 view .LVU240
 900              	.LBB196:
 901              	.LBI184:
 902              		.loc 6 365 20 view .LVU241
 903              	.LBB193:
 904              		.loc 6 367 22 view .LVU242
 905              		.loc 6 368 33 view .LVU243
 906              		.loc 6 374 3 view .LVU244
ARM GAS  /tmp/cczAUC5b.s 			page 17


 907              		.loc 6 374 3 view .LVU245
 908              		.loc 6 378 3 view .LVU246
 909              	.LBB191:
 910              	.LBI186:
 911              		.loc 4 693 27 view .LVU247
 912              	.LBE191:
 913              	.LBE193:
 914              	.LBE196:
 915              		.loc 4 696 3 view .LVU248
 916              	.LBB197:
 917              	.LBB194:
 918              	.LBB192:
 919              	.LBB190:
 920              	.LBI187:
 921              		.loc 5 491 27 view .LVU249
 922              	.LBB189:
 923              		.loc 5 493 3 view .LVU250
 924              		.syntax unified
 925              	@ 493 "../../../external/ChibiOS/os/common/ext/ARM/CMSIS/Core/Include/cmsis_gcc.h" 1
 926 01b0 82F31188 		MSR basepri, r2
 927              	@ 0 "" 2
 928              	.LVL35:
 929              		.loc 5 493 3 is_stmt 0 view .LVU251
 930              		.thumb
 931              		.syntax unified
 932              	.LBE189:
 933              	.LBE190:
 934              	.LBE192:
 935              	.LBE194:
 936              	.LBE197:
 937              		.loc 1 234 1 view .LVU252
 938 01b4 7047     		bx	lr
 939              	.L55:
 940 01b6 00BF     		.align	2
 941              	.L54:
 942 01b8 00000000 		.word	ch
 943              		.cfi_endproc
 944              	.LFE332:
 945              		.size	chDbgSuspendTrace, .-chDbgSuspendTrace
 946              		.align	1
 947 01bc AFF30080 		.p2align 4,,15
 948              		.global	chDbgResumeTraceI
 949              		.syntax unified
 950              		.thumb
 951              		.thumb_func
 952              		.fpu fpv4-sp-d16
 953              		.type	chDbgResumeTraceI, %function
 954              	chDbgResumeTraceI:
 955              	.LVL36:
 956              	.LFB333:
 957              		.loc 1 243 39 is_stmt 1 view -0
 958              		.cfi_startproc
 959              		@ args = 0, pretend = 0, frame = 0
 960              		@ frame_needed = 0, uses_anonymous_args = 0
 961              		@ link register save eliminated.
 962              		.loc 1 245 21 view .LVU254
 963              		.loc 1 247 3 view .LVU255
ARM GAS  /tmp/cczAUC5b.s 			page 18


 964              		.loc 1 247 33 is_stmt 0 view .LVU256
 965 01c0 024A     		ldr	r2, .L57
 966 01c2 138E     		ldrh	r3, [r2, #48]
 967 01c4 23EA0000 		bic	r0, r3, r0
 968              	.LVL37:
 969              		.loc 1 247 33 view .LVU257
 970 01c8 1086     		strh	r0, [r2, #48]	@ movhi
 971              		.loc 1 248 1 view .LVU258
 972 01ca 7047     		bx	lr
 973              	.L58:
 974              		.align	2
 975              	.L57:
 976 01cc 00000000 		.word	ch
 977              		.cfi_endproc
 978              	.LFE333:
 979              		.size	chDbgResumeTraceI, .-chDbgResumeTraceI
 980              		.align	1
 981              		.p2align 4,,15
 982              		.global	chDbgResumeTrace
 983              		.syntax unified
 984              		.thumb
 985              		.thumb_func
 986              		.fpu fpv4-sp-d16
 987              		.type	chDbgResumeTrace, %function
 988              	chDbgResumeTrace:
 989              	.LVL38:
 990              	.LFB334:
 991              		.loc 1 257 38 is_stmt 1 view -0
 992              		.cfi_startproc
 993              		@ args = 0, pretend = 0, frame = 0
 994              		@ frame_needed = 0, uses_anonymous_args = 0
 995              		@ link register save eliminated.
 996              		.loc 1 259 3 view .LVU260
 997              	.LBB198:
 998              	.LBI198:
 999              		.loc 6 353 20 view .LVU261
 1000              	.LBE198:
 1001              		.loc 6 355 3 view .LVU262
 1002              	.LBB203:
 1003              	.LBB199:
 1004              	.LBI199:
 1005              		.loc 4 669 27 view .LVU263
 1006              	.LBE199:
 1007              	.LBE203:
 1008              		.loc 4 677 3 view .LVU264
 1009              	.LBB204:
 1010              	.LBB202:
 1011              	.LBB200:
 1012              	.LBI200:
 1013              		.loc 5 491 27 view .LVU265
 1014              	.LBB201:
 1015              		.loc 5 493 3 view .LVU266
 1016 01d0 2023     		movs	r3, #32
 1017              		.syntax unified
 1018              	@ 493 "../../../external/ChibiOS/os/common/ext/ARM/CMSIS/Core/Include/cmsis_gcc.h" 1
 1019 01d2 83F31188 		MSR basepri, r3
 1020              	@ 0 "" 2
ARM GAS  /tmp/cczAUC5b.s 			page 19


 1021              	.LVL39:
 1022              		.loc 5 493 3 is_stmt 0 view .LVU267
 1023              		.thumb
 1024              		.syntax unified
 1025              	.LBE201:
 1026              	.LBE200:
 1027              	.LBE202:
 1028              	.LBE204:
 1029              		.loc 6 356 34 is_stmt 1 view .LVU268
 1030              		.loc 6 357 20 view .LVU269
 1031              		.loc 1 260 3 view .LVU270
 1032              	.LBB205:
 1033              	.LBI205:
 1034              		.loc 1 243 6 view .LVU271
 1035              	.LBB206:
 1036              		.loc 1 245 21 view .LVU272
 1037              		.loc 1 247 3 view .LVU273
 1038              		.loc 1 247 33 is_stmt 0 view .LVU274
 1039 01d6 044A     		ldr	r2, .L60
 1040              	.LBE206:
 1041              	.LBE205:
 1042              	.LBB208:
 1043              	.LBB209:
 1044              	.LBB210:
 1045              	.LBB211:
 1046              	.LBB212:
 1047              		.loc 5 493 3 view .LVU275
 1048 01d8 0021     		movs	r1, #0
 1049              	.LBE212:
 1050              	.LBE211:
 1051              	.LBE210:
 1052              	.LBE209:
 1053              	.LBE208:
 1054              	.LBB219:
 1055              	.LBB207:
 1056              		.loc 1 247 33 view .LVU276
 1057 01da 138E     		ldrh	r3, [r2, #48]
 1058 01dc 23EA0003 		bic	r3, r3, r0
 1059 01e0 1386     		strh	r3, [r2, #48]	@ movhi
 1060              	.LVL40:
 1061              		.loc 1 247 33 view .LVU277
 1062              	.LBE207:
 1063              	.LBE219:
 1064              		.loc 1 261 3 is_stmt 1 view .LVU278
 1065              	.LBB220:
 1066              	.LBI208:
 1067              		.loc 6 365 20 view .LVU279
 1068              	.LBB217:
 1069              		.loc 6 367 22 view .LVU280
 1070              		.loc 6 368 33 view .LVU281
 1071              		.loc 6 374 3 view .LVU282
 1072              		.loc 6 374 3 view .LVU283
 1073              		.loc 6 378 3 view .LVU284
 1074              	.LBB215:
 1075              	.LBI210:
 1076              		.loc 4 693 27 view .LVU285
 1077              	.LBE215:
ARM GAS  /tmp/cczAUC5b.s 			page 20


 1078              	.LBE217:
 1079              	.LBE220:
 1080              		.loc 4 696 3 view .LVU286
 1081              	.LBB221:
 1082              	.LBB218:
 1083              	.LBB216:
 1084              	.LBB214:
 1085              	.LBI211:
 1086              		.loc 5 491 27 view .LVU287
 1087              	.LBB213:
 1088              		.loc 5 493 3 view .LVU288
 1089              		.syntax unified
 1090              	@ 493 "../../../external/ChibiOS/os/common/ext/ARM/CMSIS/Core/Include/cmsis_gcc.h" 1
 1091 01e2 81F31188 		MSR basepri, r1
 1092              	@ 0 "" 2
 1093              	.LVL41:
 1094              		.loc 5 493 3 is_stmt 0 view .LVU289
 1095              		.thumb
 1096              		.syntax unified
 1097              	.LBE213:
 1098              	.LBE214:
 1099              	.LBE216:
 1100              	.LBE218:
 1101              	.LBE221:
 1102              		.loc 1 262 1 view .LVU290
 1103 01e6 7047     		bx	lr
 1104              	.L61:
 1105              		.align	2
 1106              	.L60:
 1107 01e8 00000000 		.word	ch
 1108              		.cfi_endproc
 1109              	.LFE334:
 1110              		.size	chDbgResumeTrace, .-chDbgResumeTrace
 1111              	.Letext0:
 1112              		.file 7 "/home/nicolas/arm/gcc-arm-none-eabi-8-2019-q3-update/lib/gcc/arm-none-eabi/8.3.1/include/
 1113              		.file 8 "/home/nicolas/arm/gcc-arm-none-eabi-8-2019-q3-update/arm-none-eabi/include/machine/_defau
 1114              		.file 9 "/home/nicolas/arm/gcc-arm-none-eabi-8-2019-q3-update/arm-none-eabi/include/sys/_stdint.h"
 1115              		.file 10 "../../../external/ChibiOS/os/common/ports/ARMCMx/compilers/GCC/chtypes.h"
 1116              		.file 11 "../../../external/ChibiOS/os/rt/include/chsystypes.h"
 1117              		.file 12 "../../../external/ChibiOS/os/rt/include/chschd.h"
 1118              		.file 13 "../../../external/ChibiOS/os/rt/include/chtime.h"
 1119              		.file 14 "../../../external/ChibiOS/os/common/ext/ARM/CMSIS/Core/Include/core_cm7.h"
 1120              		.file 15 "../../../external/ChibiOS/os/common/ext/ST/STM32H7xx/system_stm32h7xx.h"
 1121              		.file 16 "../../../external/ChibiOS/os/common/ports/ARMCMx/chcore.h"
 1122              		.file 17 "../../../external/ChibiOS/os/rt/include/chtrace.h"
 1123              		.file 18 "../../../external/ChibiOS/os/rt/include/chtm.h"
 1124              		.file 19 "../../../external/ChibiOS/os/rt/include/chsem.h"
 1125              		.file 20 "../../../external/ChibiOS/os/rt/include/chmtx.h"
 1126              		.file 21 "../../../external/ChibiOS/os/rt/include/chregistry.h"
 1127              		.file 22 "../../../external/ChibiOS/os/oslib/include/chmemcore.h"
 1128              		.file 23 "../../../external/ChibiOS/os/oslib/include/chmempools.h"
 1129              		.file 24 "../../../external/ChibiOS/os/oslib/include/chfactory.h"