ARM GAS  /tmp/cc59OcYr.s 			page 1


   1              		.cpu cortex-m7
   2              		.eabi_attribute 27, 1
   3              		.eabi_attribute 28, 1
   4              		.eabi_attribute 20, 1
   5              		.eabi_attribute 21, 1
   6              		.eabi_attribute 23, 3
   7              		.eabi_attribute 24, 1
   8              		.eabi_attribute 25, 1
   9              		.eabi_attribute 26, 1
  10              		.eabi_attribute 30, 2
  11              		.eabi_attribute 34, 1
  12              		.eabi_attribute 18, 4
  13              		.file	"chvt.c"
  14              		.text
  15              	.Ltext0:
  16              		.cfi_sections	.debug_frame
  17              		.align	1
  18              		.p2align 4,,15
  19              		.global	_vt_init
  20              		.arch armv7e-m
  21              		.syntax unified
  22              		.thumb
  23              		.thumb_func
  24              		.fpu fpv4-sp-d16
  25              		.type	_vt_init, %function
  26              	_vt_init:
  27              	.LFB324:
  28              		.file 1 "../../../external/ChibiOS/os/rt/src/chvt.c"
  29              		.loc 1 130 21 view -0
  30              		.cfi_startproc
  31              		@ args = 0, pretend = 0, frame = 0
  32              		@ frame_needed = 0, uses_anonymous_args = 0
  33              		@ link register save eliminated.
  34              		.loc 1 132 3 view .LVU1
  35              		.loc 1 132 18 is_stmt 0 view .LVU2
  36 0000 054B     		ldr	r3, .L3
  37              		.loc 1 134 19 view .LVU3
  38 0002 4FF0FF30 		mov	r0, #-1
  39              		.loc 1 138 22 view .LVU4
  40 0006 0021     		movs	r1, #0
  41              		.loc 1 132 18 view .LVU5
  42 0008 03F11C02 		add	r2, r3, #28
  43              		.loc 1 138 22 view .LVU6
  44 000c C3E90901 		strd	r0, r1, [r3, #36]
  45              		.loc 1 133 18 view .LVU7
  46 0010 C3E90722 		strd	r2, r2, [r3, #28]
  47              		.loc 1 134 3 is_stmt 1 view .LVU8
  48              		.loc 1 138 3 view .LVU9
  49              		.loc 1 140 1 is_stmt 0 view .LVU10
  50 0014 7047     		bx	lr
  51              	.L4:
  52 0016 00BF     		.align	2
  53              	.L3:
  54 0018 00000000 		.word	ch
  55              		.cfi_endproc
  56              	.LFE324:
  57              		.size	_vt_init, .-_vt_init
ARM GAS  /tmp/cc59OcYr.s 			page 2


  58              		.align	1
  59 001c AFF30080 		.p2align 4,,15
  60              		.global	chVTDoSetI
  61              		.syntax unified
  62              		.thumb
  63              		.thumb_func
  64              		.fpu fpv4-sp-d16
  65              		.type	chVTDoSetI, %function
  66              	chVTDoSetI:
  67              	.LVL0:
  68              	.LFB325:
  69              		.loc 1 165 45 is_stmt 1 view -0
  70              		.cfi_startproc
  71              		@ args = 0, pretend = 0, frame = 0
  72              		@ frame_needed = 0, uses_anonymous_args = 0
  73              		.loc 1 166 3 view .LVU12
  74              		.loc 1 167 3 view .LVU13
  75              		.loc 1 168 3 view .LVU14
  76              		.loc 1 170 21 view .LVU15
  77              		.loc 1 171 3 view .LVU16
  78              		.loc 1 171 3 view .LVU17
  79              		.loc 1 173 3 view .LVU18
  80              		.loc 1 165 45 is_stmt 0 view .LVU19
  81 0020 2DE9F041 		push	{r4, r5, r6, r7, r8, lr}
  82              		.cfi_def_cfa_offset 24
  83              		.cfi_offset 4, -24
  84              		.cfi_offset 5, -20
  85              		.cfi_offset 6, -16
  86              		.cfi_offset 7, -12
  87              		.cfi_offset 8, -8
  88              		.cfi_offset 14, -4
  89              	.LBB83:
  90              		.loc 1 188 9 view .LVU20
  91 0024 2D4F     		ldr	r7, .L23
  92              	.LBE83:
  93              		.loc 1 165 45 view .LVU21
  94 0026 0C46     		mov	r4, r1
  95 0028 0646     		mov	r6, r0
  96              		.loc 1 174 13 view .LVU22
  97 002a C0E90323 		strd	r2, r3, [r0, #12]
  98              	.LBB107:
  99              		.loc 1 178 5 is_stmt 1 view .LVU23
 100              	.LBB84:
 101              	.LBI84:
 102              		.file 2 "../../../external/ChibiOS/os/rt/include/chvt.h"
 103              		.loc 2 116 25 view .LVU24
 104              	.LBE84:
 105              	.LBE107:
 106              		.loc 2 121 3 view .LVU25
 107              	.LBB108:
 108              	.LBB87:
 109              	.LBB85:
 110              	.LBI85:
 111              		.file 3 "../../../external/ChibiOS/os/common/ports/ARMCMx/chcore_timer.h"
 112              		.loc 3 114 25 view .LVU26
 113              	.LBB86:
 114              		.loc 3 116 3 view .LVU27
ARM GAS  /tmp/cc59OcYr.s 			page 3


 115              		.loc 3 116 10 is_stmt 0 view .LVU28
 116 002e FFF7FEFF 		bl	stGetCounter
 117              	.LVL1:
 118              		.loc 3 116 10 view .LVU29
 119              	.LBE86:
 120              	.LBE85:
 121              	.LBE87:
 122              		.loc 1 179 5 is_stmt 1 view .LVU30
 123              		.loc 1 183 5 view .LVU31
 124              		.loc 1 188 9 is_stmt 0 view .LVU32
 125 0032 BE46     		mov	lr, r7
 126 0034 022C     		cmp	r4, #2
 127 0036 5EF81C2F 		ldr	r2, [lr, #28]!
 128 003a 38BF     		it	cc
 129 003c 0224     		movcc	r4, #2
 130              	.LVL2:
 131              		.loc 1 188 5 is_stmt 1 view .LVU33
 132              		.loc 1 188 8 is_stmt 0 view .LVU34
 133 003e 7245     		cmp	r2, lr
 134 0040 3DD0     		beq	.L21
 135              		.loc 1 214 5 is_stmt 1 view .LVU35
 136              		.loc 1 214 16 is_stmt 0 view .LVU36
 137 0042 D7F82880 		ldr	r8, [r7, #40]
 138              	.LVL3:
 139              	.LBB88:
 140              	.LBI88:
 141              		.file 4 "../../../external/ChibiOS/os/rt/include/chtime.h"
 142              		.loc 4 459 29 is_stmt 1 view .LVU37
 143              	.LBB89:
 144              		.loc 4 463 3 view .LVU38
 145 0046 9368     		ldr	r3, [r2, #8]
 146              		.loc 4 463 10 is_stmt 0 view .LVU39
 147 0048 A0EB0805 		sub	r5, r0, r8
 148              	.LVL4:
 149              		.loc 4 463 10 view .LVU40
 150              	.LBE89:
 151              	.LBE88:
 152              		.loc 1 215 5 is_stmt 1 view .LVU41
 153 004c 14EB050C 		adds	ip, r4, r5
 154              		.loc 1 215 14 is_stmt 0 view .LVU42
 155 0050 6446     		mov	r4, ip
 156              	.LVL5:
 157              		.loc 1 219 5 is_stmt 1 view .LVU43
 158              		.loc 1 219 8 is_stmt 0 view .LVU44
 159 0052 16D3     		bcc	.L9
 160              	.LVL6:
 161              	.LBB90:
 162              	.LBB91:
 163              		.loc 1 105 9 view .LVU45
 164 0054 9D42     		cmp	r5, r3
 165 0056 3DD9     		bls	.L10
 166 0058 1146     		mov	r1, r2
 167              		.loc 1 107 16 view .LVU46
 168 005a 0024     		movs	r4, #0
 169              	.LVL7:
 170              	.L11:
 171              		.loc 1 106 5 is_stmt 1 view .LVU47
ARM GAS  /tmp/cc59OcYr.s 			page 4


 172              		.loc 1 107 16 is_stmt 0 view .LVU48
 173 005c 8C60     		str	r4, [r1, #8]
 174              		.loc 1 106 15 view .LVU49
 175 005e ED1A     		subs	r5, r5, r3
 176              	.LVL8:
 177              		.loc 1 107 5 is_stmt 1 view .LVU50
 178              		.loc 1 108 5 view .LVU51
 179              		.loc 1 108 16 is_stmt 0 view .LVU52
 180 0060 0968     		ldr	r1, [r1]
 181              	.LVL9:
 182              		.loc 1 105 13 view .LVU53
 183 0062 8B68     		ldr	r3, [r1, #8]
 184              		.loc 1 105 9 view .LVU54
 185 0064 AB42     		cmp	r3, r5
 186 0066 F9D3     		bcc	.L11
 187              		.loc 1 111 3 is_stmt 1 view .LVU55
 188              		.loc 1 111 35 is_stmt 0 view .LVU56
 189 0068 08EB0504 		add	r4, r8, r5
 190              		.loc 1 114 6 view .LVU57
 191 006c 7145     		cmp	r1, lr
 192              		.loc 1 111 18 view .LVU58
 193 006e BC62     		str	r4, [r7, #40]
 194              		.loc 1 114 3 is_stmt 1 view .LVU59
 195              		.loc 1 114 6 is_stmt 0 view .LVU60
 196 0070 01D0     		beq	.L12
 197              	.L16:
 198              		.loc 1 115 5 is_stmt 1 view .LVU61
 199              		.loc 1 115 16 is_stmt 0 view .LVU62
 200 0072 5B1B     		subs	r3, r3, r5
 201 0074 8B60     		str	r3, [r1, #8]
 202              	.L12:
 203              	.LVL10:
 204              		.loc 1 115 16 view .LVU63
 205              	.LBE91:
 206              	.LBE90:
 207              		.loc 1 221 7 is_stmt 1 view .LVU64
 208              		.loc 1 221 13 is_stmt 0 view .LVU65
 209 0076 A8EB0000 		sub	r0, r8, r0
 210              	.LVL11:
 211              		.loc 1 221 13 view .LVU66
 212 007a 9368     		ldr	r3, [r2, #8]
 213 007c 0CEB0004 		add	r4, ip, r0
 214              	.LVL12:
 215              		.loc 1 221 13 view .LVU67
 216 0080 01E0     		b	.L13
 217              	.LVL13:
 218              	.L9:
 219              		.loc 1 223 10 is_stmt 1 view .LVU68
 220              		.loc 1 223 13 is_stmt 0 view .LVU69
 221 0082 9C45     		cmp	ip, r3
 222 0084 14D3     		bcc	.L22
 223              	.LVL14:
 224              	.L13:
 225              		.loc 1 223 13 view .LVU70
 226              	.LBE108:
 227              		.loc 1 245 3 is_stmt 1 view .LVU71
 228              		.loc 1 246 3 view .LVU72
ARM GAS  /tmp/cc59OcYr.s 			page 5


 229              		.loc 1 246 9 is_stmt 0 view .LVU73
 230 0086 9C42     		cmp	r4, r3
 231 0088 04D9     		bls	.L14
 232              	.LVL15:
 233              	.L15:
 234              		.loc 1 248 5 is_stmt 1 view .LVU74
 235              		.loc 1 248 5 view .LVU75
 236              		.loc 1 250 5 view .LVU76
 237              		.loc 1 251 7 is_stmt 0 view .LVU77
 238 008a 1268     		ldr	r2, [r2]
 239              	.LVL16:
 240              		.loc 1 250 11 view .LVU78
 241 008c E41A     		subs	r4, r4, r3
 242              	.LVL17:
 243              		.loc 1 251 5 is_stmt 1 view .LVU79
 244              		.loc 1 246 11 is_stmt 0 view .LVU80
 245 008e 9368     		ldr	r3, [r2, #8]
 246              		.loc 1 246 9 view .LVU81
 247 0090 A342     		cmp	r3, r4
 248 0092 FAD3     		bcc	.L15
 249              	.LVL18:
 250              	.L14:
 251              		.loc 1 255 3 is_stmt 1 view .LVU82
 252              		.loc 1 256 24 is_stmt 0 view .LVU83
 253 0094 5368     		ldr	r3, [r2, #4]
 254              		.loc 1 266 15 view .LVU84
 255 0096 4FF0FF31 		mov	r1, #-1
 256              		.loc 1 256 13 view .LVU85
 257 009a C6E90023 		strd	r2, r3, [r6]
 258              		.loc 1 257 3 is_stmt 1 view .LVU86
 259              		.loc 1 257 19 is_stmt 0 view .LVU87
 260 009e 1E60     		str	r6, [r3]
 261              		.loc 1 258 3 is_stmt 1 view .LVU88
 262              		.loc 1 258 11 is_stmt 0 view .LVU89
 263 00a0 5660     		str	r6, [r2, #4]
 264              		.loc 1 259 3 is_stmt 1 view .LVU90
 265              		.loc 1 259 14 is_stmt 0 view .LVU91
 266 00a2 B460     		str	r4, [r6, #8]
 267              		.loc 1 262 3 is_stmt 1 view .LVU92
 268              		.loc 1 262 12 is_stmt 0 view .LVU93
 269 00a4 9368     		ldr	r3, [r2, #8]
 270 00a6 1C1B     		subs	r4, r3, r4
 271              	.LVL19:
 272              		.loc 1 262 12 view .LVU94
 273 00a8 9460     		str	r4, [r2, #8]
 274              	.LVL20:
 275              		.loc 1 266 3 is_stmt 1 view .LVU95
 276              		.loc 1 266 15 is_stmt 0 view .LVU96
 277 00aa 7962     		str	r1, [r7, #36]
 278              		.loc 1 267 1 view .LVU97
 279 00ac BDE8F081 		pop	{r4, r5, r6, r7, r8, pc}
 280              	.LVL21:
 281              	.L22:
 282              	.LBB109:
 283              	.LBB93:
 284              		.loc 1 224 7 is_stmt 1 view .LVU98
 285              		.loc 1 228 7 view .LVU99
ARM GAS  /tmp/cc59OcYr.s 			page 6


 286              		.loc 1 235 7 view .LVU100
 287              	.LBB94:
 288              	.LBI94:
 289              		.loc 4 440 25 view .LVU101
 290              	.LBB95:
 291              		.loc 4 447 3 view .LVU102
 292              		.loc 4 447 3 is_stmt 0 view .LVU103
 293              	.LBE95:
 294              	.LBE94:
 295              	.LBB96:
 296              	.LBI96:
 297              		.loc 3 102 20 is_stmt 1 view .LVU104
 298              	.LBB97:
 299              		.loc 3 104 3 view .LVU105
 300 00b0 08EB0C00 		add	r0, r8, ip
 301              	.LVL22:
 302              		.loc 3 104 3 is_stmt 0 view .LVU106
 303 00b4 FFF7FEFF 		bl	stSetAlarm
 304              	.LVL23:
 305              		.loc 3 104 3 view .LVU107
 306 00b8 FA69     		ldr	r2, [r7, #28]
 307 00ba 9368     		ldr	r3, [r2, #8]
 308 00bc E3E7     		b	.L13
 309              	.LVL24:
 310              	.L21:
 311              		.loc 3 104 3 view .LVU108
 312              	.LBE97:
 313              	.LBE96:
 314              	.LBE93:
 315              		.loc 1 192 7 is_stmt 1 view .LVU109
 316              		.loc 1 192 22 is_stmt 0 view .LVU110
 317 00be B862     		str	r0, [r7, #40]
 318              		.loc 1 193 7 is_stmt 1 view .LVU111
 319              	.LBB98:
 320              	.LBB99:
 321              		.loc 3 82 3 is_stmt 0 view .LVU112
 322 00c0 2044     		add	r0, r0, r4
 323              	.LVL25:
 324              		.loc 3 82 3 view .LVU113
 325              	.LBE99:
 326              	.LBE98:
 327              		.loc 1 194 18 view .LVU114
 328 00c2 C7E90766 		strd	r6, r6, [r7, #28]
 329              		.loc 1 195 7 is_stmt 1 view .LVU115
 330              		.loc 1 196 17 is_stmt 0 view .LVU116
 331 00c6 C6E90022 		strd	r2, r2, [r6]
 332              		.loc 1 197 7 is_stmt 1 view .LVU117
 333              		.loc 1 197 18 is_stmt 0 view .LVU118
 334 00ca B460     		str	r4, [r6, #8]
 335              		.loc 1 207 7 is_stmt 1 view .LVU119
 336              	.LVL26:
 337              	.LBB102:
 338              	.LBI102:
 339              		.loc 4 440 25 view .LVU120
 340              	.LBB103:
 341              		.loc 4 447 3 view .LVU121
 342              		.loc 4 447 3 is_stmt 0 view .LVU122
ARM GAS  /tmp/cc59OcYr.s 			page 7


 343              	.LBE103:
 344              	.LBE102:
 345              	.LBB104:
 346              	.LBI98:
 347              		.loc 3 80 20 is_stmt 1 view .LVU123
 348              	.LBB100:
 349              		.loc 3 82 3 view .LVU124
 350              	.LBE100:
 351              	.LBE104:
 352              	.LBE109:
 353              		.loc 1 267 1 is_stmt 0 view .LVU125
 354 00cc BDE8F041 		pop	{r4, r5, r6, r7, r8, lr}
 355              		.cfi_remember_state
 356              		.cfi_restore 14
 357              		.cfi_restore 8
 358              		.cfi_restore 7
 359              		.cfi_restore 6
 360              		.cfi_restore 5
 361              		.cfi_restore 4
 362              		.cfi_def_cfa_offset 0
 363              	.LVL27:
 364              	.LBB110:
 365              	.LBB105:
 366              	.LBB101:
 367              		.loc 3 82 3 view .LVU126
 368 00d0 FFF7FEBF 		b	stStartAlarm
 369              	.LVL28:
 370              	.L10:
 371              		.cfi_restore_state
 372              		.loc 3 82 3 view .LVU127
 373              	.LBE101:
 374              	.LBE105:
 375              	.LBB106:
 376              	.LBB92:
 377              		.loc 1 111 3 is_stmt 1 view .LVU128
 378              		.loc 1 111 18 is_stmt 0 view .LVU129
 379 00d4 B862     		str	r0, [r7, #40]
 380              		.loc 1 114 3 is_stmt 1 view .LVU130
 381              		.loc 1 111 18 is_stmt 0 view .LVU131
 382 00d6 1146     		mov	r1, r2
 383 00d8 CBE7     		b	.L16
 384              	.L24:
 385 00da 00BF     		.align	2
 386              	.L23:
 387 00dc 00000000 		.word	ch
 388              	.LBE92:
 389              	.LBE106:
 390              	.LBE110:
 391              		.cfi_endproc
 392              	.LFE325:
 393              		.size	chVTDoSetI, .-chVTDoSetI
 394              		.align	1
 395              		.p2align 4,,15
 396              		.global	chVTDoResetI
 397              		.syntax unified
 398              		.thumb
 399              		.thumb_func
ARM GAS  /tmp/cc59OcYr.s 			page 8


 400              		.fpu fpv4-sp-d16
 401              		.type	chVTDoResetI, %function
 402              	chVTDoResetI:
 403              	.LVL29:
 404              	.LFB326:
 405              		.loc 1 277 41 is_stmt 1 view -0
 406              		.cfi_startproc
 407              		@ args = 0, pretend = 0, frame = 0
 408              		@ frame_needed = 0, uses_anonymous_args = 0
 409              		.loc 1 278 3 view .LVU133
 410              		.loc 1 280 21 view .LVU134
 411              		.loc 1 281 3 view .LVU135
 412              		.loc 1 281 3 view .LVU136
 413              		.loc 1 282 3 view .LVU137
 414              		.loc 1 282 3 view .LVU138
 415              		.loc 1 298 3 view .LVU139
 416              		.loc 1 302 3 view .LVU140
 417              		.loc 1 277 41 is_stmt 0 view .LVU141
 418 00e0 38B5     		push	{r3, r4, r5, lr}
 419              		.cfi_def_cfa_offset 16
 420              		.cfi_offset 3, -16
 421              		.cfi_offset 4, -12
 422              		.cfi_offset 5, -8
 423              		.cfi_offset 14, -4
 424              		.loc 1 302 8 view .LVU142
 425 00e2 1B4C     		ldr	r4, .L34
 426 00e4 0368     		ldr	r3, [r0]
 427              		.loc 1 302 6 view .LVU143
 428 00e6 E269     		ldr	r2, [r4, #28]
 429 00e8 8242     		cmp	r2, r0
 430 00ea 0DD0     		beq	.L26
 431              		.loc 1 304 5 is_stmt 1 view .LVU144
 432              		.loc 1 304 8 is_stmt 0 view .LVU145
 433 00ec 4268     		ldr	r2, [r0, #4]
 434              		.loc 1 309 8 view .LVU146
 435 00ee 1C34     		adds	r4, r4, #28
 436              		.loc 1 306 15 view .LVU147
 437 00f0 0021     		movs	r1, #0
 438              		.loc 1 304 21 view .LVU148
 439 00f2 1360     		str	r3, [r2]
 440              		.loc 1 305 5 is_stmt 1 view .LVU149
 441              		.loc 1 305 8 is_stmt 0 view .LVU150
 442 00f4 0368     		ldr	r3, [r0]
 443              		.loc 1 309 8 view .LVU151
 444 00f6 A342     		cmp	r3, r4
 445              		.loc 1 305 21 view .LVU152
 446 00f8 5A60     		str	r2, [r3, #4]
 447              		.loc 1 306 5 is_stmt 1 view .LVU153
 448              		.loc 1 306 15 is_stmt 0 view .LVU154
 449 00fa C160     		str	r1, [r0, #12]
 450              		.loc 1 309 5 is_stmt 1 view .LVU155
 451              		.loc 1 309 8 is_stmt 0 view .LVU156
 452 00fc 03D0     		beq	.L25
 453              		.loc 1 310 7 is_stmt 1 view .LVU157
 454              		.loc 1 310 24 is_stmt 0 view .LVU158
 455 00fe 8168     		ldr	r1, [r0, #8]
 456 0100 9A68     		ldr	r2, [r3, #8]
ARM GAS  /tmp/cc59OcYr.s 			page 9


 457 0102 0A44     		add	r2, r2, r1
 458 0104 9A60     		str	r2, [r3, #8]
 459              	.LVL30:
 460              	.L25:
 461              		.loc 1 364 1 view .LVU159
 462 0106 38BD     		pop	{r3, r4, r5, pc}
 463              	.LVL31:
 464              	.L26:
 465              		.loc 1 316 3 is_stmt 1 view .LVU160
 466              		.loc 1 316 14 is_stmt 0 view .LVU161
 467 0108 2146     		mov	r1, r4
 468              		.loc 1 318 13 view .LVU162
 469 010a 0020     		movs	r0, #0
 470              	.LVL32:
 471              		.loc 1 316 14 view .LVU163
 472 010c 41F81C3F 		str	r3, [r1, #28]!
 473              		.loc 1 317 3 is_stmt 1 view .LVU164
 474              		.loc 1 321 6 is_stmt 0 view .LVU165
 475 0110 8B42     		cmp	r3, r1
 476              		.loc 1 317 20 view .LVU166
 477 0112 5960     		str	r1, [r3, #4]
 478              		.loc 1 318 3 is_stmt 1 view .LVU167
 479              		.loc 1 318 13 is_stmt 0 view .LVU168
 480 0114 D060     		str	r0, [r2, #12]
 481              		.loc 1 321 3 is_stmt 1 view .LVU169
 482              		.loc 1 321 6 is_stmt 0 view .LVU170
 483 0116 16D0     		beq	.L33
 484              		.loc 1 328 3 is_stmt 1 view .LVU171
 485              		.loc 1 328 21 is_stmt 0 view .LVU172
 486 0118 9168     		ldr	r1, [r2, #8]
 487 011a 9A68     		ldr	r2, [r3, #8]
 488              		.loc 1 337 14 view .LVU173
 489 011c A56A     		ldr	r5, [r4, #40]
 490              		.loc 1 328 21 view .LVU174
 491 011e 0A44     		add	r2, r2, r1
 492 0120 9A60     		str	r2, [r3, #8]
 493              		.loc 1 337 3 is_stmt 1 view .LVU175
 494              	.LBB111:
 495              	.LBI111:
 496              		.loc 2 116 25 view .LVU176
 497              	.LBE111:
 498              		.loc 2 121 3 view .LVU177
 499              	.LBB114:
 500              	.LBB112:
 501              	.LBI112:
 502              		.loc 3 114 25 view .LVU178
 503              	.LBB113:
 504              		.loc 3 116 3 view .LVU179
 505              		.loc 3 116 10 is_stmt 0 view .LVU180
 506 0122 FFF7FEFF 		bl	stGetCounter
 507              	.LVL33:
 508              		.loc 3 116 10 view .LVU181
 509              	.LBE113:
 510              	.LBE112:
 511              	.LBE114:
 512              	.LBB115:
 513              	.LBI115:
ARM GAS  /tmp/cc59OcYr.s 			page 10


 514              		.loc 4 459 29 is_stmt 1 view .LVU182
 515              	.LBB116:
 516              		.loc 4 463 3 view .LVU183
 517              	.LBE116:
 518              	.LBE115:
 519              		.loc 1 341 29 is_stmt 0 view .LVU184
 520 0126 E369     		ldr	r3, [r4, #28]
 521              	.LBB118:
 522              	.LBB117:
 523              		.loc 4 463 10 view .LVU185
 524 0128 421B     		subs	r2, r0, r5
 525              	.LVL34:
 526              		.loc 4 463 10 view .LVU186
 527              	.LBE117:
 528              	.LBE118:
 529              		.loc 1 341 3 is_stmt 1 view .LVU187
 530              		.loc 1 341 29 is_stmt 0 view .LVU188
 531 012a 9B68     		ldr	r3, [r3, #8]
 532              		.loc 1 341 6 view .LVU189
 533 012c 9342     		cmp	r3, r2
 534 012e EAD9     		bls	.L25
 535              		.loc 1 346 3 is_stmt 1 view .LVU190
 536              	.LVL35:
 537              		.loc 1 350 3 view .LVU191
 538              		.loc 1 346 9 is_stmt 0 view .LVU192
 539 0130 1D44     		add	r5, r5, r3
 540              	.LVL36:
 541              		.loc 1 346 9 view .LVU193
 542 0132 2D1A     		subs	r5, r5, r0
 543              	.LVL37:
 544              	.LBB119:
 545              	.LBB120:
 546              		.loc 4 447 18 view .LVU194
 547 0134 A06A     		ldr	r0, [r4, #40]
 548              	.LBE120:
 549              	.LBE119:
 550              		.loc 1 350 6 view .LVU195
 551 0136 012D     		cmp	r5, #1
 552              		.loc 1 351 5 is_stmt 1 view .LVU196
 553              		.loc 1 351 11 is_stmt 0 view .LVU197
 554 0138 98BF     		it	ls
 555 013a 931C     		addls	r3, r2, #2
 556              	.LVL38:
 557              		.loc 1 362 3 is_stmt 1 view .LVU198
 558              	.LBB122:
 559              	.LBI119:
 560              		.loc 4 440 25 view .LVU199
 561              	.LBB121:
 562              		.loc 4 447 3 view .LVU200
 563              		.loc 4 447 3 is_stmt 0 view .LVU201
 564              	.LBE121:
 565              	.LBE122:
 566              	.LBB123:
 567              	.LBI123:
 568              		.loc 3 102 20 is_stmt 1 view .LVU202
 569              	.LBB124:
 570              		.loc 3 104 3 view .LVU203
ARM GAS  /tmp/cc59OcYr.s 			page 11


 571 013c 1844     		add	r0, r0, r3
 572              	.LBE124:
 573              	.LBE123:
 574              		.loc 1 364 1 is_stmt 0 view .LVU204
 575 013e BDE83840 		pop	{r3, r4, r5, lr}
 576              		.cfi_remember_state
 577              		.cfi_restore 14
 578              		.cfi_restore 5
 579              		.cfi_restore 4
 580              		.cfi_restore 3
 581              		.cfi_def_cfa_offset 0
 582              	.LVL39:
 583              	.LBB126:
 584              	.LBB125:
 585              		.loc 3 104 3 view .LVU205
 586 0142 FFF7FEBF 		b	stSetAlarm
 587              	.LVL40:
 588              	.L33:
 589              		.cfi_restore_state
 590              		.loc 3 104 3 view .LVU206
 591              	.LBE125:
 592              	.LBE126:
 593              		.loc 1 322 5 is_stmt 1 view .LVU207
 594              	.LBB127:
 595              	.LBI127:
 596              		.loc 3 90 20 view .LVU208
 597              	.LBB128:
 598              		.loc 3 92 3 view .LVU209
 599              	.LBE128:
 600              	.LBE127:
 601              		.loc 1 364 1 is_stmt 0 view .LVU210
 602 0146 BDE83840 		pop	{r3, r4, r5, lr}
 603              		.cfi_restore 14
 604              		.cfi_restore 5
 605              		.cfi_restore 4
 606              		.cfi_restore 3
 607              		.cfi_def_cfa_offset 0
 608              	.LBB130:
 609              	.LBB129:
 610              		.loc 3 92 3 view .LVU211
 611 014a FFF7FEBF 		b	stStopAlarm
 612              	.LVL41:
 613              	.L35:
 614 014e 00BF     		.align	2
 615              	.L34:
 616 0150 00000000 		.word	ch
 617              	.LBE129:
 618              	.LBE130:
 619              		.cfi_endproc
 620              	.LFE326:
 621              		.size	chVTDoResetI, .-chVTDoResetI
 622              		.align	1
 623 0154 AFF30080 		.p2align 4,,15
 623      AFF30080 
 623      AFF30080 
 624              		.global	chVTDoTickI
 625              		.syntax unified
ARM GAS  /tmp/cc59OcYr.s 			page 12


 626              		.thumb
 627              		.thumb_func
 628              		.fpu fpv4-sp-d16
 629              		.type	chVTDoTickI, %function
 630              	chVTDoTickI:
 631              	.LFB327:
 632              		.loc 1 375 24 is_stmt 1 view -0
 633              		.cfi_startproc
 634              		@ args = 0, pretend = 0, frame = 0
 635              		@ frame_needed = 0, uses_anonymous_args = 0
 636              		.loc 1 376 3 view .LVU213
 637              	.LVL42:
 638              		.loc 1 378 21 view .LVU214
 639              		.loc 1 400 3 view .LVU215
 640              		.loc 1 401 3 view .LVU216
 641              		.loc 1 402 3 view .LVU217
 642              		.loc 1 405 3 view .LVU218
 643              		.loc 1 375 24 is_stmt 0 view .LVU219
 644 0160 2DE9F047 		push	{r4, r5, r6, r7, r8, r9, r10, lr}
 645              		.cfi_def_cfa_offset 32
 646              		.cfi_offset 4, -32
 647              		.cfi_offset 5, -28
 648              		.cfi_offset 6, -24
 649              		.cfi_offset 7, -20
 650              		.cfi_offset 8, -16
 651              		.cfi_offset 9, -12
 652              		.cfi_offset 10, -8
 653              		.cfi_offset 14, -4
 654              		.loc 1 405 7 view .LVU220
 655 0164 1E4D     		ldr	r5, .L44
 656              	.LBB131:
 657              		.loc 1 430 17 view .LVU221
 658 0166 0027     		movs	r7, #0
 659              	.LBB132:
 660              	.LBB133:
 661              	.LBB134:
 662              	.LBB135:
 663              	.LBB136:
 664              		.file 5 "../../../external/ChibiOS/os/common/ext/ARM/CMSIS/Core/Include/cmsis_gcc.h"
 665              		.loc 5 493 3 view .LVU222
 666 0168 4FF02008 		mov	r8, #32
 667              	.LBE136:
 668              	.LBE135:
 669              	.LBE134:
 670              	.LBE133:
 671              	.LBE132:
 672              	.LBE131:
 673              		.loc 1 405 7 view .LVU223
 674 016c 2E46     		mov	r6, r5
 675 016e 56F81C4F 		ldr	r4, [r6, #28]!
 676              	.LVL43:
 677              	.L39:
 678              		.loc 1 406 3 is_stmt 1 view .LVU224
 679              		.loc 1 409 5 view .LVU225
 680              	.LBB161:
 681              	.LBI161:
 682              		.loc 2 116 25 view .LVU226
ARM GAS  /tmp/cc59OcYr.s 			page 13


 683              	.LBE161:
 684              		.loc 2 121 3 view .LVU227
 685              	.LBB164:
 686              	.LBB162:
 687              	.LBI162:
 688              		.loc 3 114 25 view .LVU228
 689              	.LBB163:
 690              		.loc 3 116 3 view .LVU229
 691              		.loc 3 116 10 is_stmt 0 view .LVU230
 692 0172 FFF7FEFF 		bl	stGetCounter
 693              	.LVL44:
 694              		.loc 3 116 10 view .LVU231
 695              	.LBE163:
 696              	.LBE162:
 697              	.LBE164:
 698              		.loc 1 410 5 is_stmt 1 view .LVU232
 699              		.loc 1 410 16 is_stmt 0 view .LVU233
 700 0176 AA6A     		ldr	r2, [r5, #40]
 701              	.LVL45:
 702              	.LBB165:
 703              	.LBI165:
 704              		.loc 4 459 29 is_stmt 1 view .LVU234
 705              	.LBB166:
 706              		.loc 4 463 3 view .LVU235
 707              	.LBE166:
 708              	.LBE165:
 709              		.loc 1 415 23 is_stmt 0 view .LVU236
 710 0178 A368     		ldr	r3, [r4, #8]
 711              	.LBB168:
 712              	.LBB167:
 713              		.loc 4 463 10 view .LVU237
 714 017a A0EB0209 		sub	r9, r0, r2
 715              	.LVL46:
 716              		.loc 4 463 10 view .LVU238
 717              	.LBE167:
 718              	.LBE168:
 719              		.loc 1 415 5 is_stmt 1 view .LVU239
 720              		.loc 1 415 8 is_stmt 0 view .LVU240
 721 017e 4B45     		cmp	r3, r9
 722 0180 0BD9     		bls	.L40
 723              		.loc 1 415 8 view .LVU241
 724 0182 19E0     		b	.L37
 725              	.LVL47:
 726              	.L38:
 727              	.LBB169:
 728              		.loc 1 438 7 is_stmt 1 view .LVU242
 729              	.LBB144:
 730              	.LBI144:
 731              		.file 6 "../../../external/ChibiOS/os/rt/include/chsys.h"
 732              		.loc 6 413 20 view .LVU243
 733              	.LBE144:
 734              	.LBE169:
 735              		.loc 6 415 31 view .LVU244
 736              		.loc 6 416 33 view .LVU245
 737              		.loc 6 417 3 view .LVU246
 738              	.LBB170:
 739              	.LBB152:
ARM GAS  /tmp/cc59OcYr.s 			page 14


 740              	.LBB145:
 741              	.LBI145:
 742              		.file 7 "../../../external/ChibiOS/os/common/ports/ARMCMx/chcore_v7m.h"
 743              		.loc 7 719 27 view .LVU247
 744              	.LBE145:
 745              	.LBE152:
 746              	.LBE170:
 747              		.loc 7 721 3 view .LVU248
 748              	.LBB171:
 749              	.LBB153:
 750              	.LBB150:
 751              	.LBB146:
 752              	.LBI146:
 753              		.loc 7 693 27 view .LVU249
 754              	.LBE146:
 755              	.LBE150:
 756              	.LBE153:
 757              	.LBE171:
 758              		.loc 7 696 3 view .LVU250
 759              	.LBB172:
 760              	.LBB154:
 761              	.LBB151:
 762              	.LBB149:
 763              	.LBB147:
 764              	.LBI147:
 765              		.loc 5 491 27 view .LVU251
 766              	.LBB148:
 767              		.loc 5 493 3 view .LVU252
 768              		.syntax unified
 769              	@ 493 "../../../external/ChibiOS/os/common/ext/ARM/CMSIS/Core/Include/cmsis_gcc.h" 1
 770 0184 87F31188 		MSR basepri, r7
 771              	@ 0 "" 2
 772              	.LVL48:
 773              		.loc 5 493 3 is_stmt 0 view .LVU253
 774              		.thumb
 775              		.syntax unified
 776              	.LBE148:
 777              	.LBE147:
 778              	.LBE149:
 779              	.LBE151:
 780              	.LBE154:
 781              		.loc 1 439 7 is_stmt 1 view .LVU254
 782 0188 2069     		ldr	r0, [r4, #16]
 783 018a D047     		blx	r10
 784              	.LVL49:
 785              		.loc 1 440 7 view .LVU255
 786              	.LBB155:
 787              	.LBI132:
 788              		.loc 6 393 20 view .LVU256
 789              	.LBE155:
 790              	.LBE172:
 791              		.loc 6 395 3 view .LVU257
 792              	.LBB173:
 793              	.LBB156:
 794              	.LBB141:
 795              	.LBI133:
 796              		.loc 7 708 27 view .LVU258
ARM GAS  /tmp/cc59OcYr.s 			page 15


 797              	.LBE141:
 798              	.LBE156:
 799              	.LBE173:
 800              		.loc 7 710 3 view .LVU259
 801              	.LBB174:
 802              	.LBB157:
 803              	.LBB142:
 804              	.LBB139:
 805              	.LBI134:
 806              		.loc 7 669 27 view .LVU260
 807              	.LBE139:
 808              	.LBE142:
 809              	.LBE157:
 810              	.LBE174:
 811              		.loc 7 677 3 view .LVU261
 812              	.LBB175:
 813              	.LBB158:
 814              	.LBB143:
 815              	.LBB140:
 816              	.LBB138:
 817              	.LBI135:
 818              		.loc 5 491 27 view .LVU262
 819              	.LBB137:
 820              		.loc 5 493 3 view .LVU263
 821              		.syntax unified
 822              	@ 493 "../../../external/ChibiOS/os/common/ext/ARM/CMSIS/Core/Include/cmsis_gcc.h" 1
 823 018c 88F31188 		MSR basepri, r8
 824              	@ 0 "" 2
 825              	.LVL50:
 826              		.loc 5 493 3 is_stmt 0 view .LVU264
 827              		.thumb
 828              		.syntax unified
 829              	.LBE137:
 830              	.LBE138:
 831              	.LBE140:
 832              	.LBE143:
 833              	.LBE158:
 834              	.LBE175:
 835              		.loc 6 396 34 is_stmt 1 view .LVU265
 836              		.loc 6 397 29 view .LVU266
 837              	.LBB176:
 838              		.loc 1 443 7 view .LVU267
 839              		.loc 1 443 11 is_stmt 0 view .LVU268
 840 0190 EC69     		ldr	r4, [r5, #28]
 841              	.LVL51:
 842              		.loc 1 443 11 view .LVU269
 843              	.LBE176:
 844              		.loc 1 445 15 view .LVU270
 845 0192 A368     		ldr	r3, [r4, #8]
 846              		.loc 1 445 5 view .LVU271
 847 0194 4B45     		cmp	r3, r9
 848 0196 ECD8     		bhi	.L39
 849              		.loc 1 445 5 view .LVU272
 850 0198 AA6A     		ldr	r2, [r5, #40]
 851              	.LVL52:
 852              	.L40:
 853              		.loc 1 420 5 is_stmt 1 view .LVU273
ARM GAS  /tmp/cc59OcYr.s 			page 16


 854              	.LBB177:
 855              		.loc 1 421 7 view .LVU274
 856              		.loc 1 424 7 view .LVU275
 857              		.loc 1 427 10 is_stmt 0 view .LVU276
 858 019a 2168     		ldr	r1, [r4]
 859              		.loc 1 424 22 view .LVU277
 860 019c 1A44     		add	r2, r2, r3
 861              		.loc 1 429 10 view .LVU278
 862 019e D4F80CA0 		ldr	r10, [r4, #12]
 863              		.loc 1 425 16 view .LVU279
 864 01a2 A9EB0309 		sub	r9, r9, r3
 865              	.LVL53:
 866              		.loc 1 433 10 view .LVU280
 867 01a6 B142     		cmp	r1, r6
 868              		.loc 1 424 22 view .LVU281
 869 01a8 AA62     		str	r2, [r5, #40]
 870              		.loc 1 425 7 is_stmt 1 view .LVU282
 871              	.LVL54:
 872              		.loc 1 427 7 view .LVU283
 873              		.loc 1 427 23 is_stmt 0 view .LVU284
 874 01aa 4E60     		str	r6, [r1, #4]
 875              		.loc 1 428 7 is_stmt 1 view .LVU285
 876              		.loc 1 428 18 is_stmt 0 view .LVU286
 877 01ac E961     		str	r1, [r5, #28]
 878              		.loc 1 429 7 is_stmt 1 view .LVU287
 879              	.LVL55:
 880              		.loc 1 430 7 view .LVU288
 881              		.loc 1 430 17 is_stmt 0 view .LVU289
 882 01ae E760     		str	r7, [r4, #12]
 883              		.loc 1 433 7 is_stmt 1 view .LVU290
 884              		.loc 1 433 10 is_stmt 0 view .LVU291
 885 01b0 E8D1     		bne	.L38
 886              		.loc 1 434 9 is_stmt 1 view .LVU292
 887              	.LBB159:
 888              	.LBI159:
 889              		.loc 3 90 20 view .LVU293
 890              	.LBB160:
 891              		.loc 3 92 3 view .LVU294
 892 01b2 FFF7FEFF 		bl	stStopAlarm
 893              	.LVL56:
 894 01b6 E5E7     		b	.L38
 895              	.LVL57:
 896              	.L37:
 897              		.loc 3 92 3 is_stmt 0 view .LVU295
 898              	.LBE160:
 899              	.LBE159:
 900              	.LBE177:
 901              		.loc 1 449 3 is_stmt 1 view .LVU296
 902              		.loc 1 449 7 is_stmt 0 view .LVU297
 903 01b8 E969     		ldr	r1, [r5, #28]
 904              		.loc 1 449 6 view .LVU298
 905 01ba B142     		cmp	r1, r6
 906 01bc 0DD0     		beq	.L36
 907              		.loc 1 455 3 is_stmt 1 view .LVU299
 908              		.loc 1 456 21 is_stmt 0 view .LVU300
 909 01be 8B68     		ldr	r3, [r1, #8]
 910              		.loc 1 455 18 view .LVU301
ARM GAS  /tmp/cc59OcYr.s 			page 17


 911 01c0 A862     		str	r0, [r5, #40]
 912              		.loc 1 456 3 is_stmt 1 view .LVU302
 913              		.loc 1 456 21 is_stmt 0 view .LVU303
 914 01c2 1344     		add	r3, r3, r2
 915 01c4 1B1A     		subs	r3, r3, r0
 916 01c6 8B60     		str	r3, [r1, #8]
 917              		.loc 1 459 3 is_stmt 1 view .LVU304
 918              	.LVL58:
 919              		.loc 4 463 3 view .LVU305
 920              		.loc 1 460 3 view .LVU306
 921              		.loc 1 469 3 view .LVU307
 922              	.LBB178:
 923              	.LBI178:
 924              		.loc 4 440 25 view .LVU308
 925              	.LBB179:
 926              		.loc 4 447 3 view .LVU309
 927              		.loc 4 447 3 is_stmt 0 view .LVU310
 928              	.LBE179:
 929              	.LBE178:
 930              	.LBB181:
 931              	.LBI181:
 932              		.loc 3 102 20 is_stmt 1 view .LVU311
 933              	.LBB182:
 934              		.loc 3 104 3 view .LVU312
 935              	.LBE182:
 936              	.LBE181:
 937              	.LBB184:
 938              	.LBB180:
 939              		.loc 4 447 18 is_stmt 0 view .LVU313
 940 01c8 A368     		ldr	r3, [r4, #8]
 941              	.LBE180:
 942              	.LBE184:
 943              		.loc 1 475 1 view .LVU314
 944 01ca BDE8F047 		pop	{r4, r5, r6, r7, r8, r9, r10, lr}
 945              		.cfi_remember_state
 946              		.cfi_restore 14
 947              		.cfi_restore 10
 948              		.cfi_restore 9
 949              		.cfi_restore 8
 950              		.cfi_restore 7
 951              		.cfi_restore 6
 952              		.cfi_restore 5
 953              		.cfi_restore 4
 954              		.cfi_def_cfa_offset 0
 955              	.LVL59:
 956              	.LBB185:
 957              	.LBB183:
 958              		.loc 3 104 3 view .LVU315
 959 01ce 022B     		cmp	r3, #2
 960 01d0 2CBF     		ite	cs
 961 01d2 C018     		addcs	r0, r0, r3
 962 01d4 0230     		addcc	r0, r0, #2
 963              	.LVL60:
 964              		.loc 3 104 3 view .LVU316
 965 01d6 FFF7FEBF 		b	stSetAlarm
 966              	.LVL61:
 967              	.L36:
ARM GAS  /tmp/cc59OcYr.s 			page 18


 968              		.cfi_restore_state
 969              		.loc 3 104 3 view .LVU317
 970              	.LBE183:
 971              	.LBE185:
 972              		.loc 1 475 1 view .LVU318
 973 01da BDE8F087 		pop	{r4, r5, r6, r7, r8, r9, r10, pc}
 974              	.LVL62:
 975              	.L45:
 976              		.loc 1 475 1 view .LVU319
 977 01de 00BF     		.align	2
 978              	.L44:
 979 01e0 00000000 		.word	ch
 980              		.cfi_endproc
 981              	.LFE327:
 982              		.size	chVTDoTickI, .-chVTDoTickI
 983              	.Letext0:
 984              		.file 8 "/home/nicolas/arm/gcc-arm-none-eabi-8-2019-q3-update/lib/gcc/arm-none-eabi/8.3.1/include/
 985              		.file 9 "/home/nicolas/arm/gcc-arm-none-eabi-8-2019-q3-update/arm-none-eabi/include/machine/_defau
 986              		.file 10 "/home/nicolas/arm/gcc-arm-none-eabi-8-2019-q3-update/arm-none-eabi/include/sys/_stdint.h
 987              		.file 11 "../../../external/ChibiOS/os/common/ports/ARMCMx/compilers/GCC/chtypes.h"
 988              		.file 12 "../../../external/ChibiOS/os/rt/include/chsystypes.h"
 989              		.file 13 "../../../external/ChibiOS/os/rt/include/chschd.h"
 990              		.file 14 "../../../external/ChibiOS/os/common/ext/ARM/CMSIS/Core/Include/core_cm7.h"
 991              		.file 15 "../../../external/ChibiOS/os/common/ext/ST/STM32H7xx/system_stm32h7xx.h"
 992              		.file 16 "../../../external/ChibiOS/os/common/ports/ARMCMx/chcore.h"
 993              		.file 17 "../../../external/ChibiOS/os/rt/include/chtrace.h"
 994              		.file 18 "../../../external/ChibiOS/os/rt/include/chtm.h"
 995              		.file 19 "../../../external/ChibiOS/os/rt/include/chsem.h"
 996              		.file 20 "../../../external/ChibiOS/os/rt/include/chmtx.h"
 997              		.file 21 "../../../external/ChibiOS/os/rt/include/chregistry.h"
 998              		.file 22 "../../../external/ChibiOS/os/oslib/include/chmemcore.h"
 999              		.file 23 "../../../external/ChibiOS/os/oslib/include/chmempools.h"
 1000              		.file 24 "../../../external/ChibiOS/os/oslib/include/chfactory.h"