ARM GAS  /tmp/cckt6jFb.s 			page 1


   1              		.cpu cortex-m7
   2              		.eabi_attribute 27, 1
   3              		.eabi_attribute 28, 1
   4              		.eabi_attribute 20, 1
   5              		.eabi_attribute 21, 1
   6              		.eabi_attribute 23, 3
   7              		.eabi_attribute 24, 1
   8              		.eabi_attribute 25, 1
   9              		.eabi_attribute 26, 1
  10              		.eabi_attribute 30, 2
  11              		.eabi_attribute 34, 1
  12              		.eabi_attribute 18, 4
  13              		.file	"crc32.c"
  14              		.text
  15              	.Ltext0:
  16              		.cfi_sections	.debug_frame
  17              		.align	1
  18              		.p2align 4,,15
  19              		.global	CalcCRC32
  20              		.arch armv7e-m
  21              		.syntax unified
  22              		.thumb
  23              		.thumb_func
  24              		.fpu fpv4-sp-d16
  25              		.type	CalcCRC32, %function
  26              	CalcCRC32:
  27              	.LVL0:
  28              	.LFB363:
  29              		.file 1 "../crc32.c"
  30              		.loc 1 32 52 view -0
  31              		.cfi_startproc
  32              		@ args = 0, pretend = 0, frame = 0
  33              		@ frame_needed = 0, uses_anonymous_args = 0
  34              		.loc 1 33 5 view .LVU1
  35              		.loc 1 34 5 view .LVU2
  36              		.loc 1 37 5 view .LVU3
  37              		.loc 1 37 18 is_stmt 0 view .LVU4
  38 0000 1A4A     		ldr	r2, .L17
  39 0002 D2F8E030 		ldr	r3, [r2, #224]
  40              		.loc 1 32 52 view .LVU5
  41 0006 70B5     		push	{r4, r5, r6, lr}
  42              		.cfi_def_cfa_offset 16
  43              		.cfi_offset 4, -16
  44              		.cfi_offset 5, -12
  45              		.cfi_offset 6, -8
  46              		.cfi_offset 14, -4
  47              		.loc 1 37 18 view .LVU6
  48 0008 43F40023 		orr	r3, r3, #524288
  49              		.loc 1 41 13 view .LVU7
  50 000c 0126     		movs	r6, #1
  51              		.loc 1 32 52 view .LVU8
  52 000e 0D46     		mov	r5, r1
  53              		.loc 1 41 13 view .LVU9
  54 0010 1749     		ldr	r1, .L17+4
  55              	.LVL1:
  56              		.loc 1 37 18 view .LVU10
  57 0012 C2F8E030 		str	r3, [r2, #224]
ARM GAS  /tmp/cckt6jFb.s 			page 2


  58              		.loc 1 41 5 is_stmt 1 view .LVU11
  59              		.loc 1 32 52 is_stmt 0 view .LVU12
  60 0016 0446     		mov	r4, r0
  61              		.loc 1 41 13 view .LVU13
  62 0018 8E60     		str	r6, [r1, #8]
  63              		.loc 1 42 5 is_stmt 1 view .LVU14
  64              		.syntax unified
  65              	@ 42 "../crc32.c" 1
  66 001a 00BF     		NOP
  67              	@ 0 "" 2
  68              		.loc 1 43 5 view .LVU15
  69              	@ 43 "../crc32.c" 1
  70 001c 00BF     		NOP
  71              	@ 0 "" 2
  72              		.loc 1 44 5 view .LVU16
  73              	@ 44 "../crc32.c" 1
  74 001e 00BF     		NOP
  75              	@ 0 "" 2
  76              		.loc 1 47 5 view .LVU17
  77              		.loc 1 47 7 is_stmt 0 view .LVU18
  78              		.thumb
  79              		.syntax unified
  80 0020 AA08     		lsrs	r2, r5, #2
  81              	.LVL2:
  82              		.loc 1 49 5 is_stmt 1 view .LVU19
  83              	.L2:
  84              		.loc 1 50 9 view .LVU20
  85              		.loc 1 49 11 is_stmt 0 view .LVU21
  86 0022 12F1FF32 		adds	r2, r2, #-1
  87              	.LVL3:
  88              		.loc 1 49 11 view .LVU22
  89 0026 08D3     		bcc	.L3
  90              		.loc 1 50 15 view .LVU23
  91 0028 54F8043B 		ldr	r3, [r4], #4
  92              	.LVL4:
  93              		.loc 1 51 9 is_stmt 1 view .LVU24
  94              		.loc 1 52 9 view .LVU25
  95              	.LBB6:
  96              	.LBI6:
  97              		.loc 1 25 17 view .LVU26
  98              	.LBB7:
  99              		.loc 1 26 3 view .LVU27
 100              		.loc 1 27 3 view .LVU28
 101              		.syntax unified
 102              	@ 27 "../crc32.c" 1
 103 002c 93FAA3F3 		rbit r3, r3
 104              	@ 0 "" 2
 105              	.LVL5:
 106              		.loc 1 29 3 view .LVU29
 107              		.loc 1 29 3 is_stmt 0 view .LVU30
 108              		.thumb
 109              		.syntax unified
 110              	.LBE7:
 111              	.LBE6:
 112              		.loc 1 53 9 is_stmt 1 view .LVU31
 113              		.loc 1 53 17 is_stmt 0 view .LVU32
 114 0030 0B60     		str	r3, [r1]
ARM GAS  /tmp/cckt6jFb.s 			page 3


 115              		.loc 1 54 9 is_stmt 1 view .LVU33
 116              		.loc 1 54 12 is_stmt 0 view .LVU34
 117 0032 002A     		cmp	r2, #0
 118 0034 F5D1     		bne	.L2
 119              		.loc 1 55 13 is_stmt 1 view .LVU35
 120 0036 FFF7FEFF 		bl	watchdog_feed
 121              	.LVL6:
 122              	.L3:
 123              		.loc 1 57 5 view .LVU36
 124              		.loc 1 57 11 is_stmt 0 view .LVU37
 125 003a 0D4B     		ldr	r3, .L17+4
 126 003c 1B68     		ldr	r3, [r3]
 127              	.LVL7:
 128              		.loc 1 59 5 is_stmt 1 view .LVU38
 129              	.LBB8:
 130              	.LBI8:
 131              		.loc 1 25 17 view .LVU39
 132              	.LBB9:
 133              		.loc 1 26 3 view .LVU40
 134              		.loc 1 27 3 view .LVU41
 135              		.syntax unified
 136              	@ 27 "../crc32.c" 1
 137 003e 93FAA3F3 		rbit r3, r3
 138              	@ 0 "" 2
 139              	.LVL8:
 140              		.loc 1 29 3 view .LVU42
 141              		.loc 1 29 3 is_stmt 0 view .LVU43
 142              		.thumb
 143              		.syntax unified
 144              	.LBE9:
 145              	.LBE8:
 146              		.loc 1 60 5 is_stmt 1 view .LVU44
 147              		.loc 1 61 5 view .LVU45
 148              		.loc 1 60 7 is_stmt 0 view .LVU46
 149 0042 05F00305 		and	r5, r5, #3
 150              	.LVL9:
 151              		.loc 1 66 23 view .LVU47
 152 0046 0B48     		ldr	r0, .L17+8
 153 0048 2544     		add	r5, r5, r4
 154              	.LVL10:
 155              		.loc 1 61 11 view .LVU48
 156 004a A542     		cmp	r5, r4
 157 004c 0CD0     		beq	.L16
 158              	.LVL11:
 159              	.L8:
 160              		.loc 1 62 9 is_stmt 1 view .LVU49
 161              		.loc 1 62 18 is_stmt 0 view .LVU50
 162 004e 14F8011B 		ldrb	r1, [r4], #1	@ zero_extendqisi2
 163              	.LVL12:
 164              		.loc 1 62 15 view .LVU51
 165 0052 0822     		movs	r2, #8
 166 0054 4B40     		eors	r3, r3, r1
 167              	.LVL13:
 168              		.loc 1 64 9 is_stmt 1 view .LVU52
 169              	.L7:
 170              		.loc 1 65 13 view .LVU53
 171              		.loc 1 66 17 view .LVU54
ARM GAS  /tmp/cckt6jFb.s 			page 4


 172              		.loc 1 65 23 is_stmt 0 view .LVU55
 173 0056 03F00101 		and	r1, r3, #1
 174 005a 5B08     		lsrs	r3, r3, #1
 175              	.LVL14:
 176              		.loc 1 65 16 view .LVU56
 177 005c 01B1     		cbz	r1, .L6
 178              		.loc 1 66 23 view .LVU57
 179 005e 4340     		eors	r3, r3, r0
 180              	.LVL15:
 181              	.L6:
 182              		.loc 1 64 9 discriminator 2 view .LVU58
 183 0060 013A     		subs	r2, r2, #1
 184              	.LVL16:
 185              		.loc 1 64 9 discriminator 2 view .LVU59
 186 0062 F8D1     		bne	.L7
 187              	.LVL17:
 188              		.loc 1 61 11 view .LVU60
 189 0064 A542     		cmp	r5, r4
 190 0066 F2D1     		bne	.L8
 191              	.LVL18:
 192              	.L16:
 193              		.loc 1 70 5 is_stmt 1 view .LVU61
 194              		.loc 1 71 5 view .LVU62
 195              		.loc 1 72 1 is_stmt 0 view .LVU63
 196 0068 D843     		mvns	r0, r3
 197              	.LVL19:
 198              		.loc 1 72 1 view .LVU64
 199 006a 70BD     		pop	{r4, r5, r6, pc}
 200              	.LVL20:
 201              	.L18:
 202              		.loc 1 72 1 view .LVU65
 203              		.align	2
 204              	.L17:
 205 006c 00440258 		.word	1476543488
 206 0070 004C0258 		.word	1476545536
 207 0074 2083B8ED 		.word	-306674912
 208              		.cfi_endproc
 209              	.LFE363:
 210              		.size	CalcCRC32, .-CalcCRC32
 211              	.Letext0:
 212              		.file 2 "/home/nicolas/arm/gcc-arm-none-eabi-8-2019-q3-update/arm-none-eabi/include/machine/_defau
 213              		.file 3 "/home/nicolas/arm/gcc-arm-none-eabi-8-2019-q3-update/arm-none-eabi/include/sys/_stdint.h"
 214              		.file 4 "/home/nicolas/arm/gcc-arm-none-eabi-8-2019-q3-update/arm-none-eabi/include/stdint.h"
 215              		.file 5 "/home/nicolas/arm/gcc-arm-none-eabi-8-2019-q3-update/lib/gcc/arm-none-eabi/8.3.1/include/
 216              		.file 6 "../../../external/ChibiOS/os/common/ports/ARMCMx/compilers/GCC/chtypes.h"
 217              		.file 7 "../../../external/ChibiOS/os/rt/include/chsystypes.h"
 218              		.file 8 "../../../external/ChibiOS/os/rt/include/chschd.h"
 219              		.file 9 "../../../external/ChibiOS/os/rt/include/chtime.h"
 220              		.file 10 "../../../external/ChibiOS/os/common/ext/ARM/CMSIS/Core/Include/core_cm7.h"
 221              		.file 11 "../../../external/ChibiOS/os/common/ext/ST/STM32H7xx/system_stm32h7xx.h"
 222              		.file 12 "../../../external/ChibiOS/os/common/ext/ST/STM32H7xx/stm32h753xx.h"
 223              		.file 13 "../../../external/ChibiOS/os/common/ports/ARMCMx/chcore.h"
 224              		.file 14 "../../../external/ChibiOS/os/common/ports/ARMCMx/chcore_v7m.h"
 225              		.file 15 "../../../external/ChibiOS/os/rt/include/chtrace.h"
 226              		.file 16 "../../../external/ChibiOS/os/rt/include/chtm.h"
 227              		.file 17 "../../../external/ChibiOS/os/rt/include/chsem.h"
 228              		.file 18 "../../../external/ChibiOS/os/rt/include/chmtx.h"
ARM GAS  /tmp/cckt6jFb.s 			page 5


 229              		.file 19 "../../../external/ChibiOS/os/rt/include/chsys.h"
 230              		.file 20 "../../../external/ChibiOS/os/rt/include/chregistry.h"
 231              		.file 21 "../../../external/ChibiOS/os/rt/include/chevents.h"
 232              		.file 22 "../../../external/ChibiOS/os/oslib/include/chmemcore.h"
 233              		.file 23 "../../../external/ChibiOS/os/oslib/include/chmempools.h"
 234              		.file 24 "../../../external/ChibiOS/os/oslib/include/chfactory.h"
 235              		.file 25 "../../../external/ChibiOS/os/hal/ports/STM32/LLD/DMAv2/stm32_dma.h"
 236              		.file 26 "../../../external/ChibiOS/os/hal/ports/STM32/LLD/BDMAv1/stm32_bdma.h"
 237              		.file 27 "../../../external/ChibiOS/os/hal/ports/STM32/LLD/TIMv1/stm32_tim.h"
 238              		.file 28 "../../../external/ChibiOS/os/hal/include/hal_ioblock.h"
 239              		.file 29 "../../../external/ChibiOS/os/hal/include/hal_queues.h"
 240              		.file 30 "../../../external/ChibiOS/os/hal/ports/STM32/LLD/GPIOv2/stm32_gpio.h"
 241              		.file 31 "../../../external/ChibiOS/os/hal/ports/STM32/LLD/GPIOv2/hal_pal_lld.h"
 242              		.file 32 "../../../external/ChibiOS/os/hal/include/hal_adc.h"
 243              		.file 33 "../../../external/ChibiOS/os/hal/ports/STM32/LLD/ADCv4/hal_adc_lld.h"
 244              		.file 34 "../../../external/ChibiOS/os/hal/include/hal_i2c.h"
 245              		.file 35 "../../../external/ChibiOS/os/hal/ports/STM32/LLD/I2Cv3/hal_i2c_lld.h"
 246              		.file 36 "../../../external/ChibiOS/os/hal/include/hal_pwm.h"
 247              		.file 37 "../../../external/ChibiOS/os/hal/ports/STM32/LLD/TIMv1/hal_pwm_lld.h"
 248              		.file 38 "../../../external/ChibiOS/os/hal/include/hal_serial.h"
 249              		.file 39 "../../../external/ChibiOS/os/hal/ports/STM32/LLD/USARTv2/hal_serial_lld.h"
 250              		.file 40 "../../../external/ChibiOS/os/hal/include/hal_sdc.h"
 251              		.file 41 "../../../external/ChibiOS/os/hal/ports/STM32/LLD/SDMMCv2/hal_sdc_lld.h"
 252              		.file 42 "../../../external/ChibiOS/os/hal/include/hal_spi.h"
 253              		.file 43 "../../../external/ChibiOS/os/hal/ports/STM32/LLD/SPIv3/hal_spi_lld.h"
 254              		.file 44 "../../../external/ChibiOS/os/hal/include/hal_trng.h"
 255              		.file 45 "../../../external/ChibiOS/os/hal/ports/STM32/LLD/RNGv1/hal_trng_lld.h"
 256              		.file 46 "../../../external/ChibiOS/os/hal/include/hal_usb.h"
 257              		.file 47 "../../../external/ChibiOS/os/hal/ports/STM32/LLD/OTGv1/hal_usb_lld.h"
 258              		.file 48 "../../../external/ChibiOS/os/hal/ports/STM32/LLD/OTGv1/stm32_otg.h"
 259              		.file 49 "../../../external/ChibiOS-Contrib/os/hal/include/hal_fsmc.h"
 260              		.file 50 "../../../external/ChibiOS-Contrib/os/hal/include/hal_sdram.h"
 261              		.file 51 "../exceptions.h"