ARM GAS  /tmp/ccsASqoh.s 			page 1


   1              		.cpu cortex-m7
   2              		.eabi_attribute 27, 1
   3              		.eabi_attribute 28, 1
   4              		.eabi_attribute 20, 1
   5              		.eabi_attribute 21, 1
   6              		.eabi_attribute 23, 3
   7              		.eabi_attribute 24, 1
   8              		.eabi_attribute 25, 1
   9              		.eabi_attribute 26, 1
  10              		.eabi_attribute 30, 2
  11              		.eabi_attribute 34, 1
  12              		.eabi_attribute 18, 4
  13              		.file	"crt1.c"
  14              		.text
  15              	.Ltext0:
  16              		.cfi_sections	.debug_frame
  17              		.align	1
  18              		.p2align 4,,15
  19              		.weak	__core_init
  20              		.arch armv7e-m
  21              		.syntax unified
  22              		.thumb
  23              		.thumb_func
  24              		.fpu fpv4-sp-d16
  25              		.type	__core_init, %function
  26              	__core_init:
  27              	.LFB141:
  28              		.file 1 "../../../external/ChibiOS/os/common/startup/ARMCMx/compilers/GCC/crt1.c"
  29              		.loc 1 137 24 view -0
  30              		.cfi_startproc
  31              		@ args = 0, pretend = 0, frame = 0
  32              		@ frame_needed = 0, uses_anonymous_args = 0
  33              		@ link register save eliminated.
  34              		.loc 1 140 3 view .LVU1
  35              	.LBB60:
  36              	.LBI60:
  37              		.file 2 "../../../external/ChibiOS/os/common/ext/ARM/CMSIS/Core/Include/core_cm7.h"
  38              		.loc 2 2229 22 view .LVU2
  39              	.LBB61:
  40              		.loc 2 2232 5 view .LVU3
  41              	.LBB62:
  42              	.LBI62:
  43              		.file 3 "../../../external/ChibiOS/os/common/ext/ARM/CMSIS/Core/Include/cmsis_gcc.h"
  44              		.loc 3 877 27 view .LVU4
  45              	.LBB63:
  46              		.loc 3 879 3 view .LVU5
  47              	.LBE63:
  48              	.LBE62:
  49              	.LBE61:
  50              	.LBE60:
  51              		.loc 1 137 24 is_stmt 0 view .LVU6
  52 0000 70B4     		push	{r4, r5, r6}
  53              		.cfi_def_cfa_offset 12
  54              		.cfi_offset 4, -12
  55              		.cfi_offset 5, -8
  56              		.cfi_offset 6, -4
  57              	.LBB77:
ARM GAS  /tmp/ccsASqoh.s 			page 2


  58              	.LBB76:
  59              	.LBB65:
  60              	.LBB64:
  61              		.loc 3 879 3 view .LVU7
  62              		.syntax unified
  63              	@ 879 "../../../external/ChibiOS/os/common/ext/ARM/CMSIS/Core/Include/cmsis_gcc.h" 1
  64 0002 BFF34F8F 		dsb 0xF
  65              	@ 0 "" 2
  66              		.thumb
  67              		.syntax unified
  68              	.LBE64:
  69              	.LBE65:
  70              		.loc 2 2233 5 is_stmt 1 view .LVU8
  71              	.LBB66:
  72              	.LBI66:
  73              		.loc 3 866 27 view .LVU9
  74              	.LBB67:
  75              		.loc 3 868 3 view .LVU10
  76              		.syntax unified
  77              	@ 868 "../../../external/ChibiOS/os/common/ext/ARM/CMSIS/Core/Include/cmsis_gcc.h" 1
  78 0006 BFF36F8F 		isb 0xF
  79              	@ 0 "" 2
  80              		.thumb
  81              		.syntax unified
  82              	.LBE67:
  83              	.LBE66:
  84              		.loc 2 2234 5 view .LVU11
  85              		.loc 2 2234 18 is_stmt 0 view .LVU12
  86 000a 1B4B     		ldr	r3, .L8
  87 000c 0021     		movs	r1, #0
  88 000e C3F85012 		str	r1, [r3, #592]
  89              		.loc 2 2235 5 is_stmt 1 view .LVU13
  90              	.LBB68:
  91              	.LBI68:
  92              		.loc 3 877 27 view .LVU14
  93              	.LBB69:
  94              		.loc 3 879 3 view .LVU15
  95              		.syntax unified
  96              	@ 879 "../../../external/ChibiOS/os/common/ext/ARM/CMSIS/Core/Include/cmsis_gcc.h" 1
  97 0012 BFF34F8F 		dsb 0xF
  98              	@ 0 "" 2
  99              		.thumb
 100              		.syntax unified
 101              	.LBE69:
 102              	.LBE68:
 103              		.loc 2 2236 5 view .LVU16
 104              	.LBB70:
 105              	.LBI70:
 106              		.loc 3 866 27 view .LVU17
 107              	.LBB71:
 108              		.loc 3 868 3 view .LVU18
 109              		.syntax unified
 110              	@ 868 "../../../external/ChibiOS/os/common/ext/ARM/CMSIS/Core/Include/cmsis_gcc.h" 1
 111 0016 BFF36F8F 		isb 0xF
 112              	@ 0 "" 2
 113              		.thumb
 114              		.syntax unified
ARM GAS  /tmp/ccsASqoh.s 			page 3


 115              	.LBE71:
 116              	.LBE70:
 117              		.loc 2 2237 5 view .LVU19
 118              		.loc 2 2237 14 is_stmt 0 view .LVU20
 119 001a 5A69     		ldr	r2, [r3, #20]
 120 001c 42F40032 		orr	r2, r2, #131072
 121 0020 5A61     		str	r2, [r3, #20]
 122              		.loc 2 2238 5 is_stmt 1 view .LVU21
 123              	.LBB72:
 124              	.LBI72:
 125              		.loc 3 877 27 view .LVU22
 126              	.LBB73:
 127              		.loc 3 879 3 view .LVU23
 128              		.syntax unified
 129              	@ 879 "../../../external/ChibiOS/os/common/ext/ARM/CMSIS/Core/Include/cmsis_gcc.h" 1
 130 0022 BFF34F8F 		dsb 0xF
 131              	@ 0 "" 2
 132              		.thumb
 133              		.syntax unified
 134              	.LBE73:
 135              	.LBE72:
 136              		.loc 2 2239 5 view .LVU24
 137              	.LBB74:
 138              	.LBI74:
 139              		.loc 3 866 27 view .LVU25
 140              	.LBB75:
 141              		.loc 3 868 3 view .LVU26
 142              		.syntax unified
 143              	@ 868 "../../../external/ChibiOS/os/common/ext/ARM/CMSIS/Core/Include/cmsis_gcc.h" 1
 144 0026 BFF36F8F 		isb 0xF
 145              	@ 0 "" 2
 146              		.thumb
 147              		.syntax unified
 148              	.LBE75:
 149              	.LBE74:
 150              	.LBE76:
 151              	.LBE77:
 152              		.loc 1 141 3 view .LVU27
 153              	.LBB78:
 154              	.LBI78:
 155              		.loc 2 2281 22 view .LVU28
 156              	.LBB79:
 157              		.loc 2 2284 5 view .LVU29
 158              		.loc 2 2285 5 view .LVU30
 159              		.loc 2 2286 5 view .LVU31
 160              		.loc 2 2288 5 view .LVU32
 161              		.loc 2 2288 17 is_stmt 0 view .LVU33
 162 002a C3F88410 		str	r1, [r3, #132]
 163              		.loc 2 2289 5 is_stmt 1 view .LVU34
 164              	.LBB80:
 165              	.LBI80:
 166              		.loc 3 877 27 view .LVU35
 167              	.LBB81:
 168              		.loc 3 879 3 view .LVU36
 169              		.syntax unified
 170              	@ 879 "../../../external/ChibiOS/os/common/ext/ARM/CMSIS/Core/Include/cmsis_gcc.h" 1
 171 002e BFF34F8F 		dsb 0xF
ARM GAS  /tmp/ccsASqoh.s 			page 4


 172              	@ 0 "" 2
 173              		.thumb
 174              		.syntax unified
 175              	.LBE81:
 176              	.LBE80:
 177              		.loc 2 2291 5 view .LVU37
 178              		.loc 2 2291 12 is_stmt 0 view .LVU38
 179 0032 D3F88010 		ldr	r1, [r3, #128]
 180              	.LVL0:
 181              		.loc 2 2294 5 is_stmt 1 view .LVU39
 182              		.loc 2 2298 52 is_stmt 0 view .LVU40
 183 0036 43F6E074 		movw	r4, #16352
 184              		.loc 2 2294 10 view .LVU41
 185 003a C1F34E32 		ubfx	r2, r1, #13, #15
 186              		.loc 2 2296 12 view .LVU42
 187 003e C1F3C901 		ubfx	r1, r1, #3, #10
 188              	.LVL1:
 189              		.loc 2 2296 12 view .LVU43
 190 0042 5201     		lsls	r2, r2, #5
 191              	.L3:
 192              		.loc 2 2295 5 is_stmt 1 view .LVU44
 193              		.loc 2 2296 7 view .LVU45
 194              	.LVL2:
 195              		.loc 2 2298 52 is_stmt 0 view .LVU46
 196 0044 02EA0405 		and	r5, r2, r4
 197              		.loc 2 2296 12 view .LVU47
 198 0048 0846     		mov	r0, r1
 199              	.L2:
 200              	.LVL3:
 201              		.loc 2 2297 7 is_stmt 1 view .LVU48
 202              		.loc 2 2298 9 view .LVU49
 203              		.loc 2 2298 73 is_stmt 0 view .LVU50
 204 004a 45EA8076 		orr	r6, r5, r0, lsl #30
 205              		.loc 2 2303 20 view .LVU51
 206 004e 0138     		subs	r0, r0, #1
 207              	.LVL4:
 208              		.loc 2 2298 20 view .LVU52
 209 0050 C3F86062 		str	r6, [r3, #608]
 210              		.loc 2 2303 7 view .LVU53
 211 0054 461C     		adds	r6, r0, #1
 212 0056 F8D1     		bne	.L2
 213 0058 203A     		subs	r2, r2, #32
 214              		.loc 2 2304 5 view .LVU54
 215 005a 12F1200F 		cmn	r2, #32
 216 005e F1D1     		bne	.L3
 217              		.loc 2 2305 5 is_stmt 1 view .LVU55
 218              	.LBB82:
 219              	.LBI82:
 220              		.loc 3 877 27 view .LVU56
 221              	.LBB83:
 222              		.loc 3 879 3 view .LVU57
 223              		.syntax unified
 224              	@ 879 "../../../external/ChibiOS/os/common/ext/ARM/CMSIS/Core/Include/cmsis_gcc.h" 1
 225 0060 BFF34F8F 		dsb 0xF
 226              	@ 0 "" 2
 227              		.thumb
 228              		.syntax unified
ARM GAS  /tmp/ccsASqoh.s 			page 5


 229              	.LBE83:
 230              	.LBE82:
 231              		.loc 2 2307 5 view .LVU58
 232              		.loc 2 2307 14 is_stmt 0 view .LVU59
 233 0064 5A69     		ldr	r2, [r3, #20]
 234 0066 42F48032 		orr	r2, r2, #65536
 235 006a 5A61     		str	r2, [r3, #20]
 236              		.loc 2 2309 5 is_stmt 1 view .LVU60
 237              	.LBB84:
 238              	.LBI84:
 239              		.loc 3 877 27 view .LVU61
 240              	.LBB85:
 241              		.loc 3 879 3 view .LVU62
 242              		.syntax unified
 243              	@ 879 "../../../external/ChibiOS/os/common/ext/ARM/CMSIS/Core/Include/cmsis_gcc.h" 1
 244 006c BFF34F8F 		dsb 0xF
 245              	@ 0 "" 2
 246              		.thumb
 247              		.syntax unified
 248              	.LBE85:
 249              	.LBE84:
 250              		.loc 2 2310 5 view .LVU63
 251              	.LBB86:
 252              	.LBI86:
 253              		.loc 3 866 27 view .LVU64
 254              	.LBB87:
 255              		.loc 3 868 3 view .LVU65
 256              		.syntax unified
 257              	@ 868 "../../../external/ChibiOS/os/common/ext/ARM/CMSIS/Core/Include/cmsis_gcc.h" 1
 258 0070 BFF36F8F 		isb 0xF
 259              	@ 0 "" 2
 260              	.LVL5:
 261              		.loc 3 868 3 is_stmt 0 view .LVU66
 262              		.thumb
 263              		.syntax unified
 264              	.LBE87:
 265              	.LBE86:
 266              	.LBE79:
 267              	.LBE78:
 268              		.loc 1 143 1 view .LVU67
 269 0074 70BC     		pop	{r4, r5, r6}
 270              		.cfi_restore 6
 271              		.cfi_restore 5
 272              		.cfi_restore 4
 273              		.cfi_def_cfa_offset 0
 274 0076 7047     		bx	lr
 275              	.L9:
 276              		.align	2
 277              	.L8:
 278 0078 00ED00E0 		.word	-536810240
 279              		.cfi_endproc
 280              	.LFE141:
 281              		.size	__core_init, .-__core_init
 282              		.align	1
 283 007c AFF30080 		.p2align 4,,15
 284              		.weak	__early_init
 285              		.syntax unified
ARM GAS  /tmp/ccsASqoh.s 			page 6


 286              		.thumb
 287              		.thumb_func
 288              		.fpu fpv4-sp-d16
 289              		.type	__early_init, %function
 290              	__early_init:
 291              	.LFB142:
 292              		.loc 1 156 25 is_stmt 1 view -0
 293              		.cfi_startproc
 294              		@ args = 0, pretend = 0, frame = 0
 295              		@ frame_needed = 0, uses_anonymous_args = 0
 296              		@ link register save eliminated.
 297              		.loc 1 156 26 view .LVU69
 298              		.loc 1 156 1 is_stmt 0 view .LVU70
 299 0080 7047     		bx	lr
 300              		.cfi_endproc
 301              	.LFE142:
 302              		.size	__early_init, .-__early_init
 303              		.align	1
 304 0082 00BFAFF3 		.p2align 4,,15
 304      0080AFF3 
 304      0080AFF3 
 304      0080
 305              		.weak	__late_init
 306              		.syntax unified
 307              		.thumb
 308              		.thumb_func
 309              		.fpu fpv4-sp-d16
 310              		.type	__late_init, %function
 311              	__late_init:
 312              	.LFB147:
 313              		.cfi_startproc
 314              		@ args = 0, pretend = 0, frame = 0
 315              		@ frame_needed = 0, uses_anonymous_args = 0
 316              		@ link register save eliminated.
 317 0090 7047     		bx	lr
 318              		.cfi_endproc
 319              	.LFE147:
 320              		.size	__late_init, .-__late_init
 321              		.align	1
 322 0092 00BFAFF3 		.p2align 4,,15
 322      0080AFF3 
 322      0080AFF3 
 322      0080
 323              		.weak	__default_exit
 324              		.syntax unified
 325              		.thumb
 326              		.thumb_func
 327              		.fpu fpv4-sp-d16
 328              		.type	__default_exit, %function
 329              	__default_exit:
 330              	.LFB144:
 331              		.loc 1 183 27 is_stmt 1 view -0
 332              		.cfi_startproc
 333              		@ Volatile: function does not return.
 334              		@ args = 0, pretend = 0, frame = 0
 335              		@ frame_needed = 0, uses_anonymous_args = 0
 336              		@ link register save eliminated.
ARM GAS  /tmp/ccsASqoh.s 			page 7


 337              	.L13:
 338              		.loc 1 186 3 discriminator 1 view .LVU72
 339              		.loc 1 187 3 discriminator 1 view .LVU73
 340 00a0 FEE7     		b	.L13
 341              		.cfi_endproc
 342              	.LFE144:
 343              		.size	__default_exit, .-__default_exit
 344              		.align	1
 345 00a2 00BFAFF3 		.p2align 4,,15
 345      0080AFF3 
 345      0080AFF3 
 345      0080
 346              		.global	__init_ram_areas
 347              		.syntax unified
 348              		.thumb
 349              		.thumb_func
 350              		.fpu fpv4-sp-d16
 351              		.type	__init_ram_areas, %function
 352              	__init_ram_areas:
 353              	.LFB145:
 354              		.loc 1 193 29 view -0
 355              		.cfi_startproc
 356              		@ args = 0, pretend = 0, frame = 0
 357              		@ frame_needed = 0, uses_anonymous_args = 0
 358              		@ link register save eliminated.
 359              		.loc 1 195 3 view .LVU75
 360              	.LVL6:
 361              		.loc 1 193 29 is_stmt 0 view .LVU76
 362 00b0 F0B4     		push	{r4, r5, r6, r7}
 363              		.cfi_def_cfa_offset 16
 364              		.cfi_offset 4, -16
 365              		.cfi_offset 5, -12
 366              		.cfi_offset 6, -8
 367              		.cfi_offset 7, -4
 368 00b2 144F     		ldr	r7, .L30
 369              	.LBB88:
 370              		.loc 1 210 10 view .LVU77
 371 00b4 0026     		movs	r6, #0
 372              	.LBE88:
 373              		.loc 1 193 29 view .LVU78
 374 00b6 144D     		ldr	r5, .L30+4
 375 00b8 07F1700C 		add	ip, r7, #112
 376 00bc 1348     		ldr	r0, .L30+8
 377 00be 144B     		ldr	r3, .L30+12
 378 00c0 1449     		ldr	r1, .L30+16
 379              	.LVL7:
 380              	.L21:
 381              		.loc 1 197 3 is_stmt 1 view .LVU79
 382              	.LBB89:
 383              		.loc 1 198 5 view .LVU80
 384              		.loc 1 199 5 view .LVU81
 385              		.loc 1 202 5 view .LVU82
 386              		.loc 1 202 11 is_stmt 0 view .LVU83
 387 00c2 9842     		cmp	r0, r3
 388 00c4 11D9     		bls	.L27
 389 00c6 0439     		subs	r1, r1, #4
 390 00c8 1A46     		mov	r2, r3
ARM GAS  /tmp/ccsASqoh.s 			page 8


 391              	.LVL8:
 392              	.L16:
 393              		.loc 1 203 7 is_stmt 1 view .LVU84
 394              		.loc 1 203 12 is_stmt 0 view .LVU85
 395 00ca 51F8044F 		ldr	r4, [r1, #4]!
 396              	.LVL9:
 397              		.loc 1 203 10 view .LVU86
 398 00ce 42F8044B 		str	r4, [r2], #4
 399              	.LVL10:
 400              		.loc 1 204 7 is_stmt 1 view .LVU87
 401              		.loc 1 205 7 view .LVU88
 402              		.loc 1 202 11 is_stmt 0 view .LVU89
 403 00d2 9042     		cmp	r0, r2
 404 00d4 F9D8     		bhi	.L16
 405 00d6 421E     		subs	r2, r0, #1
 406              	.LVL11:
 407              		.loc 1 202 11 view .LVU90
 408 00d8 D21A     		subs	r2, r2, r3
 409 00da 22F00302 		bic	r2, r2, #3
 410 00de 0432     		adds	r2, r2, #4
 411 00e0 1344     		add	r3, r3, r2
 412              	.LVL12:
 413              		.loc 1 211 7 is_stmt 1 view .LVU91
 414              		.loc 1 209 11 is_stmt 0 view .LVU92
 415 00e2 9D42     		cmp	r5, r3
 416 00e4 03D9     		bls	.L28
 417              	.LVL13:
 418              	.L17:
 419              		.loc 1 210 7 is_stmt 1 view .LVU93
 420              		.loc 1 210 10 is_stmt 0 view .LVU94
 421 00e6 43F8046B 		str	r6, [r3], #4
 422              	.LVL14:
 423              	.L27:
 424              		.loc 1 211 7 is_stmt 1 view .LVU95
 425              		.loc 1 209 11 is_stmt 0 view .LVU96
 426 00ea 9D42     		cmp	r5, r3
 427 00ec FBD8     		bhi	.L17
 428              	.L28:
 429              		.loc 1 213 5 is_stmt 1 view .LVU97
 430              	.LVL15:
 431              		.loc 1 213 5 is_stmt 0 view .LVU98
 432              	.LBE89:
 433              		.loc 1 215 3 view .LVU99
 434 00ee 6745     		cmp	r7, ip
 435 00f0 05D0     		beq	.L29
 436 00f2 D7E90413 		ldrd	r1, r3, [r7, #16]
 437              	.LVL16:
 438              		.loc 1 215 3 view .LVU100
 439 00f6 D7E90605 		ldrd	r0, r5, [r7, #24]
 440 00fa 1037     		adds	r7, r7, #16
 441              	.LVL17:
 442              		.loc 1 215 3 view .LVU101
 443 00fc E1E7     		b	.L21
 444              	.LVL18:
 445              	.L29:
 446              		.loc 1 217 1 view .LVU102
 447 00fe F0BC     		pop	{r4, r5, r6, r7}
ARM GAS  /tmp/ccsASqoh.s 			page 9


 448              		.cfi_restore 7
 449              		.cfi_restore 6
 450              		.cfi_restore 5
 451              		.cfi_restore 4
 452              		.cfi_def_cfa_offset 0
 453              	.LVL19:
 454              		.loc 1 217 1 view .LVU103
 455 0100 7047     		bx	lr
 456              	.L31:
 457 0102 00BF     		.align	2
 458              	.L30:
 459 0104 00000000 		.word	.LANCHOR0
 460 0108 00000000 		.word	__ram0_noinit__
 461 010c 00000000 		.word	__ram0_clear__
 462 0110 00000000 		.word	__ram0_init__
 463 0114 00000000 		.word	__ram0_init_text__
 464              		.cfi_endproc
 465              	.LFE145:
 466              		.size	__init_ram_areas, .-__init_ram_areas
 467              		.section	.rodata
 468              		.align	2
 469              		.set	.LANCHOR0,. + 0
 470              		.type	ram_areas, %object
 471              		.size	ram_areas, 128
 472              	ram_areas:
 473 0000 00000000 		.word	__ram0_init_text__
 474 0004 00000000 		.word	__ram0_init__
 475 0008 00000000 		.word	__ram0_clear__
 476 000c 00000000 		.word	__ram0_noinit__
 477 0010 00000000 		.word	__ram1_init_text__
 478 0014 00000000 		.word	__ram1_init__
 479 0018 00000000 		.word	__ram1_clear__
 480 001c 00000000 		.word	__ram1_noinit__
 481 0020 00000000 		.word	__ram2_init_text__
 482 0024 00000000 		.word	__ram2_init__
 483 0028 00000000 		.word	__ram2_clear__
 484 002c 00000000 		.word	__ram2_noinit__
 485 0030 00000000 		.word	__ram3_init_text__
 486 0034 00000000 		.word	__ram3_init__
 487 0038 00000000 		.word	__ram3_clear__
 488 003c 00000000 		.word	__ram3_noinit__
 489 0040 00000000 		.word	__ram4_init_text__
 490 0044 00000000 		.word	__ram4_init__
 491 0048 00000000 		.word	__ram4_clear__
 492 004c 00000000 		.word	__ram4_noinit__
 493 0050 00000000 		.word	__ram5_init_text__
 494 0054 00000000 		.word	__ram5_init__
 495 0058 00000000 		.word	__ram5_clear__
 496 005c 00000000 		.word	__ram5_noinit__
 497 0060 00000000 		.word	__ram6_init_text__
 498 0064 00000000 		.word	__ram6_init__
 499 0068 00000000 		.word	__ram6_clear__
 500 006c 00000000 		.word	__ram6_noinit__
 501 0070 00000000 		.word	__ram7_init_text__
 502 0074 00000000 		.word	__ram7_init__
 503 0078 00000000 		.word	__ram7_clear__
 504 007c 00000000 		.word	__ram7_noinit__
ARM GAS  /tmp/ccsASqoh.s 			page 10


 505              		.text
 506              	.Letext0:
 507              		.file 4 "/home/nicolas/arm/gcc-arm-none-eabi-8-2019-q3-update/arm-none-eabi/include/machine/_defau
 508              		.file 5 "/home/nicolas/arm/gcc-arm-none-eabi-8-2019-q3-update/arm-none-eabi/include/sys/_stdint.h"
 509              		.file 6 "../../../external/ChibiOS/os/common/ext/ST/STM32H7xx/system_stm32h7xx.h"