ARM GAS  /tmp/ccqXQ0kX.s 			page 1


   1              		.cpu cortex-m7
   2              		.eabi_attribute 27, 1
   3              		.eabi_attribute 28, 1
   4              		.eabi_attribute 20, 1
   5              		.eabi_attribute 21, 1
   6              		.eabi_attribute 23, 3
   7              		.eabi_attribute 24, 1
   8              		.eabi_attribute 25, 1
   9              		.eabi_attribute 26, 1
  10              		.eabi_attribute 30, 2
  11              		.eabi_attribute 34, 1
  12              		.eabi_attribute 18, 4
  13              		.file	"hal.c"
  14              		.text
  15              	.Ltext0:
  16              		.cfi_sections	.debug_frame
  17              		.align	1
  18              		.p2align 4,,15
  19              		.global	halInit
  20              		.arch armv7e-m
  21              		.syntax unified
  22              		.thumb
  23              		.thumb_func
  24              		.fpu fpv4-sp-d16
  25              		.type	halInit, %function
  26              	halInit:
  27              	.LFB362:
  28              		.file 1 "../../../external/ChibiOS/os/hal/src/hal.c"
  29              		.loc 1 56 20 view -0
  30              		.cfi_startproc
  31              		@ args = 0, pretend = 0, frame = 0
  32              		@ frame_needed = 0, uses_anonymous_args = 0
  33              		.loc 1 59 3 view .LVU1
  34              		.file 2 "../../../external/ChibiOS/os/hal/osal/rt-nil/osal.h"
  35              		.loc 2 469 1 view .LVU2
  36              		.loc 1 62 3 view .LVU3
  37              		.loc 1 56 20 is_stmt 0 view .LVU4
  38 0000 08B5     		push	{r3, lr}
  39              		.cfi_def_cfa_offset 8
  40              		.cfi_offset 3, -8
  41              		.cfi_offset 14, -4
  42              		.loc 1 62 3 view .LVU5
  43 0002 FFF7FEFF 		bl	hal_lld_init
  44              	.LVL0:
  45              		.loc 1 66 3 is_stmt 1 view .LVU6
  46 0006 FFF7FEFF 		bl	_pal_lld_init
  47              	.LVL1:
  48              		.loc 1 72 3 view .LVU7
  49 000a FFF7FEFF 		bl	adcInit
  50              	.LVL2:
  51              		.loc 1 90 3 view .LVU8
  52 000e FFF7FEFF 		bl	i2cInit
  53              	.LVL3:
  54              		.loc 1 102 3 view .LVU9
  55 0012 FFF7FEFF 		bl	pwmInit
  56              	.LVL4:
  57              		.loc 1 105 3 view .LVU10
ARM GAS  /tmp/ccqXQ0kX.s 			page 2


  58 0016 FFF7FEFF 		bl	sdInit
  59              	.LVL5:
  60              		.loc 1 108 3 view .LVU11
  61 001a FFF7FEFF 		bl	sdcInit
  62              	.LVL6:
  63              		.loc 1 111 3 view .LVU12
  64 001e FFF7FEFF 		bl	spiInit
  65              	.LVL7:
  66              		.loc 1 114 3 view .LVU13
  67 0022 FFF7FEFF 		bl	trngInit
  68              	.LVL8:
  69              		.loc 1 120 3 view .LVU14
  70 0026 FFF7FEFF 		bl	usbInit
  71              	.LVL9:
  72              		.loc 1 141 3 view .LVU15
  73 002a FFF7FEFF 		bl	halCommunityInit
  74              	.LVL10:
  75              		.loc 1 146 3 view .LVU16
  76 002e FFF7FEFF 		bl	boardInit
  77              	.LVL11:
  78              		.loc 1 153 3 view .LVU17
  79              		.loc 1 155 1 is_stmt 0 view .LVU18
  80 0032 BDE80840 		pop	{r3, lr}
  81              		.cfi_restore 14
  82              		.cfi_restore 3
  83              		.cfi_def_cfa_offset 0
  84              		.loc 1 153 3 view .LVU19
  85 0036 FFF7FEBF 		b	stInit
  86              	.LVL12:
  87              		.cfi_endproc
  88              	.LFE362:
  89              		.size	halInit, .-halInit
  90              	.Letext0:
  91              		.file 3 "/home/nicolas/arm/gcc-arm-none-eabi-8-2019-q3-update/lib/gcc/arm-none-eabi/8.3.1/include/
  92              		.file 4 "/home/nicolas/arm/gcc-arm-none-eabi-8-2019-q3-update/arm-none-eabi/include/machine/_defau
  93              		.file 5 "/home/nicolas/arm/gcc-arm-none-eabi-8-2019-q3-update/arm-none-eabi/include/sys/_stdint.h"
  94              		.file 6 "/home/nicolas/arm/gcc-arm-none-eabi-8-2019-q3-update/arm-none-eabi/include/stdint.h"
  95              		.file 7 "../../../external/ChibiOS/os/common/ports/ARMCMx/compilers/GCC/chtypes.h"
  96              		.file 8 "../../../external/ChibiOS/os/rt/include/chsystypes.h"
  97              		.file 9 "../../../external/ChibiOS/os/rt/include/chschd.h"
  98              		.file 10 "../../../external/ChibiOS/os/rt/include/chtime.h"
  99              		.file 11 "../../../external/ChibiOS/os/common/ext/ARM/CMSIS/Core/Include/core_cm7.h"
 100              		.file 12 "../../../external/ChibiOS/os/common/ext/ST/STM32H7xx/system_stm32h7xx.h"
 101              		.file 13 "../../../external/ChibiOS/os/common/ext/ST/STM32H7xx/stm32h753xx.h"
 102              		.file 14 "../../../external/ChibiOS/os/common/ports/ARMCMx/chcore.h"
 103              		.file 15 "../../../external/ChibiOS/os/common/ports/ARMCMx/chcore_v7m.h"
 104              		.file 16 "../../../external/ChibiOS/os/rt/include/chtrace.h"
 105              		.file 17 "../../../external/ChibiOS/os/rt/include/chtm.h"
 106              		.file 18 "../../../external/ChibiOS/os/rt/include/chsem.h"
 107              		.file 19 "../../../external/ChibiOS/os/rt/include/chmtx.h"
 108              		.file 20 "../../../external/ChibiOS/os/rt/include/chsys.h"
 109              		.file 21 "../../../external/ChibiOS/os/rt/include/chregistry.h"
 110              		.file 22 "../../../external/ChibiOS/os/rt/include/chevents.h"
 111              		.file 23 "../../../external/ChibiOS/os/oslib/include/chmemcore.h"
 112              		.file 24 "../../../external/ChibiOS/os/oslib/include/chmempools.h"
 113              		.file 25 "../../../external/ChibiOS/os/oslib/include/chfactory.h"
 114              		.file 26 "../../../external/ChibiOS/os/hal/ports/STM32/LLD/DMAv2/stm32_dma.h"
ARM GAS  /tmp/ccqXQ0kX.s 			page 3


 115              		.file 27 "../../../external/ChibiOS/os/hal/ports/STM32/LLD/BDMAv1/stm32_bdma.h"
 116              		.file 28 "../../../external/ChibiOS/os/hal/ports/STM32/LLD/TIMv1/stm32_tim.h"
 117              		.file 29 "../../../external/ChibiOS/os/hal/include/hal_ioblock.h"
 118              		.file 30 "../../../external/ChibiOS/os/hal/include/hal_queues.h"
 119              		.file 31 "../../../external/ChibiOS/os/hal/ports/STM32/LLD/GPIOv2/stm32_gpio.h"
 120              		.file 32 "../../../external/ChibiOS/os/hal/ports/STM32/LLD/GPIOv2/hal_pal_lld.h"
 121              		.file 33 "../../../external/ChibiOS/os/hal/include/hal_adc.h"
 122              		.file 34 "../../../external/ChibiOS/os/hal/ports/STM32/LLD/ADCv4/hal_adc_lld.h"
 123              		.file 35 "../../../external/ChibiOS/os/hal/include/hal_i2c.h"
 124              		.file 36 "../../../external/ChibiOS/os/hal/ports/STM32/LLD/I2Cv3/hal_i2c_lld.h"
 125              		.file 37 "../../../external/ChibiOS/os/hal/include/hal_pwm.h"
 126              		.file 38 "../../../external/ChibiOS/os/hal/ports/STM32/LLD/TIMv1/hal_pwm_lld.h"
 127              		.file 39 "../../../external/ChibiOS/os/hal/include/hal_serial.h"
 128              		.file 40 "../../../external/ChibiOS/os/hal/ports/STM32/LLD/USARTv2/hal_serial_lld.h"
 129              		.file 41 "../../../external/ChibiOS/os/hal/include/hal_sdc.h"
 130              		.file 42 "../../../external/ChibiOS/os/hal/ports/STM32/LLD/SDMMCv2/hal_sdc_lld.h"
 131              		.file 43 "../../../external/ChibiOS/os/hal/include/hal_spi.h"
 132              		.file 44 "../../../external/ChibiOS/os/hal/ports/STM32/LLD/SPIv3/hal_spi_lld.h"
 133              		.file 45 "../../../external/ChibiOS/os/hal/include/hal_trng.h"
 134              		.file 46 "../../../external/ChibiOS/os/hal/ports/STM32/LLD/RNGv1/hal_trng_lld.h"
 135              		.file 47 "../../../external/ChibiOS/os/hal/include/hal_usb.h"
 136              		.file 48 "../../../external/ChibiOS/os/hal/ports/STM32/LLD/OTGv1/hal_usb_lld.h"
 137              		.file 49 "../../../external/ChibiOS/os/hal/ports/STM32/LLD/OTGv1/stm32_otg.h"
 138              		.file 50 "../../../external/ChibiOS-Contrib/os/hal/include/hal_fsmc.h"
 139              		.file 51 "../../../external/ChibiOS-Contrib/os/hal/include/hal_sdram.h"
 140              		.file 52 "../../../external/ChibiOS/os/hal/ports/STM32/STM32H7xx/hal_lld.h"
 141              		.file 53 "../../../external/ChibiOS-Contrib/os/hal/include/hal_community.h"
 142              		.file 54 "../cfg/board.h"
 143              		.file 55 "../../../external/ChibiOS/os/hal/include/hal_st.h"