ARM GAS  /tmp/ccID6yuZ.s 			page 1


   1              		.cpu cortex-m7
   2              		.eabi_attribute 27, 1
   3              		.eabi_attribute 28, 1
   4              		.eabi_attribute 20, 1
   5              		.eabi_attribute 21, 1
   6              		.eabi_attribute 23, 3
   7              		.eabi_attribute 24, 1
   8              		.eabi_attribute 25, 1
   9              		.eabi_attribute 26, 1
  10              		.eabi_attribute 30, 2
  11              		.eabi_attribute 34, 1
  12              		.eabi_attribute 18, 4
  13              		.file	"hal_spi_lld.c"
  14              		.text
  15              	.Ltext0:
  16              		.cfi_sections	.debug_frame
  17              		.align	1
  18              		.p2align 4,,15
  19              		.arch armv7e-m
  20              		.syntax unified
  21              		.thumb
  22              		.thumb_func
  23              		.fpu fpv4-sp-d16
  24              		.type	spi_lld_serve_dma_tx_interrupt, %function
  25              	spi_lld_serve_dma_tx_interrupt:
  26              	.LVL0:
  27              	.LFB364:
  28              		.file 1 "../../../external/ChibiOS/os/hal/ports/STM32/LLD/SPIv3/hal_spi_lld.c"
  29              		.loc 1 196 77 view -0
  30              		.cfi_startproc
  31              		@ args = 0, pretend = 0, frame = 0
  32              		@ frame_needed = 0, uses_anonymous_args = 0
  33              		@ link register save eliminated.
  34              		.loc 1 200 3 view .LVU1
  35              		.loc 1 201 3 view .LVU2
  36              		.loc 1 201 6 is_stmt 0 view .LVU3
  37 0000 11F00C0F 		tst	r1, #12
  38 0004 00D1     		bne	.L4
  39              		.loc 1 208 1 view .LVU4
  40 0006 7047     		bx	lr
  41              	.L4:
  42              		.loc 1 202 5 is_stmt 1 view .LVU5
  43              	.LVL1:
  44              	.LBB72:
  45              	.LBI72:
  46              		.file 2 "../../../external/ChibiOS/os/hal/osal/rt-nil/osal.h"
  47              		.loc 2 478 20 view .LVU6
  48              	.LBB73:
  49              		.loc 2 480 3 view .LVU7
  50 0008 0148     		ldr	r0, .L5
  51              	.LVL2:
  52              		.loc 2 480 3 is_stmt 0 view .LVU8
  53 000a FFF7FEBF 		b	chSysHalt
  54              	.LVL3:
  55              	.L6:
  56              		.loc 2 480 3 view .LVU9
  57 000e 00BF     		.align	2
ARM GAS  /tmp/ccID6yuZ.s 			page 2


  58              	.L5:
  59 0010 00000000 		.word	.LC0
  60              	.LBE73:
  61              	.LBE72:
  62              		.cfi_endproc
  63              	.LFE364:
  64              		.size	spi_lld_serve_dma_tx_interrupt, .-spi_lld_serve_dma_tx_interrupt
  65              		.align	1
  66 0014 AFF30080 		.p2align 4,,15
  66      AFF30080 
  66      AFF30080 
  67              		.syntax unified
  68              		.thumb
  69              		.thumb_func
  70              		.fpu fpv4-sp-d16
  71              		.type	spi_lld_serve_dma_rx_interrupt, %function
  72              	spi_lld_serve_dma_rx_interrupt:
  73              	.LVL4:
  74              	.LFB363:
  75              		.loc 1 155 77 is_stmt 1 view -0
  76              		.cfi_startproc
  77              		@ args = 0, pretend = 0, frame = 0
  78              		@ frame_needed = 0, uses_anonymous_args = 0
  79              		.loc 1 159 3 view .LVU11
  80              		.loc 1 159 6 is_stmt 0 view .LVU12
  81 0020 11F00C0F 		tst	r1, #12
  82              		.loc 1 155 77 view .LVU13
  83 0024 70B5     		push	{r4, r5, r6, lr}
  84              		.cfi_def_cfa_offset 16
  85              		.cfi_offset 4, -16
  86              		.cfi_offset 5, -12
  87              		.cfi_offset 6, -8
  88              		.cfi_offset 14, -4
  89              		.loc 1 155 77 view .LVU14
  90 0026 0D46     		mov	r5, r1
  91 0028 0446     		mov	r4, r0
  92              		.loc 1 159 6 view .LVU15
  93 002a 50D1     		bne	.L36
  94              	.LVL5:
  95              	.L8:
  96              		.loc 1 166 3 is_stmt 1 view .LVU16
  97              		.loc 1 166 11 is_stmt 0 view .LVU17
  98 002c 6168     		ldr	r1, [r4, #4]
  99              		.loc 1 166 6 view .LVU18
 100 002e 0B78     		ldrb	r3, [r1]	@ zero_extendqisi2
 101 0030 8BB1     		cbz	r3, .L9
 102              		.loc 1 167 5 is_stmt 1 view .LVU19
 103 0032 05F02006 		and	r6, r5, #32
 104              		.loc 1 167 8 is_stmt 0 view .LVU20
 105 0036 ED06     		lsls	r5, r5, #27
 106              	.LVL6:
 107              		.loc 1 167 8 view .LVU21
 108 0038 43D4     		bmi	.L37
 109              	.L10:
 110              		.loc 1 169 31 is_stmt 1 discriminator 3 view .LVU22
 111              		.loc 1 171 5 discriminator 3 view .LVU23
 112              		.loc 1 171 8 is_stmt 0 discriminator 3 view .LVU24
ARM GAS  /tmp/ccID6yuZ.s 			page 3


 113 003a 5EB1     		cbz	r6, .L7
 114              		.loc 1 173 7 is_stmt 1 view .LVU25
 115 003c 6368     		ldr	r3, [r4, #4]
 116 003e 5B68     		ldr	r3, [r3, #4]
 117 0040 43B1     		cbz	r3, .L7
 118              		.loc 1 173 7 discriminator 1 view .LVU26
 119 0042 0422     		movs	r2, #4
 120 0044 2046     		mov	r0, r4
 121 0046 2270     		strb	r2, [r4]
 122              		.loc 1 173 7 discriminator 1 view .LVU27
 123 0048 9847     		blx	r3
 124              	.LVL7:
 125              		.loc 1 173 7 discriminator 1 view .LVU28
 126 004a 2378     		ldrb	r3, [r4]	@ zero_extendqisi2
 127 004c 042B     		cmp	r3, #4
 128 004e 01D1     		bne	.L7
 129              		.loc 1 173 7 discriminator 3 view .LVU29
 130 0050 0323     		movs	r3, #3
 131 0052 2370     		strb	r3, [r4]
 132              	.L7:
 133              		.loc 1 188 1 is_stmt 0 view .LVU30
 134 0054 70BD     		pop	{r4, r5, r6, pc}
 135              	.LVL8:
 136              	.L9:
 137              		.loc 1 178 5 is_stmt 1 view .LVU31
 138              		.loc 1 178 9 is_stmt 0 view .LVU32
 139 0056 E069     		ldr	r0, [r4, #28]
 140              		.loc 1 181 5 view .LVU33
 141 0058 656A     		ldr	r5, [r4, #36]
 142              	.LVL9:
 143              		.loc 1 178 20 view .LVU34
 144 005a 0368     		ldr	r3, [r0]
 145              		.loc 1 181 5 view .LVU35
 146 005c 2A68     		ldr	r2, [r5]
 147              		.loc 1 178 20 view .LVU36
 148 005e 43F48063 		orr	r3, r3, #1024
 149 0062 0360     		str	r3, [r0]
 150              		.loc 1 181 5 is_stmt 1 view .LVU37
 151 0064 1368     		ldr	r3, [r2]
 152 0066 23F01F03 		bic	r3, r3, #31
 153 006a 1360     		str	r3, [r2]
 154              		.loc 1 181 5 view .LVU38
 155              	.L14:
 156              		.loc 1 181 5 discriminator 2 view .LVU39
 157 006c 1368     		ldr	r3, [r2]
 158 006e D807     		lsls	r0, r3, #31
 159 0070 FCD4     		bmi	.L14
 160              		.loc 1 181 5 discriminator 3 view .LVU40
 161 0072 2A7B     		ldrb	r2, [r5, #12]	@ zero_extendqisi2
 162 0074 3D23     		movs	r3, #61
 163              		.loc 1 182 5 is_stmt 0 discriminator 3 view .LVU41
 164 0076 206A     		ldr	r0, [r4, #32]
 165              		.loc 1 181 5 discriminator 3 view .LVU42
 166 0078 9340     		lsls	r3, r3, r2
 167 007a 6D68     		ldr	r5, [r5, #4]
 168              		.loc 1 182 5 discriminator 3 view .LVU43
 169 007c 0268     		ldr	r2, [r0]
ARM GAS  /tmp/ccID6yuZ.s 			page 4


 170              		.loc 1 181 5 discriminator 3 view .LVU44
 171 007e 2B60     		str	r3, [r5]
 172              		.loc 1 181 5 is_stmt 1 discriminator 3 view .LVU45
 173              		.loc 1 181 35 discriminator 3 view .LVU46
 174              		.loc 1 182 5 discriminator 3 view .LVU47
 175 0080 1368     		ldr	r3, [r2]
 176 0082 23F01F03 		bic	r3, r3, #31
 177 0086 1360     		str	r3, [r2]
 178              		.loc 1 182 5 discriminator 3 view .LVU48
 179              	.L15:
 180              		.loc 1 182 5 discriminator 2 view .LVU49
 181 0088 1368     		ldr	r3, [r2]
 182 008a DB07     		lsls	r3, r3, #31
 183 008c FCD4     		bmi	.L15
 184              		.loc 1 182 5 discriminator 3 view .LVU50
 185 008e 057B     		ldrb	r5, [r0, #12]	@ zero_extendqisi2
 186 0090 3D23     		movs	r3, #61
 187              		.loc 1 186 5 is_stmt 0 discriminator 3 view .LVU51
 188 0092 4A68     		ldr	r2, [r1, #4]
 189              		.loc 1 182 5 discriminator 3 view .LVU52
 190 0094 AB40     		lsls	r3, r3, r5
 191 0096 4168     		ldr	r1, [r0, #4]
 192 0098 0B60     		str	r3, [r1]
 193              		.loc 1 182 5 is_stmt 1 discriminator 3 view .LVU53
 194              		.loc 1 182 35 discriminator 3 view .LVU54
 195              		.loc 1 186 5 discriminator 3 view .LVU55
 196 009a E2B1     		cbz	r2, .L16
 197              		.loc 1 186 5 discriminator 1 view .LVU56
 198 009c 0423     		movs	r3, #4
 199 009e 2046     		mov	r0, r4
 200 00a0 2370     		strb	r3, [r4]
 201              		.loc 1 186 5 discriminator 1 view .LVU57
 202 00a2 9047     		blx	r2
 203              	.LVL10:
 204              		.loc 1 186 5 discriminator 1 view .LVU58
 205 00a4 2378     		ldrb	r3, [r4]	@ zero_extendqisi2
 206 00a6 042B     		cmp	r3, #4
 207 00a8 15D0     		beq	.L16
 208              	.L17:
 209              		.loc 1 186 5 discriminator 4 view .LVU59
 210              	.LBB74:
 211              	.LBI74:
 212              		.loc 2 531 20 discriminator 4 view .LVU60
 213              	.LBE74:
 214              		.loc 2 533 3 discriminator 4 view .LVU61
 215              	.LBB86:
 216              	.LBB75:
 217              	.LBI75:
 218              		.file 3 "../../../external/ChibiOS/os/rt/include/chsys.h"
 219              		.loc 3 393 20 discriminator 4 view .LVU62
 220              	.LBE75:
 221              	.LBE86:
 222              		.loc 3 395 3 discriminator 4 view .LVU63
 223              	.LBB87:
 224              	.LBB83:
 225              	.LBB76:
 226              	.LBI76:
ARM GAS  /tmp/ccID6yuZ.s 			page 5


 227              		.file 4 "../../../external/ChibiOS/os/common/ports/ARMCMx/chcore_v7m.h"
 228              		.loc 4 708 27 discriminator 4 view .LVU64
 229              	.LBE76:
 230              	.LBE83:
 231              	.LBE87:
 232              		.loc 4 710 3 discriminator 4 view .LVU65
 233              	.LBB88:
 234              	.LBB84:
 235              	.LBB81:
 236              	.LBB77:
 237              	.LBI77:
 238              		.loc 4 669 27 discriminator 4 view .LVU66
 239              	.LBE77:
 240              	.LBE81:
 241              	.LBE84:
 242              	.LBE88:
 243              		.loc 4 677 3 discriminator 4 view .LVU67
 244              	.LVL11:
 245              	.LBB89:
 246              	.LBB85:
 247              	.LBB82:
 248              	.LBB80:
 249              	.LBB78:
 250              	.LBI78:
 251              		.file 5 "../../../external/ChibiOS/os/common/ext/ARM/CMSIS/Core/Include/cmsis_gcc.h"
 252              		.loc 5 491 27 discriminator 4 view .LVU68
 253              	.LBB79:
 254              		.loc 5 493 3 discriminator 4 view .LVU69
 255 00aa 2023     		movs	r3, #32
 256              		.syntax unified
 257              	@ 493 "../../../external/ChibiOS/os/common/ext/ARM/CMSIS/Core/Include/cmsis_gcc.h" 1
 258 00ac 83F31188 		MSR basepri, r3
 259              	@ 0 "" 2
 260              	.LVL12:
 261              		.loc 5 493 3 is_stmt 0 discriminator 4 view .LVU70
 262              		.thumb
 263              		.syntax unified
 264              	.LBE79:
 265              	.LBE78:
 266              	.LBE80:
 267              	.LBE82:
 268              	.LBE85:
 269              	.LBE89:
 270              		.loc 3 396 34 is_stmt 1 discriminator 4 view .LVU71
 271              		.loc 3 397 29 discriminator 4 view .LVU72
 272              		.loc 1 186 5 discriminator 4 view .LVU73
 273              	.LBB90:
 274              	.LBI90:
 275              		.loc 2 773 20 discriminator 4 view .LVU74
 276              	.LBB91:
 277              		.loc 2 775 3 discriminator 4 view .LVU75
 278 00b0 0021     		movs	r1, #0
 279 00b2 04F10800 		add	r0, r4, #8
 280              	.LVL13:
 281              		.loc 2 775 3 is_stmt 0 discriminator 4 view .LVU76
 282 00b6 FFF7FEFF 		bl	chThdResumeI
 283              	.LVL14:
ARM GAS  /tmp/ccID6yuZ.s 			page 6


 284              		.loc 2 775 3 discriminator 4 view .LVU77
 285              	.LBE91:
 286              	.LBE90:
 287              		.loc 1 186 5 is_stmt 1 discriminator 4 view .LVU78
 288              	.LBB92:
 289              	.LBI92:
 290              		.loc 2 542 20 discriminator 4 view .LVU79
 291              	.LBE92:
 292              		.loc 2 544 3 discriminator 4 view .LVU80
 293              	.LBB104:
 294              	.LBB93:
 295              	.LBI93:
 296              		.loc 3 413 20 discriminator 4 view .LVU81
 297              	.LBE93:
 298              	.LBE104:
 299              		.loc 3 415 31 discriminator 4 view .LVU82
 300              		.loc 3 416 33 discriminator 4 view .LVU83
 301              		.loc 3 417 3 discriminator 4 view .LVU84
 302              	.LBB105:
 303              	.LBB101:
 304              	.LBB94:
 305              	.LBI94:
 306              		.loc 4 719 27 discriminator 4 view .LVU85
 307              	.LBE94:
 308              	.LBE101:
 309              	.LBE105:
 310              		.loc 4 721 3 discriminator 4 view .LVU86
 311              	.LBB106:
 312              	.LBB102:
 313              	.LBB99:
 314              	.LBB95:
 315              	.LBI95:
 316              		.loc 4 693 27 discriminator 4 view .LVU87
 317              	.LBE95:
 318              	.LBE99:
 319              	.LBE102:
 320              	.LBE106:
 321              		.loc 4 696 3 discriminator 4 view .LVU88
 322              	.LBB107:
 323              	.LBB103:
 324              	.LBB100:
 325              	.LBB98:
 326              	.LBB96:
 327              	.LBI96:
 328              		.loc 5 491 27 discriminator 4 view .LVU89
 329              	.LBB97:
 330              		.loc 5 493 3 discriminator 4 view .LVU90
 331 00ba 0023     		movs	r3, #0
 332              		.syntax unified
 333              	@ 493 "../../../external/ChibiOS/os/common/ext/ARM/CMSIS/Core/Include/cmsis_gcc.h" 1
 334 00bc 83F31188 		MSR basepri, r3
 335              	@ 0 "" 2
 336              	.LVL15:
 337              		.loc 5 493 3 is_stmt 0 discriminator 4 view .LVU91
 338              		.thumb
 339              		.syntax unified
 340              	.LBE97:
ARM GAS  /tmp/ccID6yuZ.s 			page 7


 341              	.LBE96:
 342              	.LBE98:
 343              	.LBE100:
 344              	.LBE103:
 345              	.LBE107:
 346              		.loc 1 186 5 is_stmt 1 discriminator 4 view .LVU92
 347              		.loc 1 186 24 discriminator 4 view .LVU93
 348              		.loc 1 188 1 is_stmt 0 discriminator 4 view .LVU94
 349 00c0 70BD     		pop	{r4, r5, r6, pc}
 350              	.LVL16:
 351              	.L37:
 352              		.loc 1 169 7 is_stmt 1 view .LVU95
 353 00c2 4B68     		ldr	r3, [r1, #4]
 354 00c4 002B     		cmp	r3, #0
 355 00c6 C5D0     		beq	.L7
 356              		.loc 1 169 7 discriminator 1 view .LVU96
 357 00c8 2046     		mov	r0, r4
 358 00ca 9847     		blx	r3
 359              	.LVL17:
 360 00cc B5E7     		b	.L10
 361              	.LVL18:
 362              	.L36:
 363              		.loc 1 160 5 view .LVU97
 364              	.LBB108:
 365              	.LBI108:
 366              		.loc 2 478 20 view .LVU98
 367              	.LBB109:
 368              		.loc 2 480 3 view .LVU99
 369 00ce 0348     		ldr	r0, .L38
 370              	.LVL19:
 371              		.loc 2 480 3 is_stmt 0 view .LVU100
 372 00d0 FFF7FEFF 		bl	chSysHalt
 373              	.LVL20:
 374              		.loc 2 480 3 view .LVU101
 375 00d4 AAE7     		b	.L8
 376              	.LVL21:
 377              	.L16:
 378              		.loc 2 480 3 view .LVU102
 379              	.LBE109:
 380              	.LBE108:
 381              		.loc 1 186 5 is_stmt 1 discriminator 3 view .LVU103
 382 00d6 0223     		movs	r3, #2
 383 00d8 2370     		strb	r3, [r4]
 384 00da E6E7     		b	.L17
 385              	.L39:
 386              		.align	2
 387              	.L38:
 388 00dc 00000000 		.word	.LC0
 389              		.cfi_endproc
 390              	.LFE363:
 391              		.size	spi_lld_serve_dma_rx_interrupt, .-spi_lld_serve_dma_rx_interrupt
 392              		.align	1
 393              		.p2align 4,,15
 394              		.global	VectorCC
 395              		.syntax unified
 396              		.thumb
 397              		.thumb_func
ARM GAS  /tmp/ccID6yuZ.s 			page 8


 398              		.fpu fpv4-sp-d16
 399              		.type	VectorCC, %function
 400              	VectorCC:
 401              	.LFB366:
 402              		.loc 1 241 38 view -0
 403              		.cfi_startproc
 404              		@ args = 0, pretend = 0, frame = 0
 405              		@ frame_needed = 0, uses_anonymous_args = 0
 406              		.loc 1 243 3 view .LVU105
 407              		.loc 1 243 3 view .LVU106
 408              		.loc 1 243 3 view .LVU107
 409              		.loc 1 243 3 view .LVU108
 410              		.loc 1 243 3 view .LVU109
 411              		.loc 1 241 38 is_stmt 0 view .LVU110
 412 00e0 10B5     		push	{r4, lr}
 413              		.cfi_def_cfa_offset 8
 414              		.cfi_offset 4, -8
 415              		.cfi_offset 14, -4
 416              		.loc 1 243 3 view .LVU111
 417 00e2 084C     		ldr	r4, .L42
 418 00e4 2046     		mov	r0, r4
 419 00e6 FFF7FEFF 		bl	_trace_isr_enter
 420              	.LVL22:
 421              		.loc 1 243 22 is_stmt 1 view .LVU112
 422              		.loc 1 245 3 view .LVU113
 423 00ea 074B     		ldr	r3, .L42+4
 424              		.loc 1 247 3 is_stmt 0 view .LVU114
 425 00ec 2046     		mov	r0, r4
 426              		.loc 1 245 3 view .LVU115
 427 00ee DB69     		ldr	r3, [r3, #28]
 428              	.LBB110:
 429              	.LBI110:
 430              		.loc 1 216 13 is_stmt 1 view .LVU116
 431              	.LVL23:
 432              	.LBB111:
 433              		.loc 1 217 3 view .LVU117
 434              		.loc 1 219 3 view .LVU118
 435              		.loc 1 219 17 is_stmt 0 view .LVU119
 436 00f0 5A69     		ldr	r2, [r3, #20]
 437              		.loc 1 219 33 view .LVU120
 438 00f2 1969     		ldr	r1, [r3, #16]
 439              		.loc 1 219 6 view .LVU121
 440 00f4 0A40     		ands	r2, r2, r1
 441              	.LVL24:
 442              		.loc 1 220 3 is_stmt 1 view .LVU122
 443              		.loc 1 220 19 is_stmt 0 view .LVU123
 444 00f6 9A61     		str	r2, [r3, #24]
 445              		.loc 1 222 3 is_stmt 1 view .LVU124
 446              		.loc 1 224 3 view .LVU125
 447              	.LVL25:
 448              		.loc 1 224 3 is_stmt 0 view .LVU126
 449              	.LBE111:
 450              	.LBE110:
 451              		.loc 1 247 3 is_stmt 1 view .LVU127
 452              		.loc 1 247 3 view .LVU128
 453 00f8 FFF7FEFF 		bl	_trace_isr_leave
 454              	.LVL26:
ARM GAS  /tmp/ccID6yuZ.s 			page 9


 455              		.loc 1 247 3 view .LVU129
 456              		.loc 1 247 3 view .LVU130
 457              		.loc 1 247 3 view .LVU131
 458              		.loc 1 248 1 is_stmt 0 view .LVU132
 459 00fc BDE81040 		pop	{r4, lr}
 460              		.cfi_restore 14
 461              		.cfi_restore 4
 462              		.cfi_def_cfa_offset 0
 463              		.loc 1 247 3 view .LVU133
 464 0100 FFF7FEBF 		b	_port_irq_epilogue
 465              	.LVL27:
 466              	.L43:
 467              		.align	2
 468              	.L42:
 469 0104 00000000 		.word	.LANCHOR0
 470 0108 00000000 		.word	SPID1
 471              		.cfi_endproc
 472              	.LFE366:
 473              		.size	VectorCC, .-VectorCC
 474              		.align	1
 475 010c AFF30080 		.p2align 4,,15
 476              		.global	Vector10C
 477              		.syntax unified
 478              		.thumb
 479              		.thumb_func
 480              		.fpu fpv4-sp-d16
 481              		.type	Vector10C, %function
 482              	Vector10C:
 483              	.LFB367:
 484              		.loc 1 283 38 is_stmt 1 view -0
 485              		.cfi_startproc
 486              		@ args = 0, pretend = 0, frame = 0
 487              		@ frame_needed = 0, uses_anonymous_args = 0
 488              		.loc 1 285 3 view .LVU135
 489              		.loc 1 285 3 view .LVU136
 490              		.loc 1 285 3 view .LVU137
 491              		.loc 1 285 3 view .LVU138
 492              		.loc 1 285 3 view .LVU139
 493              		.loc 1 283 38 is_stmt 0 view .LVU140
 494 0110 10B5     		push	{r4, lr}
 495              		.cfi_def_cfa_offset 8
 496              		.cfi_offset 4, -8
 497              		.cfi_offset 14, -4
 498              		.loc 1 285 3 view .LVU141
 499 0112 084C     		ldr	r4, .L46
 500 0114 2046     		mov	r0, r4
 501 0116 FFF7FEFF 		bl	_trace_isr_enter
 502              	.LVL28:
 503              		.loc 1 285 22 is_stmt 1 view .LVU142
 504              		.loc 1 287 3 view .LVU143
 505 011a 074B     		ldr	r3, .L46+4
 506              		.loc 1 289 3 is_stmt 0 view .LVU144
 507 011c 2046     		mov	r0, r4
 508              		.loc 1 287 3 view .LVU145
 509 011e DB69     		ldr	r3, [r3, #28]
 510              	.LBB112:
 511              	.LBI112:
ARM GAS  /tmp/ccID6yuZ.s 			page 10


 512              		.loc 1 216 13 is_stmt 1 view .LVU146
 513              	.LVL29:
 514              	.LBB113:
 515              		.loc 1 217 3 view .LVU147
 516              		.loc 1 219 3 view .LVU148
 517              		.loc 1 219 17 is_stmt 0 view .LVU149
 518 0120 5A69     		ldr	r2, [r3, #20]
 519              		.loc 1 219 33 view .LVU150
 520 0122 1969     		ldr	r1, [r3, #16]
 521              		.loc 1 219 6 view .LVU151
 522 0124 0A40     		ands	r2, r2, r1
 523              	.LVL30:
 524              		.loc 1 220 3 is_stmt 1 view .LVU152
 525              		.loc 1 220 19 is_stmt 0 view .LVU153
 526 0126 9A61     		str	r2, [r3, #24]
 527              		.loc 1 222 3 is_stmt 1 view .LVU154
 528              		.loc 1 224 3 view .LVU155
 529              	.LVL31:
 530              		.loc 1 224 3 is_stmt 0 view .LVU156
 531              	.LBE113:
 532              	.LBE112:
 533              		.loc 1 289 3 is_stmt 1 view .LVU157
 534              		.loc 1 289 3 view .LVU158
 535 0128 FFF7FEFF 		bl	_trace_isr_leave
 536              	.LVL32:
 537              		.loc 1 289 3 view .LVU159
 538              		.loc 1 289 3 view .LVU160
 539              		.loc 1 289 3 view .LVU161
 540              		.loc 1 290 1 is_stmt 0 view .LVU162
 541 012c BDE81040 		pop	{r4, lr}
 542              		.cfi_restore 14
 543              		.cfi_restore 4
 544              		.cfi_def_cfa_offset 0
 545              		.loc 1 289 3 view .LVU163
 546 0130 FFF7FEBF 		b	_port_irq_epilogue
 547              	.LVL33:
 548              	.L47:
 549              		.align	2
 550              	.L46:
 551 0134 0C000000 		.word	.LANCHOR0+12
 552 0138 00000000 		.word	SPID3
 553              		.cfi_endproc
 554              	.LFE367:
 555              		.size	Vector10C, .-Vector10C
 556              		.align	1
 557 013c AFF30080 		.p2align 4,,15
 558              		.global	spi_lld_init
 559              		.syntax unified
 560              		.thumb
 561              		.thumb_func
 562              		.fpu fpv4-sp-d16
 563              		.type	spi_lld_init, %function
 564              	spi_lld_init:
 565              	.LFB368:
 566              		.loc 1 366 25 is_stmt 1 view -0
 567              		.cfi_startproc
 568              		@ args = 0, pretend = 0, frame = 0
ARM GAS  /tmp/ccID6yuZ.s 			page 11


 569              		@ frame_needed = 0, uses_anonymous_args = 0
 570              		.loc 1 369 3 view .LVU165
 571              		.loc 1 366 25 is_stmt 0 view .LVU166
 572 0140 70B5     		push	{r4, r5, r6, lr}
 573              		.cfi_def_cfa_offset 16
 574              		.cfi_offset 4, -16
 575              		.cfi_offset 5, -12
 576              		.cfi_offset 6, -8
 577              		.cfi_offset 14, -4
 578              		.loc 1 369 3 view .LVU167
 579 0142 114D     		ldr	r5, .L50
 580              		.loc 1 374 19 view .LVU168
 581 0144 0026     		movs	r6, #0
 582              		.loc 1 413 3 view .LVU169
 583 0146 114C     		ldr	r4, .L50+4
 584              		.loc 1 369 3 view .LVU170
 585 0148 2846     		mov	r0, r5
 586 014a FFF7FEFF 		bl	spiObjectInit
 587              	.LVL34:
 588              		.loc 1 370 3 is_stmt 1 view .LVU171
 589              		.loc 1 376 19 is_stmt 0 view .LVU172
 590 014e 104B     		ldr	r3, .L50+8
 591              		.loc 1 370 19 view .LVU173
 592 0150 104A     		ldr	r2, .L50+12
 593              		.loc 1 386 3 view .LVU174
 594 0152 0A21     		movs	r1, #10
 595              		.loc 1 376 19 view .LVU175
 596 0154 AB62     		str	r3, [r5, #40]
 597              		.loc 1 381 19 view .LVU176
 598 0156 3033     		adds	r3, r3, #48
 599              		.loc 1 386 3 view .LVU177
 600 0158 2320     		movs	r0, #35
 601              		.loc 1 370 19 view .LVU178
 602 015a EA61     		str	r2, [r5, #28]
 603              		.loc 1 374 3 is_stmt 1 view .LVU179
 604              		.loc 1 381 19 is_stmt 0 view .LVU180
 605 015c EB62     		str	r3, [r5, #44]
 606              		.loc 1 374 19 view .LVU181
 607 015e 2E62     		str	r6, [r5, #32]
 608              		.loc 1 375 3 is_stmt 1 view .LVU182
 609              		.loc 1 375 19 is_stmt 0 view .LVU183
 610 0160 6E62     		str	r6, [r5, #36]
 611              		.loc 1 376 3 is_stmt 1 view .LVU184
 612              		.loc 1 381 3 view .LVU185
 613              		.loc 1 386 3 view .LVU186
 614 0162 FFF7FEFF 		bl	nvicEnableVector
 615              	.LVL35:
 616              		.loc 1 413 3 view .LVU187
 617 0166 2046     		mov	r0, r4
 618              		.loc 1 414 19 is_stmt 0 view .LVU188
 619 0168 0B4D     		ldr	r5, .L50+16
 620              		.loc 1 413 3 view .LVU189
 621 016a FFF7FEFF 		bl	spiObjectInit
 622              	.LVL36:
 623              		.loc 1 414 3 is_stmt 1 view .LVU190
 624              		.loc 1 420 19 is_stmt 0 view .LVU191
 625 016e 0B4A     		ldr	r2, .L50+20
ARM GAS  /tmp/ccID6yuZ.s 			page 12


 626              		.loc 1 425 19 view .LVU192
 627 0170 0B4B     		ldr	r3, .L50+24
 628              		.loc 1 430 3 view .LVU193
 629 0172 0321     		movs	r1, #3
 630              		.loc 1 414 19 view .LVU194
 631 0174 E561     		str	r5, [r4, #28]
 632              		.loc 1 418 3 is_stmt 1 view .LVU195
 633              		.loc 1 419 3 view .LVU196
 634              		.loc 1 420 3 view .LVU197
 635              		.loc 1 430 3 is_stmt 0 view .LVU198
 636 0176 3320     		movs	r0, #51
 637              		.loc 1 419 19 view .LVU199
 638 0178 C4E90866 		strd	r6, r6, [r4, #32]
 639              		.loc 1 425 19 view .LVU200
 640 017c C4E90A23 		strd	r2, r3, [r4, #40]
 641              		.loc 1 430 3 is_stmt 1 view .LVU201
 642              		.loc 1 497 1 is_stmt 0 view .LVU202
 643 0180 BDE87040 		pop	{r4, r5, r6, lr}
 644              		.cfi_restore 14
 645              		.cfi_restore 6
 646              		.cfi_restore 5
 647              		.cfi_restore 4
 648              		.cfi_def_cfa_offset 0
 649              		.loc 1 430 3 view .LVU203
 650 0184 FFF7FEBF 		b	nvicEnableVector
 651              	.LVL37:
 652              	.L51:
 653              		.align	2
 654              	.L50:
 655 0188 00000000 		.word	SPID1
 656 018c 00000000 		.word	SPID3
 657 0190 16000100 		.word	65558
 658 0194 00300140 		.word	1073819648
 659 0198 003C0040 		.word	1073757184
 660 019c 16000300 		.word	196630
 661 01a0 46000300 		.word	196678
 662              		.cfi_endproc
 663              	.LFE368:
 664              		.size	spi_lld_init, .-spi_lld_init
 665              		.align	1
 666 01a4 AFF30080 		.p2align 4,,15
 666      AFF30080 
 666      AFF30080 
 667              		.global	spi_lld_start
 668              		.syntax unified
 669              		.thumb
 670              		.thumb_func
 671              		.fpu fpv4-sp-d16
 672              		.type	spi_lld_start, %function
 673              	spi_lld_start:
 674              	.LVL38:
 675              	.LFB369:
 676              		.loc 1 506 37 is_stmt 1 view -0
 677              		.cfi_startproc
 678              		@ args = 0, pretend = 0, frame = 0
 679              		@ frame_needed = 0, uses_anonymous_args = 0
 680              		.loc 1 507 3 view .LVU205
ARM GAS  /tmp/ccID6yuZ.s 			page 13


 681              		.loc 1 510 3 view .LVU206
 682              		.loc 1 506 37 is_stmt 0 view .LVU207
 683 01b0 F8B5     		push	{r3, r4, r5, r6, r7, lr}
 684              		.cfi_def_cfa_offset 24
 685              		.cfi_offset 3, -24
 686              		.cfi_offset 4, -20
 687              		.cfi_offset 5, -16
 688              		.cfi_offset 6, -12
 689              		.cfi_offset 7, -8
 690              		.cfi_offset 14, -4
 691              		.loc 1 510 6 view .LVU208
 692 01b2 0378     		ldrb	r3, [r0]	@ zero_extendqisi2
 693              		.loc 1 506 37 view .LVU209
 694 01b4 0446     		mov	r4, r0
 695              		.loc 1 510 6 view .LVU210
 696 01b6 012B     		cmp	r3, #1
 697 01b8 4BD0     		beq	.L62
 698 01ba C369     		ldr	r3, [r0, #28]
 699              	.LVL39:
 700              	.L53:
 701              		.loc 1 630 61 is_stmt 1 discriminator 1 view .LVU211
 702              		.loc 1 636 3 discriminator 1 view .LVU212
 703              		.loc 1 636 16 is_stmt 0 discriminator 1 view .LVU213
 704 01bc 6668     		ldr	r6, [r4, #4]
 705 01be A16A     		ldr	r1, [r4, #40]
 706              		.loc 1 636 31 discriminator 1 view .LVU214
 707 01c0 3569     		ldr	r5, [r6, #16]
 708 01c2 E26A     		ldr	r2, [r4, #44]
 709 01c4 21F4F041 		bic	r1, r1, #30720
 710 01c8 05F01F00 		and	r0, r5, #31
 711 01cc 22F4F042 		bic	r2, r2, #30720
 712              		.loc 1 636 9 discriminator 1 view .LVU215
 713 01d0 0130     		adds	r0, r0, #1
 714              	.LVL40:
 715              		.loc 1 678 5 is_stmt 1 discriminator 1 view .LVU216
 716              		.loc 1 678 8 is_stmt 0 discriminator 1 view .LVU217
 717 01d2 0828     		cmp	r0, #8
 718 01d4 31D9     		bls	.L64
 719              		.loc 1 685 10 is_stmt 1 view .LVU218
 720              		.loc 1 685 13 is_stmt 0 view .LVU219
 721 01d6 1028     		cmp	r0, #16
 722 01d8 2BD8     		bhi	.L58
 723              		.loc 1 687 7 is_stmt 1 view .LVU220
 724              		.loc 1 688 50 is_stmt 0 view .LVU221
 725 01da 41F42051 		orr	r1, r1, #10240
 726              		.loc 1 690 50 view .LVU222
 727 01de 42F42052 		orr	r2, r2, #10240
 728              		.loc 1 699 8 view .LVU223
 729 01e2 3078     		ldrb	r0, [r6]	@ zero_extendqisi2
 730              	.LVL41:
 731              		.loc 1 689 23 view .LVU224
 732 01e4 C4E90A12 		strd	r1, r2, [r4, #40]
 733              		.loc 1 699 5 is_stmt 1 view .LVU225
 734              		.loc 1 699 8 is_stmt 0 view .LVU226
 735 01e8 60BB     		cbnz	r0, .L65
 736              	.L59:
 737              		.loc 1 704 7 is_stmt 1 view .LVU227
ARM GAS  /tmp/ccID6yuZ.s 			page 14


 738              		.loc 1 704 23 is_stmt 0 view .LVU228
 739 01ea 21F48471 		bic	r1, r1, #264
 740              		.loc 1 705 23 view .LVU229
 741 01ee 22F48472 		bic	r2, r2, #264
 742 01f2 C4E90A12 		strd	r1, r2, [r4, #40]
 743              	.L60:
 744              		.loc 1 711 3 is_stmt 1 view .LVU230
 745              		.loc 1 716 76 is_stmt 0 view .LVU231
 746 01f6 7069     		ldr	r0, [r6, #20]
 747              		.loc 1 712 19 view .LVU232
 748 01f8 4FF48077 		mov	r7, #256
 749              		.loc 1 716 76 view .LVU233
 750 01fc 444A     		ldr	r2, .L68
 751              		.loc 1 713 19 view .LVU234
 752 01fe 0026     		movs	r6, #0
 753              		.loc 1 715 38 view .LVU235
 754 0200 4449     		ldr	r1, .L68+4
 755              		.loc 1 719 19 view .LVU236
 756 0202 4FF0FF34 		mov	r4, #-1
 757              	.LVL42:
 758              		.loc 1 716 76 view .LVU237
 759 0206 0240     		ands	r2, r2, r0
 760              		.loc 1 711 18 view .LVU238
 761 0208 1868     		ldr	r0, [r3]
 762              		.loc 1 715 38 view .LVU239
 763 020a 2940     		ands	r1, r1, r5
 764              		.loc 1 718 19 view .LVU240
 765 020c 4025     		movs	r5, #64
 766              	.LVL43:
 767              		.loc 1 716 76 view .LVU241
 768 020e 42F00152 		orr	r2, r2, #541065216
 769              		.loc 1 711 18 view .LVU242
 770 0212 20F00100 		bic	r0, r0, #1
 771              		.loc 1 715 38 view .LVU243
 772 0216 41F44041 		orr	r1, r1, #49152
 773              		.loc 1 711 18 view .LVU244
 774 021a 1860     		str	r0, [r3]
 775              		.loc 1 712 3 is_stmt 1 view .LVU245
 776              		.loc 1 712 19 is_stmt 0 view .LVU246
 777 021c 1F60     		str	r7, [r3]
 778              		.loc 1 713 3 is_stmt 1 view .LVU247
 779              		.loc 1 713 19 is_stmt 0 view .LVU248
 780 021e 5E60     		str	r6, [r3, #4]
 781              		.loc 1 714 3 is_stmt 1 view .LVU249
 782              		.loc 1 714 19 is_stmt 0 view .LVU250
 783 0220 9960     		str	r1, [r3, #8]
 784              		.loc 1 716 3 is_stmt 1 view .LVU251
 785              		.loc 1 716 19 is_stmt 0 view .LVU252
 786 0222 DA60     		str	r2, [r3, #12]
 787              		.loc 1 718 3 is_stmt 1 view .LVU253
 788              		.loc 1 718 19 is_stmt 0 view .LVU254
 789 0224 1D61     		str	r5, [r3, #16]
 790              		.loc 1 719 3 is_stmt 1 view .LVU255
 791              		.loc 1 719 19 is_stmt 0 view .LVU256
 792 0226 9C61     		str	r4, [r3, #24]
 793              		.loc 1 720 3 is_stmt 1 view .LVU257
 794              		.loc 1 720 18 is_stmt 0 view .LVU258
ARM GAS  /tmp/ccID6yuZ.s 			page 15


 795 0228 1A68     		ldr	r2, [r3]
 796 022a 42F00102 		orr	r2, r2, #1
 797 022e 1A60     		str	r2, [r3]
 798              		.loc 1 721 1 view .LVU259
 799 0230 F8BD     		pop	{r3, r4, r5, r6, r7, pc}
 800              	.LVL44:
 801              	.L58:
 802              		.loc 1 694 7 is_stmt 1 view .LVU260
 803              		.loc 1 695 49 is_stmt 0 view .LVU261
 804 0232 41F4A041 		orr	r1, r1, #20480
 805              		.loc 1 697 49 view .LVU262
 806 0236 42F4A042 		orr	r2, r2, #20480
 807              	.L64:
 808              		.loc 1 699 5 is_stmt 1 view .LVU263
 809              		.loc 1 699 8 is_stmt 0 view .LVU264
 810 023a 3078     		ldrb	r0, [r6]	@ zero_extendqisi2
 811              	.LVL45:
 812              		.loc 1 696 23 view .LVU265
 813 023c C4E90A12 		strd	r1, r2, [r4, #40]
 814              		.loc 1 699 8 view .LVU266
 815 0240 0028     		cmp	r0, #0
 816 0242 D2D0     		beq	.L59
 817              	.L65:
 818              		.loc 1 700 7 is_stmt 1 view .LVU267
 819              		.loc 1 700 23 is_stmt 0 view .LVU268
 820 0244 41F48471 		orr	r1, r1, #264
 821              		.loc 1 701 23 view .LVU269
 822 0248 42F48472 		orr	r2, r2, #264
 823 024c C4E90A12 		strd	r1, r2, [r4, #40]
 824 0250 D1E7     		b	.L60
 825              	.LVL46:
 826              	.L62:
 827              		.loc 1 512 5 is_stmt 1 view .LVU270
 828              		.loc 1 512 8 is_stmt 0 view .LVU271
 829 0252 314B     		ldr	r3, .L68+8
 830 0254 9842     		cmp	r0, r3
 831 0256 0ED0     		beq	.L66
 832              	.LVL47:
 833              	.L54:
 834              		.loc 1 546 5 is_stmt 1 view .LVU272
 835              		.loc 1 546 8 is_stmt 0 view .LVU273
 836 0258 304B     		ldr	r3, .L68+12
 837 025a 9C42     		cmp	r4, r3
 838 025c 31D0     		beq	.L67
 839              	.L55:
 840              		.loc 1 629 7 is_stmt 1 view .LVU274
 841              		.loc 1 630 7 is_stmt 0 view .LVU275
 842 025e 626A     		ldr	r2, [r4, #36]
 843              		.loc 1 629 7 view .LVU276
 844 0260 D4E90731 		ldrd	r3, r1, [r4, #28]
 845              		.loc 1 630 7 view .LVU277
 846 0264 1268     		ldr	r2, [r2]
 847              		.loc 1 629 7 view .LVU278
 848 0266 0868     		ldr	r0, [r1]
 849 0268 03F13005 		add	r5, r3, #48
 850              		.loc 1 630 7 view .LVU279
 851 026c 03F12001 		add	r1, r3, #32
ARM GAS  /tmp/ccID6yuZ.s 			page 16


 852              		.loc 1 629 7 view .LVU280
 853 0270 8560     		str	r5, [r0, #8]
 854              		.loc 1 629 61 is_stmt 1 view .LVU281
 855              		.loc 1 630 7 view .LVU282
 856 0272 9160     		str	r1, [r2, #8]
 857 0274 A2E7     		b	.L53
 858              	.LVL48:
 859              	.L66:
 860              		.loc 1 513 7 view .LVU283
 861              		.loc 1 513 22 is_stmt 0 view .LVU284
 862 0276 0A21     		movs	r1, #10
 863 0278 0346     		mov	r3, r0
 864 027a 294A     		ldr	r2, .L68+16
 865 027c 0846     		mov	r0, r1
 866              	.LVL49:
 867              		.loc 1 513 22 view .LVU285
 868 027e FFF7FEFF 		bl	dmaStreamAllocI
 869              	.LVL50:
 870              		.loc 1 518 22 view .LVU286
 871 0282 2346     		mov	r3, r4
 872              		.loc 1 513 20 view .LVU287
 873 0284 2062     		str	r0, [r4, #32]
 874              		.loc 1 517 7 is_stmt 1 view .LVU288
 875              		.loc 1 517 7 view .LVU289
 876              		.loc 1 518 7 view .LVU290
 877              		.loc 1 518 22 is_stmt 0 view .LVU291
 878 0286 0A21     		movs	r1, #10
 879 0288 264A     		ldr	r2, .L68+20
 880 028a 0B20     		movs	r0, #11
 881 028c FFF7FEFF 		bl	dmaStreamAllocI
 882              	.LVL51:
 883              		.loc 1 523 7 view .LVU292
 884 0290 254B     		ldr	r3, .L68+24
 885              		.loc 1 518 20 view .LVU293
 886 0292 6062     		str	r0, [r4, #36]
 887              		.loc 1 522 7 is_stmt 1 view .LVU294
 888              		.loc 1 522 7 view .LVU295
 889              		.loc 1 523 7 view .LVU296
 890              		.loc 1 524 7 is_stmt 0 view .LVU297
 891 0294 2521     		movs	r1, #37
 892              		.loc 1 523 7 view .LVU298
 893 0296 D3F8F020 		ldr	r2, [r3, #240]
 894              		.loc 1 524 7 view .LVU299
 895 029a 206A     		ldr	r0, [r4, #32]
 896              		.loc 1 523 7 view .LVU300
 897 029c 42F48052 		orr	r2, r2, #4096
 898 02a0 C3F8F020 		str	r2, [r3, #240]
 899              		.loc 1 523 7 is_stmt 1 view .LVU301
 900              		.loc 1 523 7 view .LVU302
 901 02a4 D3F81821 		ldr	r2, [r3, #280]
 902 02a8 42F48052 		orr	r2, r2, #4096
 903 02ac C3F81821 		str	r2, [r3, #280]
 904              		.loc 1 523 7 view .LVU303
 905 02b0 D3F81831 		ldr	r3, [r3, #280]
 906              		.loc 1 523 26 view .LVU304
 907              		.loc 1 524 7 view .LVU305
 908 02b4 FFF7FEFF 		bl	dmaSetRequestSource
ARM GAS  /tmp/ccID6yuZ.s 			page 17


 909              	.LVL52:
 910              		.loc 1 525 7 view .LVU306
 911 02b8 2621     		movs	r1, #38
 912 02ba 606A     		ldr	r0, [r4, #36]
 913 02bc FFF7FEFF 		bl	dmaSetRequestSource
 914              	.LVL53:
 915 02c0 CAE7     		b	.L54
 916              	.L67:
 917              		.loc 1 547 7 view .LVU307
 918              		.loc 1 547 22 is_stmt 0 view .LVU308
 919 02c2 2346     		mov	r3, r4
 920 02c4 164A     		ldr	r2, .L68+16
 921 02c6 0321     		movs	r1, #3
 922 02c8 0020     		movs	r0, #0
 923 02ca FFF7FEFF 		bl	dmaStreamAllocI
 924              	.LVL54:
 925              		.loc 1 552 22 view .LVU309
 926 02ce 2346     		mov	r3, r4
 927              		.loc 1 547 20 view .LVU310
 928 02d0 2062     		str	r0, [r4, #32]
 929              		.loc 1 551 7 is_stmt 1 view .LVU311
 930              		.loc 1 551 7 view .LVU312
 931              		.loc 1 552 7 view .LVU313
 932              		.loc 1 552 22 is_stmt 0 view .LVU314
 933 02d2 0321     		movs	r1, #3
 934 02d4 134A     		ldr	r2, .L68+20
 935 02d6 0720     		movs	r0, #7
 936 02d8 FFF7FEFF 		bl	dmaStreamAllocI
 937              	.LVL55:
 938              		.loc 1 557 7 view .LVU315
 939 02dc 124B     		ldr	r3, .L68+24
 940              		.loc 1 552 20 view .LVU316
 941 02de 6062     		str	r0, [r4, #36]
 942              		.loc 1 556 7 is_stmt 1 view .LVU317
 943              		.loc 1 556 7 view .LVU318
 944              		.loc 1 557 7 view .LVU319
 945              		.loc 1 558 7 is_stmt 0 view .LVU320
 946 02e0 3D21     		movs	r1, #61
 947              		.loc 1 557 7 view .LVU321
 948 02e2 D3F8E820 		ldr	r2, [r3, #232]
 949              		.loc 1 558 7 view .LVU322
 950 02e6 206A     		ldr	r0, [r4, #32]
 951              		.loc 1 557 7 view .LVU323
 952 02e8 42F40042 		orr	r2, r2, #32768
 953 02ec C3F8E820 		str	r2, [r3, #232]
 954              		.loc 1 557 7 is_stmt 1 view .LVU324
 955              		.loc 1 557 7 view .LVU325
 956 02f0 D3F81021 		ldr	r2, [r3, #272]
 957 02f4 42F40042 		orr	r2, r2, #32768
 958 02f8 C3F81021 		str	r2, [r3, #272]
 959              		.loc 1 557 7 view .LVU326
 960 02fc D3F81031 		ldr	r3, [r3, #272]
 961              		.loc 1 557 26 view .LVU327
 962              		.loc 1 558 7 view .LVU328
 963 0300 FFF7FEFF 		bl	dmaSetRequestSource
 964              	.LVL56:
 965              		.loc 1 559 7 view .LVU329
ARM GAS  /tmp/ccID6yuZ.s 			page 18


 966 0304 3E21     		movs	r1, #62
 967 0306 606A     		ldr	r0, [r4, #36]
 968 0308 FFF7FEFF 		bl	dmaSetRequestSource
 969              	.LVL57:
 970 030c A7E7     		b	.L55
 971              	.L69:
 972 030e 00BF     		.align	2
 973              	.L68:
 974 0310 FFFFB9DF 		.word	-541458433
 975 0314 1F3EFFFF 		.word	-49633
 976 0318 00000000 		.word	SPID1
 977 031c 00000000 		.word	SPID3
 978 0320 00000000 		.word	spi_lld_serve_dma_rx_interrupt
 979 0324 00000000 		.word	spi_lld_serve_dma_tx_interrupt
 980 0328 00440258 		.word	1476543488
 981              		.cfi_endproc
 982              	.LFE369:
 983              		.size	spi_lld_start, .-spi_lld_start
 984              		.align	1
 985 032c AFF30080 		.p2align 4,,15
 986              		.global	spi_lld_stop
 987              		.syntax unified
 988              		.thumb
 989              		.thumb_func
 990              		.fpu fpv4-sp-d16
 991              		.type	spi_lld_stop, %function
 992              	spi_lld_stop:
 993              	.LVL58:
 994              	.LFB370:
 995              		.loc 1 730 36 view -0
 996              		.cfi_startproc
 997              		@ args = 0, pretend = 0, frame = 0
 998              		@ frame_needed = 0, uses_anonymous_args = 0
 999              		.loc 1 733 3 view .LVU331
 1000              		.loc 1 733 6 is_stmt 0 view .LVU332
 1001 0330 0378     		ldrb	r3, [r0]	@ zero_extendqisi2
 1002 0332 022B     		cmp	r3, #2
 1003 0334 00D0     		beq	.L79
 1004 0336 7047     		bx	lr
 1005              	.L79:
 1006              		.loc 1 736 5 is_stmt 1 view .LVU333
 1007              		.loc 1 736 9 is_stmt 0 view .LVU334
 1008 0338 C369     		ldr	r3, [r0, #28]
 1009              		.loc 1 737 21 view .LVU335
 1010 033a 0022     		movs	r2, #0
 1011              		.loc 1 736 20 view .LVU336
 1012 033c 1968     		ldr	r1, [r3]
 1013 033e 21F00101 		bic	r1, r1, #1
 1014              		.loc 1 730 36 view .LVU337
 1015 0342 10B5     		push	{r4, lr}
 1016              		.cfi_def_cfa_offset 8
 1017              		.cfi_offset 4, -8
 1018              		.cfi_offset 14, -4
 1019 0344 0446     		mov	r4, r0
 1020              		.loc 1 756 7 view .LVU338
 1021 0346 006A     		ldr	r0, [r0, #32]
 1022              	.LVL59:
ARM GAS  /tmp/ccID6yuZ.s 			page 19


 1023              		.loc 1 736 20 view .LVU339
 1024 0348 1960     		str	r1, [r3]
 1025              		.loc 1 737 5 is_stmt 1 view .LVU340
 1026              		.loc 1 737 21 is_stmt 0 view .LVU341
 1027 034a 1A60     		str	r2, [r3]
 1028              		.loc 1 738 5 is_stmt 1 view .LVU342
 1029              		.loc 1 738 21 is_stmt 0 view .LVU343
 1030 034c 5A60     		str	r2, [r3, #4]
 1031              		.loc 1 739 5 is_stmt 1 view .LVU344
 1032              		.loc 1 739 21 is_stmt 0 view .LVU345
 1033 034e 9A60     		str	r2, [r3, #8]
 1034              		.loc 1 740 5 is_stmt 1 view .LVU346
 1035              		.loc 1 740 21 is_stmt 0 view .LVU347
 1036 0350 DA60     		str	r2, [r3, #12]
 1037              		.loc 1 741 5 is_stmt 1 view .LVU348
 1038              		.loc 1 741 21 is_stmt 0 view .LVU349
 1039 0352 1A61     		str	r2, [r3, #16]
 1040              		.loc 1 756 7 is_stmt 1 view .LVU350
 1041 0354 FFF7FEFF 		bl	dmaStreamFreeI
 1042              	.LVL60:
 1043              		.loc 1 757 7 view .LVU351
 1044 0358 606A     		ldr	r0, [r4, #36]
 1045 035a FFF7FEFF 		bl	dmaStreamFreeI
 1046              	.LVL61:
 1047              		.loc 1 762 5 view .LVU352
 1048              		.loc 1 762 8 is_stmt 0 view .LVU353
 1049 035e 134B     		ldr	r3, .L82
 1050 0360 9C42     		cmp	r4, r3
 1051 0362 13D0     		beq	.L80
 1052              	.L73:
 1053              		.loc 1 763 23 is_stmt 1 discriminator 1 view .LVU354
 1054              		.loc 1 770 5 discriminator 1 view .LVU355
 1055              		.loc 1 770 8 is_stmt 0 discriminator 1 view .LVU356
 1056 0364 124B     		ldr	r3, .L82+4
 1057 0366 9C42     		cmp	r4, r3
 1058 0368 00D0     		beq	.L81
 1059              		.loc 1 786 1 view .LVU357
 1060 036a 10BD     		pop	{r4, pc}
 1061              	.LVL62:
 1062              	.L81:
 1063              		.loc 1 771 7 is_stmt 1 view .LVU358
 1064 036c 114B     		ldr	r3, .L82+8
 1065 036e D3F8E820 		ldr	r2, [r3, #232]
 1066 0372 22F40042 		bic	r2, r2, #32768
 1067 0376 C3F8E820 		str	r2, [r3, #232]
 1068              		.loc 1 771 7 view .LVU359
 1069 037a D3F81021 		ldr	r2, [r3, #272]
 1070 037e 22F40042 		bic	r2, r2, #32768
 1071 0382 C3F81021 		str	r2, [r3, #272]
 1072              		.loc 1 771 7 view .LVU360
 1073 0386 D3F81031 		ldr	r3, [r3, #272]
 1074              		.loc 1 771 23 view .LVU361
 1075              		.loc 1 786 1 is_stmt 0 view .LVU362
 1076 038a 10BD     		pop	{r4, pc}
 1077              	.LVL63:
 1078              	.L80:
 1079              		.loc 1 763 7 is_stmt 1 view .LVU363
ARM GAS  /tmp/ccID6yuZ.s 			page 20


 1080 038c 094B     		ldr	r3, .L82+8
 1081 038e D3F8F020 		ldr	r2, [r3, #240]
 1082 0392 22F48052 		bic	r2, r2, #4096
 1083 0396 C3F8F020 		str	r2, [r3, #240]
 1084              		.loc 1 763 7 view .LVU364
 1085 039a D3F81821 		ldr	r2, [r3, #280]
 1086 039e 22F48052 		bic	r2, r2, #4096
 1087 03a2 C3F81821 		str	r2, [r3, #280]
 1088              		.loc 1 763 7 view .LVU365
 1089 03a6 D3F81831 		ldr	r3, [r3, #280]
 1090 03aa DBE7     		b	.L73
 1091              	.L83:
 1092              		.align	2
 1093              	.L82:
 1094 03ac 00000000 		.word	SPID1
 1095 03b0 00000000 		.word	SPID3
 1096 03b4 00440258 		.word	1476543488
 1097              		.cfi_endproc
 1098              	.LFE370:
 1099              		.size	spi_lld_stop, .-spi_lld_stop
 1100              		.align	1
 1101 03b8 AFF30080 		.p2align 4,,15
 1101      AFF30080 
 1102              		.global	spi_lld_ignore
 1103              		.syntax unified
 1104              		.thumb
 1105              		.thumb_func
 1106              		.fpu fpv4-sp-d16
 1107              		.type	spi_lld_ignore, %function
 1108              	spi_lld_ignore:
 1109              	.LVL64:
 1110              	.LFB371:
 1111              		.loc 1 826 48 view -0
 1112              		.cfi_startproc
 1113              		@ args = 0, pretend = 0, frame = 0
 1114              		@ frame_needed = 0, uses_anonymous_args = 0
 1115              		@ link register save eliminated.
 1116              		.loc 1 828 3 view .LVU367
 1117              		.loc 1 828 3 view .LVU368
 1118              		.loc 1 852 5 view .LVU369
 1119              		.loc 1 856 5 is_stmt 0 view .LVU370
 1120 03c0 D0E90823 		ldrd	r2, r3, [r0, #32]
 1121              		.loc 1 826 48 view .LVU371
 1122 03c4 70B4     		push	{r4, r5, r6}
 1123              		.cfi_def_cfa_offset 12
 1124              		.cfi_offset 4, -12
 1125              		.cfi_offset 5, -8
 1126              		.cfi_offset 6, -4
 1127              		.loc 1 852 5 view .LVU372
 1128 03c6 1268     		ldr	r2, [r2]
 1129 03c8 0C4C     		ldr	r4, .L86
 1130              		.loc 1 856 5 view .LVU373
 1131 03ca 1B68     		ldr	r3, [r3]
 1132              		.loc 1 854 5 view .LVU374
 1133 03cc 866A     		ldr	r6, [r0, #40]
 1134              		.loc 1 856 5 view .LVU375
 1135 03ce 0C4D     		ldr	r5, .L86+4
ARM GAS  /tmp/ccID6yuZ.s 			page 21


 1136              		.loc 1 852 5 view .LVU376
 1137 03d0 D460     		str	r4, [r2, #12]
 1138              		.loc 1 852 48 is_stmt 1 view .LVU377
 1139              		.loc 1 853 5 view .LVU378
 1140              		.loc 1 858 5 is_stmt 0 view .LVU379
 1141 03d2 C46A     		ldr	r4, [r0, #44]
 1142              		.loc 1 853 5 view .LVU380
 1143 03d4 5160     		str	r1, [r2, #4]
 1144              		.loc 1 853 49 is_stmt 1 view .LVU381
 1145              		.loc 1 854 5 view .LVU382
 1146 03d6 1660     		str	r6, [r2]
 1147              		.loc 1 854 52 view .LVU383
 1148              		.loc 1 856 5 view .LVU384
 1149 03d8 DD60     		str	r5, [r3, #12]
 1150              		.loc 1 856 48 view .LVU385
 1151              		.loc 1 857 5 view .LVU386
 1152 03da 5960     		str	r1, [r3, #4]
 1153              		.loc 1 857 49 view .LVU387
 1154              		.loc 1 858 5 view .LVU388
 1155 03dc 1C60     		str	r4, [r3]
 1156              		.loc 1 858 52 view .LVU389
 1157              		.loc 1 860 5 view .LVU390
 1158 03de 1168     		ldr	r1, [r2]
 1159              	.LVL65:
 1160              		.loc 1 865 7 is_stmt 0 view .LVU391
 1161 03e0 C069     		ldr	r0, [r0, #28]
 1162              	.LVL66:
 1163              		.loc 1 860 5 view .LVU392
 1164 03e2 41F00101 		orr	r1, r1, #1
 1165 03e6 1160     		str	r1, [r2]
 1166              		.loc 1 860 34 is_stmt 1 view .LVU393
 1167              		.loc 1 861 5 view .LVU394
 1168 03e8 1A68     		ldr	r2, [r3]
 1169 03ea 42F00102 		orr	r2, r2, #1
 1170 03ee 1A60     		str	r2, [r3]
 1171              		.loc 1 861 34 view .LVU395
 1172              		.loc 1 865 3 view .LVU396
 1173              		.loc 1 865 18 is_stmt 0 view .LVU397
 1174 03f0 0368     		ldr	r3, [r0]
 1175 03f2 43F40073 		orr	r3, r3, #512
 1176              		.loc 1 866 1 view .LVU398
 1177 03f6 70BC     		pop	{r4, r5, r6}
 1178              		.cfi_restore 6
 1179              		.cfi_restore 5
 1180              		.cfi_restore 4
 1181              		.cfi_def_cfa_offset 0
 1182              		.loc 1 865 18 view .LVU399
 1183 03f8 0360     		str	r3, [r0]
 1184              		.loc 1 866 1 view .LVU400
 1185 03fa 7047     		bx	lr
 1186              	.L87:
 1187              		.align	2
 1188              	.L86:
 1189 03fc 00000000 		.word	.LANCHOR1
 1190 0400 18000000 		.word	.LANCHOR0+24
 1191              		.cfi_endproc
 1192              	.LFE371:
ARM GAS  /tmp/ccID6yuZ.s 			page 22


 1193              		.size	spi_lld_ignore, .-spi_lld_ignore
 1194              		.align	1
 1195 0404 AFF30080 		.p2align 4,,15
 1195      AFF30080 
 1195      AFF30080 
 1196              		.global	spi_lld_exchange
 1197              		.syntax unified
 1198              		.thumb
 1199              		.thumb_func
 1200              		.fpu fpv4-sp-d16
 1201              		.type	spi_lld_exchange, %function
 1202              	spi_lld_exchange:
 1203              	.LVL67:
 1204              	.LFB372:
 1205              		.loc 1 884 55 is_stmt 1 view -0
 1206              		.cfi_startproc
 1207              		@ args = 0, pretend = 0, frame = 0
 1208              		@ frame_needed = 0, uses_anonymous_args = 0
 1209              		.loc 1 886 3 view .LVU402
 1210              		.loc 1 886 3 view .LVU403
 1211              		.loc 1 888 3 view .LVU404
 1212              		.loc 1 884 55 is_stmt 0 view .LVU405
 1213 0410 2DE9F041 		push	{r4, r5, r6, r7, r8, lr}
 1214              		.cfi_def_cfa_offset 24
 1215              		.cfi_offset 4, -24
 1216              		.cfi_offset 5, -20
 1217              		.cfi_offset 6, -16
 1218              		.cfi_offset 7, -12
 1219              		.cfi_offset 8, -8
 1220              		.cfi_offset 14, -4
 1221              		.loc 1 888 3 view .LVU406
 1222 0414 C569     		ldr	r5, [r0, #28]
 1223              	.LBB114:
 1224              	.LBI114:
 1225              		.loc 1 78 13 is_stmt 1 view .LVU407
 1226              	.LVL68:
 1227              	.L89:
 1228              	.LBB115:
 1229              		.loc 1 81 3 view .LVU408
 1230              		.loc 1 80 20 is_stmt 0 view .LVU409
 1231 0416 2C68     		ldr	r4, [r5]
 1232              		.loc 1 80 9 view .LVU410
 1233 0418 A405     		lsls	r4, r4, #22
 1234 041a FCD4     		bmi	.L89
 1235              		.loc 1 82 3 is_stmt 1 view .LVU411
 1236              	.LBE115:
 1237              	.LBE114:
 1238              		.loc 1 912 5 is_stmt 0 view .LVU412
 1239 041c D0F82080 		ldr	r8, [r0, #32]
 1240              	.LBB118:
 1241              	.LBB116:
 1242              		.loc 1 82 19 view .LVU413
 1243 0420 4FF0FF3C 		mov	ip, #-1
 1244              	.LBE116:
 1245              	.LBE118:
 1246              		.loc 1 918 5 view .LVU414
 1247 0424 C66A     		ldr	r6, [r0, #44]
ARM GAS  /tmp/ccID6yuZ.s 			page 23


 1248              		.loc 1 912 5 view .LVU415
 1249 0426 D8F80040 		ldr	r4, [r8]
 1250              		.loc 1 918 5 view .LVU416
 1251 042a 46F48066 		orr	r6, r6, #1024
 1252              		.loc 1 916 5 view .LVU417
 1253 042e D0E909E7 		ldrd	lr, r7, [r0, #36]
 1254 0432 DEF80000 		ldr	r0, [lr]
 1255              	.LVL69:
 1256              		.loc 1 914 5 view .LVU418
 1257 0436 47F48067 		orr	r7, r7, #1024
 1258              	.LBB119:
 1259              	.LBB117:
 1260              		.loc 1 82 19 view .LVU419
 1261 043a C5F818C0 		str	ip, [r5, #24]
 1262              	.LBE117:
 1263              	.LBE119:
 1264              		.loc 1 912 5 is_stmt 1 view .LVU420
 1265 043e E360     		str	r3, [r4, #12]
 1266              		.loc 1 912 45 view .LVU421
 1267              		.loc 1 913 5 view .LVU422
 1268 0440 6160     		str	r1, [r4, #4]
 1269              		.loc 1 913 49 view .LVU423
 1270              		.loc 1 914 5 view .LVU424
 1271 0442 2760     		str	r7, [r4]
 1272              		.loc 1 914 72 view .LVU425
 1273              		.loc 1 916 5 view .LVU426
 1274 0444 C260     		str	r2, [r0, #12]
 1275              		.loc 1 916 45 view .LVU427
 1276              		.loc 1 917 5 view .LVU428
 1277 0446 4160     		str	r1, [r0, #4]
 1278              		.loc 1 917 49 view .LVU429
 1279              		.loc 1 918 5 view .LVU430
 1280 0448 0660     		str	r6, [r0]
 1281              		.loc 1 918 72 view .LVU431
 1282              		.loc 1 920 5 view .LVU432
 1283 044a 2368     		ldr	r3, [r4]
 1284              	.LVL70:
 1285              		.loc 1 920 5 is_stmt 0 view .LVU433
 1286 044c 43F00103 		orr	r3, r3, #1
 1287 0450 2360     		str	r3, [r4]
 1288              		.loc 1 920 34 is_stmt 1 view .LVU434
 1289              		.loc 1 921 5 view .LVU435
 1290 0452 0368     		ldr	r3, [r0]
 1291 0454 43F00103 		orr	r3, r3, #1
 1292 0458 0360     		str	r3, [r0]
 1293              		.loc 1 921 34 view .LVU436
 1294              		.loc 1 925 3 view .LVU437
 1295              		.loc 1 925 18 is_stmt 0 view .LVU438
 1296 045a 2B68     		ldr	r3, [r5]
 1297 045c 43F40073 		orr	r3, r3, #512
 1298 0460 2B60     		str	r3, [r5]
 1299              		.loc 1 926 1 view .LVU439
 1300 0462 BDE8F081 		pop	{r4, r5, r6, r7, r8, pc}
 1301              		.cfi_endproc
 1302              	.LFE372:
 1303              		.size	spi_lld_exchange, .-spi_lld_exchange
 1304              		.align	1
ARM GAS  /tmp/ccID6yuZ.s 			page 24


 1305 0466 00BFAFF3 		.p2align 4,,15
 1305      0080AFF3 
 1305      0080
 1306              		.global	spi_lld_send
 1307              		.syntax unified
 1308              		.thumb
 1309              		.thumb_func
 1310              		.fpu fpv4-sp-d16
 1311              		.type	spi_lld_send, %function
 1312              	spi_lld_send:
 1313              	.LVL71:
 1314              	.LFB373:
 1315              		.loc 1 941 65 is_stmt 1 view -0
 1316              		.cfi_startproc
 1317              		@ args = 0, pretend = 0, frame = 0
 1318              		@ frame_needed = 0, uses_anonymous_args = 0
 1319              		@ link register save eliminated.
 1320              		.loc 1 943 3 view .LVU441
 1321              		.loc 1 943 3 view .LVU442
 1322              		.loc 1 945 3 view .LVU443
 1323              		.loc 1 941 65 is_stmt 0 view .LVU444
 1324 0470 F0B4     		push	{r4, r5, r6, r7}
 1325              		.cfi_def_cfa_offset 16
 1326              		.cfi_offset 4, -16
 1327              		.cfi_offset 5, -12
 1328              		.cfi_offset 6, -8
 1329              		.cfi_offset 7, -4
 1330              		.loc 1 945 3 view .LVU445
 1331 0472 C469     		ldr	r4, [r0, #28]
 1332              	.LBB120:
 1333              	.LBI120:
 1334              		.loc 1 78 13 is_stmt 1 view .LVU446
 1335              	.LVL72:
 1336              	.L93:
 1337              	.LBB121:
 1338              		.loc 1 81 3 view .LVU447
 1339              		.loc 1 80 20 is_stmt 0 view .LVU448
 1340 0474 2368     		ldr	r3, [r4]
 1341              		.loc 1 80 9 view .LVU449
 1342 0476 9B05     		lsls	r3, r3, #22
 1343 0478 FCD4     		bmi	.L93
 1344              		.loc 1 82 3 is_stmt 1 view .LVU450
 1345              	.LBE121:
 1346              	.LBE120:
 1347              		.loc 1 969 5 is_stmt 0 view .LVU451
 1348 047a 056A     		ldr	r5, [r0, #32]
 1349              	.LBB124:
 1350              	.LBB122:
 1351              		.loc 1 82 19 view .LVU452
 1352 047c 4FF0FF37 		mov	r7, #-1
 1353              	.LBE122:
 1354              	.LBE124:
 1355              		.loc 1 973 5 view .LVU453
 1356 0480 D0F824C0 		ldr	ip, [r0, #36]
 1357              		.loc 1 975 5 view .LVU454
 1358 0484 C36A     		ldr	r3, [r0, #44]
 1359              		.loc 1 969 5 view .LVU455
ARM GAS  /tmp/ccID6yuZ.s 			page 25


 1360 0486 2D68     		ldr	r5, [r5]
 1361              		.loc 1 971 5 view .LVU456
 1362 0488 866A     		ldr	r6, [r0, #40]
 1363              		.loc 1 975 5 view .LVU457
 1364 048a 43F48060 		orr	r0, r3, #1024
 1365              	.LVL73:
 1366              		.loc 1 973 5 view .LVU458
 1367 048e DCF80030 		ldr	r3, [ip]
 1368              	.LBB125:
 1369              	.LBB123:
 1370              		.loc 1 82 19 view .LVU459
 1371 0492 A761     		str	r7, [r4, #24]
 1372              	.LBE123:
 1373              	.LBE125:
 1374              		.loc 1 969 5 is_stmt 1 view .LVU460
 1375 0494 0A4F     		ldr	r7, .L96
 1376 0496 EF60     		str	r7, [r5, #12]
 1377              		.loc 1 969 48 view .LVU461
 1378              		.loc 1 970 5 view .LVU462
 1379 0498 6960     		str	r1, [r5, #4]
 1380              		.loc 1 970 49 view .LVU463
 1381              		.loc 1 971 5 view .LVU464
 1382 049a 2E60     		str	r6, [r5]
 1383              		.loc 1 971 52 view .LVU465
 1384              		.loc 1 973 5 view .LVU466
 1385 049c DA60     		str	r2, [r3, #12]
 1386              		.loc 1 973 45 view .LVU467
 1387              		.loc 1 974 5 view .LVU468
 1388 049e 5960     		str	r1, [r3, #4]
 1389              		.loc 1 974 49 view .LVU469
 1390              		.loc 1 975 5 view .LVU470
 1391 04a0 1860     		str	r0, [r3]
 1392              		.loc 1 975 72 view .LVU471
 1393              		.loc 1 977 5 view .LVU472
 1394 04a2 2A68     		ldr	r2, [r5]
 1395              	.LVL74:
 1396              		.loc 1 977 5 is_stmt 0 view .LVU473
 1397 04a4 42F00102 		orr	r2, r2, #1
 1398 04a8 2A60     		str	r2, [r5]
 1399              		.loc 1 977 34 is_stmt 1 view .LVU474
 1400              		.loc 1 978 5 view .LVU475
 1401 04aa 1A68     		ldr	r2, [r3]
 1402 04ac 42F00102 		orr	r2, r2, #1
 1403 04b0 1A60     		str	r2, [r3]
 1404              		.loc 1 978 34 view .LVU476
 1405              		.loc 1 982 3 view .LVU477
 1406              		.loc 1 982 18 is_stmt 0 view .LVU478
 1407 04b2 2368     		ldr	r3, [r4]
 1408 04b4 43F40073 		orr	r3, r3, #512
 1409 04b8 2360     		str	r3, [r4]
 1410              		.loc 1 983 1 view .LVU479
 1411 04ba F0BC     		pop	{r4, r5, r6, r7}
 1412              		.cfi_restore 7
 1413              		.cfi_restore 6
 1414              		.cfi_restore 5
 1415              		.cfi_restore 4
 1416              		.cfi_def_cfa_offset 0
ARM GAS  /tmp/ccID6yuZ.s 			page 26


 1417 04bc 7047     		bx	lr
 1418              	.L97:
 1419 04be 00BF     		.align	2
 1420              	.L96:
 1421 04c0 00000000 		.word	.LANCHOR1
 1422              		.cfi_endproc
 1423              	.LFE373:
 1424              		.size	spi_lld_send, .-spi_lld_send
 1425              		.align	1
 1426 04c4 AFF30080 		.p2align 4,,15
 1426      AFF30080 
 1426      AFF30080 
 1427              		.global	spi_lld_receive
 1428              		.syntax unified
 1429              		.thumb
 1430              		.thumb_func
 1431              		.fpu fpv4-sp-d16
 1432              		.type	spi_lld_receive, %function
 1433              	spi_lld_receive:
 1434              	.LVL75:
 1435              	.LFB374:
 1436              		.loc 1 998 62 is_stmt 1 view -0
 1437              		.cfi_startproc
 1438              		@ args = 0, pretend = 0, frame = 0
 1439              		@ frame_needed = 0, uses_anonymous_args = 0
 1440              		@ link register save eliminated.
 1441              		.loc 1 1000 3 view .LVU481
 1442              		.loc 1 1000 3 view .LVU482
 1443              		.loc 1 1002 3 view .LVU483
 1444              		.loc 1 998 62 is_stmt 0 view .LVU484
 1445 04d0 F0B4     		push	{r4, r5, r6, r7}
 1446              		.cfi_def_cfa_offset 16
 1447              		.cfi_offset 4, -16
 1448              		.cfi_offset 5, -12
 1449              		.cfi_offset 6, -8
 1450              		.cfi_offset 7, -4
 1451              		.loc 1 1002 3 view .LVU485
 1452 04d2 C469     		ldr	r4, [r0, #28]
 1453              	.LBB126:
 1454              	.LBI126:
 1455              		.loc 1 78 13 is_stmt 1 view .LVU486
 1456              	.LVL76:
 1457              	.L99:
 1458              	.LBB127:
 1459              		.loc 1 81 3 view .LVU487
 1460              		.loc 1 80 20 is_stmt 0 view .LVU488
 1461 04d4 2368     		ldr	r3, [r4]
 1462              		.loc 1 80 9 view .LVU489
 1463 04d6 9B05     		lsls	r3, r3, #22
 1464 04d8 FCD4     		bmi	.L99
 1465              		.loc 1 82 3 is_stmt 1 view .LVU490
 1466              	.LBE127:
 1467              	.LBE126:
 1468              		.loc 1 1028 5 is_stmt 0 view .LVU491
 1469 04da 836A     		ldr	r3, [r0, #40]
 1470              	.LBB130:
 1471              	.LBB128:
ARM GAS  /tmp/ccID6yuZ.s 			page 27


 1472              		.loc 1 82 19 view .LVU492
 1473 04dc 4FF0FF37 		mov	r7, #-1
 1474              	.LBE128:
 1475              	.LBE130:
 1476              		.loc 1 1026 5 view .LVU493
 1477 04e0 056A     		ldr	r5, [r0, #32]
 1478              		.loc 1 1028 5 view .LVU494
 1479 04e2 43F48066 		orr	r6, r3, #1024
 1480              		.loc 1 1030 5 view .LVU495
 1481 04e6 436A     		ldr	r3, [r0, #36]
 1482              		.loc 1 1026 5 view .LVU496
 1483 04e8 2D68     		ldr	r5, [r5]
 1484              		.loc 1 1030 5 view .LVU497
 1485 04ea 1B68     		ldr	r3, [r3]
 1486              		.loc 1 1032 5 view .LVU498
 1487 04ec C06A     		ldr	r0, [r0, #44]
 1488              	.LVL77:
 1489              	.LBB131:
 1490              	.LBB129:
 1491              		.loc 1 82 19 view .LVU499
 1492 04ee A761     		str	r7, [r4, #24]
 1493              	.LBE129:
 1494              	.LBE131:
 1495              		.loc 1 1026 5 is_stmt 1 view .LVU500
 1496 04f0 EA60     		str	r2, [r5, #12]
 1497              		.loc 1 1026 45 view .LVU501
 1498              		.loc 1 1027 5 view .LVU502
 1499              		.loc 1 1030 5 is_stmt 0 view .LVU503
 1500 04f2 0A4A     		ldr	r2, .L102
 1501              	.LVL78:
 1502              		.loc 1 1027 5 view .LVU504
 1503 04f4 6960     		str	r1, [r5, #4]
 1504              	.LVL79:
 1505              		.loc 1 1027 49 is_stmt 1 view .LVU505
 1506              		.loc 1 1028 5 view .LVU506
 1507 04f6 2E60     		str	r6, [r5]
 1508              		.loc 1 1028 72 view .LVU507
 1509              		.loc 1 1030 5 view .LVU508
 1510 04f8 DA60     		str	r2, [r3, #12]
 1511              		.loc 1 1030 48 view .LVU509
 1512              		.loc 1 1031 5 view .LVU510
 1513 04fa 5960     		str	r1, [r3, #4]
 1514              		.loc 1 1031 49 view .LVU511
 1515              		.loc 1 1032 5 view .LVU512
 1516 04fc 1860     		str	r0, [r3]
 1517              		.loc 1 1032 52 view .LVU513
 1518              		.loc 1 1034 5 view .LVU514
 1519 04fe 2A68     		ldr	r2, [r5]
 1520 0500 42F00102 		orr	r2, r2, #1
 1521 0504 2A60     		str	r2, [r5]
 1522              		.loc 1 1034 34 view .LVU515
 1523              		.loc 1 1035 5 view .LVU516
 1524 0506 1A68     		ldr	r2, [r3]
 1525 0508 42F00102 		orr	r2, r2, #1
 1526 050c 1A60     		str	r2, [r3]
 1527              		.loc 1 1035 34 view .LVU517
 1528              		.loc 1 1039 3 view .LVU518
ARM GAS  /tmp/ccID6yuZ.s 			page 28


 1529              		.loc 1 1039 18 is_stmt 0 view .LVU519
 1530 050e 2368     		ldr	r3, [r4]
 1531 0510 43F40073 		orr	r3, r3, #512
 1532 0514 2360     		str	r3, [r4]
 1533              		.loc 1 1040 1 view .LVU520
 1534 0516 F0BC     		pop	{r4, r5, r6, r7}
 1535              		.cfi_restore 7
 1536              		.cfi_restore 6
 1537              		.cfi_restore 5
 1538              		.cfi_restore 4
 1539              		.cfi_def_cfa_offset 0
 1540 0518 7047     		bx	lr
 1541              	.L103:
 1542 051a 00BF     		.align	2
 1543              	.L102:
 1544 051c 18000000 		.word	.LANCHOR0+24
 1545              		.cfi_endproc
 1546              	.LFE374:
 1547              		.size	spi_lld_receive, .-spi_lld_receive
 1548              		.align	1
 1549              		.p2align 4,,15
 1550              		.global	spi_lld_abort
 1551              		.syntax unified
 1552              		.thumb
 1553              		.thumb_func
 1554              		.fpu fpv4-sp-d16
 1555              		.type	spi_lld_abort, %function
 1556              	spi_lld_abort:
 1557              	.LVL80:
 1558              	.LFB375:
 1559              		.loc 1 1050 37 is_stmt 1 view -0
 1560              		.cfi_startproc
 1561              		@ args = 0, pretend = 0, frame = 0
 1562              		@ frame_needed = 0, uses_anonymous_args = 0
 1563              		@ link register save eliminated.
 1564              		.loc 1 1053 3 view .LVU522
 1565              		.loc 1 1053 7 is_stmt 0 view .LVU523
 1566 0520 C269     		ldr	r2, [r0, #28]
 1567              		.loc 1 1053 18 view .LVU524
 1568 0522 1368     		ldr	r3, [r2]
 1569 0524 43F48063 		orr	r3, r3, #1024
 1570              		.loc 1 1050 37 view .LVU525
 1571 0528 10B4     		push	{r4}
 1572              		.cfi_def_cfa_offset 4
 1573              		.cfi_offset 4, -4
 1574              		.loc 1 1053 18 view .LVU526
 1575 052a 1360     		str	r3, [r2]
 1576              		.loc 1 1055 3 is_stmt 1 view .LVU527
 1577              	.LBB132:
 1578              	.LBI132:
 1579              		.loc 1 78 13 view .LVU528
 1580              	.LVL81:
 1581              	.L105:
 1582              	.LBB133:
 1583              		.loc 1 81 3 view .LVU529
 1584              		.loc 1 80 20 is_stmt 0 view .LVU530
 1585 052c 1368     		ldr	r3, [r2]
ARM GAS  /tmp/ccID6yuZ.s 			page 29


 1586              		.loc 1 80 9 view .LVU531
 1587 052e 9905     		lsls	r1, r3, #22
 1588 0530 FCD4     		bmi	.L105
 1589              		.loc 1 82 3 is_stmt 1 view .LVU532
 1590              	.LBE133:
 1591              	.LBE132:
 1592              		.loc 1 1072 5 is_stmt 0 view .LVU533
 1593 0532 446A     		ldr	r4, [r0, #36]
 1594              	.LBB136:
 1595              	.LBB134:
 1596              		.loc 1 82 19 view .LVU534
 1597 0534 4FF0FF33 		mov	r3, #-1
 1598              	.LBE134:
 1599              	.LBE136:
 1600              		.loc 1 1072 5 view .LVU535
 1601 0538 2168     		ldr	r1, [r4]
 1602              	.LBB137:
 1603              	.LBB135:
 1604              		.loc 1 82 19 view .LVU536
 1605 053a 9361     		str	r3, [r2, #24]
 1606              	.LBE135:
 1607              	.LBE137:
 1608              		.loc 1 1072 5 is_stmt 1 view .LVU537
 1609 053c 0B68     		ldr	r3, [r1]
 1610 053e 23F01F03 		bic	r3, r3, #31
 1611 0542 0B60     		str	r3, [r1]
 1612              		.loc 1 1072 5 view .LVU538
 1613              	.L106:
 1614              		.loc 1 1072 5 discriminator 2 view .LVU539
 1615 0544 0B68     		ldr	r3, [r1]
 1616 0546 DA07     		lsls	r2, r3, #31
 1617 0548 FCD4     		bmi	.L106
 1618              		.loc 1 1072 5 discriminator 3 view .LVU540
 1619 054a 227B     		ldrb	r2, [r4, #12]	@ zero_extendqisi2
 1620 054c 3D23     		movs	r3, #61
 1621              		.loc 1 1073 5 is_stmt 0 discriminator 3 view .LVU541
 1622 054e 016A     		ldr	r1, [r0, #32]
 1623              		.loc 1 1072 5 discriminator 3 view .LVU542
 1624 0550 9340     		lsls	r3, r3, r2
 1625 0552 6068     		ldr	r0, [r4, #4]
 1626              	.LVL82:
 1627              		.loc 1 1073 5 discriminator 3 view .LVU543
 1628 0554 0A68     		ldr	r2, [r1]
 1629              		.loc 1 1072 5 discriminator 3 view .LVU544
 1630 0556 0360     		str	r3, [r0]
 1631              		.loc 1 1072 5 is_stmt 1 discriminator 3 view .LVU545
 1632              		.loc 1 1072 35 discriminator 3 view .LVU546
 1633              		.loc 1 1073 5 discriminator 3 view .LVU547
 1634 0558 1368     		ldr	r3, [r2]
 1635 055a 23F01F03 		bic	r3, r3, #31
 1636 055e 1360     		str	r3, [r2]
 1637              		.loc 1 1073 5 discriminator 3 view .LVU548
 1638              	.L107:
 1639              		.loc 1 1073 5 discriminator 2 view .LVU549
 1640 0560 1368     		ldr	r3, [r2]
 1641 0562 DB07     		lsls	r3, r3, #31
 1642 0564 FCD4     		bmi	.L107
ARM GAS  /tmp/ccID6yuZ.s 			page 30


 1643              		.loc 1 1073 5 discriminator 3 view .LVU550
 1644 0566 087B     		ldrb	r0, [r1, #12]	@ zero_extendqisi2
 1645 0568 3D23     		movs	r3, #61
 1646 056a 4A68     		ldr	r2, [r1, #4]
 1647 056c 8340     		lsls	r3, r3, r0
 1648              		.loc 1 1076 1 is_stmt 0 discriminator 3 view .LVU551
 1649 056e 5DF8044B 		ldr	r4, [sp], #4
 1650              		.cfi_restore 4
 1651              		.cfi_def_cfa_offset 0
 1652              		.loc 1 1073 5 discriminator 3 view .LVU552
 1653 0572 1360     		str	r3, [r2]
 1654              		.loc 1 1073 5 is_stmt 1 discriminator 3 view .LVU553
 1655              		.loc 1 1073 35 discriminator 3 view .LVU554
 1656              		.loc 1 1076 1 is_stmt 0 discriminator 3 view .LVU555
 1657 0574 7047     		bx	lr
 1658              		.cfi_endproc
 1659              	.LFE375:
 1660              		.size	spi_lld_abort, .-spi_lld_abort
 1661              		.align	1
 1662 0576 00BFAFF3 		.p2align 4,,15
 1662      0080AFF3 
 1662      0080
 1663              		.global	spi_lld_polled_exchange
 1664              		.syntax unified
 1665              		.thumb
 1666              		.thumb_func
 1667              		.fpu fpv4-sp-d16
 1668              		.type	spi_lld_polled_exchange, %function
 1669              	spi_lld_polled_exchange:
 1670              	.LVL83:
 1671              	.LFB376:
 1672              		.loc 1 1093 67 is_stmt 1 view -0
 1673              		.cfi_startproc
 1674              		@ args = 0, pretend = 0, frame = 0
 1675              		@ frame_needed = 0, uses_anonymous_args = 0
 1676              		@ link register save eliminated.
 1677              		.loc 1 1094 3 view .LVU557
 1678              		.loc 1 1094 25 is_stmt 0 view .LVU558
 1679 0580 C369     		ldr	r3, [r0, #28]
 1680              		.loc 1 1093 67 view .LVU559
 1681 0582 10B4     		push	{r4}
 1682              		.cfi_def_cfa_offset 4
 1683              		.cfi_offset 4, -4
 1684              		.loc 1 1094 30 view .LVU560
 1685 0584 9C68     		ldr	r4, [r3, #8]
 1686              		.loc 1 1094 37 view .LVU561
 1687 0586 04F01F04 		and	r4, r4, #31
 1688              		.loc 1 1094 12 view .LVU562
 1689 058a 0134     		adds	r4, r4, #1
 1690              	.LVL84:
 1691              		.loc 1 1095 3 is_stmt 1 view .LVU563
 1692              		.loc 1 1097 3 view .LVU564
 1693              	.LBB138:
 1694              	.LBI138:
 1695              		.loc 1 78 13 view .LVU565
 1696              	.L113:
 1697              	.LBB139:
ARM GAS  /tmp/ccID6yuZ.s 			page 31


 1698              		.loc 1 81 3 view .LVU566
 1699              		.loc 1 80 20 is_stmt 0 view .LVU567
 1700 058c 1A68     		ldr	r2, [r3]
 1701              		.loc 1 80 9 view .LVU568
 1702 058e 9205     		lsls	r2, r2, #22
 1703 0590 FCD4     		bmi	.L113
 1704              		.loc 1 82 3 is_stmt 1 view .LVU569
 1705              		.loc 1 82 19 is_stmt 0 view .LVU570
 1706 0592 4FF0FF32 		mov	r2, #-1
 1707 0596 9A61     		str	r2, [r3, #24]
 1708              	.LBE139:
 1709              	.LBE138:
 1710              		.loc 1 1099 3 is_stmt 1 view .LVU571
 1711              		.loc 1 1099 18 is_stmt 0 view .LVU572
 1712 0598 1A68     		ldr	r2, [r3]
 1713 059a 42F40072 		orr	r2, r2, #512
 1714 059e 1A60     		str	r2, [r3]
 1715              		.loc 1 1102 3 is_stmt 1 view .LVU573
 1716              	.L114:
 1717              		.loc 1 1103 5 discriminator 1 view .LVU574
 1718              		.loc 1 1102 20 is_stmt 0 discriminator 1 view .LVU575
 1719 05a0 5A69     		ldr	r2, [r3, #20]
 1720              		.loc 1 1102 9 discriminator 1 view .LVU576
 1721 05a2 9207     		lsls	r2, r2, #30
 1722 05a4 FCD5     		bpl	.L114
 1723              		.loc 1 1107 3 is_stmt 1 view .LVU577
 1724              		.loc 1 1107 6 is_stmt 0 view .LVU578
 1725 05a6 082C     		cmp	r4, #8
 1726 05a8 0AD9     		bls	.L131
 1727              		.loc 1 1116 8 is_stmt 1 view .LVU579
 1728              		.loc 1 1116 11 is_stmt 0 view .LVU580
 1729 05aa 102C     		cmp	r4, #16
 1730 05ac 19D8     		bhi	.L118
 1731              	.LBB140:
 1732              		.loc 1 1118 5 is_stmt 1 view .LVU581
 1733              	.LVL85:
 1734              		.loc 1 1119 5 view .LVU582
 1735              		.loc 1 1120 5 view .LVU583
 1736              		.loc 1 1120 16 is_stmt 0 view .LVU584
 1737 05ae 89B2     		uxth	r1, r1
 1738              	.LVL86:
 1739              		.loc 1 1120 14 view .LVU585
 1740 05b0 1984     		strh	r1, [r3, #32]	@ movhi
 1741              		.loc 1 1121 5 is_stmt 1 view .LVU586
 1742              	.L119:
 1743              		.loc 1 1122 7 discriminator 1 view .LVU587
 1744              		.loc 1 1121 22 is_stmt 0 discriminator 1 view .LVU588
 1745 05b2 5A69     		ldr	r2, [r3, #20]
 1746              		.loc 1 1121 11 discriminator 1 view .LVU589
 1747 05b4 D107     		lsls	r1, r2, #31
 1748 05b6 FCD5     		bpl	.L119
 1749              		.loc 1 1123 5 is_stmt 1 view .LVU590
 1750              		.loc 1 1123 25 is_stmt 0 view .LVU591
 1751 05b8 188E     		ldrh	r0, [r3, #48]
 1752              	.LVL87:
 1753              		.loc 1 1123 25 view .LVU592
 1754              	.LBE140:
ARM GAS  /tmp/ccID6yuZ.s 			page 32


 1755 05ba 1946     		mov	r1, r3
 1756              	.LBB141:
 1757 05bc 80B2     		uxth	r0, r0
 1758              	.LVL88:
 1759              		.loc 1 1123 25 view .LVU593
 1760              	.LBE141:
 1761 05be 09E0     		b	.L117
 1762              	.LVL89:
 1763              	.L131:
 1764              	.LBB142:
 1765              		.loc 1 1109 5 is_stmt 1 view .LVU594
 1766              		.loc 1 1110 5 view .LVU595
 1767              		.loc 1 1111 5 view .LVU596
 1768              		.loc 1 1111 15 is_stmt 0 view .LVU597
 1769 05c0 C9B2     		uxtb	r1, r1
 1770              	.LVL90:
 1771              		.loc 1 1111 13 view .LVU598
 1772 05c2 83F82010 		strb	r1, [r3, #32]
 1773              		.loc 1 1112 5 is_stmt 1 view .LVU599
 1774              		.loc 1 1112 17 is_stmt 0 view .LVU600
 1775 05c6 C169     		ldr	r1, [r0, #28]
 1776              	.LVL91:
 1777              	.L116:
 1778              		.loc 1 1113 7 is_stmt 1 discriminator 1 view .LVU601
 1779              		.loc 1 1112 22 is_stmt 0 discriminator 1 view .LVU602
 1780 05c8 4A69     		ldr	r2, [r1, #20]
 1781              		.loc 1 1112 11 discriminator 1 view .LVU603
 1782 05ca D007     		lsls	r0, r2, #31
 1783 05cc FCD5     		bpl	.L116
 1784              		.loc 1 1114 5 is_stmt 1 view .LVU604
 1785              		.loc 1 1114 25 is_stmt 0 view .LVU605
 1786 05ce 93F83000 		ldrb	r0, [r3, #48]	@ zero_extendqisi2
 1787 05d2 C0B2     		uxtb	r0, r0
 1788              	.LVL92:
 1789              	.L117:
 1790              		.loc 1 1114 25 view .LVU606
 1791              	.LBE142:
 1792              		.loc 1 1133 3 is_stmt 1 view .LVU607
 1793              		.loc 1 1133 18 is_stmt 0 view .LVU608
 1794 05d4 0B68     		ldr	r3, [r1]
 1795              		.loc 1 1136 1 view .LVU609
 1796 05d6 5DF8044B 		ldr	r4, [sp], #4
 1797              		.cfi_remember_state
 1798              		.cfi_restore 4
 1799              		.cfi_def_cfa_offset 0
 1800              	.LVL93:
 1801              		.loc 1 1133 18 view .LVU610
 1802 05da 43F48063 		orr	r3, r3, #1024
 1803 05de 0B60     		str	r3, [r1]
 1804              		.loc 1 1135 3 is_stmt 1 view .LVU611
 1805              		.loc 1 1136 1 is_stmt 0 view .LVU612
 1806 05e0 7047     		bx	lr
 1807              	.LVL94:
 1808              	.L118:
 1809              		.cfi_restore_state
 1810              		.loc 1 1127 5 is_stmt 1 view .LVU613
 1811              		.loc 1 1127 21 is_stmt 0 view .LVU614
ARM GAS  /tmp/ccID6yuZ.s 			page 33


 1812 05e2 1962     		str	r1, [r3, #32]
 1813              		.loc 1 1128 5 is_stmt 1 view .LVU615
 1814              	.L120:
 1815              		.loc 1 1129 7 discriminator 1 view .LVU616
 1816              		.loc 1 1128 22 is_stmt 0 discriminator 1 view .LVU617
 1817 05e4 5A69     		ldr	r2, [r3, #20]
 1818              		.loc 1 1128 11 discriminator 1 view .LVU618
 1819 05e6 D207     		lsls	r2, r2, #31
 1820 05e8 FCD5     		bpl	.L120
 1821              		.loc 1 1130 5 is_stmt 1 view .LVU619
 1822              		.loc 1 1130 13 is_stmt 0 view .LVU620
 1823 05ea 186B     		ldr	r0, [r3, #48]
 1824              	.LVL95:
 1825              		.loc 1 1130 13 view .LVU621
 1826 05ec 1946     		mov	r1, r3
 1827              	.LVL96:
 1828              		.loc 1 1130 13 view .LVU622
 1829 05ee F1E7     		b	.L117
 1830              		.cfi_endproc
 1831              	.LFE376:
 1832              		.size	spi_lld_polled_exchange, .-spi_lld_polled_exchange
 1833              		.comm	SPID3,48,4
 1834              		.comm	SPID1,48,4
 1835              		.section	.rodata
 1836              		.align	2
 1837              		.set	.LANCHOR0,. + 0
 1838              		.type	__func__.11771, %object
 1839              		.size	__func__.11771, 9
 1840              	__func__.11771:
 1841 0000 56656374 		.ascii	"VectorCC\000"
 1841      6F724343 
 1841      00
 1842 0009 000000   		.space	3
 1843              		.type	__func__.11775, %object
 1844              		.size	__func__.11775, 10
 1845              	__func__.11775:
 1846 000c 56656374 		.ascii	"Vector10C\000"
 1846      6F723130 
 1846      4300
 1847 0016 0000     		.space	2
 1848              		.type	dummytx, %object
 1849              		.size	dummytx, 4
 1850              	dummytx:
 1851 0018 FFFFFFFF 		.word	-1
 1852              		.bss
 1853              		.align	2
 1854              		.set	.LANCHOR1,. + 0
 1855              		.type	dummyrx, %object
 1856              		.size	dummyrx, 4
 1857              	dummyrx:
 1858 0000 00000000 		.space	4
 1859              		.section	.rodata.str1.4,"aMS",%progbits,1
 1860              		.align	2
 1861              	.LC0:
 1862 0000 444D4120 		.ascii	"DMA failure\000"
 1862      6661696C 
 1862      75726500 
ARM GAS  /tmp/ccID6yuZ.s 			page 34


 1863              		.text
 1864              	.Letext0:
 1865              		.file 6 "/home/nicolas/arm/gcc-arm-none-eabi-8-2019-q3-update/lib/gcc/arm-none-eabi/8.3.1/include/
 1866              		.file 7 "/home/nicolas/arm/gcc-arm-none-eabi-8-2019-q3-update/arm-none-eabi/include/machine/_defau
 1867              		.file 8 "/home/nicolas/arm/gcc-arm-none-eabi-8-2019-q3-update/arm-none-eabi/include/sys/_stdint.h"
 1868              		.file 9 "/home/nicolas/arm/gcc-arm-none-eabi-8-2019-q3-update/arm-none-eabi/include/stdint.h"
 1869              		.file 10 "../../../external/ChibiOS/os/common/ports/ARMCMx/compilers/GCC/chtypes.h"
 1870              		.file 11 "../../../external/ChibiOS/os/rt/include/chsystypes.h"
 1871              		.file 12 "../../../external/ChibiOS/os/rt/include/chschd.h"
 1872              		.file 13 "../../../external/ChibiOS/os/rt/include/chtime.h"
 1873              		.file 14 "../../../external/ChibiOS/os/common/ext/ARM/CMSIS/Core/Include/core_cm7.h"
 1874              		.file 15 "../../../external/ChibiOS/os/common/ext/ST/STM32H7xx/system_stm32h7xx.h"
 1875              		.file 16 "../../../external/ChibiOS/os/common/ext/ST/STM32H7xx/stm32h753xx.h"
 1876              		.file 17 "../../../external/ChibiOS/os/common/ports/ARMCMx/chcore.h"
 1877              		.file 18 "../../../external/ChibiOS/os/rt/include/chtrace.h"
 1878              		.file 19 "../../../external/ChibiOS/os/rt/include/chtm.h"
 1879              		.file 20 "../../../external/ChibiOS/os/rt/include/chsem.h"
 1880              		.file 21 "../../../external/ChibiOS/os/rt/include/chmtx.h"
 1881              		.file 22 "../../../external/ChibiOS/os/rt/include/chregistry.h"
 1882              		.file 23 "../../../external/ChibiOS/os/rt/include/chevents.h"
 1883              		.file 24 "../../../external/ChibiOS/os/oslib/include/chmemcore.h"
 1884              		.file 25 "../../../external/ChibiOS/os/oslib/include/chmempools.h"
 1885              		.file 26 "../../../external/ChibiOS/os/oslib/include/chfactory.h"
 1886              		.file 27 "../../../external/ChibiOS/os/hal/ports/STM32/LLD/DMAv2/stm32_dma.h"
 1887              		.file 28 "../../../external/ChibiOS/os/hal/ports/STM32/LLD/BDMAv1/stm32_bdma.h"
 1888              		.file 29 "../../../external/ChibiOS/os/hal/ports/STM32/LLD/TIMv1/stm32_tim.h"
 1889              		.file 30 "../../../external/ChibiOS/os/hal/include/hal_ioblock.h"
 1890              		.file 31 "../../../external/ChibiOS/os/hal/include/hal_queues.h"
 1891              		.file 32 "../../../external/ChibiOS/os/hal/ports/STM32/LLD/GPIOv2/stm32_gpio.h"
 1892              		.file 33 "../../../external/ChibiOS/os/hal/ports/STM32/LLD/GPIOv2/hal_pal_lld.h"
 1893              		.file 34 "../../../external/ChibiOS/os/hal/include/hal_adc.h"
 1894              		.file 35 "../../../external/ChibiOS/os/hal/ports/STM32/LLD/ADCv4/hal_adc_lld.h"
 1895              		.file 36 "../../../external/ChibiOS/os/hal/include/hal_i2c.h"
 1896              		.file 37 "../../../external/ChibiOS/os/hal/ports/STM32/LLD/I2Cv3/hal_i2c_lld.h"
 1897              		.file 38 "../../../external/ChibiOS/os/hal/include/hal_pwm.h"
 1898              		.file 39 "../../../external/ChibiOS/os/hal/ports/STM32/LLD/TIMv1/hal_pwm_lld.h"
 1899              		.file 40 "../../../external/ChibiOS/os/hal/include/hal_serial.h"
 1900              		.file 41 "../../../external/ChibiOS/os/hal/ports/STM32/LLD/USARTv2/hal_serial_lld.h"
 1901              		.file 42 "../../../external/ChibiOS/os/hal/include/hal_sdc.h"
 1902              		.file 43 "../../../external/ChibiOS/os/hal/ports/STM32/LLD/SDMMCv2/hal_sdc_lld.h"
 1903              		.file 44 "../../../external/ChibiOS/os/hal/include/hal_spi.h"
 1904              		.file 45 "../../../external/ChibiOS/os/hal/ports/STM32/LLD/SPIv3/hal_spi_lld.h"
 1905              		.file 46 "../../../external/ChibiOS/os/hal/include/hal_trng.h"
 1906              		.file 47 "../../../external/ChibiOS/os/hal/ports/STM32/LLD/RNGv1/hal_trng_lld.h"
 1907              		.file 48 "../../../external/ChibiOS/os/hal/include/hal_usb.h"
 1908              		.file 49 "../../../external/ChibiOS/os/hal/ports/STM32/LLD/OTGv1/hal_usb_lld.h"
 1909              		.file 50 "../../../external/ChibiOS/os/hal/ports/STM32/LLD/OTGv1/stm32_otg.h"
 1910              		.file 51 "../../../external/ChibiOS-Contrib/os/hal/include/hal_fsmc.h"
 1911              		.file 52 "../../../external/ChibiOS-Contrib/os/hal/include/hal_sdram.h"
 1912              		.file 53 "../../../external/ChibiOS/os/hal/ports/common/ARMCMx/nvic.h"
 1913              		.file 54 "../../../external/ChibiOS/os/rt/include/ch.h"
 1914              		.file 55 "../../../external/ChibiOS/os/rt/include/chthreads.h"