ARM GAS  /tmp/cc0VGVIX.s 			page 1


   1              		.cpu cortex-m7
   2              		.eabi_attribute 27, 1
   3              		.eabi_attribute 28, 1
   4              		.eabi_attribute 20, 1
   5              		.eabi_attribute 21, 1
   6              		.eabi_attribute 23, 3
   7              		.eabi_attribute 24, 1
   8              		.eabi_attribute 25, 1
   9              		.eabi_attribute 26, 1
  10              		.eabi_attribute 30, 2
  11              		.eabi_attribute 34, 1
  12              		.eabi_attribute 18, 4
  13              		.file	"hal_lld.c"
  14              		.text
  15              	.Ltext0:
  16              		.cfi_sections	.debug_frame
  17              		.align	1
  18              		.p2align 4,,15
  19              		.global	hal_lld_init
  20              		.arch armv7e-m
  21              		.syntax unified
  22              		.thumb
  23              		.thumb_func
  24              		.fpu fpv4-sp-d16
  25              		.type	hal_lld_init, %function
  26              	hal_lld_init:
  27              	.LFB364:
  28              		.file 1 "../../../external/ChibiOS/os/hal/ports/STM32/STM32H7xx/hal_lld.c"
  29              		.loc 1 136 25 view -0
  30              		.cfi_startproc
  31              		@ args = 0, pretend = 0, frame = 0
  32              		@ frame_needed = 0, uses_anonymous_args = 0
  33              		.loc 1 143 3 view .LVU1
  34 0000 494B     		ldr	r3, .L8
  35 0002 4FF0FF32 		mov	r2, #-1
  36              		.loc 1 145 3 is_stmt 0 view .LVU2
  37 0006 4949     		ldr	r1, .L8+4
  38              		.loc 1 143 3 view .LVU3
  39 0008 D3F88000 		ldr	r0, [r3, #128]
  40              		.loc 1 136 25 view .LVU4
  41 000c 70B5     		push	{r4, r5, r6, lr}
  42              		.cfi_def_cfa_offset 16
  43              		.cfi_offset 4, -16
  44              		.cfi_offset 5, -12
  45              		.cfi_offset 6, -8
  46              		.cfi_offset 14, -4
  47              		.loc 1 143 3 view .LVU5
  48 000e 0024     		movs	r4, #0
  49 0010 C3F88020 		str	r2, [r3, #128]
  50              		.loc 1 143 3 is_stmt 1 view .LVU6
  51 0014 D3F88000 		ldr	r0, [r3, #128]
  52 0018 C3F88040 		str	r4, [r3, #128]
  53              		.loc 1 143 3 view .LVU7
  54 001c D3F88000 		ldr	r0, [r3, #128]
  55              		.loc 1 143 19 view .LVU8
  56              		.loc 1 144 3 view .LVU9
  57 0020 D3F88400 		ldr	r0, [r3, #132]
ARM GAS  /tmp/cc0VGVIX.s 			page 2


  58 0024 C3F88420 		str	r2, [r3, #132]
  59              		.loc 1 144 3 view .LVU10
  60 0028 D3F88400 		ldr	r0, [r3, #132]
  61 002c C3F88440 		str	r4, [r3, #132]
  62              		.loc 1 144 3 view .LVU11
  63 0030 D3F88400 		ldr	r0, [r3, #132]
  64              		.loc 1 144 19 view .LVU12
  65              		.loc 1 145 3 view .LVU13
  66 0034 DD6F     		ldr	r5, [r3, #124]
  67 0036 3E4E     		ldr	r6, .L8+8
  68 0038 0D43     		orrs	r5, r5, r1
  69              		.loc 1 147 3 is_stmt 0 view .LVU14
  70 003a 3E49     		ldr	r1, .L8+12
  71              		.loc 1 145 3 view .LVU15
  72 003c DD67     		str	r5, [r3, #124]
  73              		.loc 1 145 3 is_stmt 1 view .LVU16
  74 003e D86F     		ldr	r0, [r3, #124]
  75              	.LBB22:
  76              		.loc 1 189 5 is_stmt 0 view .LVU17
  77 0040 3D4D     		ldr	r5, .L8+16
  78              	.LBE22:
  79              		.loc 1 145 3 view .LVU18
  80 0042 3040     		ands	r0, r0, r6
  81 0044 D867     		str	r0, [r3, #124]
  82              		.loc 1 145 3 is_stmt 1 view .LVU19
  83 0046 D86F     		ldr	r0, [r3, #124]
  84              		.loc 1 146 31 view .LVU20
  85              		.loc 1 147 3 view .LVU21
  86 0048 D3F88800 		ldr	r0, [r3, #136]
  87 004c 0143     		orrs	r1, r1, r0
  88 004e C3F88810 		str	r1, [r3, #136]
  89              		.loc 1 147 3 view .LVU22
  90 0052 D3F88810 		ldr	r1, [r3, #136]
  91 0056 C1F30A01 		ubfx	r1, r1, #0, #11
  92 005a C3F88810 		str	r1, [r3, #136]
  93              		.loc 1 147 3 view .LVU23
  94 005e D3F88810 		ldr	r1, [r3, #136]
  95              		.loc 1 147 63 view .LVU24
  96              		.loc 1 148 3 view .LVU25
  97 0062 D3F89010 		ldr	r1, [r3, #144]
  98 0066 C3F89020 		str	r2, [r3, #144]
  99              		.loc 1 148 3 view .LVU26
 100 006a D3F89010 		ldr	r1, [r3, #144]
 101 006e C3F89040 		str	r4, [r3, #144]
 102              		.loc 1 148 3 view .LVU27
 103 0072 D3F89010 		ldr	r1, [r3, #144]
 104              		.loc 1 148 20 view .LVU28
 105              		.loc 1 149 3 view .LVU29
 106 0076 D3F89410 		ldr	r1, [r3, #148]
 107 007a C3F89420 		str	r2, [r3, #148]
 108              		.loc 1 149 3 view .LVU30
 109 007e D3F89410 		ldr	r1, [r3, #148]
 110 0082 C3F89440 		str	r4, [r3, #148]
 111              		.loc 1 149 3 view .LVU31
 112 0086 D3F89410 		ldr	r1, [r3, #148]
 113              		.loc 1 149 20 view .LVU32
 114              		.loc 1 150 3 view .LVU33
ARM GAS  /tmp/cc0VGVIX.s 			page 3


 115 008a D3F89810 		ldr	r1, [r3, #152]
 116 008e C3F89820 		str	r2, [r3, #152]
 117              		.loc 1 150 3 view .LVU34
 118 0092 D3F89810 		ldr	r1, [r3, #152]
 119 0096 C3F89840 		str	r4, [r3, #152]
 120              		.loc 1 150 3 view .LVU35
 121 009a D3F89810 		ldr	r1, [r3, #152]
 122              		.loc 1 150 19 view .LVU36
 123              		.loc 1 151 3 view .LVU37
 124 009e D3F88C10 		ldr	r1, [r3, #140]
 125 00a2 C3F88C20 		str	r2, [r3, #140]
 126              		.loc 1 151 3 view .LVU38
 127 00a6 D3F88C10 		ldr	r1, [r3, #140]
 128 00aa C3F88C40 		str	r4, [r3, #140]
 129              		.loc 1 151 3 view .LVU39
 130 00ae D3F88C10 		ldr	r1, [r3, #140]
 131              		.loc 1 151 19 view .LVU40
 132              		.loc 1 152 3 view .LVU41
 133 00b2 D3F89C10 		ldr	r1, [r3, #156]
 134 00b6 C3F89C20 		str	r2, [r3, #156]
 135              		.loc 1 152 3 view .LVU42
 136 00ba D3F89C20 		ldr	r2, [r3, #156]
 137 00be C3F89C40 		str	r4, [r3, #156]
 138              		.loc 1 152 3 view .LVU43
 139 00c2 D3F89C30 		ldr	r3, [r3, #156]
 140              		.loc 1 152 19 view .LVU44
 141              		.loc 1 160 3 view .LVU45
 142 00c6 FFF7FEFF 		bl	dmaInit
 143              	.LVL0:
 144              		.loc 1 167 3 view .LVU46
 145 00ca FFF7FEFF 		bl	irqInit
 146              	.LVL1:
 147              	.LBB31:
 148              		.loc 1 172 5 view .LVU47
 149              		.loc 1 181 5 view .LVU48
 150              		.loc 1 182 5 view .LVU49
 151              		.loc 1 189 5 view .LVU50
 152 00ce 1B4A     		ldr	r2, .L8+20
 153 00d0 0623     		movs	r3, #6
 154 00d2 1B48     		ldr	r0, .L8+24
 155              		.loc 1 195 5 is_stmt 0 view .LVU51
 156 00d4 0521     		movs	r1, #5
 157              		.loc 1 189 5 view .LVU52
 158 00d6 9360     		str	r3, [r2, #8]
 159              		.loc 1 189 5 is_stmt 1 view .LVU53
 160              		.loc 1 195 5 is_stmt 0 view .LVU54
 161 00d8 1A4B     		ldr	r3, .L8+28
 162              		.loc 1 189 5 view .LVU55
 163 00da D560     		str	r5, [r2, #12]
 164              		.loc 1 189 5 is_stmt 1 view .LVU56
 165 00dc 1061     		str	r0, [r2, #16]
 166              		.loc 1 194 40 view .LVU57
 167              		.loc 1 195 5 view .LVU58
 168 00de 5160     		str	r1, [r2, #4]
 169              		.loc 1 195 5 view .LVU59
 170 00e0 5A6A     		ldr	r2, [r3, #36]
 171 00e2 42F48032 		orr	r2, r2, #65536
ARM GAS  /tmp/cc0VGVIX.s 			page 4


 172 00e6 5A62     		str	r2, [r3, #36]
 173              		.loc 1 195 35 view .LVU60
 174              		.loc 1 199 5 view .LVU61
 175              	.LBB23:
 176              	.LBI23:
 177              		.file 2 "../../../external/ChibiOS/os/common/ext/ARM/CMSIS/Core/Include/core_cm7.h"
 178              		.loc 2 2427 22 view .LVU62
 179              	.LBB24:
 180              		.loc 2 2430 5 view .LVU63
 181              		.loc 2 2431 5 view .LVU64
 182              		.loc 2 2432 5 view .LVU65
 183              		.loc 2 2434 5 view .LVU66
 184              		.loc 2 2434 17 is_stmt 0 view .LVU67
 185 00e8 C3F88440 		str	r4, [r3, #132]
 186              		.loc 2 2435 5 is_stmt 1 view .LVU68
 187              	.LBB25:
 188              	.LBI25:
 189              		.file 3 "../../../external/ChibiOS/os/common/ext/ARM/CMSIS/Core/Include/cmsis_gcc.h"
 190              		.loc 3 877 27 view .LVU69
 191              	.LBB26:
 192              		.loc 3 879 3 view .LVU70
 193              		.syntax unified
 194              	@ 879 "../../../external/ChibiOS/os/common/ext/ARM/CMSIS/Core/Include/cmsis_gcc.h" 1
 195 00ec BFF34F8F 		dsb 0xF
 196              	@ 0 "" 2
 197              		.thumb
 198              		.syntax unified
 199              	.LBE26:
 200              	.LBE25:
 201              		.loc 2 2437 5 view .LVU71
 202              		.loc 2 2437 12 is_stmt 0 view .LVU72
 203 00f0 D3F88010 		ldr	r1, [r3, #128]
 204              	.LVL2:
 205              		.loc 2 2440 5 is_stmt 1 view .LVU73
 206              		.loc 2 2444 54 is_stmt 0 view .LVU74
 207 00f4 43F6E074 		movw	r4, #16352
 208              		.loc 2 2440 10 view .LVU75
 209 00f8 C1F34E32 		ubfx	r2, r1, #13, #15
 210              		.loc 2 2442 12 view .LVU76
 211 00fc C1F3C901 		ubfx	r1, r1, #3, #10
 212              	.LVL3:
 213              		.loc 2 2442 12 view .LVU77
 214 0100 5201     		lsls	r2, r2, #5
 215              	.L3:
 216              		.loc 2 2441 5 is_stmt 1 view .LVU78
 217              		.loc 2 2442 7 view .LVU79
 218              	.LVL4:
 219              		.loc 2 2444 54 is_stmt 0 view .LVU80
 220 0102 02EA0405 		and	r5, r2, r4
 221              		.loc 2 2442 12 view .LVU81
 222 0106 0846     		mov	r0, r1
 223              	.L2:
 224              	.LVL5:
 225              		.loc 2 2443 7 is_stmt 1 view .LVU82
 226              		.loc 2 2444 9 view .LVU83
 227              		.loc 2 2444 76 is_stmt 0 view .LVU84
 228 0108 45EA8076 		orr	r6, r5, r0, lsl #30
ARM GAS  /tmp/cc0VGVIX.s 			page 5


 229              		.loc 2 2449 20 view .LVU85
 230 010c 0138     		subs	r0, r0, #1
 231              	.LVL6:
 232              		.loc 2 2444 21 view .LVU86
 233 010e C3F87462 		str	r6, [r3, #628]
 234              		.loc 2 2449 7 view .LVU87
 235 0112 461C     		adds	r6, r0, #1
 236 0114 F8D1     		bne	.L2
 237 0116 203A     		subs	r2, r2, #32
 238              		.loc 2 2450 5 view .LVU88
 239 0118 12F1200F 		cmn	r2, #32
 240 011c F1D1     		bne	.L3
 241              		.loc 2 2452 5 is_stmt 1 view .LVU89
 242              	.LBB27:
 243              	.LBI27:
 244              		.loc 3 877 27 view .LVU90
 245              	.LBB28:
 246              		.loc 3 879 3 view .LVU91
 247              		.syntax unified
 248              	@ 879 "../../../external/ChibiOS/os/common/ext/ARM/CMSIS/Core/Include/cmsis_gcc.h" 1
 249 011e BFF34F8F 		dsb 0xF
 250              	@ 0 "" 2
 251              		.thumb
 252              		.syntax unified
 253              	.LBE28:
 254              	.LBE27:
 255              		.loc 2 2453 5 view .LVU92
 256              	.LBB29:
 257              	.LBI29:
 258              		.loc 3 866 27 view .LVU93
 259              	.LBB30:
 260              		.loc 3 868 3 view .LVU94
 261              		.syntax unified
 262              	@ 868 "../../../external/ChibiOS/os/common/ext/ARM/CMSIS/Core/Include/cmsis_gcc.h" 1
 263 0122 BFF36F8F 		isb 0xF
 264              	@ 0 "" 2
 265              	.LVL7:
 266              		.loc 3 868 3 is_stmt 0 view .LVU95
 267              		.thumb
 268              		.syntax unified
 269              	.LBE30:
 270              	.LBE29:
 271              	.LBE24:
 272              	.LBE23:
 273              	.LBE31:
 274              		.loc 1 202 1 view .LVU96
 275 0126 70BD     		pop	{r4, r5, r6, pc}
 276              	.L9:
 277              		.align	2
 278              	.L8:
 279 0128 00440258 		.word	1476543488
 280 012c FFEFFF7F 		.word	2147479551
 281 0130 00100080 		.word	-2147479552
 282 0134 00F8FFFF 		.word	-2048
 283 0138 00000430 		.word	805568512
 284 013c 90ED00E0 		.word	-536810096
 285 0140 1B000803 		.word	50855963
ARM GAS  /tmp/cc0VGVIX.s 			page 6


 286 0144 00ED00E0 		.word	-536810240
 287              		.cfi_endproc
 288              	.LFE364:
 289              		.size	hal_lld_init, .-hal_lld_init
 290              		.align	1
 291 0148 AFF30080 		.p2align 4,,15
 291      AFF30080 
 292              		.global	stm32_clock_init
 293              		.syntax unified
 294              		.thumb
 295              		.thumb_func
 296              		.fpu fpv4-sp-d16
 297              		.type	stm32_clock_init, %function
 298              	stm32_clock_init:
 299              	.LFB365:
 300              		.loc 1 211 29 is_stmt 1 view -0
 301              		.cfi_startproc
 302              		@ args = 0, pretend = 0, frame = 0
 303              		@ frame_needed = 0, uses_anonymous_args = 0
 304              		@ link register save eliminated.
 305              		.loc 1 213 3 view .LVU98
 306              		.loc 1 229 3 view .LVU99
 307 0150 704B     		ldr	r3, .L45
 308              	.LBB32:
 309              	.LBB33:
 310              		.loc 1 102 14 is_stmt 0 view .LVU100
 311 0152 7148     		ldr	r0, .L45+4
 312              	.LBE33:
 313              	.LBE32:
 314              		.loc 1 229 3 view .LVU101
 315 0154 D3F8F410 		ldr	r1, [r3, #244]
 316              	.LBB37:
 317              	.LBB34:
 318              		.loc 1 103 14 view .LVU102
 319 0158 0246     		mov	r2, r0
 320              	.LBE34:
 321              	.LBE37:
 322              		.loc 1 211 29 view .LVU103
 323 015a 70B4     		push	{r4, r5, r6}
 324              		.cfi_def_cfa_offset 12
 325              		.cfi_offset 4, -12
 326              		.cfi_offset 5, -8
 327              		.cfi_offset 6, -4
 328              	.LBB38:
 329              	.LBB35:
 330              		.loc 1 102 14 view .LVU104
 331 015c 0224     		movs	r4, #2
 332              	.LBE35:
 333              	.LBE38:
 334              		.loc 1 229 3 view .LVU105
 335 015e 2143     		orrs	r1, r1, r4
 336 0160 C3F8F410 		str	r1, [r3, #244]
 337              		.loc 1 229 3 is_stmt 1 view .LVU106
 338              		.loc 1 229 3 view .LVU107
 339 0164 D3F81C11 		ldr	r1, [r3, #284]
 340 0168 2143     		orrs	r1, r1, r4
 341 016a C3F81C11 		str	r1, [r3, #284]
ARM GAS  /tmp/cc0VGVIX.s 			page 7


 342              		.loc 1 229 3 view .LVU108
 343 016e D3F81C31 		ldr	r3, [r3, #284]
 344              		.loc 1 229 44 view .LVU109
 345              		.loc 1 232 3 view .LVU110
 346              	.LBB39:
 347              	.LBI32:
 348              		.loc 1 94 20 view .LVU111
 349              	.LBB36:
 350              		.loc 1 102 3 view .LVU112
 351              		.loc 1 102 14 is_stmt 0 view .LVU113
 352 0172 C460     		str	r4, [r0, #12]
 353              		.loc 1 103 3 is_stmt 1 view .LVU114
 354              	.L11:
 355              		.loc 1 104 5 view .LVU115
 356              		.loc 1 103 14 is_stmt 0 view .LVU116
 357 0174 5368     		ldr	r3, [r2, #4]
 358              		.loc 1 103 9 view .LVU117
 359 0176 9B04     		lsls	r3, r3, #18
 360 0178 FCD5     		bpl	.L11
 361              		.loc 1 106 3 is_stmt 1 view .LVU118
 362              		.loc 1 106 14 is_stmt 0 view .LVU119
 363 017a 6849     		ldr	r1, .L45+8
 364              		.loc 1 107 14 view .LVU120
 365 017c 0123     		movs	r3, #1
 366              		.loc 1 108 14 view .LVU121
 367 017e 684E     		ldr	r6, .L45+12
 368              		.loc 1 109 14 view .LVU122
 369 0180 0025     		movs	r5, #0
 370              		.loc 1 106 14 view .LVU123
 371 0182 1160     		str	r1, [r2]
 372              		.loc 1 107 3 is_stmt 1 view .LVU124
 373              		.loc 1 110 14 is_stmt 0 view .LVU125
 374 0184 4FF44044 		mov	r4, #49152
 375              		.loc 1 112 17 view .LVU126
 376 0188 6648     		ldr	r0, .L45+16
 377              		.loc 1 114 14 view .LVU127
 378 018a 6349     		ldr	r1, .L45+4
 379              		.loc 1 107 14 view .LVU128
 380 018c 9360     		str	r3, [r2, #8]
 381              		.loc 1 108 3 is_stmt 1 view .LVU129
 382              		.loc 1 108 14 is_stmt 0 view .LVU130
 383 018e D660     		str	r6, [r2, #12]
 384              		.loc 1 109 3 is_stmt 1 view .LVU131
 385              		.loc 1 109 14 is_stmt 0 view .LVU132
 386 0190 1561     		str	r5, [r2, #16]
 387              		.loc 1 110 3 is_stmt 1 view .LVU133
 388              		.loc 1 110 14 is_stmt 0 view .LVU134
 389 0192 9461     		str	r4, [r2, #24]
 390              		.loc 1 112 3 is_stmt 1 view .LVU135
 391              		.loc 1 112 17 is_stmt 0 view .LVU136
 392 0194 C362     		str	r3, [r0, #44]
 393              		.loc 1 114 3 is_stmt 1 view .LVU137
 394              	.L12:
 395              		.loc 1 115 5 view .LVU138
 396              		.loc 1 114 14 is_stmt 0 view .LVU139
 397 0196 8B69     		ldr	r3, [r1, #24]
 398              		.loc 1 114 9 view .LVU140
ARM GAS  /tmp/cc0VGVIX.s 			page 8


 399 0198 9E04     		lsls	r6, r3, #18
 400 019a FCD5     		bpl	.L12
 401              	.LBE36:
 402              	.LBE39:
 403              		.loc 1 235 3 is_stmt 1 view .LVU141
 404              	.LBB40:
 405              	.LBI40:
 406              		.loc 1 54 20 view .LVU142
 407              	.LBB41:
 408              		.loc 1 57 3 view .LVU143
 409              		.loc 1 57 12 is_stmt 0 view .LVU144
 410 019c 0B68     		ldr	r3, [r1]
 411              		.loc 1 60 11 view .LVU145
 412 019e 5D4A     		ldr	r2, .L45
 413              		.loc 1 57 12 view .LVU146
 414 01a0 43F48073 		orr	r3, r3, #256
 415 01a4 0B60     		str	r3, [r1]
 416              		.loc 1 60 3 is_stmt 1 view .LVU147
 417              		.loc 1 60 11 is_stmt 0 view .LVU148
 418 01a6 136F     		ldr	r3, [r2, #112]
 419              		.loc 1 60 18 view .LVU149
 420 01a8 03F44073 		and	r3, r3, #768
 421              		.loc 1 60 6 view .LVU150
 422 01ac B3F5007F 		cmp	r3, #512
 423 01b0 04D0     		beq	.L13
 424              		.loc 1 62 5 is_stmt 1 view .LVU151
 425              		.loc 1 62 15 is_stmt 0 view .LVU152
 426 01b2 4FF48031 		mov	r1, #65536
 427              		.loc 1 63 15 view .LVU153
 428 01b6 0023     		movs	r3, #0
 429              		.loc 1 62 15 view .LVU154
 430 01b8 1167     		str	r1, [r2, #112]
 431              		.loc 1 63 5 is_stmt 1 view .LVU155
 432              		.loc 1 63 15 is_stmt 0 view .LVU156
 433 01ba 1367     		str	r3, [r2, #112]
 434              	.L13:
 435              	.LBE41:
 436              	.LBE40:
 437              		.loc 1 239 3 is_stmt 1 view .LVU157
 438              		.loc 1 239 11 is_stmt 0 view .LVU158
 439 01bc 554B     		ldr	r3, .L45
 440 01be 1A68     		ldr	r2, [r3]
 441              		.loc 1 240 15 view .LVU159
 442 01c0 1946     		mov	r1, r3
 443              		.loc 1 239 11 view .LVU160
 444 01c2 42F00102 		orr	r2, r2, #1
 445 01c6 1A60     		str	r2, [r3]
 446              		.loc 1 240 3 is_stmt 1 view .LVU161
 447              	.L14:
 448              		.loc 1 241 5 discriminator 1 view .LVU162
 449              		.loc 1 240 15 is_stmt 0 discriminator 1 view .LVU163
 450 01c8 0B68     		ldr	r3, [r1]
 451              		.loc 1 240 9 discriminator 1 view .LVU164
 452 01ca 5D07     		lsls	r5, r3, #29
 453 01cc FCD5     		bpl	.L14
 454              		.loc 1 246 3 is_stmt 1 view .LVU165
 455              		.loc 1 246 16 is_stmt 0 view .LVU166
ARM GAS  /tmp/cc0VGVIX.s 			page 9


 456 01ce 0023     		movs	r3, #0
 457              		.loc 1 247 14 view .LVU167
 458 01d0 504A     		ldr	r2, .L45
 459              		.loc 1 246 16 view .LVU168
 460 01d2 0B61     		str	r3, [r1, #16]
 461              		.loc 1 247 3 is_stmt 1 view .LVU169
 462              	.L15:
 463              		.loc 1 248 5 discriminator 1 view .LVU170
 464              		.loc 1 247 14 is_stmt 0 discriminator 1 view .LVU171
 465 01d4 1369     		ldr	r3, [r2, #16]
 466              		.loc 1 247 9 discriminator 1 view .LVU172
 467 01d6 13F03803 		ands	r3, r3, #56
 468 01da FBD1     		bne	.L15
 469              		.loc 1 251 3 is_stmt 1 view .LVU173
 470              		.loc 1 251 16 is_stmt 0 view .LVU174
 471 01dc 0121     		movs	r1, #1
 472              		.loc 1 257 16 view .LVU175
 473 01de 5248     		ldr	r0, .L45+20
 474              		.loc 1 252 18 view .LVU176
 475 01e0 4FF08045 		mov	r5, #1073741824
 476              		.loc 1 254 18 view .LVU177
 477 01e4 4FF00054 		mov	r4, #536870912
 478              		.loc 1 251 16 view .LVU178
 479 01e8 1160     		str	r1, [r2]
 480              		.loc 1 252 3 is_stmt 1 view .LVU179
 481              		.loc 1 268 13 is_stmt 0 view .LVU180
 482 01ea 5049     		ldr	r1, .L45+24
 483              		.loc 1 252 18 view .LVU181
 484 01ec 5560     		str	r5, [r2, #4]
 485              		.loc 1 254 3 is_stmt 1 view .LVU182
 486              		.loc 1 254 18 is_stmt 0 view .LVU183
 487 01ee D460     		str	r4, [r2, #12]
 488              		.loc 1 256 3 is_stmt 1 view .LVU184
 489              		.loc 1 256 16 is_stmt 0 view .LVU185
 490 01f0 5367     		str	r3, [r2, #116]
 491              		.loc 1 257 3 is_stmt 1 view .LVU186
 492              		.loc 1 257 16 is_stmt 0 view .LVU187
 493 01f2 D062     		str	r0, [r2, #44]
 494              		.loc 1 261 3 is_stmt 1 view .LVU188
 495              	.LVL8:
 496              		.loc 1 266 3 view .LVU189
 497              		.loc 1 268 3 view .LVU190
 498              		.loc 1 268 13 is_stmt 0 view .LVU191
 499 01f4 1161     		str	r1, [r2, #16]
 500              		.loc 1 275 3 is_stmt 1 view .LVU192
 501              		.loc 1 275 11 is_stmt 0 view .LVU193
 502 01f6 1368     		ldr	r3, [r2]
 503              		.loc 1 277 14 view .LVU194
 504 01f8 4648     		ldr	r0, .L45
 505              		.loc 1 275 11 view .LVU195
 506 01fa 43F48033 		orr	r3, r3, #65536
 507 01fe 1360     		str	r3, [r2]
 508              		.loc 1 277 3 is_stmt 1 view .LVU196
 509              	.L16:
 510              		.loc 1 278 5 discriminator 1 view .LVU197
 511              		.loc 1 277 14 is_stmt 0 discriminator 1 view .LVU198
 512 0200 0368     		ldr	r3, [r0]
ARM GAS  /tmp/cc0VGVIX.s 			page 10


 513              		.loc 1 277 9 discriminator 1 view .LVU199
 514 0202 9C03     		lsls	r4, r3, #14
 515 0204 FCD5     		bpl	.L16
 516              		.loc 1 283 3 is_stmt 1 view .LVU200
 517              		.loc 1 283 11 is_stmt 0 view .LVU201
 518 0206 0368     		ldr	r3, [r0]
 519              		.loc 1 284 14 view .LVU202
 520 0208 4249     		ldr	r1, .L45
 521              		.loc 1 283 11 view .LVU203
 522 020a 43F48053 		orr	r3, r3, #4096
 523 020e 0360     		str	r3, [r0]
 524              		.loc 1 284 3 is_stmt 1 view .LVU204
 525              	.L17:
 526              		.loc 1 285 5 discriminator 1 view .LVU205
 527              		.loc 1 284 14 is_stmt 0 discriminator 1 view .LVU206
 528 0210 0B68     		ldr	r3, [r1]
 529              		.loc 1 284 9 discriminator 1 view .LVU207
 530 0212 9804     		lsls	r0, r3, #18
 531 0214 FCD5     		bpl	.L17
 532              		.loc 1 291 3 is_stmt 1 view .LVU208
 533              		.loc 1 291 11 is_stmt 0 view .LVU209
 534 0216 0B68     		ldr	r3, [r1]
 535              		.loc 1 292 14 view .LVU210
 536 0218 3E4A     		ldr	r2, .L45
 537              		.loc 1 291 11 view .LVU211
 538 021a 43F08003 		orr	r3, r3, #128
 539 021e 0B60     		str	r3, [r1]
 540              		.loc 1 292 3 is_stmt 1 view .LVU212
 541              	.L18:
 542              		.loc 1 293 5 discriminator 1 view .LVU213
 543              		.loc 1 292 14 is_stmt 0 discriminator 1 view .LVU214
 544 0220 1368     		ldr	r3, [r2]
 545              		.loc 1 292 9 discriminator 1 view .LVU215
 546 0222 D905     		lsls	r1, r3, #23
 547 0224 FCD5     		bpl	.L18
 548              		.loc 1 298 3 is_stmt 1 view .LVU216
 549              		.loc 1 298 12 is_stmt 0 view .LVU217
 550 0226 516F     		ldr	r1, [r2, #116]
 551              		.loc 1 299 14 view .LVU218
 552 0228 3A4B     		ldr	r3, .L45
 553              		.loc 1 298 12 view .LVU219
 554 022a 41F00101 		orr	r1, r1, #1
 555 022e 5167     		str	r1, [r2, #116]
 556              		.loc 1 299 3 is_stmt 1 view .LVU220
 557              	.L19:
 558              		.loc 1 300 5 discriminator 1 view .LVU221
 559              		.loc 1 299 14 is_stmt 0 discriminator 1 view .LVU222
 560 0230 5A6F     		ldr	r2, [r3, #116]
 561              		.loc 1 299 9 discriminator 1 view .LVU223
 562 0232 9207     		lsls	r2, r2, #30
 563 0234 FCD5     		bpl	.L19
 564              	.LBB42:
 565              		.loc 1 309 5 is_stmt 1 view .LVU224
 566              	.LVL9:
 567              		.loc 1 310 5 view .LVU225
 568              		.loc 1 311 5 view .LVU226
 569              		.loc 1 313 5 view .LVU227
ARM GAS  /tmp/cc0VGVIX.s 			page 11


 570              		.loc 1 313 20 is_stmt 0 view .LVU228
 571 0236 3E49     		ldr	r1, .L45+28
 572              		.loc 1 323 20 view .LVU229
 573 0238 0022     		movs	r2, #0
 574              		.loc 1 324 20 view .LVU230
 575 023a 3E4E     		ldr	r6, .L45+32
 576              		.loc 1 340 20 view .LVU231
 577 023c 4FF44045 		mov	r5, #49152
 578              		.loc 1 313 20 view .LVU232
 579 0240 9962     		str	r1, [r3, #40]
 580              		.loc 1 318 5 is_stmt 1 view .LVU233
 581              	.LVL10:
 582              		.loc 1 323 5 view .LVU234
 583              		.loc 1 374 18 is_stmt 0 view .LVU235
 584 0242 A1F58631 		sub	r1, r1, #68608
 585              		.loc 1 341 20 view .LVU236
 586 0246 3C4C     		ldr	r4, .L45+36
 587              		.loc 1 374 18 view .LVU237
 588 0248 1539     		subs	r1, r1, #21
 589              		.loc 1 358 20 view .LVU238
 590 024a 3C48     		ldr	r0, .L45+40
 591              		.loc 1 323 20 view .LVU239
 592 024c 5A63     		str	r2, [r3, #52]
 593              		.loc 1 324 5 is_stmt 1 view .LVU240
 594              		.loc 1 324 20 is_stmt 0 view .LVU241
 595 024e 1E63     		str	r6, [r3, #48]
 596              		.loc 1 326 5 is_stmt 1 view .LVU242
 597              	.LVL11:
 598              		.loc 1 327 5 view .LVU243
 599              		.loc 1 329 5 view .LVU244
 600              		.loc 1 332 5 view .LVU245
 601              		.loc 1 335 5 view .LVU246
 602              		.loc 1 340 5 view .LVU247
 603              		.loc 1 340 20 is_stmt 0 view .LVU248
 604 0250 DD63     		str	r5, [r3, #60]
 605              		.loc 1 341 5 is_stmt 1 view .LVU249
 606              		.loc 1 341 20 is_stmt 0 view .LVU250
 607 0252 9C63     		str	r4, [r3, #56]
 608              		.loc 1 343 5 is_stmt 1 view .LVU251
 609              	.LVL12:
 610              		.loc 1 344 5 view .LVU252
 611              		.loc 1 346 5 view .LVU253
 612              		.loc 1 349 5 view .LVU254
 613              		.loc 1 352 5 view .LVU255
 614              		.loc 1 357 5 view .LVU256
 615              		.loc 1 357 20 is_stmt 0 view .LVU257
 616 0254 5A64     		str	r2, [r3, #68]
 617              		.loc 1 358 5 is_stmt 1 view .LVU258
 618              		.loc 1 358 20 is_stmt 0 view .LVU259
 619 0256 1864     		str	r0, [r3, #64]
 620              		.loc 1 360 5 is_stmt 1 view .LVU260
 621              	.LVL13:
 622              		.loc 1 361 5 view .LVU261
 623              		.loc 1 363 5 view .LVU262
 624              		.loc 1 366 5 view .LVU263
 625              		.loc 1 369 5 view .LVU264
 626              		.loc 1 374 5 view .LVU265
ARM GAS  /tmp/cc0VGVIX.s 			page 12


 627              		.loc 1 374 18 is_stmt 0 view .LVU266
 628 0258 D962     		str	r1, [r3, #44]
 629              		.loc 1 375 5 is_stmt 1 view .LVU267
 630              		.loc 1 375 17 is_stmt 0 view .LVU268
 631 025a 1968     		ldr	r1, [r3]
 632              		.loc 1 376 16 view .LVU269
 633 025c 2D4A     		ldr	r2, .L45
 634              		.loc 1 375 17 view .LVU270
 635 025e 41F0A851 		orr	r1, r1, #352321536
 636 0262 1960     		str	r1, [r3]
 637              		.loc 1 376 5 is_stmt 1 view .LVU271
 638              	.L20:
 639              		.loc 1 377 7 discriminator 1 view .LVU272
 640              		.loc 1 376 16 is_stmt 0 discriminator 1 view .LVU273
 641 0264 1368     		ldr	r3, [r2]
 642              		.loc 1 376 21 discriminator 1 view .LVU274
 643 0266 03F02853 		and	r3, r3, #704643072
 644              		.loc 1 376 11 discriminator 1 view .LVU275
 645 026a B3F1285F 		cmp	r3, #704643072
 646 026e F9D1     		bne	.L20
 647              	.LBE42:
 648              		.loc 1 382 3 is_stmt 1 view .LVU276
 649              		.loc 1 400 14 is_stmt 0 view .LVU277
 650 0270 334B     		ldr	r3, .L45+44
 651              		.loc 1 382 15 view .LVU278
 652 0272 4825     		movs	r5, #72
 653              		.loc 1 383 15 view .LVU279
 654 0274 4FF48864 		mov	r4, #1088
 655              		.loc 1 384 15 view .LVU280
 656 0278 4020     		movs	r0, #64
 657              		.loc 1 387 17 view .LVU281
 658 027a 3249     		ldr	r1, .L45+48
 659              		.loc 1 389 17 view .LVU282
 660 027c 0026     		movs	r6, #0
 661              		.loc 1 382 15 view .LVU283
 662 027e 9561     		str	r5, [r2, #24]
 663              		.loc 1 383 3 is_stmt 1 view .LVU284
 664              		.loc 1 392 17 is_stmt 0 view .LVU285
 665 0280 4FF48015 		mov	r5, #1048576
 666              		.loc 1 383 15 view .LVU286
 667 0284 D461     		str	r4, [r2, #28]
 668              		.loc 1 384 3 is_stmt 1 view .LVU287
 669              		.loc 1 395 17 is_stmt 0 view .LVU288
 670 0286 4FF48034 		mov	r4, #65536
 671              		.loc 1 384 15 view .LVU289
 672 028a 1062     		str	r0, [r2, #32]
 673              		.loc 1 387 3 is_stmt 1 view .LVU290
 674              		.loc 1 400 14 is_stmt 0 view .LVU291
 675 028c 3420     		movs	r0, #52
 676              		.loc 1 387 17 view .LVU292
 677 028e D164     		str	r1, [r2, #76]
 678              		.loc 1 389 3 is_stmt 1 view .LVU293
 679              		.loc 1 402 16 is_stmt 0 view .LVU294
 680 0290 1946     		mov	r1, r3
 681              		.loc 1 389 17 view .LVU295
 682 0292 1665     		str	r6, [r2, #80]
 683              		.loc 1 392 3 is_stmt 1 view .LVU296
ARM GAS  /tmp/cc0VGVIX.s 			page 13


 684              		.loc 1 392 17 is_stmt 0 view .LVU297
 685 0294 5565     		str	r5, [r2, #84]
 686              		.loc 1 395 3 is_stmt 1 view .LVU298
 687              		.loc 1 395 17 is_stmt 0 view .LVU299
 688 0296 9465     		str	r4, [r2, #88]
 689              		.loc 1 400 3 is_stmt 1 view .LVU300
 690              		.loc 1 400 14 is_stmt 0 view .LVU301
 691 0298 1860     		str	r0, [r3]
 692              		.loc 1 402 3 is_stmt 1 view .LVU302
 693              	.L21:
 694              		.loc 1 404 3 discriminator 1 view .LVU303
 695              		.loc 1 402 16 is_stmt 0 discriminator 1 view .LVU304
 696 029a 0B68     		ldr	r3, [r1]
 697              		.loc 1 402 22 discriminator 1 view .LVU305
 698 029c 03F00F03 		and	r3, r3, #15
 699              		.loc 1 402 9 discriminator 1 view .LVU306
 700 02a0 042B     		cmp	r3, #4
 701 02a2 FAD1     		bne	.L21
 702              		.loc 1 409 3 is_stmt 1 view .LVU307
 703              		.loc 1 409 13 is_stmt 0 view .LVU308
 704 02a4 1B4B     		ldr	r3, .L45
 705 02a6 1969     		ldr	r1, [r3, #16]
 706              		.loc 1 410 14 view .LVU309
 707 02a8 1A46     		mov	r2, r3
 708              		.loc 1 409 13 view .LVU310
 709 02aa 41F00301 		orr	r1, r1, #3
 710 02ae 1961     		str	r1, [r3, #16]
 711              		.loc 1 410 3 is_stmt 1 view .LVU311
 712              	.L22:
 713              		.loc 1 411 5 discriminator 1 view .LVU312
 714              		.loc 1 410 14 is_stmt 0 discriminator 1 view .LVU313
 715 02b0 1369     		ldr	r3, [r2, #16]
 716              		.loc 1 410 21 discriminator 1 view .LVU314
 717 02b2 03F03803 		and	r3, r3, #56
 718              		.loc 1 410 9 discriminator 1 view .LVU315
 719 02b6 182B     		cmp	r3, #24
 720 02b8 FAD1     		bne	.L22
 721              		.loc 1 425 3 is_stmt 1 view .LVU316
 722 02ba D2F8DC30 		ldr	r3, [r2, #220]
 723 02be 43F00053 		orr	r3, r3, #536870912
 724 02c2 C2F8DC30 		str	r3, [r2, #220]
 725              		.loc 1 425 3 view .LVU317
 726              		.loc 1 425 3 view .LVU318
 727 02c6 D2F80431 		ldr	r3, [r2, #260]
 728 02ca 43F00053 		orr	r3, r3, #536870912
 729 02ce C2F80431 		str	r3, [r2, #260]
 730              		.loc 1 425 3 view .LVU319
 731 02d2 D2F80431 		ldr	r3, [r2, #260]
 732              		.loc 1 425 23 view .LVU320
 733              		.loc 1 426 3 view .LVU321
 734 02d6 D2F8DC30 		ldr	r3, [r2, #220]
 735 02da 43F08043 		orr	r3, r3, #1073741824
 736 02de C2F8DC30 		str	r3, [r2, #220]
 737              		.loc 1 426 3 view .LVU322
 738              		.loc 1 426 3 view .LVU323
 739 02e2 D2F80431 		ldr	r3, [r2, #260]
 740 02e6 43F08043 		orr	r3, r3, #1073741824
ARM GAS  /tmp/cc0VGVIX.s 			page 14


 741 02ea C2F80431 		str	r3, [r2, #260]
 742              		.loc 1 426 3 view .LVU324
 743 02ee D2F80431 		ldr	r3, [r2, #260]
 744              		.loc 1 426 23 view .LVU325
 745              		.loc 1 427 3 view .LVU326
 746 02f2 D2F8DC30 		ldr	r3, [r2, #220]
 747 02f6 43F00043 		orr	r3, r3, #-2147483648
 748 02fa C2F8DC30 		str	r3, [r2, #220]
 749              		.loc 1 427 3 view .LVU327
 750              		.loc 1 427 3 view .LVU328
 751 02fe D2F80431 		ldr	r3, [r2, #260]
 752 0302 43F00043 		orr	r3, r3, #-2147483648
 753              		.loc 1 429 1 is_stmt 0 view .LVU329
 754 0306 70BC     		pop	{r4, r5, r6}
 755              		.cfi_restore 6
 756              		.cfi_restore 5
 757              		.cfi_restore 4
 758              		.cfi_def_cfa_offset 0
 759              		.loc 1 427 3 view .LVU330
 760 0308 C2F80431 		str	r3, [r2, #260]
 761              		.loc 1 427 3 is_stmt 1 view .LVU331
 762 030c D2F80431 		ldr	r3, [r2, #260]
 763              		.loc 1 427 23 view .LVU332
 764              		.loc 1 429 1 is_stmt 0 view .LVU333
 765 0310 7047     		bx	lr
 766              	.L46:
 767 0312 00BF     		.align	2
 768              	.L45:
 769 0314 00440258 		.word	1476543488
 770 0318 00480258 		.word	1476544512
 771 031c 00C000F0 		.word	-268386304
 772 0320 02000001 		.word	16777218
 773 0324 00040058 		.word	1476396032
 774 0328 0000FF01 		.word	33488896
 775 032c 0088840A 		.word	176457728
 776 0330 12100002 		.word	33558546
 777 0334 77021301 		.word	18023031
 778 0338 11020105 		.word	83952145
 779 033c 80020101 		.word	16843392
 780 0340 00200052 		.word	1375739904
 781 0344 00000120 		.word	536936448
 782              		.cfi_endproc
 783              	.LFE365:
 784              		.size	stm32_clock_init, .-stm32_clock_init
 785              		.global	SystemCoreClock
 786              		.data
 787              		.align	2
 788              		.type	SystemCoreClock, %object
 789              		.size	SystemCoreClock, 4
 790              	SystemCoreClock:
 791 0000 00389C1C 		.word	480000000
 792              		.text
 793              	.Letext0:
 794              		.file 4 "/home/nicolas/arm/gcc-arm-none-eabi-8-2019-q3-update/lib/gcc/arm-none-eabi/8.3.1/include/
 795              		.file 5 "/home/nicolas/arm/gcc-arm-none-eabi-8-2019-q3-update/arm-none-eabi/include/machine/_defau
 796              		.file 6 "/home/nicolas/arm/gcc-arm-none-eabi-8-2019-q3-update/arm-none-eabi/include/sys/_stdint.h"
 797              		.file 7 "/home/nicolas/arm/gcc-arm-none-eabi-8-2019-q3-update/arm-none-eabi/include/stdint.h"
ARM GAS  /tmp/cc0VGVIX.s 			page 15


 798              		.file 8 "../../../external/ChibiOS/os/common/ports/ARMCMx/compilers/GCC/chtypes.h"
 799              		.file 9 "../../../external/ChibiOS/os/rt/include/chsystypes.h"
 800              		.file 10 "../../../external/ChibiOS/os/rt/include/chschd.h"
 801              		.file 11 "../../../external/ChibiOS/os/rt/include/chtime.h"
 802              		.file 12 "../../../external/ChibiOS/os/common/ext/ST/STM32H7xx/system_stm32h7xx.h"
 803              		.file 13 "../../../external/ChibiOS/os/common/ext/ST/STM32H7xx/stm32h753xx.h"
 804              		.file 14 "../../../external/ChibiOS/os/common/ports/ARMCMx/chcore.h"
 805              		.file 15 "../../../external/ChibiOS/os/common/ports/ARMCMx/chcore_v7m.h"
 806              		.file 16 "../../../external/ChibiOS/os/rt/include/chtrace.h"
 807              		.file 17 "../../../external/ChibiOS/os/rt/include/chtm.h"
 808              		.file 18 "../../../external/ChibiOS/os/rt/include/chsem.h"
 809              		.file 19 "../../../external/ChibiOS/os/rt/include/chmtx.h"
 810              		.file 20 "../../../external/ChibiOS/os/rt/include/chsys.h"
 811              		.file 21 "../../../external/ChibiOS/os/rt/include/chregistry.h"
 812              		.file 22 "../../../external/ChibiOS/os/rt/include/chevents.h"
 813              		.file 23 "../../../external/ChibiOS/os/oslib/include/chmemcore.h"
 814              		.file 24 "../../../external/ChibiOS/os/oslib/include/chmempools.h"
 815              		.file 25 "../../../external/ChibiOS/os/oslib/include/chfactory.h"
 816              		.file 26 "../../../external/ChibiOS/os/hal/ports/STM32/LLD/DMAv2/stm32_dma.h"
 817              		.file 27 "../../../external/ChibiOS/os/hal/ports/STM32/LLD/BDMAv1/stm32_bdma.h"
 818              		.file 28 "../../../external/ChibiOS/os/hal/ports/STM32/LLD/TIMv1/stm32_tim.h"
 819              		.file 29 "../../../external/ChibiOS/os/hal/include/hal_ioblock.h"
 820              		.file 30 "../../../external/ChibiOS/os/hal/include/hal_queues.h"
 821              		.file 31 "../../../external/ChibiOS/os/hal/ports/STM32/LLD/GPIOv2/stm32_gpio.h"
 822              		.file 32 "../../../external/ChibiOS/os/hal/ports/STM32/LLD/GPIOv2/hal_pal_lld.h"
 823              		.file 33 "../../../external/ChibiOS/os/hal/include/hal_adc.h"
 824              		.file 34 "../../../external/ChibiOS/os/hal/ports/STM32/LLD/ADCv4/hal_adc_lld.h"
 825              		.file 35 "../../../external/ChibiOS/os/hal/include/hal_i2c.h"
 826              		.file 36 "../../../external/ChibiOS/os/hal/ports/STM32/LLD/I2Cv3/hal_i2c_lld.h"
 827              		.file 37 "../../../external/ChibiOS/os/hal/include/hal_pwm.h"
 828              		.file 38 "../../../external/ChibiOS/os/hal/ports/STM32/LLD/TIMv1/hal_pwm_lld.h"
 829              		.file 39 "../../../external/ChibiOS/os/hal/include/hal_serial.h"
 830              		.file 40 "../../../external/ChibiOS/os/hal/ports/STM32/LLD/USARTv2/hal_serial_lld.h"
 831              		.file 41 "../../../external/ChibiOS/os/hal/include/hal_sdc.h"
 832              		.file 42 "../../../external/ChibiOS/os/hal/ports/STM32/LLD/SDMMCv2/hal_sdc_lld.h"
 833              		.file 43 "../../../external/ChibiOS/os/hal/include/hal_spi.h"
 834              		.file 44 "../../../external/ChibiOS/os/hal/ports/STM32/LLD/SPIv3/hal_spi_lld.h"
 835              		.file 45 "../../../external/ChibiOS/os/hal/include/hal_trng.h"
 836              		.file 46 "../../../external/ChibiOS/os/hal/ports/STM32/LLD/RNGv1/hal_trng_lld.h"
 837              		.file 47 "../../../external/ChibiOS/os/hal/include/hal_usb.h"
 838              		.file 48 "../../../external/ChibiOS/os/hal/ports/STM32/LLD/OTGv1/hal_usb_lld.h"
 839              		.file 49 "../../../external/ChibiOS/os/hal/ports/STM32/LLD/OTGv1/stm32_otg.h"
 840              		.file 50 "../../../external/ChibiOS-Contrib/os/hal/include/hal_fsmc.h"
 841              		.file 51 "../../../external/ChibiOS-Contrib/os/hal/include/hal_sdram.h"
 842              		.file 52 "../../../external/ChibiOS/os/hal/ports/STM32/STM32H7xx/stm32_isr.h"