ARM GAS  /tmp/ccH04FXK.s 			page 1


   1              		.cpu cortex-m7
   2              		.eabi_attribute 27, 1
   3              		.eabi_attribute 28, 1
   4              		.eabi_attribute 20, 1
   5              		.eabi_attribute 21, 1
   6              		.eabi_attribute 23, 3
   7              		.eabi_attribute 24, 1
   8              		.eabi_attribute 25, 1
   9              		.eabi_attribute 26, 1
  10              		.eabi_attribute 30, 2
  11              		.eabi_attribute 34, 1
  12              		.eabi_attribute 18, 4
  13              		.file	"hal_sdram_lld.c"
  14              		.text
  15              	.Ltext0:
  16              		.cfi_sections	.debug_frame
  17              		.align	1
  18              		.p2align 4,,15
  19              		.global	sdram_lld_start
  20              		.arch armv7e-m
  21              		.syntax unified
  22              		.thumb
  23              		.thumb_func
  24              		.fpu fpv4-sp-d16
  25              		.type	sdram_lld_start, %function
  26              	sdram_lld_start:
  27              	.LVL0:
  28              	.LFB364:
  29              		.file 1 "../../../external/ChibiOS-Contrib/os/hal/ports/STM32/LLD/FSMCv1/hal_sdram_lld.c"
  30              		.loc 1 147 1 view -0
  31              		.cfi_startproc
  32              		@ args = 0, pretend = 0, frame = 0
  33              		@ frame_needed = 0, uses_anonymous_args = 0
  34              		.loc 1 148 3 view .LVU1
  35              		.loc 1 147 1 is_stmt 0 view .LVU2
  36 0000 70B5     		push	{r4, r5, r6, lr}
  37              		.cfi_def_cfa_offset 16
  38              		.cfi_offset 4, -16
  39              		.cfi_offset 5, -12
  40              		.cfi_offset 6, -8
  41              		.cfi_offset 14, -4
  42              		.loc 1 148 9 view .LVU3
  43 0002 4368     		ldr	r3, [r0, #4]
  44              		.loc 1 147 1 view .LVU4
  45 0004 0C46     		mov	r4, r1
  46              	.LBB24:
  47              	.LBB25:
  48              		.loc 1 107 10 view .LVU5
  49 0006 114D     		ldr	r5, .L4
  50              		.loc 1 107 24 view .LVU6
  51 0008 1126     		movs	r6, #17
  52              	.LBB26:
  53              	.LBB27:
  54              		.file 2 "../../../external/ChibiOS/os/hal/osal/rt-nil/osal.h"
  55              		.loc 2 591 3 view .LVU7
  56 000a 45F6C050 		movw	r0, #24000
  57              	.LVL1:
ARM GAS  /tmp/ccH04FXK.s 			page 2


  58              		.loc 2 591 3 view .LVU8
  59              	.LBE27:
  60              	.LBE26:
  61              	.LBE25:
  62              	.LBE24:
  63              		.loc 1 149 30 view .LVU9
  64 000e D1E90012 		ldrd	r1, r2, [r1]
  65              	.LVL2:
  66              		.loc 1 148 24 view .LVU10
  67 0012 1960     		str	r1, [r3]
  68              		.loc 1 149 3 is_stmt 1 view .LVU11
  69              		.loc 1 149 24 is_stmt 0 view .LVU12
  70 0014 9A60     		str	r2, [r3, #8]
  71              		.loc 1 150 3 is_stmt 1 view .LVU13
  72              		.loc 1 150 24 is_stmt 0 view .LVU14
  73 0016 5960     		str	r1, [r3, #4]
  74              		.loc 1 151 3 is_stmt 1 view .LVU15
  75              		.loc 1 151 24 is_stmt 0 view .LVU16
  76 0018 DA60     		str	r2, [r3, #12]
  77              		.loc 1 153 3 is_stmt 1 view .LVU17
  78              	.LBB37:
  79              	.LBI24:
  80              		.loc 1 94 13 view .LVU18
  81              	.LVL3:
  82              	.LBB30:
  83              		.loc 1 96 3 view .LVU19
  84              		.loc 1 99 3 view .LVU20
  85              		.loc 1 106 3 view .LVU21
  86              	.LBE30:
  87              	.LBE37:
  88              		.loc 1 85 1 view .LVU22
  89              	.LBB38:
  90              	.LBB31:
  91              		.loc 1 107 3 view .LVU23
  92              		.loc 1 107 10 is_stmt 0 view .LVU24
  93 001a 6B68     		ldr	r3, [r5, #4]
  94              		.loc 1 107 24 view .LVU25
  95 001c 1E61     		str	r6, [r3, #16]
  96              		.loc 1 110 3 is_stmt 1 view .LVU26
  97              	.LVL4:
  98              	.LBB29:
  99              	.LBI26:
 100              		.loc 2 589 20 view .LVU27
 101              	.LBB28:
 102              		.loc 2 591 3 view .LVU28
 103 001e FFF7FEFF 		bl	chSysPolledDelayX
 104              	.LVL5:
 105              		.loc 2 591 3 is_stmt 0 view .LVU29
 106              	.LBE28:
 107              	.LBE29:
 108              		.loc 1 113 3 is_stmt 1 view .LVU30
 109              	.LBE31:
 110              	.LBE38:
 111              		.loc 1 85 1 view .LVU31
 112              	.LBB39:
 113              	.LBB32:
 114              		.loc 1 114 3 view .LVU32
ARM GAS  /tmp/ccH04FXK.s 			page 3


 115              		.loc 1 114 10 is_stmt 0 view .LVU33
 116 0022 6A68     		ldr	r2, [r5, #4]
 117              		.loc 1 114 24 view .LVU34
 118 0024 1223     		movs	r3, #18
 119              		.loc 1 129 20 view .LVU35
 120 0026 0A48     		ldr	r0, .L4+4
 121              		.loc 1 133 38 view .LVU36
 122 0028 43F6FE71 		movw	r1, #16382
 123              		.loc 1 114 24 view .LVU37
 124 002c 1361     		str	r3, [r2, #16]
 125              		.loc 1 117 3 is_stmt 1 view .LVU38
 126              	.LBE32:
 127              	.LBE39:
 128              		.loc 1 85 1 view .LVU39
 129              	.LBB40:
 130              	.LBB33:
 131              		.loc 1 118 3 view .LVU40
 132              		.loc 1 119 12 is_stmt 0 view .LVU41
 133 002e A368     		ldr	r3, [r4, #8]
 134              		.loc 1 129 20 view .LVU42
 135 0030 1840     		ands	r0, r0, r3
 136              		.loc 1 119 20 view .LVU43
 137 0032 03F4F073 		and	r3, r3, #480
 138              		.loc 1 128 59 view .LVU44
 139 0036 40F01400 		orr	r0, r0, #20
 140              		.loc 1 118 62 view .LVU45
 141 003a 43F01303 		orr	r3, r3, #19
 142              		.loc 1 118 24 view .LVU46
 143 003e 1361     		str	r3, [r2, #16]
 144              		.loc 1 122 3 is_stmt 1 view .LVU47
 145              	.LBE33:
 146              	.LBE40:
 147              		.loc 1 85 1 view .LVU48
 148              	.LBB41:
 149              	.LBB34:
 150              		.loc 1 123 3 view .LVU49
 151              		.loc 1 123 24 is_stmt 0 view .LVU50
 152 0040 1361     		str	r3, [r2, #16]
 153              		.loc 1 127 3 is_stmt 1 view .LVU51
 154              	.LBE34:
 155              	.LBE41:
 156              		.loc 1 85 1 view .LVU52
 157              	.LBB42:
 158              	.LBB35:
 159              		.loc 1 128 3 view .LVU53
 160              		.loc 1 128 24 is_stmt 0 view .LVU54
 161 0042 1061     		str	r0, [r2, #16]
 162              		.loc 1 132 3 is_stmt 1 view .LVU55
 163              	.LBE35:
 164              	.LBE42:
 165              		.loc 1 85 1 view .LVU56
 166              	.LBB43:
 167              	.LBB36:
 168              		.loc 1 133 3 view .LVU57
 169              		.loc 1 133 38 is_stmt 0 view .LVU58
 170 0044 E368     		ldr	r3, [r4, #12]
 171 0046 1940     		ands	r1, r1, r3
ARM GAS  /tmp/ccH04FXK.s 			page 4


 172              		.loc 1 133 24 view .LVU59
 173 0048 5161     		str	r1, [r2, #20]
 174              		.loc 1 135 3 is_stmt 1 view .LVU60
 175              	.LBE36:
 176              	.LBE43:
 177              		.loc 1 85 1 view .LVU61
 178              		.loc 1 154 1 is_stmt 0 view .LVU62
 179 004a 70BD     		pop	{r4, r5, r6, pc}
 180              	.LVL6:
 181              	.L5:
 182              		.loc 1 154 1 view .LVU63
 183              		.align	2
 184              	.L4:
 185 004c 00000000 		.word	SDRAMD1
 186 0050 00FE3F00 		.word	4193792
 187              		.cfi_endproc
 188              	.LFE364:
 189              		.size	sdram_lld_start, .-sdram_lld_start
 190              		.align	1
 191 0054 AFF30080 		.p2align 4,,15
 191      AFF30080 
 191      AFF30080 
 192              		.global	sdram_lld_stop
 193              		.syntax unified
 194              		.thumb
 195              		.thumb_func
 196              		.fpu fpv4-sp-d16
 197              		.type	sdram_lld_stop, %function
 198              	sdram_lld_stop:
 199              	.LVL7:
 200              	.LFB365:
 201              		.loc 1 156 42 is_stmt 1 view -0
 202              		.cfi_startproc
 203              		@ args = 0, pretend = 0, frame = 0
 204              		@ frame_needed = 0, uses_anonymous_args = 0
 205              		@ link register save eliminated.
 206              		.loc 1 157 3 view .LVU65
 207              		.loc 1 160 3 view .LVU66
 208              		.loc 1 166 3 view .LVU67
 209              		.loc 1 166 9 is_stmt 0 view .LVU68
 210 0060 4368     		ldr	r3, [r0, #4]
 211              		.loc 1 166 24 view .LVU69
 212 0062 1622     		movs	r2, #22
 213 0064 1A61     		str	r2, [r3, #16]
 214              		.loc 1 167 1 view .LVU70
 215 0066 7047     		bx	lr
 216              		.cfi_endproc
 217              	.LFE365:
 218              		.size	sdram_lld_stop, .-sdram_lld_stop
 219              		.comm	SDRAMD1,8,4
 220              	.Letext0:
 221              		.file 3 "/home/nicolas/arm/gcc-arm-none-eabi-8-2019-q3-update/lib/gcc/arm-none-eabi/8.3.1/include/
 222              		.file 4 "/home/nicolas/arm/gcc-arm-none-eabi-8-2019-q3-update/arm-none-eabi/include/machine/_defau
 223              		.file 5 "/home/nicolas/arm/gcc-arm-none-eabi-8-2019-q3-update/arm-none-eabi/include/sys/_stdint.h"
 224              		.file 6 "/home/nicolas/arm/gcc-arm-none-eabi-8-2019-q3-update/arm-none-eabi/include/stdint.h"
 225              		.file 7 "../../../external/ChibiOS/os/common/ports/ARMCMx/compilers/GCC/chtypes.h"
 226              		.file 8 "../../../external/ChibiOS/os/rt/include/chsystypes.h"
ARM GAS  /tmp/ccH04FXK.s 			page 5


 227              		.file 9 "../../../external/ChibiOS/os/rt/include/chschd.h"
 228              		.file 10 "../../../external/ChibiOS/os/rt/include/chtime.h"
 229              		.file 11 "../../../external/ChibiOS/os/common/ext/ARM/CMSIS/Core/Include/core_cm7.h"
 230              		.file 12 "../../../external/ChibiOS/os/common/ext/ST/STM32H7xx/system_stm32h7xx.h"
 231              		.file 13 "../../../external/ChibiOS/os/common/ext/ST/STM32H7xx/stm32h753xx.h"
 232              		.file 14 "../../../external/ChibiOS/os/common/ports/ARMCMx/chcore.h"
 233              		.file 15 "../../../external/ChibiOS/os/common/ports/ARMCMx/chcore_v7m.h"
 234              		.file 16 "../../../external/ChibiOS/os/rt/include/chtrace.h"
 235              		.file 17 "../../../external/ChibiOS/os/rt/include/chtm.h"
 236              		.file 18 "../../../external/ChibiOS/os/rt/include/chsem.h"
 237              		.file 19 "../../../external/ChibiOS/os/rt/include/chmtx.h"
 238              		.file 20 "../../../external/ChibiOS/os/rt/include/chsys.h"
 239              		.file 21 "../../../external/ChibiOS/os/rt/include/chregistry.h"
 240              		.file 22 "../../../external/ChibiOS/os/rt/include/chevents.h"
 241              		.file 23 "../../../external/ChibiOS/os/oslib/include/chmemcore.h"
 242              		.file 24 "../../../external/ChibiOS/os/oslib/include/chmempools.h"
 243              		.file 25 "../../../external/ChibiOS/os/oslib/include/chfactory.h"
 244              		.file 26 "../../../external/ChibiOS/os/hal/ports/STM32/LLD/DMAv2/stm32_dma.h"
 245              		.file 27 "../../../external/ChibiOS/os/hal/ports/STM32/LLD/BDMAv1/stm32_bdma.h"
 246              		.file 28 "../../../external/ChibiOS/os/hal/ports/STM32/LLD/TIMv1/stm32_tim.h"
 247              		.file 29 "../../../external/ChibiOS/os/hal/include/hal_ioblock.h"
 248              		.file 30 "../../../external/ChibiOS/os/hal/include/hal_queues.h"
 249              		.file 31 "../../../external/ChibiOS/os/hal/ports/STM32/LLD/GPIOv2/stm32_gpio.h"
 250              		.file 32 "../../../external/ChibiOS/os/hal/ports/STM32/LLD/GPIOv2/hal_pal_lld.h"
 251              		.file 33 "../../../external/ChibiOS/os/hal/include/hal_adc.h"
 252              		.file 34 "../../../external/ChibiOS/os/hal/ports/STM32/LLD/ADCv4/hal_adc_lld.h"
 253              		.file 35 "../../../external/ChibiOS/os/hal/include/hal_i2c.h"
 254              		.file 36 "../../../external/ChibiOS/os/hal/ports/STM32/LLD/I2Cv3/hal_i2c_lld.h"
 255              		.file 37 "../../../external/ChibiOS/os/hal/include/hal_pwm.h"
 256              		.file 38 "../../../external/ChibiOS/os/hal/ports/STM32/LLD/TIMv1/hal_pwm_lld.h"
 257              		.file 39 "../../../external/ChibiOS/os/hal/include/hal_serial.h"
 258              		.file 40 "../../../external/ChibiOS/os/hal/ports/STM32/LLD/USARTv2/hal_serial_lld.h"
 259              		.file 41 "../../../external/ChibiOS/os/hal/include/hal_sdc.h"
 260              		.file 42 "../../../external/ChibiOS/os/hal/ports/STM32/LLD/SDMMCv2/hal_sdc_lld.h"
 261              		.file 43 "../../../external/ChibiOS/os/hal/include/hal_spi.h"
 262              		.file 44 "../../../external/ChibiOS/os/hal/ports/STM32/LLD/SPIv3/hal_spi_lld.h"
 263              		.file 45 "../../../external/ChibiOS/os/hal/include/hal_trng.h"
 264              		.file 46 "../../../external/ChibiOS/os/hal/ports/STM32/LLD/RNGv1/hal_trng_lld.h"
 265              		.file 47 "../../../external/ChibiOS/os/hal/include/hal_usb.h"
 266              		.file 48 "../../../external/ChibiOS/os/hal/ports/STM32/LLD/OTGv1/hal_usb_lld.h"
 267              		.file 49 "../../../external/ChibiOS/os/hal/ports/STM32/LLD/OTGv1/stm32_otg.h"
 268              		.file 50 "../../../external/ChibiOS-Contrib/os/hal/include/hal_fsmc.h"
 269              		.file 51 "../../../external/ChibiOS-Contrib/os/hal/include/hal_sdram.h"