ARM GAS  /tmp/ccfraM8n.s 			page 1


   1              		.cpu cortex-m7
   2              		.eabi_attribute 27, 1
   3              		.eabi_attribute 28, 1
   4              		.eabi_attribute 20, 1
   5              		.eabi_attribute 21, 1
   6              		.eabi_attribute 23, 3
   7              		.eabi_attribute 24, 1
   8              		.eabi_attribute 25, 1
   9              		.eabi_attribute 26, 1
  10              		.eabi_attribute 30, 2
  11              		.eabi_attribute 34, 1
  12              		.eabi_attribute 18, 4
  13              		.file	"hal_usb_lld.c"
  14              		.text
  15              	.Ltext0:
  16              		.cfi_sections	.debug_frame
  17              		.align	1
  18              		.p2align 4,,15
  19              		.arch armv7e-m
  20              		.syntax unified
  21              		.thumb
  22              		.thumb_func
  23              		.fpu fpv4-sp-d16
  24              		.type	otg_txfifo_handler.constprop.11, %function
  25              	otg_txfifo_handler.constprop.11:
  26              	.LVL0:
  27              	.LFB401:
  28              		.file 1 "../../../external/ChibiOS/os/hal/ports/STM32/LLD/OTGv1/hal_usb_lld.c"
  29              		.loc 1 328 13 view -0
  30              		.cfi_startproc
  31              		@ args = 0, pretend = 0, frame = 0
  32              		@ frame_needed = 0, uses_anonymous_args = 0
  33              		.loc 1 331 3 view .LVU1
  34              	.LBB284:
  35              		.loc 1 332 5 view .LVU2
  36              		.loc 1 335 5 view .LVU3
  37              		.loc 1 335 18 is_stmt 0 view .LVU4
  38 0000 284B     		ldr	r3, .L14
  39 0002 03EB8002 		add	r2, r3, r0, lsl #2
  40              	.LBE284:
  41              		.loc 1 328 13 view .LVU5
  42 0006 2DE9F047 		push	{r4, r5, r6, r7, r8, r9, r10, lr}
  43              		.cfi_def_cfa_offset 32
  44              		.cfi_offset 4, -32
  45              		.cfi_offset 5, -28
  46              		.cfi_offset 6, -24
  47              		.cfi_offset 7, -20
  48              		.cfi_offset 8, -16
  49              		.cfi_offset 9, -12
  50              		.cfi_offset 10, -8
  51              		.cfi_offset 14, -4
  52 000a D3F890A0 		ldr	r10, [r3, #144]
  53              	.LBB287:
  54              		.loc 1 335 18 view .LVU6
  55 000e D368     		ldr	r3, [r2, #12]
  56              		.loc 1 335 22 view .LVU7
  57 0010 D3F814C0 		ldr	ip, [r3, #20]
ARM GAS  /tmp/ccfraM8n.s 			page 2


  58              		.loc 1 335 66 view .LVU8
  59 0014 DCE900E7 		ldrd	lr, r7, [ip]
  60              		.loc 1 335 8 view .LVU9
  61 0018 BE45     		cmp	lr, r7
  62 001a 36D9     		bls	.L2
  63              		.loc 1 343 5 is_stmt 1 view .LVU10
  64              		.loc 1 344 26 is_stmt 0 view .LVU11
  65 001c B3F81090 		ldrh	r9, [r3, #16]
  66              		.loc 1 343 7 view .LVU12
  67 0020 AEEB0704 		sub	r4, lr, r7
  68              		.loc 1 344 5 is_stmt 1 view .LVU13
  69              		.loc 1 349 28 is_stmt 0 view .LVU14
  70 0024 0AEB4018 		add	r8, r10, r0, lsl #5
  71 0028 4C45     		cmp	r4, r9
  72 002a D8F81839 		ldr	r3, [r8, #2328]
  73 002e 28BF     		it	cs
  74 0030 4C46     		movcs	r4, r9
  75              	.LVL1:
  76              		.loc 1 349 5 is_stmt 1 view .LVU15
  77              		.loc 1 349 37 is_stmt 0 view .LVU16
  78 0032 9BB2     		uxth	r3, r3
  79              		.loc 1 349 8 view .LVU17
  80 0034 B4EB830F 		cmp	r4, r3, lsl #2
  81 0038 24D8     		bhi	.L3
  82              		.loc 1 355 47 view .LVU18
  83 003a 451C     		adds	r5, r0, #1
  84 003c DCF80860 		ldr	r6, [ip, #8]
  85 0040 0AEB0535 		add	r5, r10, r5, lsl #12
  86              	.L4:
  87              		.loc 1 355 5 is_stmt 1 view .LVU19
  88              	.LVL2:
  89              	.LBB285:
  90              	.LBI285:
  91              		.loc 1 233 13 view .LVU20
  92              	.LBB286:
  93              		.loc 1 237 3 view .LVU21
  94              		.loc 1 237 3 view .LVU22
  95              		.loc 1 239 3 view .LVU23
  96              		.loc 1 240 5 view .LVU24
  97              		.loc 1 240 14 is_stmt 0 view .LVU25
  98 0044 3368     		ldr	r3, [r6]
  99              		.loc 1 241 8 view .LVU26
 100 0046 042C     		cmp	r4, #4
 101              		.loc 1 240 12 view .LVU27
 102 0048 2B60     		str	r3, [r5]
 103              		.loc 1 241 5 is_stmt 1 view .LVU28
 104              		.loc 1 241 8 is_stmt 0 view .LVU29
 105 004a 0AD9     		bls	.L8
 106              		.loc 1 241 8 view .LVU30
 107 004c 611F     		subs	r1, r4, #5
 108 004e 3346     		mov	r3, r6
 109 0050 21F00301 		bic	r1, r1, #3
 110 0054 0431     		adds	r1, r1, #4
 111 0056 3144     		add	r1, r1, r6
 112              	.LVL3:
 113              	.L9:
 114              		.loc 1 244 5 is_stmt 1 view .LVU31
ARM GAS  /tmp/ccfraM8n.s 			page 3


 115              		.loc 1 245 5 view .LVU32
 116              		.loc 1 239 3 view .LVU33
 117              		.loc 1 240 5 view .LVU34
 118              		.loc 1 240 14 is_stmt 0 view .LVU35
 119 0058 53F8042F 		ldr	r2, [r3, #4]!
 120              	.LVL4:
 121              		.loc 1 241 8 view .LVU36
 122 005c 9942     		cmp	r1, r3
 123              		.loc 1 240 12 view .LVU37
 124 005e 2A60     		str	r2, [r5]
 125              		.loc 1 241 5 is_stmt 1 view .LVU38
 126              		.loc 1 241 8 is_stmt 0 view .LVU39
 127 0060 FAD1     		bne	.L9
 128              	.LVL5:
 129              	.L8:
 130              		.loc 1 241 8 view .LVU40
 131              	.LBE286:
 132              	.LBE285:
 133              		.loc 1 358 5 is_stmt 1 view .LVU41
 134              		.loc 1 359 36 is_stmt 0 view .LVU42
 135 0062 2744     		add	r7, r7, r4
 136              		.loc 1 358 36 view .LVU43
 137 0064 2644     		add	r6, r6, r4
 138              		.loc 1 335 8 view .LVU44
 139 0066 7745     		cmp	r7, lr
 140              		.loc 1 359 36 view .LVU45
 141 0068 CCE90176 		strd	r7, r6, [ip, #4]
 142              	.LBE287:
 143              		.loc 1 331 3 is_stmt 1 view .LVU46
 144              	.LBB288:
 145              		.loc 1 332 5 view .LVU47
 146              		.loc 1 335 5 view .LVU48
 147              		.loc 1 335 8 is_stmt 0 view .LVU49
 148 006c 0DD2     		bcs	.L2
 149              		.loc 1 343 5 is_stmt 1 view .LVU50
 150              		.loc 1 343 7 is_stmt 0 view .LVU51
 151 006e AEEB0704 		sub	r4, lr, r7
 152              	.LVL6:
 153              		.loc 1 344 5 is_stmt 1 view .LVU52
 154              		.loc 1 349 28 is_stmt 0 view .LVU53
 155 0072 D8F81839 		ldr	r3, [r8, #2328]
 156 0076 4C45     		cmp	r4, r9
 157              		.loc 1 349 37 view .LVU54
 158 0078 9BB2     		uxth	r3, r3
 159 007a 28BF     		it	cs
 160 007c 4C46     		movcs	r4, r9
 161              	.LVL7:
 162              		.loc 1 349 5 is_stmt 1 view .LVU55
 163              		.loc 1 349 8 is_stmt 0 view .LVU56
 164 007e B4EB830F 		cmp	r4, r3, lsl #2
 165 0082 DFD9     		bls	.L4
 166              	.L3:
 167              		.loc 1 350 14 view .LVU57
 168 0084 0020     		movs	r0, #0
 169              	.LVL8:
 170              		.loc 1 350 14 view .LVU58
 171              	.LBE288:
ARM GAS  /tmp/ccfraM8n.s 			page 4


 172              		.loc 1 364 1 view .LVU59
 173 0086 BDE8F087 		pop	{r4, r5, r6, r7, r8, r9, r10, pc}
 174              	.LVL9:
 175              	.L2:
 176              	.LBB289:
 177              		.loc 1 337 7 is_stmt 1 view .LVU60
 178              		.loc 1 337 33 is_stmt 0 view .LVU61
 179 008a 0123     		movs	r3, #1
 180              		.loc 1 337 29 view .LVU62
 181 008c DAF83428 		ldr	r2, [r10, #2100]
 182              		.loc 1 337 33 view .LVU63
 183 0090 03FA00F1 		lsl	r1, r3, r0
 184              		.loc 1 339 14 view .LVU64
 185 0094 1846     		mov	r0, r3
 186              	.LVL10:
 187              		.loc 1 337 29 view .LVU65
 188 0096 22EA0102 		bic	r2, r2, r1
 189 009a CAF83428 		str	r2, [r10, #2100]
 190              		.loc 1 339 7 is_stmt 1 view .LVU66
 191              	.LBE289:
 192              		.loc 1 364 1 is_stmt 0 view .LVU67
 193 009e BDE8F087 		pop	{r4, r5, r6, r7, r8, r9, r10, pc}
 194              	.L15:
 195 00a2 00BF     		.align	2
 196              	.L14:
 197 00a4 00000000 		.word	USBD1
 198              		.cfi_endproc
 199              	.LFE401:
 200              		.size	otg_txfifo_handler.constprop.11, .-otg_txfifo_handler.constprop.11
 201              		.align	1
 202 00a8 AFF30080 		.p2align 4,,15
 202      AFF30080 
 203              		.global	usb_lld_init
 204              		.syntax unified
 205              		.thumb
 206              		.thumb_func
 207              		.fpu fpv4-sp-d16
 208              		.type	usb_lld_init, %function
 209              	usb_lld_init:
 210              	.LFB378:
 211              		.loc 1 716 25 is_stmt 1 view -0
 212              		.cfi_startproc
 213              		@ args = 0, pretend = 0, frame = 0
 214              		@ frame_needed = 0, uses_anonymous_args = 0
 215              		.loc 1 720 3 view .LVU69
 216              		.loc 1 716 25 is_stmt 0 view .LVU70
 217 00b0 10B5     		push	{r4, lr}
 218              		.cfi_def_cfa_offset 8
 219              		.cfi_offset 4, -8
 220              		.cfi_offset 14, -4
 221              		.loc 1 720 3 view .LVU71
 222 00b2 044C     		ldr	r4, .L18
 223 00b4 2046     		mov	r0, r4
 224 00b6 FFF7FEFF 		bl	usbObjectInit
 225              	.LVL11:
 226              		.loc 1 721 3 is_stmt 1 view .LVU72
 227              		.loc 1 721 19 is_stmt 0 view .LVU73
ARM GAS  /tmp/ccfraM8n.s 			page 5


 228 00ba 034A     		ldr	r2, .L18+4
 229              		.loc 1 722 19 view .LVU74
 230 00bc 034B     		ldr	r3, .L18+8
 231 00be C4E92423 		strd	r2, r3, [r4, #144]
 232              		.loc 1 731 1 view .LVU75
 233 00c2 10BD     		pop	{r4, pc}
 234              	.L19:
 235              		.align	2
 236              	.L18:
 237 00c4 00000000 		.word	USBD1
 238 00c8 00000840 		.word	1074266112
 239 00cc 00000000 		.word	.LANCHOR0
 240              		.cfi_endproc
 241              	.LFE378:
 242              		.size	usb_lld_init, .-usb_lld_init
 243              		.align	1
 244              		.p2align 4,,15
 245              		.global	usb_lld_start
 246              		.syntax unified
 247              		.thumb
 248              		.thumb_func
 249              		.fpu fpv4-sp-d16
 250              		.type	usb_lld_start, %function
 251              	usb_lld_start:
 252              	.LVL12:
 253              	.LFB379:
 254              		.loc 1 743 37 is_stmt 1 view -0
 255              		.cfi_startproc
 256              		@ args = 0, pretend = 0, frame = 0
 257              		@ frame_needed = 0, uses_anonymous_args = 0
 258              		.loc 1 744 3 view .LVU77
 259              		.loc 1 746 3 view .LVU78
 260              		.loc 1 743 37 is_stmt 0 view .LVU79
 261 00d0 F8B5     		push	{r3, r4, r5, r6, r7, lr}
 262              		.cfi_def_cfa_offset 24
 263              		.cfi_offset 3, -24
 264              		.cfi_offset 4, -20
 265              		.cfi_offset 5, -16
 266              		.cfi_offset 6, -12
 267              		.cfi_offset 7, -8
 268              		.cfi_offset 14, -4
 269              		.loc 1 746 6 view .LVU80
 270 00d2 0378     		ldrb	r3, [r0]	@ zero_extendqisi2
 271 00d4 012B     		cmp	r3, #1
 272 00d6 00D0     		beq	.L37
 273              		.loc 1 866 1 view .LVU81
 274 00d8 F8BD     		pop	{r3, r4, r5, r6, r7, pc}
 275              	.L37:
 276              		.loc 1 750 8 view .LVU82
 277 00da 474B     		ldr	r3, .L40
 278 00dc 0746     		mov	r7, r0
 279              		.loc 1 744 16 view .LVU83
 280 00de D0F89060 		ldr	r6, [r0, #144]
 281              		.loc 1 750 5 is_stmt 1 view .LVU84
 282              		.loc 1 750 8 is_stmt 0 view .LVU85
 283 00e2 9842     		cmp	r0, r3
 284 00e4 5ED0     		beq	.L38
ARM GAS  /tmp/ccfraM8n.s 			page 6


 285              		.loc 1 744 16 view .LVU86
 286 00e6 3546     		mov	r5, r6
 287              	.LVL13:
 288              	.L22:
 289              		.loc 1 815 5 is_stmt 1 view .LVU87
 290              		.loc 1 815 19 is_stmt 0 view .LVU88
 291 00e8 0021     		movs	r1, #0
 292              		.loc 1 818 19 view .LVU89
 293 00ea C022     		movs	r2, #192
 294              		.loc 1 833 17 view .LVU90
 295 00ec 4FF40413 		mov	r3, #2162688
 296              		.loc 1 815 19 view .LVU91
 297 00f0 C6F8001E 		str	r1, [r6, #3584]
 298              		.loc 1 818 5 is_stmt 1 view .LVU92
 299              		.loc 1 818 19 is_stmt 0 view .LVU93
 300 00f4 3260     		str	r2, [r6]
 301              		.loc 1 833 5 is_stmt 1 view .LVU94
 302              		.loc 1 833 17 is_stmt 0 view .LVU95
 303 00f6 B363     		str	r3, [r6, #56]
 304              		.loc 1 837 5 is_stmt 1 view .LVU96
 305              	.LBB298:
 306              	.LBI298:
 307              		.loc 1 134 13 view .LVU97
 308              	.LVL14:
 309              	.LBB299:
 310              		.loc 1 135 3 view .LVU98
 311              		.loc 1 138 3 view .LVU99
 312              	.L23:
 313              		.loc 1 139 5 view .LVU100
 314              		.loc 1 138 15 is_stmt 0 view .LVU101
 315 00f8 2B69     		ldr	r3, [r5, #16]
 316              		.loc 1 138 9 view .LVU102
 317 00fa 002B     		cmp	r3, #0
 318 00fc FCDA     		bge	.L23
 319              		.loc 1 142 3 is_stmt 1 view .LVU103
 320              		.loc 1 142 17 is_stmt 0 view .LVU104
 321 00fe 0123     		movs	r3, #1
 322              	.LBB300:
 323              	.LBB301:
 324              		.file 2 "../../../external/ChibiOS/os/hal/osal/rt-nil/osal.h"
 325              		.loc 2 591 3 view .LVU105
 326 0100 0C20     		movs	r0, #12
 327              	.LBE301:
 328              	.LBE300:
 329              		.loc 1 142 17 view .LVU106
 330 0102 2B61     		str	r3, [r5, #16]
 331              		.loc 1 143 3 is_stmt 1 view .LVU107
 332              	.LVL15:
 333              	.LBB303:
 334              	.LBI300:
 335              		.loc 2 589 20 view .LVU108
 336              	.LBB302:
 337              		.loc 2 591 3 view .LVU109
 338 0104 FFF7FEFF 		bl	chSysPolledDelayX
 339              	.LVL16:
 340              	.L24:
 341              		.loc 2 591 3 is_stmt 0 view .LVU110
ARM GAS  /tmp/ccfraM8n.s 			page 7


 342              	.LBE302:
 343              	.LBE303:
 344              		.loc 1 145 5 is_stmt 1 view .LVU111
 345              		.loc 1 144 15 is_stmt 0 view .LVU112
 346 0108 2C69     		ldr	r4, [r5, #16]
 347              		.loc 1 144 9 view .LVU113
 348 010a 14F00104 		ands	r4, r4, #1
 349 010e FBD1     		bne	.L24
 350              		.loc 1 147 3 is_stmt 1 view .LVU114
 351              	.LVL17:
 352              	.LBB304:
 353              	.LBI304:
 354              		.loc 2 589 20 view .LVU115
 355              	.LBB305:
 356              		.loc 2 591 3 view .LVU116
 357 0110 1220     		movs	r0, #18
 358 0112 FFF7FEFF 		bl	chSysPolledDelayX
 359              	.LVL18:
 360              	.L25:
 361              	.LBE305:
 362              	.LBE304:
 363              		.loc 1 151 5 view .LVU117
 364              		.loc 1 150 15 is_stmt 0 view .LVU118
 365 0116 2B69     		ldr	r3, [r5, #16]
 366              		.loc 1 150 9 view .LVU119
 367 0118 002B     		cmp	r3, #0
 368 011a FCDA     		bge	.L25
 369              		.loc 1 150 9 view .LVU120
 370              	.LBE299:
 371              	.LBE298:
 372              		.loc 1 840 5 is_stmt 1 view .LVU121
 373              		.loc 1 840 19 is_stmt 0 view .LVU122
 374 011c 0022     		movs	r2, #0
 375              	.LBB306:
 376              	.LBB307:
 377              		.loc 1 168 25 view .LVU123
 378 011e 4FF0FF30 		mov	r0, #-1
 379              	.LBE307:
 380              	.LBE306:
 381              		.loc 1 843 5 view .LVU124
 382 0122 D7E92413 		ldrd	r1, r3, [r7, #144]
 383              		.loc 1 840 19 view .LVU125
 384 0126 B260     		str	r2, [r6, #8]
 385              		.loc 1 843 5 is_stmt 1 view .LVU126
 386              	.LBB311:
 387              	.LBI306:
 388              		.loc 1 154 13 view .LVU127
 389              	.LVL19:
 390              	.LBB308:
 391              		.loc 1 155 3 view .LVU128
 392              		.loc 1 156 3 view .LVU129
 393              		.loc 1 158 3 view .LVU130
 394              		.loc 1 158 35 is_stmt 0 view .LVU131
 395 0128 D3F808E0 		ldr	lr, [r3, #8]
 396              	.LVL20:
 397              	.L28:
 398              		.loc 1 160 5 is_stmt 1 view .LVU132
ARM GAS  /tmp/ccfraM8n.s 			page 8


 399              		.loc 1 161 7 view .LVU133
 400              		.loc 1 164 5 view .LVU134
 401              		.loc 1 165 7 view .LVU135
 402              		.loc 1 168 5 view .LVU136
 403 012c 6301     		lsls	r3, r4, #5
 404              		.loc 1 158 53 is_stmt 0 view .LVU137
 405 012e 651C     		adds	r5, r4, #1
 406 0130 CA18     		adds	r2, r1, r3
 407              		.loc 1 160 21 view .LVU138
 408 0132 D2F800C9 		ldr	ip, [r2, #2304]
 409              		.loc 1 168 25 view .LVU139
 410 0136 1346     		mov	r3, r2
 411              		.loc 1 160 8 view .LVU140
 412 0138 BCF1000F 		cmp	ip, #0
 413 013c 05DA     		bge	.L26
 414              		.loc 1 161 27 view .LVU141
 415 013e D2F800C9 		ldr	ip, [r2, #2304]
 416 0142 4CF0804C 		orr	ip, ip, #1073741824
 417 0146 C2F800C9 		str	ip, [r2, #2304]
 418              	.L26:
 419              		.loc 1 164 21 view .LVU142
 420 014a D2F800CB 		ldr	ip, [r2, #2816]
 421              		.loc 1 164 8 view .LVU143
 422 014e BCF1000F 		cmp	ip, #0
 423 0152 05DA     		bge	.L27
 424              		.loc 1 165 27 view .LVU144
 425 0154 D2F800CB 		ldr	ip, [r2, #2816]
 426 0158 4CF0804C 		orr	ip, ip, #1073741824
 427 015c C2F800CB 		str	ip, [r2, #2816]
 428              	.L27:
 429              		.loc 1 158 3 view .LVU145
 430 0160 7445     		cmp	r4, lr
 431              		.loc 1 168 25 view .LVU146
 432 0162 C3F80809 		str	r0, [r3, #2312]
 433              		.loc 1 169 5 is_stmt 1 view .LVU147
 434              	.LVL21:
 435              		.loc 1 158 3 is_stmt 0 view .LVU148
 436 0166 2C46     		mov	r4, r5
 437              		.loc 1 169 25 view .LVU149
 438 0168 C3F8080B 		str	r0, [r3, #2824]
 439              		.loc 1 158 3 view .LVU150
 440 016c DED1     		bne	.L28
 441              	.LVL22:
 442              		.loc 1 171 3 is_stmt 1 view .LVU151
 443              	.LBE308:
 444              	.LBE311:
 445              		.loc 1 850 21 is_stmt 0 view .LVU152
 446 016e 7A68     		ldr	r2, [r7, #4]
 447              		.loc 1 847 20 view .LVU153
 448 0170 0023     		movs	r3, #0
 449              	.LBB312:
 450              	.LBB309:
 451              		.loc 1 171 18 view .LVU154
 452 0172 4FF00110 		mov	r0, #65537
 453              	.LBE309:
 454              	.LBE312:
 455              		.loc 1 850 8 view .LVU155
ARM GAS  /tmp/ccfraM8n.s 			page 9


 456 0176 D268     		ldr	r2, [r2, #12]
 457              	.LBB313:
 458              	.LBB310:
 459              		.loc 1 171 18 view .LVU156
 460 0178 C1F81C08 		str	r0, [r1, #2076]
 461              	.LVL23:
 462              		.loc 1 171 18 view .LVU157
 463              	.LBE310:
 464              	.LBE313:
 465              		.loc 1 847 5 is_stmt 1 view .LVU158
 466              		.loc 1 847 20 is_stmt 0 view .LVU159
 467 017c C6F81038 		str	r3, [r6, #2064]
 468              		.loc 1 848 5 is_stmt 1 view .LVU160
 469              		.loc 1 848 20 is_stmt 0 view .LVU161
 470 0180 C6F81438 		str	r3, [r6, #2068]
 471              		.loc 1 849 5 is_stmt 1 view .LVU162
 472              		.loc 1 849 20 is_stmt 0 view .LVU163
 473 0184 C6F81C38 		str	r3, [r6, #2076]
 474              		.loc 1 850 5 is_stmt 1 view .LVU164
 475              		.loc 1 850 8 is_stmt 0 view .LVU165
 476 0188 4AB1     		cbz	r2, .L39
 477              		.loc 1 855 7 is_stmt 1 view .LVU166
 478              		.loc 1 855 22 is_stmt 0 view .LVU167
 479 018a 1C4B     		ldr	r3, .L40+4
 480 018c B361     		str	r3, [r6, #24]
 481              	.L30:
 482              		.loc 1 861 5 is_stmt 1 view .LVU168
 483              		.loc 1 861 20 is_stmt 0 view .LVU169
 484 018e 4FF0FF33 		mov	r3, #-1
 485 0192 7361     		str	r3, [r6, #20]
 486              		.loc 1 864 5 is_stmt 1 view .LVU170
 487              		.loc 1 864 19 is_stmt 0 view .LVU171
 488 0194 B368     		ldr	r3, [r6, #8]
 489 0196 43F00103 		orr	r3, r3, #1
 490 019a B360     		str	r3, [r6, #8]
 491              		.loc 1 866 1 view .LVU172
 492 019c F8BD     		pop	{r3, r4, r5, r6, r7, pc}
 493              	.LVL24:
 494              	.L39:
 495              		.loc 1 851 7 is_stmt 1 view .LVU173
 496              		.loc 1 851 22 is_stmt 0 view .LVU174
 497 019e 184B     		ldr	r3, .L40+8
 498 01a0 B361     		str	r3, [r6, #24]
 499 01a2 F4E7     		b	.L30
 500              	.LVL25:
 501              	.L38:
 502              		.loc 1 752 7 is_stmt 1 view .LVU175
 503 01a4 174B     		ldr	r3, .L40+12
 504              		.loc 1 756 7 is_stmt 0 view .LVU176
 505 01a6 0E21     		movs	r1, #14
 506 01a8 6520     		movs	r0, #101
 507              	.LVL26:
 508              		.loc 1 752 7 view .LVU177
 509 01aa D3F8D820 		ldr	r2, [r3, #216]
 510 01ae 42F00062 		orr	r2, r2, #134217728
 511 01b2 C3F8D820 		str	r2, [r3, #216]
 512              		.loc 1 752 7 is_stmt 1 view .LVU178
ARM GAS  /tmp/ccfraM8n.s 			page 10


 513              		.loc 1 752 7 view .LVU179
 514 01b6 D3F80021 		ldr	r2, [r3, #256]
 515 01ba 42F00062 		orr	r2, r2, #134217728
 516 01be C3F80021 		str	r2, [r3, #256]
 517              		.loc 1 752 7 view .LVU180
 518 01c2 D3F80021 		ldr	r2, [r3, #256]
 519              		.loc 1 752 28 view .LVU181
 520              		.loc 1 753 7 view .LVU182
 521 01c6 D3F88020 		ldr	r2, [r3, #128]
 522 01ca 42F00062 		orr	r2, r2, #134217728
 523 01ce C3F88020 		str	r2, [r3, #128]
 524              		.loc 1 753 7 view .LVU183
 525 01d2 D3F88020 		ldr	r2, [r3, #128]
 526 01d6 22F00062 		bic	r2, r2, #134217728
 527 01da C3F88020 		str	r2, [r3, #128]
 528              		.loc 1 753 7 view .LVU184
 529 01de D3F88030 		ldr	r3, [r3, #128]
 530              		.loc 1 753 23 view .LVU185
 531              		.loc 1 756 7 view .LVU186
 532 01e2 FFF7FEFF 		bl	nvicEnableVector
 533              	.LVL27:
 534              		.loc 1 761 7 view .LVU187
 535              		.loc 1 761 21 is_stmt 0 view .LVU188
 536 01e6 084A     		ldr	r2, .L40+16
 537              		.loc 1 765 18 view .LVU189
 538 01e8 084B     		ldr	r3, .L40+20
 539              		.loc 1 761 21 view .LVU190
 540 01ea F260     		str	r2, [r6, #12]
 541              		.loc 1 765 7 is_stmt 1 view .LVU191
 542 01ec D7F89050 		ldr	r5, [r7, #144]
 543              		.loc 1 765 18 is_stmt 0 view .LVU192
 544 01f0 C6F80038 		str	r3, [r6, #2048]
 545 01f4 78E7     		b	.L22
 546              	.L41:
 547 01f6 00BF     		.align	2
 548              	.L40:
 549 01f8 00000000 		.word	USBD1
 550 01fc 083C30C0 		.word	-1070580728
 551 0200 003C30C0 		.word	-1070580736
 552 0204 00440258 		.word	1476543488
 553 0208 40140040 		.word	1073747008
 554 020c 03002002 		.word	35651587
 555              		.cfi_endproc
 556              	.LFE379:
 557              		.size	usb_lld_start, .-usb_lld_start
 558              		.align	1
 559              		.p2align 4,,15
 560              		.global	usb_lld_stop
 561              		.syntax unified
 562              		.thumb
 563              		.thumb_func
 564              		.fpu fpv4-sp-d16
 565              		.type	usb_lld_stop, %function
 566              	usb_lld_stop:
 567              	.LVL28:
 568              	.LFB380:
 569              		.loc 1 875 36 is_stmt 1 view -0
ARM GAS  /tmp/ccfraM8n.s 			page 11


 570              		.cfi_startproc
 571              		@ args = 0, pretend = 0, frame = 0
 572              		@ frame_needed = 0, uses_anonymous_args = 0
 573              		.loc 1 876 3 view .LVU194
 574              		.loc 1 879 3 view .LVU195
 575              		.loc 1 875 36 is_stmt 0 view .LVU196
 576 0210 F8B5     		push	{r3, r4, r5, r6, r7, lr}
 577              		.cfi_def_cfa_offset 24
 578              		.cfi_offset 3, -24
 579              		.cfi_offset 4, -20
 580              		.cfi_offset 5, -16
 581              		.cfi_offset 6, -12
 582              		.cfi_offset 7, -8
 583              		.cfi_offset 14, -4
 584              		.loc 1 879 6 view .LVU197
 585 0212 0378     		ldrb	r3, [r0]	@ zero_extendqisi2
 586 0214 012B     		cmp	r3, #1
 587 0216 33D0     		beq	.L42
 588              	.LBB314:
 589              	.LBB315:
 590              		.loc 1 158 35 view .LVU198
 591 0218 D0F89430 		ldr	r3, [r0, #148]
 592              		.loc 1 158 10 view .LVU199
 593 021c 0021     		movs	r1, #0
 594              	.LBE315:
 595              	.LBE314:
 596              		.loc 1 876 16 view .LVU200
 597 021e D0F89040 		ldr	r4, [r0, #144]
 598              		.loc 1 883 5 is_stmt 1 view .LVU201
 599              	.LBB319:
 600              	.LBI314:
 601              		.loc 1 154 13 view .LVU202
 602              	.LVL29:
 603              	.LBB316:
 604              		.loc 1 155 3 view .LVU203
 605              		.loc 1 156 3 view .LVU204
 606              		.loc 1 158 3 view .LVU205
 607              		.loc 1 168 25 is_stmt 0 view .LVU206
 608 0222 4FF0FF35 		mov	r5, #-1
 609              		.loc 1 158 35 view .LVU207
 610 0226 D3F808C0 		ldr	ip, [r3, #8]
 611              	.LVL30:
 612              	.L47:
 613              		.loc 1 160 5 is_stmt 1 view .LVU208
 614              		.loc 1 161 7 view .LVU209
 615              		.loc 1 164 5 view .LVU210
 616              		.loc 1 165 7 view .LVU211
 617              		.loc 1 168 5 view .LVU212
 618 022a 4B01     		lsls	r3, r1, #5
 619              		.loc 1 158 53 is_stmt 0 view .LVU213
 620 022c 4E1C     		adds	r6, r1, #1
 621 022e E218     		adds	r2, r4, r3
 622              		.loc 1 160 21 view .LVU214
 623 0230 D2F80079 		ldr	r7, [r2, #2304]
 624              		.loc 1 168 25 view .LVU215
 625 0234 1346     		mov	r3, r2
 626              		.loc 1 160 8 view .LVU216
ARM GAS  /tmp/ccfraM8n.s 			page 12


 627 0236 002F     		cmp	r7, #0
 628 0238 05DA     		bge	.L45
 629              		.loc 1 161 27 view .LVU217
 630 023a D2F80079 		ldr	r7, [r2, #2304]
 631 023e 47F08047 		orr	r7, r7, #1073741824
 632 0242 C2F80079 		str	r7, [r2, #2304]
 633              	.L45:
 634              		.loc 1 164 21 view .LVU218
 635 0246 D2F8007B 		ldr	r7, [r2, #2816]
 636              		.loc 1 164 8 view .LVU219
 637 024a 002F     		cmp	r7, #0
 638 024c 05DA     		bge	.L46
 639              		.loc 1 165 27 view .LVU220
 640 024e D2F8007B 		ldr	r7, [r2, #2816]
 641 0252 47F08047 		orr	r7, r7, #1073741824
 642 0256 C2F8007B 		str	r7, [r2, #2816]
 643              	.L46:
 644              		.loc 1 158 3 view .LVU221
 645 025a 6145     		cmp	r1, ip
 646              		.loc 1 168 25 view .LVU222
 647 025c C3F80859 		str	r5, [r3, #2312]
 648              		.loc 1 169 5 is_stmt 1 view .LVU223
 649              	.LVL31:
 650              		.loc 1 158 3 is_stmt 0 view .LVU224
 651 0260 3146     		mov	r1, r6
 652              		.loc 1 169 25 view .LVU225
 653 0262 C3F8085B 		str	r5, [r3, #2824]
 654              		.loc 1 158 3 view .LVU226
 655 0266 E0D1     		bne	.L47
 656              	.LVL32:
 657              		.loc 1 171 3 is_stmt 1 view .LVU227
 658              	.LBE316:
 659              	.LBE319:
 660              		.loc 1 890 8 is_stmt 0 view .LVU228
 661 0268 0F4A     		ldr	r2, .L52
 662              		.loc 1 885 22 view .LVU229
 663 026a 0023     		movs	r3, #0
 664              	.LBB320:
 665              	.LBB317:
 666              		.loc 1 171 18 view .LVU230
 667 026c 4FF00111 		mov	r1, #65537
 668              	.LVL33:
 669              		.loc 1 171 18 view .LVU231
 670              	.LBE317:
 671              	.LBE320:
 672              		.loc 1 890 8 view .LVU232
 673 0270 9042     		cmp	r0, r2
 674              	.LBB321:
 675              	.LBB318:
 676              		.loc 1 171 18 view .LVU233
 677 0272 C4F81C18 		str	r1, [r4, #2076]
 678              	.LVL34:
 679              		.loc 1 171 18 view .LVU234
 680              	.LBE318:
 681              	.LBE321:
 682              		.loc 1 885 5 is_stmt 1 view .LVU235
 683              		.loc 1 885 22 is_stmt 0 view .LVU236
ARM GAS  /tmp/ccfraM8n.s 			page 13


 684 0276 C4F81C38 		str	r3, [r4, #2076]
 685              		.loc 1 886 5 is_stmt 1 view .LVU237
 686              		.loc 1 886 22 is_stmt 0 view .LVU238
 687 027a A360     		str	r3, [r4, #8]
 688              		.loc 1 887 5 is_stmt 1 view .LVU239
 689              		.loc 1 887 22 is_stmt 0 view .LVU240
 690 027c A363     		str	r3, [r4, #56]
 691              		.loc 1 890 5 is_stmt 1 view .LVU241
 692              		.loc 1 890 8 is_stmt 0 view .LVU242
 693 027e 00D0     		beq	.L51
 694              	.LVL35:
 695              	.L42:
 696              		.loc 1 906 1 view .LVU243
 697 0280 F8BD     		pop	{r3, r4, r5, r6, r7, pc}
 698              	.LVL36:
 699              	.L51:
 700              		.loc 1 891 7 is_stmt 1 view .LVU244
 701 0282 6520     		movs	r0, #101
 702              	.LVL37:
 703              		.loc 1 891 7 is_stmt 0 view .LVU245
 704 0284 FFF7FEFF 		bl	nvicDisableVector
 705              	.LVL38:
 706              		.loc 1 892 7 is_stmt 1 view .LVU246
 707 0288 084B     		ldr	r3, .L52+4
 708 028a D3F8D820 		ldr	r2, [r3, #216]
 709 028e 22F00062 		bic	r2, r2, #134217728
 710 0292 C3F8D820 		str	r2, [r3, #216]
 711              		.loc 1 892 7 view .LVU247
 712 0296 D3F80021 		ldr	r2, [r3, #256]
 713 029a 22F00062 		bic	r2, r2, #134217728
 714 029e C3F80021 		str	r2, [r3, #256]
 715              		.loc 1 892 7 view .LVU248
 716 02a2 D3F80031 		ldr	r3, [r3, #256]
 717              		.loc 1 892 25 view .LVU249
 718              		.loc 1 906 1 is_stmt 0 view .LVU250
 719 02a6 F8BD     		pop	{r3, r4, r5, r6, r7, pc}
 720              	.L53:
 721              		.align	2
 722              	.L52:
 723 02a8 00000000 		.word	USBD1
 724 02ac 00440258 		.word	1476543488
 725              		.cfi_endproc
 726              	.LFE380:
 727              		.size	usb_lld_stop, .-usb_lld_stop
 728              		.align	1
 729              		.p2align 4,,15
 730              		.global	usb_lld_reset
 731              		.syntax unified
 732              		.thumb
 733              		.thumb_func
 734              		.fpu fpv4-sp-d16
 735              		.type	usb_lld_reset, %function
 736              	usb_lld_reset:
 737              	.LVL39:
 738              	.LFB381:
 739              		.loc 1 915 37 is_stmt 1 view -0
 740              		.cfi_startproc
ARM GAS  /tmp/ccfraM8n.s 			page 14


 741              		@ args = 0, pretend = 0, frame = 0
 742              		@ frame_needed = 0, uses_anonymous_args = 0
 743              		.loc 1 916 3 view .LVU252
 744              		.loc 1 917 3 view .LVU253
 745              		.loc 1 915 37 is_stmt 0 view .LVU254
 746 02b0 F8B5     		push	{r3, r4, r5, r6, r7, lr}
 747              		.cfi_def_cfa_offset 24
 748              		.cfi_offset 3, -24
 749              		.cfi_offset 4, -20
 750              		.cfi_offset 5, -16
 751              		.cfi_offset 6, -12
 752              		.cfi_offset 7, -8
 753              		.cfi_offset 14, -4
 754              	.LBB322:
 755              	.LBB323:
 756              		.loc 1 187 17 view .LVU255
 757 02b2 2023     		movs	r3, #32
 758              	.LBE323:
 759              	.LBE322:
 760              		.loc 1 917 16 view .LVU256
 761 02b4 D0F89050 		ldr	r5, [r0, #144]
 762              	.LVL40:
 763              		.loc 1 920 3 is_stmt 1 view .LVU257
 764              		.loc 1 915 37 is_stmt 0 view .LVU258
 765 02b8 0646     		mov	r6, r0
 766              	.LVL41:
 767              	.LBB327:
 768              	.LBI322:
 769              		.loc 1 184 13 is_stmt 1 view .LVU259
 770              	.LBB326:
 771              		.loc 1 185 3 view .LVU260
 772              		.loc 1 187 3 view .LVU261
 773              		.loc 1 187 17 is_stmt 0 view .LVU262
 774 02ba 2B61     		str	r3, [r5, #16]
 775              		.loc 1 188 3 is_stmt 1 view .LVU263
 776              	.L55:
 777              		.loc 1 189 5 view .LVU264
 778              		.loc 1 188 15 is_stmt 0 view .LVU265
 779 02bc 2C69     		ldr	r4, [r5, #16]
 780              		.loc 1 188 9 view .LVU266
 781 02be 14F02004 		ands	r4, r4, #32
 782 02c2 FBD1     		bne	.L55
 783              		.loc 1 191 3 is_stmt 1 view .LVU267
 784              	.LVL42:
 785              	.LBB324:
 786              	.LBI324:
 787              		.loc 2 589 20 view .LVU268
 788              	.LBB325:
 789              		.loc 2 591 3 view .LVU269
 790 02c4 1220     		movs	r0, #18
 791              	.LVL43:
 792              		.loc 2 591 3 is_stmt 0 view .LVU270
 793 02c6 FFF7FEFF 		bl	chSysPolledDelayX
 794              	.LVL44:
 795              		.loc 2 591 3 view .LVU271
 796              	.LBE325:
 797              	.LBE324:
ARM GAS  /tmp/ccfraM8n.s 			page 15


 798              	.LBE326:
 799              	.LBE327:
 800              		.loc 1 923 3 is_stmt 1 view .LVU272
 801              		.loc 1 927 24 is_stmt 0 view .LVU273
 802 02ca D6F894C0 		ldr	ip, [r6, #148]
 803              		.loc 1 924 20 view .LVU274
 804 02ce 4FF00113 		mov	r3, #65537
 805              		.loc 1 928 25 view .LVU275
 806 02d2 4FF00061 		mov	r1, #134217728
 807              		.loc 1 930 25 view .LVU276
 808 02d6 4FF0FF32 		mov	r2, #-1
 809              		.loc 1 927 35 view .LVU277
 810 02da DCF80870 		ldr	r7, [ip, #8]
 811              		.loc 1 923 20 view .LVU278
 812 02de C5F83448 		str	r4, [r5, #2100]
 813              		.loc 1 924 3 is_stmt 1 view .LVU279
 814              		.loc 1 924 20 is_stmt 0 view .LVU280
 815 02e2 C5F81C38 		str	r3, [r5, #2076]
 816              		.loc 1 927 3 is_stmt 1 view .LVU281
 817              	.LVL45:
 818              	.L56:
 819              		.loc 1 928 5 discriminator 3 view .LVU282
 820 02e6 05EB4413 		add	r3, r5, r4, lsl #5
 821              		.loc 1 927 53 is_stmt 0 discriminator 3 view .LVU283
 822 02ea 601C     		adds	r0, r4, #1
 823              		.loc 1 927 3 discriminator 3 view .LVU284
 824 02ec BC42     		cmp	r4, r7
 825              		.loc 1 928 25 discriminator 3 view .LVU285
 826 02ee C3F80019 		str	r1, [r3, #2304]
 827              		.loc 1 929 5 is_stmt 1 discriminator 3 view .LVU286
 828 02f2 0446     		mov	r4, r0
 829              	.LVL46:
 830              		.loc 1 929 25 is_stmt 0 discriminator 3 view .LVU287
 831 02f4 C3F8001B 		str	r1, [r3, #2816]
 832              		.loc 1 930 5 is_stmt 1 discriminator 3 view .LVU288
 833              		.loc 1 930 25 is_stmt 0 discriminator 3 view .LVU289
 834 02f8 C3F80829 		str	r2, [r3, #2312]
 835              		.loc 1 931 5 is_stmt 1 discriminator 3 view .LVU290
 836              	.LVL47:
 837              		.loc 1 931 25 is_stmt 0 discriminator 3 view .LVU291
 838 02fc C3F8082B 		str	r2, [r3, #2824]
 839              		.loc 1 927 3 discriminator 3 view .LVU292
 840 0300 F1D1     		bne	.L56
 841              		.loc 1 935 3 is_stmt 1 view .LVU293
 842              	.LBB328:
 843              	.LBI328:
 844              		.loc 1 201 13 view .LVU294
 845              	.LVL48:
 846              	.LBB329:
 847              		.loc 1 203 3 view .LVU295
 848              		.loc 1 203 33 is_stmt 0 view .LVU296
 849 0302 DCF80010 		ldr	r1, [ip]
 850              	.LBE329:
 851              	.LBE328:
 852              	.LBB331:
 853              	.LBB332:
 854              		.loc 1 177 17 view .LVU297
ARM GAS  /tmp/ccfraM8n.s 			page 16


 855 0306 1023     		movs	r3, #16
 856              	.LBE332:
 857              	.LBE331:
 858              		.loc 1 939 3 view .LVU298
 859 0308 D6F89020 		ldr	r2, [r6, #144]
 860              	.LBB339:
 861              	.LBB330:
 862              		.loc 1 203 16 view .LVU299
 863 030c C6F89810 		str	r1, [r6, #152]
 864              	.LBE330:
 865              	.LBE339:
 866              		.loc 1 938 3 is_stmt 1 view .LVU300
 867              		.loc 1 938 34 is_stmt 0 view .LVU301
 868 0310 DCF80010 		ldr	r1, [ip]
 869              		.loc 1 938 17 view .LVU302
 870 0314 6962     		str	r1, [r5, #36]
 871              		.loc 1 939 3 is_stmt 1 view .LVU303
 872              	.LBB340:
 873              	.LBI331:
 874              		.loc 1 174 13 view .LVU304
 875              	.LVL49:
 876              	.LBB337:
 877              		.loc 1 175 3 view .LVU305
 878              		.loc 1 177 3 view .LVU306
 879              		.loc 1 177 17 is_stmt 0 view .LVU307
 880 0316 1361     		str	r3, [r2, #16]
 881              		.loc 1 178 3 is_stmt 1 view .LVU308
 882              	.L57:
 883              		.loc 1 179 5 view .LVU309
 884              		.loc 1 178 15 is_stmt 0 view .LVU310
 885 0318 1469     		ldr	r4, [r2, #16]
 886              		.loc 1 178 9 view .LVU311
 887 031a 14F01004 		ands	r4, r4, #16
 888 031e FBD1     		bne	.L57
 889              		.loc 1 181 3 is_stmt 1 view .LVU312
 890              	.LVL50:
 891              	.LBB333:
 892              	.LBI333:
 893              		.loc 2 589 20 view .LVU313
 894              	.LBB334:
 895              		.loc 2 591 3 view .LVU314
 896 0320 1220     		movs	r0, #18
 897              	.LVL51:
 898              		.loc 2 591 3 is_stmt 0 view .LVU315
 899              	.LBE334:
 900              	.LBE333:
 901              	.LBE337:
 902              	.LBE340:
 903              		.loc 1 950 16 view .LVU316
 904 0322 144F     		ldr	r7, .L62
 905              	.LBB341:
 906              	.LBB338:
 907              	.LBB336:
 908              	.LBB335:
 909              		.loc 2 591 3 view .LVU317
 910 0324 FFF7FEFF 		bl	chSysPolledDelayX
 911              	.LVL52:
ARM GAS  /tmp/ccfraM8n.s 			page 17


 912              		.loc 2 591 3 view .LVU318
 913              	.LBE335:
 914              	.LBE336:
 915              	.LBE338:
 916              	.LBE341:
 917              		.loc 1 942 3 is_stmt 1 view .LVU319
 918              		.loc 1 942 21 is_stmt 0 view .LVU320
 919 0328 D5F80028 		ldr	r2, [r5, #2048]
 920              		.loc 1 945 18 view .LVU321
 921 032c 124B     		ldr	r3, .L62+4
 922              		.loc 1 946 19 view .LVU322
 923 032e 0921     		movs	r1, #9
 924              		.loc 1 942 46 view .LVU323
 925 0330 22F4FE62 		bic	r2, r2, #2032
 926              		.loc 1 951 24 view .LVU324
 927 0334 4FF0C040 		mov	r0, #1610612736
 928              		.loc 1 942 14 view .LVU325
 929 0338 C5F80028 		str	r2, [r5, #2048]
 930              		.loc 1 945 3 is_stmt 1 view .LVU326
 931              		.loc 1 945 18 is_stmt 0 view .LVU327
 932 033c AA69     		ldr	r2, [r5, #24]
 933 033e 1343     		orrs	r3, r3, r2
 934              		.loc 1 952 23 view .LVU328
 935 0340 0E4A     		ldr	r2, .L62+8
 936              		.loc 1 945 18 view .LVU329
 937 0342 AB61     		str	r3, [r5, #24]
 938              		.loc 1 946 3 is_stmt 1 view .LVU330
 939              		.loc 1 946 19 is_stmt 0 view .LVU331
 940 0344 C5F81018 		str	r1, [r5, #2064]
 941              		.loc 1 947 3 is_stmt 1 view .LVU332
 942              		.loc 1 947 19 is_stmt 0 view .LVU333
 943 0348 C5F81418 		str	r1, [r5, #2068]
 944              		.loc 1 950 3 is_stmt 1 view .LVU334
 945              		.loc 1 950 16 is_stmt 0 view .LVU335
 946 034c F760     		str	r7, [r6, #12]
 947              		.loc 1 951 3 is_stmt 1 view .LVU336
 948              		.loc 1 951 24 is_stmt 0 view .LVU337
 949 034e C5F8100B 		str	r0, [r5, #2832]
 950              		.loc 1 952 3 is_stmt 1 view .LVU338
 951              		.loc 1 952 23 is_stmt 0 view .LVU339
 952 0352 C5F8002B 		str	r2, [r5, #2816]
 953              		.loc 1 954 3 is_stmt 1 view .LVU340
 954              		.loc 1 954 24 is_stmt 0 view .LVU341
 955 0356 C5F81049 		str	r4, [r5, #2320]
 956              		.loc 1 955 3 is_stmt 1 view .LVU342
 957              		.loc 1 955 23 is_stmt 0 view .LVU343
 958 035a C5F80029 		str	r2, [r5, #2304]
 959              		.loc 1 957 3 is_stmt 1 view .LVU344
 960              	.LVL53:
 961              	.LBB342:
 962              	.LBI342:
 963              		.loc 1 214 17 view .LVU345
 964              	.LBB343:
 965              		.loc 1 215 3 view .LVU346
 966              		.loc 1 217 3 view .LVU347
 967              		.loc 1 217 8 is_stmt 0 view .LVU348
 968 035e D6F89830 		ldr	r3, [r6, #152]
ARM GAS  /tmp/ccfraM8n.s 			page 18


 969              	.LVL54:
 970              		.loc 1 218 3 is_stmt 1 view .LVU349
 971              		.loc 1 218 16 is_stmt 0 view .LVU350
 972 0362 03F11002 		add	r2, r3, #16
 973              	.LBE343:
 974              	.LBE342:
 975              		.loc 1 957 63 view .LVU351
 976 0366 43F48013 		orr	r3, r3, #1048576
 977              	.LVL55:
 978              	.LBB345:
 979              	.LBB344:
 980              		.loc 1 218 16 view .LVU352
 981 036a C6F89820 		str	r2, [r6, #152]
 982              	.LVL56:
 983              		.loc 1 219 3 is_stmt 1 view .LVU353
 984              		.loc 1 219 3 view .LVU354
 985              		.loc 1 221 3 view .LVU355
 986              		.loc 1 221 3 is_stmt 0 view .LVU356
 987              	.LBE344:
 988              	.LBE345:
 989              		.loc 1 957 18 view .LVU357
 990 036e AB62     		str	r3, [r5, #40]
 991              		.loc 1 960 1 view .LVU358
 992 0370 F8BD     		pop	{r3, r4, r5, r6, r7, pc}
 993              	.LVL57:
 994              	.L63:
 995              		.loc 1 960 1 view .LVU359
 996 0372 00BF     		.align	2
 997              	.L62:
 998 0374 0C000000 		.word	.LANCHOR0+12
 999 0378 10000C00 		.word	786448
 1000 037c 40800010 		.word	268468288
 1001              		.cfi_endproc
 1002              	.LFE381:
 1003              		.size	usb_lld_reset, .-usb_lld_reset
 1004              		.align	1
 1005              		.p2align 4,,15
 1006              		.global	usb_lld_set_address
 1007              		.syntax unified
 1008              		.thumb
 1009              		.thumb_func
 1010              		.fpu fpv4-sp-d16
 1011              		.type	usb_lld_set_address, %function
 1012              	usb_lld_set_address:
 1013              	.LVL58:
 1014              	.LFB382:
 1015              		.loc 1 969 43 is_stmt 1 view -0
 1016              		.cfi_startproc
 1017              		@ args = 0, pretend = 0, frame = 0
 1018              		@ frame_needed = 0, uses_anonymous_args = 0
 1019              		@ link register save eliminated.
 1020              		.loc 1 970 3 view .LVU361
 1021              		.loc 1 970 16 is_stmt 0 view .LVU362
 1022 0380 D0F89020 		ldr	r2, [r0, #144]
 1023              	.LVL59:
 1024              		.loc 1 972 3 is_stmt 1 view .LVU363
 1025              		.loc 1 972 48 is_stmt 0 view .LVU364
ARM GAS  /tmp/ccfraM8n.s 			page 19


 1026 0384 90F88A10 		ldrb	r1, [r0, #138]	@ zero_extendqisi2
 1027              		.loc 1 972 21 view .LVU365
 1028 0388 D2F80038 		ldr	r3, [r2, #2048]
 1029              		.loc 1 972 28 view .LVU366
 1030 038c 23F4FE63 		bic	r3, r3, #2032
 1031              		.loc 1 972 46 view .LVU367
 1032 0390 43EA0113 		orr	r3, r3, r1, lsl #4
 1033              		.loc 1 972 14 view .LVU368
 1034 0394 C2F80038 		str	r3, [r2, #2048]
 1035              		.loc 1 973 1 view .LVU369
 1036 0398 7047     		bx	lr
 1037              		.cfi_endproc
 1038              	.LFE382:
 1039              		.size	usb_lld_set_address, .-usb_lld_set_address
 1040              		.align	1
 1041 039a 00BFAFF3 		.p2align 4,,15
 1041      0080
 1042              		.global	usb_lld_init_endpoint
 1043              		.syntax unified
 1044              		.thumb
 1045              		.thumb_func
 1046              		.fpu fpv4-sp-d16
 1047              		.type	usb_lld_init_endpoint, %function
 1048              	usb_lld_init_endpoint:
 1049              	.LVL60:
 1050              	.LFB383:
 1051              		.loc 1 983 57 is_stmt 1 view -0
 1052              		.cfi_startproc
 1053              		@ args = 0, pretend = 0, frame = 0
 1054              		@ frame_needed = 0, uses_anonymous_args = 0
 1055              		.loc 1 983 57 is_stmt 0 view .LVU371
 1056 03a0 2DE9F047 		push	{r4, r5, r6, r7, r8, r9, r10, lr}
 1057              		.cfi_def_cfa_offset 32
 1058              		.cfi_offset 4, -32
 1059              		.cfi_offset 5, -28
 1060              		.cfi_offset 6, -24
 1061              		.cfi_offset 7, -20
 1062              		.cfi_offset 8, -16
 1063              		.cfi_offset 9, -12
 1064              		.cfi_offset 10, -8
 1065              		.cfi_offset 14, -4
 1066 03a4 0FFA81F8 		sxth	r8, r1
 1067              		.loc 1 985 16 view .LVU372
 1068 03a8 D0F89040 		ldr	r4, [r0, #144]
 1069              		.loc 1 1006 25 view .LVU373
 1070 03ac 4FEA411C 		lsl	ip, r1, #5
 1071 03b0 01F1100E 		add	lr, r1, #16
 1072 03b4 00EB8807 		add	r7, r0, r8, lsl #2
 1073              		.loc 1 983 57 view .LVU374
 1074 03b8 0D46     		mov	r5, r1
 1075              		.loc 1 984 3 is_stmt 1 view .LVU375
 1076              		.loc 1 985 3 view .LVU376
 1077              	.LVL61:
 1078              		.loc 1 988 3 view .LVU377
 1079              		.loc 1 1006 25 is_stmt 0 view .LVU378
 1080 03ba 4FF00009 		mov	r9, #0
 1081 03be 04EB0C06 		add	r6, r4, ip
ARM GAS  /tmp/ccfraM8n.s 			page 20


 1082              		.loc 1 988 20 view .LVU379
 1083 03c2 FB68     		ldr	r3, [r7, #12]
 1084 03c4 4FF0010A 		mov	r10, #1
 1085 03c8 414A     		ldr	r2, .L76
 1086              		.loc 1 988 34 view .LVU380
 1087 03ca 1968     		ldr	r1, [r3]
 1088              	.LVL62:
 1089              		.loc 1 988 34 view .LVU381
 1090 03cc 0AFA0EFE 		lsl	lr, r10, lr
 1091              		.loc 1 1006 25 view .LVU382
 1092 03d0 C6F8109B 		str	r9, [r6, #2832]
 1093              		.loc 1 988 34 view .LVU383
 1094 03d4 01F00301 		and	r1, r1, #3
 1095              		.loc 1 1007 6 view .LVU384
 1096 03d8 9E69     		ldr	r6, [r3, #24]
 1097 03da 02EB8102 		add	r2, r2, r1, lsl #2
 1098 03de D2F83090 		ldr	r9, [r2, #48]
 1099              	.LVL63:
 1100              		.loc 1 1006 3 is_stmt 1 view .LVU385
 1101              		.loc 1 1007 3 view .LVU386
 1102              		.loc 1 1007 6 is_stmt 0 view .LVU387
 1103 03e2 002E     		cmp	r6, #0
 1104 03e4 65D0     		beq	.L66
 1105              		.loc 1 1008 5 is_stmt 1 view .LVU388
 1106              		.loc 1 1008 34 is_stmt 0 view .LVU389
 1107 03e6 598A     		ldrh	r1, [r3, #18]
 1108              		.loc 1 1008 26 view .LVU390
 1109 03e8 05F15802 		add	r2, r5, #88
 1110              		.loc 1 1008 32 view .LVU391
 1111 03ec 41EA0901 		orr	r1, r1, r9
 1112              		.loc 1 1008 26 view .LVU392
 1113 03f0 5201     		lsls	r2, r2, #5
 1114 03f2 A150     		str	r1, [r4, r2]
 1115              		.loc 1 1009 5 is_stmt 1 view .LVU393
 1116              		.loc 1 1009 20 is_stmt 0 view .LVU394
 1117 03f4 D4F81C28 		ldr	r2, [r4, #2076]
 1118 03f8 42EA0E02 		orr	r2, r2, lr
 1119 03fc C4F81C28 		str	r2, [r4, #2076]
 1120              	.L67:
 1121              		.loc 1 1017 3 is_stmt 1 view .LVU395
 1122              		.loc 1 1017 25 is_stmt 0 view .LVU396
 1123 0400 0021     		movs	r1, #0
 1124 0402 A444     		add	ip, ip, r4
 1125 0404 AA01     		lsls	r2, r5, #6
 1126              		.loc 1 1018 6 view .LVU397
 1127 0406 5E69     		ldr	r6, [r3, #20]
 1128              		.loc 1 1017 25 view .LVU398
 1129 0408 CCF81019 		str	r1, [ip, #2320]
 1130              		.loc 1 1018 3 is_stmt 1 view .LVU399
 1131 040c 691E     		subs	r1, r5, #1
 1132 040e 42F02002 		orr	r2, r2, #32
 1133              		.loc 1 1018 6 is_stmt 0 view .LVU400
 1134 0412 7EB3     		cbz	r6, .L68
 1135              		.loc 1 1020 5 is_stmt 1 view .LVU401
 1136              		.loc 1 1021 22 is_stmt 0 view .LVU402
 1137 0414 B3F81CC0 		ldrh	ip, [r3, #28]
 1138              		.loc 1 1023 27 view .LVU403
ARM GAS  /tmp/ccfraM8n.s 			page 21


 1139 0418 4031     		adds	r1, r1, #64
 1140              		.loc 1 1020 39 view .LVU404
 1141 041a 1E8A     		ldrh	r6, [r3, #16]
 1142              		.loc 1 1021 8 view .LVU405
 1143 041c BCF1010F 		cmp	ip, #1
 1144              		.loc 1 1023 27 view .LVU406
 1145 0420 04EB8101 		add	r1, r4, r1, lsl #2
 1146              		.loc 1 1020 11 view .LVU407
 1147 0424 4FEA9603 		lsr	r3, r6, #2
 1148              	.LVL64:
 1149              		.loc 1 1021 5 is_stmt 1 view .LVU408
 1150              		.loc 1 1022 7 view .LVU409
 1151              	.LBB346:
 1152              	.LBB347:
 1153              		.loc 1 217 8 is_stmt 0 view .LVU410
 1154 0428 D0F89860 		ldr	r6, [r0, #152]
 1155              	.LBE347:
 1156              	.LBE346:
 1157              		.loc 1 1022 13 view .LVU411
 1158 042c 88BF     		it	hi
 1159 042e 0CFB03F3 		mulhi	r3, ip, r3
 1160              	.LVL65:
 1161              		.loc 1 1023 5 is_stmt 1 view .LVU412
 1162              	.LBB350:
 1163              	.LBI346:
 1164              		.loc 1 214 17 view .LVU413
 1165              	.LBB348:
 1166              		.loc 1 215 3 view .LVU414
 1167              		.loc 1 217 3 view .LVU415
 1168              		.loc 1 218 3 view .LVU416
 1169              		.loc 1 218 16 is_stmt 0 view .LVU417
 1170 0432 03EB060C 		add	ip, r3, r6
 1171              	.LBE348:
 1172              	.LBE350:
 1173              		.loc 1 1023 53 view .LVU418
 1174 0436 46EA0343 		orr	r3, r6, r3, lsl #16
 1175              	.LVL66:
 1176              	.LBB351:
 1177              	.LBB349:
 1178              		.loc 1 218 16 view .LVU419
 1179 043a C0F898C0 		str	ip, [r0, #152]
 1180              		.loc 1 219 3 is_stmt 1 view .LVU420
 1181              		.loc 1 219 3 view .LVU421
 1182              		.loc 1 221 3 view .LVU422
 1183              	.LVL67:
 1184              		.loc 1 221 3 is_stmt 0 view .LVU423
 1185              	.LBE349:
 1186              	.LBE351:
 1187              		.loc 1 1023 27 view .LVU424
 1188 043e 4B60     		str	r3, [r1, #4]
 1189              		.loc 1 1025 5 is_stmt 1 view .LVU425
 1190              	.LVL68:
 1191              	.LBB352:
 1192              	.LBI352:
 1193              		.loc 1 184 13 view .LVU426
 1194              	.LBB353:
 1195              		.loc 1 185 3 view .LVU427
ARM GAS  /tmp/ccfraM8n.s 			page 22


 1196              		.loc 1 187 3 view .LVU428
 1197              		.loc 1 187 17 is_stmt 0 view .LVU429
 1198 0440 2261     		str	r2, [r4, #16]
 1199              		.loc 1 188 3 is_stmt 1 view .LVU430
 1200              	.L70:
 1201              		.loc 1 189 5 view .LVU431
 1202              		.loc 1 188 15 is_stmt 0 view .LVU432
 1203 0442 2369     		ldr	r3, [r4, #16]
 1204              		.loc 1 188 9 view .LVU433
 1205 0444 9A06     		lsls	r2, r3, #26
 1206 0446 FCD4     		bmi	.L70
 1207              		.loc 1 191 3 is_stmt 1 view .LVU434
 1208              	.LVL69:
 1209              	.LBB354:
 1210              	.LBI354:
 1211              		.loc 2 589 20 view .LVU435
 1212              	.LBB355:
 1213              		.loc 2 591 3 view .LVU436
 1214 0448 1220     		movs	r0, #18
 1215              	.LVL70:
 1216              		.loc 2 591 3 is_stmt 0 view .LVU437
 1217 044a FFF7FEFF 		bl	chSysPolledDelayX
 1218              	.LVL71:
 1219              		.loc 2 591 3 view .LVU438
 1220              	.LBE355:
 1221              	.LBE354:
 1222              	.LBE353:
 1223              	.LBE352:
 1224              		.loc 1 1027 5 is_stmt 1 view .LVU439
 1225              		.loc 1 1029 28 is_stmt 0 view .LVU440
 1226 044e F968     		ldr	r1, [r7, #12]
 1227              		.loc 1 1027 26 view .LVU441
 1228 0450 05F14802 		add	r2, r5, #72
 1229              		.loc 1 1030 23 view .LVU442
 1230 0454 0123     		movs	r3, #1
 1231              		.loc 1 1029 28 view .LVU443
 1232 0456 098A     		ldrh	r1, [r1, #16]
 1233              		.loc 1 1027 26 view .LVU444
 1234 0458 5201     		lsls	r2, r2, #5
 1235              		.loc 1 1030 23 view .LVU445
 1236 045a AB40     		lsls	r3, r3, r5
 1237              		.loc 1 1028 47 view .LVU446
 1238 045c 41EA8551 		orr	r1, r1, r5, lsl #22
 1239 0460 41EA0901 		orr	r1, r1, r9
 1240              		.loc 1 1027 26 view .LVU447
 1241 0464 A150     		str	r1, [r4, r2]
 1242              		.loc 1 1030 5 is_stmt 1 view .LVU448
 1243              		.loc 1 1030 20 is_stmt 0 view .LVU449
 1244 0466 D4F81C28 		ldr	r2, [r4, #2076]
 1245 046a 1343     		orrs	r3, r3, r2
 1246 046c C4F81C38 		str	r3, [r4, #2076]
 1247              		.loc 1 1038 1 view .LVU450
 1248 0470 BDE8F087 		pop	{r4, r5, r6, r7, r8, r9, r10, pc}
 1249              	.LVL72:
 1250              	.L68:
 1251              		.loc 1 1033 5 is_stmt 1 view .LVU451
 1252              		.loc 1 1033 27 is_stmt 0 view .LVU452
ARM GAS  /tmp/ccfraM8n.s 			page 23


 1253 0474 05F13F03 		add	r3, r5, #63
 1254 0478 1649     		ldr	r1, .L76+4
 1255 047a 04EB8303 		add	r3, r4, r3, lsl #2
 1256 047e 5960     		str	r1, [r3, #4]
 1257              		.loc 1 1034 5 is_stmt 1 view .LVU453
 1258              	.LVL73:
 1259              	.LBB356:
 1260              	.LBI356:
 1261              		.loc 1 184 13 view .LVU454
 1262              	.LBB357:
 1263              		.loc 1 185 3 view .LVU455
 1264              		.loc 1 187 3 view .LVU456
 1265              		.loc 1 187 17 is_stmt 0 view .LVU457
 1266 0480 2261     		str	r2, [r4, #16]
 1267              		.loc 1 188 3 is_stmt 1 view .LVU458
 1268              	.L72:
 1269              		.loc 1 189 5 view .LVU459
 1270              		.loc 1 188 15 is_stmt 0 view .LVU460
 1271 0482 2369     		ldr	r3, [r4, #16]
 1272              		.loc 1 188 9 view .LVU461
 1273 0484 9B06     		lsls	r3, r3, #26
 1274 0486 FCD4     		bmi	.L72
 1275              		.loc 1 191 3 is_stmt 1 view .LVU462
 1276              	.LVL74:
 1277              	.LBB358:
 1278              	.LBI358:
 1279              		.loc 2 589 20 view .LVU463
 1280              	.LBB359:
 1281              		.loc 2 591 3 view .LVU464
 1282 0488 04EB4818 		add	r8, r4, r8, lsl #5
 1283 048c 1220     		movs	r0, #18
 1284              	.LVL75:
 1285              		.loc 2 591 3 is_stmt 0 view .LVU465
 1286 048e FFF7FEFF 		bl	chSysPolledDelayX
 1287              	.LVL76:
 1288              		.loc 2 591 3 view .LVU466
 1289              	.LBE359:
 1290              	.LBE358:
 1291              	.LBE357:
 1292              	.LBE356:
 1293              		.loc 1 1035 5 is_stmt 1 view .LVU467
 1294              		.loc 1 1036 24 is_stmt 0 view .LVU468
 1295 0492 0123     		movs	r3, #1
 1296              		.loc 1 1035 26 view .LVU469
 1297 0494 D8F80029 		ldr	r2, [r8, #2304]
 1298              		.loc 1 1036 24 view .LVU470
 1299 0498 AB40     		lsls	r3, r3, r5
 1300              		.loc 1 1035 26 view .LVU471
 1301 049a 22F40042 		bic	r2, r2, #32768
 1302 049e C8F80029 		str	r2, [r8, #2304]
 1303              		.loc 1 1036 5 is_stmt 1 view .LVU472
 1304              		.loc 1 1036 20 is_stmt 0 view .LVU473
 1305 04a2 D4F81C58 		ldr	r5, [r4, #2076]
 1306 04a6 25EA0305 		bic	r5, r5, r3
 1307 04aa C4F81C58 		str	r5, [r4, #2076]
 1308              		.loc 1 1038 1 view .LVU474
 1309 04ae BDE8F087 		pop	{r4, r5, r6, r7, r8, r9, r10, pc}
ARM GAS  /tmp/ccfraM8n.s 			page 24


 1310              	.LVL77:
 1311              	.L66:
 1312              		.loc 1 1012 5 is_stmt 1 view .LVU475
 1313 04b2 04EB4811 		add	r1, r4, r8, lsl #5
 1314              		.loc 1 1012 26 is_stmt 0 view .LVU476
 1315 04b6 D1F8002B 		ldr	r2, [r1, #2816]
 1316 04ba 22F40042 		bic	r2, r2, #32768
 1317 04be C1F8002B 		str	r2, [r1, #2816]
 1318              		.loc 1 1013 5 is_stmt 1 view .LVU477
 1319              		.loc 1 1013 20 is_stmt 0 view .LVU478
 1320 04c2 D4F81C28 		ldr	r2, [r4, #2076]
 1321 04c6 22EA0E02 		bic	r2, r2, lr
 1322 04ca C4F81C28 		str	r2, [r4, #2076]
 1323 04ce 97E7     		b	.L67
 1324              	.L77:
 1325              		.align	2
 1326              	.L76:
 1327 04d0 00000000 		.word	.LANCHOR0
 1328 04d4 00040002 		.word	33555456
 1329              		.cfi_endproc
 1330              	.LFE383:
 1331              		.size	usb_lld_init_endpoint, .-usb_lld_init_endpoint
 1332              		.align	1
 1333 04d8 AFF30080 		.p2align 4,,15
 1333      AFF30080 
 1334              		.global	usb_lld_disable_endpoints
 1335              		.syntax unified
 1336              		.thumb
 1337              		.thumb_func
 1338              		.fpu fpv4-sp-d16
 1339              		.type	usb_lld_disable_endpoints, %function
 1340              	usb_lld_disable_endpoints:
 1341              	.LVL78:
 1342              	.LFB384:
 1343              		.loc 1 1047 49 is_stmt 1 view -0
 1344              		.cfi_startproc
 1345              		@ args = 0, pretend = 0, frame = 0
 1346              		@ frame_needed = 0, uses_anonymous_args = 0
 1347              		@ link register save eliminated.
 1348              		.loc 1 1050 3 view .LVU480
 1349              		.loc 1 1047 49 is_stmt 0 view .LVU481
 1350 04e0 F0B4     		push	{r4, r5, r6, r7}
 1351              		.cfi_def_cfa_offset 16
 1352              		.cfi_offset 4, -16
 1353              		.cfi_offset 5, -12
 1354              		.cfi_offset 6, -8
 1355              		.cfi_offset 7, -4
 1356              		.loc 1 1053 3 view .LVU482
 1357 04e2 D0E92443 		ldrd	r4, r3, [r0, #144]
 1358              	.LBB360:
 1359              	.LBB361:
 1360              		.loc 1 158 10 view .LVU483
 1361 04e6 0021     		movs	r1, #0
 1362              		.loc 1 168 25 view .LVU484
 1363 04e8 4FF0FF35 		mov	r5, #-1
 1364              	.LBE361:
 1365              	.LBE360:
ARM GAS  /tmp/ccfraM8n.s 			page 25


 1366              	.LBB363:
 1367              	.LBB364:
 1368              		.loc 1 203 33 view .LVU485
 1369 04ec 1A68     		ldr	r2, [r3]
 1370              		.loc 1 203 16 view .LVU486
 1371 04ee C0F89820 		str	r2, [r0, #152]
 1372              	.LBE364:
 1373              	.LBE363:
 1374              		.loc 1 1053 3 is_stmt 1 view .LVU487
 1375              	.LBB365:
 1376              	.LBI360:
 1377              		.loc 1 154 13 view .LVU488
 1378              	.LVL79:
 1379              	.LBB362:
 1380              		.loc 1 155 3 view .LVU489
 1381              		.loc 1 156 3 view .LVU490
 1382              		.loc 1 158 3 view .LVU491
 1383              		.loc 1 158 35 is_stmt 0 view .LVU492
 1384 04f2 9F68     		ldr	r7, [r3, #8]
 1385              	.LVL80:
 1386              	.L81:
 1387              		.loc 1 160 5 is_stmt 1 view .LVU493
 1388              		.loc 1 161 7 view .LVU494
 1389              		.loc 1 164 5 view .LVU495
 1390              		.loc 1 165 7 view .LVU496
 1391              		.loc 1 168 5 view .LVU497
 1392 04f4 4B01     		lsls	r3, r1, #5
 1393              		.loc 1 158 53 is_stmt 0 view .LVU498
 1394 04f6 481C     		adds	r0, r1, #1
 1395 04f8 E218     		adds	r2, r4, r3
 1396              		.loc 1 160 21 view .LVU499
 1397 04fa D2F80069 		ldr	r6, [r2, #2304]
 1398              		.loc 1 168 25 view .LVU500
 1399 04fe 1346     		mov	r3, r2
 1400              		.loc 1 160 8 view .LVU501
 1401 0500 002E     		cmp	r6, #0
 1402 0502 05DA     		bge	.L79
 1403              		.loc 1 161 27 view .LVU502
 1404 0504 D2F80069 		ldr	r6, [r2, #2304]
 1405 0508 46F08046 		orr	r6, r6, #1073741824
 1406 050c C2F80069 		str	r6, [r2, #2304]
 1407              	.L79:
 1408              		.loc 1 164 21 view .LVU503
 1409 0510 D2F8006B 		ldr	r6, [r2, #2816]
 1410              		.loc 1 164 8 view .LVU504
 1411 0514 002E     		cmp	r6, #0
 1412 0516 05DA     		bge	.L80
 1413              		.loc 1 165 27 view .LVU505
 1414 0518 D2F8006B 		ldr	r6, [r2, #2816]
 1415 051c 46F08046 		orr	r6, r6, #1073741824
 1416 0520 C2F8006B 		str	r6, [r2, #2816]
 1417              	.L80:
 1418              		.loc 1 158 3 view .LVU506
 1419 0524 8F42     		cmp	r7, r1
 1420              		.loc 1 168 25 view .LVU507
 1421 0526 C3F80859 		str	r5, [r3, #2312]
 1422              		.loc 1 169 5 is_stmt 1 view .LVU508
ARM GAS  /tmp/ccfraM8n.s 			page 26


 1423              	.LVL81:
 1424              		.loc 1 158 3 is_stmt 0 view .LVU509
 1425 052a 0146     		mov	r1, r0
 1426              		.loc 1 169 25 view .LVU510
 1427 052c C3F8085B 		str	r5, [r3, #2824]
 1428              		.loc 1 158 3 view .LVU511
 1429 0530 E0D1     		bne	.L81
 1430              		.loc 1 171 3 is_stmt 1 view .LVU512
 1431              		.loc 1 171 18 is_stmt 0 view .LVU513
 1432 0532 4FF00113 		mov	r3, #65537
 1433 0536 C4F81C38 		str	r3, [r4, #2076]
 1434              	.LVL82:
 1435              		.loc 1 171 18 view .LVU514
 1436              	.LBE362:
 1437              	.LBE365:
 1438              		.loc 1 1054 1 view .LVU515
 1439 053a F0BC     		pop	{r4, r5, r6, r7}
 1440              		.cfi_restore 7
 1441              		.cfi_restore 6
 1442              		.cfi_restore 5
 1443              		.cfi_restore 4
 1444              		.cfi_def_cfa_offset 0
 1445 053c 7047     		bx	lr
 1446              		.cfi_endproc
 1447              	.LFE384:
 1448              		.size	usb_lld_disable_endpoints, .-usb_lld_disable_endpoints
 1449              		.align	1
 1450 053e 00BF     		.p2align 4,,15
 1451              		.global	usb_lld_get_status_out
 1452              		.syntax unified
 1453              		.thumb
 1454              		.thumb_func
 1455              		.fpu fpv4-sp-d16
 1456              		.type	usb_lld_get_status_out, %function
 1457              	usb_lld_get_status_out:
 1458              	.LVL83:
 1459              	.LFB385:
 1460              		.loc 1 1068 67 is_stmt 1 view -0
 1461              		.cfi_startproc
 1462              		@ args = 0, pretend = 0, frame = 0
 1463              		@ frame_needed = 0, uses_anonymous_args = 0
 1464              		@ link register save eliminated.
 1465              		.loc 1 1069 3 view .LVU517
 1466              		.loc 1 1071 3 view .LVU518
 1467              		.loc 1 1073 3 view .LVU519
 1468              		.loc 1 1073 7 is_stmt 0 view .LVU520
 1469 0540 5831     		adds	r1, r1, #88
 1470              	.LVL84:
 1471              		.loc 1 1073 13 view .LVU521
 1472 0542 D0F89030 		ldr	r3, [r0, #144]
 1473              		.loc 1 1073 7 view .LVU522
 1474 0546 4901     		lsls	r1, r1, #5
 1475 0548 5B58     		ldr	r3, [r3, r1]
 1476              	.LVL85:
 1477              		.loc 1 1074 3 is_stmt 1 view .LVU523
 1478              		.loc 1 1074 6 is_stmt 0 view .LVU524
 1479 054a 13F40040 		ands	r0, r3, #32768
ARM GAS  /tmp/ccfraM8n.s 			page 27


 1480              	.LVL86:
 1481              		.loc 1 1074 6 view .LVU525
 1482 054e 04D0     		beq	.L85
 1483              		.loc 1 1076 3 is_stmt 1 view .LVU526
 1484              		.loc 1 1076 6 is_stmt 0 view .LVU527
 1485 0550 13F4001F 		tst	r3, #2097152
 1486              		.loc 1 1077 12 view .LVU528
 1487 0554 0CBF     		ite	eq
 1488 0556 0220     		moveq	r0, #2
 1489 0558 0120     		movne	r0, #1
 1490              	.L85:
 1491              		.loc 1 1079 1 view .LVU529
 1492 055a 7047     		bx	lr
 1493              		.cfi_endproc
 1494              	.LFE385:
 1495              		.size	usb_lld_get_status_out, .-usb_lld_get_status_out
 1496              		.align	1
 1497 055c AFF30080 		.p2align 4,,15
 1498              		.global	usb_lld_get_status_in
 1499              		.syntax unified
 1500              		.thumb
 1501              		.thumb_func
 1502              		.fpu fpv4-sp-d16
 1503              		.type	usb_lld_get_status_in, %function
 1504              	usb_lld_get_status_in:
 1505              	.LVL87:
 1506              	.LFB386:
 1507              		.loc 1 1093 66 is_stmt 1 view -0
 1508              		.cfi_startproc
 1509              		@ args = 0, pretend = 0, frame = 0
 1510              		@ frame_needed = 0, uses_anonymous_args = 0
 1511              		@ link register save eliminated.
 1512              		.loc 1 1094 3 view .LVU531
 1513              		.loc 1 1096 3 view .LVU532
 1514              		.loc 1 1098 3 view .LVU533
 1515              		.loc 1 1098 7 is_stmt 0 view .LVU534
 1516 0560 4831     		adds	r1, r1, #72
 1517              	.LVL88:
 1518              		.loc 1 1098 13 view .LVU535
 1519 0562 D0F89030 		ldr	r3, [r0, #144]
 1520              		.loc 1 1098 7 view .LVU536
 1521 0566 4901     		lsls	r1, r1, #5
 1522 0568 5B58     		ldr	r3, [r3, r1]
 1523              	.LVL89:
 1524              		.loc 1 1099 3 is_stmt 1 view .LVU537
 1525              		.loc 1 1099 6 is_stmt 0 view .LVU538
 1526 056a 13F40040 		ands	r0, r3, #32768
 1527              	.LVL90:
 1528              		.loc 1 1099 6 view .LVU539
 1529 056e 04D0     		beq	.L89
 1530              		.loc 1 1101 3 is_stmt 1 view .LVU540
 1531              		.loc 1 1101 6 is_stmt 0 view .LVU541
 1532 0570 13F4001F 		tst	r3, #2097152
 1533              		.loc 1 1102 12 view .LVU542
 1534 0574 0CBF     		ite	eq
 1535 0576 0220     		moveq	r0, #2
 1536 0578 0120     		movne	r0, #1
ARM GAS  /tmp/ccfraM8n.s 			page 28


 1537              	.L89:
 1538              		.loc 1 1104 1 view .LVU543
 1539 057a 7047     		bx	lr
 1540              		.cfi_endproc
 1541              	.LFE386:
 1542              		.size	usb_lld_get_status_in, .-usb_lld_get_status_in
 1543              		.align	1
 1544 057c AFF30080 		.p2align 4,,15
 1545              		.global	usb_lld_read_setup
 1546              		.syntax unified
 1547              		.thumb
 1548              		.thumb_func
 1549              		.fpu fpv4-sp-d16
 1550              		.type	usb_lld_read_setup, %function
 1551              	usb_lld_read_setup:
 1552              	.LVL91:
 1553              	.LFB387:
 1554              		.loc 1 1120 68 is_stmt 1 view -0
 1555              		.cfi_startproc
 1556              		@ args = 0, pretend = 0, frame = 0
 1557              		@ frame_needed = 0, uses_anonymous_args = 0
 1558              		@ link register save eliminated.
 1559              		.loc 1 1122 3 view .LVU545
 1560              		.loc 1 1122 24 is_stmt 0 view .LVU546
 1561 0580 00EB8101 		add	r1, r0, r1, lsl #2
 1562              	.LVL92:
 1563              		.loc 1 1122 28 view .LVU547
 1564 0584 CB68     		ldr	r3, [r1, #12]
 1565              		.loc 1 1122 3 view .LVU548
 1566 0586 1B6A     		ldr	r3, [r3, #32]
 1567 0588 1968     		ldr	r1, [r3]	@ unaligned
 1568 058a 5B68     		ldr	r3, [r3, #4]	@ unaligned
 1569 058c 1160     		str	r1, [r2]	@ unaligned
 1570 058e 5360     		str	r3, [r2, #4]	@ unaligned
 1571              		.loc 1 1123 1 view .LVU549
 1572 0590 7047     		bx	lr
 1573              		.cfi_endproc
 1574              	.LFE387:
 1575              		.size	usb_lld_read_setup, .-usb_lld_read_setup
 1576              		.align	1
 1577 0592 00BFAFF3 		.p2align 4,,15
 1577      0080AFF3 
 1577      0080AFF3 
 1577      0080
 1578              		.global	usb_lld_start_out
 1579              		.syntax unified
 1580              		.thumb
 1581              		.thumb_func
 1582              		.fpu fpv4-sp-d16
 1583              		.type	usb_lld_start_out, %function
 1584              	usb_lld_start_out:
 1585              	.LVL93:
 1586              	.LFB388:
 1587              		.loc 1 1133 53 is_stmt 1 view -0
 1588              		.cfi_startproc
 1589              		@ args = 0, pretend = 0, frame = 0
 1590              		@ frame_needed = 0, uses_anonymous_args = 0
ARM GAS  /tmp/ccfraM8n.s 			page 29


 1591              		@ link register save eliminated.
 1592              		.loc 1 1134 3 view .LVU551
 1593              		.loc 1 1135 3 view .LVU552
 1594              		.loc 1 1135 39 is_stmt 0 view .LVU553
 1595 05a0 00EB8103 		add	r3, r0, r1, lsl #2
 1596              		.loc 1 1133 53 view .LVU554
 1597 05a4 70B4     		push	{r4, r5, r6}
 1598              		.cfi_def_cfa_offset 12
 1599              		.cfi_offset 4, -12
 1600              		.cfi_offset 5, -8
 1601              		.cfi_offset 6, -4
 1602              		.loc 1 1135 39 view .LVU555
 1603 05a6 DC68     		ldr	r4, [r3, #12]
 1604              		.loc 1 1135 24 view .LVU556
 1605 05a8 A369     		ldr	r3, [r4, #24]
 1606              	.LVL94:
 1607              		.loc 1 1138 3 is_stmt 1 view .LVU557
 1608              		.loc 1 1138 21 is_stmt 0 view .LVU558
 1609 05aa 1E68     		ldr	r6, [r3]
 1610              		.loc 1 1138 16 view .LVU559
 1611 05ac 1E61     		str	r6, [r3, #16]
 1612              		.loc 1 1139 3 is_stmt 1 view .LVU560
 1613              		.loc 1 1139 17 is_stmt 0 view .LVU561
 1614 05ae 09B9     		cbnz	r1, .L94
 1615 05b0 402E     		cmp	r6, #64
 1616 05b2 24D8     		bhi	.L106
 1617              	.L94:
 1618              		.loc 1 1147 3 is_stmt 1 view .LVU562
 1619              		.loc 1 1147 40 is_stmt 0 view .LVU563
 1620 05b4 638A     		ldrh	r3, [r4, #18]
 1621              	.LVL95:
 1622              		.loc 1 1156 31 view .LVU564
 1623 05b6 2468     		ldr	r4, [r4]
 1624              	.LVL96:
 1625              		.loc 1 1147 54 view .LVU565
 1626 05b8 5A1E     		subs	r2, r3, #1
 1627              		.loc 1 1152 7 view .LVU566
 1628 05ba D0F89000 		ldr	r0, [r0, #144]
 1629              	.LVL97:
 1630              		.loc 1 1156 31 view .LVU567
 1631 05be 04F00304 		and	r4, r4, #3
 1632              		.loc 1 1147 54 view .LVU568
 1633 05c2 3244     		add	r2, r2, r6
 1634              		.loc 1 1152 30 view .LVU569
 1635 05c4 00EB4115 		add	r5, r0, r1, lsl #5
 1636              		.loc 1 1156 6 view .LVU570
 1637 05c8 012C     		cmp	r4, #1
 1638              		.loc 1 1147 10 view .LVU571
 1639 05ca B2FBF3F2 		udiv	r2, r2, r3
 1640              	.LVL98:
 1641              		.loc 1 1149 3 is_stmt 1 view .LVU572
 1642              		.loc 1 1152 3 view .LVU573
 1643              		.loc 1 1149 18 is_stmt 0 view .LVU574
 1644 05ce 02FB03F3 		mul	r3, r2, r3
 1645              	.LVL99:
 1646              		.loc 1 1149 47 view .LVU575
 1647 05d2 03F10303 		add	r3, r3, #3
ARM GAS  /tmp/ccfraM8n.s 			page 30


 1648              		.loc 1 1149 10 view .LVU576
 1649 05d6 23F00303 		bic	r3, r3, #3
 1650              	.LVL100:
 1651              		.loc 1 1152 76 view .LVU577
 1652 05da 43EAC243 		orr	r3, r3, r2, lsl #19
 1653              	.LVL101:
 1654              		.loc 1 1152 76 view .LVU578
 1655 05de 43F0C043 		orr	r3, r3, #1610612736
 1656              		.loc 1 1152 30 view .LVU579
 1657 05e2 C5F8103B 		str	r3, [r5, #2832]
 1658              		.loc 1 1156 3 is_stmt 1 view .LVU580
 1659              		.loc 1 1156 6 is_stmt 0 view .LVU581
 1660 05e6 0ED0     		beq	.L104
 1661 05e8 09B2     		sxth	r1, r1
 1662              	.LVL102:
 1663              	.L95:
 1664              		.loc 1 1165 3 is_stmt 1 view .LVU582
 1665 05ea 00EB4111 		add	r1, r0, r1, lsl #5
 1666              		.loc 1 1165 29 is_stmt 0 view .LVU583
 1667 05ee D1F8003B 		ldr	r3, [r1, #2816]
 1668 05f2 43F00443 		orr	r3, r3, #-2080374784
 1669              		.loc 1 1166 1 view .LVU584
 1670 05f6 70BC     		pop	{r4, r5, r6}
 1671              		.cfi_remember_state
 1672              		.cfi_restore 6
 1673              		.cfi_restore 5
 1674              		.cfi_restore 4
 1675              		.cfi_def_cfa_offset 0
 1676              		.loc 1 1165 29 view .LVU585
 1677 05f8 C1F8003B 		str	r3, [r1, #2816]
 1678              		.loc 1 1166 1 view .LVU586
 1679 05fc 7047     		bx	lr
 1680              	.LVL103:
 1681              	.L106:
 1682              		.cfi_restore_state
 1683              		.loc 1 1140 7 is_stmt 1 view .LVU587
 1684              		.loc 1 1140 19 is_stmt 0 view .LVU588
 1685 05fe 4022     		movs	r2, #64
 1686 0600 1646     		mov	r6, r2
 1687 0602 1A60     		str	r2, [r3]
 1688 0604 D6E7     		b	.L94
 1689              	.LVL104:
 1690              	.L104:
 1691              		.loc 1 1158 5 is_stmt 1 view .LVU589
 1692              		.loc 1 1159 7 view .LVU590
 1693              		.loc 1 1161 7 view .LVU591
 1694 0606 09B2     		sxth	r1, r1
 1695              	.LVL105:
 1696              		.loc 1 1158 18 is_stmt 0 view .LVU592
 1697 0608 D0F80838 		ldr	r3, [r0, #2056]
 1698 060c 00EB4112 		add	r2, r0, r1, lsl #5
 1699              	.LVL106:
 1700              		.loc 1 1158 8 view .LVU593
 1701 0610 13F4807F 		tst	r3, #256
 1702              		.loc 1 1159 33 view .LVU594
 1703 0614 D2F8003B 		ldr	r3, [r2, #2816]
 1704 0618 14BF     		ite	ne
ARM GAS  /tmp/ccfraM8n.s 			page 31


 1705 061a 43F08053 		orrne	r3, r3, #268435456
 1706              		.loc 1 1161 33 view .LVU595
 1707 061e 43F00053 		orreq	r3, r3, #536870912
 1708 0622 C2F8003B 		str	r3, [r2, #2816]
 1709 0626 E0E7     		b	.L95
 1710              		.cfi_endproc
 1711              	.LFE388:
 1712              		.size	usb_lld_start_out, .-usb_lld_start_out
 1713              		.align	1
 1714 0628 AFF30080 		.p2align 4,,15
 1714      AFF30080 
 1715              		.syntax unified
 1716              		.thumb
 1717              		.thumb_func
 1718              		.fpu fpv4-sp-d16
 1719              		.type	otg_epout_handler.constprop.9, %function
 1720              	otg_epout_handler.constprop.9:
 1721              	.LVL107:
 1722              	.LFB403:
 1723              		.loc 1 417 13 is_stmt 1 view -0
 1724              		.cfi_startproc
 1725              		@ args = 0, pretend = 0, frame = 0
 1726              		@ frame_needed = 0, uses_anonymous_args = 0
 1727              		.loc 1 418 3 view .LVU597
 1728              		.loc 1 417 13 is_stmt 0 view .LVU598
 1729 0630 F8B5     		push	{r3, r4, r5, r6, r7, lr}
 1730              		.cfi_def_cfa_offset 24
 1731              		.cfi_offset 3, -24
 1732              		.cfi_offset 4, -20
 1733              		.cfi_offset 5, -16
 1734              		.cfi_offset 6, -12
 1735              		.cfi_offset 7, -8
 1736              		.cfi_offset 14, -4
 1737              		.loc 1 418 16 view .LVU599
 1738 0632 2B4D     		ldr	r5, .L130
 1739              		.loc 1 417 13 view .LVU600
 1740 0634 0646     		mov	r6, r0
 1741              		.loc 1 418 16 view .LVU601
 1742 0636 D5F89070 		ldr	r7, [r5, #144]
 1743              	.LVL108:
 1744              		.loc 1 419 3 is_stmt 1 view .LVU602
 1745              		.loc 1 419 12 is_stmt 0 view .LVU603
 1746 063a 07EB4013 		add	r3, r7, r0, lsl #5
 1747 063e D3F8084B 		ldr	r4, [r3, #2824]
 1748              	.LVL109:
 1749              		.loc 1 422 3 is_stmt 1 view .LVU604
 1750              		.loc 1 424 6 is_stmt 0 view .LVU605
 1751 0642 2007     		lsls	r0, r4, #28
 1752              	.LVL110:
 1753              		.loc 1 422 24 view .LVU606
 1754 0644 C3F8084B 		str	r4, [r3, #2824]
 1755              		.loc 1 424 3 is_stmt 1 view .LVU607
 1756              		.loc 1 424 6 is_stmt 0 view .LVU608
 1757 0648 03D5     		bpl	.L108
 1758              		.loc 1 424 38 view .LVU609
 1759 064a D7F81438 		ldr	r3, [r7, #2068]
 1760              		.loc 1 424 30 view .LVU610
ARM GAS  /tmp/ccfraM8n.s 			page 32


 1761 064e 1907     		lsls	r1, r3, #28
 1762 0650 30D4     		bmi	.L128
 1763              	.L108:
 1764              		.loc 1 427 39 is_stmt 1 view .LVU611
 1765              		.loc 1 430 3 view .LVU612
 1766              		.loc 1 430 6 is_stmt 0 view .LVU613
 1767 0652 E207     		lsls	r2, r4, #31
 1768 0654 2DD5     		bpl	.L107
 1769              		.loc 1 430 38 view .LVU614
 1770 0656 D7F81438 		ldr	r3, [r7, #2068]
 1771              		.loc 1 430 30 view .LVU615
 1772 065a DB07     		lsls	r3, r3, #31
 1773 065c 29D5     		bpl	.L107
 1774              	.LBB366:
 1775              		.loc 1 431 5 is_stmt 1 view .LVU616
 1776              		.loc 1 434 5 view .LVU617
 1777              		.loc 1 434 20 is_stmt 0 view .LVU618
 1778 065e B41C     		adds	r4, r6, #2
 1779              	.LVL111:
 1780              		.loc 1 434 20 view .LVU619
 1781 0660 05EB8403 		add	r3, r5, r4, lsl #2
 1782 0664 5968     		ldr	r1, [r3, #4]
 1783              	.LVL112:
 1784              		.loc 1 437 5 is_stmt 1 view .LVU620
 1785              		.loc 1 437 8 is_stmt 0 view .LVU621
 1786 0666 5EB9     		cbnz	r6, .L110
 1787              		.loc 1 434 9 view .LVU622
 1788 0668 8A69     		ldr	r2, [r1, #24]
 1789              		.loc 1 451 7 is_stmt 1 view .LVU623
 1790              		.loc 1 451 39 is_stmt 0 view .LVU624
 1791 066a 488A     		ldrh	r0, [r1, #18]
 1792              		.loc 1 451 24 view .LVU625
 1793 066c 5768     		ldr	r7, [r2, #4]
 1794              	.LVL113:
 1795              		.loc 1 451 24 view .LVU626
 1796 066e B7FBF0F3 		udiv	r3, r7, r0
 1797 0672 00FB1373 		mls	r3, r0, r3, r7
 1798              		.loc 1 451 10 view .LVU627
 1799 0676 1BB9     		cbnz	r3, .L110
 1800              		.loc 1 452 15 view .LVU628
 1801 0678 1068     		ldr	r0, [r2]
 1802              		.loc 1 452 29 view .LVU629
 1803 067a 1369     		ldr	r3, [r2, #16]
 1804              		.loc 1 451 60 view .LVU630
 1805 067c 9842     		cmp	r0, r3
 1806 067e 21D3     		bcc	.L129
 1807              	.L110:
 1808              		.loc 1 463 5 is_stmt 1 view .LVU631
 1809 0680 0122     		movs	r2, #1
 1810 0682 6B89     		ldrh	r3, [r5, #10]
 1811 0684 CF68     		ldr	r7, [r1, #12]
 1812 0686 B240     		lsls	r2, r2, r6
 1813 0688 23EA0203 		bic	r3, r3, r2
 1814 068c 6B81     		strh	r3, [r5, #10]	@ movhi
 1815              		.loc 1 463 5 view .LVU632
 1816 068e 17B1     		cbz	r7, .L111
 1817              		.loc 1 463 5 view .LVU633
ARM GAS  /tmp/ccfraM8n.s 			page 33


 1818 0690 3146     		mov	r1, r6
 1819              	.LVL114:
 1820              		.loc 1 463 5 is_stmt 0 view .LVU634
 1821 0692 1348     		ldr	r0, .L130
 1822 0694 B847     		blx	r7
 1823              	.LVL115:
 1824              	.L111:
 1825              		.loc 1 463 5 is_stmt 1 view .LVU635
 1826              	.LBB367:
 1827              	.LBI367:
 1828              		.loc 2 531 20 view .LVU636
 1829              	.LBE367:
 1830              	.LBE366:
 1831              		.loc 2 533 3 view .LVU637
 1832              	.LBB439:
 1833              	.LBB379:
 1834              	.LBB368:
 1835              	.LBI368:
 1836              		.file 3 "../../../external/ChibiOS/os/rt/include/chsys.h"
 1837              		.loc 3 393 20 view .LVU638
 1838              	.LBE368:
 1839              	.LBE379:
 1840              	.LBE439:
 1841              		.loc 3 395 3 view .LVU639
 1842              	.LBB440:
 1843              	.LBB380:
 1844              	.LBB376:
 1845              	.LBB369:
 1846              	.LBI369:
 1847              		.file 4 "../../../external/ChibiOS/os/common/ports/ARMCMx/chcore_v7m.h"
 1848              		.loc 4 708 27 view .LVU640
 1849              	.LBE369:
 1850              	.LBE376:
 1851              	.LBE380:
 1852              	.LBE440:
 1853              		.loc 4 710 3 view .LVU641
 1854              	.LBB441:
 1855              	.LBB381:
 1856              	.LBB377:
 1857              	.LBB374:
 1858              	.LBB370:
 1859              	.LBI370:
 1860              		.loc 4 669 27 view .LVU642
 1861              	.LBE370:
 1862              	.LBE374:
 1863              	.LBE377:
 1864              	.LBE381:
 1865              	.LBE441:
 1866              		.loc 4 677 3 view .LVU643
 1867              	.LBB442:
 1868              	.LBB382:
 1869              	.LBB378:
 1870              	.LBB375:
 1871              	.LBB373:
 1872              	.LBB371:
 1873              	.LBI371:
 1874              		.file 5 "../../../external/ChibiOS/os/common/ext/ARM/CMSIS/Core/Include/cmsis_gcc.h"
ARM GAS  /tmp/ccfraM8n.s 			page 34


 1875              		.loc 5 491 27 view .LVU644
 1876              	.LBB372:
 1877              		.loc 5 493 3 view .LVU645
 1878 0696 2023     		movs	r3, #32
 1879              		.syntax unified
 1880              	@ 493 "../../../external/ChibiOS/os/common/ext/ARM/CMSIS/Core/Include/cmsis_gcc.h" 1
 1881 0698 83F31188 		MSR basepri, r3
 1882              	@ 0 "" 2
 1883              	.LVL116:
 1884              		.loc 5 493 3 is_stmt 0 view .LVU646
 1885              		.thumb
 1886              		.syntax unified
 1887              	.LBE372:
 1888              	.LBE371:
 1889              	.LBE373:
 1890              	.LBE375:
 1891              	.LBE378:
 1892              	.LBE382:
 1893              	.LBE442:
 1894              		.loc 3 396 34 is_stmt 1 view .LVU647
 1895              		.loc 3 397 29 view .LVU648
 1896              	.LBB443:
 1897              		.loc 1 463 5 view .LVU649
 1898 069c 05EB8405 		add	r5, r5, r4, lsl #2
 1899 06a0 6B68     		ldr	r3, [r5, #4]
 1900 06a2 9869     		ldr	r0, [r3, #24]
 1901              	.LVL117:
 1902              	.LBB383:
 1903              	.LBI383:
 1904              		.loc 2 773 20 view .LVU650
 1905              	.LBB384:
 1906              		.loc 2 775 3 view .LVU651
 1907 06a4 4168     		ldr	r1, [r0, #4]
 1908 06a6 0C30     		adds	r0, r0, #12
 1909              	.LVL118:
 1910              		.loc 2 775 3 is_stmt 0 view .LVU652
 1911 06a8 FFF7FEFF 		bl	chThdResumeI
 1912              	.LVL119:
 1913              		.loc 2 775 3 view .LVU653
 1914              	.LBE384:
 1915              	.LBE383:
 1916              		.loc 1 463 5 is_stmt 1 view .LVU654
 1917              	.LBB385:
 1918              	.LBI385:
 1919              		.loc 2 542 20 view .LVU655
 1920              	.LBE385:
 1921              	.LBE443:
 1922              		.loc 2 544 3 view .LVU656
 1923              	.LBB444:
 1924              	.LBB397:
 1925              	.LBB386:
 1926              	.LBI386:
 1927              		.loc 3 413 20 view .LVU657
 1928              	.LBE386:
 1929              	.LBE397:
 1930              	.LBE444:
 1931              		.loc 3 415 31 view .LVU658
ARM GAS  /tmp/ccfraM8n.s 			page 35


 1932              		.loc 3 416 33 view .LVU659
 1933              		.loc 3 417 3 view .LVU660
 1934              	.LBB445:
 1935              	.LBB398:
 1936              	.LBB394:
 1937              	.LBB387:
 1938              	.LBI387:
 1939              		.loc 4 719 27 view .LVU661
 1940              	.LBE387:
 1941              	.LBE394:
 1942              	.LBE398:
 1943              	.LBE445:
 1944              		.loc 4 721 3 view .LVU662
 1945              	.LBB446:
 1946              	.LBB399:
 1947              	.LBB395:
 1948              	.LBB392:
 1949              	.LBB388:
 1950              	.LBI388:
 1951              		.loc 4 693 27 view .LVU663
 1952              	.LBE388:
 1953              	.LBE392:
 1954              	.LBE395:
 1955              	.LBE399:
 1956              	.LBE446:
 1957              		.loc 4 696 3 view .LVU664
 1958              	.LBB447:
 1959              	.LBB400:
 1960              	.LBB396:
 1961              	.LBB393:
 1962              	.LBB391:
 1963              	.LBB389:
 1964              	.LBI389:
 1965              		.loc 5 491 27 view .LVU665
 1966              	.LBB390:
 1967              		.loc 5 493 3 view .LVU666
 1968 06ac 0023     		movs	r3, #0
 1969              		.syntax unified
 1970              	@ 493 "../../../external/ChibiOS/os/common/ext/ARM/CMSIS/Core/Include/cmsis_gcc.h" 1
 1971 06ae 83F31188 		MSR basepri, r3
 1972              	@ 0 "" 2
 1973              	.LVL120:
 1974              		.loc 5 493 3 is_stmt 0 view .LVU667
 1975              		.thumb
 1976              		.syntax unified
 1977              	.LBE390:
 1978              	.LBE389:
 1979              	.LBE391:
 1980              	.LBE393:
 1981              	.LBE396:
 1982              	.LBE400:
 1983              		.loc 1 463 37 is_stmt 1 view .LVU668
 1984              	.L107:
 1985              		.loc 1 463 37 is_stmt 0 view .LVU669
 1986              	.LBE447:
 1987              		.loc 1 465 1 view .LVU670
 1988 06b2 F8BD     		pop	{r3, r4, r5, r6, r7, pc}
ARM GAS  /tmp/ccfraM8n.s 			page 36


 1989              	.LVL121:
 1990              	.L128:
 1991              		.loc 1 427 5 is_stmt 1 view .LVU671
 1992 06b4 05EB8603 		add	r3, r5, r6, lsl #2
 1993 06b8 3146     		mov	r1, r6
 1994 06ba 2846     		mov	r0, r5
 1995 06bc DB68     		ldr	r3, [r3, #12]
 1996 06be 5B68     		ldr	r3, [r3, #4]
 1997 06c0 9847     		blx	r3
 1998              	.LVL122:
 1999 06c2 C6E7     		b	.L108
 2000              	.LVL123:
 2001              	.L129:
 2002              	.LBB448:
 2003              		.loc 1 453 9 view .LVU672
 2004              		.loc 1 453 36 is_stmt 0 view .LVU673
 2005 06c4 1B1A     		subs	r3, r3, r0
 2006              		.loc 1 454 21 view .LVU674
 2007 06c6 5660     		str	r6, [r2, #4]
 2008              	.LBB401:
 2009              	.LBB402:
 2010              	.LBB403:
 2011              	.LBB404:
 2012              	.LBB405:
 2013              	.LBB406:
 2014              		.loc 5 493 3 view .LVU675
 2015 06c8 2021     		movs	r1, #32
 2016              	.LBE406:
 2017              	.LBE405:
 2018              	.LBE404:
 2019              	.LBE403:
 2020              	.LBE402:
 2021              	.LBE401:
 2022              		.loc 1 453 21 view .LVU676
 2023 06ca 1360     		str	r3, [r2]
 2024              		.loc 1 454 9 is_stmt 1 view .LVU677
 2025              		.loc 1 455 9 view .LVU678
 2026              	.LBB418:
 2027              	.LBI401:
 2028              		.loc 2 531 20 view .LVU679
 2029              	.LBE418:
 2030              	.LBE448:
 2031              		.loc 2 533 3 view .LVU680
 2032              	.LBB449:
 2033              	.LBB419:
 2034              	.LBB414:
 2035              	.LBI402:
 2036              		.loc 3 393 20 view .LVU681
 2037              	.LBE414:
 2038              	.LBE419:
 2039              	.LBE449:
 2040              		.loc 3 395 3 view .LVU682
 2041              	.LBB450:
 2042              	.LBB420:
 2043              	.LBB415:
 2044              	.LBB411:
 2045              	.LBI403:
ARM GAS  /tmp/ccfraM8n.s 			page 37


 2046              		.loc 4 708 27 view .LVU683
 2047              	.LBE411:
 2048              	.LBE415:
 2049              	.LBE420:
 2050              	.LBE450:
 2051              		.loc 4 710 3 view .LVU684
 2052              	.LBB451:
 2053              	.LBB421:
 2054              	.LBB416:
 2055              	.LBB412:
 2056              	.LBB409:
 2057              	.LBI404:
 2058              		.loc 4 669 27 view .LVU685
 2059              	.LBE409:
 2060              	.LBE412:
 2061              	.LBE416:
 2062              	.LBE421:
 2063              	.LBE451:
 2064              		.loc 4 677 3 view .LVU686
 2065              	.LVL124:
 2066              	.LBB452:
 2067              	.LBB422:
 2068              	.LBB417:
 2069              	.LBB413:
 2070              	.LBB410:
 2071              	.LBB408:
 2072              	.LBI405:
 2073              		.loc 5 491 27 view .LVU687
 2074              	.LBB407:
 2075              		.loc 5 493 3 view .LVU688
 2076              		.syntax unified
 2077              	@ 493 "../../../external/ChibiOS/os/common/ext/ARM/CMSIS/Core/Include/cmsis_gcc.h" 1
 2078 06cc 81F31188 		MSR basepri, r1
 2079              	@ 0 "" 2
 2080              	.LVL125:
 2081              		.loc 5 493 3 is_stmt 0 view .LVU689
 2082              		.thumb
 2083              		.syntax unified
 2084              	.LBE407:
 2085              	.LBE408:
 2086              	.LBE410:
 2087              	.LBE413:
 2088              	.LBE417:
 2089              	.LBE422:
 2090              	.LBE452:
 2091              		.loc 3 396 34 is_stmt 1 view .LVU690
 2092              		.loc 3 397 29 view .LVU691
 2093              	.LBB453:
 2094              		.loc 1 456 9 view .LVU692
 2095 06d0 0348     		ldr	r0, .L130
 2096 06d2 3146     		mov	r1, r6
 2097 06d4 FFF7FEFF 		bl	usb_lld_start_out
 2098              	.LVL126:
 2099              		.loc 1 457 9 view .LVU693
 2100              	.LBB423:
 2101              	.LBI423:
 2102              		.loc 2 542 20 view .LVU694
ARM GAS  /tmp/ccfraM8n.s 			page 38


 2103              	.LBE423:
 2104              	.LBE453:
 2105              		.loc 2 544 3 view .LVU695
 2106              	.LBB454:
 2107              	.LBB435:
 2108              	.LBB424:
 2109              	.LBI424:
 2110              		.loc 3 413 20 view .LVU696
 2111              	.LBE424:
 2112              	.LBE435:
 2113              	.LBE454:
 2114              		.loc 3 415 31 view .LVU697
 2115              		.loc 3 416 33 view .LVU698
 2116              		.loc 3 417 3 view .LVU699
 2117              	.LBB455:
 2118              	.LBB436:
 2119              	.LBB432:
 2120              	.LBB425:
 2121              	.LBI425:
 2122              		.loc 4 719 27 view .LVU700
 2123              	.LBE425:
 2124              	.LBE432:
 2125              	.LBE436:
 2126              	.LBE455:
 2127              		.loc 4 721 3 view .LVU701
 2128              	.LBB456:
 2129              	.LBB437:
 2130              	.LBB433:
 2131              	.LBB430:
 2132              	.LBB426:
 2133              	.LBI426:
 2134              		.loc 4 693 27 view .LVU702
 2135              	.LBE426:
 2136              	.LBE430:
 2137              	.LBE433:
 2138              	.LBE437:
 2139              	.LBE456:
 2140              		.loc 4 696 3 view .LVU703
 2141              	.LBB457:
 2142              	.LBB438:
 2143              	.LBB434:
 2144              	.LBB431:
 2145              	.LBB429:
 2146              	.LBB427:
 2147              	.LBI427:
 2148              		.loc 5 491 27 view .LVU704
 2149              	.LBB428:
 2150              		.loc 5 493 3 view .LVU705
 2151              		.syntax unified
 2152              	@ 493 "../../../external/ChibiOS/os/common/ext/ARM/CMSIS/Core/Include/cmsis_gcc.h" 1
 2153 06d8 86F31188 		MSR basepri, r6
 2154              	@ 0 "" 2
 2155              	.LVL127:
 2156              		.loc 5 493 3 is_stmt 0 view .LVU706
 2157              		.thumb
 2158              		.syntax unified
 2159              	.LBE428:
ARM GAS  /tmp/ccfraM8n.s 			page 39


 2160              	.LBE427:
 2161              	.LBE429:
 2162              	.LBE431:
 2163              	.LBE434:
 2164              	.LBE438:
 2165              		.loc 1 458 9 is_stmt 1 view .LVU707
 2166              	.LBE457:
 2167              		.loc 1 465 1 is_stmt 0 view .LVU708
 2168 06dc F8BD     		pop	{r3, r4, r5, r6, r7, pc}
 2169              	.L131:
 2170 06de 00BF     		.align	2
 2171              	.L130:
 2172 06e0 00000000 		.word	USBD1
 2173              		.cfi_endproc
 2174              	.LFE403:
 2175              		.size	otg_epout_handler.constprop.9, .-otg_epout_handler.constprop.9
 2176              		.align	1
 2177 06e4 AFF30080 		.p2align 4,,15
 2177      AFF30080 
 2177      AFF30080 
 2178              		.global	usb_lld_start_in
 2179              		.syntax unified
 2180              		.thumb
 2181              		.thumb_func
 2182              		.fpu fpv4-sp-d16
 2183              		.type	usb_lld_start_in, %function
 2184              	usb_lld_start_in:
 2185              	.LVL128:
 2186              	.LFB389:
 2187              		.loc 1 1176 52 is_stmt 1 view -0
 2188              		.cfi_startproc
 2189              		@ args = 0, pretend = 0, frame = 0
 2190              		@ frame_needed = 0, uses_anonymous_args = 0
 2191              		@ link register save eliminated.
 2192              		.loc 1 1177 3 view .LVU710
 2193              		.loc 1 1177 38 is_stmt 0 view .LVU711
 2194 06f0 00EB8103 		add	r3, r0, r1, lsl #2
 2195 06f4 D0F89020 		ldr	r2, [r0, #144]
 2196 06f8 D868     		ldr	r0, [r3, #12]
 2197              	.LVL129:
 2198              		.loc 1 1176 52 view .LVU712
 2199 06fa 70B4     		push	{r4, r5, r6}
 2200              		.cfi_def_cfa_offset 12
 2201              		.cfi_offset 4, -12
 2202              		.cfi_offset 5, -8
 2203              		.cfi_offset 6, -4
 2204              		.loc 1 1177 23 view .LVU713
 2205 06fc 4469     		ldr	r4, [r0, #20]
 2206              	.LVL130:
 2207              		.loc 1 1180 3 is_stmt 1 view .LVU714
 2208              		.loc 1 1180 21 is_stmt 0 view .LVU715
 2209 06fe 2368     		ldr	r3, [r4]
 2210              		.loc 1 1180 16 view .LVU716
 2211 0700 2361     		str	r3, [r4, #16]
 2212              		.loc 1 1181 3 is_stmt 1 view .LVU717
 2213              		.loc 1 1181 6 is_stmt 0 view .LVU718
 2214 0702 E3B9     		cbnz	r3, .L133
ARM GAS  /tmp/ccfraM8n.s 			page 40


 2215              		.loc 1 1183 5 is_stmt 1 view .LVU719
 2216              		.loc 1 1183 32 is_stmt 0 view .LVU720
 2217 0704 02EB4113 		add	r3, r2, r1, lsl #5
 2218 0708 4FF40024 		mov	r4, #524288
 2219              	.LVL131:
 2220              		.loc 1 1183 32 view .LVU721
 2221 070c C3F81049 		str	r4, [r3, #2320]
 2222              		.loc 1 1198 3 is_stmt 1 view .LVU722
 2223              		.loc 1 1198 31 is_stmt 0 view .LVU723
 2224 0710 0368     		ldr	r3, [r0]
 2225 0712 03F00303 		and	r3, r3, #3
 2226              		.loc 1 1198 6 view .LVU724
 2227 0716 012B     		cmp	r3, #1
 2228 0718 26D0     		beq	.L145
 2229              	.L148:
 2230 071a 08B2     		sxth	r0, r1
 2231              	.LVL132:
 2232              	.L136:
 2233              		.loc 1 1207 3 is_stmt 1 view .LVU725
 2234 071c 02EB4010 		add	r0, r2, r0, lsl #5
 2235              		.loc 1 1208 28 is_stmt 0 view .LVU726
 2236 0720 0123     		movs	r3, #1
 2237              		.loc 1 1207 29 view .LVU727
 2238 0722 D0F80049 		ldr	r4, [r0, #2304]
 2239              		.loc 1 1208 28 view .LVU728
 2240 0726 8B40     		lsls	r3, r3, r1
 2241              		.loc 1 1207 29 view .LVU729
 2242 0728 44F00444 		orr	r4, r4, #-2080374784
 2243 072c C0F80049 		str	r4, [r0, #2304]
 2244              		.loc 1 1208 3 is_stmt 1 view .LVU730
 2245              		.loc 1 1208 25 is_stmt 0 view .LVU731
 2246 0730 D2F83418 		ldr	r1, [r2, #2100]
 2247              	.LVL133:
 2248              		.loc 1 1208 25 view .LVU732
 2249 0734 0B43     		orrs	r3, r3, r1
 2250              		.loc 1 1209 1 view .LVU733
 2251 0736 70BC     		pop	{r4, r5, r6}
 2252              		.cfi_remember_state
 2253              		.cfi_restore 6
 2254              		.cfi_restore 5
 2255              		.cfi_restore 4
 2256              		.cfi_def_cfa_offset 0
 2257              		.loc 1 1208 25 view .LVU734
 2258 0738 C2F83438 		str	r3, [r2, #2100]
 2259              		.loc 1 1209 1 view .LVU735
 2260 073c 7047     		bx	lr
 2261              	.LVL134:
 2262              	.L133:
 2263              		.cfi_restore_state
 2264              	.LBB458:
 2265              		.loc 1 1186 5 is_stmt 1 discriminator 1 view .LVU736
 2266              		.loc 1 1186 19 is_stmt 0 discriminator 1 view .LVU737
 2267 073e 09B9     		cbnz	r1, .L135
 2268 0740 402B     		cmp	r3, #64
 2269 0742 22D8     		bhi	.L147
 2270              	.L135:
 2271              		.loc 1 1190 5 is_stmt 1 view .LVU738
ARM GAS  /tmp/ccfraM8n.s 			page 41


 2272              		.loc 1 1190 49 is_stmt 0 view .LVU739
 2273 0744 068A     		ldrh	r6, [r0, #16]
 2274              	.LVL135:
 2275              		.loc 1 1193 5 is_stmt 1 view .LVU740
 2276              		.loc 1 1193 32 is_stmt 0 view .LVU741
 2277 0746 02EB4115 		add	r5, r2, r1, lsl #5
 2278              		.loc 1 1190 62 view .LVU742
 2279 074a 741E     		subs	r4, r6, #1
 2280              	.LVL136:
 2281              		.loc 1 1190 62 view .LVU743
 2282 074c 1C44     		add	r4, r4, r3
 2283              		.loc 1 1190 14 view .LVU744
 2284 074e B4FBF6F4 		udiv	r4, r4, r6
 2285              		.loc 1 1193 75 view .LVU745
 2286 0752 43EAC443 		orr	r3, r3, r4, lsl #19
 2287              	.LVL137:
 2288              		.loc 1 1193 75 view .LVU746
 2289 0756 43F00053 		orr	r3, r3, #536870912
 2290              		.loc 1 1193 32 view .LVU747
 2291 075a C5F81039 		str	r3, [r5, #2320]
 2292              	.LBE458:
 2293              		.loc 1 1198 3 is_stmt 1 view .LVU748
 2294              		.loc 1 1198 31 is_stmt 0 view .LVU749
 2295 075e 0368     		ldr	r3, [r0]
 2296 0760 03F00303 		and	r3, r3, #3
 2297              		.loc 1 1198 6 view .LVU750
 2298 0764 012B     		cmp	r3, #1
 2299 0766 D8D1     		bne	.L148
 2300              	.L145:
 2301              		.loc 1 1200 5 is_stmt 1 view .LVU751
 2302              		.loc 1 1201 7 view .LVU752
 2303              		.loc 1 1203 7 view .LVU753
 2304 0768 08B2     		sxth	r0, r1
 2305              	.LVL138:
 2306              		.loc 1 1200 18 is_stmt 0 view .LVU754
 2307 076a D2F80838 		ldr	r3, [r2, #2056]
 2308 076e 02EB4014 		add	r4, r2, r0, lsl #5
 2309              		.loc 1 1200 8 view .LVU755
 2310 0772 13F4807F 		tst	r3, #256
 2311              		.loc 1 1201 33 view .LVU756
 2312 0776 D4F80039 		ldr	r3, [r4, #2304]
 2313 077a 14BF     		ite	ne
 2314 077c 43F08053 		orrne	r3, r3, #268435456
 2315              		.loc 1 1203 33 view .LVU757
 2316 0780 43F00053 		orreq	r3, r3, #536870912
 2317 0784 C4F80039 		str	r3, [r4, #2304]
 2318 0788 C8E7     		b	.L136
 2319              	.LVL139:
 2320              	.L147:
 2321              	.LBB459:
 2322              		.loc 1 1187 7 is_stmt 1 view .LVU758
 2323              		.loc 1 1187 19 is_stmt 0 view .LVU759
 2324 078a 4025     		movs	r5, #64
 2325 078c 2B46     		mov	r3, r5
 2326 078e 2560     		str	r5, [r4]
 2327 0790 D8E7     		b	.L135
 2328              	.LBE459:
ARM GAS  /tmp/ccfraM8n.s 			page 42


 2329              		.cfi_endproc
 2330              	.LFE389:
 2331              		.size	usb_lld_start_in, .-usb_lld_start_in
 2332              		.align	1
 2333 0792 00BFAFF3 		.p2align 4,,15
 2333      0080AFF3 
 2333      0080AFF3 
 2333      0080
 2334              		.syntax unified
 2335              		.thumb
 2336              		.thumb_func
 2337              		.fpu fpv4-sp-d16
 2338              		.type	otg_epin_handler.constprop.10, %function
 2339              	otg_epin_handler.constprop.10:
 2340              	.LVL140:
 2341              	.LFB402:
 2342              		.loc 1 374 13 is_stmt 1 view -0
 2343              		.cfi_startproc
 2344              		@ args = 0, pretend = 0, frame = 0
 2345              		@ frame_needed = 0, uses_anonymous_args = 0
 2346              		.loc 1 375 3 view .LVU761
 2347              		.loc 1 374 13 is_stmt 0 view .LVU762
 2348 07a0 2DE9F843 		push	{r3, r4, r5, r6, r7, r8, r9, lr}
 2349              		.cfi_def_cfa_offset 32
 2350              		.cfi_offset 3, -32
 2351              		.cfi_offset 4, -28
 2352              		.cfi_offset 5, -24
 2353              		.cfi_offset 6, -20
 2354              		.cfi_offset 7, -16
 2355              		.cfi_offset 8, -12
 2356              		.cfi_offset 9, -8
 2357              		.cfi_offset 14, -4
 2358              		.loc 1 375 16 view .LVU763
 2359 07a4 2A4D     		ldr	r5, .L173
 2360              		.loc 1 374 13 view .LVU764
 2361 07a6 0646     		mov	r6, r0
 2362              		.loc 1 375 16 view .LVU765
 2363 07a8 D5F89070 		ldr	r7, [r5, #144]
 2364              	.LVL141:
 2365              		.loc 1 376 3 is_stmt 1 view .LVU766
 2366              		.loc 1 376 12 is_stmt 0 view .LVU767
 2367 07ac 07EB4013 		add	r3, r7, r0, lsl #5
 2368 07b0 D3F80849 		ldr	r4, [r3, #2312]
 2369              	.LVL142:
 2370              		.loc 1 378 3 is_stmt 1 view .LVU768
 2371              		.loc 1 383 6 is_stmt 0 view .LVU769
 2372 07b4 E107     		lsls	r1, r4, #31
 2373              		.loc 1 378 24 view .LVU770
 2374 07b6 C3F80849 		str	r4, [r3, #2312]
 2375              		.loc 1 380 3 is_stmt 1 view .LVU771
 2376              		.loc 1 382 3 view .LVU772
 2377              		.loc 1 383 3 view .LVU773
 2378              		.loc 1 383 6 is_stmt 0 view .LVU774
 2379 07ba 03D5     		bpl	.L150
 2380              		.loc 1 383 38 view .LVU775
 2381 07bc D7F81038 		ldr	r3, [r7, #2064]
 2382              		.loc 1 383 30 view .LVU776
ARM GAS  /tmp/ccfraM8n.s 			page 43


 2383 07c0 DA07     		lsls	r2, r3, #31
 2384 07c2 09D4     		bmi	.L170
 2385              	.LVL143:
 2386              	.L150:
 2387              	.LBB460:
 2388              		.loc 1 399 38 is_stmt 1 view .LVU777
 2389              	.LBE460:
 2390              		.loc 1 402 3 view .LVU778
 2391              		.loc 1 402 6 is_stmt 0 view .LVU779
 2392 07c4 2306     		lsls	r3, r4, #24
 2393 07c6 05D5     		bpl	.L149
 2394              		.loc 1 403 27 view .LVU780
 2395 07c8 0123     		movs	r3, #1
 2396              		.loc 1 403 12 view .LVU781
 2397 07ca D7F83428 		ldr	r2, [r7, #2100]
 2398              		.loc 1 403 27 view .LVU782
 2399 07ce B340     		lsls	r3, r3, r6
 2400              		.loc 1 402 30 view .LVU783
 2401 07d0 1342     		tst	r3, r2
 2402 07d2 28D1     		bne	.L171
 2403              	.L149:
 2404              		.loc 1 407 1 view .LVU784
 2405 07d4 BDE8F883 		pop	{r3, r4, r5, r6, r7, r8, r9, pc}
 2406              	.LVL144:
 2407              	.L170:
 2408              	.LBB537:
 2409              		.loc 1 385 5 is_stmt 1 view .LVU785
 2410              		.loc 1 385 40 is_stmt 0 view .LVU786
 2411 07d8 00F10208 		add	r8, r0, #2
 2412 07dc 05EB8803 		add	r3, r5, r8, lsl #2
 2413 07e0 5968     		ldr	r1, [r3, #4]
 2414              		.loc 1 385 25 view .LVU787
 2415 07e2 4B69     		ldr	r3, [r1, #20]
 2416              	.LVL145:
 2417              		.loc 1 387 5 is_stmt 1 view .LVU788
 2418              		.loc 1 387 12 is_stmt 0 view .LVU789
 2419 07e4 1868     		ldr	r0, [r3]
 2420              	.LVL146:
 2421              		.loc 1 387 26 view .LVU790
 2422 07e6 1A69     		ldr	r2, [r3, #16]
 2423              		.loc 1 387 8 view .LVU791
 2424 07e8 9042     		cmp	r0, r2
 2425 07ea 21D3     		bcc	.L172
 2426              		.loc 1 399 7 is_stmt 1 view .LVU792
 2427 07ec 0122     		movs	r2, #1
 2428 07ee 2B89     		ldrh	r3, [r5, #8]
 2429              	.LVL147:
 2430              		.loc 1 399 7 is_stmt 0 view .LVU793
 2431 07f0 D1F80890 		ldr	r9, [r1, #8]
 2432 07f4 B240     		lsls	r2, r2, r6
 2433 07f6 23EA0203 		bic	r3, r3, r2
 2434 07fa 2B81     		strh	r3, [r5, #8]	@ movhi
 2435              		.loc 1 399 7 is_stmt 1 view .LVU794
 2436 07fc B9F1000F 		cmp	r9, #0
 2437 0800 02D0     		beq	.L152
 2438              		.loc 1 399 7 view .LVU795
 2439 0802 3146     		mov	r1, r6
ARM GAS  /tmp/ccfraM8n.s 			page 44


 2440              	.LVL148:
 2441              		.loc 1 399 7 is_stmt 0 view .LVU796
 2442 0804 2846     		mov	r0, r5
 2443 0806 C847     		blx	r9
 2444              	.LVL149:
 2445              	.L152:
 2446              		.loc 1 399 7 is_stmt 1 view .LVU797
 2447              	.LBB461:
 2448              	.LBI461:
 2449              		.loc 2 531 20 view .LVU798
 2450              	.LBE461:
 2451              	.LBE537:
 2452              		.loc 2 533 3 view .LVU799
 2453              	.LBB538:
 2454              	.LBB473:
 2455              	.LBB462:
 2456              	.LBI462:
 2457              		.loc 3 393 20 view .LVU800
 2458              	.LBE462:
 2459              	.LBE473:
 2460              	.LBE538:
 2461              		.loc 3 395 3 view .LVU801
 2462              	.LBB539:
 2463              	.LBB474:
 2464              	.LBB470:
 2465              	.LBB463:
 2466              	.LBI463:
 2467              		.loc 4 708 27 view .LVU802
 2468              	.LBE463:
 2469              	.LBE470:
 2470              	.LBE474:
 2471              	.LBE539:
 2472              		.loc 4 710 3 view .LVU803
 2473              	.LBB540:
 2474              	.LBB475:
 2475              	.LBB471:
 2476              	.LBB468:
 2477              	.LBB464:
 2478              	.LBI464:
 2479              		.loc 4 669 27 view .LVU804
 2480              	.LBE464:
 2481              	.LBE468:
 2482              	.LBE471:
 2483              	.LBE475:
 2484              	.LBE540:
 2485              		.loc 4 677 3 view .LVU805
 2486              	.LBB541:
 2487              	.LBB476:
 2488              	.LBB472:
 2489              	.LBB469:
 2490              	.LBB467:
 2491              	.LBB465:
 2492              	.LBI465:
 2493              		.loc 5 491 27 view .LVU806
 2494              	.LBB466:
 2495              		.loc 5 493 3 view .LVU807
 2496 0808 2023     		movs	r3, #32
ARM GAS  /tmp/ccfraM8n.s 			page 45


 2497              		.syntax unified
 2498              	@ 493 "../../../external/ChibiOS/os/common/ext/ARM/CMSIS/Core/Include/cmsis_gcc.h" 1
 2499 080a 83F31188 		MSR basepri, r3
 2500              	@ 0 "" 2
 2501              	.LVL150:
 2502              		.loc 5 493 3 is_stmt 0 view .LVU808
 2503              		.thumb
 2504              		.syntax unified
 2505              	.LBE466:
 2506              	.LBE465:
 2507              	.LBE467:
 2508              	.LBE469:
 2509              	.LBE472:
 2510              	.LBE476:
 2511              	.LBE541:
 2512              		.loc 3 396 34 is_stmt 1 view .LVU809
 2513              		.loc 3 397 29 view .LVU810
 2514              	.LBB542:
 2515              		.loc 1 399 7 view .LVU811
 2516              	.LBB477:
 2517              	.LBI477:
 2518              		.loc 2 773 20 view .LVU812
 2519              	.LBB478:
 2520              		.loc 2 775 3 view .LVU813
 2521              	.LBE478:
 2522              	.LBE477:
 2523              		.loc 1 399 7 is_stmt 0 view .LVU814
 2524 080e 05EB8805 		add	r5, r5, r8, lsl #2
 2525              	.LBB481:
 2526              	.LBB479:
 2527              		.loc 2 775 3 view .LVU815
 2528 0812 0021     		movs	r1, #0
 2529              	.LBE479:
 2530              	.LBE481:
 2531              		.loc 1 399 7 view .LVU816
 2532 0814 6B68     		ldr	r3, [r5, #4]
 2533 0816 5869     		ldr	r0, [r3, #20]
 2534              	.LBB482:
 2535              	.LBB480:
 2536              		.loc 2 775 3 view .LVU817
 2537 0818 0C30     		adds	r0, r0, #12
 2538 081a FFF7FEFF 		bl	chThdResumeI
 2539              	.LVL151:
 2540              		.loc 2 775 3 view .LVU818
 2541              	.LBE480:
 2542              	.LBE482:
 2543              		.loc 1 399 7 is_stmt 1 view .LVU819
 2544              	.LBB483:
 2545              	.LBI483:
 2546              		.loc 2 542 20 view .LVU820
 2547              	.LBE483:
 2548              	.LBE542:
 2549              		.loc 2 544 3 view .LVU821
 2550              	.LBB543:
 2551              	.LBB495:
 2552              	.LBB484:
 2553              	.LBI484:
ARM GAS  /tmp/ccfraM8n.s 			page 46


 2554              		.loc 3 413 20 view .LVU822
 2555              	.LBE484:
 2556              	.LBE495:
 2557              	.LBE543:
 2558              		.loc 3 415 31 view .LVU823
 2559              		.loc 3 416 33 view .LVU824
 2560              		.loc 3 417 3 view .LVU825
 2561              	.LBB544:
 2562              	.LBB496:
 2563              	.LBB492:
 2564              	.LBB485:
 2565              	.LBI485:
 2566              		.loc 4 719 27 view .LVU826
 2567              	.LBE485:
 2568              	.LBE492:
 2569              	.LBE496:
 2570              	.LBE544:
 2571              		.loc 4 721 3 view .LVU827
 2572              	.LBB545:
 2573              	.LBB497:
 2574              	.LBB493:
 2575              	.LBB490:
 2576              	.LBB486:
 2577              	.LBI486:
 2578              		.loc 4 693 27 view .LVU828
 2579              	.LBE486:
 2580              	.LBE490:
 2581              	.LBE493:
 2582              	.LBE497:
 2583              	.LBE545:
 2584              		.loc 4 696 3 view .LVU829
 2585              	.LBB546:
 2586              	.LBB498:
 2587              	.LBB494:
 2588              	.LBB491:
 2589              	.LBB489:
 2590              	.LBB487:
 2591              	.LBI487:
 2592              		.loc 5 491 27 view .LVU830
 2593              	.LBB488:
 2594              		.loc 5 493 3 view .LVU831
 2595 081e 0023     		movs	r3, #0
 2596              		.syntax unified
 2597              	@ 493 "../../../external/ChibiOS/os/common/ext/ARM/CMSIS/Core/Include/cmsis_gcc.h" 1
 2598 0820 83F31188 		MSR basepri, r3
 2599              	@ 0 "" 2
 2600              	.LVL152:
 2601              		.loc 5 493 3 is_stmt 0 view .LVU832
 2602              		.thumb
 2603              		.syntax unified
 2604 0824 CEE7     		b	.L150
 2605              	.L171:
 2606              		.loc 5 493 3 view .LVU833
 2607              	.LBE488:
 2608              	.LBE487:
 2609              	.LBE489:
 2610              	.LBE491:
ARM GAS  /tmp/ccfraM8n.s 			page 47


 2611              	.LBE494:
 2612              	.LBE498:
 2613              	.LBE546:
 2614              		.loc 1 405 5 is_stmt 1 view .LVU834
 2615 0826 3046     		mov	r0, r6
 2616              		.loc 1 407 1 is_stmt 0 view .LVU835
 2617 0828 BDE8F843 		pop	{r3, r4, r5, r6, r7, r8, r9, lr}
 2618              		.cfi_remember_state
 2619              		.cfi_restore 14
 2620              		.cfi_restore 9
 2621              		.cfi_restore 8
 2622              		.cfi_restore 7
 2623              		.cfi_restore 6
 2624              		.cfi_restore 5
 2625              		.cfi_restore 4
 2626              		.cfi_restore 3
 2627              		.cfi_def_cfa_offset 0
 2628              	.LVL153:
 2629              		.loc 1 405 5 view .LVU836
 2630 082c FFF7E8BB 		b	otg_txfifo_handler.constprop.11
 2631              	.LVL154:
 2632              	.L172:
 2633              		.cfi_restore_state
 2634              	.LBB547:
 2635              		.loc 1 391 7 is_stmt 1 view .LVU837
 2636              		.loc 1 391 34 is_stmt 0 view .LVU838
 2637 0830 121A     		subs	r2, r2, r0
 2638              		.loc 1 392 19 view .LVU839
 2639 0832 4FF00008 		mov	r8, #0
 2640              	.LBB499:
 2641              	.LBB500:
 2642              	.LBB501:
 2643              	.LBB502:
 2644              	.LBB503:
 2645              	.LBB504:
 2646              		.loc 5 493 3 view .LVU840
 2647 0836 2021     		movs	r1, #32
 2648              	.LBE504:
 2649              	.LBE503:
 2650              	.LBE502:
 2651              	.LBE501:
 2652              	.LBE500:
 2653              	.LBE499:
 2654              		.loc 1 392 19 view .LVU841
 2655 0838 C3E90028 		strd	r2, r8, [r3]
 2656              		.loc 1 393 7 is_stmt 1 view .LVU842
 2657              	.LBB516:
 2658              	.LBI499:
 2659              		.loc 2 531 20 view .LVU843
 2660              	.LBE516:
 2661              	.LBE547:
 2662              		.loc 2 533 3 view .LVU844
 2663              	.LBB548:
 2664              	.LBB517:
 2665              	.LBB512:
 2666              	.LBI500:
 2667              		.loc 3 393 20 view .LVU845
ARM GAS  /tmp/ccfraM8n.s 			page 48


 2668              	.LBE512:
 2669              	.LBE517:
 2670              	.LBE548:
 2671              		.loc 3 395 3 view .LVU846
 2672              	.LBB549:
 2673              	.LBB518:
 2674              	.LBB513:
 2675              	.LBB509:
 2676              	.LBI501:
 2677              		.loc 4 708 27 view .LVU847
 2678              	.LBE509:
 2679              	.LBE513:
 2680              	.LBE518:
 2681              	.LBE549:
 2682              		.loc 4 710 3 view .LVU848
 2683              	.LBB550:
 2684              	.LBB519:
 2685              	.LBB514:
 2686              	.LBB510:
 2687              	.LBB507:
 2688              	.LBI502:
 2689              		.loc 4 669 27 view .LVU849
 2690              	.LBE507:
 2691              	.LBE510:
 2692              	.LBE514:
 2693              	.LBE519:
 2694              	.LBE550:
 2695              		.loc 4 677 3 view .LVU850
 2696              	.LVL155:
 2697              	.LBB551:
 2698              	.LBB520:
 2699              	.LBB515:
 2700              	.LBB511:
 2701              	.LBB508:
 2702              	.LBB506:
 2703              	.LBI503:
 2704              		.loc 5 491 27 view .LVU851
 2705              	.LBB505:
 2706              		.loc 5 493 3 view .LVU852
 2707              		.syntax unified
 2708              	@ 493 "../../../external/ChibiOS/os/common/ext/ARM/CMSIS/Core/Include/cmsis_gcc.h" 1
 2709 083c 81F31188 		MSR basepri, r1
 2710              	@ 0 "" 2
 2711              	.LVL156:
 2712              		.loc 5 493 3 is_stmt 0 view .LVU853
 2713              		.thumb
 2714              		.syntax unified
 2715              	.LBE505:
 2716              	.LBE506:
 2717              	.LBE508:
 2718              	.LBE511:
 2719              	.LBE515:
 2720              	.LBE520:
 2721              	.LBE551:
 2722              		.loc 3 396 34 is_stmt 1 view .LVU854
 2723              		.loc 3 397 29 view .LVU855
 2724              	.LBB552:
ARM GAS  /tmp/ccfraM8n.s 			page 49


 2725              		.loc 1 394 7 view .LVU856
 2726 0840 2846     		mov	r0, r5
 2727 0842 3146     		mov	r1, r6
 2728 0844 FFF7FEFF 		bl	usb_lld_start_in
 2729              	.LVL157:
 2730              		.loc 1 395 7 view .LVU857
 2731              	.LBB521:
 2732              	.LBI521:
 2733              		.loc 2 542 20 view .LVU858
 2734              	.LBE521:
 2735              	.LBE552:
 2736              		.loc 2 544 3 view .LVU859
 2737              	.LBB553:
 2738              	.LBB533:
 2739              	.LBB522:
 2740              	.LBI522:
 2741              		.loc 3 413 20 view .LVU860
 2742              	.LBE522:
 2743              	.LBE533:
 2744              	.LBE553:
 2745              		.loc 3 415 31 view .LVU861
 2746              		.loc 3 416 33 view .LVU862
 2747              		.loc 3 417 3 view .LVU863
 2748              	.LBB554:
 2749              	.LBB534:
 2750              	.LBB530:
 2751              	.LBB523:
 2752              	.LBI523:
 2753              		.loc 4 719 27 view .LVU864
 2754              	.LBE523:
 2755              	.LBE530:
 2756              	.LBE534:
 2757              	.LBE554:
 2758              		.loc 4 721 3 view .LVU865
 2759              	.LBB555:
 2760              	.LBB535:
 2761              	.LBB531:
 2762              	.LBB528:
 2763              	.LBB524:
 2764              	.LBI524:
 2765              		.loc 4 693 27 view .LVU866
 2766              	.LBE524:
 2767              	.LBE528:
 2768              	.LBE531:
 2769              	.LBE535:
 2770              	.LBE555:
 2771              		.loc 4 696 3 view .LVU867
 2772              	.LBB556:
 2773              	.LBB536:
 2774              	.LBB532:
 2775              	.LBB529:
 2776              	.LBB527:
 2777              	.LBB525:
 2778              	.LBI525:
 2779              		.loc 5 491 27 view .LVU868
 2780              	.LBB526:
 2781              		.loc 5 493 3 view .LVU869
ARM GAS  /tmp/ccfraM8n.s 			page 50


 2782              		.syntax unified
 2783              	@ 493 "../../../external/ChibiOS/os/common/ext/ARM/CMSIS/Core/Include/cmsis_gcc.h" 1
 2784 0848 88F31188 		MSR basepri, r8
 2785              	@ 0 "" 2
 2786              	.LVL158:
 2787              		.loc 5 493 3 is_stmt 0 view .LVU870
 2788              		.thumb
 2789              		.syntax unified
 2790 084c BAE7     		b	.L150
 2791              	.L174:
 2792 084e 00BF     		.align	2
 2793              	.L173:
 2794 0850 00000000 		.word	USBD1
 2795              	.LBE526:
 2796              	.LBE525:
 2797              	.LBE527:
 2798              	.LBE529:
 2799              	.LBE532:
 2800              	.LBE536:
 2801              	.LBE556:
 2802              		.cfi_endproc
 2803              	.LFE402:
 2804              		.size	otg_epin_handler.constprop.10, .-otg_epin_handler.constprop.10
 2805              		.align	1
 2806 0854 AFF30080 		.p2align 4,,15
 2806      AFF30080 
 2806      AFF30080 
 2807              		.global	Vector1D4
 2808              		.syntax unified
 2809              		.thumb
 2810              		.thumb_func
 2811              		.fpu fpv4-sp-d16
 2812              		.type	Vector1D4, %function
 2813              	Vector1D4:
 2814              	.LFB377:
 2815              		.loc 1 681 38 is_stmt 1 view -0
 2816              		.cfi_startproc
 2817              		@ args = 0, pretend = 0, frame = 0
 2818              		@ frame_needed = 0, uses_anonymous_args = 0
 2819              		.loc 1 683 3 view .LVU872
 2820              		.loc 1 683 3 view .LVU873
 2821              		.loc 1 683 3 view .LVU874
 2822              		.loc 1 683 3 view .LVU875
 2823              		.loc 1 683 3 view .LVU876
 2824              		.loc 1 681 38 is_stmt 0 view .LVU877
 2825 0860 2DE9F84F 		push	{r3, r4, r5, r6, r7, r8, r9, r10, fp, lr}
 2826              		.cfi_def_cfa_offset 40
 2827              		.cfi_offset 3, -40
 2828              		.cfi_offset 4, -36
 2829              		.cfi_offset 5, -32
 2830              		.cfi_offset 6, -28
 2831              		.cfi_offset 7, -24
 2832              		.cfi_offset 8, -20
 2833              		.cfi_offset 9, -16
 2834              		.cfi_offset 10, -12
 2835              		.cfi_offset 11, -8
 2836              		.cfi_offset 14, -4
ARM GAS  /tmp/ccfraM8n.s 			page 51


 2837              	.LBB603:
 2838              	.LBB604:
 2839              		.loc 1 533 16 view .LVU878
 2840 0864 C44D     		ldr	r5, .L345
 2841              	.LBE604:
 2842              	.LBE603:
 2843              		.loc 1 683 3 view .LVU879
 2844 0866 C548     		ldr	r0, .L345+4
 2845 0868 FFF7FEFF 		bl	_trace_isr_enter
 2846              	.LVL159:
 2847              		.loc 1 683 22 is_stmt 1 view .LVU880
 2848              		.loc 1 685 3 view .LVU881
 2849              	.LBB763:
 2850              	.LBI603:
 2851              		.loc 1 532 13 view .LVU882
 2852              	.LBB741:
 2853              		.loc 1 533 3 view .LVU883
 2854              		.loc 1 533 16 is_stmt 0 view .LVU884
 2855 086c D5F89070 		ldr	r7, [r5, #144]
 2856              	.LVL160:
 2857              		.loc 1 534 3 is_stmt 1 view .LVU885
 2858              		.loc 1 536 3 view .LVU886
 2859              		.loc 1 536 8 is_stmt 0 view .LVU887
 2860 0870 7C69     		ldr	r4, [r7, #20]
 2861              	.LVL161:
 2862              		.loc 1 537 3 is_stmt 1 view .LVU888
 2863              		.loc 1 537 14 is_stmt 0 view .LVU889
 2864 0872 BB69     		ldr	r3, [r7, #24]
 2865              		.loc 1 537 7 view .LVU890
 2866 0874 1C40     		ands	r4, r4, r3
 2867              	.LVL162:
 2868              		.loc 1 538 3 is_stmt 1 view .LVU891
 2869              		.loc 1 541 6 is_stmt 0 view .LVU892
 2870 0876 14F48058 		ands	r8, r4, #4096
 2871              		.loc 1 538 17 view .LVU893
 2872 087a 7C61     		str	r4, [r7, #20]
 2873              		.loc 1 541 3 is_stmt 1 view .LVU894
 2874              		.loc 1 541 6 is_stmt 0 view .LVU895
 2875 087c 40F06B81 		bne	.L320
 2876              		.loc 1 550 3 is_stmt 1 view .LVU896
 2877              		.loc 1 550 6 is_stmt 0 view .LVU897
 2878 0880 002C     		cmp	r4, #0
 2879 0882 C0F2EB80 		blt	.L321
 2880              		.loc 1 565 3 is_stmt 1 view .LVU898
 2881              		.loc 1 565 6 is_stmt 0 view .LVU899
 2882 0886 2105     		lsls	r1, r4, #20
 2883 0888 2FD5     		bpl	.L180
 2884              	.L343:
 2885              		.loc 1 567 5 is_stmt 1 view .LVU900
 2886              	.LBB605:
 2887              	.LBB606:
 2888              		.loc 1 158 35 is_stmt 0 view .LVU901
 2889 088a D5F89430 		ldr	r3, [r5, #148]
 2890              		.loc 1 158 10 view .LVU902
 2891 088e 0021     		movs	r1, #0
 2892              	.LBE606:
 2893              	.LBE605:
ARM GAS  /tmp/ccfraM8n.s 			page 52


 2894              		.loc 1 567 5 view .LVU903
 2895 0890 D5F89060 		ldr	r6, [r5, #144]
 2896              	.LBB609:
 2897              	.LBI605:
 2898              		.loc 1 154 13 is_stmt 1 view .LVU904
 2899              	.LVL163:
 2900              	.LBB607:
 2901              		.loc 1 155 3 view .LVU905
 2902              		.loc 1 156 3 view .LVU906
 2903              		.loc 1 158 3 view .LVU907
 2904              		.loc 1 168 25 is_stmt 0 view .LVU908
 2905 0894 4FF0FF3C 		mov	ip, #-1
 2906              		.loc 1 158 35 view .LVU909
 2907 0898 D3F80890 		ldr	r9, [r3, #8]
 2908              	.LVL164:
 2909              	.L183:
 2910              		.loc 1 160 5 is_stmt 1 view .LVU910
 2911              		.loc 1 161 7 view .LVU911
 2912              		.loc 1 164 5 view .LVU912
 2913              		.loc 1 165 7 view .LVU913
 2914              		.loc 1 168 5 view .LVU914
 2915 089c 4B01     		lsls	r3, r1, #5
 2916              		.loc 1 158 53 is_stmt 0 view .LVU915
 2917 089e 01F1010E 		add	lr, r1, #1
 2918 08a2 F218     		adds	r2, r6, r3
 2919              		.loc 1 160 21 view .LVU916
 2920 08a4 D2F80009 		ldr	r0, [r2, #2304]
 2921              		.loc 1 168 25 view .LVU917
 2922 08a8 1346     		mov	r3, r2
 2923              		.loc 1 160 8 view .LVU918
 2924 08aa 0028     		cmp	r0, #0
 2925 08ac 05DA     		bge	.L181
 2926              		.loc 1 161 27 view .LVU919
 2927 08ae D2F80009 		ldr	r0, [r2, #2304]
 2928 08b2 40F08040 		orr	r0, r0, #1073741824
 2929 08b6 C2F80009 		str	r0, [r2, #2304]
 2930              	.L181:
 2931              		.loc 1 164 21 view .LVU920
 2932 08ba D2F8000B 		ldr	r0, [r2, #2816]
 2933              		.loc 1 164 8 view .LVU921
 2934 08be 0028     		cmp	r0, #0
 2935 08c0 05DA     		bge	.L182
 2936              		.loc 1 165 27 view .LVU922
 2937 08c2 D2F8000B 		ldr	r0, [r2, #2816]
 2938 08c6 40F08040 		orr	r0, r0, #1073741824
 2939 08ca C2F8000B 		str	r0, [r2, #2816]
 2940              	.L182:
 2941              		.loc 1 158 3 view .LVU923
 2942 08ce 4945     		cmp	r1, r9
 2943              		.loc 1 168 25 view .LVU924
 2944 08d0 C3F808C9 		str	ip, [r3, #2312]
 2945              		.loc 1 169 5 is_stmt 1 view .LVU925
 2946              	.LVL165:
 2947              		.loc 1 158 3 is_stmt 0 view .LVU926
 2948 08d4 7146     		mov	r1, lr
 2949              		.loc 1 169 25 view .LVU927
 2950 08d6 C3F808CB 		str	ip, [r3, #2824]
ARM GAS  /tmp/ccfraM8n.s 			page 53


 2951              		.loc 1 158 3 view .LVU928
 2952 08da DFD1     		bne	.L183
 2953              	.LVL166:
 2954              		.loc 1 171 3 is_stmt 1 view .LVU929
 2955              		.loc 1 171 18 is_stmt 0 view .LVU930
 2956 08dc 4FF00113 		mov	r3, #65537
 2957              	.LBE607:
 2958              	.LBE609:
 2959              		.loc 1 570 5 view .LVU931
 2960 08e0 A548     		ldr	r0, .L345
 2961              	.LBB610:
 2962              	.LBB608:
 2963              		.loc 1 171 18 view .LVU932
 2964 08e2 C6F81C38 		str	r3, [r6, #2076]
 2965              	.LVL167:
 2966              		.loc 1 171 18 view .LVU933
 2967              	.LBE608:
 2968              	.LBE610:
 2969              		.loc 1 570 5 is_stmt 1 view .LVU934
 2970 08e6 FFF7FEFF 		bl	_usb_suspend
 2971              	.LVL168:
 2972              	.L180:
 2973              		.loc 1 574 3 view .LVU935
 2974              		.loc 1 574 6 is_stmt 0 view .LVU936
 2975 08ea A204     		lsls	r2, r4, #18
 2976 08ec 0CD5     		bpl	.L184
 2977              		.loc 1 576 5 is_stmt 1 view .LVU937
 2978              		.loc 1 576 14 is_stmt 0 view .LVU938
 2979 08ee D7F80838 		ldr	r3, [r7, #2056]
 2980              		.loc 1 576 8 view .LVU939
 2981 08f2 13F0060F 		tst	r3, #6
 2982              		.loc 1 577 28 view .LVU940
 2983 08f6 FB68     		ldr	r3, [r7, #12]
 2984              		.loc 1 577 38 view .LVU941
 2985 08f8 23F47053 		bic	r3, r3, #15360
 2986              		.loc 1 577 7 is_stmt 1 view .LVU942
 2987              		.loc 1 577 62 is_stmt 0 view .LVU943
 2988 08fc 0CBF     		ite	eq
 2989 08fe 43F41053 		orreq	r3, r3, #9216
 2990              		.loc 1 581 7 is_stmt 1 view .LVU944
 2991              		.loc 1 581 62 is_stmt 0 view .LVU945
 2992 0902 43F4A053 		orrne	r3, r3, #5120
 2993              		.loc 1 581 21 view .LVU946
 2994 0906 FB60     		str	r3, [r7, #12]
 2995              	.L184:
 2996              		.loc 1 587 3 is_stmt 1 view .LVU947
 2997              		.loc 1 587 6 is_stmt 0 view .LVU948
 2998 0908 2307     		lsls	r3, r4, #28
 2999 090a 4AD4     		bmi	.L322
 3000              	.L186:
 3001              		.loc 1 588 33 is_stmt 1 view .LVU949
 3002              		.loc 1 592 3 view .LVU950
 3003              		.loc 1 592 6 is_stmt 0 view .LVU951
 3004 090c E602     		lsls	r6, r4, #11
 3005 090e 50D4     		bmi	.L187
 3006              	.L195:
 3007              		.loc 1 597 3 is_stmt 1 view .LVU952
ARM GAS  /tmp/ccfraM8n.s 			page 54


 3008              		.loc 1 597 6 is_stmt 0 view .LVU953
 3009 0910 A002     		lsls	r0, r4, #10
 3010 0912 00F1E580 		bmi	.L323
 3011              	.L189:
 3012              		.loc 1 603 3 is_stmt 1 view .LVU954
 3013              		.loc 1 603 6 is_stmt 0 view .LVU955
 3014 0916 E306     		lsls	r3, r4, #27
 3015 0918 00F1B780 		bmi	.L324
 3016              	.L201:
 3017              		.loc 1 608 3 is_stmt 1 view .LVU956
 3018              		.loc 1 609 6 is_stmt 0 view .LVU957
 3019 091c 2303     		lsls	r3, r4, #12
 3020              		.loc 1 608 7 view .LVU958
 3021 091e D7F81858 		ldr	r5, [r7, #2072]
 3022              	.LVL169:
 3023              		.loc 1 609 3 is_stmt 1 view .LVU959
 3024              		.loc 1 609 6 is_stmt 0 view .LVU960
 3025 0922 1AD5     		bpl	.L211
 3026              		.loc 1 610 5 is_stmt 1 view .LVU961
 3027              		.loc 1 610 8 is_stmt 0 view .LVU962
 3028 0924 EF03     		lsls	r7, r5, #15
 3029              	.LVL170:
 3030              		.loc 1 610 8 view .LVU963
 3031 0926 00F1B381 		bmi	.L325
 3032              	.L212:
 3033              		.loc 1 612 5 is_stmt 1 view .LVU964
 3034              		.loc 1 612 8 is_stmt 0 view .LVU965
 3035 092a AE03     		lsls	r6, r5, #14
 3036 092c 00F1AC81 		bmi	.L326
 3037              	.L213:
 3038              		.loc 1 614 5 is_stmt 1 view .LVU966
 3039              		.loc 1 614 8 is_stmt 0 view .LVU967
 3040 0930 6803     		lsls	r0, r5, #13
 3041 0932 00F1A581 		bmi	.L327
 3042              	.L214:
 3043              		.loc 1 616 5 is_stmt 1 view .LVU968
 3044              		.loc 1 616 8 is_stmt 0 view .LVU969
 3045 0936 2903     		lsls	r1, r5, #12
 3046 0938 00F18681 		bmi	.L328
 3047              		.loc 1 619 5 is_stmt 1 view .LVU970
 3048              		.loc 1 619 8 is_stmt 0 view .LVU971
 3049 093c EA02     		lsls	r2, r5, #11
 3050 093e 00F18981 		bmi	.L329
 3051              	.L216:
 3052              		.loc 1 623 5 is_stmt 1 view .LVU972
 3053              		.loc 1 623 8 is_stmt 0 view .LVU973
 3054 0942 AB02     		lsls	r3, r5, #10
 3055 0944 00F18C81 		bmi	.L330
 3056              	.L217:
 3057              		.loc 1 627 5 is_stmt 1 view .LVU974
 3058              		.loc 1 627 8 is_stmt 0 view .LVU975
 3059 0948 6F02     		lsls	r7, r5, #9
 3060 094a 00F18F81 		bmi	.L331
 3061              	.L218:
 3062              		.loc 1 631 5 is_stmt 1 view .LVU976
 3063              		.loc 1 631 8 is_stmt 0 view .LVU977
 3064 094e 2E02     		lsls	r6, r5, #8
ARM GAS  /tmp/ccfraM8n.s 			page 55


 3065 0950 00F19281 		bmi	.L332
 3066              	.L219:
 3067              		.loc 1 635 5 is_stmt 1 view .LVU978
 3068              		.loc 1 635 8 is_stmt 0 view .LVU979
 3069 0954 E801     		lsls	r0, r5, #7
 3070 0956 00F10881 		bmi	.L333
 3071              	.L211:
 3072              		.loc 1 639 3 is_stmt 1 view .LVU980
 3073              		.loc 1 639 6 is_stmt 0 view .LVU981
 3074 095a 6103     		lsls	r1, r4, #13
 3075 095c 1AD5     		bpl	.L177
 3076              	.L344:
 3077              		.loc 1 640 5 is_stmt 1 view .LVU982
 3078              		.loc 1 640 8 is_stmt 0 view .LVU983
 3079 095e EA07     		lsls	r2, r5, #31
 3080 0960 00F14481 		bmi	.L334
 3081              		.loc 1 642 5 is_stmt 1 view .LVU984
 3082              		.loc 1 642 8 is_stmt 0 view .LVU985
 3083 0964 AB07     		lsls	r3, r5, #30
 3084 0966 00F14781 		bmi	.L335
 3085              	.L223:
 3086              		.loc 1 644 5 is_stmt 1 view .LVU986
 3087              		.loc 1 644 8 is_stmt 0 view .LVU987
 3088 096a 6F07     		lsls	r7, r5, #29
 3089 096c 00F14A81 		bmi	.L336
 3090              	.L224:
 3091              		.loc 1 646 5 is_stmt 1 view .LVU988
 3092              		.loc 1 646 8 is_stmt 0 view .LVU989
 3093 0970 2E07     		lsls	r6, r5, #28
 3094 0972 00F14D81 		bmi	.L337
 3095              	.L225:
 3096              		.loc 1 649 5 is_stmt 1 view .LVU990
 3097              		.loc 1 649 8 is_stmt 0 view .LVU991
 3098 0976 EC06     		lsls	r4, r5, #27
 3099              	.LVL171:
 3100              		.loc 1 649 8 view .LVU992
 3101 0978 00F15081 		bmi	.L338
 3102              	.L226:
 3103              		.loc 1 653 5 is_stmt 1 view .LVU993
 3104              		.loc 1 653 8 is_stmt 0 view .LVU994
 3105 097c A806     		lsls	r0, r5, #26
 3106 097e 00F15381 		bmi	.L339
 3107              	.L227:
 3108              		.loc 1 657 5 is_stmt 1 view .LVU995
 3109              		.loc 1 657 8 is_stmt 0 view .LVU996
 3110 0982 6906     		lsls	r1, r5, #25
 3111 0984 00F15681 		bmi	.L340
 3112              	.L228:
 3113              		.loc 1 661 5 is_stmt 1 view .LVU997
 3114              		.loc 1 661 8 is_stmt 0 view .LVU998
 3115 0988 2A06     		lsls	r2, r5, #24
 3116 098a 00F15981 		bmi	.L341
 3117              	.L229:
 3118              		.loc 1 665 5 is_stmt 1 view .LVU999
 3119              		.loc 1 665 8 is_stmt 0 view .LVU1000
 3120 098e EB05     		lsls	r3, r5, #23
 3121 0990 00F1F680 		bmi	.L342
ARM GAS  /tmp/ccfraM8n.s 			page 56


 3122              	.L177:
 3123              	.LVL172:
 3124              		.loc 1 665 8 view .LVU1001
 3125              	.LBE741:
 3126              	.LBE763:
 3127              		.loc 1 687 3 is_stmt 1 view .LVU1002
 3128              		.loc 1 687 3 view .LVU1003
 3129 0994 7948     		ldr	r0, .L345+4
 3130 0996 FFF7FEFF 		bl	_trace_isr_leave
 3131              	.LVL173:
 3132              		.loc 1 687 3 view .LVU1004
 3133              		.loc 1 687 3 view .LVU1005
 3134              		.loc 1 687 3 view .LVU1006
 3135              		.loc 1 688 1 is_stmt 0 view .LVU1007
 3136 099a BDE8F84F 		pop	{r3, r4, r5, r6, r7, r8, r9, r10, fp, lr}
 3137              		.cfi_remember_state
 3138              		.cfi_restore 14
 3139              		.cfi_restore 11
 3140              		.cfi_restore 10
 3141              		.cfi_restore 9
 3142              		.cfi_restore 8
 3143              		.cfi_restore 7
 3144              		.cfi_restore 6
 3145              		.cfi_restore 5
 3146              		.cfi_restore 4
 3147              		.cfi_restore 3
 3148              		.cfi_def_cfa_offset 0
 3149              		.loc 1 687 3 view .LVU1008
 3150 099e FFF7FEBF 		b	_port_irq_epilogue
 3151              	.LVL174:
 3152              	.L322:
 3153              		.cfi_restore_state
 3154              	.LBB764:
 3155              	.LBB742:
 3156              		.loc 1 588 5 is_stmt 1 view .LVU1009
 3157 09a2 6B68     		ldr	r3, [r5, #4]
 3158 09a4 DB68     		ldr	r3, [r3, #12]
 3159 09a6 002B     		cmp	r3, #0
 3160 09a8 B0D0     		beq	.L186
 3161              		.loc 1 588 5 view .LVU1010
 3162 09aa 7348     		ldr	r0, .L345
 3163 09ac 9847     		blx	r3
 3164              	.LVL175:
 3165              		.loc 1 588 33 view .LVU1011
 3166              		.loc 1 592 3 view .LVU1012
 3167              		.loc 1 592 6 is_stmt 0 view .LVU1013
 3168 09ae E602     		lsls	r6, r4, #11
 3169 09b0 AED5     		bpl	.L195
 3170              	.L187:
 3171              		.loc 1 593 5 is_stmt 1 view .LVU1014
 3172              	.LBB611:
 3173              	.LBI611:
 3174              		.loc 1 474 13 view .LVU1015
 3175              	.LVL176:
 3176              	.LBB612:
 3177              		.loc 1 475 3 view .LVU1016
 3178              		.loc 1 476 3 view .LVU1017
ARM GAS  /tmp/ccfraM8n.s 			page 57


 3179              		.loc 1 478 19 is_stmt 0 view .LVU1018
 3180 09b2 0020     		movs	r0, #0
 3181              		.loc 1 476 16 view .LVU1019
 3182 09b4 D5F890A0 		ldr	r10, [r5, #144]
 3183              	.LVL177:
 3184              		.loc 1 478 3 is_stmt 1 view .LVU1020
 3185              		.loc 1 491 7 is_stmt 0 view .LVU1021
 3186 09b8 4FF00109 		mov	r9, #1
 3187              		.loc 1 478 11 view .LVU1022
 3188 09bc 0646     		mov	r6, r0
 3189 09be 07E0     		b	.L194
 3190              	.LVL178:
 3191              	.L190:
 3192              		.loc 1 478 56 view .LVU1023
 3193 09c0 0136     		adds	r6, r6, #1
 3194              	.LVL179:
 3195              		.loc 1 478 37 view .LVU1024
 3196 09c2 D5F89430 		ldr	r3, [r5, #148]
 3197              		.loc 1 478 56 view .LVU1025
 3198 09c6 F6B2     		uxtb	r6, r6
 3199              	.LVL180:
 3200              		.loc 1 478 3 view .LVU1026
 3201 09c8 9B68     		ldr	r3, [r3, #8]
 3202 09ca 9E42     		cmp	r6, r3
 3203              		.loc 1 478 19 view .LVU1027
 3204 09cc 3046     		mov	r0, r6
 3205              		.loc 1 478 3 view .LVU1028
 3206 09ce 9FD8     		bhi	.L195
 3207              	.LVL181:
 3208              	.L194:
 3209              		.loc 1 479 5 is_stmt 1 view .LVU1029
 3210 09d0 0AEB4613 		add	r3, r10, r6, lsl #5
 3211              		.loc 1 479 23 is_stmt 0 view .LVU1030
 3212 09d4 D3F80029 		ldr	r2, [r3, #2304]
 3213              		.loc 1 479 32 view .LVU1031
 3214 09d8 02F44022 		and	r2, r2, #786432
 3215              		.loc 1 479 8 view .LVU1032
 3216 09dc B2F5802F 		cmp	r2, #262144
 3217 09e0 EED1     		bne	.L190
 3218              		.loc 1 480 23 view .LVU1033
 3219 09e2 D3F80029 		ldr	r2, [r3, #2304]
 3220              		.loc 1 479 76 view .LVU1034
 3221 09e6 002A     		cmp	r2, #0
 3222 09e8 EADA     		bge	.L190
 3223              		.loc 1 483 7 is_stmt 1 view .LVU1035
 3224              		.loc 1 483 28 is_stmt 0 view .LVU1036
 3225 09ea D3F80029 		ldr	r2, [r3, #2304]
 3226 09ee 42F09042 		orr	r2, r2, #1207959552
 3227 09f2 C3F80029 		str	r2, [r3, #2304]
 3228              		.loc 1 484 7 is_stmt 1 view .LVU1037
 3229              	.L191:
 3230              		.loc 1 485 9 view .LVU1038
 3231              		.loc 1 484 26 is_stmt 0 view .LVU1039
 3232 09f6 D3F80029 		ldr	r2, [r3, #2304]
 3233              		.loc 1 484 13 view .LVU1040
 3234 09fa 002A     		cmp	r2, #0
 3235 09fc FBDB     		blt	.L191
ARM GAS  /tmp/ccfraM8n.s 			page 58


 3236              		.loc 1 488 7 is_stmt 1 view .LVU1041
 3237              	.LBB613:
 3238              	.LBB614:
 3239              		.loc 1 187 19 is_stmt 0 view .LVU1042
 3240 09fe 8001     		lsls	r0, r0, #6
 3241              	.LBE614:
 3242              	.LBE613:
 3243              		.loc 1 488 7 view .LVU1043
 3244 0a00 D5F89020 		ldr	r2, [r5, #144]
 3245              	.LVL182:
 3246              	.LBB621:
 3247              	.LBI613:
 3248              		.loc 1 184 13 is_stmt 1 view .LVU1044
 3249              	.LBB619:
 3250              		.loc 1 185 3 view .LVU1045
 3251              		.loc 1 187 3 view .LVU1046
 3252              		.loc 1 187 40 is_stmt 0 view .LVU1047
 3253 0a04 40F02000 		orr	r0, r0, #32
 3254              		.loc 1 187 17 view .LVU1048
 3255 0a08 1061     		str	r0, [r2, #16]
 3256              		.loc 1 188 3 is_stmt 1 view .LVU1049
 3257              	.L192:
 3258              		.loc 1 189 5 view .LVU1050
 3259              		.loc 1 188 15 is_stmt 0 view .LVU1051
 3260 0a0a 1369     		ldr	r3, [r2, #16]
 3261              		.loc 1 188 9 view .LVU1052
 3262 0a0c 9906     		lsls	r1, r3, #26
 3263 0a0e FCD4     		bmi	.L192
 3264              		.loc 1 191 3 is_stmt 1 view .LVU1053
 3265              	.LVL183:
 3266              	.LBB615:
 3267              	.LBI615:
 3268              		.loc 2 589 20 view .LVU1054
 3269              	.LBB616:
 3270              		.loc 2 591 3 view .LVU1055
 3271              	.LBE616:
 3272              	.LBE615:
 3273              	.LBE619:
 3274              	.LBE621:
 3275              		.loc 1 491 7 is_stmt 0 view .LVU1056
 3276 0a10 06F1020B 		add	fp, r6, #2
 3277              	.LBB622:
 3278              	.LBB620:
 3279              	.LBB618:
 3280              	.LBB617:
 3281              		.loc 2 591 3 view .LVU1057
 3282 0a14 1220     		movs	r0, #18
 3283 0a16 FFF7FEFF 		bl	chSysPolledDelayX
 3284              	.LVL184:
 3285              		.loc 2 591 3 view .LVU1058
 3286              	.LBE617:
 3287              	.LBE618:
 3288              	.LBE620:
 3289              	.LBE622:
 3290              		.loc 1 491 7 is_stmt 1 view .LVU1059
 3291 0a1a 2A89     		ldrh	r2, [r5, #8]
 3292 0a1c 05EB8B01 		add	r1, r5, fp, lsl #2
ARM GAS  /tmp/ccfraM8n.s 			page 59


 3293 0a20 09FA06F3 		lsl	r3, r9, r6
 3294 0a24 4968     		ldr	r1, [r1, #4]
 3295 0a26 22EA0303 		bic	r3, r2, r3
 3296 0a2a 8A68     		ldr	r2, [r1, #8]
 3297 0a2c 2B81     		strh	r3, [r5, #8]	@ movhi
 3298              		.loc 1 491 7 view .LVU1060
 3299 0a2e 12B1     		cbz	r2, .L193
 3300              		.loc 1 491 7 view .LVU1061
 3301 0a30 3146     		mov	r1, r6
 3302 0a32 5148     		ldr	r0, .L345
 3303 0a34 9047     		blx	r2
 3304              	.LVL185:
 3305              	.L193:
 3306              		.loc 1 491 7 view .LVU1062
 3307              	.LBB623:
 3308              	.LBI623:
 3309              		.loc 2 531 20 view .LVU1063
 3310              	.LBE623:
 3311              	.LBE612:
 3312              	.LBE611:
 3313              	.LBE742:
 3314              	.LBE764:
 3315              		.loc 2 533 3 view .LVU1064
 3316              	.LBB765:
 3317              	.LBB743:
 3318              	.LBB670:
 3319              	.LBB661:
 3320              	.LBB635:
 3321              	.LBB624:
 3322              	.LBI624:
 3323              		.loc 3 393 20 view .LVU1065
 3324              	.LBE624:
 3325              	.LBE635:
 3326              	.LBE661:
 3327              	.LBE670:
 3328              	.LBE743:
 3329              	.LBE765:
 3330              		.loc 3 395 3 view .LVU1066
 3331              	.LBB766:
 3332              	.LBB744:
 3333              	.LBB671:
 3334              	.LBB662:
 3335              	.LBB636:
 3336              	.LBB632:
 3337              	.LBB625:
 3338              	.LBI625:
 3339              		.loc 4 708 27 view .LVU1067
 3340              	.LBE625:
 3341              	.LBE632:
 3342              	.LBE636:
 3343              	.LBE662:
 3344              	.LBE671:
 3345              	.LBE744:
 3346              	.LBE766:
 3347              		.loc 4 710 3 view .LVU1068
 3348              	.LBB767:
 3349              	.LBB745:
ARM GAS  /tmp/ccfraM8n.s 			page 60


 3350              	.LBB672:
 3351              	.LBB663:
 3352              	.LBB637:
 3353              	.LBB633:
 3354              	.LBB630:
 3355              	.LBB626:
 3356              	.LBI626:
 3357              		.loc 4 669 27 view .LVU1069
 3358              	.LBE626:
 3359              	.LBE630:
 3360              	.LBE633:
 3361              	.LBE637:
 3362              	.LBE663:
 3363              	.LBE672:
 3364              	.LBE745:
 3365              	.LBE767:
 3366              		.loc 4 677 3 view .LVU1070
 3367              	.LBB768:
 3368              	.LBB746:
 3369              	.LBB673:
 3370              	.LBB664:
 3371              	.LBB638:
 3372              	.LBB634:
 3373              	.LBB631:
 3374              	.LBB629:
 3375              	.LBB627:
 3376              	.LBI627:
 3377              		.loc 5 491 27 view .LVU1071
 3378              	.LBB628:
 3379              		.loc 5 493 3 view .LVU1072
 3380 0a36 2023     		movs	r3, #32
 3381              		.syntax unified
 3382              	@ 493 "../../../external/ChibiOS/os/common/ext/ARM/CMSIS/Core/Include/cmsis_gcc.h" 1
 3383 0a38 83F31188 		MSR basepri, r3
 3384              	@ 0 "" 2
 3385              	.LVL186:
 3386              		.loc 5 493 3 is_stmt 0 view .LVU1073
 3387              		.thumb
 3388              		.syntax unified
 3389              	.LBE628:
 3390              	.LBE627:
 3391              	.LBE629:
 3392              	.LBE631:
 3393              	.LBE634:
 3394              	.LBE638:
 3395              	.LBE664:
 3396              	.LBE673:
 3397              	.LBE746:
 3398              	.LBE768:
 3399              		.loc 3 396 34 is_stmt 1 view .LVU1074
 3400              		.loc 3 397 29 view .LVU1075
 3401              	.LBB769:
 3402              	.LBB747:
 3403              	.LBB674:
 3404              	.LBB665:
 3405              		.loc 1 491 7 view .LVU1076
 3406              	.LBB639:
ARM GAS  /tmp/ccfraM8n.s 			page 61


 3407              	.LBI639:
 3408              		.loc 2 773 20 view .LVU1077
 3409              	.LBB640:
 3410              		.loc 2 775 3 view .LVU1078
 3411              	.LBE640:
 3412              	.LBE639:
 3413              		.loc 1 491 7 is_stmt 0 view .LVU1079
 3414 0a3c 05EB8B0B 		add	fp, r5, fp, lsl #2
 3415              	.LBB643:
 3416              	.LBB641:
 3417              		.loc 2 775 3 view .LVU1080
 3418 0a40 0021     		movs	r1, #0
 3419              	.LBE641:
 3420              	.LBE643:
 3421              		.loc 1 491 7 view .LVU1081
 3422 0a42 DBF80430 		ldr	r3, [fp, #4]
 3423 0a46 5869     		ldr	r0, [r3, #20]
 3424              	.LBB644:
 3425              	.LBB642:
 3426              		.loc 2 775 3 view .LVU1082
 3427 0a48 0C30     		adds	r0, r0, #12
 3428 0a4a FFF7FEFF 		bl	chThdResumeI
 3429              	.LVL187:
 3430              		.loc 2 775 3 view .LVU1083
 3431              	.LBE642:
 3432              	.LBE644:
 3433              		.loc 1 491 7 is_stmt 1 view .LVU1084
 3434              	.LBB645:
 3435              	.LBI645:
 3436              		.loc 2 542 20 view .LVU1085
 3437              	.LBE645:
 3438              	.LBE665:
 3439              	.LBE674:
 3440              	.LBE747:
 3441              	.LBE769:
 3442              		.loc 2 544 3 view .LVU1086
 3443              	.LBB770:
 3444              	.LBB748:
 3445              	.LBB675:
 3446              	.LBB666:
 3447              	.LBB657:
 3448              	.LBB646:
 3449              	.LBI646:
 3450              		.loc 3 413 20 view .LVU1087
 3451              	.LBE646:
 3452              	.LBE657:
 3453              	.LBE666:
 3454              	.LBE675:
 3455              	.LBE748:
 3456              	.LBE770:
 3457              		.loc 3 415 31 view .LVU1088
 3458              		.loc 3 416 33 view .LVU1089
 3459              		.loc 3 417 3 view .LVU1090
 3460              	.LBB771:
 3461              	.LBB749:
 3462              	.LBB676:
 3463              	.LBB667:
ARM GAS  /tmp/ccfraM8n.s 			page 62


 3464              	.LBB658:
 3465              	.LBB654:
 3466              	.LBB647:
 3467              	.LBI647:
 3468              		.loc 4 719 27 view .LVU1091
 3469              	.LBE647:
 3470              	.LBE654:
 3471              	.LBE658:
 3472              	.LBE667:
 3473              	.LBE676:
 3474              	.LBE749:
 3475              	.LBE771:
 3476              		.loc 4 721 3 view .LVU1092
 3477              	.LBB772:
 3478              	.LBB750:
 3479              	.LBB677:
 3480              	.LBB668:
 3481              	.LBB659:
 3482              	.LBB655:
 3483              	.LBB652:
 3484              	.LBB648:
 3485              	.LBI648:
 3486              		.loc 4 693 27 view .LVU1093
 3487              	.LBE648:
 3488              	.LBE652:
 3489              	.LBE655:
 3490              	.LBE659:
 3491              	.LBE668:
 3492              	.LBE677:
 3493              	.LBE750:
 3494              	.LBE772:
 3495              		.loc 4 696 3 view .LVU1094
 3496              	.LBB773:
 3497              	.LBB751:
 3498              	.LBB678:
 3499              	.LBB669:
 3500              	.LBB660:
 3501              	.LBB656:
 3502              	.LBB653:
 3503              	.LBB651:
 3504              	.LBB649:
 3505              	.LBI649:
 3506              		.loc 5 491 27 view .LVU1095
 3507              	.LBB650:
 3508              		.loc 5 493 3 view .LVU1096
 3509 0a4e 0023     		movs	r3, #0
 3510              		.syntax unified
 3511              	@ 493 "../../../external/ChibiOS/os/common/ext/ARM/CMSIS/Core/Include/cmsis_gcc.h" 1
 3512 0a50 83F31188 		MSR basepri, r3
 3513              	@ 0 "" 2
 3514              	.LVL188:
 3515              		.loc 5 493 3 is_stmt 0 view .LVU1097
 3516              		.thumb
 3517              		.syntax unified
 3518              	.LBE650:
 3519              	.LBE649:
 3520              	.LBE651:
ARM GAS  /tmp/ccfraM8n.s 			page 63


 3521              	.LBE653:
 3522              	.LBE656:
 3523              	.LBE660:
 3524              		.loc 1 491 38 is_stmt 1 view .LVU1098
 3525              		.loc 1 494 7 view .LVU1099
 3526 0a54 3046     		mov	r0, r6
 3527 0a56 FFF7D3FA 		bl	otg_txfifo_handler.constprop.11
 3528              	.LVL189:
 3529 0a5a B1E7     		b	.L190
 3530              	.LVL190:
 3531              	.L321:
 3532              		.loc 1 494 7 is_stmt 0 view .LVU1100
 3533              	.LBE669:
 3534              	.LBE678:
 3535              		.loc 1 553 5 is_stmt 1 view .LVU1101
 3536              		.loc 1 553 13 is_stmt 0 view .LVU1102
 3537 0a5c D7F8003E 		ldr	r3, [r7, #3584]
 3538              		.loc 1 553 8 view .LVU1103
 3539 0a60 9807     		lsls	r0, r3, #30
 3540 0a62 05D0     		beq	.L179
 3541              		.loc 1 555 7 is_stmt 1 view .LVU1104
 3542              		.loc 1 555 21 is_stmt 0 view .LVU1105
 3543 0a64 D7F8003E 		ldr	r3, [r7, #3584]
 3544 0a68 23F00303 		bic	r3, r3, #3
 3545 0a6c C7F8003E 		str	r3, [r7, #3584]
 3546              	.L179:
 3547              		.loc 1 559 5 is_stmt 1 view .LVU1106
 3548              		.loc 1 559 16 is_stmt 0 view .LVU1107
 3549 0a70 D7F80438 		ldr	r3, [r7, #2052]
 3550              		.loc 1 561 5 view .LVU1108
 3551 0a74 4048     		ldr	r0, .L345
 3552              		.loc 1 559 16 view .LVU1109
 3553 0a76 23F00103 		bic	r3, r3, #1
 3554 0a7a C7F80438 		str	r3, [r7, #2052]
 3555              		.loc 1 561 5 is_stmt 1 view .LVU1110
 3556 0a7e FFF7FEFF 		bl	_usb_wakeup
 3557              	.LVL191:
 3558              		.loc 1 565 3 view .LVU1111
 3559              		.loc 1 565 6 is_stmt 0 view .LVU1112
 3560 0a82 2105     		lsls	r1, r4, #20
 3561 0a84 7FF531AF 		bpl	.L180
 3562 0a88 FFE6     		b	.L343
 3563              	.L324:
 3564              		.loc 1 604 5 is_stmt 1 view .LVU1113
 3565              	.LBB679:
 3566              	.LBI679:
 3567              		.loc 1 285 13 view .LVU1114
 3568              	.LVL192:
 3569              	.LBB680:
 3570              		.loc 1 286 3 view .LVU1115
 3571              		.loc 1 289 3 view .LVU1116
 3572              		.loc 1 289 13 is_stmt 0 view .LVU1117
 3573 0a8a D5F89010 		ldr	r1, [r5, #144]
 3574              		.loc 1 289 7 view .LVU1118
 3575 0a8e 0B6A     		ldr	r3, [r1, #32]
 3576              	.LVL193:
 3577              		.loc 1 292 3 is_stmt 1 view .LVU1119
ARM GAS  /tmp/ccfraM8n.s 			page 64


 3578              		.loc 1 295 15 is_stmt 0 view .LVU1120
 3579 0a90 03F4F010 		and	r0, r3, #1966080
 3580              		.loc 1 292 7 view .LVU1121
 3581 0a94 C3F30A12 		ubfx	r2, r3, #4, #11
 3582              	.LVL194:
 3583              		.loc 1 293 3 is_stmt 1 view .LVU1122
 3584              		.loc 1 293 7 is_stmt 0 view .LVU1123
 3585 0a98 03F00F03 		and	r3, r3, #15
 3586              	.LVL195:
 3587              		.loc 1 295 3 is_stmt 1 view .LVU1124
 3588 0a9c B0F5802F 		cmp	r0, #262144
 3589 0aa0 78D0     		beq	.L202
 3590 0aa2 B0F5402F 		cmp	r0, #786432
 3591 0aa6 7FF439AF 		bne	.L201
 3592              		.loc 1 297 5 view .LVU1125
 3593              		.loc 1 297 58 is_stmt 0 view .LVU1126
 3594 0aaa 05EB8303 		add	r3, r5, r3, lsl #2
 3595              	.LVL196:
 3596              		.loc 1 297 5 view .LVU1127
 3597 0aae DB68     		ldr	r3, [r3, #12]
 3598 0ab0 186A     		ldr	r0, [r3, #32]
 3599              	.LVL197:
 3600              	.LBB681:
 3601              	.LBI681:
 3602              		.loc 1 259 13 is_stmt 1 view .LVU1128
 3603              	.LBB682:
 3604              		.loc 1 263 3 view .LVU1129
 3605              		.loc 1 264 3 view .LVU1130
 3606              		.loc 1 266 3 view .LVU1131
 3607              		.loc 1 266 9 is_stmt 0 view .LVU1132
 3608 0ab2 002A     		cmp	r2, #0
 3609 0ab4 3FF432AF 		beq	.L201
 3610              		.loc 1 268 9 view .LVU1133
 3611 0ab8 01F58055 		add	r5, r1, #4096
 3612              	.LVL198:
 3613              		.loc 1 264 10 view .LVU1134
 3614 0abc 0023     		movs	r3, #0
 3615 0abe 4646     		mov	r6, r8
 3616              	.LVL199:
 3617              	.L205:
 3618              		.loc 1 267 5 is_stmt 1 view .LVU1135
 3619              		.loc 1 268 7 view .LVU1136
 3620              		.loc 1 270 5 view .LVU1137
 3621              		.loc 1 271 7 view .LVU1138
 3622              		.loc 1 267 8 is_stmt 0 view .LVU1139
 3623 0ac0 13F0030F 		tst	r3, #3
 3624              		.loc 1 271 11 view .LVU1140
 3625 0ac4 0146     		mov	r1, r0
 3626              		.loc 1 267 8 view .LVU1141
 3627 0ac6 00D1     		bne	.L203
 3628              		.loc 1 268 9 view .LVU1142
 3629 0ac8 2E68     		ldr	r6, [r5]
 3630              	.L203:
 3631              		.loc 1 270 8 view .LVU1143
 3632 0aca 072B     		cmp	r3, #7
 3633              		.loc 1 274 6 view .LVU1144
 3634 0acc 03F10103 		add	r3, r3, #1
ARM GAS  /tmp/ccfraM8n.s 			page 65


 3635              	.LVL200:
 3636              		.loc 1 270 8 view .LVU1145
 3637 0ad0 03D8     		bhi	.L204
 3638              		.loc 1 271 16 view .LVU1146
 3639 0ad2 01F8016B 		strb	r6, [r1], #1
 3640              		.loc 1 272 7 is_stmt 1 view .LVU1147
 3641              	.LVL201:
 3642              		.loc 1 272 9 is_stmt 0 view .LVU1148
 3643 0ad6 360A     		lsrs	r6, r6, #8
 3644              	.LVL202:
 3645              		.loc 1 271 11 view .LVU1149
 3646 0ad8 0846     		mov	r0, r1
 3647              	.LVL203:
 3648              	.L204:
 3649              		.loc 1 274 5 is_stmt 1 view .LVU1150
 3650              		.loc 1 266 9 is_stmt 0 view .LVU1151
 3651 0ada 9A42     		cmp	r2, r3
 3652 0adc F0D1     		bne	.L205
 3653 0ade 1DE7     		b	.L201
 3654              	.LVL204:
 3655              	.L323:
 3656              		.loc 1 266 9 view .LVU1152
 3657              	.LBE682:
 3658              	.LBE681:
 3659              	.LBE680:
 3660              	.LBE679:
 3661              		.loc 1 598 5 is_stmt 1 view .LVU1153
 3662              	.LBB686:
 3663              	.LBI686:
 3664              		.loc 1 506 13 view .LVU1154
 3665              	.LBB687:
 3666              		.loc 1 507 3 view .LVU1155
 3667              		.loc 1 508 3 view .LVU1156
 3668              		.loc 1 508 16 is_stmt 0 view .LVU1157
 3669 0ae0 D5F890B0 		ldr	fp, [r5, #144]
 3670              	.LVL205:
 3671              		.loc 1 510 3 is_stmt 1 view .LVU1158
 3672              		.loc 1 510 11 is_stmt 0 view .LVU1159
 3673 0ae4 0026     		movs	r6, #0
 3674              		.loc 1 520 7 view .LVU1160
 3675 0ae6 4FF0010A 		mov	r10, #1
 3676 0aea 07E0     		b	.L200
 3677              	.LVL206:
 3678              	.L198:
 3679              		.loc 1 520 39 is_stmt 1 view .LVU1161
 3680              		.loc 1 510 56 is_stmt 0 view .LVU1162
 3681 0aec 0136     		adds	r6, r6, #1
 3682              	.LVL207:
 3683              		.loc 1 510 37 view .LVU1163
 3684 0aee D5F89430 		ldr	r3, [r5, #148]
 3685              		.loc 1 510 56 view .LVU1164
 3686 0af2 F6B2     		uxtb	r6, r6
 3687              	.LVL208:
 3688              		.loc 1 510 3 view .LVU1165
 3689 0af4 9B68     		ldr	r3, [r3, #8]
 3690 0af6 9E42     		cmp	r6, r3
 3691 0af8 3FF60DAF 		bhi	.L189
ARM GAS  /tmp/ccfraM8n.s 			page 66


 3692              	.LVL209:
 3693              	.L200:
 3694              		.loc 1 511 5 is_stmt 1 view .LVU1166
 3695 0afc 0BEB4612 		add	r2, fp, r6, lsl #5
 3696              		.loc 1 511 23 is_stmt 0 view .LVU1167
 3697 0b00 D2F8003B 		ldr	r3, [r2, #2816]
 3698              		.loc 1 511 32 view .LVU1168
 3699 0b04 03F44023 		and	r3, r3, #786432
 3700              		.loc 1 511 8 view .LVU1169
 3701 0b08 B3F5802F 		cmp	r3, #262144
 3702 0b0c EED1     		bne	.L198
 3703              		.loc 1 520 7 is_stmt 1 view .LVU1170
 3704              		.loc 1 512 23 is_stmt 0 view .LVU1171
 3705 0b0e D2F8003B 		ldr	r3, [r2, #2816]
 3706              		.loc 1 520 7 view .LVU1172
 3707 0b12 06F10209 		add	r9, r6, #2
 3708 0b16 0AFA06FC 		lsl	ip, r10, r6
 3709              		.loc 1 511 76 view .LVU1173
 3710 0b1a 002B     		cmp	r3, #0
 3711              		.loc 1 520 7 view .LVU1174
 3712 0b1c 05EB8902 		add	r2, r5, r9, lsl #2
 3713              		.loc 1 511 76 view .LVU1175
 3714 0b20 E4DA     		bge	.L198
 3715              		.loc 1 520 7 is_stmt 1 view .LVU1176
 3716 0b22 6B89     		ldrh	r3, [r5, #10]
 3717 0b24 3146     		mov	r1, r6
 3718 0b26 5268     		ldr	r2, [r2, #4]
 3719 0b28 23EA0C03 		bic	r3, r3, ip
 3720 0b2c 1248     		ldr	r0, .L345
 3721 0b2e D268     		ldr	r2, [r2, #12]
 3722 0b30 6B81     		strh	r3, [r5, #10]	@ movhi
 3723              		.loc 1 520 7 view .LVU1177
 3724 0b32 02B1     		cbz	r2, .L199
 3725 0b34 9047     		blx	r2
 3726              	.LVL210:
 3727              	.L199:
 3728              		.loc 1 520 7 view .LVU1178
 3729              	.LBB688:
 3730              	.LBI688:
 3731              		.loc 2 531 20 view .LVU1179
 3732              	.LBE688:
 3733              	.LBE687:
 3734              	.LBE686:
 3735              	.LBE751:
 3736              	.LBE773:
 3737              		.loc 2 533 3 view .LVU1180
 3738              	.LBB774:
 3739              	.LBB752:
 3740              	.LBB731:
 3741              	.LBB722:
 3742              	.LBB700:
 3743              	.LBB689:
 3744              	.LBI689:
 3745              		.loc 3 393 20 view .LVU1181
 3746              	.LBE689:
 3747              	.LBE700:
 3748              	.LBE722:
ARM GAS  /tmp/ccfraM8n.s 			page 67


 3749              	.LBE731:
 3750              	.LBE752:
 3751              	.LBE774:
 3752              		.loc 3 395 3 view .LVU1182
 3753              	.LBB775:
 3754              	.LBB753:
 3755              	.LBB732:
 3756              	.LBB723:
 3757              	.LBB701:
 3758              	.LBB697:
 3759              	.LBB690:
 3760              	.LBI690:
 3761              		.loc 4 708 27 view .LVU1183
 3762              	.LBE690:
 3763              	.LBE697:
 3764              	.LBE701:
 3765              	.LBE723:
 3766              	.LBE732:
 3767              	.LBE753:
 3768              	.LBE775:
 3769              		.loc 4 710 3 view .LVU1184
 3770              	.LBB776:
 3771              	.LBB754:
 3772              	.LBB733:
 3773              	.LBB724:
 3774              	.LBB702:
 3775              	.LBB698:
 3776              	.LBB695:
 3777              	.LBB691:
 3778              	.LBI691:
 3779              		.loc 4 669 27 view .LVU1185
 3780              	.LBE691:
 3781              	.LBE695:
 3782              	.LBE698:
 3783              	.LBE702:
 3784              	.LBE724:
 3785              	.LBE733:
 3786              	.LBE754:
 3787              	.LBE776:
 3788              		.loc 4 677 3 view .LVU1186
 3789              	.LBB777:
 3790              	.LBB755:
 3791              	.LBB734:
 3792              	.LBB725:
 3793              	.LBB703:
 3794              	.LBB699:
 3795              	.LBB696:
 3796              	.LBB694:
 3797              	.LBB692:
 3798              	.LBI692:
 3799              		.loc 5 491 27 view .LVU1187
 3800              	.LBB693:
 3801              		.loc 5 493 3 view .LVU1188
 3802 0b36 2023     		movs	r3, #32
 3803              		.syntax unified
 3804              	@ 493 "../../../external/ChibiOS/os/common/ext/ARM/CMSIS/Core/Include/cmsis_gcc.h" 1
 3805 0b38 83F31188 		MSR basepri, r3
ARM GAS  /tmp/ccfraM8n.s 			page 68


 3806              	@ 0 "" 2
 3807              	.LVL211:
 3808              		.loc 5 493 3 is_stmt 0 view .LVU1189
 3809              		.thumb
 3810              		.syntax unified
 3811              	.LBE693:
 3812              	.LBE692:
 3813              	.LBE694:
 3814              	.LBE696:
 3815              	.LBE699:
 3816              	.LBE703:
 3817              	.LBE725:
 3818              	.LBE734:
 3819              	.LBE755:
 3820              	.LBE777:
 3821              		.loc 3 396 34 is_stmt 1 view .LVU1190
 3822              		.loc 3 397 29 view .LVU1191
 3823              	.LBB778:
 3824              	.LBB756:
 3825              	.LBB735:
 3826              	.LBB726:
 3827              		.loc 1 520 7 view .LVU1192
 3828 0b3c 05EB8909 		add	r9, r5, r9, lsl #2
 3829 0b40 D9F80430 		ldr	r3, [r9, #4]
 3830 0b44 9869     		ldr	r0, [r3, #24]
 3831              	.LVL212:
 3832              	.LBB704:
 3833              	.LBI704:
 3834              		.loc 2 773 20 view .LVU1193
 3835              	.LBB705:
 3836              		.loc 2 775 3 view .LVU1194
 3837 0b46 4168     		ldr	r1, [r0, #4]
 3838 0b48 0C30     		adds	r0, r0, #12
 3839              	.LVL213:
 3840              		.loc 2 775 3 is_stmt 0 view .LVU1195
 3841 0b4a FFF7FEFF 		bl	chThdResumeI
 3842              	.LVL214:
 3843              		.loc 2 775 3 view .LVU1196
 3844              	.LBE705:
 3845              	.LBE704:
 3846              		.loc 1 520 7 is_stmt 1 view .LVU1197
 3847              	.LBB706:
 3848              	.LBI706:
 3849              		.loc 2 542 20 view .LVU1198
 3850              	.LBE706:
 3851              	.LBE726:
 3852              	.LBE735:
 3853              	.LBE756:
 3854              	.LBE778:
 3855              		.loc 2 544 3 view .LVU1199
 3856              	.LBB779:
 3857              	.LBB757:
 3858              	.LBB736:
 3859              	.LBB727:
 3860              	.LBB718:
 3861              	.LBB707:
 3862              	.LBI707:
ARM GAS  /tmp/ccfraM8n.s 			page 69


 3863              		.loc 3 413 20 view .LVU1200
 3864              	.LBE707:
 3865              	.LBE718:
 3866              	.LBE727:
 3867              	.LBE736:
 3868              	.LBE757:
 3869              	.LBE779:
 3870              		.loc 3 415 31 view .LVU1201
 3871              		.loc 3 416 33 view .LVU1202
 3872              		.loc 3 417 3 view .LVU1203
 3873              	.LBB780:
 3874              	.LBB758:
 3875              	.LBB737:
 3876              	.LBB728:
 3877              	.LBB719:
 3878              	.LBB715:
 3879              	.LBB708:
 3880              	.LBI708:
 3881              		.loc 4 719 27 view .LVU1204
 3882              	.LBE708:
 3883              	.LBE715:
 3884              	.LBE719:
 3885              	.LBE728:
 3886              	.LBE737:
 3887              	.LBE758:
 3888              	.LBE780:
 3889              		.loc 4 721 3 view .LVU1205
 3890              	.LBB781:
 3891              	.LBB759:
 3892              	.LBB738:
 3893              	.LBB729:
 3894              	.LBB720:
 3895              	.LBB716:
 3896              	.LBB713:
 3897              	.LBB709:
 3898              	.LBI709:
 3899              		.loc 4 693 27 view .LVU1206
 3900              	.LBE709:
 3901              	.LBE713:
 3902              	.LBE716:
 3903              	.LBE720:
 3904              	.LBE729:
 3905              	.LBE738:
 3906              	.LBE759:
 3907              	.LBE781:
 3908              		.loc 4 696 3 view .LVU1207
 3909              	.LBB782:
 3910              	.LBB760:
 3911              	.LBB739:
 3912              	.LBB730:
 3913              	.LBB721:
 3914              	.LBB717:
 3915              	.LBB714:
 3916              	.LBB712:
 3917              	.LBB710:
 3918              	.LBI710:
 3919              		.loc 5 491 27 view .LVU1208
ARM GAS  /tmp/ccfraM8n.s 			page 70


 3920              	.LBB711:
 3921              		.loc 5 493 3 view .LVU1209
 3922 0b4e 0023     		movs	r3, #0
 3923              		.syntax unified
 3924              	@ 493 "../../../external/ChibiOS/os/common/ext/ARM/CMSIS/Core/Include/cmsis_gcc.h" 1
 3925 0b50 83F31188 		MSR basepri, r3
 3926              	@ 0 "" 2
 3927              	.LVL215:
 3928              		.loc 5 493 3 is_stmt 0 view .LVU1210
 3929              		.thumb
 3930              		.syntax unified
 3931 0b54 CAE7     		b	.L198
 3932              	.LVL216:
 3933              	.L320:
 3934              		.loc 5 493 3 view .LVU1211
 3935              	.LBE711:
 3936              	.LBE710:
 3937              	.LBE712:
 3938              	.LBE714:
 3939              	.LBE717:
 3940              	.LBE721:
 3941              	.LBE730:
 3942              	.LBE739:
 3943              		.loc 1 543 5 is_stmt 1 view .LVU1212
 3944 0b56 2846     		mov	r0, r5
 3945 0b58 FFF7FEFF 		bl	_usb_reset
 3946              	.LVL217:
 3947              		.loc 1 546 5 view .LVU1213
 3948              		.loc 1 546 5 is_stmt 0 view .LVU1214
 3949              	.LBE760:
 3950              	.LBE782:
 3951              		.loc 1 687 3 is_stmt 1 view .LVU1215
 3952              		.loc 1 687 3 view .LVU1216
 3953 0b5c 0748     		ldr	r0, .L345+4
 3954 0b5e FFF7FEFF 		bl	_trace_isr_leave
 3955              	.LVL218:
 3956              		.loc 1 687 3 view .LVU1217
 3957              		.loc 1 687 3 view .LVU1218
 3958              		.loc 1 687 3 view .LVU1219
 3959              		.loc 1 688 1 is_stmt 0 view .LVU1220
 3960 0b62 BDE8F84F 		pop	{r3, r4, r5, r6, r7, r8, r9, r10, fp, lr}
 3961              		.cfi_remember_state
 3962              		.cfi_restore 14
 3963              		.cfi_restore 11
 3964              		.cfi_restore 10
 3965              		.cfi_restore 9
 3966              		.cfi_restore 8
 3967              		.cfi_restore 7
 3968              		.cfi_restore 6
 3969              		.cfi_restore 5
 3970              		.cfi_restore 4
 3971              		.cfi_restore 3
 3972              		.cfi_def_cfa_offset 0
 3973              		.loc 1 687 3 view .LVU1221
 3974 0b66 FFF7FEBF 		b	_port_irq_epilogue
 3975              	.LVL219:
 3976              	.L333:
ARM GAS  /tmp/ccfraM8n.s 			page 71


 3977              		.cfi_restore_state
 3978              	.LBB783:
 3979              	.LBB761:
 3980              		.loc 1 636 7 is_stmt 1 view .LVU1222
 3981 0b6a 0820     		movs	r0, #8
 3982 0b6c FFF760FD 		bl	otg_epout_handler.constprop.9
 3983              	.LVL220:
 3984              		.loc 1 639 3 view .LVU1223
 3985              		.loc 1 639 6 is_stmt 0 view .LVU1224
 3986 0b70 6103     		lsls	r1, r4, #13
 3987 0b72 7FF50FAF 		bpl	.L177
 3988 0b76 F2E6     		b	.L344
 3989              	.L346:
 3990              		.align	2
 3991              	.L345:
 3992 0b78 00000000 		.word	USBD1
 3993 0b7c 40000000 		.word	.LANCHOR0+64
 3994              	.LVL221:
 3995              	.L342:
 3996              		.loc 1 666 7 is_stmt 1 view .LVU1225
 3997 0b80 0820     		movs	r0, #8
 3998 0b82 FFF70DFE 		bl	otg_epin_handler.constprop.10
 3999              	.LVL222:
 4000              		.loc 1 666 7 is_stmt 0 view .LVU1226
 4001              	.LBE761:
 4002              	.LBE783:
 4003              		.loc 1 687 3 is_stmt 1 view .LVU1227
 4004              		.loc 1 687 3 view .LVU1228
 4005 0b86 4448     		ldr	r0, .L347
 4006 0b88 FFF7FEFF 		bl	_trace_isr_leave
 4007              	.LVL223:
 4008              		.loc 1 687 3 view .LVU1229
 4009              		.loc 1 687 3 view .LVU1230
 4010              		.loc 1 687 3 view .LVU1231
 4011              		.loc 1 688 1 is_stmt 0 view .LVU1232
 4012 0b8c BDE8F84F 		pop	{r3, r4, r5, r6, r7, r8, r9, r10, fp, lr}
 4013              		.cfi_remember_state
 4014              		.cfi_restore 14
 4015              		.cfi_restore 11
 4016              		.cfi_restore 10
 4017              		.cfi_restore 9
 4018              		.cfi_restore 8
 4019              		.cfi_restore 7
 4020              		.cfi_restore 6
 4021              		.cfi_restore 5
 4022              		.cfi_restore 4
 4023              		.cfi_restore 3
 4024              		.cfi_def_cfa_offset 0
 4025              		.loc 1 687 3 view .LVU1233
 4026 0b90 FFF7FEBF 		b	_port_irq_epilogue
 4027              	.LVL224:
 4028              	.L202:
 4029              		.cfi_restore_state
 4030              	.LBB784:
 4031              	.LBB762:
 4032              	.LBB740:
 4033              	.LBB685:
ARM GAS  /tmp/ccfraM8n.s 			page 72


 4034              		.loc 1 303 5 is_stmt 1 view .LVU1234
 4035              		.loc 1 304 38 is_stmt 0 view .LVU1235
 4036 0b94 981C     		adds	r0, r3, #2
 4037 0b96 05EB8003 		add	r3, r5, r0, lsl #2
 4038              	.LVL225:
 4039              		.loc 1 304 42 view .LVU1236
 4040 0b9a 5B68     		ldr	r3, [r3, #4]
 4041 0b9c 9B69     		ldr	r3, [r3, #24]
 4042              		.loc 1 303 5 view .LVU1237
 4043 0b9e D3E9019A 		ldrd	r9, r10, [r3, #4]
 4044 0ba2 1E68     		ldr	r6, [r3]
 4045 0ba4 A6EB090E 		sub	lr, r6, r9
 4046              	.LVL226:
 4047              	.LBB683:
 4048              	.LBI683:
 4049              		.loc 1 259 13 is_stmt 1 view .LVU1238
 4050              	.LBB684:
 4051              		.loc 1 263 3 view .LVU1239
 4052              		.loc 1 264 3 view .LVU1240
 4053              		.loc 1 266 3 view .LVU1241
 4054              		.loc 1 266 9 is_stmt 0 view .LVU1242
 4055 0ba8 D2B1     		cbz	r2, .L206
 4056              		.loc 1 264 10 view .LVU1243
 4057 0baa 4646     		mov	r6, r8
 4058              		.loc 1 268 9 view .LVU1244
 4059 0bac 01F5805C 		add	ip, r1, #4096
 4060              	.LVL227:
 4061              		.loc 1 264 10 view .LVU1245
 4062 0bb0 0023     		movs	r3, #0
 4063 0bb2 D046     		mov	r8, r10
 4064              	.LVL228:
 4065              	.L209:
 4066              		.loc 1 267 5 is_stmt 1 view .LVU1246
 4067              		.loc 1 268 7 view .LVU1247
 4068              		.loc 1 270 5 view .LVU1248
 4069              		.loc 1 271 7 view .LVU1249
 4070              		.loc 1 267 8 is_stmt 0 view .LVU1250
 4071 0bb4 13F0030F 		tst	r3, #3
 4072              		.loc 1 271 11 view .LVU1251
 4073 0bb8 4146     		mov	r1, r8
 4074              		.loc 1 267 8 view .LVU1252
 4075 0bba 01D1     		bne	.L207
 4076              	.LVL229:
 4077              		.loc 1 268 9 view .LVU1253
 4078 0bbc DCF80060 		ldr	r6, [ip]
 4079              	.L207:
 4080              		.loc 1 270 8 view .LVU1254
 4081 0bc0 9E45     		cmp	lr, r3
 4082              		.loc 1 274 6 view .LVU1255
 4083 0bc2 03F10103 		add	r3, r3, #1
 4084              	.LVL230:
 4085              		.loc 1 270 8 view .LVU1256
 4086 0bc6 03D9     		bls	.L208
 4087              		.loc 1 271 16 view .LVU1257
 4088 0bc8 01F8016B 		strb	r6, [r1], #1
 4089              	.LVL231:
 4090              		.loc 1 272 7 is_stmt 1 view .LVU1258
ARM GAS  /tmp/ccfraM8n.s 			page 73


 4091              		.loc 1 272 9 is_stmt 0 view .LVU1259
 4092 0bcc 360A     		lsrs	r6, r6, #8
 4093              	.LVL232:
 4094              		.loc 1 271 11 view .LVU1260
 4095 0bce 8846     		mov	r8, r1
 4096              	.LVL233:
 4097              	.L208:
 4098              		.loc 1 274 5 is_stmt 1 view .LVU1261
 4099              		.loc 1 266 9 is_stmt 0 view .LVU1262
 4100 0bd0 9A42     		cmp	r2, r3
 4101 0bd2 EFD1     		bne	.L209
 4102 0bd4 05EB8005 		add	r5, r5, r0, lsl #2
 4103 0bd8 6B68     		ldr	r3, [r5, #4]
 4104              	.LVL234:
 4105              		.loc 1 266 9 view .LVU1263
 4106 0bda 9B69     		ldr	r3, [r3, #24]
 4107 0bdc D3E9019A 		ldrd	r9, r10, [r3, #4]
 4108              	.LVL235:
 4109              	.L206:
 4110              		.loc 1 266 9 view .LVU1264
 4111              	.LBE684:
 4112              	.LBE683:
 4113              		.loc 1 308 5 is_stmt 1 view .LVU1265
 4114              		.loc 1 308 37 is_stmt 0 view .LVU1266
 4115 0be0 0AEB0206 		add	r6, r10, r2
 4116              		.loc 1 309 37 view .LVU1267
 4117 0be4 4A44     		add	r2, r2, r9
 4118              	.LVL236:
 4119              		.loc 1 309 37 view .LVU1268
 4120 0be6 C3E90126 		strd	r2, r6, [r3, #4]
 4121              		.loc 1 310 5 is_stmt 1 view .LVU1269
 4122 0bea 97E6     		b	.L201
 4123              	.LVL237:
 4124              	.L334:
 4125              		.loc 1 310 5 is_stmt 0 view .LVU1270
 4126              	.LBE685:
 4127              	.LBE740:
 4128              		.loc 1 641 7 is_stmt 1 view .LVU1271
 4129 0bec 0020     		movs	r0, #0
 4130 0bee FFF7D7FD 		bl	otg_epin_handler.constprop.10
 4131              	.LVL238:
 4132              		.loc 1 642 5 view .LVU1272
 4133              		.loc 1 642 8 is_stmt 0 view .LVU1273
 4134 0bf2 AB07     		lsls	r3, r5, #30
 4135 0bf4 7FF5B9AE 		bpl	.L223
 4136              	.L335:
 4137              		.loc 1 643 7 is_stmt 1 view .LVU1274
 4138 0bf8 0120     		movs	r0, #1
 4139 0bfa FFF7D1FD 		bl	otg_epin_handler.constprop.10
 4140              	.LVL239:
 4141              		.loc 1 644 5 view .LVU1275
 4142              		.loc 1 644 8 is_stmt 0 view .LVU1276
 4143 0bfe 6F07     		lsls	r7, r5, #29
 4144 0c00 7FF5B6AE 		bpl	.L224
 4145              	.L336:
 4146              		.loc 1 645 7 is_stmt 1 view .LVU1277
 4147 0c04 0220     		movs	r0, #2
ARM GAS  /tmp/ccfraM8n.s 			page 74


 4148 0c06 FFF7CBFD 		bl	otg_epin_handler.constprop.10
 4149              	.LVL240:
 4150              		.loc 1 646 5 view .LVU1278
 4151              		.loc 1 646 8 is_stmt 0 view .LVU1279
 4152 0c0a 2E07     		lsls	r6, r5, #28
 4153 0c0c 7FF5B3AE 		bpl	.L225
 4154              	.L337:
 4155              		.loc 1 647 7 is_stmt 1 view .LVU1280
 4156 0c10 0320     		movs	r0, #3
 4157 0c12 FFF7C5FD 		bl	otg_epin_handler.constprop.10
 4158              	.LVL241:
 4159              		.loc 1 649 5 view .LVU1281
 4160              		.loc 1 649 8 is_stmt 0 view .LVU1282
 4161 0c16 EC06     		lsls	r4, r5, #27
 4162              	.LVL242:
 4163              		.loc 1 649 8 view .LVU1283
 4164 0c18 7FF5B0AE 		bpl	.L226
 4165              	.L338:
 4166              		.loc 1 650 7 is_stmt 1 view .LVU1284
 4167 0c1c 0420     		movs	r0, #4
 4168 0c1e FFF7BFFD 		bl	otg_epin_handler.constprop.10
 4169              	.LVL243:
 4170              		.loc 1 653 5 view .LVU1285
 4171              		.loc 1 653 8 is_stmt 0 view .LVU1286
 4172 0c22 A806     		lsls	r0, r5, #26
 4173 0c24 7FF5ADAE 		bpl	.L227
 4174              	.L339:
 4175              		.loc 1 654 7 is_stmt 1 view .LVU1287
 4176 0c28 0520     		movs	r0, #5
 4177 0c2a FFF7B9FD 		bl	otg_epin_handler.constprop.10
 4178              	.LVL244:
 4179              		.loc 1 657 5 view .LVU1288
 4180              		.loc 1 657 8 is_stmt 0 view .LVU1289
 4181 0c2e 6906     		lsls	r1, r5, #25
 4182 0c30 7FF5AAAE 		bpl	.L228
 4183              	.L340:
 4184              		.loc 1 658 7 is_stmt 1 view .LVU1290
 4185 0c34 0620     		movs	r0, #6
 4186 0c36 FFF7B3FD 		bl	otg_epin_handler.constprop.10
 4187              	.LVL245:
 4188              		.loc 1 661 5 view .LVU1291
 4189              		.loc 1 661 8 is_stmt 0 view .LVU1292
 4190 0c3a 2A06     		lsls	r2, r5, #24
 4191 0c3c 7FF5A7AE 		bpl	.L229
 4192              	.L341:
 4193              		.loc 1 662 7 is_stmt 1 view .LVU1293
 4194 0c40 0720     		movs	r0, #7
 4195 0c42 FFF7ADFD 		bl	otg_epin_handler.constprop.10
 4196              	.LVL246:
 4197 0c46 A2E6     		b	.L229
 4198              	.LVL247:
 4199              	.L328:
 4200              		.loc 1 617 7 view .LVU1294
 4201 0c48 0320     		movs	r0, #3
 4202 0c4a FFF7F1FC 		bl	otg_epout_handler.constprop.9
 4203              	.LVL248:
 4204              		.loc 1 619 5 view .LVU1295
ARM GAS  /tmp/ccfraM8n.s 			page 75


 4205              		.loc 1 619 8 is_stmt 0 view .LVU1296
 4206 0c4e EA02     		lsls	r2, r5, #11
 4207 0c50 7FF577AE 		bpl	.L216
 4208              	.L329:
 4209              		.loc 1 620 7 is_stmt 1 view .LVU1297
 4210 0c54 0420     		movs	r0, #4
 4211 0c56 FFF7EBFC 		bl	otg_epout_handler.constprop.9
 4212              	.LVL249:
 4213              		.loc 1 623 5 view .LVU1298
 4214              		.loc 1 623 8 is_stmt 0 view .LVU1299
 4215 0c5a AB02     		lsls	r3, r5, #10
 4216 0c5c 7FF574AE 		bpl	.L217
 4217              	.L330:
 4218              		.loc 1 624 7 is_stmt 1 view .LVU1300
 4219 0c60 0520     		movs	r0, #5
 4220 0c62 FFF7E5FC 		bl	otg_epout_handler.constprop.9
 4221              	.LVL250:
 4222              		.loc 1 627 5 view .LVU1301
 4223              		.loc 1 627 8 is_stmt 0 view .LVU1302
 4224 0c66 6F02     		lsls	r7, r5, #9
 4225 0c68 7FF571AE 		bpl	.L218
 4226              	.L331:
 4227              		.loc 1 628 7 is_stmt 1 view .LVU1303
 4228 0c6c 0620     		movs	r0, #6
 4229 0c6e FFF7DFFC 		bl	otg_epout_handler.constprop.9
 4230              	.LVL251:
 4231              		.loc 1 631 5 view .LVU1304
 4232              		.loc 1 631 8 is_stmt 0 view .LVU1305
 4233 0c72 2E02     		lsls	r6, r5, #8
 4234 0c74 7FF56EAE 		bpl	.L219
 4235              	.L332:
 4236              		.loc 1 632 7 is_stmt 1 view .LVU1306
 4237 0c78 0720     		movs	r0, #7
 4238 0c7a FFF7D9FC 		bl	otg_epout_handler.constprop.9
 4239              	.LVL252:
 4240 0c7e 69E6     		b	.L219
 4241              	.L327:
 4242              		.loc 1 615 7 view .LVU1307
 4243 0c80 0220     		movs	r0, #2
 4244 0c82 FFF7D5FC 		bl	otg_epout_handler.constprop.9
 4245              	.LVL253:
 4246 0c86 56E6     		b	.L214
 4247              	.L326:
 4248              		.loc 1 613 7 view .LVU1308
 4249 0c88 0120     		movs	r0, #1
 4250 0c8a FFF7D1FC 		bl	otg_epout_handler.constprop.9
 4251              	.LVL254:
 4252 0c8e 4FE6     		b	.L213
 4253              	.L325:
 4254              		.loc 1 611 7 view .LVU1309
 4255 0c90 0020     		movs	r0, #0
 4256 0c92 FFF7CDFC 		bl	otg_epout_handler.constprop.9
 4257              	.LVL255:
 4258 0c96 48E6     		b	.L212
 4259              	.L348:
 4260              		.align	2
 4261              	.L347:
ARM GAS  /tmp/ccfraM8n.s 			page 76


 4262 0c98 40000000 		.word	.LANCHOR0+64
 4263              	.LBE762:
 4264              	.LBE784:
 4265              		.cfi_endproc
 4266              	.LFE377:
 4267              		.size	Vector1D4, .-Vector1D4
 4268              		.align	1
 4269 0c9c AFF30080 		.p2align 4,,15
 4270              		.global	usb_lld_stall_out
 4271              		.syntax unified
 4272              		.thumb
 4273              		.thumb_func
 4274              		.fpu fpv4-sp-d16
 4275              		.type	usb_lld_stall_out, %function
 4276              	usb_lld_stall_out:
 4277              	.LVL256:
 4278              	.LFB390:
 4279              		.loc 1 1219 53 view -0
 4280              		.cfi_startproc
 4281              		@ args = 0, pretend = 0, frame = 0
 4282              		@ frame_needed = 0, uses_anonymous_args = 0
 4283              		@ link register save eliminated.
 4284              		.loc 1 1221 3 view .LVU1311
 4285 0ca0 D0F89030 		ldr	r3, [r0, #144]
 4286 0ca4 03EB4111 		add	r1, r3, r1, lsl #5
 4287              	.LVL257:
 4288              		.loc 1 1221 29 is_stmt 0 view .LVU1312
 4289 0ca8 D1F8003B 		ldr	r3, [r1, #2816]
 4290 0cac 43F40013 		orr	r3, r3, #2097152
 4291 0cb0 C1F8003B 		str	r3, [r1, #2816]
 4292              		.loc 1 1222 1 view .LVU1313
 4293 0cb4 7047     		bx	lr
 4294              		.cfi_endproc
 4295              	.LFE390:
 4296              		.size	usb_lld_stall_out, .-usb_lld_stall_out
 4297              		.align	1
 4298 0cb6 00BFAFF3 		.p2align 4,,15
 4298      0080AFF3 
 4298      0080
 4299              		.global	usb_lld_stall_in
 4300              		.syntax unified
 4301              		.thumb
 4302              		.thumb_func
 4303              		.fpu fpv4-sp-d16
 4304              		.type	usb_lld_stall_in, %function
 4305              	usb_lld_stall_in:
 4306              	.LVL258:
 4307              	.LFB391:
 4308              		.loc 1 1232 52 is_stmt 1 view -0
 4309              		.cfi_startproc
 4310              		@ args = 0, pretend = 0, frame = 0
 4311              		@ frame_needed = 0, uses_anonymous_args = 0
 4312              		@ link register save eliminated.
 4313              		.loc 1 1234 3 view .LVU1315
 4314 0cc0 D0F89030 		ldr	r3, [r0, #144]
 4315 0cc4 03EB4111 		add	r1, r3, r1, lsl #5
 4316              	.LVL259:
ARM GAS  /tmp/ccfraM8n.s 			page 77


 4317              		.loc 1 1234 29 is_stmt 0 view .LVU1316
 4318 0cc8 D1F80039 		ldr	r3, [r1, #2304]
 4319 0ccc 43F40013 		orr	r3, r3, #2097152
 4320 0cd0 C1F80039 		str	r3, [r1, #2304]
 4321              		.loc 1 1235 1 view .LVU1317
 4322 0cd4 7047     		bx	lr
 4323              		.cfi_endproc
 4324              	.LFE391:
 4325              		.size	usb_lld_stall_in, .-usb_lld_stall_in
 4326              		.align	1
 4327 0cd6 00BFAFF3 		.p2align 4,,15
 4327      0080AFF3 
 4327      0080
 4328              		.global	usb_lld_clear_out
 4329              		.syntax unified
 4330              		.thumb
 4331              		.thumb_func
 4332              		.fpu fpv4-sp-d16
 4333              		.type	usb_lld_clear_out, %function
 4334              	usb_lld_clear_out:
 4335              	.LVL260:
 4336              	.LFB392:
 4337              		.loc 1 1245 53 is_stmt 1 view -0
 4338              		.cfi_startproc
 4339              		@ args = 0, pretend = 0, frame = 0
 4340              		@ frame_needed = 0, uses_anonymous_args = 0
 4341              		@ link register save eliminated.
 4342              		.loc 1 1247 3 view .LVU1319
 4343 0ce0 D0F89030 		ldr	r3, [r0, #144]
 4344 0ce4 03EB4111 		add	r1, r3, r1, lsl #5
 4345              	.LVL261:
 4346              		.loc 1 1247 29 is_stmt 0 view .LVU1320
 4347 0ce8 D1F8003B 		ldr	r3, [r1, #2816]
 4348 0cec 23F40013 		bic	r3, r3, #2097152
 4349 0cf0 C1F8003B 		str	r3, [r1, #2816]
 4350              		.loc 1 1248 1 view .LVU1321
 4351 0cf4 7047     		bx	lr
 4352              		.cfi_endproc
 4353              	.LFE392:
 4354              		.size	usb_lld_clear_out, .-usb_lld_clear_out
 4355              		.align	1
 4356 0cf6 00BFAFF3 		.p2align 4,,15
 4356      0080AFF3 
 4356      0080
 4357              		.global	usb_lld_clear_in
 4358              		.syntax unified
 4359              		.thumb
 4360              		.thumb_func
 4361              		.fpu fpv4-sp-d16
 4362              		.type	usb_lld_clear_in, %function
 4363              	usb_lld_clear_in:
 4364              	.LVL262:
 4365              	.LFB393:
 4366              		.loc 1 1258 52 is_stmt 1 view -0
 4367              		.cfi_startproc
 4368              		@ args = 0, pretend = 0, frame = 0
 4369              		@ frame_needed = 0, uses_anonymous_args = 0
ARM GAS  /tmp/ccfraM8n.s 			page 78


 4370              		@ link register save eliminated.
 4371              		.loc 1 1260 3 view .LVU1323
 4372 0d00 D0F89030 		ldr	r3, [r0, #144]
 4373 0d04 03EB4111 		add	r1, r3, r1, lsl #5
 4374              	.LVL263:
 4375              		.loc 1 1260 29 is_stmt 0 view .LVU1324
 4376 0d08 D1F80039 		ldr	r3, [r1, #2304]
 4377 0d0c 23F40013 		bic	r3, r3, #2097152
 4378 0d10 C1F80039 		str	r3, [r1, #2304]
 4379              		.loc 1 1261 1 view .LVU1325
 4380 0d14 7047     		bx	lr
 4381              		.cfi_endproc
 4382              	.LFE393:
 4383              		.size	usb_lld_clear_in, .-usb_lld_clear_in
 4384              		.comm	USBD1,156,4
 4385              		.section	.rodata
 4386              		.align	2
 4387              		.set	.LANCHOR0,. + 0
 4388              		.type	fsparams, %object
 4389              		.size	fsparams, 12
 4390              	fsparams:
 4391 0000 80000000 		.word	128
 4392 0004 40010000 		.word	320
 4393 0008 08000000 		.word	8
 4394              		.type	ep0config, %object
 4395              		.size	ep0config, 36
 4396              	ep0config:
 4397 000c 00000000 		.word	0
 4398 0010 00000000 		.word	_usb_ep0setup
 4399 0014 00000000 		.word	_usb_ep0in
 4400 0018 00000000 		.word	_usb_ep0out
 4401 001c 4000     		.short	64
 4402 001e 4000     		.short	64
 4403 0020 08000000 		.word	ep0_state
 4404 0024 08000000 		.word	ep0_state
 4405 0028 0100     		.short	1
 4406 002a 0000     		.space	2
 4407 002c 00000000 		.word	ep0setup_buffer
 4408              		.type	CSWTCH.15, %object
 4409              		.size	CSWTCH.15, 16
 4410              	CSWTCH.15:
 4411 0030 00800010 		.word	268468224
 4412 0034 00800410 		.word	268730368
 4413 0038 00800810 		.word	268992512
 4414 003c 00800C10 		.word	269254656
 4415              		.type	__func__.12282, %object
 4416              		.size	__func__.12282, 10
 4417              	__func__.12282:
 4418 0040 56656374 		.ascii	"Vector1D4\000"
 4418      6F723144 
 4418      3400
 4419              		.bss
 4420              		.align	2
 4421              		.type	ep0setup_buffer, %object
 4422              		.size	ep0setup_buffer, 8
 4423              	ep0setup_buffer:
 4424 0000 00000000 		.space	8
ARM GAS  /tmp/ccfraM8n.s 			page 79


 4424      00000000 
 4425              		.type	ep0_state, %object
 4426              		.size	ep0_state, 20
 4427              	ep0_state:
 4428 0008 00000000 		.space	20
 4428      00000000 
 4428      00000000 
 4428      00000000 
 4428      00000000 
 4429              		.text
 4430              	.Letext0:
 4431              		.file 6 "/home/nicolas/arm/gcc-arm-none-eabi-8-2019-q3-update/lib/gcc/arm-none-eabi/8.3.1/include/
 4432              		.file 7 "/home/nicolas/arm/gcc-arm-none-eabi-8-2019-q3-update/arm-none-eabi/include/machine/_defau
 4433              		.file 8 "/home/nicolas/arm/gcc-arm-none-eabi-8-2019-q3-update/arm-none-eabi/include/sys/_types.h"
 4434              		.file 9 "/home/nicolas/arm/gcc-arm-none-eabi-8-2019-q3-update/arm-none-eabi/include/sys/reent.h"
 4435              		.file 10 "/home/nicolas/arm/gcc-arm-none-eabi-8-2019-q3-update/arm-none-eabi/include/sys/lock.h"
 4436              		.file 11 "/home/nicolas/arm/gcc-arm-none-eabi-8-2019-q3-update/arm-none-eabi/include/sys/_stdint.h
 4437              		.file 12 "/home/nicolas/arm/gcc-arm-none-eabi-8-2019-q3-update/arm-none-eabi/include/stdint.h"
 4438              		.file 13 "../../../external/ChibiOS/os/common/ports/ARMCMx/compilers/GCC/chtypes.h"
 4439              		.file 14 "../../../external/ChibiOS/os/rt/include/chsystypes.h"
 4440              		.file 15 "../../../external/ChibiOS/os/rt/include/chschd.h"
 4441              		.file 16 "../../../external/ChibiOS/os/rt/include/chtime.h"
 4442              		.file 17 "../../../external/ChibiOS/os/common/ext/ARM/CMSIS/Core/Include/core_cm7.h"
 4443              		.file 18 "../../../external/ChibiOS/os/common/ext/ST/STM32H7xx/system_stm32h7xx.h"
 4444              		.file 19 "../../../external/ChibiOS/os/common/ext/ST/STM32H7xx/stm32h753xx.h"
 4445              		.file 20 "../../../external/ChibiOS/os/common/ports/ARMCMx/chcore.h"
 4446              		.file 21 "../../../external/ChibiOS/os/rt/include/chtrace.h"
 4447              		.file 22 "../../../external/ChibiOS/os/rt/include/chtm.h"
 4448              		.file 23 "../../../external/ChibiOS/os/rt/include/chsem.h"
 4449              		.file 24 "../../../external/ChibiOS/os/rt/include/chmtx.h"
 4450              		.file 25 "../../../external/ChibiOS/os/rt/include/chregistry.h"
 4451              		.file 26 "../../../external/ChibiOS/os/rt/include/chevents.h"
 4452              		.file 27 "../../../external/ChibiOS/os/oslib/include/chmemcore.h"
 4453              		.file 28 "../../../external/ChibiOS/os/oslib/include/chmempools.h"
 4454              		.file 29 "../../../external/ChibiOS/os/oslib/include/chfactory.h"
 4455              		.file 30 "../../../external/ChibiOS/os/hal/ports/STM32/LLD/DMAv2/stm32_dma.h"
 4456              		.file 31 "../../../external/ChibiOS/os/hal/ports/STM32/LLD/BDMAv1/stm32_bdma.h"
 4457              		.file 32 "../../../external/ChibiOS/os/hal/ports/STM32/LLD/TIMv1/stm32_tim.h"
 4458              		.file 33 "../../../external/ChibiOS/os/hal/include/hal_ioblock.h"
 4459              		.file 34 "../../../external/ChibiOS/os/hal/include/hal_queues.h"
 4460              		.file 35 "../../../external/ChibiOS/os/hal/ports/STM32/LLD/GPIOv2/stm32_gpio.h"
 4461              		.file 36 "../../../external/ChibiOS/os/hal/ports/STM32/LLD/GPIOv2/hal_pal_lld.h"
 4462              		.file 37 "../../../external/ChibiOS/os/hal/include/hal_adc.h"
 4463              		.file 38 "../../../external/ChibiOS/os/hal/ports/STM32/LLD/ADCv4/hal_adc_lld.h"
 4464              		.file 39 "../../../external/ChibiOS/os/hal/include/hal_i2c.h"
 4465              		.file 40 "../../../external/ChibiOS/os/hal/ports/STM32/LLD/I2Cv3/hal_i2c_lld.h"
 4466              		.file 41 "../../../external/ChibiOS/os/hal/include/hal_pwm.h"
 4467              		.file 42 "../../../external/ChibiOS/os/hal/ports/STM32/LLD/TIMv1/hal_pwm_lld.h"
 4468              		.file 43 "../../../external/ChibiOS/os/hal/include/hal_serial.h"
 4469              		.file 44 "../../../external/ChibiOS/os/hal/ports/STM32/LLD/USARTv2/hal_serial_lld.h"
 4470              		.file 45 "../../../external/ChibiOS/os/hal/include/hal_sdc.h"
 4471              		.file 46 "../../../external/ChibiOS/os/hal/ports/STM32/LLD/SDMMCv2/hal_sdc_lld.h"
 4472              		.file 47 "../../../external/ChibiOS/os/hal/include/hal_spi.h"
 4473              		.file 48 "../../../external/ChibiOS/os/hal/ports/STM32/LLD/SPIv3/hal_spi_lld.h"
 4474              		.file 49 "../../../external/ChibiOS/os/hal/include/hal_trng.h"
 4475              		.file 50 "../../../external/ChibiOS/os/hal/ports/STM32/LLD/RNGv1/hal_trng_lld.h"
 4476              		.file 51 "../../../external/ChibiOS/os/hal/include/hal_usb.h"
ARM GAS  /tmp/ccfraM8n.s 			page 80


 4477              		.file 52 "../../../external/ChibiOS/os/hal/ports/STM32/LLD/OTGv1/hal_usb_lld.h"
 4478              		.file 53 "../../../external/ChibiOS/os/hal/ports/STM32/LLD/OTGv1/stm32_otg.h"
 4479              		.file 54 "../../../external/ChibiOS-Contrib/os/hal/include/hal_fsmc.h"
 4480              		.file 55 "../../../external/ChibiOS-Contrib/os/hal/include/hal_sdram.h"
 4481              		.file 56 "../../../external/ChibiOS/os/hal/ports/common/ARMCMx/nvic.h"
 4482              		.file 57 "../../../external/ChibiOS/os/rt/include/chthreads.h"
 4483 0d16 00BF     		.section	.debug_info,"",%progbits
 4484              	.Ldebug_info0:
 4485 0000 4C5D0000 		.4byte	0x5d4c
 4486 0004 0400     		.2byte	0x4
 4487 0006 00000000 		.4byte	.Ldebug_abbrev0
 4488 000a 04       		.byte	0x4
 4489 000b 01       		.uleb128 0x1
 4490 000c AC210000 		.4byte	.LASF888
 4491 0010 0C       		.byte	0xc
 4492 0011 FB0C0000 		.4byte	.LASF889
 4493 0015 5A000000 		.4byte	.LASF890
 4494 0019 00000000 		.4byte	.Ltext0
 4495 001d 160D0000 		.4byte	.Letext0-.Ltext0
 4496 0021 00000000 		.4byte	.Ldebug_line0
 4497 0025 02       		.uleb128 0x2
 4498 0026 04       		.byte	0x4
 4499 0027 07       		.byte	0x7
 4500 0028 0D230000 		.4byte	.LASF0
 4501 002c 03       		.uleb128 0x3
 4502 002d 04       		.byte	0x4
 4503 002e 05       		.byte	0x5
 4504 002f 696E7400 		.ascii	"int\000"
 4505 0033 04       		.uleb128 0x4
 4506 0034 260C0000 		.4byte	.LASF3
 4507 0038 06       		.byte	0x6
 4508 0039 D8       		.byte	0xd8
 4509 003a 17       		.byte	0x17
 4510 003b 25000000 		.4byte	0x25
 4511 003f 05       		.uleb128 0x5
 4512 0040 33000000 		.4byte	0x33
 4513 0044 02       		.uleb128 0x2
 4514 0045 08       		.byte	0x8
 4515 0046 05       		.byte	0x5
 4516 0047 1B200000 		.4byte	.LASF1
 4517 004b 02       		.uleb128 0x2
 4518 004c 08       		.byte	0x8
 4519 004d 04       		.byte	0x4
 4520 004e C5170000 		.4byte	.LASF2
 4521 0052 06       		.uleb128 0x6
 4522 0053 640E0000 		.4byte	.LASF4
 4523 0057 06       		.byte	0x6
 4524 0058 6501     		.2byte	0x165
 4525 005a 17       		.byte	0x17
 4526 005b 25000000 		.4byte	0x25
 4527 005f 02       		.uleb128 0x2
 4528 0060 01       		.byte	0x1
 4529 0061 06       		.byte	0x6
 4530 0062 F1130000 		.4byte	.LASF5
 4531 0066 04       		.uleb128 0x4
 4532 0067 37010000 		.4byte	.LASF6
 4533 006b 07       		.byte	0x7
ARM GAS  /tmp/ccfraM8n.s 			page 81


 4534 006c 2B       		.byte	0x2b
 4535 006d 18       		.byte	0x18
 4536 006e 72000000 		.4byte	0x72
 4537 0072 02       		.uleb128 0x2
 4538 0073 01       		.byte	0x1
 4539 0074 08       		.byte	0x8
 4540 0075 D5080000 		.4byte	.LASF7
 4541 0079 02       		.uleb128 0x2
 4542 007a 02       		.byte	0x2
 4543 007b 05       		.byte	0x5
 4544 007c 76230000 		.4byte	.LASF8
 4545 0080 04       		.uleb128 0x4
 4546 0081 90070000 		.4byte	.LASF9
 4547 0085 07       		.byte	0x7
 4548 0086 39       		.byte	0x39
 4549 0087 19       		.byte	0x19
 4550 0088 8C000000 		.4byte	0x8c
 4551 008c 02       		.uleb128 0x2
 4552 008d 02       		.byte	0x2
 4553 008e 07       		.byte	0x7
 4554 008f DE130000 		.4byte	.LASF10
 4555 0093 04       		.uleb128 0x4
 4556 0094 DB1B0000 		.4byte	.LASF11
 4557 0098 07       		.byte	0x7
 4558 0099 4D       		.byte	0x4d
 4559 009a 18       		.byte	0x18
 4560 009b 9F000000 		.4byte	0x9f
 4561 009f 02       		.uleb128 0x2
 4562 00a0 04       		.byte	0x4
 4563 00a1 05       		.byte	0x5
 4564 00a2 4F160000 		.4byte	.LASF12
 4565 00a6 04       		.uleb128 0x4
 4566 00a7 EE1B0000 		.4byte	.LASF13
 4567 00ab 07       		.byte	0x7
 4568 00ac 4F       		.byte	0x4f
 4569 00ad 19       		.byte	0x19
 4570 00ae B2000000 		.4byte	0xb2
 4571 00b2 02       		.uleb128 0x2
 4572 00b3 04       		.byte	0x4
 4573 00b4 07       		.byte	0x7
 4574 00b5 08180000 		.4byte	.LASF14
 4575 00b9 04       		.uleb128 0x4
 4576 00ba 8F0F0000 		.4byte	.LASF15
 4577 00be 07       		.byte	0x7
 4578 00bf 69       		.byte	0x69
 4579 00c0 19       		.byte	0x19
 4580 00c1 C5000000 		.4byte	0xc5
 4581 00c5 02       		.uleb128 0x2
 4582 00c6 08       		.byte	0x8
 4583 00c7 07       		.byte	0x7
 4584 00c8 841D0000 		.4byte	.LASF16
 4585 00cc 04       		.uleb128 0x4
 4586 00cd F70B0000 		.4byte	.LASF17
 4587 00d1 08       		.byte	0x8
 4588 00d2 2E       		.byte	0x2e
 4589 00d3 0E       		.byte	0xe
 4590 00d4 9F000000 		.4byte	0x9f
ARM GAS  /tmp/ccfraM8n.s 			page 82


 4591 00d8 04       		.uleb128 0x4
 4592 00d9 CD1A0000 		.4byte	.LASF18
 4593 00dd 08       		.byte	0x8
 4594 00de 74       		.byte	0x74
 4595 00df 0E       		.byte	0xe
 4596 00e0 9F000000 		.4byte	0x9f
 4597 00e4 07       		.uleb128 0x7
 4598 00e5 04       		.byte	0x4
 4599 00e6 08       		.byte	0x8
 4600 00e7 A5       		.byte	0xa5
 4601 00e8 03       		.byte	0x3
 4602 00e9 06010000 		.4byte	0x106
 4603 00ed 08       		.uleb128 0x8
 4604 00ee 83150000 		.4byte	.LASF19
 4605 00f2 08       		.byte	0x8
 4606 00f3 A7       		.byte	0xa7
 4607 00f4 0C       		.byte	0xc
 4608 00f5 52000000 		.4byte	0x52
 4609 00f9 08       		.uleb128 0x8
 4610 00fa E20D0000 		.4byte	.LASF20
 4611 00fe 08       		.byte	0x8
 4612 00ff A8       		.byte	0xa8
 4613 0100 13       		.byte	0x13
 4614 0101 06010000 		.4byte	0x106
 4615 0105 00       		.byte	0
 4616 0106 09       		.uleb128 0x9
 4617 0107 72000000 		.4byte	0x72
 4618 010b 16010000 		.4byte	0x116
 4619 010f 0A       		.uleb128 0xa
 4620 0110 25000000 		.4byte	0x25
 4621 0114 03       		.byte	0x3
 4622 0115 00       		.byte	0
 4623 0116 0B       		.uleb128 0xb
 4624 0117 08       		.byte	0x8
 4625 0118 08       		.byte	0x8
 4626 0119 A2       		.byte	0xa2
 4627 011a 09       		.byte	0x9
 4628 011b 3A010000 		.4byte	0x13a
 4629 011f 0C       		.uleb128 0xc
 4630 0120 510C0000 		.4byte	.LASF21
 4631 0124 08       		.byte	0x8
 4632 0125 A4       		.byte	0xa4
 4633 0126 07       		.byte	0x7
 4634 0127 2C000000 		.4byte	0x2c
 4635 012b 00       		.byte	0
 4636 012c 0C       		.uleb128 0xc
 4637 012d 201C0000 		.4byte	.LASF22
 4638 0131 08       		.byte	0x8
 4639 0132 A9       		.byte	0xa9
 4640 0133 05       		.byte	0x5
 4641 0134 E4000000 		.4byte	0xe4
 4642 0138 04       		.byte	0x4
 4643 0139 00       		.byte	0
 4644 013a 04       		.uleb128 0x4
 4645 013b 521B0000 		.4byte	.LASF23
 4646 013f 08       		.byte	0x8
 4647 0140 AA       		.byte	0xaa
ARM GAS  /tmp/ccfraM8n.s 			page 83


 4648 0141 03       		.byte	0x3
 4649 0142 16010000 		.4byte	0x116
 4650 0146 0D       		.uleb128 0xd
 4651 0147 04       		.byte	0x4
 4652 0148 04       		.uleb128 0x4
 4653 0149 65120000 		.4byte	.LASF24
 4654 014d 09       		.byte	0x9
 4655 014e 16       		.byte	0x16
 4656 014f 19       		.byte	0x19
 4657 0150 B2000000 		.4byte	0xb2
 4658 0154 04       		.uleb128 0x4
 4659 0155 5A070000 		.4byte	.LASF25
 4660 0159 0A       		.byte	0xa
 4661 015a 22       		.byte	0x22
 4662 015b 19       		.byte	0x19
 4663 015c 60010000 		.4byte	0x160
 4664 0160 0E       		.uleb128 0xe
 4665 0161 04       		.byte	0x4
 4666 0162 66010000 		.4byte	0x166
 4667 0166 0F       		.uleb128 0xf
 4668 0167 C9050000 		.4byte	.LASF121
 4669 016b 04       		.uleb128 0x4
 4670 016c 691F0000 		.4byte	.LASF26
 4671 0170 09       		.byte	0x9
 4672 0171 23       		.byte	0x23
 4673 0172 1B       		.byte	0x1b
 4674 0173 54010000 		.4byte	0x154
 4675 0177 10       		.uleb128 0x10
 4676 0178 04190000 		.4byte	.LASF31
 4677 017c 18       		.byte	0x18
 4678 017d 09       		.byte	0x9
 4679 017e 34       		.byte	0x34
 4680 017f 08       		.byte	0x8
 4681 0180 D1010000 		.4byte	0x1d1
 4682 0184 0C       		.uleb128 0xc
 4683 0185 BF0F0000 		.4byte	.LASF27
 4684 0189 09       		.byte	0x9
 4685 018a 36       		.byte	0x36
 4686 018b 13       		.byte	0x13
 4687 018c D1010000 		.4byte	0x1d1
 4688 0190 00       		.byte	0
 4689 0191 11       		.uleb128 0x11
 4690 0192 5F6B00   		.ascii	"_k\000"
 4691 0195 09       		.byte	0x9
 4692 0196 37       		.byte	0x37
 4693 0197 07       		.byte	0x7
 4694 0198 2C000000 		.4byte	0x2c
 4695 019c 04       		.byte	0x4
 4696 019d 0C       		.uleb128 0xc
 4697 019e 80170000 		.4byte	.LASF28
 4698 01a2 09       		.byte	0x9
 4699 01a3 37       		.byte	0x37
 4700 01a4 0B       		.byte	0xb
 4701 01a5 2C000000 		.4byte	0x2c
 4702 01a9 08       		.byte	0x8
 4703 01aa 0C       		.uleb128 0xc
 4704 01ab B3220000 		.4byte	.LASF29
ARM GAS  /tmp/ccfraM8n.s 			page 84


 4705 01af 09       		.byte	0x9
 4706 01b0 37       		.byte	0x37
 4707 01b1 14       		.byte	0x14
 4708 01b2 2C000000 		.4byte	0x2c
 4709 01b6 0C       		.byte	0xc
 4710 01b7 0C       		.uleb128 0xc
 4711 01b8 54090000 		.4byte	.LASF30
 4712 01bc 09       		.byte	0x9
 4713 01bd 37       		.byte	0x37
 4714 01be 1B       		.byte	0x1b
 4715 01bf 2C000000 		.4byte	0x2c
 4716 01c3 10       		.byte	0x10
 4717 01c4 11       		.uleb128 0x11
 4718 01c5 5F7800   		.ascii	"_x\000"
 4719 01c8 09       		.byte	0x9
 4720 01c9 38       		.byte	0x38
 4721 01ca 0B       		.byte	0xb
 4722 01cb D7010000 		.4byte	0x1d7
 4723 01cf 14       		.byte	0x14
 4724 01d0 00       		.byte	0
 4725 01d1 0E       		.uleb128 0xe
 4726 01d2 04       		.byte	0x4
 4727 01d3 77010000 		.4byte	0x177
 4728 01d7 09       		.uleb128 0x9
 4729 01d8 48010000 		.4byte	0x148
 4730 01dc E7010000 		.4byte	0x1e7
 4731 01e0 0A       		.uleb128 0xa
 4732 01e1 25000000 		.4byte	0x25
 4733 01e5 00       		.byte	0
 4734 01e6 00       		.byte	0
 4735 01e7 10       		.uleb128 0x10
 4736 01e8 AE060000 		.4byte	.LASF32
 4737 01ec 24       		.byte	0x24
 4738 01ed 09       		.byte	0x9
 4739 01ee 3C       		.byte	0x3c
 4740 01ef 08       		.byte	0x8
 4741 01f0 6A020000 		.4byte	0x26a
 4742 01f4 0C       		.uleb128 0xc
 4743 01f5 01110000 		.4byte	.LASF33
 4744 01f9 09       		.byte	0x9
 4745 01fa 3E       		.byte	0x3e
 4746 01fb 09       		.byte	0x9
 4747 01fc 2C000000 		.4byte	0x2c
 4748 0200 00       		.byte	0
 4749 0201 0C       		.uleb128 0xc
 4750 0202 C2220000 		.4byte	.LASF34
 4751 0206 09       		.byte	0x9
 4752 0207 3F       		.byte	0x3f
 4753 0208 09       		.byte	0x9
 4754 0209 2C000000 		.4byte	0x2c
 4755 020d 04       		.byte	0x4
 4756 020e 0C       		.uleb128 0xc
 4757 020f 110E0000 		.4byte	.LASF35
 4758 0213 09       		.byte	0x9
 4759 0214 40       		.byte	0x40
 4760 0215 09       		.byte	0x9
 4761 0216 2C000000 		.4byte	0x2c
ARM GAS  /tmp/ccfraM8n.s 			page 85


 4762 021a 08       		.byte	0x8
 4763 021b 0C       		.uleb128 0xc
 4764 021c E50E0000 		.4byte	.LASF36
 4765 0220 09       		.byte	0x9
 4766 0221 41       		.byte	0x41
 4767 0222 09       		.byte	0x9
 4768 0223 2C000000 		.4byte	0x2c
 4769 0227 0C       		.byte	0xc
 4770 0228 0C       		.uleb128 0xc
 4771 0229 E5010000 		.4byte	.LASF37
 4772 022d 09       		.byte	0x9
 4773 022e 42       		.byte	0x42
 4774 022f 09       		.byte	0x9
 4775 0230 2C000000 		.4byte	0x2c
 4776 0234 10       		.byte	0x10
 4777 0235 0C       		.uleb128 0xc
 4778 0236 510A0000 		.4byte	.LASF38
 4779 023a 09       		.byte	0x9
 4780 023b 43       		.byte	0x43
 4781 023c 09       		.byte	0x9
 4782 023d 2C000000 		.4byte	0x2c
 4783 0241 14       		.byte	0x14
 4784 0242 0C       		.uleb128 0xc
 4785 0243 86080000 		.4byte	.LASF39
 4786 0247 09       		.byte	0x9
 4787 0248 44       		.byte	0x44
 4788 0249 09       		.byte	0x9
 4789 024a 2C000000 		.4byte	0x2c
 4790 024e 18       		.byte	0x18
 4791 024f 0C       		.uleb128 0xc
 4792 0250 33070000 		.4byte	.LASF40
 4793 0254 09       		.byte	0x9
 4794 0255 45       		.byte	0x45
 4795 0256 09       		.byte	0x9
 4796 0257 2C000000 		.4byte	0x2c
 4797 025b 1C       		.byte	0x1c
 4798 025c 0C       		.uleb128 0xc
 4799 025d 90080000 		.4byte	.LASF41
 4800 0261 09       		.byte	0x9
 4801 0262 46       		.byte	0x46
 4802 0263 09       		.byte	0x9
 4803 0264 2C000000 		.4byte	0x2c
 4804 0268 20       		.byte	0x20
 4805 0269 00       		.byte	0
 4806 026a 12       		.uleb128 0x12
 4807 026b 22110000 		.4byte	.LASF42
 4808 026f 0801     		.2byte	0x108
 4809 0271 09       		.byte	0x9
 4810 0272 4F       		.byte	0x4f
 4811 0273 08       		.byte	0x8
 4812 0274 AF020000 		.4byte	0x2af
 4813 0278 0C       		.uleb128 0xc
 4814 0279 190F0000 		.4byte	.LASF43
 4815 027d 09       		.byte	0x9
 4816 027e 50       		.byte	0x50
 4817 027f 0A       		.byte	0xa
 4818 0280 AF020000 		.4byte	0x2af
ARM GAS  /tmp/ccfraM8n.s 			page 86


 4819 0284 00       		.byte	0
 4820 0285 0C       		.uleb128 0xc
 4821 0286 62080000 		.4byte	.LASF44
 4822 028a 09       		.byte	0x9
 4823 028b 51       		.byte	0x51
 4824 028c 09       		.byte	0x9
 4825 028d AF020000 		.4byte	0x2af
 4826 0291 80       		.byte	0x80
 4827 0292 13       		.uleb128 0x13
 4828 0293 EE010000 		.4byte	.LASF45
 4829 0297 09       		.byte	0x9
 4830 0298 53       		.byte	0x53
 4831 0299 0A       		.byte	0xa
 4832 029a 48010000 		.4byte	0x148
 4833 029e 0001     		.2byte	0x100
 4834 02a0 13       		.uleb128 0x13
 4835 02a1 281C0000 		.4byte	.LASF46
 4836 02a5 09       		.byte	0x9
 4837 02a6 56       		.byte	0x56
 4838 02a7 0A       		.byte	0xa
 4839 02a8 48010000 		.4byte	0x148
 4840 02ac 0401     		.2byte	0x104
 4841 02ae 00       		.byte	0
 4842 02af 09       		.uleb128 0x9
 4843 02b0 46010000 		.4byte	0x146
 4844 02b4 BF020000 		.4byte	0x2bf
 4845 02b8 0A       		.uleb128 0xa
 4846 02b9 25000000 		.4byte	0x25
 4847 02bd 1F       		.byte	0x1f
 4848 02be 00       		.byte	0
 4849 02bf 10       		.uleb128 0x10
 4850 02c0 60010000 		.4byte	.LASF47
 4851 02c4 8C       		.byte	0x8c
 4852 02c5 09       		.byte	0x9
 4853 02c6 5A       		.byte	0x5a
 4854 02c7 08       		.byte	0x8
 4855 02c8 01030000 		.4byte	0x301
 4856 02cc 0C       		.uleb128 0xc
 4857 02cd BF0F0000 		.4byte	.LASF27
 4858 02d1 09       		.byte	0x9
 4859 02d2 5B       		.byte	0x5b
 4860 02d3 12       		.byte	0x12
 4861 02d4 01030000 		.4byte	0x301
 4862 02d8 00       		.byte	0
 4863 02d9 0C       		.uleb128 0xc
 4864 02da 0B020000 		.4byte	.LASF48
 4865 02de 09       		.byte	0x9
 4866 02df 5C       		.byte	0x5c
 4867 02e0 06       		.byte	0x6
 4868 02e1 2C000000 		.4byte	0x2c
 4869 02e5 04       		.byte	0x4
 4870 02e6 0C       		.uleb128 0xc
 4871 02e7 1F1B0000 		.4byte	.LASF49
 4872 02eb 09       		.byte	0x9
 4873 02ec 5D       		.byte	0x5d
 4874 02ed 09       		.byte	0x9
 4875 02ee 07030000 		.4byte	0x307
ARM GAS  /tmp/ccfraM8n.s 			page 87


 4876 02f2 08       		.byte	0x8
 4877 02f3 0C       		.uleb128 0xc
 4878 02f4 00000000 		.4byte	.LASF50
 4879 02f8 09       		.byte	0x9
 4880 02f9 5E       		.byte	0x5e
 4881 02fa 20       		.byte	0x20
 4882 02fb 1E030000 		.4byte	0x31e
 4883 02ff 88       		.byte	0x88
 4884 0300 00       		.byte	0
 4885 0301 0E       		.uleb128 0xe
 4886 0302 04       		.byte	0x4
 4887 0303 BF020000 		.4byte	0x2bf
 4888 0307 09       		.uleb128 0x9
 4889 0308 17030000 		.4byte	0x317
 4890 030c 17030000 		.4byte	0x317
 4891 0310 0A       		.uleb128 0xa
 4892 0311 25000000 		.4byte	0x25
 4893 0315 1F       		.byte	0x1f
 4894 0316 00       		.byte	0
 4895 0317 0E       		.uleb128 0xe
 4896 0318 04       		.byte	0x4
 4897 0319 1D030000 		.4byte	0x31d
 4898 031d 14       		.uleb128 0x14
 4899 031e 0E       		.uleb128 0xe
 4900 031f 04       		.byte	0x4
 4901 0320 6A020000 		.4byte	0x26a
 4902 0324 10       		.uleb128 0x10
 4903 0325 F1140000 		.4byte	.LASF51
 4904 0329 08       		.byte	0x8
 4905 032a 09       		.byte	0x9
 4906 032b 7A       		.byte	0x7a
 4907 032c 08       		.byte	0x8
 4908 032d 4C030000 		.4byte	0x34c
 4909 0331 0C       		.uleb128 0xc
 4910 0332 FC050000 		.4byte	.LASF52
 4911 0336 09       		.byte	0x9
 4912 0337 7B       		.byte	0x7b
 4913 0338 11       		.byte	0x11
 4914 0339 4C030000 		.4byte	0x34c
 4915 033d 00       		.byte	0
 4916 033e 0C       		.uleb128 0xc
 4917 033f 6F090000 		.4byte	.LASF53
 4918 0343 09       		.byte	0x9
 4919 0344 7C       		.byte	0x7c
 4920 0345 06       		.byte	0x6
 4921 0346 2C000000 		.4byte	0x2c
 4922 034a 04       		.byte	0x4
 4923 034b 00       		.byte	0
 4924 034c 0E       		.uleb128 0xe
 4925 034d 04       		.byte	0x4
 4926 034e 72000000 		.4byte	0x72
 4927 0352 10       		.uleb128 0x10
 4928 0353 22040000 		.4byte	.LASF54
 4929 0357 20       		.byte	0x20
 4930 0358 09       		.byte	0x9
 4931 0359 9E       		.byte	0x9e
 4932 035a 08       		.byte	0x8
ARM GAS  /tmp/ccfraM8n.s 			page 88


 4933 035b C5030000 		.4byte	0x3c5
 4934 035f 11       		.uleb128 0x11
 4935 0360 5F7000   		.ascii	"_p\000"
 4936 0363 09       		.byte	0x9
 4937 0364 9F       		.byte	0x9f
 4938 0365 12       		.byte	0x12
 4939 0366 4C030000 		.4byte	0x34c
 4940 036a 00       		.byte	0
 4941 036b 11       		.uleb128 0x11
 4942 036c 5F7200   		.ascii	"_r\000"
 4943 036f 09       		.byte	0x9
 4944 0370 A0       		.byte	0xa0
 4945 0371 07       		.byte	0x7
 4946 0372 2C000000 		.4byte	0x2c
 4947 0376 04       		.byte	0x4
 4948 0377 11       		.uleb128 0x11
 4949 0378 5F7700   		.ascii	"_w\000"
 4950 037b 09       		.byte	0x9
 4951 037c A1       		.byte	0xa1
 4952 037d 07       		.byte	0x7
 4953 037e 2C000000 		.4byte	0x2c
 4954 0382 08       		.byte	0x8
 4955 0383 0C       		.uleb128 0xc
 4956 0384 80020000 		.4byte	.LASF55
 4957 0388 09       		.byte	0x9
 4958 0389 A2       		.byte	0xa2
 4959 038a 09       		.byte	0x9
 4960 038b 79000000 		.4byte	0x79
 4961 038f 0C       		.byte	0xc
 4962 0390 0C       		.uleb128 0xc
 4963 0391 D51A0000 		.4byte	.LASF56
 4964 0395 09       		.byte	0x9
 4965 0396 A3       		.byte	0xa3
 4966 0397 09       		.byte	0x9
 4967 0398 79000000 		.4byte	0x79
 4968 039c 0E       		.byte	0xe
 4969 039d 11       		.uleb128 0x11
 4970 039e 5F626600 		.ascii	"_bf\000"
 4971 03a2 09       		.byte	0x9
 4972 03a3 A4       		.byte	0xa4
 4973 03a4 11       		.byte	0x11
 4974 03a5 24030000 		.4byte	0x324
 4975 03a9 10       		.byte	0x10
 4976 03aa 0C       		.uleb128 0xc
 4977 03ab F2040000 		.4byte	.LASF57
 4978 03af 09       		.byte	0x9
 4979 03b0 A5       		.byte	0xa5
 4980 03b1 07       		.byte	0x7
 4981 03b2 2C000000 		.4byte	0x2c
 4982 03b6 18       		.byte	0x18
 4983 03b7 0C       		.uleb128 0xc
 4984 03b8 62050000 		.4byte	.LASF58
 4985 03bc 09       		.byte	0x9
 4986 03bd A7       		.byte	0xa7
 4987 03be 12       		.byte	0x12
 4988 03bf 0D050000 		.4byte	0x50d
 4989 03c3 1C       		.byte	0x1c
ARM GAS  /tmp/ccfraM8n.s 			page 89


 4990 03c4 00       		.byte	0
 4991 03c5 15       		.uleb128 0x15
 4992 03c6 52030000 		.4byte	0x352
 4993 03ca 16       		.uleb128 0x16
 4994 03cb D0050000 		.4byte	.LASF59
 4995 03cf 60       		.byte	0x60
 4996 03d0 09       		.byte	0x9
 4997 03d1 7901     		.2byte	0x179
 4998 03d3 08       		.byte	0x8
 4999 03d4 0D050000 		.4byte	0x50d
 5000 03d8 17       		.uleb128 0x17
 5001 03d9 CE0E0000 		.4byte	.LASF60
 5002 03dd 09       		.byte	0x9
 5003 03de 7D01     		.2byte	0x17d
 5004 03e0 07       		.byte	0x7
 5005 03e1 2C000000 		.4byte	0x2c
 5006 03e5 00       		.byte	0
 5007 03e6 17       		.uleb128 0x17
 5008 03e7 4C0B0000 		.4byte	.LASF61
 5009 03eb 09       		.byte	0x9
 5010 03ec 8201     		.2byte	0x182
 5011 03ee 0B       		.byte	0xb
 5012 03ef 6A070000 		.4byte	0x76a
 5013 03f3 04       		.byte	0x4
 5014 03f4 17       		.uleb128 0x17
 5015 03f5 E3080000 		.4byte	.LASF62
 5016 03f9 09       		.byte	0x9
 5017 03fa 8201     		.2byte	0x182
 5018 03fc 14       		.byte	0x14
 5019 03fd 6A070000 		.4byte	0x76a
 5020 0401 08       		.byte	0x8
 5021 0402 17       		.uleb128 0x17
 5022 0403 52080000 		.4byte	.LASF63
 5023 0407 09       		.byte	0x9
 5024 0408 8201     		.2byte	0x182
 5025 040a 1E       		.byte	0x1e
 5026 040b 6A070000 		.4byte	0x76a
 5027 040f 0C       		.byte	0xc
 5028 0410 17       		.uleb128 0x17
 5029 0411 06020000 		.4byte	.LASF64
 5030 0415 09       		.byte	0x9
 5031 0416 8401     		.2byte	0x184
 5032 0418 08       		.byte	0x8
 5033 0419 2C000000 		.4byte	0x2c
 5034 041d 10       		.byte	0x10
 5035 041e 17       		.uleb128 0x17
 5036 041f EF160000 		.4byte	.LASF65
 5037 0423 09       		.byte	0x9
 5038 0424 8601     		.2byte	0x186
 5039 0426 09       		.byte	0x9
 5040 0427 79060000 		.4byte	0x679
 5041 042b 14       		.byte	0x14
 5042 042c 17       		.uleb128 0x17
 5043 042d F71E0000 		.4byte	.LASF66
 5044 0431 09       		.byte	0x9
 5045 0432 8801     		.2byte	0x188
 5046 0434 07       		.byte	0x7
ARM GAS  /tmp/ccfraM8n.s 			page 90


 5047 0435 2C000000 		.4byte	0x2c
 5048 0439 18       		.byte	0x18
 5049 043a 17       		.uleb128 0x17
 5050 043b 8F1E0000 		.4byte	.LASF67
 5051 043f 09       		.byte	0x9
 5052 0440 8A01     		.2byte	0x18a
 5053 0442 07       		.byte	0x7
 5054 0443 2C000000 		.4byte	0x2c
 5055 0447 1C       		.byte	0x1c
 5056 0448 17       		.uleb128 0x17
 5057 0449 9A200000 		.4byte	.LASF68
 5058 044d 09       		.byte	0x9
 5059 044e 8B01     		.2byte	0x18b
 5060 0450 16       		.byte	0x16
 5061 0451 D2080000 		.4byte	0x8d2
 5062 0455 20       		.byte	0x20
 5063 0456 18       		.uleb128 0x18
 5064 0457 5F6D7000 		.ascii	"_mp\000"
 5065 045b 09       		.byte	0x9
 5066 045c 8D01     		.2byte	0x18d
 5067 045e 12       		.byte	0x12
 5068 045f D8080000 		.4byte	0x8d8
 5069 0463 24       		.byte	0x24
 5070 0464 17       		.uleb128 0x17
 5071 0465 8F1A0000 		.4byte	.LASF69
 5072 0469 09       		.byte	0x9
 5073 046a 8F01     		.2byte	0x18f
 5074 046c 0A       		.byte	0xa
 5075 046d E9080000 		.4byte	0x8e9
 5076 0471 28       		.byte	0x28
 5077 0472 17       		.uleb128 0x17
 5078 0473 BD1D0000 		.4byte	.LASF70
 5079 0477 09       		.byte	0x9
 5080 0478 9101     		.2byte	0x191
 5081 047a 07       		.byte	0x7
 5082 047b 2C000000 		.4byte	0x2c
 5083 047f 2C       		.byte	0x2c
 5084 0480 17       		.uleb128 0x17
 5085 0481 DA020000 		.4byte	.LASF71
 5086 0485 09       		.byte	0x9
 5087 0486 9401     		.2byte	0x194
 5088 0488 07       		.byte	0x7
 5089 0489 2C000000 		.4byte	0x2c
 5090 048d 30       		.byte	0x30
 5091 048e 17       		.uleb128 0x17
 5092 048f 530D0000 		.4byte	.LASF72
 5093 0493 09       		.byte	0x9
 5094 0494 9501     		.2byte	0x195
 5095 0496 09       		.byte	0x9
 5096 0497 79060000 		.4byte	0x679
 5097 049b 34       		.byte	0x34
 5098 049c 17       		.uleb128 0x17
 5099 049d 1A230000 		.4byte	.LASF73
 5100 04a1 09       		.byte	0x9
 5101 04a2 9701     		.2byte	0x197
 5102 04a4 13       		.byte	0x13
 5103 04a5 EF080000 		.4byte	0x8ef
ARM GAS  /tmp/ccfraM8n.s 			page 91


 5104 04a9 38       		.byte	0x38
 5105 04aa 17       		.uleb128 0x17
 5106 04ab 2D0C0000 		.4byte	.LASF74
 5107 04af 09       		.byte	0x9
 5108 04b0 9801     		.2byte	0x198
 5109 04b2 10       		.byte	0x10
 5110 04b3 F5080000 		.4byte	0x8f5
 5111 04b7 3C       		.byte	0x3c
 5112 04b8 17       		.uleb128 0x17
 5113 04b9 59150000 		.4byte	.LASF75
 5114 04bd 09       		.byte	0x9
 5115 04be 9901     		.2byte	0x199
 5116 04c0 09       		.byte	0x9
 5117 04c1 79060000 		.4byte	0x679
 5118 04c5 40       		.byte	0x40
 5119 04c6 17       		.uleb128 0x17
 5120 04c7 06030000 		.4byte	.LASF76
 5121 04cb 09       		.byte	0x9
 5122 04cc 9C01     		.2byte	0x19c
 5123 04ce 0C       		.byte	0xc
 5124 04cf 06090000 		.4byte	0x906
 5125 04d3 44       		.byte	0x44
 5126 04d4 17       		.uleb128 0x17
 5127 04d5 641A0000 		.4byte	.LASF77
 5128 04d9 09       		.byte	0x9
 5129 04da A401     		.2byte	0x1a4
 5130 04dc 10       		.byte	0x10
 5131 04dd 2B070000 		.4byte	0x72b
 5132 04e1 48       		.byte	0x48
 5133 04e2 17       		.uleb128 0x17
 5134 04e3 EE050000 		.4byte	.LASF78
 5135 04e7 09       		.byte	0x9
 5136 04e8 A501     		.2byte	0x1a5
 5137 04ea 0B       		.byte	0xb
 5138 04eb 6A070000 		.4byte	0x76a
 5139 04ef 54       		.byte	0x54
 5140 04f0 17       		.uleb128 0x17
 5141 04f1 59090000 		.4byte	.LASF79
 5142 04f5 09       		.byte	0x9
 5143 04f6 A601     		.2byte	0x1a6
 5144 04f8 17       		.byte	0x17
 5145 04f9 12090000 		.4byte	0x912
 5146 04fd 58       		.byte	0x58
 5147 04fe 17       		.uleb128 0x17
 5148 04ff F80F0000 		.4byte	.LASF80
 5149 0503 09       		.byte	0x9
 5150 0504 A701     		.2byte	0x1a7
 5151 0506 09       		.byte	0x9
 5152 0507 79060000 		.4byte	0x679
 5153 050b 5C       		.byte	0x5c
 5154 050c 00       		.byte	0
 5155 050d 0E       		.uleb128 0xe
 5156 050e 04       		.byte	0x4
 5157 050f CA030000 		.4byte	0x3ca
 5158 0513 15       		.uleb128 0x15
 5159 0514 0D050000 		.4byte	0x50d
 5160 0518 10       		.uleb128 0x10
ARM GAS  /tmp/ccfraM8n.s 			page 92


 5161 0519 171B0000 		.4byte	.LASF81
 5162 051d 68       		.byte	0x68
 5163 051e 09       		.byte	0x9
 5164 051f BA       		.byte	0xba
 5165 0520 08       		.byte	0x8
 5166 0521 5B060000 		.4byte	0x65b
 5167 0525 11       		.uleb128 0x11
 5168 0526 5F7000   		.ascii	"_p\000"
 5169 0529 09       		.byte	0x9
 5170 052a BB       		.byte	0xbb
 5171 052b 12       		.byte	0x12
 5172 052c 4C030000 		.4byte	0x34c
 5173 0530 00       		.byte	0
 5174 0531 11       		.uleb128 0x11
 5175 0532 5F7200   		.ascii	"_r\000"
 5176 0535 09       		.byte	0x9
 5177 0536 BC       		.byte	0xbc
 5178 0537 07       		.byte	0x7
 5179 0538 2C000000 		.4byte	0x2c
 5180 053c 04       		.byte	0x4
 5181 053d 11       		.uleb128 0x11
 5182 053e 5F7700   		.ascii	"_w\000"
 5183 0541 09       		.byte	0x9
 5184 0542 BD       		.byte	0xbd
 5185 0543 07       		.byte	0x7
 5186 0544 2C000000 		.4byte	0x2c
 5187 0548 08       		.byte	0x8
 5188 0549 0C       		.uleb128 0xc
 5189 054a 80020000 		.4byte	.LASF55
 5190 054e 09       		.byte	0x9
 5191 054f BE       		.byte	0xbe
 5192 0550 09       		.byte	0x9
 5193 0551 79000000 		.4byte	0x79
 5194 0555 0C       		.byte	0xc
 5195 0556 0C       		.uleb128 0xc
 5196 0557 D51A0000 		.4byte	.LASF56
 5197 055b 09       		.byte	0x9
 5198 055c BF       		.byte	0xbf
 5199 055d 09       		.byte	0x9
 5200 055e 79000000 		.4byte	0x79
 5201 0562 0E       		.byte	0xe
 5202 0563 11       		.uleb128 0x11
 5203 0564 5F626600 		.ascii	"_bf\000"
 5204 0568 09       		.byte	0x9
 5205 0569 C0       		.byte	0xc0
 5206 056a 11       		.byte	0x11
 5207 056b 24030000 		.4byte	0x324
 5208 056f 10       		.byte	0x10
 5209 0570 0C       		.uleb128 0xc
 5210 0571 F2040000 		.4byte	.LASF57
 5211 0575 09       		.byte	0x9
 5212 0576 C1       		.byte	0xc1
 5213 0577 07       		.byte	0x7
 5214 0578 2C000000 		.4byte	0x2c
 5215 057c 18       		.byte	0x18
 5216 057d 0C       		.uleb128 0xc
 5217 057e 62050000 		.4byte	.LASF58
ARM GAS  /tmp/ccfraM8n.s 			page 93


 5218 0582 09       		.byte	0x9
 5219 0583 C4       		.byte	0xc4
 5220 0584 12       		.byte	0x12
 5221 0585 0D050000 		.4byte	0x50d
 5222 0589 1C       		.byte	0x1c
 5223 058a 0C       		.uleb128 0xc
 5224 058b 0A100000 		.4byte	.LASF82
 5225 058f 09       		.byte	0x9
 5226 0590 C8       		.byte	0xc8
 5227 0591 0A       		.byte	0xa
 5228 0592 46010000 		.4byte	0x146
 5229 0596 20       		.byte	0x20
 5230 0597 0C       		.uleb128 0xc
 5231 0598 9C230000 		.4byte	.LASF83
 5232 059c 09       		.byte	0x9
 5233 059d CA       		.byte	0xca
 5234 059e 1D       		.byte	0x1d
 5235 059f 8B060000 		.4byte	0x68b
 5236 05a3 24       		.byte	0x24
 5237 05a4 0C       		.uleb128 0xc
 5238 05a5 BE090000 		.4byte	.LASF84
 5239 05a9 09       		.byte	0x9
 5240 05aa CC       		.byte	0xcc
 5241 05ab 1D       		.byte	0x1d
 5242 05ac BA060000 		.4byte	0x6ba
 5243 05b0 28       		.byte	0x28
 5244 05b1 0C       		.uleb128 0xc
 5245 05b2 79130000 		.4byte	.LASF85
 5246 05b6 09       		.byte	0x9
 5247 05b7 CF       		.byte	0xcf
 5248 05b8 0D       		.byte	0xd
 5249 05b9 DE060000 		.4byte	0x6de
 5250 05bd 2C       		.byte	0x2c
 5251 05be 0C       		.uleb128 0xc
 5252 05bf 78180000 		.4byte	.LASF86
 5253 05c3 09       		.byte	0x9
 5254 05c4 D0       		.byte	0xd0
 5255 05c5 09       		.byte	0x9
 5256 05c6 F8060000 		.4byte	0x6f8
 5257 05ca 30       		.byte	0x30
 5258 05cb 11       		.uleb128 0x11
 5259 05cc 5F756200 		.ascii	"_ub\000"
 5260 05d0 09       		.byte	0x9
 5261 05d1 D3       		.byte	0xd3
 5262 05d2 11       		.byte	0x11
 5263 05d3 24030000 		.4byte	0x324
 5264 05d7 34       		.byte	0x34
 5265 05d8 11       		.uleb128 0x11
 5266 05d9 5F757000 		.ascii	"_up\000"
 5267 05dd 09       		.byte	0x9
 5268 05de D4       		.byte	0xd4
 5269 05df 12       		.byte	0x12
 5270 05e0 4C030000 		.4byte	0x34c
 5271 05e4 3C       		.byte	0x3c
 5272 05e5 11       		.uleb128 0x11
 5273 05e6 5F757200 		.ascii	"_ur\000"
 5274 05ea 09       		.byte	0x9
ARM GAS  /tmp/ccfraM8n.s 			page 94


 5275 05eb D5       		.byte	0xd5
 5276 05ec 07       		.byte	0x7
 5277 05ed 2C000000 		.4byte	0x2c
 5278 05f1 40       		.byte	0x40
 5279 05f2 0C       		.uleb128 0xc
 5280 05f3 4A1A0000 		.4byte	.LASF87
 5281 05f7 09       		.byte	0x9
 5282 05f8 D8       		.byte	0xd8
 5283 05f9 11       		.byte	0x11
 5284 05fa FE060000 		.4byte	0x6fe
 5285 05fe 44       		.byte	0x44
 5286 05ff 0C       		.uleb128 0xc
 5287 0600 2D030000 		.4byte	.LASF88
 5288 0604 09       		.byte	0x9
 5289 0605 D9       		.byte	0xd9
 5290 0606 11       		.byte	0x11
 5291 0607 0E070000 		.4byte	0x70e
 5292 060b 47       		.byte	0x47
 5293 060c 11       		.uleb128 0x11
 5294 060d 5F6C6200 		.ascii	"_lb\000"
 5295 0611 09       		.byte	0x9
 5296 0612 DC       		.byte	0xdc
 5297 0613 11       		.byte	0x11
 5298 0614 24030000 		.4byte	0x324
 5299 0618 48       		.byte	0x48
 5300 0619 0C       		.uleb128 0xc
 5301 061a 381A0000 		.4byte	.LASF89
 5302 061e 09       		.byte	0x9
 5303 061f DF       		.byte	0xdf
 5304 0620 07       		.byte	0x7
 5305 0621 2C000000 		.4byte	0x2c
 5306 0625 50       		.byte	0x50
 5307 0626 0C       		.uleb128 0xc
 5308 0627 AD140000 		.4byte	.LASF90
 5309 062b 09       		.byte	0x9
 5310 062c E0       		.byte	0xe0
 5311 062d 0A       		.byte	0xa
 5312 062e CC000000 		.4byte	0xcc
 5313 0632 54       		.byte	0x54
 5314 0633 0C       		.uleb128 0xc
 5315 0634 27030000 		.4byte	.LASF91
 5316 0638 09       		.byte	0x9
 5317 0639 E7       		.byte	0xe7
 5318 063a 0C       		.byte	0xc
 5319 063b 6B010000 		.4byte	0x16b
 5320 063f 58       		.byte	0x58
 5321 0640 0C       		.uleb128 0xc
 5322 0641 57010000 		.4byte	.LASF92
 5323 0645 09       		.byte	0x9
 5324 0646 E9       		.byte	0xe9
 5325 0647 0E       		.byte	0xe
 5326 0648 3A010000 		.4byte	0x13a
 5327 064c 5C       		.byte	0x5c
 5328 064d 0C       		.uleb128 0xc
 5329 064e 44200000 		.4byte	.LASF93
 5330 0652 09       		.byte	0x9
 5331 0653 EA       		.byte	0xea
ARM GAS  /tmp/ccfraM8n.s 			page 95


 5332 0654 09       		.byte	0x9
 5333 0655 2C000000 		.4byte	0x2c
 5334 0659 64       		.byte	0x64
 5335 065a 00       		.byte	0
 5336 065b 19       		.uleb128 0x19
 5337 065c 2C000000 		.4byte	0x2c
 5338 0660 79060000 		.4byte	0x679
 5339 0664 1A       		.uleb128 0x1a
 5340 0665 0D050000 		.4byte	0x50d
 5341 0669 1A       		.uleb128 0x1a
 5342 066a 46010000 		.4byte	0x146
 5343 066e 1A       		.uleb128 0x1a
 5344 066f 79060000 		.4byte	0x679
 5345 0673 1A       		.uleb128 0x1a
 5346 0674 2C000000 		.4byte	0x2c
 5347 0678 00       		.byte	0
 5348 0679 0E       		.uleb128 0xe
 5349 067a 04       		.byte	0x4
 5350 067b 7F060000 		.4byte	0x67f
 5351 067f 02       		.uleb128 0x2
 5352 0680 01       		.byte	0x1
 5353 0681 08       		.byte	0x8
 5354 0682 84180000 		.4byte	.LASF94
 5355 0686 15       		.uleb128 0x15
 5356 0687 7F060000 		.4byte	0x67f
 5357 068b 0E       		.uleb128 0xe
 5358 068c 04       		.byte	0x4
 5359 068d 5B060000 		.4byte	0x65b
 5360 0691 19       		.uleb128 0x19
 5361 0692 2C000000 		.4byte	0x2c
 5362 0696 AF060000 		.4byte	0x6af
 5363 069a 1A       		.uleb128 0x1a
 5364 069b 0D050000 		.4byte	0x50d
 5365 069f 1A       		.uleb128 0x1a
 5366 06a0 46010000 		.4byte	0x146
 5367 06a4 1A       		.uleb128 0x1a
 5368 06a5 AF060000 		.4byte	0x6af
 5369 06a9 1A       		.uleb128 0x1a
 5370 06aa 2C000000 		.4byte	0x2c
 5371 06ae 00       		.byte	0
 5372 06af 0E       		.uleb128 0xe
 5373 06b0 04       		.byte	0x4
 5374 06b1 86060000 		.4byte	0x686
 5375 06b5 05       		.uleb128 0x5
 5376 06b6 AF060000 		.4byte	0x6af
 5377 06ba 0E       		.uleb128 0xe
 5378 06bb 04       		.byte	0x4
 5379 06bc 91060000 		.4byte	0x691
 5380 06c0 19       		.uleb128 0x19
 5381 06c1 D8000000 		.4byte	0xd8
 5382 06c5 DE060000 		.4byte	0x6de
 5383 06c9 1A       		.uleb128 0x1a
 5384 06ca 0D050000 		.4byte	0x50d
 5385 06ce 1A       		.uleb128 0x1a
 5386 06cf 46010000 		.4byte	0x146
 5387 06d3 1A       		.uleb128 0x1a
 5388 06d4 D8000000 		.4byte	0xd8
ARM GAS  /tmp/ccfraM8n.s 			page 96


 5389 06d8 1A       		.uleb128 0x1a
 5390 06d9 2C000000 		.4byte	0x2c
 5391 06dd 00       		.byte	0
 5392 06de 0E       		.uleb128 0xe
 5393 06df 04       		.byte	0x4
 5394 06e0 C0060000 		.4byte	0x6c0
 5395 06e4 19       		.uleb128 0x19
 5396 06e5 2C000000 		.4byte	0x2c
 5397 06e9 F8060000 		.4byte	0x6f8
 5398 06ed 1A       		.uleb128 0x1a
 5399 06ee 0D050000 		.4byte	0x50d
 5400 06f2 1A       		.uleb128 0x1a
 5401 06f3 46010000 		.4byte	0x146
 5402 06f7 00       		.byte	0
 5403 06f8 0E       		.uleb128 0xe
 5404 06f9 04       		.byte	0x4
 5405 06fa E4060000 		.4byte	0x6e4
 5406 06fe 09       		.uleb128 0x9
 5407 06ff 72000000 		.4byte	0x72
 5408 0703 0E070000 		.4byte	0x70e
 5409 0707 0A       		.uleb128 0xa
 5410 0708 25000000 		.4byte	0x25
 5411 070c 02       		.byte	0x2
 5412 070d 00       		.byte	0
 5413 070e 09       		.uleb128 0x9
 5414 070f 72000000 		.4byte	0x72
 5415 0713 1E070000 		.4byte	0x71e
 5416 0717 0A       		.uleb128 0xa
 5417 0718 25000000 		.4byte	0x25
 5418 071c 00       		.byte	0
 5419 071d 00       		.byte	0
 5420 071e 06       		.uleb128 0x6
 5421 071f 1B040000 		.4byte	.LASF95
 5422 0723 09       		.byte	0x9
 5423 0724 2401     		.2byte	0x124
 5424 0726 1A       		.byte	0x1a
 5425 0727 18050000 		.4byte	0x518
 5426 072b 16       		.uleb128 0x16
 5427 072c 89180000 		.4byte	.LASF96
 5428 0730 0C       		.byte	0xc
 5429 0731 09       		.byte	0x9
 5430 0732 2801     		.2byte	0x128
 5431 0734 08       		.byte	0x8
 5432 0735 64070000 		.4byte	0x764
 5433 0739 17       		.uleb128 0x17
 5434 073a BF0F0000 		.4byte	.LASF27
 5435 073e 09       		.byte	0x9
 5436 073f 2A01     		.2byte	0x12a
 5437 0741 11       		.byte	0x11
 5438 0742 64070000 		.4byte	0x764
 5439 0746 00       		.byte	0
 5440 0747 17       		.uleb128 0x17
 5441 0748 9D0E0000 		.4byte	.LASF97
 5442 074c 09       		.byte	0x9
 5443 074d 2B01     		.2byte	0x12b
 5444 074f 07       		.byte	0x7
 5445 0750 2C000000 		.4byte	0x2c
ARM GAS  /tmp/ccfraM8n.s 			page 97


 5446 0754 04       		.byte	0x4
 5447 0755 17       		.uleb128 0x17
 5448 0756 E9160000 		.4byte	.LASF98
 5449 075a 09       		.byte	0x9
 5450 075b 2C01     		.2byte	0x12c
 5451 075d 0B       		.byte	0xb
 5452 075e 6A070000 		.4byte	0x76a
 5453 0762 08       		.byte	0x8
 5454 0763 00       		.byte	0
 5455 0764 0E       		.uleb128 0xe
 5456 0765 04       		.byte	0x4
 5457 0766 2B070000 		.4byte	0x72b
 5458 076a 0E       		.uleb128 0xe
 5459 076b 04       		.byte	0x4
 5460 076c 1E070000 		.4byte	0x71e
 5461 0770 16       		.uleb128 0x16
 5462 0771 BE230000 		.4byte	.LASF99
 5463 0775 18       		.byte	0x18
 5464 0776 09       		.byte	0x9
 5465 0777 4401     		.2byte	0x144
 5466 0779 08       		.byte	0x8
 5467 077a B7070000 		.4byte	0x7b7
 5468 077e 17       		.uleb128 0x17
 5469 077f 73130000 		.4byte	.LASF100
 5470 0783 09       		.byte	0x9
 5471 0784 4501     		.2byte	0x145
 5472 0786 12       		.byte	0x12
 5473 0787 B7070000 		.4byte	0x7b7
 5474 078b 00       		.byte	0
 5475 078c 17       		.uleb128 0x17
 5476 078d B10A0000 		.4byte	.LASF101
 5477 0791 09       		.byte	0x9
 5478 0792 4601     		.2byte	0x146
 5479 0794 12       		.byte	0x12
 5480 0795 B7070000 		.4byte	0x7b7
 5481 0799 06       		.byte	0x6
 5482 079a 17       		.uleb128 0x17
 5483 079b 2A150000 		.4byte	.LASF102
 5484 079f 09       		.byte	0x9
 5485 07a0 4701     		.2byte	0x147
 5486 07a2 12       		.byte	0x12
 5487 07a3 8C000000 		.4byte	0x8c
 5488 07a7 0C       		.byte	0xc
 5489 07a8 17       		.uleb128 0x17
 5490 07a9 2C170000 		.4byte	.LASF103
 5491 07ad 09       		.byte	0x9
 5492 07ae 4A01     		.2byte	0x14a
 5493 07b0 24       		.byte	0x24
 5494 07b1 C5000000 		.4byte	0xc5
 5495 07b5 10       		.byte	0x10
 5496 07b6 00       		.byte	0
 5497 07b7 09       		.uleb128 0x9
 5498 07b8 8C000000 		.4byte	0x8c
 5499 07bc C7070000 		.4byte	0x7c7
 5500 07c0 0A       		.uleb128 0xa
 5501 07c1 25000000 		.4byte	0x25
 5502 07c5 02       		.byte	0x2
ARM GAS  /tmp/ccfraM8n.s 			page 98


 5503 07c6 00       		.byte	0
 5504 07c7 16       		.uleb128 0x16
 5505 07c8 351C0000 		.4byte	.LASF104
 5506 07cc 10       		.byte	0x10
 5507 07cd 09       		.byte	0x9
 5508 07ce 5D01     		.2byte	0x15d
 5509 07d0 08       		.byte	0x8
 5510 07d1 0E080000 		.4byte	0x80e
 5511 07d5 17       		.uleb128 0x17
 5512 07d6 5A080000 		.4byte	.LASF105
 5513 07da 09       		.byte	0x9
 5514 07db 6001     		.2byte	0x160
 5515 07dd 13       		.byte	0x13
 5516 07de D1010000 		.4byte	0x1d1
 5517 07e2 00       		.byte	0
 5518 07e3 17       		.uleb128 0x17
 5519 07e4 43080000 		.4byte	.LASF106
 5520 07e8 09       		.byte	0x9
 5521 07e9 6101     		.2byte	0x161
 5522 07eb 07       		.byte	0x7
 5523 07ec 2C000000 		.4byte	0x2c
 5524 07f0 04       		.byte	0x4
 5525 07f1 17       		.uleb128 0x17
 5526 07f2 4E1C0000 		.4byte	.LASF107
 5527 07f6 09       		.byte	0x9
 5528 07f7 6201     		.2byte	0x162
 5529 07f9 13       		.byte	0x13
 5530 07fa D1010000 		.4byte	0x1d1
 5531 07fe 08       		.byte	0x8
 5532 07ff 17       		.uleb128 0x17
 5533 0800 84140000 		.4byte	.LASF108
 5534 0804 09       		.byte	0x9
 5535 0805 6301     		.2byte	0x163
 5536 0807 14       		.byte	0x14
 5537 0808 0E080000 		.4byte	0x80e
 5538 080c 0C       		.byte	0xc
 5539 080d 00       		.byte	0
 5540 080e 0E       		.uleb128 0xe
 5541 080f 04       		.byte	0x4
 5542 0810 D1010000 		.4byte	0x1d1
 5543 0814 16       		.uleb128 0x16
 5544 0815 0C190000 		.4byte	.LASF109
 5545 0819 50       		.byte	0x50
 5546 081a 09       		.byte	0x9
 5547 081b 6701     		.2byte	0x167
 5548 081d 08       		.byte	0x8
 5549 081e BD080000 		.4byte	0x8bd
 5550 0822 17       		.uleb128 0x17
 5551 0823 0D130000 		.4byte	.LASF110
 5552 0827 09       		.byte	0x9
 5553 0828 6A01     		.2byte	0x16a
 5554 082a 09       		.byte	0x9
 5555 082b 79060000 		.4byte	0x679
 5556 082f 00       		.byte	0
 5557 0830 17       		.uleb128 0x17
 5558 0831 571A0000 		.4byte	.LASF111
 5559 0835 09       		.byte	0x9
ARM GAS  /tmp/ccfraM8n.s 			page 99


 5560 0836 6B01     		.2byte	0x16b
 5561 0838 0E       		.byte	0xe
 5562 0839 3A010000 		.4byte	0x13a
 5563 083d 04       		.byte	0x4
 5564 083e 17       		.uleb128 0x17
 5565 083f 84160000 		.4byte	.LASF112
 5566 0843 09       		.byte	0x9
 5567 0844 6C01     		.2byte	0x16c
 5568 0846 0E       		.byte	0xe
 5569 0847 3A010000 		.4byte	0x13a
 5570 084b 0C       		.byte	0xc
 5571 084c 17       		.uleb128 0x17
 5572 084d 1A060000 		.4byte	.LASF113
 5573 0851 09       		.byte	0x9
 5574 0852 6D01     		.2byte	0x16d
 5575 0854 0E       		.byte	0xe
 5576 0855 3A010000 		.4byte	0x13a
 5577 0859 14       		.byte	0x14
 5578 085a 17       		.uleb128 0x17
 5579 085b 13150000 		.4byte	.LASF114
 5580 085f 09       		.byte	0x9
 5581 0860 6E01     		.2byte	0x16e
 5582 0862 08       		.byte	0x8
 5583 0863 BD080000 		.4byte	0x8bd
 5584 0867 1C       		.byte	0x1c
 5585 0868 17       		.uleb128 0x17
 5586 0869 7F190000 		.4byte	.LASF115
 5587 086d 09       		.byte	0x9
 5588 086e 6F01     		.2byte	0x16f
 5589 0870 07       		.byte	0x7
 5590 0871 2C000000 		.4byte	0x2c
 5591 0875 24       		.byte	0x24
 5592 0876 17       		.uleb128 0x17
 5593 0877 F00A0000 		.4byte	.LASF116
 5594 087b 09       		.byte	0x9
 5595 087c 7001     		.2byte	0x170
 5596 087e 0E       		.byte	0xe
 5597 087f 3A010000 		.4byte	0x13a
 5598 0883 28       		.byte	0x28
 5599 0884 17       		.uleb128 0x17
 5600 0885 E90D0000 		.4byte	.LASF117
 5601 0889 09       		.byte	0x9
 5602 088a 7101     		.2byte	0x171
 5603 088c 0E       		.byte	0xe
 5604 088d 3A010000 		.4byte	0x13a
 5605 0891 30       		.byte	0x30
 5606 0892 17       		.uleb128 0x17
 5607 0893 29090000 		.4byte	.LASF118
 5608 0897 09       		.byte	0x9
 5609 0898 7201     		.2byte	0x172
 5610 089a 0E       		.byte	0xe
 5611 089b 3A010000 		.4byte	0x13a
 5612 089f 38       		.byte	0x38
 5613 08a0 17       		.uleb128 0x17
 5614 08a1 8E110000 		.4byte	.LASF119
 5615 08a5 09       		.byte	0x9
 5616 08a6 7301     		.2byte	0x173
ARM GAS  /tmp/ccfraM8n.s 			page 100


 5617 08a8 0E       		.byte	0xe
 5618 08a9 3A010000 		.4byte	0x13a
 5619 08ad 40       		.byte	0x40
 5620 08ae 17       		.uleb128 0x17
 5621 08af 9B150000 		.4byte	.LASF120
 5622 08b3 09       		.byte	0x9
 5623 08b4 7401     		.2byte	0x174
 5624 08b6 0E       		.byte	0xe
 5625 08b7 3A010000 		.4byte	0x13a
 5626 08bb 48       		.byte	0x48
 5627 08bc 00       		.byte	0
 5628 08bd 09       		.uleb128 0x9
 5629 08be 7F060000 		.4byte	0x67f
 5630 08c2 CD080000 		.4byte	0x8cd
 5631 08c6 0A       		.uleb128 0xa
 5632 08c7 25000000 		.4byte	0x25
 5633 08cb 07       		.byte	0x7
 5634 08cc 00       		.byte	0
 5635 08cd 0F       		.uleb128 0xf
 5636 08ce 6C1A0000 		.4byte	.LASF122
 5637 08d2 0E       		.uleb128 0xe
 5638 08d3 04       		.byte	0x4
 5639 08d4 CD080000 		.4byte	0x8cd
 5640 08d8 0E       		.uleb128 0xe
 5641 08d9 04       		.byte	0x4
 5642 08da C7070000 		.4byte	0x7c7
 5643 08de 1B       		.uleb128 0x1b
 5644 08df E9080000 		.4byte	0x8e9
 5645 08e3 1A       		.uleb128 0x1a
 5646 08e4 0D050000 		.4byte	0x50d
 5647 08e8 00       		.byte	0
 5648 08e9 0E       		.uleb128 0xe
 5649 08ea 04       		.byte	0x4
 5650 08eb DE080000 		.4byte	0x8de
 5651 08ef 0E       		.uleb128 0xe
 5652 08f0 04       		.byte	0x4
 5653 08f1 70070000 		.4byte	0x770
 5654 08f5 0E       		.uleb128 0xe
 5655 08f6 04       		.byte	0x4
 5656 08f7 E7010000 		.4byte	0x1e7
 5657 08fb 1B       		.uleb128 0x1b
 5658 08fc 06090000 		.4byte	0x906
 5659 0900 1A       		.uleb128 0x1a
 5660 0901 2C000000 		.4byte	0x2c
 5661 0905 00       		.byte	0
 5662 0906 0E       		.uleb128 0xe
 5663 0907 04       		.byte	0x4
 5664 0908 0C090000 		.4byte	0x90c
 5665 090c 0E       		.uleb128 0xe
 5666 090d 04       		.byte	0x4
 5667 090e FB080000 		.4byte	0x8fb
 5668 0912 0E       		.uleb128 0xe
 5669 0913 04       		.byte	0x4
 5670 0914 14080000 		.4byte	0x814
 5671 0918 1C       		.uleb128 0x1c
 5672 0919 5F090000 		.4byte	.LASF123
 5673 091d 09       		.byte	0x9
ARM GAS  /tmp/ccfraM8n.s 			page 101


 5674 091e CF01     		.2byte	0x1cf
 5675 0920 22       		.byte	0x22
 5676 0921 C5030000 		.4byte	0x3c5
 5677 0925 1C       		.uleb128 0x1c
 5678 0926 991F0000 		.4byte	.LASF124
 5679 092a 09       		.byte	0x9
 5680 092b D001     		.2byte	0x1d0
 5681 092d 22       		.byte	0x22
 5682 092e C5030000 		.4byte	0x3c5
 5683 0932 1C       		.uleb128 0x1c
 5684 0933 A81E0000 		.4byte	.LASF125
 5685 0937 09       		.byte	0x9
 5686 0938 D101     		.2byte	0x1d1
 5687 093a 22       		.byte	0x22
 5688 093b C5030000 		.4byte	0x3c5
 5689 093f 1C       		.uleb128 0x1c
 5690 0940 2C1A0000 		.4byte	.LASF126
 5691 0944 09       		.byte	0x9
 5692 0945 3303     		.2byte	0x333
 5693 0947 17       		.byte	0x17
 5694 0948 0D050000 		.4byte	0x50d
 5695 094c 1C       		.uleb128 0x1c
 5696 094d 6C1E0000 		.4byte	.LASF127
 5697 0951 09       		.byte	0x9
 5698 0952 3403     		.2byte	0x334
 5699 0954 1D       		.byte	0x1d
 5700 0955 13050000 		.4byte	0x513
 5701 0959 1C       		.uleb128 0x1c
 5702 095a F7010000 		.4byte	.LASF128
 5703 095e 09       		.byte	0x9
 5704 095f 4603     		.2byte	0x346
 5705 0961 18       		.byte	0x18
 5706 0962 01030000 		.4byte	0x301
 5707 0966 04       		.uleb128 0x4
 5708 0967 640C0000 		.4byte	.LASF129
 5709 096b 0B       		.byte	0xb
 5710 096c 18       		.byte	0x18
 5711 096d 13       		.byte	0x13
 5712 096e 66000000 		.4byte	0x66
 5713 0972 15       		.uleb128 0x15
 5714 0973 66090000 		.4byte	0x966
 5715 0977 04       		.uleb128 0x4
 5716 0978 44020000 		.4byte	.LASF130
 5717 097c 0B       		.byte	0xb
 5718 097d 24       		.byte	0x24
 5719 097e 14       		.byte	0x14
 5720 097f 80000000 		.4byte	0x80
 5721 0983 04       		.uleb128 0x4
 5722 0984 09040000 		.4byte	.LASF131
 5723 0988 0B       		.byte	0xb
 5724 0989 2C       		.byte	0x2c
 5725 098a 13       		.byte	0x13
 5726 098b 93000000 		.4byte	0x93
 5727 098f 05       		.uleb128 0x5
 5728 0990 83090000 		.4byte	0x983
 5729 0994 04       		.uleb128 0x4
 5730 0995 63170000 		.4byte	.LASF132
ARM GAS  /tmp/ccfraM8n.s 			page 102


 5731 0999 0B       		.byte	0xb
 5732 099a 30       		.byte	0x30
 5733 099b 14       		.byte	0x14
 5734 099c A6000000 		.4byte	0xa6
 5735 09a0 05       		.uleb128 0x5
 5736 09a1 94090000 		.4byte	0x994
 5737 09a5 15       		.uleb128 0x15
 5738 09a6 A0090000 		.4byte	0x9a0
 5739 09aa 04       		.uleb128 0x4
 5740 09ab FF090000 		.4byte	.LASF133
 5741 09af 0B       		.byte	0xb
 5742 09b0 3C       		.byte	0x3c
 5743 09b1 14       		.byte	0x14
 5744 09b2 B9000000 		.4byte	0xb9
 5745 09b6 04       		.uleb128 0x4
 5746 09b7 36230000 		.4byte	.LASF134
 5747 09bb 0C       		.byte	0xc
 5748 09bc 34       		.byte	0x34
 5749 09bd 1F       		.byte	0x1f
 5750 09be 25000000 		.4byte	0x25
 5751 09c2 04       		.uleb128 0x4
 5752 09c3 9C0B0000 		.4byte	.LASF135
 5753 09c7 0D       		.byte	0xd
 5754 09c8 27       		.byte	0x27
 5755 09c9 1D       		.byte	0x1d
 5756 09ca 94090000 		.4byte	0x994
 5757 09ce 04       		.uleb128 0x4
 5758 09cf 3D110000 		.4byte	.LASF136
 5759 09d3 0D       		.byte	0xd
 5760 09d4 2A       		.byte	0x2a
 5761 09d5 1D       		.byte	0x1d
 5762 09d6 66090000 		.4byte	0x966
 5763 09da 04       		.uleb128 0x4
 5764 09db 631E0000 		.4byte	.LASF137
 5765 09df 0D       		.byte	0xd
 5766 09e0 2B       		.byte	0x2b
 5767 09e1 1D       		.byte	0x1d
 5768 09e2 66090000 		.4byte	0x966
 5769 09e6 04       		.uleb128 0x4
 5770 09e7 CD100000 		.4byte	.LASF138
 5771 09eb 0D       		.byte	0xd
 5772 09ec 2C       		.byte	0x2c
 5773 09ed 1D       		.byte	0x1d
 5774 09ee 66090000 		.4byte	0x966
 5775 09f2 04       		.uleb128 0x4
 5776 09f3 82060000 		.4byte	.LASF139
 5777 09f7 0D       		.byte	0xd
 5778 09f8 2E       		.byte	0x2e
 5779 09f9 1D       		.byte	0x1d
 5780 09fa 94090000 		.4byte	0x994
 5781 09fe 04       		.uleb128 0x4
 5782 09ff 9A000000 		.4byte	.LASF140
 5783 0a03 0D       		.byte	0xd
 5784 0a04 2F       		.byte	0x2f
 5785 0a05 1D       		.byte	0x1d
 5786 0a06 83090000 		.4byte	0x983
 5787 0a0a 04       		.uleb128 0x4
ARM GAS  /tmp/ccfraM8n.s 			page 103


 5788 0a0b DD170000 		.4byte	.LASF141
 5789 0a0f 0D       		.byte	0xd
 5790 0a10 31       		.byte	0x31
 5791 0a11 1D       		.byte	0x1d
 5792 0a12 94090000 		.4byte	0x994
 5793 0a16 04       		.uleb128 0x4
 5794 0a17 A2200000 		.4byte	.LASF142
 5795 0a1b 0D       		.byte	0xd
 5796 0a1c 32       		.byte	0x32
 5797 0a1d 1D       		.byte	0x1d
 5798 0a1e 94090000 		.4byte	0x994
 5799 0a22 04       		.uleb128 0x4
 5800 0a23 B4190000 		.4byte	.LASF143
 5801 0a27 0D       		.byte	0xd
 5802 0a28 33       		.byte	0x33
 5803 0a29 1D       		.byte	0x1d
 5804 0a2a 83090000 		.4byte	0x983
 5805 0a2e 04       		.uleb128 0x4
 5806 0a2f 06140000 		.4byte	.LASF144
 5807 0a33 0D       		.byte	0xd
 5808 0a34 34       		.byte	0x34
 5809 0a35 1D       		.byte	0x1d
 5810 0a36 94090000 		.4byte	0x994
 5811 0a3a 04       		.uleb128 0x4
 5812 0a3b CF030000 		.4byte	.LASF145
 5813 0a3f 0E       		.byte	0xe
 5814 0a40 34       		.byte	0x34
 5815 0a41 1A       		.byte	0x1a
 5816 0a42 460A0000 		.4byte	0xa46
 5817 0a46 10       		.uleb128 0x10
 5818 0a47 0A090000 		.4byte	.LASF146
 5819 0a4b 44       		.byte	0x44
 5820 0a4c 0F       		.byte	0xf
 5821 0a4d 8E       		.byte	0x8e
 5822 0a4e 08       		.byte	0x8
 5823 0a4f 360B0000 		.4byte	0xb36
 5824 0a53 0C       		.uleb128 0xc
 5825 0a54 521D0000 		.4byte	.LASF147
 5826 0a58 0F       		.byte	0xf
 5827 0a59 8F       		.byte	0x8f
 5828 0a5a 19       		.byte	0x19
 5829 0a5b 6F0B0000 		.4byte	0xb6f
 5830 0a5f 00       		.byte	0
 5831 0a60 0C       		.uleb128 0xc
 5832 0a61 BE010000 		.4byte	.LASF148
 5833 0a65 0F       		.byte	0xf
 5834 0a66 90       		.byte	0x90
 5835 0a67 19       		.byte	0x19
 5836 0a68 F2090000 		.4byte	0x9f2
 5837 0a6c 08       		.byte	0x8
 5838 0a6d 11       		.uleb128 0x11
 5839 0a6e 63747800 		.ascii	"ctx\000"
 5840 0a72 0F       		.byte	0xf
 5841 0a73 91       		.byte	0x91
 5842 0a74 19       		.byte	0x19
 5843 0a75 C61B0000 		.4byte	0x1bc6
 5844 0a79 0C       		.byte	0xc
ARM GAS  /tmp/ccfraM8n.s 			page 104


 5845 0a7a 0C       		.uleb128 0xc
 5846 0a7b 0A080000 		.4byte	.LASF149
 5847 0a7f 0F       		.byte	0xf
 5848 0a80 93       		.byte	0x93
 5849 0a81 1A       		.byte	0x1a
 5850 0a82 420B0000 		.4byte	0xb42
 5851 0a86 10       		.byte	0x10
 5852 0a87 0C       		.uleb128 0xc
 5853 0a88 8C020000 		.4byte	.LASF150
 5854 0a8c 0F       		.byte	0xf
 5855 0a8d 94       		.byte	0x94
 5856 0a8e 1A       		.byte	0x1a
 5857 0a8f 420B0000 		.4byte	0xb42
 5858 0a93 14       		.byte	0x14
 5859 0a94 0C       		.uleb128 0xc
 5860 0a95 5B120000 		.4byte	.LASF151
 5861 0a99 0F       		.byte	0xf
 5862 0a9a 9B       		.byte	0x9b
 5863 0a9b 1A       		.byte	0x1a
 5864 0a9c AF060000 		.4byte	0x6af
 5865 0aa0 18       		.byte	0x18
 5866 0aa1 0C       		.uleb128 0xc
 5867 0aa2 52150000 		.4byte	.LASF152
 5868 0aa6 0F       		.byte	0xf
 5869 0aa7 A4       		.byte	0xa4
 5870 0aa8 1A       		.byte	0x1a
 5871 0aa9 531E0000 		.4byte	0x1e53
 5872 0aad 1C       		.byte	0x1c
 5873 0aae 0C       		.uleb128 0xc
 5874 0aaf EB140000 		.4byte	.LASF153
 5875 0ab3 0F       		.byte	0xf
 5876 0ab4 A9       		.byte	0xa9
 5877 0ab5 19       		.byte	0x19
 5878 0ab6 DA090000 		.4byte	0x9da
 5879 0aba 20       		.byte	0x20
 5880 0abb 0C       		.uleb128 0xc
 5881 0abc 11240000 		.4byte	.LASF154
 5882 0ac0 0F       		.byte	0xf
 5883 0ac1 AD       		.byte	0xad
 5884 0ac2 19       		.byte	0x19
 5885 0ac3 CE090000 		.4byte	0x9ce
 5886 0ac7 21       		.byte	0x21
 5887 0ac8 0C       		.uleb128 0xc
 5888 0ac9 1D050000 		.4byte	.LASF155
 5889 0acd 0F       		.byte	0xf
 5890 0ace B2       		.byte	0xb2
 5891 0acf 19       		.byte	0x19
 5892 0ad0 E6090000 		.4byte	0x9e6
 5893 0ad4 22       		.byte	0x22
 5894 0ad5 18       		.uleb128 0x18
 5895 0ad6 7500     		.ascii	"u\000"
 5896 0ad8 0F       		.byte	0xf
 5897 0ad9 0301     		.2byte	0x103
 5898 0adb 19       		.byte	0x19
 5899 0adc 791D0000 		.4byte	0x1d79
 5900 0ae0 24       		.byte	0x24
 5901 0ae1 17       		.uleb128 0x17
ARM GAS  /tmp/ccfraM8n.s 			page 105


 5902 0ae2 AE1B0000 		.4byte	.LASF156
 5903 0ae6 0F       		.byte	0xf
 5904 0ae7 0801     		.2byte	0x108
 5905 0ae9 19       		.byte	0x19
 5906 0aea 480B0000 		.4byte	0xb48
 5907 0aee 28       		.byte	0x28
 5908 0aef 17       		.uleb128 0x17
 5909 0af0 9B140000 		.4byte	.LASF157
 5910 0af4 0F       		.byte	0xf
 5911 0af5 0E01     		.2byte	0x10e
 5912 0af7 19       		.byte	0x19
 5913 0af8 6F0B0000 		.4byte	0xb6f
 5914 0afc 2C       		.byte	0x2c
 5915 0afd 17       		.uleb128 0x17
 5916 0afe 4E010000 		.4byte	.LASF158
 5917 0b02 0F       		.byte	0xf
 5918 0b03 1401     		.2byte	0x114
 5919 0b05 19       		.byte	0x19
 5920 0b06 0A0A0000 		.4byte	0xa0a
 5921 0b0a 34       		.byte	0x34
 5922 0b0b 17       		.uleb128 0x17
 5923 0b0c 39050000 		.4byte	.LASF159
 5924 0b10 0F       		.byte	0xf
 5925 0b11 1B01     		.2byte	0x11b
 5926 0b13 1A       		.byte	0x1a
 5927 0b14 4D1E0000 		.4byte	0x1e4d
 5928 0b18 38       		.byte	0x38
 5929 0b19 17       		.uleb128 0x17
 5930 0b1a EC230000 		.4byte	.LASF160
 5931 0b1e 0F       		.byte	0xf
 5932 0b1f 1F01     		.2byte	0x11f
 5933 0b21 19       		.byte	0x19
 5934 0b22 F2090000 		.4byte	0x9f2
 5935 0b26 3C       		.byte	0x3c
 5936 0b27 17       		.uleb128 0x17
 5937 0b28 E3150000 		.4byte	.LASF161
 5938 0b2c 0F       		.byte	0xf
 5939 0b2d 2601     		.2byte	0x126
 5940 0b2f 1A       		.byte	0x1a
 5941 0b30 46010000 		.4byte	0x146
 5942 0b34 40       		.byte	0x40
 5943 0b35 00       		.byte	0
 5944 0b36 04       		.uleb128 0x4
 5945 0b37 8F210000 		.4byte	.LASF162
 5946 0b3b 0E       		.byte	0xe
 5947 0b3c 39       		.byte	0x39
 5948 0b3d 14       		.byte	0x14
 5949 0b3e 420B0000 		.4byte	0xb42
 5950 0b42 0E       		.uleb128 0xe
 5951 0b43 04       		.byte	0x4
 5952 0b44 3A0A0000 		.4byte	0xa3a
 5953 0b48 04       		.uleb128 0x4
 5954 0b49 92050000 		.4byte	.LASF163
 5955 0b4d 0E       		.byte	0xe
 5956 0b4e 3E       		.byte	0x3e
 5957 0b4f 20       		.byte	0x20
 5958 0b50 540B0000 		.4byte	0xb54
ARM GAS  /tmp/ccfraM8n.s 			page 106


 5959 0b54 10       		.uleb128 0x10
 5960 0b55 1E240000 		.4byte	.LASF164
 5961 0b59 04       		.byte	0x4
 5962 0b5a 0F       		.byte	0xf
 5963 0b5b 7C       		.byte	0x7c
 5964 0b5c 08       		.byte	0x8
 5965 0b5d 6F0B0000 		.4byte	0xb6f
 5966 0b61 0C       		.uleb128 0xc
 5967 0b62 87020000 		.4byte	.LASF165
 5968 0b66 0F       		.byte	0xf
 5969 0b67 7D       		.byte	0x7d
 5970 0b68 1A       		.byte	0x1a
 5971 0b69 420B0000 		.4byte	0xb42
 5972 0b6d 00       		.byte	0
 5973 0b6e 00       		.byte	0
 5974 0b6f 04       		.uleb128 0x4
 5975 0b70 00160000 		.4byte	.LASF166
 5976 0b74 0E       		.byte	0xe
 5977 0b75 45       		.byte	0x45
 5978 0b76 21       		.byte	0x21
 5979 0b77 7B0B0000 		.4byte	0xb7b
 5980 0b7b 10       		.uleb128 0x10
 5981 0b7c E8020000 		.4byte	.LASF167
 5982 0b80 08       		.byte	0x8
 5983 0b81 0F       		.byte	0xf
 5984 0b82 83       		.byte	0x83
 5985 0b83 08       		.byte	0x8
 5986 0b84 A30B0000 		.4byte	0xba3
 5987 0b88 0C       		.uleb128 0xc
 5988 0b89 87020000 		.4byte	.LASF165
 5989 0b8d 0F       		.byte	0xf
 5990 0b8e 84       		.byte	0x84
 5991 0b8f 1A       		.byte	0x1a
 5992 0b90 420B0000 		.4byte	0xb42
 5993 0b94 00       		.byte	0
 5994 0b95 0C       		.uleb128 0xc
 5995 0b96 AA230000 		.4byte	.LASF168
 5996 0b9a 0F       		.byte	0xf
 5997 0b9b 85       		.byte	0x85
 5998 0b9c 1A       		.byte	0x1a
 5999 0b9d 420B0000 		.4byte	0xb42
 6000 0ba1 04       		.byte	0x4
 6001 0ba2 00       		.byte	0
 6002 0ba3 04       		.uleb128 0x4
 6003 0ba4 FD080000 		.4byte	.LASF169
 6004 0ba8 0E       		.byte	0xe
 6005 0ba9 4C       		.byte	0x4c
 6006 0baa 1E       		.byte	0x1e
 6007 0bab AF0B0000 		.4byte	0xbaf
 6008 0baf 16       		.uleb128 0x16
 6009 0bb0 B61B0000 		.4byte	.LASF170
 6010 0bb4 1C       		.byte	0x1c
 6011 0bb5 0F       		.byte	0xf
 6012 0bb6 5E01     		.2byte	0x15e
 6013 0bb8 08       		.byte	0x8
 6014 0bb9 120C0000 		.4byte	0xc12
 6015 0bbd 17       		.uleb128 0x17
ARM GAS  /tmp/ccfraM8n.s 			page 107


 6016 0bbe 521D0000 		.4byte	.LASF147
 6017 0bc2 0F       		.byte	0xf
 6018 0bc3 5F01     		.2byte	0x15f
 6019 0bc5 19       		.byte	0x19
 6020 0bc6 6F0B0000 		.4byte	0xb6f
 6021 0bca 00       		.byte	0
 6022 0bcb 17       		.uleb128 0x17
 6023 0bcc BE010000 		.4byte	.LASF148
 6024 0bd0 0F       		.byte	0xf
 6025 0bd1 6001     		.2byte	0x160
 6026 0bd3 19       		.byte	0x19
 6027 0bd4 F2090000 		.4byte	0x9f2
 6028 0bd8 08       		.byte	0x8
 6029 0bd9 18       		.uleb128 0x18
 6030 0bda 63747800 		.ascii	"ctx\000"
 6031 0bde 0F       		.byte	0xf
 6032 0bdf 6201     		.2byte	0x162
 6033 0be1 19       		.byte	0x19
 6034 0be2 C61B0000 		.4byte	0x1bc6
 6035 0be6 0C       		.byte	0xc
 6036 0be7 17       		.uleb128 0x17
 6037 0be8 0A080000 		.4byte	.LASF149
 6038 0bec 0F       		.byte	0xf
 6039 0bed 6501     		.2byte	0x165
 6040 0bef 1A       		.byte	0x1a
 6041 0bf0 420B0000 		.4byte	0xb42
 6042 0bf4 10       		.byte	0x10
 6043 0bf5 17       		.uleb128 0x17
 6044 0bf6 8C020000 		.4byte	.LASF150
 6045 0bfa 0F       		.byte	0xf
 6046 0bfb 6601     		.2byte	0x166
 6047 0bfd 1A       		.byte	0x1a
 6048 0bfe 420B0000 		.4byte	0xb42
 6049 0c02 14       		.byte	0x14
 6050 0c03 17       		.uleb128 0x17
 6051 0c04 28140000 		.4byte	.LASF171
 6052 0c08 0F       		.byte	0xf
 6053 0c09 6901     		.2byte	0x169
 6054 0c0b 1A       		.byte	0x1a
 6055 0c0c 420B0000 		.4byte	0xb42
 6056 0c10 18       		.byte	0x18
 6057 0c11 00       		.byte	0
 6058 0c12 04       		.uleb128 0x4
 6059 0c13 B41A0000 		.4byte	.LASF172
 6060 0c17 0E       		.byte	0xe
 6061 0c18 51       		.byte	0x51
 6062 0c19 10       		.byte	0x10
 6063 0c1a 1E0C0000 		.4byte	0xc1e
 6064 0c1e 0E       		.uleb128 0xe
 6065 0c1f 04       		.byte	0x4
 6066 0c20 240C0000 		.4byte	0xc24
 6067 0c24 1B       		.uleb128 0x1b
 6068 0c25 2F0C0000 		.4byte	0xc2f
 6069 0c29 1A       		.uleb128 0x1a
 6070 0c2a 46010000 		.4byte	0x146
 6071 0c2e 00       		.byte	0
 6072 0c2f 04       		.uleb128 0x4
ARM GAS  /tmp/ccfraM8n.s 			page 108


 6073 0c30 7D0B0000 		.4byte	.LASF173
 6074 0c34 0E       		.byte	0xe
 6075 0c35 56       		.byte	0x56
 6076 0c36 21       		.byte	0x21
 6077 0c37 3B0C0000 		.4byte	0xc3b
 6078 0c3b 16       		.uleb128 0x16
 6079 0c3c 1A1E0000 		.4byte	.LASF174
 6080 0c40 14       		.byte	0x14
 6081 0c41 0F       		.byte	0xf
 6082 0c42 3901     		.2byte	0x139
 6083 0c44 08       		.byte	0x8
 6084 0c45 900C0000 		.4byte	0xc90
 6085 0c49 17       		.uleb128 0x17
 6086 0c4a 87020000 		.4byte	.LASF165
 6087 0c4e 0F       		.byte	0xf
 6088 0c4f 3A01     		.2byte	0x13a
 6089 0c51 1A       		.byte	0x1a
 6090 0c52 591E0000 		.4byte	0x1e59
 6091 0c56 00       		.byte	0
 6092 0c57 17       		.uleb128 0x17
 6093 0c58 AA230000 		.4byte	.LASF168
 6094 0c5c 0F       		.byte	0xf
 6095 0c5d 3B01     		.2byte	0x13b
 6096 0c5f 1A       		.byte	0x1a
 6097 0c60 591E0000 		.4byte	0x1e59
 6098 0c64 04       		.byte	0x4
 6099 0c65 17       		.uleb128 0x17
 6100 0c66 B0090000 		.4byte	.LASF175
 6101 0c6a 0F       		.byte	0xf
 6102 0c6b 3C01     		.2byte	0x13c
 6103 0c6d 19       		.byte	0x19
 6104 0c6e 8A0D0000 		.4byte	0xd8a
 6105 0c72 08       		.byte	0x8
 6106 0c73 17       		.uleb128 0x17
 6107 0c74 66150000 		.4byte	.LASF176
 6108 0c78 0F       		.byte	0xf
 6109 0c79 3D01     		.2byte	0x13d
 6110 0c7b 19       		.byte	0x19
 6111 0c7c 120C0000 		.4byte	0xc12
 6112 0c80 0C       		.byte	0xc
 6113 0c81 18       		.uleb128 0x18
 6114 0c82 70617200 		.ascii	"par\000"
 6115 0c86 0F       		.byte	0xf
 6116 0c87 3F01     		.2byte	0x13f
 6117 0c89 1A       		.byte	0x1a
 6118 0c8a 46010000 		.4byte	0x146
 6119 0c8e 10       		.byte	0x10
 6120 0c8f 00       		.byte	0
 6121 0c90 04       		.uleb128 0x4
 6122 0c91 721F0000 		.4byte	.LASF177
 6123 0c95 0E       		.byte	0xe
 6124 0c96 5B       		.byte	0x5b
 6125 0c97 28       		.byte	0x28
 6126 0c98 9C0C0000 		.4byte	0xc9c
 6127 0c9c 16       		.uleb128 0x16
 6128 0c9d E3030000 		.4byte	.LASF178
 6129 0ca1 10       		.byte	0x10
ARM GAS  /tmp/ccfraM8n.s 			page 109


 6130 0ca2 0F       		.byte	0xf
 6131 0ca3 4901     		.2byte	0x149
 6132 0ca5 08       		.byte	0x8
 6133 0ca6 E30C0000 		.4byte	0xce3
 6134 0caa 17       		.uleb128 0x17
 6135 0cab 87020000 		.4byte	.LASF165
 6136 0caf 0F       		.byte	0xf
 6137 0cb0 4A01     		.2byte	0x14a
 6138 0cb2 1A       		.byte	0x1a
 6139 0cb3 591E0000 		.4byte	0x1e59
 6140 0cb7 00       		.byte	0
 6141 0cb8 17       		.uleb128 0x17
 6142 0cb9 AA230000 		.4byte	.LASF168
 6143 0cbd 0F       		.byte	0xf
 6144 0cbe 4C01     		.2byte	0x14c
 6145 0cc0 1A       		.byte	0x1a
 6146 0cc1 591E0000 		.4byte	0x1e59
 6147 0cc5 04       		.byte	0x4
 6148 0cc6 17       		.uleb128 0x17
 6149 0cc7 B0090000 		.4byte	.LASF175
 6150 0ccb 0F       		.byte	0xf
 6151 0ccc 4E01     		.2byte	0x14e
 6152 0cce 19       		.byte	0x19
 6153 0ccf 8A0D0000 		.4byte	0xd8a
 6154 0cd3 08       		.byte	0x8
 6155 0cd4 17       		.uleb128 0x17
 6156 0cd5 7B140000 		.4byte	.LASF179
 6157 0cd9 0F       		.byte	0xf
 6158 0cda 5601     		.2byte	0x156
 6159 0cdc 19       		.byte	0x19
 6160 0cdd 7E0D0000 		.4byte	0xd7e
 6161 0ce1 0C       		.byte	0xc
 6162 0ce2 00       		.byte	0
 6163 0ce3 04       		.uleb128 0x4
 6164 0ce4 81090000 		.4byte	.LASF180
 6165 0ce8 0E       		.byte	0xe
 6166 0ce9 60       		.byte	0x60
 6167 0cea 20       		.byte	0x20
 6168 0ceb EF0C0000 		.4byte	0xcef
 6169 0cef 1D       		.uleb128 0x1d
 6170 0cf0 F91B0000 		.4byte	.LASF181
 6171 0cf4 0C08     		.2byte	0x80c
 6172 0cf6 0F       		.byte	0xf
 6173 0cf7 7001     		.2byte	0x170
 6174 0cf9 08       		.byte	0x8
 6175 0cfa 1B0D0000 		.4byte	0xd1b
 6176 0cfe 17       		.uleb128 0x17
 6177 0cff 6D120000 		.4byte	.LASF182
 6178 0d03 0F       		.byte	0xf
 6179 0d04 7801     		.2byte	0x178
 6180 0d06 24       		.byte	0x24
 6181 0d07 B5060000 		.4byte	0x6b5
 6182 0d0b 00       		.byte	0
 6183 0d0c 17       		.uleb128 0x17
 6184 0d0d 171A0000 		.4byte	.LASF183
 6185 0d11 0F       		.byte	0xf
 6186 0d12 8701     		.2byte	0x187
ARM GAS  /tmp/ccfraM8n.s 			page 110


 6187 0d14 19       		.byte	0x19
 6188 0d15 4A1D0000 		.4byte	0x1d4a
 6189 0d19 04       		.byte	0x4
 6190 0d1a 00       		.byte	0
 6191 0d1b 04       		.uleb128 0x4
 6192 0d1c 2B010000 		.4byte	.LASF184
 6193 0d20 0E       		.byte	0xe
 6194 0d21 65       		.byte	0x65
 6195 0d22 1A       		.byte	0x1a
 6196 0d23 270D0000 		.4byte	0xd27
 6197 0d27 1D       		.uleb128 0x1d
 6198 0d28 42150000 		.4byte	.LASF185
 6199 0d2c 8008     		.2byte	0x880
 6200 0d2e 0F       		.byte	0xf
 6201 0d2f 9001     		.2byte	0x190
 6202 0d31 08       		.byte	0x8
 6203 0d32 7E0D0000 		.4byte	0xd7e
 6204 0d36 17       		.uleb128 0x17
 6205 0d37 8C050000 		.4byte	.LASF186
 6206 0d3b 0F       		.byte	0xf
 6207 0d3c 9401     		.2byte	0x194
 6208 0d3e 19       		.byte	0x19
 6209 0d3f A30B0000 		.4byte	0xba3
 6210 0d43 00       		.byte	0
 6211 0d44 17       		.uleb128 0x17
 6212 0d45 68050000 		.4byte	.LASF187
 6213 0d49 0F       		.byte	0xf
 6214 0d4a 9801     		.2byte	0x198
 6215 0d4c 19       		.byte	0x19
 6216 0d4d 900C0000 		.4byte	0xc90
 6217 0d51 1C       		.byte	0x1c
 6218 0d52 18       		.uleb128 0x18
 6219 0d53 64626700 		.ascii	"dbg\000"
 6220 0d57 0F       		.byte	0xf
 6221 0d58 9C01     		.2byte	0x19c
 6222 0d5a 19       		.byte	0x19
 6223 0d5b E30C0000 		.4byte	0xce3
 6224 0d5f 2C       		.byte	0x2c
 6225 0d60 1E       		.uleb128 0x1e
 6226 0d61 58160000 		.4byte	.LASF188
 6227 0d65 0F       		.byte	0xf
 6228 0d66 A001     		.2byte	0x1a0
 6229 0d68 19       		.byte	0x19
 6230 0d69 3A0A0000 		.4byte	0xa3a
 6231 0d6d 3808     		.2byte	0x838
 6232 0d6f 1F       		.uleb128 0x1f
 6233 0d70 746D00   		.ascii	"tm\000"
 6234 0d73 0F       		.byte	0xf
 6235 0d74 A501     		.2byte	0x1a5
 6236 0d76 19       		.byte	0x19
 6237 0d77 6D1D0000 		.4byte	0x1d6d
 6238 0d7b 7C08     		.2byte	0x87c
 6239 0d7d 00       		.byte	0
 6240 0d7e 04       		.uleb128 0x4
 6241 0d7f 11040000 		.4byte	.LASF189
 6242 0d83 10       		.byte	0x10
 6243 0d84 6D       		.byte	0x6d
ARM GAS  /tmp/ccfraM8n.s 			page 111


 6244 0d85 12       		.byte	0x12
 6245 0d86 94090000 		.4byte	0x994
 6246 0d8a 04       		.uleb128 0x4
 6247 0d8b 5D1B0000 		.4byte	.LASF190
 6248 0d8f 10       		.byte	0x10
 6249 0d90 79       		.byte	0x79
 6250 0d91 12       		.byte	0x12
 6251 0d92 94090000 		.4byte	0x994
 6252 0d96 09       		.uleb128 0x9
 6253 0d97 94090000 		.4byte	0x994
 6254 0d9b A60D0000 		.4byte	0xda6
 6255 0d9f 0A       		.uleb128 0xa
 6256 0da0 25000000 		.4byte	0x25
 6257 0da4 01       		.byte	0x1
 6258 0da5 00       		.byte	0
 6259 0da6 09       		.uleb128 0x9
 6260 0da7 94090000 		.4byte	0x994
 6261 0dab B60D0000 		.4byte	0xdb6
 6262 0daf 0A       		.uleb128 0xa
 6263 0db0 25000000 		.4byte	0x25
 6264 0db4 07       		.byte	0x7
 6265 0db5 00       		.byte	0
 6266 0db6 1C       		.uleb128 0x1c
 6267 0db7 671D0000 		.4byte	.LASF191
 6268 0dbb 11       		.byte	0x11
 6269 0dbc 220A     		.2byte	0xa22
 6270 0dbe 19       		.byte	0x19
 6271 0dbf 8F090000 		.4byte	0x98f
 6272 0dc3 20       		.uleb128 0x20
 6273 0dc4 BA140000 		.4byte	.LASF192
 6274 0dc8 12       		.byte	0x12
 6275 0dc9 3A       		.byte	0x3a
 6276 0dca 11       		.byte	0x11
 6277 0dcb 94090000 		.4byte	0x994
 6278 0dcf 20       		.uleb128 0x20
 6279 0dd0 1C070000 		.4byte	.LASF193
 6280 0dd4 12       		.byte	0x12
 6281 0dd5 3B       		.byte	0x3b
 6282 0dd6 11       		.byte	0x11
 6283 0dd7 94090000 		.4byte	0x994
 6284 0ddb 09       		.uleb128 0x9
 6285 0ddc 72090000 		.4byte	0x972
 6286 0de0 EB0D0000 		.4byte	0xdeb
 6287 0de4 0A       		.uleb128 0xa
 6288 0de5 25000000 		.4byte	0x25
 6289 0de9 0F       		.byte	0xf
 6290 0dea 00       		.byte	0
 6291 0deb 15       		.uleb128 0x15
 6292 0dec DB0D0000 		.4byte	0xddb
 6293 0df0 20       		.uleb128 0x20
 6294 0df1 AA1F0000 		.4byte	.LASF194
 6295 0df5 12       		.byte	0x12
 6296 0df6 3C       		.byte	0x3c
 6297 0df7 17       		.byte	0x17
 6298 0df8 EB0D0000 		.4byte	0xdeb
 6299 0dfc 0B       		.uleb128 0xb
 6300 0dfd CC       		.byte	0xcc
ARM GAS  /tmp/ccfraM8n.s 			page 112


 6301 0dfe 13       		.byte	0x13
 6302 0dff F5       		.byte	0xf5
 6303 0e00 09       		.byte	0x9
 6304 0e01 47100000 		.4byte	0x1047
 6305 0e05 11       		.uleb128 0x11
 6306 0e06 49535200 		.ascii	"ISR\000"
 6307 0e0a 13       		.byte	0x13
 6308 0e0b F7       		.byte	0xf7
 6309 0e0c 11       		.byte	0x11
 6310 0e0d A0090000 		.4byte	0x9a0
 6311 0e11 00       		.byte	0
 6312 0e12 11       		.uleb128 0x11
 6313 0e13 49455200 		.ascii	"IER\000"
 6314 0e17 13       		.byte	0x13
 6315 0e18 F8       		.byte	0xf8
 6316 0e19 11       		.byte	0x11
 6317 0e1a A0090000 		.4byte	0x9a0
 6318 0e1e 04       		.byte	0x4
 6319 0e1f 11       		.uleb128 0x11
 6320 0e20 435200   		.ascii	"CR\000"
 6321 0e23 13       		.byte	0x13
 6322 0e24 F9       		.byte	0xf9
 6323 0e25 11       		.byte	0x11
 6324 0e26 A0090000 		.4byte	0x9a0
 6325 0e2a 08       		.byte	0x8
 6326 0e2b 0C       		.uleb128 0xc
 6327 0e2c 3A130000 		.4byte	.LASF195
 6328 0e30 13       		.byte	0x13
 6329 0e31 FA       		.byte	0xfa
 6330 0e32 11       		.byte	0x11
 6331 0e33 A0090000 		.4byte	0x9a0
 6332 0e37 0C       		.byte	0xc
 6333 0e38 0C       		.uleb128 0xc
 6334 0e39 4C1D0000 		.4byte	.LASF196
 6335 0e3d 13       		.byte	0x13
 6336 0e3e FB       		.byte	0xfb
 6337 0e3f 11       		.byte	0x11
 6338 0e40 A0090000 		.4byte	0x9a0
 6339 0e44 10       		.byte	0x10
 6340 0e45 0C       		.uleb128 0xc
 6341 0e46 1B030000 		.4byte	.LASF197
 6342 0e4a 13       		.byte	0x13
 6343 0e4b FC       		.byte	0xfc
 6344 0e4c 11       		.byte	0x11
 6345 0e4d A0090000 		.4byte	0x9a0
 6346 0e51 14       		.byte	0x14
 6347 0e52 0C       		.uleb128 0xc
 6348 0e53 21030000 		.4byte	.LASF198
 6349 0e57 13       		.byte	0x13
 6350 0e58 FD       		.byte	0xfd
 6351 0e59 11       		.byte	0x11
 6352 0e5a A0090000 		.4byte	0x9a0
 6353 0e5e 18       		.byte	0x18
 6354 0e5f 0C       		.uleb128 0xc
 6355 0e60 D50E0000 		.4byte	.LASF199
 6356 0e64 13       		.byte	0x13
 6357 0e65 FE       		.byte	0xfe
ARM GAS  /tmp/ccfraM8n.s 			page 113


 6358 0e66 11       		.byte	0x11
 6359 0e67 A0090000 		.4byte	0x9a0
 6360 0e6b 1C       		.byte	0x1c
 6361 0e6c 0C       		.uleb128 0xc
 6362 0e6d 1B0E0000 		.4byte	.LASF200
 6363 0e71 13       		.byte	0x13
 6364 0e72 FF       		.byte	0xff
 6365 0e73 11       		.byte	0x11
 6366 0e74 A0090000 		.4byte	0x9a0
 6367 0e78 20       		.byte	0x20
 6368 0e79 17       		.uleb128 0x17
 6369 0e7a C8100000 		.4byte	.LASF201
 6370 0e7e 13       		.byte	0x13
 6371 0e7f 0001     		.2byte	0x100
 6372 0e81 11       		.byte	0x11
 6373 0e82 A0090000 		.4byte	0x9a0
 6374 0e86 24       		.byte	0x24
 6375 0e87 17       		.uleb128 0x17
 6376 0e88 A31C0000 		.4byte	.LASF202
 6377 0e8c 13       		.byte	0x13
 6378 0e8d 0101     		.2byte	0x101
 6379 0e8f 11       		.byte	0x11
 6380 0e90 94090000 		.4byte	0x994
 6381 0e94 28       		.byte	0x28
 6382 0e95 17       		.uleb128 0x17
 6383 0e96 AD1C0000 		.4byte	.LASF203
 6384 0e9a 13       		.byte	0x13
 6385 0e9b 0201     		.2byte	0x102
 6386 0e9d 11       		.byte	0x11
 6387 0e9e 94090000 		.4byte	0x994
 6388 0ea2 2C       		.byte	0x2c
 6389 0ea3 17       		.uleb128 0x17
 6390 0ea4 58110000 		.4byte	.LASF204
 6391 0ea8 13       		.byte	0x13
 6392 0ea9 0301     		.2byte	0x103
 6393 0eab 11       		.byte	0x11
 6394 0eac A0090000 		.4byte	0x9a0
 6395 0eb0 30       		.byte	0x30
 6396 0eb1 17       		.uleb128 0x17
 6397 0eb2 5D110000 		.4byte	.LASF205
 6398 0eb6 13       		.byte	0x13
 6399 0eb7 0401     		.2byte	0x104
 6400 0eb9 11       		.byte	0x11
 6401 0eba A0090000 		.4byte	0x9a0
 6402 0ebe 34       		.byte	0x34
 6403 0ebf 17       		.uleb128 0x17
 6404 0ec0 62110000 		.4byte	.LASF206
 6405 0ec4 13       		.byte	0x13
 6406 0ec5 0501     		.2byte	0x105
 6407 0ec7 11       		.byte	0x11
 6408 0ec8 A0090000 		.4byte	0x9a0
 6409 0ecc 38       		.byte	0x38
 6410 0ecd 17       		.uleb128 0x17
 6411 0ece 67110000 		.4byte	.LASF207
 6412 0ed2 13       		.byte	0x13
 6413 0ed3 0601     		.2byte	0x106
 6414 0ed5 11       		.byte	0x11
ARM GAS  /tmp/ccfraM8n.s 			page 114


 6415 0ed6 A0090000 		.4byte	0x9a0
 6416 0eda 3C       		.byte	0x3c
 6417 0edb 18       		.uleb128 0x18
 6418 0edc 445200   		.ascii	"DR\000"
 6419 0edf 13       		.byte	0x13
 6420 0ee0 0701     		.2byte	0x107
 6421 0ee2 11       		.byte	0x11
 6422 0ee3 A0090000 		.4byte	0x9a0
 6423 0ee7 40       		.byte	0x40
 6424 0ee8 17       		.uleb128 0x17
 6425 0ee9 B71C0000 		.4byte	.LASF208
 6426 0eed 13       		.byte	0x13
 6427 0eee 0801     		.2byte	0x108
 6428 0ef0 11       		.byte	0x11
 6429 0ef1 94090000 		.4byte	0x994
 6430 0ef5 44       		.byte	0x44
 6431 0ef6 17       		.uleb128 0x17
 6432 0ef7 C11C0000 		.4byte	.LASF209
 6433 0efb 13       		.byte	0x13
 6434 0efc 0901     		.2byte	0x109
 6435 0efe 11       		.byte	0x11
 6436 0eff 94090000 		.4byte	0x994
 6437 0f03 48       		.byte	0x48
 6438 0f04 17       		.uleb128 0x17
 6439 0f05 360B0000 		.4byte	.LASF210
 6440 0f09 13       		.byte	0x13
 6441 0f0a 0A01     		.2byte	0x10a
 6442 0f0c 11       		.byte	0x11
 6443 0f0d A0090000 		.4byte	0x9a0
 6444 0f11 4C       		.byte	0x4c
 6445 0f12 17       		.uleb128 0x17
 6446 0f13 CB1C0000 		.4byte	.LASF211
 6447 0f17 13       		.byte	0x13
 6448 0f18 0B01     		.2byte	0x10b
 6449 0f1a 11       		.byte	0x11
 6450 0f1b 47100000 		.4byte	0x1047
 6451 0f1f 50       		.byte	0x50
 6452 0f20 17       		.uleb128 0x17
 6453 0f21 AB110000 		.4byte	.LASF212
 6454 0f25 13       		.byte	0x13
 6455 0f26 0C01     		.2byte	0x10c
 6456 0f28 11       		.byte	0x11
 6457 0f29 A0090000 		.4byte	0x9a0
 6458 0f2d 60       		.byte	0x60
 6459 0f2e 17       		.uleb128 0x17
 6460 0f2f B0110000 		.4byte	.LASF213
 6461 0f33 13       		.byte	0x13
 6462 0f34 0D01     		.2byte	0x10d
 6463 0f36 11       		.byte	0x11
 6464 0f37 A0090000 		.4byte	0x9a0
 6465 0f3b 64       		.byte	0x64
 6466 0f3c 17       		.uleb128 0x17
 6467 0f3d B5110000 		.4byte	.LASF214
 6468 0f41 13       		.byte	0x13
 6469 0f42 0E01     		.2byte	0x10e
 6470 0f44 11       		.byte	0x11
 6471 0f45 A0090000 		.4byte	0x9a0
ARM GAS  /tmp/ccfraM8n.s 			page 115


 6472 0f49 68       		.byte	0x68
 6473 0f4a 17       		.uleb128 0x17
 6474 0f4b BA110000 		.4byte	.LASF215
 6475 0f4f 13       		.byte	0x13
 6476 0f50 0F01     		.2byte	0x10f
 6477 0f52 11       		.byte	0x11
 6478 0f53 A0090000 		.4byte	0x9a0
 6479 0f57 6C       		.byte	0x6c
 6480 0f58 17       		.uleb128 0x17
 6481 0f59 D51C0000 		.4byte	.LASF216
 6482 0f5d 13       		.byte	0x13
 6483 0f5e 1001     		.2byte	0x110
 6484 0f60 11       		.byte	0x11
 6485 0f61 47100000 		.4byte	0x1047
 6486 0f65 70       		.byte	0x70
 6487 0f66 17       		.uleb128 0x17
 6488 0f67 021F0000 		.4byte	.LASF217
 6489 0f6b 13       		.byte	0x13
 6490 0f6c 1101     		.2byte	0x111
 6491 0f6e 11       		.byte	0x11
 6492 0f6f A0090000 		.4byte	0x9a0
 6493 0f73 80       		.byte	0x80
 6494 0f74 17       		.uleb128 0x17
 6495 0f75 071F0000 		.4byte	.LASF218
 6496 0f79 13       		.byte	0x13
 6497 0f7a 1201     		.2byte	0x112
 6498 0f7c 11       		.byte	0x11
 6499 0f7d A0090000 		.4byte	0x9a0
 6500 0f81 84       		.byte	0x84
 6501 0f82 17       		.uleb128 0x17
 6502 0f83 0C1F0000 		.4byte	.LASF219
 6503 0f87 13       		.byte	0x13
 6504 0f88 1301     		.2byte	0x113
 6505 0f8a 11       		.byte	0x11
 6506 0f8b A0090000 		.4byte	0x9a0
 6507 0f8f 88       		.byte	0x88
 6508 0f90 17       		.uleb128 0x17
 6509 0f91 111F0000 		.4byte	.LASF220
 6510 0f95 13       		.byte	0x13
 6511 0f96 1401     		.2byte	0x114
 6512 0f98 11       		.byte	0x11
 6513 0f99 A0090000 		.4byte	0x9a0
 6514 0f9d 8C       		.byte	0x8c
 6515 0f9e 17       		.uleb128 0x17
 6516 0f9f DF1C0000 		.4byte	.LASF221
 6517 0fa3 13       		.byte	0x13
 6518 0fa4 1501     		.2byte	0x115
 6519 0fa6 11       		.byte	0x11
 6520 0fa7 47100000 		.4byte	0x1047
 6521 0fab 90       		.byte	0x90
 6522 0fac 17       		.uleb128 0x17
 6523 0fad 17240000 		.4byte	.LASF222
 6524 0fb1 13       		.byte	0x13
 6525 0fb2 1601     		.2byte	0x116
 6526 0fb4 11       		.byte	0x11
 6527 0fb5 A0090000 		.4byte	0x9a0
 6528 0fb9 A0       		.byte	0xa0
ARM GAS  /tmp/ccfraM8n.s 			page 116


 6529 0fba 17       		.uleb128 0x17
 6530 0fbb 4F030000 		.4byte	.LASF223
 6531 0fbf 13       		.byte	0x13
 6532 0fc0 1701     		.2byte	0x117
 6533 0fc2 11       		.byte	0x11
 6534 0fc3 A0090000 		.4byte	0x9a0
 6535 0fc7 A4       		.byte	0xa4
 6536 0fc8 17       		.uleb128 0x17
 6537 0fc9 E91C0000 		.4byte	.LASF224
 6538 0fcd 13       		.byte	0x13
 6539 0fce 1801     		.2byte	0x118
 6540 0fd0 11       		.byte	0x11
 6541 0fd1 94090000 		.4byte	0x994
 6542 0fd5 A8       		.byte	0xa8
 6543 0fd6 17       		.uleb128 0x17
 6544 0fd7 F31C0000 		.4byte	.LASF225
 6545 0fdb 13       		.byte	0x13
 6546 0fdc 1901     		.2byte	0x119
 6547 0fde 11       		.byte	0x11
 6548 0fdf 94090000 		.4byte	0x994
 6549 0fe3 AC       		.byte	0xac
 6550 0fe4 17       		.uleb128 0x17
 6551 0fe5 200E0000 		.4byte	.LASF226
 6552 0fe9 13       		.byte	0x13
 6553 0fea 1A01     		.2byte	0x11a
 6554 0fec 11       		.byte	0x11
 6555 0fed A0090000 		.4byte	0x9a0
 6556 0ff1 B0       		.byte	0xb0
 6557 0ff2 17       		.uleb128 0x17
 6558 0ff3 D30F0000 		.4byte	.LASF227
 6559 0ff7 13       		.byte	0x13
 6560 0ff8 1B01     		.2byte	0x11b
 6561 0ffa 11       		.byte	0x11
 6562 0ffb A0090000 		.4byte	0x9a0
 6563 0fff B4       		.byte	0xb4
 6564 1000 17       		.uleb128 0x17
 6565 1001 250E0000 		.4byte	.LASF228
 6566 1005 13       		.byte	0x13
 6567 1006 1C01     		.2byte	0x11c
 6568 1008 11       		.byte	0x11
 6569 1009 A0090000 		.4byte	0x9a0
 6570 100d B8       		.byte	0xb8
 6571 100e 17       		.uleb128 0x17
 6572 100f D5100000 		.4byte	.LASF229
 6573 1013 13       		.byte	0x13
 6574 1014 1D01     		.2byte	0x11d
 6575 1016 11       		.byte	0x11
 6576 1017 A0090000 		.4byte	0x9a0
 6577 101b BC       		.byte	0xbc
 6578 101c 17       		.uleb128 0x17
 6579 101d E5060000 		.4byte	.LASF230
 6580 1021 13       		.byte	0x13
 6581 1022 1E01     		.2byte	0x11e
 6582 1024 11       		.byte	0x11
 6583 1025 A0090000 		.4byte	0x9a0
 6584 1029 C0       		.byte	0xc0
 6585 102a 17       		.uleb128 0x17
ARM GAS  /tmp/ccfraM8n.s 			page 117


 6586 102b 4A170000 		.4byte	.LASF231
 6587 102f 13       		.byte	0x13
 6588 1030 1F01     		.2byte	0x11f
 6589 1032 11       		.byte	0x11
 6590 1033 A0090000 		.4byte	0x9a0
 6591 1037 C4       		.byte	0xc4
 6592 1038 17       		.uleb128 0x17
 6593 1039 B8130000 		.4byte	.LASF232
 6594 103d 13       		.byte	0x13
 6595 103e 2001     		.2byte	0x120
 6596 1040 11       		.byte	0x11
 6597 1041 A0090000 		.4byte	0x9a0
 6598 1045 C8       		.byte	0xc8
 6599 1046 00       		.byte	0
 6600 1047 09       		.uleb128 0x9
 6601 1048 94090000 		.4byte	0x994
 6602 104c 57100000 		.4byte	0x1057
 6603 1050 0A       		.uleb128 0xa
 6604 1051 25000000 		.4byte	0x25
 6605 1055 03       		.byte	0x3
 6606 1056 00       		.byte	0
 6607 1057 06       		.uleb128 0x6
 6608 1058 CA130000 		.4byte	.LASF233
 6609 105c 13       		.byte	0x13
 6610 105d 2101     		.2byte	0x121
 6611 105f 03       		.byte	0x3
 6612 1060 FC0D0000 		.4byte	0xdfc
 6613 1064 21       		.uleb128 0x21
 6614 1065 14       		.byte	0x14
 6615 1066 13       		.byte	0x13
 6616 1067 2401     		.2byte	0x124
 6617 1069 09       		.byte	0x9
 6618 106a B5100000 		.4byte	0x10b5
 6619 106e 18       		.uleb128 0x18
 6620 106f 43535200 		.ascii	"CSR\000"
 6621 1073 13       		.byte	0x13
 6622 1074 2601     		.2byte	0x126
 6623 1076 0F       		.byte	0xf
 6624 1077 A0090000 		.4byte	0x9a0
 6625 107b 00       		.byte	0
 6626 107c 17       		.uleb128 0x17
 6627 107d 031E0000 		.4byte	.LASF234
 6628 1081 13       		.byte	0x13
 6629 1082 2701     		.2byte	0x127
 6630 1084 0A       		.byte	0xa
 6631 1085 94090000 		.4byte	0x994
 6632 1089 04       		.byte	0x4
 6633 108a 18       		.uleb128 0x18
 6634 108b 43435200 		.ascii	"CCR\000"
 6635 108f 13       		.byte	0x13
 6636 1090 2801     		.2byte	0x128
 6637 1092 0F       		.byte	0xf
 6638 1093 A0090000 		.4byte	0x9a0
 6639 1097 08       		.byte	0x8
 6640 1098 18       		.uleb128 0x18
 6641 1099 43445200 		.ascii	"CDR\000"
 6642 109d 13       		.byte	0x13
ARM GAS  /tmp/ccfraM8n.s 			page 118


 6643 109e 2901     		.2byte	0x129
 6644 10a0 0F       		.byte	0xf
 6645 10a1 A0090000 		.4byte	0x9a0
 6646 10a5 0C       		.byte	0xc
 6647 10a6 17       		.uleb128 0x17
 6648 10a7 60120000 		.4byte	.LASF235
 6649 10ab 13       		.byte	0x13
 6650 10ac 2A01     		.2byte	0x12a
 6651 10ae 0F       		.byte	0xf
 6652 10af A0090000 		.4byte	0x9a0
 6653 10b3 10       		.byte	0x10
 6654 10b4 00       		.byte	0
 6655 10b5 06       		.uleb128 0x6
 6656 10b6 63160000 		.4byte	.LASF236
 6657 10ba 13       		.byte	0x13
 6658 10bb 2C01     		.2byte	0x12c
 6659 10bd 03       		.byte	0x3
 6660 10be 64100000 		.4byte	0x1064
 6661 10c2 09       		.uleb128 0x9
 6662 10c3 A0090000 		.4byte	0x9a0
 6663 10c7 D2100000 		.4byte	0x10d2
 6664 10cb 0A       		.uleb128 0xa
 6665 10cc 25000000 		.4byte	0x25
 6666 10d0 03       		.byte	0x3
 6667 10d1 00       		.byte	0
 6668 10d2 05       		.uleb128 0x5
 6669 10d3 C2100000 		.4byte	0x10c2
 6670 10d7 09       		.uleb128 0x9
 6671 10d8 A0090000 		.4byte	0x9a0
 6672 10dc E7100000 		.4byte	0x10e7
 6673 10e0 0A       		.uleb128 0xa
 6674 10e1 25000000 		.4byte	0x25
 6675 10e5 01       		.byte	0x1
 6676 10e6 00       		.byte	0
 6677 10e7 05       		.uleb128 0x5
 6678 10e8 D7100000 		.4byte	0x10d7
 6679 10ec 21       		.uleb128 0x21
 6680 10ed 18       		.byte	0x18
 6681 10ee 13       		.byte	0x13
 6682 10ef 3202     		.2byte	0x232
 6683 10f1 09       		.byte	0x9
 6684 10f2 4A110000 		.4byte	0x114a
 6685 10f6 18       		.uleb128 0x18
 6686 10f7 435200   		.ascii	"CR\000"
 6687 10fa 13       		.byte	0x13
 6688 10fb 3402     		.2byte	0x234
 6689 10fd 11       		.byte	0x11
 6690 10fe A0090000 		.4byte	0x9a0
 6691 1102 00       		.byte	0
 6692 1103 17       		.uleb128 0x17
 6693 1104 B81D0000 		.4byte	.LASF237
 6694 1108 13       		.byte	0x13
 6695 1109 3502     		.2byte	0x235
 6696 110b 11       		.byte	0x11
 6697 110c A0090000 		.4byte	0x9a0
 6698 1110 04       		.byte	0x4
 6699 1111 18       		.uleb128 0x18
ARM GAS  /tmp/ccfraM8n.s 			page 119


 6700 1112 50415200 		.ascii	"PAR\000"
 6701 1116 13       		.byte	0x13
 6702 1117 3602     		.2byte	0x236
 6703 1119 11       		.byte	0x11
 6704 111a A0090000 		.4byte	0x9a0
 6705 111e 08       		.byte	0x8
 6706 111f 17       		.uleb128 0x17
 6707 1120 2F040000 		.4byte	.LASF238
 6708 1124 13       		.byte	0x13
 6709 1125 3702     		.2byte	0x237
 6710 1127 11       		.byte	0x11
 6711 1128 A0090000 		.4byte	0x9a0
 6712 112c 0C       		.byte	0xc
 6713 112d 17       		.uleb128 0x17
 6714 112e D3070000 		.4byte	.LASF239
 6715 1132 13       		.byte	0x13
 6716 1133 3802     		.2byte	0x238
 6717 1135 11       		.byte	0x11
 6718 1136 A0090000 		.4byte	0x9a0
 6719 113a 10       		.byte	0x10
 6720 113b 18       		.uleb128 0x18
 6721 113c 46435200 		.ascii	"FCR\000"
 6722 1140 13       		.byte	0x13
 6723 1141 3902     		.2byte	0x239
 6724 1143 11       		.byte	0x11
 6725 1144 A0090000 		.4byte	0x9a0
 6726 1148 14       		.byte	0x14
 6727 1149 00       		.byte	0
 6728 114a 06       		.uleb128 0x6
 6729 114b D8070000 		.4byte	.LASF240
 6730 114f 13       		.byte	0x13
 6731 1150 3A02     		.2byte	0x23a
 6732 1152 03       		.byte	0x3
 6733 1153 EC100000 		.4byte	0x10ec
 6734 1157 21       		.uleb128 0x21
 6735 1158 14       		.byte	0x14
 6736 1159 13       		.byte	0x13
 6737 115a 4402     		.2byte	0x244
 6738 115c 09       		.byte	0x9
 6739 115d A8110000 		.4byte	0x11a8
 6740 1161 18       		.uleb128 0x18
 6741 1162 43435200 		.ascii	"CCR\000"
 6742 1166 13       		.byte	0x13
 6743 1167 4602     		.2byte	0x246
 6744 1169 11       		.byte	0x11
 6745 116a A0090000 		.4byte	0x9a0
 6746 116e 00       		.byte	0
 6747 116f 17       		.uleb128 0x17
 6748 1170 04100000 		.4byte	.LASF241
 6749 1174 13       		.byte	0x13
 6750 1175 4702     		.2byte	0x247
 6751 1177 11       		.byte	0x11
 6752 1178 A0090000 		.4byte	0x9a0
 6753 117c 04       		.byte	0x4
 6754 117d 17       		.uleb128 0x17
 6755 117e 3A0E0000 		.4byte	.LASF242
 6756 1182 13       		.byte	0x13
ARM GAS  /tmp/ccfraM8n.s 			page 120


 6757 1183 4802     		.2byte	0x248
 6758 1185 11       		.byte	0x11
 6759 1186 A0090000 		.4byte	0x9a0
 6760 118a 08       		.byte	0x8
 6761 118b 17       		.uleb128 0x17
 6762 118c 55190000 		.4byte	.LASF243
 6763 1190 13       		.byte	0x13
 6764 1191 4902     		.2byte	0x249
 6765 1193 11       		.byte	0x11
 6766 1194 A0090000 		.4byte	0x9a0
 6767 1198 0C       		.byte	0xc
 6768 1199 17       		.uleb128 0x17
 6769 119a 6C1C0000 		.4byte	.LASF244
 6770 119e 13       		.byte	0x13
 6771 119f 4A02     		.2byte	0x24a
 6772 11a1 11       		.byte	0x11
 6773 11a2 A0090000 		.4byte	0x9a0
 6774 11a6 10       		.byte	0x10
 6775 11a7 00       		.byte	0
 6776 11a8 06       		.uleb128 0x6
 6777 11a9 C5090000 		.4byte	.LASF245
 6778 11ad 13       		.byte	0x13
 6779 11ae 4B02     		.2byte	0x24b
 6780 11b0 03       		.byte	0x3
 6781 11b1 57110000 		.4byte	0x1157
 6782 11b5 21       		.uleb128 0x21
 6783 11b6 08       		.byte	0x8
 6784 11b7 13       		.byte	0x13
 6785 11b8 4D02     		.2byte	0x24d
 6786 11ba 09       		.byte	0x9
 6787 11bb DC110000 		.4byte	0x11dc
 6788 11bf 18       		.uleb128 0x18
 6789 11c0 49535200 		.ascii	"ISR\000"
 6790 11c4 13       		.byte	0x13
 6791 11c5 4F02     		.2byte	0x24f
 6792 11c7 11       		.byte	0x11
 6793 11c8 A0090000 		.4byte	0x9a0
 6794 11cc 00       		.byte	0
 6795 11cd 17       		.uleb128 0x17
 6796 11ce 1A0C0000 		.4byte	.LASF246
 6797 11d2 13       		.byte	0x13
 6798 11d3 5002     		.2byte	0x250
 6799 11d5 11       		.byte	0x11
 6800 11d6 A0090000 		.4byte	0x9a0
 6801 11da 04       		.byte	0x4
 6802 11db 00       		.byte	0
 6803 11dc 06       		.uleb128 0x6
 6804 11dd EB0F0000 		.4byte	.LASF247
 6805 11e1 13       		.byte	0x13
 6806 11e2 5102     		.2byte	0x251
 6807 11e4 03       		.byte	0x3
 6808 11e5 B5110000 		.4byte	0x11b5
 6809 11e9 21       		.uleb128 0x21
 6810 11ea 04       		.byte	0x4
 6811 11eb 13       		.byte	0x13
 6812 11ec 5302     		.2byte	0x253
 6813 11ee 09       		.byte	0x9
ARM GAS  /tmp/ccfraM8n.s 			page 121


 6814 11ef 02120000 		.4byte	0x1202
 6815 11f3 18       		.uleb128 0x18
 6816 11f4 43435200 		.ascii	"CCR\000"
 6817 11f8 13       		.byte	0x13
 6818 11f9 5502     		.2byte	0x255
 6819 11fb 12       		.byte	0x12
 6820 11fc A0090000 		.4byte	0x9a0
 6821 1200 00       		.byte	0
 6822 1201 00       		.byte	0
 6823 1202 06       		.uleb128 0x6
 6824 1203 C5160000 		.4byte	.LASF248
 6825 1207 13       		.byte	0x13
 6826 1208 5602     		.2byte	0x256
 6827 120a 02       		.byte	0x2
 6828 120b E9110000 		.4byte	0x11e9
 6829 120f 09       		.uleb128 0x9
 6830 1210 94090000 		.4byte	0x994
 6831 1214 1F120000 		.4byte	0x121f
 6832 1218 0A       		.uleb128 0xa
 6833 1219 25000000 		.4byte	0x25
 6834 121d 08       		.byte	0x8
 6835 121e 00       		.byte	0
 6836 121f 09       		.uleb128 0x9
 6837 1220 94090000 		.4byte	0x994
 6838 1224 2F120000 		.4byte	0x122f
 6839 1228 0A       		.uleb128 0xa
 6840 1229 25000000 		.4byte	0x25
 6841 122d 02       		.byte	0x2
 6842 122e 00       		.byte	0
 6843 122f 21       		.uleb128 0x21
 6844 1230 2C       		.byte	0x2c
 6845 1231 13       		.byte	0x13
 6846 1232 3E04     		.2byte	0x43e
 6847 1234 09       		.byte	0x9
 6848 1235 D4120000 		.4byte	0x12d4
 6849 1239 18       		.uleb128 0x18
 6850 123a 43523100 		.ascii	"CR1\000"
 6851 123e 13       		.byte	0x13
 6852 123f 4004     		.2byte	0x440
 6853 1241 11       		.byte	0x11
 6854 1242 A0090000 		.4byte	0x9a0
 6855 1246 00       		.byte	0
 6856 1247 18       		.uleb128 0x18
 6857 1248 43523200 		.ascii	"CR2\000"
 6858 124c 13       		.byte	0x13
 6859 124d 4104     		.2byte	0x441
 6860 124f 11       		.byte	0x11
 6861 1250 A0090000 		.4byte	0x9a0
 6862 1254 04       		.byte	0x4
 6863 1255 17       		.uleb128 0x17
 6864 1256 35240000 		.4byte	.LASF249
 6865 125a 13       		.byte	0x13
 6866 125b 4204     		.2byte	0x442
 6867 125d 11       		.byte	0x11
 6868 125e A0090000 		.4byte	0x9a0
 6869 1262 08       		.byte	0x8
 6870 1263 17       		.uleb128 0x17
ARM GAS  /tmp/ccfraM8n.s 			page 122


 6871 1264 3A240000 		.4byte	.LASF250
 6872 1268 13       		.byte	0x13
 6873 1269 4304     		.2byte	0x443
 6874 126b 11       		.byte	0x11
 6875 126c A0090000 		.4byte	0x9a0
 6876 1270 0C       		.byte	0xc
 6877 1271 17       		.uleb128 0x17
 6878 1272 DD060000 		.4byte	.LASF251
 6879 1276 13       		.byte	0x13
 6880 1277 4404     		.2byte	0x444
 6881 1279 11       		.byte	0x11
 6882 127a A0090000 		.4byte	0x9a0
 6883 127e 10       		.byte	0x10
 6884 127f 17       		.uleb128 0x17
 6885 1280 B8030000 		.4byte	.LASF252
 6886 1284 13       		.byte	0x13
 6887 1285 4504     		.2byte	0x445
 6888 1287 11       		.byte	0x11
 6889 1288 A0090000 		.4byte	0x9a0
 6890 128c 14       		.byte	0x14
 6891 128d 18       		.uleb128 0x18
 6892 128e 49535200 		.ascii	"ISR\000"
 6893 1292 13       		.byte	0x13
 6894 1293 4604     		.2byte	0x446
 6895 1295 11       		.byte	0x11
 6896 1296 A0090000 		.4byte	0x9a0
 6897 129a 18       		.byte	0x18
 6898 129b 18       		.uleb128 0x18
 6899 129c 49435200 		.ascii	"ICR\000"
 6900 12a0 13       		.byte	0x13
 6901 12a1 4704     		.2byte	0x447
 6902 12a3 11       		.byte	0x11
 6903 12a4 A0090000 		.4byte	0x9a0
 6904 12a8 1C       		.byte	0x1c
 6905 12a9 17       		.uleb128 0x17
 6906 12aa 04170000 		.4byte	.LASF253
 6907 12ae 13       		.byte	0x13
 6908 12af 4804     		.2byte	0x448
 6909 12b1 11       		.byte	0x11
 6910 12b2 A0090000 		.4byte	0x9a0
 6911 12b6 20       		.byte	0x20
 6912 12b7 17       		.uleb128 0x17
 6913 12b8 6B100000 		.4byte	.LASF254
 6914 12bc 13       		.byte	0x13
 6915 12bd 4904     		.2byte	0x449
 6916 12bf 11       		.byte	0x11
 6917 12c0 A0090000 		.4byte	0x9a0
 6918 12c4 24       		.byte	0x24
 6919 12c5 17       		.uleb128 0x17
 6920 12c6 000F0000 		.4byte	.LASF255
 6921 12ca 13       		.byte	0x13
 6922 12cb 4A04     		.2byte	0x44a
 6923 12cd 11       		.byte	0x11
 6924 12ce A0090000 		.4byte	0x9a0
 6925 12d2 28       		.byte	0x28
 6926 12d3 00       		.byte	0
 6927 12d4 06       		.uleb128 0x6
ARM GAS  /tmp/ccfraM8n.s 			page 123


 6928 12d5 DA100000 		.4byte	.LASF256
 6929 12d9 13       		.byte	0x13
 6930 12da 4B04     		.2byte	0x44b
 6931 12dc 03       		.byte	0x3
 6932 12dd 2F120000 		.4byte	0x122f
 6933 12e1 09       		.uleb128 0x9
 6934 12e2 A0090000 		.4byte	0x9a0
 6935 12e6 F1120000 		.4byte	0x12f1
 6936 12ea 0A       		.uleb128 0xa
 6937 12eb 25000000 		.4byte	0x25
 6938 12ef 0F       		.byte	0xf
 6939 12f0 00       		.byte	0
 6940 12f1 05       		.uleb128 0x5
 6941 12f2 E1120000 		.4byte	0x12e1
 6942 12f6 22       		.uleb128 0x22
 6943 12f7 3001     		.2byte	0x130
 6944 12f9 13       		.byte	0x13
 6945 12fa C704     		.2byte	0x4c7
 6946 12fc 09       		.byte	0x9
 6947 12fd 98160000 		.4byte	0x1698
 6948 1301 18       		.uleb128 0x18
 6949 1302 435200   		.ascii	"CR\000"
 6950 1305 13       		.byte	0x13
 6951 1306 C904     		.2byte	0x4c9
 6952 1308 10       		.byte	0x10
 6953 1309 A0090000 		.4byte	0x9a0
 6954 130d 00       		.byte	0
 6955 130e 17       		.uleb128 0x17
 6956 130f 3D100000 		.4byte	.LASF257
 6957 1313 13       		.byte	0x13
 6958 1314 CA04     		.2byte	0x4ca
 6959 1316 10       		.byte	0x10
 6960 1317 A0090000 		.4byte	0x9a0
 6961 131b 04       		.byte	0x4
 6962 131c 17       		.uleb128 0x17
 6963 131d 21100000 		.4byte	.LASF258
 6964 1321 13       		.byte	0x13
 6965 1322 CB04     		.2byte	0x4cb
 6966 1324 10       		.byte	0x10
 6967 1325 A0090000 		.4byte	0x9a0
 6968 1329 08       		.byte	0x8
 6969 132a 17       		.uleb128 0x17
 6970 132b 910D0000 		.4byte	.LASF259
 6971 132f 13       		.byte	0x13
 6972 1330 CC04     		.2byte	0x4cc
 6973 1332 10       		.byte	0x10
 6974 1333 A0090000 		.4byte	0x9a0
 6975 1337 0C       		.byte	0xc
 6976 1338 17       		.uleb128 0x17
 6977 1339 3A130000 		.4byte	.LASF195
 6978 133d 13       		.byte	0x13
 6979 133e CD04     		.2byte	0x4cd
 6980 1340 10       		.byte	0x10
 6981 1341 A0090000 		.4byte	0x9a0
 6982 1345 10       		.byte	0x10
 6983 1346 17       		.uleb128 0x17
 6984 1347 A31C0000 		.4byte	.LASF202
ARM GAS  /tmp/ccfraM8n.s 			page 124


 6985 134b 13       		.byte	0x13
 6986 134c CE04     		.2byte	0x4ce
 6987 134e 0F       		.byte	0xf
 6988 134f 94090000 		.4byte	0x994
 6989 1353 14       		.byte	0x14
 6990 1354 17       		.uleb128 0x17
 6991 1355 4D000000 		.4byte	.LASF260
 6992 1359 13       		.byte	0x13
 6993 135a CF04     		.2byte	0x4cf
 6994 135c 10       		.byte	0x10
 6995 135d A0090000 		.4byte	0x9a0
 6996 1361 18       		.byte	0x18
 6997 1362 17       		.uleb128 0x17
 6998 1363 2A0B0000 		.4byte	.LASF261
 6999 1367 13       		.byte	0x13
 7000 1368 D004     		.2byte	0x4d0
 7001 136a 10       		.byte	0x10
 7002 136b A0090000 		.4byte	0x9a0
 7003 136f 1C       		.byte	0x1c
 7004 1370 17       		.uleb128 0x17
 7005 1371 09170000 		.4byte	.LASF262
 7006 1375 13       		.byte	0x13
 7007 1376 D104     		.2byte	0x4d1
 7008 1378 10       		.byte	0x10
 7009 1379 A0090000 		.4byte	0x9a0
 7010 137d 20       		.byte	0x20
 7011 137e 17       		.uleb128 0x17
 7012 137f AD1C0000 		.4byte	.LASF203
 7013 1383 13       		.byte	0x13
 7014 1384 D204     		.2byte	0x4d2
 7015 1386 0F       		.byte	0xf
 7016 1387 94090000 		.4byte	0x994
 7017 138b 24       		.byte	0x24
 7018 138c 17       		.uleb128 0x17
 7019 138d 25000000 		.4byte	.LASF263
 7020 1391 13       		.byte	0x13
 7021 1392 D304     		.2byte	0x4d3
 7022 1394 10       		.byte	0x10
 7023 1395 A0090000 		.4byte	0x9a0
 7024 1399 28       		.byte	0x28
 7025 139a 17       		.uleb128 0x17
 7026 139b 991A0000 		.4byte	.LASF264
 7027 139f 13       		.byte	0x13
 7028 13a0 D404     		.2byte	0x4d4
 7029 13a2 10       		.byte	0x10
 7030 13a3 A0090000 		.4byte	0x9a0
 7031 13a7 2C       		.byte	0x2c
 7032 13a8 17       		.uleb128 0x17
 7033 13a9 C1130000 		.4byte	.LASF265
 7034 13ad 13       		.byte	0x13
 7035 13ae D504     		.2byte	0x4d5
 7036 13b0 10       		.byte	0x10
 7037 13b1 A0090000 		.4byte	0x9a0
 7038 13b5 30       		.byte	0x30
 7039 13b6 17       		.uleb128 0x17
 7040 13b7 3B120000 		.4byte	.LASF266
 7041 13bb 13       		.byte	0x13
ARM GAS  /tmp/ccfraM8n.s 			page 125


 7042 13bc D604     		.2byte	0x4d6
 7043 13be 10       		.byte	0x10
 7044 13bf A0090000 		.4byte	0x9a0
 7045 13c3 34       		.byte	0x34
 7046 13c4 17       		.uleb128 0x17
 7047 13c5 CC1D0000 		.4byte	.LASF267
 7048 13c9 13       		.byte	0x13
 7049 13ca D704     		.2byte	0x4d7
 7050 13cc 10       		.byte	0x10
 7051 13cd A0090000 		.4byte	0x9a0
 7052 13d1 38       		.byte	0x38
 7053 13d2 17       		.uleb128 0x17
 7054 13d3 84110000 		.4byte	.LASF268
 7055 13d7 13       		.byte	0x13
 7056 13d8 D804     		.2byte	0x4d8
 7057 13da 10       		.byte	0x10
 7058 13db A0090000 		.4byte	0x9a0
 7059 13df 3C       		.byte	0x3c
 7060 13e0 17       		.uleb128 0x17
 7061 13e1 C0050000 		.4byte	.LASF269
 7062 13e5 13       		.byte	0x13
 7063 13e6 D904     		.2byte	0x4d9
 7064 13e8 10       		.byte	0x10
 7065 13e9 A0090000 		.4byte	0x9a0
 7066 13ed 40       		.byte	0x40
 7067 13ee 17       		.uleb128 0x17
 7068 13ef F7100000 		.4byte	.LASF270
 7069 13f3 13       		.byte	0x13
 7070 13f4 DA04     		.2byte	0x4da
 7071 13f6 10       		.byte	0x10
 7072 13f7 A0090000 		.4byte	0x9a0
 7073 13fb 44       		.byte	0x44
 7074 13fc 17       		.uleb128 0x17
 7075 13fd B71C0000 		.4byte	.LASF208
 7076 1401 13       		.byte	0x13
 7077 1402 DB04     		.2byte	0x4db
 7078 1404 10       		.byte	0x10
 7079 1405 94090000 		.4byte	0x994
 7080 1409 48       		.byte	0x48
 7081 140a 17       		.uleb128 0x17
 7082 140b 5F1D0000 		.4byte	.LASF271
 7083 140f 13       		.byte	0x13
 7084 1410 DC04     		.2byte	0x4dc
 7085 1412 11       		.byte	0x11
 7086 1413 A0090000 		.4byte	0x9a0
 7087 1417 4C       		.byte	0x4c
 7088 1418 17       		.uleb128 0x17
 7089 1419 171C0000 		.4byte	.LASF272
 7090 141d 13       		.byte	0x13
 7091 141e DD04     		.2byte	0x4dd
 7092 1420 11       		.byte	0x11
 7093 1421 A0090000 		.4byte	0x9a0
 7094 1425 50       		.byte	0x50
 7095 1426 17       		.uleb128 0x17
 7096 1427 781C0000 		.4byte	.LASF273
 7097 142b 13       		.byte	0x13
 7098 142c DE04     		.2byte	0x4de
ARM GAS  /tmp/ccfraM8n.s 			page 126


 7099 142e 11       		.byte	0x11
 7100 142f A0090000 		.4byte	0x9a0
 7101 1433 54       		.byte	0x54
 7102 1434 17       		.uleb128 0x17
 7103 1435 F5080000 		.4byte	.LASF274
 7104 1439 13       		.byte	0x13
 7105 143a DF04     		.2byte	0x4df
 7106 143c 11       		.byte	0x11
 7107 143d A0090000 		.4byte	0x9a0
 7108 1441 58       		.byte	0x58
 7109 1442 17       		.uleb128 0x17
 7110 1443 C11C0000 		.4byte	.LASF209
 7111 1447 13       		.byte	0x13
 7112 1448 E004     		.2byte	0x4e0
 7113 144a 10       		.byte	0x10
 7114 144b 94090000 		.4byte	0x994
 7115 144f 5C       		.byte	0x5c
 7116 1450 17       		.uleb128 0x17
 7117 1451 8D1B0000 		.4byte	.LASF275
 7118 1455 13       		.byte	0x13
 7119 1456 E104     		.2byte	0x4e1
 7120 1458 11       		.byte	0x11
 7121 1459 A0090000 		.4byte	0x9a0
 7122 145d 60       		.byte	0x60
 7123 145e 17       		.uleb128 0x17
 7124 145f 301C0000 		.4byte	.LASF276
 7125 1463 13       		.byte	0x13
 7126 1464 E204     		.2byte	0x4e2
 7127 1466 11       		.byte	0x11
 7128 1467 A0090000 		.4byte	0x9a0
 7129 146b 64       		.byte	0x64
 7130 146c 17       		.uleb128 0x17
 7131 146d 171D0000 		.4byte	.LASF277
 7132 1471 13       		.byte	0x13
 7133 1472 E304     		.2byte	0x4e3
 7134 1474 11       		.byte	0x11
 7135 1475 A0090000 		.4byte	0x9a0
 7136 1479 68       		.byte	0x68
 7137 147a 17       		.uleb128 0x17
 7138 147b CB1C0000 		.4byte	.LASF211
 7139 147f 13       		.byte	0x13
 7140 1480 E404     		.2byte	0x4e4
 7141 1482 0F       		.byte	0xf
 7142 1483 94090000 		.4byte	0x994
 7143 1487 6C       		.byte	0x6c
 7144 1488 17       		.uleb128 0x17
 7145 1489 921B0000 		.4byte	.LASF278
 7146 148d 13       		.byte	0x13
 7147 148e E504     		.2byte	0x4e5
 7148 1490 11       		.byte	0x11
 7149 1491 A0090000 		.4byte	0x9a0
 7150 1495 70       		.byte	0x70
 7151 1496 18       		.uleb128 0x18
 7152 1497 43535200 		.ascii	"CSR\000"
 7153 149b 13       		.byte	0x13
 7154 149c E604     		.2byte	0x4e6
 7155 149e 11       		.byte	0x11
ARM GAS  /tmp/ccfraM8n.s 			page 127


 7156 149f A0090000 		.4byte	0x9a0
 7157 14a3 74       		.byte	0x74
 7158 14a4 17       		.uleb128 0x17
 7159 14a5 D51C0000 		.4byte	.LASF216
 7160 14a9 13       		.byte	0x13
 7161 14aa E704     		.2byte	0x4e7
 7162 14ac 0F       		.byte	0xf
 7163 14ad 94090000 		.4byte	0x994
 7164 14b1 78       		.byte	0x78
 7165 14b2 17       		.uleb128 0x17
 7166 14b3 92160000 		.4byte	.LASF279
 7167 14b7 13       		.byte	0x13
 7168 14b8 E804     		.2byte	0x4e8
 7169 14ba 10       		.byte	0x10
 7170 14bb A0090000 		.4byte	0x9a0
 7171 14bf 7C       		.byte	0x7c
 7172 14c0 17       		.uleb128 0x17
 7173 14c1 FD230000 		.4byte	.LASF280
 7174 14c5 13       		.byte	0x13
 7175 14c6 E904     		.2byte	0x4e9
 7176 14c8 10       		.byte	0x10
 7177 14c9 A0090000 		.4byte	0x9a0
 7178 14cd 80       		.byte	0x80
 7179 14ce 17       		.uleb128 0x17
 7180 14cf C50A0000 		.4byte	.LASF281
 7181 14d3 13       		.byte	0x13
 7182 14d4 EA04     		.2byte	0x4ea
 7183 14d6 10       		.byte	0x10
 7184 14d7 A0090000 		.4byte	0x9a0
 7185 14db 84       		.byte	0x84
 7186 14dc 17       		.uleb128 0x17
 7187 14dd 34210000 		.4byte	.LASF282
 7188 14e1 13       		.byte	0x13
 7189 14e2 EB04     		.2byte	0x4eb
 7190 14e4 10       		.byte	0x10
 7191 14e5 A0090000 		.4byte	0x9a0
 7192 14e9 88       		.byte	0x88
 7193 14ea 17       		.uleb128 0x17
 7194 14eb C41A0000 		.4byte	.LASF283
 7195 14ef 13       		.byte	0x13
 7196 14f0 EC04     		.2byte	0x4ec
 7197 14f2 10       		.byte	0x10
 7198 14f3 A0090000 		.4byte	0x9a0
 7199 14f7 8C       		.byte	0x8c
 7200 14f8 17       		.uleb128 0x17
 7201 14f9 ED1E0000 		.4byte	.LASF284
 7202 14fd 13       		.byte	0x13
 7203 14fe ED04     		.2byte	0x4ed
 7204 1500 10       		.byte	0x10
 7205 1501 A0090000 		.4byte	0x9a0
 7206 1505 90       		.byte	0x90
 7207 1506 17       		.uleb128 0x17
 7208 1507 B0160000 		.4byte	.LASF285
 7209 150b 13       		.byte	0x13
 7210 150c EE04     		.2byte	0x4ee
 7211 150e 10       		.byte	0x10
 7212 150f A0090000 		.4byte	0x9a0
ARM GAS  /tmp/ccfraM8n.s 			page 128


 7213 1513 94       		.byte	0x94
 7214 1514 17       		.uleb128 0x17
 7215 1515 45100000 		.4byte	.LASF286
 7216 1519 13       		.byte	0x13
 7217 151a EF04     		.2byte	0x4ef
 7218 151c 10       		.byte	0x10
 7219 151d A0090000 		.4byte	0x9a0
 7220 1521 98       		.byte	0x98
 7221 1522 17       		.uleb128 0x17
 7222 1523 A1020000 		.4byte	.LASF287
 7223 1527 13       		.byte	0x13
 7224 1528 F004     		.2byte	0x4f0
 7225 152a 10       		.byte	0x10
 7226 152b A0090000 		.4byte	0x9a0
 7227 152f 9C       		.byte	0x9c
 7228 1530 18       		.uleb128 0x18
 7229 1531 47435200 		.ascii	"GCR\000"
 7230 1535 13       		.byte	0x13
 7231 1536 F104     		.2byte	0x4f1
 7232 1538 10       		.byte	0x10
 7233 1539 A0090000 		.4byte	0x9a0
 7234 153d A0       		.byte	0xa0
 7235 153e 17       		.uleb128 0x17
 7236 153f E91C0000 		.4byte	.LASF224
 7237 1543 13       		.byte	0x13
 7238 1544 F204     		.2byte	0x4f2
 7239 1546 0F       		.byte	0xf
 7240 1547 94090000 		.4byte	0x994
 7241 154b A4       		.byte	0xa4
 7242 154c 17       		.uleb128 0x17
 7243 154d 770B0000 		.4byte	.LASF288
 7244 1551 13       		.byte	0x13
 7245 1552 F304     		.2byte	0x4f3
 7246 1554 10       		.byte	0x10
 7247 1555 A0090000 		.4byte	0x9a0
 7248 1559 A8       		.byte	0xa8
 7249 155a 17       		.uleb128 0x17
 7250 155b C6110000 		.4byte	.LASF289
 7251 155f 13       		.byte	0x13
 7252 1560 F404     		.2byte	0x4f4
 7253 1562 0F       		.byte	0xf
 7254 1563 0F120000 		.4byte	0x120f
 7255 1567 AC       		.byte	0xac
 7256 1568 18       		.uleb128 0x18
 7257 1569 52535200 		.ascii	"RSR\000"
 7258 156d 13       		.byte	0x13
 7259 156e F504     		.2byte	0x4f5
 7260 1570 10       		.byte	0x10
 7261 1571 A0090000 		.4byte	0x9a0
 7262 1575 D0       		.byte	0xd0
 7263 1576 17       		.uleb128 0x17
 7264 1577 45110000 		.4byte	.LASF290
 7265 157b 13       		.byte	0x13
 7266 157c F604     		.2byte	0x4f6
 7267 157e 10       		.byte	0x10
 7268 157f A0090000 		.4byte	0x9a0
 7269 1583 D4       		.byte	0xd4
ARM GAS  /tmp/ccfraM8n.s 			page 129


 7270 1584 17       		.uleb128 0x17
 7271 1585 9D120000 		.4byte	.LASF291
 7272 1589 13       		.byte	0x13
 7273 158a F704     		.2byte	0x4f7
 7274 158c 10       		.byte	0x10
 7275 158d A0090000 		.4byte	0x9a0
 7276 1591 D8       		.byte	0xd8
 7277 1592 17       		.uleb128 0x17
 7278 1593 F5230000 		.4byte	.LASF292
 7279 1597 13       		.byte	0x13
 7280 1598 F804     		.2byte	0x4f8
 7281 159a 10       		.byte	0x10
 7282 159b A0090000 		.4byte	0x9a0
 7283 159f DC       		.byte	0xdc
 7284 15a0 17       		.uleb128 0x17
 7285 15a1 CB220000 		.4byte	.LASF293
 7286 15a5 13       		.byte	0x13
 7287 15a6 F904     		.2byte	0x4f9
 7288 15a8 10       		.byte	0x10
 7289 15a9 A0090000 		.4byte	0x9a0
 7290 15ad E0       		.byte	0xe0
 7291 15ae 17       		.uleb128 0x17
 7292 15af 2A180000 		.4byte	.LASF294
 7293 15b3 13       		.byte	0x13
 7294 15b4 FA04     		.2byte	0x4fa
 7295 15b6 10       		.byte	0x10
 7296 15b7 A0090000 		.4byte	0x9a0
 7297 15bb E4       		.byte	0xe4
 7298 15bc 17       		.uleb128 0x17
 7299 15bd E51B0000 		.4byte	.LASF295
 7300 15c1 13       		.byte	0x13
 7301 15c2 FB04     		.2byte	0x4fb
 7302 15c4 10       		.byte	0x10
 7303 15c5 A0090000 		.4byte	0x9a0
 7304 15c9 E8       		.byte	0xe8
 7305 15ca 17       		.uleb128 0x17
 7306 15cb 2B1E0000 		.4byte	.LASF296
 7307 15cf 13       		.byte	0x13
 7308 15d0 FC04     		.2byte	0x4fc
 7309 15d2 10       		.byte	0x10
 7310 15d3 A0090000 		.4byte	0x9a0
 7311 15d7 EC       		.byte	0xec
 7312 15d8 17       		.uleb128 0x17
 7313 15d9 9D060000 		.4byte	.LASF297
 7314 15dd 13       		.byte	0x13
 7315 15de FD04     		.2byte	0x4fd
 7316 15e0 10       		.byte	0x10
 7317 15e1 A0090000 		.4byte	0x9a0
 7318 15e5 F0       		.byte	0xf0
 7319 15e6 17       		.uleb128 0x17
 7320 15e7 5A050000 		.4byte	.LASF298
 7321 15eb 13       		.byte	0x13
 7322 15ec FE04     		.2byte	0x4fe
 7323 15ee 10       		.byte	0x10
 7324 15ef A0090000 		.4byte	0x9a0
 7325 15f3 F4       		.byte	0xf4
 7326 15f4 17       		.uleb128 0x17
ARM GAS  /tmp/ccfraM8n.s 			page 130


 7327 15f5 D1110000 		.4byte	.LASF299
 7328 15f9 13       		.byte	0x13
 7329 15fa FF04     		.2byte	0x4ff
 7330 15fc 10       		.byte	0x10
 7331 15fd 94090000 		.4byte	0x994
 7332 1601 F8       		.byte	0xf8
 7333 1602 17       		.uleb128 0x17
 7334 1603 4A090000 		.4byte	.LASF300
 7335 1607 13       		.byte	0x13
 7336 1608 0005     		.2byte	0x500
 7337 160a 10       		.byte	0x10
 7338 160b A0090000 		.4byte	0x9a0
 7339 160f FC       		.byte	0xfc
 7340 1610 1E       		.uleb128 0x1e
 7341 1611 A21D0000 		.4byte	.LASF301
 7342 1615 13       		.byte	0x13
 7343 1616 0105     		.2byte	0x501
 7344 1618 10       		.byte	0x10
 7345 1619 A0090000 		.4byte	0x9a0
 7346 161d 0001     		.2byte	0x100
 7347 161f 1E       		.uleb128 0x1e
 7348 1620 9C090000 		.4byte	.LASF302
 7349 1624 13       		.byte	0x13
 7350 1625 0205     		.2byte	0x502
 7351 1627 10       		.byte	0x10
 7352 1628 A0090000 		.4byte	0x9a0
 7353 162c 0401     		.2byte	0x104
 7354 162e 1E       		.uleb128 0x1e
 7355 162f 9B080000 		.4byte	.LASF303
 7356 1633 13       		.byte	0x13
 7357 1634 0305     		.2byte	0x503
 7358 1636 10       		.byte	0x10
 7359 1637 A0090000 		.4byte	0x9a0
 7360 163b 0801     		.2byte	0x108
 7361 163d 1E       		.uleb128 0x1e
 7362 163e 591E0000 		.4byte	.LASF304
 7363 1642 13       		.byte	0x13
 7364 1643 0405     		.2byte	0x504
 7365 1645 10       		.byte	0x10
 7366 1646 A0090000 		.4byte	0x9a0
 7367 164a 0C01     		.2byte	0x10c
 7368 164c 1E       		.uleb128 0x1e
 7369 164d 0A200000 		.4byte	.LASF305
 7370 1651 13       		.byte	0x13
 7371 1652 0505     		.2byte	0x505
 7372 1654 10       		.byte	0x10
 7373 1655 A0090000 		.4byte	0x9a0
 7374 1659 1001     		.2byte	0x110
 7375 165b 1E       		.uleb128 0x1e
 7376 165c 1A130000 		.4byte	.LASF306
 7377 1660 13       		.byte	0x13
 7378 1661 0605     		.2byte	0x506
 7379 1663 10       		.byte	0x10
 7380 1664 A0090000 		.4byte	0x9a0
 7381 1668 1401     		.2byte	0x114
 7382 166a 1E       		.uleb128 0x1e
 7383 166b 271F0000 		.4byte	.LASF307
ARM GAS  /tmp/ccfraM8n.s 			page 131


 7384 166f 13       		.byte	0x13
 7385 1670 0705     		.2byte	0x507
 7386 1672 10       		.byte	0x10
 7387 1673 A0090000 		.4byte	0x9a0
 7388 1677 1801     		.2byte	0x118
 7389 1679 1E       		.uleb128 0x1e
 7390 167a E61D0000 		.4byte	.LASF308
 7391 167e 13       		.byte	0x13
 7392 167f 0805     		.2byte	0x508
 7393 1681 10       		.byte	0x10
 7394 1682 A0090000 		.4byte	0x9a0
 7395 1686 1C01     		.2byte	0x11c
 7396 1688 1E       		.uleb128 0x1e
 7397 1689 DC110000 		.4byte	.LASF309
 7398 168d 13       		.byte	0x13
 7399 168e 0905     		.2byte	0x509
 7400 1690 0F       		.byte	0xf
 7401 1691 47100000 		.4byte	0x1047
 7402 1695 2001     		.2byte	0x120
 7403 1697 00       		.byte	0
 7404 1698 06       		.uleb128 0x6
 7405 1699 D9010000 		.4byte	.LASF310
 7406 169d 13       		.byte	0x13
 7407 169e 0B05     		.2byte	0x50b
 7408 16a0 03       		.byte	0x3
 7409 16a1 F6120000 		.4byte	0x12f6
 7410 16a5 22       		.uleb128 0x22
 7411 16a6 0004     		.2byte	0x400
 7412 16a8 13       		.byte	0x13
 7413 16a9 7605     		.2byte	0x576
 7414 16ab 09       		.byte	0x9
 7415 16ac 1E180000 		.4byte	0x181e
 7416 16b0 17       		.uleb128 0x17
 7417 16b1 4C150000 		.4byte	.LASF311
 7418 16b5 13       		.byte	0x13
 7419 16b6 7805     		.2byte	0x578
 7420 16b8 11       		.byte	0x11
 7421 16b9 A0090000 		.4byte	0x9a0
 7422 16bd 00       		.byte	0
 7423 16be 17       		.uleb128 0x17
 7424 16bf D01E0000 		.4byte	.LASF312
 7425 16c3 13       		.byte	0x13
 7426 16c4 7905     		.2byte	0x579
 7427 16c6 11       		.byte	0x11
 7428 16c7 A0090000 		.4byte	0x9a0
 7429 16cb 04       		.byte	0x4
 7430 16cc 18       		.uleb128 0x18
 7431 16cd 41524700 		.ascii	"ARG\000"
 7432 16d1 13       		.byte	0x13
 7433 16d2 7A05     		.2byte	0x57a
 7434 16d4 11       		.byte	0x11
 7435 16d5 A0090000 		.4byte	0x9a0
 7436 16d9 08       		.byte	0x8
 7437 16da 18       		.uleb128 0x18
 7438 16db 434D4400 		.ascii	"CMD\000"
 7439 16df 13       		.byte	0x13
 7440 16e0 7B05     		.2byte	0x57b
ARM GAS  /tmp/ccfraM8n.s 			page 132


 7441 16e2 11       		.byte	0x11
 7442 16e3 A0090000 		.4byte	0x9a0
 7443 16e7 0C       		.byte	0xc
 7444 16e8 17       		.uleb128 0x17
 7445 16e9 55180000 		.4byte	.LASF313
 7446 16ed 13       		.byte	0x13
 7447 16ee 7C05     		.2byte	0x57c
 7448 16f0 11       		.byte	0x11
 7449 16f1 A5090000 		.4byte	0x9a5
 7450 16f5 10       		.byte	0x10
 7451 16f6 17       		.uleb128 0x17
 7452 16f7 02060000 		.4byte	.LASF314
 7453 16fb 13       		.byte	0x13
 7454 16fc 7D05     		.2byte	0x57d
 7455 16fe 11       		.byte	0x11
 7456 16ff A5090000 		.4byte	0x9a5
 7457 1703 14       		.byte	0x14
 7458 1704 17       		.uleb128 0x17
 7459 1705 08060000 		.4byte	.LASF315
 7460 1709 13       		.byte	0x13
 7461 170a 7E05     		.2byte	0x57e
 7462 170c 11       		.byte	0x11
 7463 170d A5090000 		.4byte	0x9a5
 7464 1711 18       		.byte	0x18
 7465 1712 17       		.uleb128 0x17
 7466 1713 0E060000 		.4byte	.LASF316
 7467 1717 13       		.byte	0x13
 7468 1718 7F05     		.2byte	0x57f
 7469 171a 11       		.byte	0x11
 7470 171b A5090000 		.4byte	0x9a5
 7471 171f 1C       		.byte	0x1c
 7472 1720 17       		.uleb128 0x17
 7473 1721 14060000 		.4byte	.LASF317
 7474 1725 13       		.byte	0x13
 7475 1726 8005     		.2byte	0x580
 7476 1728 11       		.byte	0x11
 7477 1729 A5090000 		.4byte	0x9a5
 7478 172d 20       		.byte	0x20
 7479 172e 17       		.uleb128 0x17
 7480 172f 84120000 		.4byte	.LASF318
 7481 1733 13       		.byte	0x13
 7482 1734 8105     		.2byte	0x581
 7483 1736 11       		.byte	0x11
 7484 1737 A0090000 		.4byte	0x9a0
 7485 173b 24       		.byte	0x24
 7486 173c 17       		.uleb128 0x17
 7487 173d 54140000 		.4byte	.LASF319
 7488 1741 13       		.byte	0x13
 7489 1742 8205     		.2byte	0x582
 7490 1744 11       		.byte	0x11
 7491 1745 A0090000 		.4byte	0x9a0
 7492 1749 28       		.byte	0x28
 7493 174a 17       		.uleb128 0x17
 7494 174b EE220000 		.4byte	.LASF320
 7495 174f 13       		.byte	0x13
 7496 1750 8305     		.2byte	0x583
 7497 1752 11       		.byte	0x11
ARM GAS  /tmp/ccfraM8n.s 			page 133


 7498 1753 A0090000 		.4byte	0x9a0
 7499 1757 2C       		.byte	0x2c
 7500 1758 17       		.uleb128 0x17
 7501 1759 2E240000 		.4byte	.LASF321
 7502 175d 13       		.byte	0x13
 7503 175e 8405     		.2byte	0x584
 7504 1760 11       		.byte	0x11
 7505 1761 A5090000 		.4byte	0x9a5
 7506 1765 30       		.byte	0x30
 7507 1766 18       		.uleb128 0x18
 7508 1767 53544100 		.ascii	"STA\000"
 7509 176b 13       		.byte	0x13
 7510 176c 8505     		.2byte	0x585
 7511 176e 11       		.byte	0x11
 7512 176f A5090000 		.4byte	0x9a5
 7513 1773 34       		.byte	0x34
 7514 1774 18       		.uleb128 0x18
 7515 1775 49435200 		.ascii	"ICR\000"
 7516 1779 13       		.byte	0x13
 7517 177a 8605     		.2byte	0x586
 7518 177c 11       		.byte	0x11
 7519 177d A0090000 		.4byte	0x9a0
 7520 1781 38       		.byte	0x38
 7521 1782 17       		.uleb128 0x17
 7522 1783 10020000 		.4byte	.LASF322
 7523 1787 13       		.byte	0x13
 7524 1788 8705     		.2byte	0x587
 7525 178a 11       		.byte	0x11
 7526 178b A0090000 		.4byte	0x9a0
 7527 178f 3C       		.byte	0x3c
 7528 1790 17       		.uleb128 0x17
 7529 1791 9B070000 		.4byte	.LASF323
 7530 1795 13       		.byte	0x13
 7531 1796 8805     		.2byte	0x588
 7532 1798 11       		.byte	0x11
 7533 1799 A0090000 		.4byte	0x9a0
 7534 179d 40       		.byte	0x40
 7535 179e 17       		.uleb128 0x17
 7536 179f 991C0000 		.4byte	.LASF324
 7537 17a3 13       		.byte	0x13
 7538 17a4 8905     		.2byte	0x589
 7539 17a6 11       		.byte	0x11
 7540 17a7 1F120000 		.4byte	0x121f
 7541 17ab 44       		.byte	0x44
 7542 17ac 17       		.uleb128 0x17
 7543 17ad 771A0000 		.4byte	.LASF325
 7544 17b1 13       		.byte	0x13
 7545 17b2 8A05     		.2byte	0x58a
 7546 17b4 11       		.byte	0x11
 7547 17b5 A0090000 		.4byte	0x9a0
 7548 17b9 50       		.byte	0x50
 7549 17ba 17       		.uleb128 0x17
 7550 17bb A40E0000 		.4byte	.LASF326
 7551 17bf 13       		.byte	0x13
 7552 17c0 8B05     		.2byte	0x58b
 7553 17c2 11       		.byte	0x11
 7554 17c3 A0090000 		.4byte	0x9a0
ARM GAS  /tmp/ccfraM8n.s 			page 134


 7555 17c7 54       		.byte	0x54
 7556 17c8 17       		.uleb128 0x17
 7557 17c9 C10B0000 		.4byte	.LASF327
 7558 17cd 13       		.byte	0x13
 7559 17ce 8C05     		.2byte	0x58c
 7560 17d0 11       		.byte	0x11
 7561 17d1 A0090000 		.4byte	0x9a0
 7562 17d5 58       		.byte	0x58
 7563 17d6 17       		.uleb128 0x17
 7564 17d7 CB0B0000 		.4byte	.LASF328
 7565 17db 13       		.byte	0x13
 7566 17dc 8D05     		.2byte	0x58d
 7567 17de 11       		.byte	0x11
 7568 17df A0090000 		.4byte	0x9a0
 7569 17e3 5C       		.byte	0x5c
 7570 17e4 17       		.uleb128 0x17
 7571 17e5 A31C0000 		.4byte	.LASF202
 7572 17e9 13       		.byte	0x13
 7573 17ea 8E05     		.2byte	0x58e
 7574 17ec 11       		.byte	0x11
 7575 17ed A60D0000 		.4byte	0xda6
 7576 17f1 60       		.byte	0x60
 7577 17f2 17       		.uleb128 0x17
 7578 17f3 F0080000 		.4byte	.LASF329
 7579 17f7 13       		.byte	0x13
 7580 17f8 8F05     		.2byte	0x58f
 7581 17fa 11       		.byte	0x11
 7582 17fb A0090000 		.4byte	0x9a0
 7583 17ff 80       		.byte	0x80
 7584 1800 17       		.uleb128 0x17
 7585 1801 AD1C0000 		.4byte	.LASF203
 7586 1805 13       		.byte	0x13
 7587 1806 9005     		.2byte	0x590
 7588 1808 11       		.byte	0x11
 7589 1809 1E180000 		.4byte	0x181e
 7590 180d 84       		.byte	0x84
 7591 180e 1E       		.uleb128 0x1e
 7592 180f FF160000 		.4byte	.LASF330
 7593 1813 13       		.byte	0x13
 7594 1814 9105     		.2byte	0x591
 7595 1816 11       		.byte	0x11
 7596 1817 A0090000 		.4byte	0x9a0
 7597 181b FC03     		.2byte	0x3fc
 7598 181d 00       		.byte	0
 7599 181e 09       		.uleb128 0x9
 7600 181f 94090000 		.4byte	0x994
 7601 1823 2E180000 		.4byte	0x182e
 7602 1827 0A       		.uleb128 0xa
 7603 1828 25000000 		.4byte	0x25
 7604 182c DD       		.byte	0xdd
 7605 182d 00       		.byte	0
 7606 182e 06       		.uleb128 0x6
 7607 182f 1C1D0000 		.4byte	.LASF331
 7608 1833 13       		.byte	0x13
 7609 1834 9205     		.2byte	0x592
 7610 1836 03       		.byte	0x3
 7611 1837 A5160000 		.4byte	0x16a5
ARM GAS  /tmp/ccfraM8n.s 			page 135


 7612 183b 21       		.uleb128 0x21
 7613 183c 54       		.byte	0x54
 7614 183d 13       		.byte	0x13
 7615 183e BD05     		.2byte	0x5bd
 7616 1840 09       		.byte	0x9
 7617 1841 33190000 		.4byte	0x1933
 7618 1845 18       		.uleb128 0x18
 7619 1846 43523100 		.ascii	"CR1\000"
 7620 184a 13       		.byte	0x13
 7621 184b BF05     		.2byte	0x5bf
 7622 184d 11       		.byte	0x11
 7623 184e A0090000 		.4byte	0x9a0
 7624 1852 00       		.byte	0
 7625 1853 18       		.uleb128 0x18
 7626 1854 43523200 		.ascii	"CR2\000"
 7627 1858 13       		.byte	0x13
 7628 1859 C005     		.2byte	0x5c0
 7629 185b 11       		.byte	0x11
 7630 185c A0090000 		.4byte	0x9a0
 7631 1860 04       		.byte	0x4
 7632 1861 17       		.uleb128 0x17
 7633 1862 D8120000 		.4byte	.LASF332
 7634 1866 13       		.byte	0x13
 7635 1867 C105     		.2byte	0x5c1
 7636 1869 11       		.byte	0x11
 7637 186a A0090000 		.4byte	0x9a0
 7638 186e 08       		.byte	0x8
 7639 186f 17       		.uleb128 0x17
 7640 1870 DD120000 		.4byte	.LASF333
 7641 1874 13       		.byte	0x13
 7642 1875 C205     		.2byte	0x5c2
 7643 1877 11       		.byte	0x11
 7644 1878 A0090000 		.4byte	0x9a0
 7645 187c 0C       		.byte	0xc
 7646 187d 18       		.uleb128 0x18
 7647 187e 49455200 		.ascii	"IER\000"
 7648 1882 13       		.byte	0x13
 7649 1883 C305     		.2byte	0x5c3
 7650 1885 11       		.byte	0x11
 7651 1886 A0090000 		.4byte	0x9a0
 7652 188a 10       		.byte	0x10
 7653 188b 18       		.uleb128 0x18
 7654 188c 535200   		.ascii	"SR\000"
 7655 188f 13       		.byte	0x13
 7656 1890 C405     		.2byte	0x5c4
 7657 1892 11       		.byte	0x11
 7658 1893 A0090000 		.4byte	0x9a0
 7659 1897 14       		.byte	0x14
 7660 1898 17       		.uleb128 0x17
 7661 1899 1A0C0000 		.4byte	.LASF246
 7662 189d 13       		.byte	0x13
 7663 189e C505     		.2byte	0x5c5
 7664 18a0 11       		.byte	0x11
 7665 18a1 A0090000 		.4byte	0x9a0
 7666 18a5 18       		.byte	0x18
 7667 18a6 17       		.uleb128 0x17
 7668 18a7 991C0000 		.4byte	.LASF324
ARM GAS  /tmp/ccfraM8n.s 			page 136


 7669 18ab 13       		.byte	0x13
 7670 18ac C605     		.2byte	0x5c6
 7671 18ae 11       		.byte	0x11
 7672 18af 94090000 		.4byte	0x994
 7673 18b3 1C       		.byte	0x1c
 7674 18b4 17       		.uleb128 0x17
 7675 18b5 000F0000 		.4byte	.LASF255
 7676 18b9 13       		.byte	0x13
 7677 18ba C705     		.2byte	0x5c7
 7678 18bc 11       		.byte	0x11
 7679 18bd A0090000 		.4byte	0x9a0
 7680 18c1 20       		.byte	0x20
 7681 18c2 17       		.uleb128 0x17
 7682 18c3 A31C0000 		.4byte	.LASF202
 7683 18c7 13       		.byte	0x13
 7684 18c8 C805     		.2byte	0x5c8
 7685 18ca 11       		.byte	0x11
 7686 18cb 1F120000 		.4byte	0x121f
 7687 18cf 24       		.byte	0x24
 7688 18d0 17       		.uleb128 0x17
 7689 18d1 6B100000 		.4byte	.LASF254
 7690 18d5 13       		.byte	0x13
 7691 18d6 C905     		.2byte	0x5c9
 7692 18d8 11       		.byte	0x11
 7693 18d9 A0090000 		.4byte	0x9a0
 7694 18dd 30       		.byte	0x30
 7695 18de 17       		.uleb128 0x17
 7696 18df AD1C0000 		.4byte	.LASF203
 7697 18e3 13       		.byte	0x13
 7698 18e4 CA05     		.2byte	0x5ca
 7699 18e6 11       		.byte	0x11
 7700 18e7 1F120000 		.4byte	0x121f
 7701 18eb 34       		.byte	0x34
 7702 18ec 17       		.uleb128 0x17
 7703 18ed 241A0000 		.4byte	.LASF334
 7704 18f1 13       		.byte	0x13
 7705 18f2 CB05     		.2byte	0x5cb
 7706 18f4 11       		.byte	0x11
 7707 18f5 A0090000 		.4byte	0x9a0
 7708 18f9 40       		.byte	0x40
 7709 18fa 17       		.uleb128 0x17
 7710 18fb AE100000 		.4byte	.LASF335
 7711 18ff 13       		.byte	0x13
 7712 1900 CC05     		.2byte	0x5cc
 7713 1902 11       		.byte	0x11
 7714 1903 A0090000 		.4byte	0x9a0
 7715 1907 44       		.byte	0x44
 7716 1908 17       		.uleb128 0x17
 7717 1909 461D0000 		.4byte	.LASF336
 7718 190d 13       		.byte	0x13
 7719 190e CD05     		.2byte	0x5cd
 7720 1910 11       		.byte	0x11
 7721 1911 A0090000 		.4byte	0x9a0
 7722 1915 48       		.byte	0x48
 7723 1916 17       		.uleb128 0x17
 7724 1917 F10B0000 		.4byte	.LASF337
 7725 191b 13       		.byte	0x13
ARM GAS  /tmp/ccfraM8n.s 			page 137


 7726 191c CE05     		.2byte	0x5ce
 7727 191e 11       		.byte	0x11
 7728 191f A0090000 		.4byte	0x9a0
 7729 1923 4C       		.byte	0x4c
 7730 1924 17       		.uleb128 0x17
 7731 1925 F61F0000 		.4byte	.LASF338
 7732 1929 13       		.byte	0x13
 7733 192a CF05     		.2byte	0x5cf
 7734 192c 11       		.byte	0x11
 7735 192d A0090000 		.4byte	0x9a0
 7736 1931 50       		.byte	0x50
 7737 1932 00       		.byte	0
 7738 1933 06       		.uleb128 0x6
 7739 1934 D51D0000 		.4byte	.LASF339
 7740 1938 13       		.byte	0x13
 7741 1939 D105     		.2byte	0x5d1
 7742 193b 03       		.byte	0x3
 7743 193c 3B180000 		.4byte	0x183b
 7744 1940 21       		.uleb128 0x21
 7745 1941 30       		.byte	0x30
 7746 1942 13       		.byte	0x13
 7747 1943 3206     		.2byte	0x632
 7748 1945 09       		.byte	0x9
 7749 1946 F3190000 		.4byte	0x19f3
 7750 194a 18       		.uleb128 0x18
 7751 194b 43523100 		.ascii	"CR1\000"
 7752 194f 13       		.byte	0x13
 7753 1950 3406     		.2byte	0x634
 7754 1952 11       		.byte	0x11
 7755 1953 A0090000 		.4byte	0x9a0
 7756 1957 00       		.byte	0
 7757 1958 18       		.uleb128 0x18
 7758 1959 43523200 		.ascii	"CR2\000"
 7759 195d 13       		.byte	0x13
 7760 195e 3506     		.2byte	0x635
 7761 1960 11       		.byte	0x11
 7762 1961 A0090000 		.4byte	0x9a0
 7763 1965 04       		.byte	0x4
 7764 1966 18       		.uleb128 0x18
 7765 1967 43523300 		.ascii	"CR3\000"
 7766 196b 13       		.byte	0x13
 7767 196c 3606     		.2byte	0x636
 7768 196e 11       		.byte	0x11
 7769 196f A0090000 		.4byte	0x9a0
 7770 1973 08       		.byte	0x8
 7771 1974 18       		.uleb128 0x18
 7772 1975 42525200 		.ascii	"BRR\000"
 7773 1979 13       		.byte	0x13
 7774 197a 3706     		.2byte	0x637
 7775 197c 11       		.byte	0x11
 7776 197d A0090000 		.4byte	0x9a0
 7777 1981 0C       		.byte	0xc
 7778 1982 17       		.uleb128 0x17
 7779 1983 CD0D0000 		.4byte	.LASF340
 7780 1987 13       		.byte	0x13
 7781 1988 3806     		.2byte	0x638
 7782 198a 11       		.byte	0x11
ARM GAS  /tmp/ccfraM8n.s 			page 138


 7783 198b A0090000 		.4byte	0x9a0
 7784 198f 10       		.byte	0x10
 7785 1990 17       		.uleb128 0x17
 7786 1991 EB080000 		.4byte	.LASF341
 7787 1995 13       		.byte	0x13
 7788 1996 3906     		.2byte	0x639
 7789 1998 11       		.byte	0x11
 7790 1999 A0090000 		.4byte	0x9a0
 7791 199d 14       		.byte	0x14
 7792 199e 18       		.uleb128 0x18
 7793 199f 52515200 		.ascii	"RQR\000"
 7794 19a3 13       		.byte	0x13
 7795 19a4 3A06     		.2byte	0x63a
 7796 19a6 11       		.byte	0x11
 7797 19a7 A0090000 		.4byte	0x9a0
 7798 19ab 18       		.byte	0x18
 7799 19ac 18       		.uleb128 0x18
 7800 19ad 49535200 		.ascii	"ISR\000"
 7801 19b1 13       		.byte	0x13
 7802 19b2 3B06     		.2byte	0x63b
 7803 19b4 11       		.byte	0x11
 7804 19b5 A0090000 		.4byte	0x9a0
 7805 19b9 1C       		.byte	0x1c
 7806 19ba 18       		.uleb128 0x18
 7807 19bb 49435200 		.ascii	"ICR\000"
 7808 19bf 13       		.byte	0x13
 7809 19c0 3C06     		.2byte	0x63c
 7810 19c2 11       		.byte	0x11
 7811 19c3 A0090000 		.4byte	0x9a0
 7812 19c7 20       		.byte	0x20
 7813 19c8 18       		.uleb128 0x18
 7814 19c9 52445200 		.ascii	"RDR\000"
 7815 19cd 13       		.byte	0x13
 7816 19ce 3D06     		.2byte	0x63d
 7817 19d0 11       		.byte	0x11
 7818 19d1 A0090000 		.4byte	0x9a0
 7819 19d5 24       		.byte	0x24
 7820 19d6 18       		.uleb128 0x18
 7821 19d7 54445200 		.ascii	"TDR\000"
 7822 19db 13       		.byte	0x13
 7823 19dc 3E06     		.2byte	0x63e
 7824 19de 11       		.byte	0x11
 7825 19df A0090000 		.4byte	0x9a0
 7826 19e3 28       		.byte	0x28
 7827 19e4 17       		.uleb128 0x17
 7828 19e5 02130000 		.4byte	.LASF342
 7829 19e9 13       		.byte	0x13
 7830 19ea 3F06     		.2byte	0x63f
 7831 19ec 11       		.byte	0x11
 7832 19ed A0090000 		.4byte	0x9a0
 7833 19f1 2C       		.byte	0x2c
 7834 19f2 00       		.byte	0
 7835 19f3 06       		.uleb128 0x6
 7836 19f4 2C160000 		.4byte	.LASF343
 7837 19f8 13       		.byte	0x13
 7838 19f9 4006     		.2byte	0x640
 7839 19fb 03       		.byte	0x3
ARM GAS  /tmp/ccfraM8n.s 			page 139


 7840 19fc 40190000 		.4byte	0x1940
 7841 1a00 21       		.uleb128 0x21
 7842 1a01 0C       		.byte	0xc
 7843 1a02 13       		.byte	0x13
 7844 1a03 1E07     		.2byte	0x71e
 7845 1a05 09       		.byte	0x9
 7846 1a06 321A0000 		.4byte	0x1a32
 7847 1a0a 18       		.uleb128 0x18
 7848 1a0b 435200   		.ascii	"CR\000"
 7849 1a0e 13       		.byte	0x13
 7850 1a0f 2007     		.2byte	0x720
 7851 1a11 11       		.byte	0x11
 7852 1a12 A0090000 		.4byte	0x9a0
 7853 1a16 00       		.byte	0
 7854 1a17 18       		.uleb128 0x18
 7855 1a18 535200   		.ascii	"SR\000"
 7856 1a1b 13       		.byte	0x13
 7857 1a1c 2107     		.2byte	0x721
 7858 1a1e 11       		.byte	0x11
 7859 1a1f A0090000 		.4byte	0x9a0
 7860 1a23 04       		.byte	0x4
 7861 1a24 18       		.uleb128 0x18
 7862 1a25 445200   		.ascii	"DR\000"
 7863 1a28 13       		.byte	0x13
 7864 1a29 2207     		.2byte	0x722
 7865 1a2b 11       		.byte	0x11
 7866 1a2c A0090000 		.4byte	0x9a0
 7867 1a30 08       		.byte	0x8
 7868 1a31 00       		.byte	0
 7869 1a32 06       		.uleb128 0x6
 7870 1a33 20160000 		.4byte	.LASF344
 7871 1a37 13       		.byte	0x13
 7872 1a38 2307     		.2byte	0x723
 7873 1a3a 03       		.byte	0x3
 7874 1a3b 001A0000 		.4byte	0x1a00
 7875 1a3f 09       		.uleb128 0x9
 7876 1a40 A0090000 		.4byte	0x9a0
 7877 1a44 4F1A0000 		.4byte	0x1a4f
 7878 1a48 0A       		.uleb128 0xa
 7879 1a49 25000000 		.4byte	0x25
 7880 1a4d 0E       		.byte	0xe
 7881 1a4e 00       		.byte	0
 7882 1a4f 05       		.uleb128 0x5
 7883 1a50 3F1A0000 		.4byte	0x1a3f
 7884 1a54 04       		.uleb128 0x4
 7885 1a55 B2080000 		.4byte	.LASF345
 7886 1a59 14       		.byte	0x14
 7887 1a5a 68       		.byte	0x68
 7888 1a5b 12       		.byte	0x12
 7889 1a5c AA090000 		.4byte	0x9aa
 7890 1a60 16       		.uleb128 0x16
 7891 1a61 2F000000 		.4byte	.LASF346
 7892 1a65 64       		.byte	0x64
 7893 1a66 04       		.byte	0x4
 7894 1a67 8501     		.2byte	0x185
 7895 1a69 08       		.byte	0x8
 7896 1a6a C61B0000 		.4byte	0x1bc6
ARM GAS  /tmp/ccfraM8n.s 			page 140


 7897 1a6e 18       		.uleb128 0x18
 7898 1a6f 73313600 		.ascii	"s16\000"
 7899 1a73 04       		.byte	0x4
 7900 1a74 8D01     		.2byte	0x18d
 7901 1a76 11       		.byte	0x11
 7902 1a77 94090000 		.4byte	0x994
 7903 1a7b 00       		.byte	0
 7904 1a7c 18       		.uleb128 0x18
 7905 1a7d 73313700 		.ascii	"s17\000"
 7906 1a81 04       		.byte	0x4
 7907 1a82 8E01     		.2byte	0x18e
 7908 1a84 11       		.byte	0x11
 7909 1a85 94090000 		.4byte	0x994
 7910 1a89 04       		.byte	0x4
 7911 1a8a 18       		.uleb128 0x18
 7912 1a8b 73313800 		.ascii	"s18\000"
 7913 1a8f 04       		.byte	0x4
 7914 1a90 8F01     		.2byte	0x18f
 7915 1a92 11       		.byte	0x11
 7916 1a93 94090000 		.4byte	0x994
 7917 1a97 08       		.byte	0x8
 7918 1a98 18       		.uleb128 0x18
 7919 1a99 73313900 		.ascii	"s19\000"
 7920 1a9d 04       		.byte	0x4
 7921 1a9e 9001     		.2byte	0x190
 7922 1aa0 11       		.byte	0x11
 7923 1aa1 94090000 		.4byte	0x994
 7924 1aa5 0C       		.byte	0xc
 7925 1aa6 18       		.uleb128 0x18
 7926 1aa7 73323000 		.ascii	"s20\000"
 7927 1aab 04       		.byte	0x4
 7928 1aac 9101     		.2byte	0x191
 7929 1aae 11       		.byte	0x11
 7930 1aaf 94090000 		.4byte	0x994
 7931 1ab3 10       		.byte	0x10
 7932 1ab4 18       		.uleb128 0x18
 7933 1ab5 73323100 		.ascii	"s21\000"
 7934 1ab9 04       		.byte	0x4
 7935 1aba 9201     		.2byte	0x192
 7936 1abc 11       		.byte	0x11
 7937 1abd 94090000 		.4byte	0x994
 7938 1ac1 14       		.byte	0x14
 7939 1ac2 18       		.uleb128 0x18
 7940 1ac3 73323200 		.ascii	"s22\000"
 7941 1ac7 04       		.byte	0x4
 7942 1ac8 9301     		.2byte	0x193
 7943 1aca 11       		.byte	0x11
 7944 1acb 94090000 		.4byte	0x994
 7945 1acf 18       		.byte	0x18
 7946 1ad0 18       		.uleb128 0x18
 7947 1ad1 73323300 		.ascii	"s23\000"
 7948 1ad5 04       		.byte	0x4
 7949 1ad6 9401     		.2byte	0x194
 7950 1ad8 11       		.byte	0x11
 7951 1ad9 94090000 		.4byte	0x994
 7952 1add 1C       		.byte	0x1c
 7953 1ade 18       		.uleb128 0x18
ARM GAS  /tmp/ccfraM8n.s 			page 141


 7954 1adf 73323400 		.ascii	"s24\000"
 7955 1ae3 04       		.byte	0x4
 7956 1ae4 9501     		.2byte	0x195
 7957 1ae6 11       		.byte	0x11
 7958 1ae7 94090000 		.4byte	0x994
 7959 1aeb 20       		.byte	0x20
 7960 1aec 18       		.uleb128 0x18
 7961 1aed 73323500 		.ascii	"s25\000"
 7962 1af1 04       		.byte	0x4
 7963 1af2 9601     		.2byte	0x196
 7964 1af4 11       		.byte	0x11
 7965 1af5 94090000 		.4byte	0x994
 7966 1af9 24       		.byte	0x24
 7967 1afa 18       		.uleb128 0x18
 7968 1afb 73323600 		.ascii	"s26\000"
 7969 1aff 04       		.byte	0x4
 7970 1b00 9701     		.2byte	0x197
 7971 1b02 11       		.byte	0x11
 7972 1b03 94090000 		.4byte	0x994
 7973 1b07 28       		.byte	0x28
 7974 1b08 18       		.uleb128 0x18
 7975 1b09 73323700 		.ascii	"s27\000"
 7976 1b0d 04       		.byte	0x4
 7977 1b0e 9801     		.2byte	0x198
 7978 1b10 11       		.byte	0x11
 7979 1b11 94090000 		.4byte	0x994
 7980 1b15 2C       		.byte	0x2c
 7981 1b16 18       		.uleb128 0x18
 7982 1b17 73323800 		.ascii	"s28\000"
 7983 1b1b 04       		.byte	0x4
 7984 1b1c 9901     		.2byte	0x199
 7985 1b1e 11       		.byte	0x11
 7986 1b1f 94090000 		.4byte	0x994
 7987 1b23 30       		.byte	0x30
 7988 1b24 18       		.uleb128 0x18
 7989 1b25 73323900 		.ascii	"s29\000"
 7990 1b29 04       		.byte	0x4
 7991 1b2a 9A01     		.2byte	0x19a
 7992 1b2c 11       		.byte	0x11
 7993 1b2d 94090000 		.4byte	0x994
 7994 1b31 34       		.byte	0x34
 7995 1b32 18       		.uleb128 0x18
 7996 1b33 73333000 		.ascii	"s30\000"
 7997 1b37 04       		.byte	0x4
 7998 1b38 9B01     		.2byte	0x19b
 7999 1b3a 11       		.byte	0x11
 8000 1b3b 94090000 		.4byte	0x994
 8001 1b3f 38       		.byte	0x38
 8002 1b40 18       		.uleb128 0x18
 8003 1b41 73333100 		.ascii	"s31\000"
 8004 1b45 04       		.byte	0x4
 8005 1b46 9C01     		.2byte	0x19c
 8006 1b48 11       		.byte	0x11
 8007 1b49 94090000 		.4byte	0x994
 8008 1b4d 3C       		.byte	0x3c
 8009 1b4e 18       		.uleb128 0x18
 8010 1b4f 723400   		.ascii	"r4\000"
ARM GAS  /tmp/ccfraM8n.s 			page 142


 8011 1b52 04       		.byte	0x4
 8012 1b53 9E01     		.2byte	0x19e
 8013 1b55 11       		.byte	0x11
 8014 1b56 94090000 		.4byte	0x994
 8015 1b5a 40       		.byte	0x40
 8016 1b5b 18       		.uleb128 0x18
 8017 1b5c 723500   		.ascii	"r5\000"
 8018 1b5f 04       		.byte	0x4
 8019 1b60 9F01     		.2byte	0x19f
 8020 1b62 11       		.byte	0x11
 8021 1b63 94090000 		.4byte	0x994
 8022 1b67 44       		.byte	0x44
 8023 1b68 18       		.uleb128 0x18
 8024 1b69 723600   		.ascii	"r6\000"
 8025 1b6c 04       		.byte	0x4
 8026 1b6d A001     		.2byte	0x1a0
 8027 1b6f 11       		.byte	0x11
 8028 1b70 94090000 		.4byte	0x994
 8029 1b74 48       		.byte	0x48
 8030 1b75 18       		.uleb128 0x18
 8031 1b76 723700   		.ascii	"r7\000"
 8032 1b79 04       		.byte	0x4
 8033 1b7a A101     		.2byte	0x1a1
 8034 1b7c 11       		.byte	0x11
 8035 1b7d 94090000 		.4byte	0x994
 8036 1b81 4C       		.byte	0x4c
 8037 1b82 18       		.uleb128 0x18
 8038 1b83 723800   		.ascii	"r8\000"
 8039 1b86 04       		.byte	0x4
 8040 1b87 A201     		.2byte	0x1a2
 8041 1b89 11       		.byte	0x11
 8042 1b8a 94090000 		.4byte	0x994
 8043 1b8e 50       		.byte	0x50
 8044 1b8f 18       		.uleb128 0x18
 8045 1b90 723900   		.ascii	"r9\000"
 8046 1b93 04       		.byte	0x4
 8047 1b94 A301     		.2byte	0x1a3
 8048 1b96 11       		.byte	0x11
 8049 1b97 94090000 		.4byte	0x994
 8050 1b9b 54       		.byte	0x54
 8051 1b9c 18       		.uleb128 0x18
 8052 1b9d 72313000 		.ascii	"r10\000"
 8053 1ba1 04       		.byte	0x4
 8054 1ba2 A401     		.2byte	0x1a4
 8055 1ba4 11       		.byte	0x11
 8056 1ba5 94090000 		.4byte	0x994
 8057 1ba9 58       		.byte	0x58
 8058 1baa 18       		.uleb128 0x18
 8059 1bab 72313100 		.ascii	"r11\000"
 8060 1baf 04       		.byte	0x4
 8061 1bb0 A501     		.2byte	0x1a5
 8062 1bb2 11       		.byte	0x11
 8063 1bb3 94090000 		.4byte	0x994
 8064 1bb7 5C       		.byte	0x5c
 8065 1bb8 18       		.uleb128 0x18
 8066 1bb9 6C7200   		.ascii	"lr\000"
 8067 1bbc 04       		.byte	0x4
ARM GAS  /tmp/ccfraM8n.s 			page 143


 8068 1bbd A601     		.2byte	0x1a6
 8069 1bbf 11       		.byte	0x11
 8070 1bc0 94090000 		.4byte	0x994
 8071 1bc4 60       		.byte	0x60
 8072 1bc5 00       		.byte	0
 8073 1bc6 16       		.uleb128 0x16
 8074 1bc7 5E100000 		.4byte	.LASF347
 8075 1bcb 04       		.byte	0x4
 8076 1bcc 04       		.byte	0x4
 8077 1bcd A901     		.2byte	0x1a9
 8078 1bcf 08       		.byte	0x8
 8079 1bd0 E21B0000 		.4byte	0x1be2
 8080 1bd4 18       		.uleb128 0x18
 8081 1bd5 737000   		.ascii	"sp\000"
 8082 1bd8 04       		.byte	0x4
 8083 1bd9 AA01     		.2byte	0x1aa
 8084 1bdb 1A       		.byte	0x1a
 8085 1bdc E21B0000 		.4byte	0x1be2
 8086 1be0 00       		.byte	0
 8087 1be1 00       		.byte	0
 8088 1be2 0E       		.uleb128 0xe
 8089 1be3 04       		.byte	0x4
 8090 1be4 601A0000 		.4byte	0x1a60
 8091 1be8 0B       		.uleb128 0xb
 8092 1be9 08       		.byte	0x8
 8093 1bea 15       		.byte	0x15
 8094 1beb 7F       		.byte	0x7f
 8095 1bec 05       		.byte	0x5
 8096 1bed 0C1C0000 		.4byte	0x1c0c
 8097 1bf1 11       		.uleb128 0x11
 8098 1bf2 6E747000 		.ascii	"ntp\000"
 8099 1bf6 15       		.byte	0x15
 8100 1bf7 83       		.byte	0x83
 8101 1bf8 1E       		.byte	0x1e
 8102 1bf9 420B0000 		.4byte	0xb42
 8103 1bfd 00       		.byte	0
 8104 1bfe 0C       		.uleb128 0xc
 8105 1bff BD1A0000 		.4byte	.LASF348
 8106 1c03 15       		.byte	0x15
 8107 1c04 87       		.byte	0x87
 8108 1c05 1E       		.byte	0x1e
 8109 1c06 46010000 		.4byte	0x146
 8110 1c0a 04       		.byte	0x4
 8111 1c0b 00       		.byte	0
 8112 1c0c 0B       		.uleb128 0xb
 8113 1c0d 04       		.byte	0x4
 8114 1c0e 15       		.byte	0x15
 8115 1c0f 8C       		.byte	0x8c
 8116 1c10 05       		.byte	0x5
 8117 1c11 231C0000 		.4byte	0x1c23
 8118 1c15 0C       		.uleb128 0xc
 8119 1c16 5B120000 		.4byte	.LASF151
 8120 1c1a 15       		.byte	0x15
 8121 1c1b 90       		.byte	0x90
 8122 1c1c 1E       		.byte	0x1e
 8123 1c1d AF060000 		.4byte	0x6af
 8124 1c21 00       		.byte	0
ARM GAS  /tmp/ccfraM8n.s 			page 144


 8125 1c22 00       		.byte	0
 8126 1c23 0B       		.uleb128 0xb
 8127 1c24 04       		.byte	0x4
 8128 1c25 15       		.byte	0x15
 8129 1c26 95       		.byte	0x95
 8130 1c27 05       		.byte	0x5
 8131 1c28 3A1C0000 		.4byte	0x1c3a
 8132 1c2c 0C       		.uleb128 0xc
 8133 1c2d 3C180000 		.4byte	.LASF349
 8134 1c31 15       		.byte	0x15
 8135 1c32 99       		.byte	0x99
 8136 1c33 1E       		.byte	0x1e
 8137 1c34 AF060000 		.4byte	0x6af
 8138 1c38 00       		.byte	0
 8139 1c39 00       		.byte	0
 8140 1c3a 0B       		.uleb128 0xb
 8141 1c3b 08       		.byte	0x8
 8142 1c3c 15       		.byte	0x15
 8143 1c3d 9E       		.byte	0x9e
 8144 1c3e 05       		.byte	0x5
 8145 1c3f 5E1C0000 		.4byte	0x1c5e
 8146 1c43 11       		.uleb128 0x11
 8147 1c44 75703100 		.ascii	"up1\000"
 8148 1c48 15       		.byte	0x15
 8149 1c49 A2       		.byte	0xa2
 8150 1c4a 1E       		.byte	0x1e
 8151 1c4b 46010000 		.4byte	0x146
 8152 1c4f 00       		.byte	0
 8153 1c50 11       		.uleb128 0x11
 8154 1c51 75703200 		.ascii	"up2\000"
 8155 1c55 15       		.byte	0x15
 8156 1c56 A6       		.byte	0xa6
 8157 1c57 1E       		.byte	0x1e
 8158 1c58 46010000 		.4byte	0x146
 8159 1c5c 04       		.byte	0x4
 8160 1c5d 00       		.byte	0
 8161 1c5e 07       		.uleb128 0x7
 8162 1c5f 08       		.byte	0x8
 8163 1c60 15       		.byte	0x15
 8164 1c61 7B       		.byte	0x7b
 8165 1c62 03       		.byte	0x3
 8166 1c63 971C0000 		.4byte	0x1c97
 8167 1c67 23       		.uleb128 0x23
 8168 1c68 737700   		.ascii	"sw\000"
 8169 1c6b 15       		.byte	0x15
 8170 1c6c 88       		.byte	0x88
 8171 1c6d 07       		.byte	0x7
 8172 1c6e E81B0000 		.4byte	0x1be8
 8173 1c72 23       		.uleb128 0x23
 8174 1c73 69737200 		.ascii	"isr\000"
 8175 1c77 15       		.byte	0x15
 8176 1c78 91       		.byte	0x91
 8177 1c79 07       		.byte	0x7
 8178 1c7a 0C1C0000 		.4byte	0x1c0c
 8179 1c7e 08       		.uleb128 0x8
 8180 1c7f 89150000 		.4byte	.LASF350
 8181 1c83 15       		.byte	0x15
ARM GAS  /tmp/ccfraM8n.s 			page 145


 8182 1c84 9A       		.byte	0x9a
 8183 1c85 07       		.byte	0x7
 8184 1c86 231C0000 		.4byte	0x1c23
 8185 1c8a 08       		.uleb128 0x8
 8186 1c8b F9200000 		.4byte	.LASF351
 8187 1c8f 15       		.byte	0x15
 8188 1c90 A7       		.byte	0xa7
 8189 1c91 07       		.byte	0x7
 8190 1c92 3A1C0000 		.4byte	0x1c3a
 8191 1c96 00       		.byte	0
 8192 1c97 0B       		.uleb128 0xb
 8193 1c98 10       		.byte	0x10
 8194 1c99 15       		.byte	0x15
 8195 1c9a 68       		.byte	0x68
 8196 1c9b 09       		.byte	0x9
 8197 1c9c E91C0000 		.4byte	0x1ce9
 8198 1ca0 24       		.uleb128 0x24
 8199 1ca1 4D070000 		.4byte	.LASF352
 8200 1ca5 15       		.byte	0x15
 8201 1ca6 6C       		.byte	0x6c
 8202 1ca7 19       		.byte	0x19
 8203 1ca8 94090000 		.4byte	0x994
 8204 1cac 04       		.byte	0x4
 8205 1cad 03       		.byte	0x3
 8206 1cae 1D       		.byte	0x1d
 8207 1caf 00       		.byte	0
 8208 1cb0 24       		.uleb128 0x24
 8209 1cb1 EB140000 		.4byte	.LASF153
 8210 1cb5 15       		.byte	0x15
 8211 1cb6 70       		.byte	0x70
 8212 1cb7 19       		.byte	0x19
 8213 1cb8 94090000 		.4byte	0x994
 8214 1cbc 04       		.byte	0x4
 8215 1cbd 05       		.byte	0x5
 8216 1cbe 18       		.byte	0x18
 8217 1cbf 00       		.byte	0
 8218 1cc0 24       		.uleb128 0x24
 8219 1cc1 78020000 		.4byte	.LASF353
 8220 1cc5 15       		.byte	0x15
 8221 1cc6 76       		.byte	0x76
 8222 1cc7 19       		.byte	0x19
 8223 1cc8 94090000 		.4byte	0x994
 8224 1ccc 04       		.byte	0x4
 8225 1ccd 18       		.byte	0x18
 8226 1cce 00       		.byte	0
 8227 1ccf 00       		.byte	0
 8228 1cd0 0C       		.uleb128 0xc
 8229 1cd1 1B160000 		.4byte	.LASF354
 8230 1cd5 15       		.byte	0x15
 8231 1cd6 7A       		.byte	0x7a
 8232 1cd7 19       		.byte	0x19
 8233 1cd8 7E0D0000 		.4byte	0xd7e
 8234 1cdc 04       		.byte	0x4
 8235 1cdd 11       		.uleb128 0x11
 8236 1cde 7500     		.ascii	"u\000"
 8237 1ce0 15       		.byte	0x15
 8238 1ce1 A8       		.byte	0xa8
ARM GAS  /tmp/ccfraM8n.s 			page 146


 8239 1ce2 05       		.byte	0x5
 8240 1ce3 5E1C0000 		.4byte	0x1c5e
 8241 1ce7 08       		.byte	0x8
 8242 1ce8 00       		.byte	0
 8243 1ce9 04       		.uleb128 0x4
 8244 1cea 4D020000 		.4byte	.LASF355
 8245 1cee 15       		.byte	0x15
 8246 1cef A9       		.byte	0xa9
 8247 1cf0 03       		.byte	0x3
 8248 1cf1 971C0000 		.4byte	0x1c97
 8249 1cf5 25       		.uleb128 0x25
 8250 1cf6 0808     		.2byte	0x808
 8251 1cf8 15       		.byte	0x15
 8252 1cf9 AF       		.byte	0xaf
 8253 1cfa 09       		.byte	0x9
 8254 1cfb 341D0000 		.4byte	0x1d34
 8255 1cff 0C       		.uleb128 0xc
 8256 1d00 C61E0000 		.4byte	.LASF356
 8257 1d04 15       		.byte	0x15
 8258 1d05 B3       		.byte	0xb3
 8259 1d06 19       		.byte	0x19
 8260 1d07 77090000 		.4byte	0x977
 8261 1d0b 00       		.byte	0
 8262 1d0c 0C       		.uleb128 0xc
 8263 1d0d AA0B0000 		.4byte	.LASF357
 8264 1d11 15       		.byte	0x15
 8265 1d12 B7       		.byte	0xb7
 8266 1d13 19       		.byte	0x19
 8267 1d14 77090000 		.4byte	0x977
 8268 1d18 02       		.byte	0x2
 8269 1d19 11       		.uleb128 0x11
 8270 1d1a 70747200 		.ascii	"ptr\000"
 8271 1d1e 15       		.byte	0x15
 8272 1d1f BB       		.byte	0xbb
 8273 1d20 1A       		.byte	0x1a
 8274 1d21 341D0000 		.4byte	0x1d34
 8275 1d25 04       		.byte	0x4
 8276 1d26 0C       		.uleb128 0xc
 8277 1d27 78190000 		.4byte	.LASF358
 8278 1d2b 15       		.byte	0x15
 8279 1d2c BF       		.byte	0xbf
 8280 1d2d 19       		.byte	0x19
 8281 1d2e 3A1D0000 		.4byte	0x1d3a
 8282 1d32 08       		.byte	0x8
 8283 1d33 00       		.byte	0
 8284 1d34 0E       		.uleb128 0xe
 8285 1d35 04       		.byte	0x4
 8286 1d36 E91C0000 		.4byte	0x1ce9
 8287 1d3a 09       		.uleb128 0x9
 8288 1d3b E91C0000 		.4byte	0x1ce9
 8289 1d3f 4A1D0000 		.4byte	0x1d4a
 8290 1d43 0A       		.uleb128 0xa
 8291 1d44 25000000 		.4byte	0x25
 8292 1d48 7F       		.byte	0x7f
 8293 1d49 00       		.byte	0
 8294 1d4a 04       		.uleb128 0x4
 8295 1d4b 3B000000 		.4byte	.LASF359
ARM GAS  /tmp/ccfraM8n.s 			page 147


 8296 1d4f 15       		.byte	0x15
 8297 1d50 C0       		.byte	0xc0
 8298 1d51 03       		.byte	0x3
 8299 1d52 F51C0000 		.4byte	0x1cf5
 8300 1d56 0B       		.uleb128 0xb
 8301 1d57 04       		.byte	0x4
 8302 1d58 16       		.byte	0x16
 8303 1d59 38       		.byte	0x38
 8304 1d5a 09       		.byte	0x9
 8305 1d5b 6D1D0000 		.4byte	0x1d6d
 8306 1d5f 0C       		.uleb128 0xc
 8307 1d60 9B1D0000 		.4byte	.LASF360
 8308 1d64 16       		.byte	0x16
 8309 1d65 3C       		.byte	0x3c
 8310 1d66 19       		.byte	0x19
 8311 1d67 C2090000 		.4byte	0x9c2
 8312 1d6b 00       		.byte	0
 8313 1d6c 00       		.byte	0
 8314 1d6d 04       		.uleb128 0x4
 8315 1d6e A1050000 		.4byte	.LASF361
 8316 1d72 16       		.byte	0x16
 8317 1d73 3D       		.byte	0x3d
 8318 1d74 03       		.byte	0x3
 8319 1d75 561D0000 		.4byte	0x1d56
 8320 1d79 07       		.uleb128 0x7
 8321 1d7a 04       		.byte	0x4
 8322 1d7b 0F       		.byte	0xf
 8323 1d7c C6       		.byte	0xc6
 8324 1d7d 03       		.byte	0x3
 8325 1d7e E41D0000 		.4byte	0x1de4
 8326 1d82 08       		.uleb128 0x8
 8327 1d83 120F0000 		.4byte	.LASF362
 8328 1d87 0F       		.byte	0xf
 8329 1d88 CD       		.byte	0xcd
 8330 1d89 19       		.byte	0x19
 8331 1d8a FE090000 		.4byte	0x9fe
 8332 1d8e 08       		.uleb128 0x8
 8333 1d8f F20C0000 		.4byte	.LASF363
 8334 1d93 0F       		.byte	0xf
 8335 1d94 D4       		.byte	0xd4
 8336 1d95 19       		.byte	0x19
 8337 1d96 FE090000 		.4byte	0x9fe
 8338 1d9a 08       		.uleb128 0x8
 8339 1d9b BD1A0000 		.4byte	.LASF348
 8340 1d9f 0F       		.byte	0xf
 8341 1da0 DB       		.byte	0xdb
 8342 1da1 1A       		.byte	0x1a
 8343 1da2 46010000 		.4byte	0x146
 8344 1da6 08       		.uleb128 0x8
 8345 1da7 10170000 		.4byte	.LASF364
 8346 1dab 0F       		.byte	0xf
 8347 1dac E2       		.byte	0xe2
 8348 1dad 1A       		.byte	0x1a
 8349 1dae E41D0000 		.4byte	0x1de4
 8350 1db2 08       		.uleb128 0x8
 8351 1db3 1D000000 		.4byte	.LASF365
 8352 1db7 0F       		.byte	0xf
ARM GAS  /tmp/ccfraM8n.s 			page 148


 8353 1db8 E7       		.byte	0xe7
 8354 1db9 19       		.byte	0x19
 8355 1dba FE090000 		.4byte	0x9fe
 8356 1dbe 08       		.uleb128 0x8
 8357 1dbf 41010000 		.4byte	.LASF366
 8358 1dc3 0F       		.byte	0xf
 8359 1dc4 F0       		.byte	0xf0
 8360 1dc5 1A       		.byte	0x1a
 8361 1dc6 121E0000 		.4byte	0x1e12
 8362 1dca 08       		.uleb128 0x8
 8363 1dcb 101B0000 		.4byte	.LASF367
 8364 1dcf 0F       		.byte	0xf
 8365 1dd0 F9       		.byte	0xf9
 8366 1dd1 1A       		.byte	0x1a
 8367 1dd2 4D1E0000 		.4byte	0x1e4d
 8368 1dd6 26       		.uleb128 0x26
 8369 1dd7 341E0000 		.4byte	.LASF368
 8370 1ddb 0F       		.byte	0xf
 8371 1ddc 0101     		.2byte	0x101
 8372 1dde 19       		.byte	0x19
 8373 1ddf 0A0A0000 		.4byte	0xa0a
 8374 1de3 00       		.byte	0
 8375 1de4 0E       		.uleb128 0xe
 8376 1de5 04       		.byte	0x4
 8377 1de6 360B0000 		.4byte	0xb36
 8378 1dea 10       		.uleb128 0x10
 8379 1deb 8E150000 		.4byte	.LASF369
 8380 1def 0C       		.byte	0xc
 8381 1df0 17       		.byte	0x17
 8382 1df1 34       		.byte	0x34
 8383 1df2 10       		.byte	0x10
 8384 1df3 121E0000 		.4byte	0x1e12
 8385 1df7 0C       		.uleb128 0xc
 8386 1df8 521D0000 		.4byte	.LASF147
 8387 1dfc 17       		.byte	0x17
 8388 1dfd 35       		.byte	0x35
 8389 1dfe 19       		.byte	0x19
 8390 1dff 6F0B0000 		.4byte	0xb6f
 8391 1e03 00       		.byte	0
 8392 1e04 11       		.uleb128 0x11
 8393 1e05 636E7400 		.ascii	"cnt\000"
 8394 1e09 17       		.byte	0x17
 8395 1e0a 37       		.byte	0x37
 8396 1e0b 19       		.byte	0x19
 8397 1e0c 220A0000 		.4byte	0xa22
 8398 1e10 08       		.byte	0x8
 8399 1e11 00       		.byte	0
 8400 1e12 0E       		.uleb128 0xe
 8401 1e13 04       		.byte	0x4
 8402 1e14 EA1D0000 		.4byte	0x1dea
 8403 1e18 10       		.uleb128 0x10
 8404 1e19 B70A0000 		.4byte	.LASF370
 8405 1e1d 10       		.byte	0x10
 8406 1e1e 18       		.byte	0x18
 8407 1e1f 39       		.byte	0x39
 8408 1e20 08       		.byte	0x8
 8409 1e21 4D1E0000 		.4byte	0x1e4d
ARM GAS  /tmp/ccfraM8n.s 			page 149


 8410 1e25 0C       		.uleb128 0xc
 8411 1e26 521D0000 		.4byte	.LASF147
 8412 1e2a 18       		.byte	0x18
 8413 1e2b 3A       		.byte	0x3a
 8414 1e2c 19       		.byte	0x19
 8415 1e2d 6F0B0000 		.4byte	0xb6f
 8416 1e31 00       		.byte	0
 8417 1e32 0C       		.uleb128 0xc
 8418 1e33 DB0B0000 		.4byte	.LASF371
 8419 1e37 18       		.byte	0x18
 8420 1e38 3C       		.byte	0x3c
 8421 1e39 1A       		.byte	0x1a
 8422 1e3a 420B0000 		.4byte	0xb42
 8423 1e3e 08       		.byte	0x8
 8424 1e3f 0C       		.uleb128 0xc
 8425 1e40 87020000 		.4byte	.LASF165
 8426 1e44 18       		.byte	0x18
 8427 1e45 3E       		.byte	0x3e
 8428 1e46 1A       		.byte	0x1a
 8429 1e47 B01F0000 		.4byte	0x1fb0
 8430 1e4b 0C       		.byte	0xc
 8431 1e4c 00       		.byte	0
 8432 1e4d 0E       		.uleb128 0xe
 8433 1e4e 04       		.byte	0x4
 8434 1e4f 181E0000 		.4byte	0x1e18
 8435 1e53 0E       		.uleb128 0xe
 8436 1e54 04       		.byte	0x4
 8437 1e55 541A0000 		.4byte	0x1a54
 8438 1e59 0E       		.uleb128 0xe
 8439 1e5a 04       		.byte	0x4
 8440 1e5b 2F0C0000 		.4byte	0xc2f
 8441 1e5f 27       		.uleb128 0x27
 8442 1e60 636800   		.ascii	"ch\000"
 8443 1e63 0F       		.byte	0xf
 8444 1e64 C701     		.2byte	0x1c7
 8445 1e66 14       		.byte	0x14
 8446 1e67 1B0D0000 		.4byte	0xd1b
 8447 1e6b 09       		.uleb128 0x9
 8448 1e6c 541A0000 		.4byte	0x1a54
 8449 1e70 761E0000 		.4byte	0x1e76
 8450 1e74 28       		.uleb128 0x28
 8451 1e75 00       		.byte	0
 8452 1e76 1C       		.uleb128 0x1c
 8453 1e77 AF0B0000 		.4byte	.LASF372
 8454 1e7b 03       		.byte	0x3
 8455 1e7c 1701     		.2byte	0x117
 8456 1e7e 13       		.byte	0x13
 8457 1e7f 6B1E0000 		.4byte	0x1e6b
 8458 1e83 0B       		.uleb128 0xb
 8459 1e84 16       		.byte	0x16
 8460 1e85 19       		.byte	0x19
 8461 1e86 34       		.byte	0x34
 8462 1e87 09       		.byte	0x9
 8463 1e88 771F0000 		.4byte	0x1f77
 8464 1e8c 0C       		.uleb128 0xc
 8465 1e8d 590C0000 		.4byte	.LASF373
 8466 1e91 19       		.byte	0x19
ARM GAS  /tmp/ccfraM8n.s 			page 150


 8467 1e92 35       		.byte	0x35
 8468 1e93 0D       		.byte	0xd
 8469 1e94 771F0000 		.4byte	0x1f77
 8470 1e98 00       		.byte	0
 8471 1e99 0C       		.uleb128 0xc
 8472 1e9a 04070000 		.4byte	.LASF374
 8473 1e9e 19       		.byte	0x19
 8474 1e9f 36       		.byte	0x36
 8475 1ea0 0D       		.byte	0xd
 8476 1ea1 66090000 		.4byte	0x966
 8477 1ea5 04       		.byte	0x4
 8478 1ea6 0C       		.uleb128 0xc
 8479 1ea7 AA0B0000 		.4byte	.LASF357
 8480 1eab 19       		.byte	0x19
 8481 1eac 37       		.byte	0x37
 8482 1ead 0D       		.byte	0xd
 8483 1eae 66090000 		.4byte	0x966
 8484 1eb2 05       		.byte	0x5
 8485 1eb3 0C       		.uleb128 0xc
 8486 1eb4 E6220000 		.4byte	.LASF375
 8487 1eb8 19       		.byte	0x19
 8488 1eb9 38       		.byte	0x38
 8489 1eba 0D       		.byte	0xd
 8490 1ebb 77090000 		.4byte	0x977
 8491 1ebf 06       		.byte	0x6
 8492 1ec0 0C       		.uleb128 0xc
 8493 1ec1 3F0E0000 		.4byte	.LASF376
 8494 1ec5 19       		.byte	0x19
 8495 1ec6 39       		.byte	0x39
 8496 1ec7 0D       		.byte	0xd
 8497 1ec8 66090000 		.4byte	0x966
 8498 1ecc 08       		.byte	0x8
 8499 1ecd 0C       		.uleb128 0xc
 8500 1ece 4D040000 		.4byte	.LASF377
 8501 1ed2 19       		.byte	0x19
 8502 1ed3 3A       		.byte	0x3a
 8503 1ed4 0D       		.byte	0xd
 8504 1ed5 66090000 		.4byte	0x966
 8505 1ed9 09       		.byte	0x9
 8506 1eda 0C       		.uleb128 0xc
 8507 1edb F01D0000 		.4byte	.LASF378
 8508 1edf 19       		.byte	0x19
 8509 1ee0 3B       		.byte	0x3b
 8510 1ee1 0D       		.byte	0xd
 8511 1ee2 66090000 		.4byte	0x966
 8512 1ee6 0A       		.byte	0xa
 8513 1ee7 0C       		.uleb128 0xc
 8514 1ee8 9A0F0000 		.4byte	.LASF379
 8515 1eec 19       		.byte	0x19
 8516 1eed 3C       		.byte	0x3c
 8517 1eee 0D       		.byte	0xd
 8518 1eef 66090000 		.4byte	0x966
 8519 1ef3 0B       		.byte	0xb
 8520 1ef4 0C       		.uleb128 0xc
 8521 1ef5 67140000 		.4byte	.LASF380
 8522 1ef9 19       		.byte	0x19
 8523 1efa 3D       		.byte	0x3d
ARM GAS  /tmp/ccfraM8n.s 			page 151


 8524 1efb 0D       		.byte	0xd
 8525 1efc 66090000 		.4byte	0x966
 8526 1f00 0C       		.byte	0xc
 8527 1f01 0C       		.uleb128 0xc
 8528 1f02 2A1D0000 		.4byte	.LASF381
 8529 1f06 19       		.byte	0x19
 8530 1f07 3E       		.byte	0x3e
 8531 1f08 0D       		.byte	0xd
 8532 1f09 66090000 		.4byte	0x966
 8533 1f0d 0D       		.byte	0xd
 8534 1f0e 0C       		.uleb128 0xc
 8535 1f0f 63180000 		.4byte	.LASF382
 8536 1f13 19       		.byte	0x19
 8537 1f14 3F       		.byte	0x3f
 8538 1f15 0D       		.byte	0xd
 8539 1f16 66090000 		.4byte	0x966
 8540 1f1a 0E       		.byte	0xe
 8541 1f1b 0C       		.uleb128 0xc
 8542 1f1c 531F0000 		.4byte	.LASF383
 8543 1f20 19       		.byte	0x19
 8544 1f21 40       		.byte	0x40
 8545 1f22 0D       		.byte	0xd
 8546 1f23 66090000 		.4byte	0x966
 8547 1f27 0F       		.byte	0xf
 8548 1f28 0C       		.uleb128 0xc
 8549 1f29 73170000 		.4byte	.LASF384
 8550 1f2d 19       		.byte	0x19
 8551 1f2e 41       		.byte	0x41
 8552 1f2f 0D       		.byte	0xd
 8553 1f30 66090000 		.4byte	0x966
 8554 1f34 10       		.byte	0x10
 8555 1f35 0C       		.uleb128 0xc
 8556 1f36 0D1A0000 		.4byte	.LASF385
 8557 1f3a 19       		.byte	0x19
 8558 1f3b 42       		.byte	0x42
 8559 1f3c 0D       		.byte	0xd
 8560 1f3d 66090000 		.4byte	0x966
 8561 1f41 11       		.byte	0x11
 8562 1f42 0C       		.uleb128 0xc
 8563 1f43 B7150000 		.4byte	.LASF386
 8564 1f47 19       		.byte	0x19
 8565 1f48 43       		.byte	0x43
 8566 1f49 0D       		.byte	0xd
 8567 1f4a 66090000 		.4byte	0x966
 8568 1f4e 12       		.byte	0x12
 8569 1f4f 0C       		.uleb128 0xc
 8570 1f50 A4140000 		.4byte	.LASF387
 8571 1f54 19       		.byte	0x19
 8572 1f55 44       		.byte	0x44
 8573 1f56 0D       		.byte	0xd
 8574 1f57 66090000 		.4byte	0x966
 8575 1f5b 13       		.byte	0x13
 8576 1f5c 0C       		.uleb128 0xc
 8577 1f5d D1170000 		.4byte	.LASF388
 8578 1f61 19       		.byte	0x19
 8579 1f62 45       		.byte	0x45
 8580 1f63 0D       		.byte	0xd
ARM GAS  /tmp/ccfraM8n.s 			page 152


 8581 1f64 66090000 		.4byte	0x966
 8582 1f68 14       		.byte	0x14
 8583 1f69 0C       		.uleb128 0xc
 8584 1f6a 4B140000 		.4byte	.LASF389
 8585 1f6e 19       		.byte	0x19
 8586 1f6f 46       		.byte	0x46
 8587 1f70 0D       		.byte	0xd
 8588 1f71 66090000 		.4byte	0x966
 8589 1f75 15       		.byte	0x15
 8590 1f76 00       		.byte	0
 8591 1f77 09       		.uleb128 0x9
 8592 1f78 7F060000 		.4byte	0x67f
 8593 1f7c 871F0000 		.4byte	0x1f87
 8594 1f80 0A       		.uleb128 0xa
 8595 1f81 25000000 		.4byte	0x25
 8596 1f85 03       		.byte	0x3
 8597 1f86 00       		.byte	0
 8598 1f87 04       		.uleb128 0x4
 8599 1f88 A5120000 		.4byte	.LASF390
 8600 1f8c 19       		.byte	0x19
 8601 1f8d 47       		.byte	0x47
 8602 1f8e 03       		.byte	0x3
 8603 1f8f 831E0000 		.4byte	0x1e83
 8604 1f93 15       		.uleb128 0x15
 8605 1f94 871F0000 		.4byte	0x1f87
 8606 1f98 20       		.uleb128 0x20
 8607 1f99 080A0000 		.4byte	.LASF391
 8608 1f9d 19       		.byte	0x19
 8609 1f9e 6C       		.byte	0x6c
 8610 1f9f 1D       		.byte	0x1d
 8611 1fa0 931F0000 		.4byte	0x1f93
 8612 1fa4 04       		.uleb128 0x4
 8613 1fa5 461C0000 		.4byte	.LASF392
 8614 1fa9 18       		.byte	0x18
 8615 1faa 34       		.byte	0x34
 8616 1fab 19       		.byte	0x19
 8617 1fac 181E0000 		.4byte	0x1e18
 8618 1fb0 0E       		.uleb128 0xe
 8619 1fb1 04       		.byte	0x4
 8620 1fb2 A41F0000 		.4byte	0x1fa4
 8621 1fb6 04       		.uleb128 0x4
 8622 1fb7 5B0A0000 		.4byte	.LASF393
 8623 1fbb 1A       		.byte	0x1a
 8624 1fbc 34       		.byte	0x34
 8625 1fbd 1F       		.byte	0x1f
 8626 1fbe C21F0000 		.4byte	0x1fc2
 8627 1fc2 10       		.uleb128 0x10
 8628 1fc3 67230000 		.4byte	.LASF394
 8629 1fc7 14       		.byte	0x14
 8630 1fc8 1A       		.byte	0x1a
 8631 1fc9 39       		.byte	0x39
 8632 1fca 08       		.byte	0x8
 8633 1fcb 11200000 		.4byte	0x2011
 8634 1fcf 0C       		.uleb128 0xc
 8635 1fd0 87020000 		.4byte	.LASF165
 8636 1fd4 1A       		.byte	0x1a
 8637 1fd5 3A       		.byte	0x3a
ARM GAS  /tmp/ccfraM8n.s 			page 153


 8638 1fd6 1A       		.byte	0x1a
 8639 1fd7 11200000 		.4byte	0x2011
 8640 1fdb 00       		.byte	0
 8641 1fdc 0C       		.uleb128 0xc
 8642 1fdd BF0D0000 		.4byte	.LASF395
 8643 1fe1 1A       		.byte	0x1a
 8644 1fe2 3D       		.byte	0x3d
 8645 1fe3 1A       		.byte	0x1a
 8646 1fe4 420B0000 		.4byte	0xb42
 8647 1fe8 04       		.byte	0x4
 8648 1fe9 0C       		.uleb128 0xc
 8649 1fea F4220000 		.4byte	.LASF396
 8650 1fee 1A       		.byte	0x1a
 8651 1fef 3F       		.byte	0x3f
 8652 1ff0 19       		.byte	0x19
 8653 1ff1 0A0A0000 		.4byte	0xa0a
 8654 1ff5 08       		.byte	0x8
 8655 1ff6 0C       		.uleb128 0xc
 8656 1ff7 11240000 		.4byte	.LASF154
 8657 1ffb 1A       		.byte	0x1a
 8658 1ffc 41       		.byte	0x41
 8659 1ffd 19       		.byte	0x19
 8660 1ffe 160A0000 		.4byte	0xa16
 8661 2002 0C       		.byte	0xc
 8662 2003 0C       		.uleb128 0xc
 8663 2004 A71B0000 		.4byte	.LASF397
 8664 2008 1A       		.byte	0x1a
 8665 2009 43       		.byte	0x43
 8666 200a 19       		.byte	0x19
 8667 200b 160A0000 		.4byte	0xa16
 8668 200f 10       		.byte	0x10
 8669 2010 00       		.byte	0
 8670 2011 0E       		.uleb128 0xe
 8671 2012 04       		.byte	0x4
 8672 2013 B61F0000 		.4byte	0x1fb6
 8673 2017 10       		.uleb128 0x10
 8674 2018 3B1E0000 		.4byte	.LASF398
 8675 201c 04       		.byte	0x4
 8676 201d 1A       		.byte	0x1a
 8677 201e 4A       		.byte	0x4a
 8678 201f 10       		.byte	0x10
 8679 2020 32200000 		.4byte	0x2032
 8680 2024 0C       		.uleb128 0xc
 8681 2025 87020000 		.4byte	.LASF165
 8682 2029 1A       		.byte	0x1a
 8683 202a 4B       		.byte	0x4b
 8684 202b 1A       		.byte	0x1a
 8685 202c 11200000 		.4byte	0x2011
 8686 2030 00       		.byte	0
 8687 2031 00       		.byte	0
 8688 2032 04       		.uleb128 0x4
 8689 2033 45130000 		.4byte	.LASF399
 8690 2037 1A       		.byte	0x1a
 8691 2038 4E       		.byte	0x4e
 8692 2039 03       		.byte	0x3
 8693 203a 17200000 		.4byte	0x2017
 8694 203e 02       		.uleb128 0x2
ARM GAS  /tmp/ccfraM8n.s 			page 154


 8695 203f 01       		.byte	0x1
 8696 2040 02       		.byte	0x2
 8697 2041 48010000 		.4byte	.LASF400
 8698 2045 04       		.uleb128 0x4
 8699 2046 83010000 		.4byte	.LASF401
 8700 204a 1B       		.byte	0x1b
 8701 204b 47       		.byte	0x47
 8702 204c 11       		.byte	0x11
 8703 204d 51200000 		.4byte	0x2051
 8704 2051 0E       		.uleb128 0xe
 8705 2052 04       		.byte	0x4
 8706 2053 57200000 		.4byte	0x2057
 8707 2057 19       		.uleb128 0x19
 8708 2058 46010000 		.4byte	0x146
 8709 205c 6B200000 		.4byte	0x206b
 8710 2060 1A       		.uleb128 0x1a
 8711 2061 33000000 		.4byte	0x33
 8712 2065 1A       		.uleb128 0x1a
 8713 2066 25000000 		.4byte	0x25
 8714 206a 00       		.byte	0
 8715 206b 0B       		.uleb128 0xb
 8716 206c 08       		.byte	0x8
 8717 206d 1B       		.byte	0x1b
 8718 206e 51       		.byte	0x51
 8719 206f 09       		.byte	0x9
 8720 2070 8F200000 		.4byte	0x208f
 8721 2074 0C       		.uleb128 0xc
 8722 2075 22180000 		.4byte	.LASF402
 8723 2079 1B       		.byte	0x1b
 8724 207a 55       		.byte	0x55
 8725 207b 0C       		.byte	0xc
 8726 207c 8F200000 		.4byte	0x208f
 8727 2080 00       		.byte	0
 8728 2081 0C       		.uleb128 0xc
 8729 2082 95090000 		.4byte	.LASF403
 8730 2086 1B       		.byte	0x1b
 8731 2087 59       		.byte	0x59
 8732 2088 0C       		.byte	0xc
 8733 2089 8F200000 		.4byte	0x208f
 8734 208d 04       		.byte	0x4
 8735 208e 00       		.byte	0
 8736 208f 0E       		.uleb128 0xe
 8737 2090 04       		.byte	0x4
 8738 2091 66090000 		.4byte	0x966
 8739 2095 04       		.uleb128 0x4
 8740 2096 DB0E0000 		.4byte	.LASF404
 8741 209a 1B       		.byte	0x1b
 8742 209b 5A       		.byte	0x5a
 8743 209c 03       		.byte	0x3
 8744 209d 6B200000 		.4byte	0x206b
 8745 20a1 20       		.uleb128 0x20
 8746 20a2 12000000 		.4byte	.LASF405
 8747 20a6 1B       		.byte	0x1b
 8748 20a7 75       		.byte	0x75
 8749 20a8 12       		.byte	0x12
 8750 20a9 95200000 		.4byte	0x2095
 8751 20ad 10       		.uleb128 0x10
ARM GAS  /tmp/ccfraM8n.s 			page 155


 8752 20ae 75090000 		.4byte	.LASF406
 8753 20b2 04       		.byte	0x4
 8754 20b3 1C       		.byte	0x1c
 8755 20b4 38       		.byte	0x38
 8756 20b5 08       		.byte	0x8
 8757 20b6 C8200000 		.4byte	0x20c8
 8758 20ba 0C       		.uleb128 0xc
 8759 20bb 87020000 		.4byte	.LASF165
 8760 20bf 1C       		.byte	0x1c
 8761 20c0 39       		.byte	0x39
 8762 20c1 1A       		.byte	0x1a
 8763 20c2 C8200000 		.4byte	0x20c8
 8764 20c6 00       		.byte	0
 8765 20c7 00       		.byte	0
 8766 20c8 0E       		.uleb128 0xe
 8767 20c9 04       		.byte	0x4
 8768 20ca AD200000 		.4byte	0x20ad
 8769 20ce 0B       		.uleb128 0xb
 8770 20cf 10       		.byte	0x10
 8771 20d0 1C       		.byte	0x1c
 8772 20d1 40       		.byte	0x40
 8773 20d2 09       		.byte	0x9
 8774 20d3 0C210000 		.4byte	0x210c
 8775 20d7 0C       		.uleb128 0xc
 8776 20d8 87020000 		.4byte	.LASF165
 8777 20dc 1C       		.byte	0x1c
 8778 20dd 41       		.byte	0x41
 8779 20de 1A       		.byte	0x1a
 8780 20df C8200000 		.4byte	0x20c8
 8781 20e3 00       		.byte	0
 8782 20e4 0C       		.uleb128 0xc
 8783 20e5 A00C0000 		.4byte	.LASF407
 8784 20e9 1C       		.byte	0x1c
 8785 20ea 42       		.byte	0x42
 8786 20eb 19       		.byte	0x19
 8787 20ec 33000000 		.4byte	0x33
 8788 20f0 04       		.byte	0x4
 8789 20f1 0C       		.uleb128 0xc
 8790 20f2 4F190000 		.4byte	.LASF408
 8791 20f6 1C       		.byte	0x1c
 8792 20f7 44       		.byte	0x44
 8793 20f8 19       		.byte	0x19
 8794 20f9 25000000 		.4byte	0x25
 8795 20fd 08       		.byte	0x8
 8796 20fe 0C       		.uleb128 0xc
 8797 20ff 68010000 		.4byte	.LASF409
 8798 2103 1C       		.byte	0x1c
 8799 2104 45       		.byte	0x45
 8800 2105 19       		.byte	0x19
 8801 2106 45200000 		.4byte	0x2045
 8802 210a 0C       		.byte	0xc
 8803 210b 00       		.byte	0
 8804 210c 04       		.uleb128 0x4
 8805 210d 8E230000 		.4byte	.LASF410
 8806 2111 1C       		.byte	0x1c
 8807 2112 47       		.byte	0x47
 8808 2113 03       		.byte	0x3
ARM GAS  /tmp/ccfraM8n.s 			page 156


 8809 2114 CE200000 		.4byte	0x20ce
 8810 2118 10       		.uleb128 0x10
 8811 2119 92020000 		.4byte	.LASF411
 8812 211d 10       		.byte	0x10
 8813 211e 1D       		.byte	0x1d
 8814 211f A9       		.byte	0xa9
 8815 2120 10       		.byte	0x10
 8816 2121 4D210000 		.4byte	0x214d
 8817 2125 0C       		.uleb128 0xc
 8818 2126 87020000 		.4byte	.LASF165
 8819 212a 1D       		.byte	0x1d
 8820 212b AD       		.byte	0xad
 8821 212c 1A       		.byte	0x1a
 8822 212d 4D210000 		.4byte	0x214d
 8823 2131 00       		.byte	0
 8824 2132 0C       		.uleb128 0xc
 8825 2133 1D050000 		.4byte	.LASF155
 8826 2137 1D       		.byte	0x1d
 8827 2138 B1       		.byte	0xb1
 8828 2139 19       		.byte	0x19
 8829 213a 2E0A0000 		.4byte	0xa2e
 8830 213e 04       		.byte	0x4
 8831 213f 0C       		.uleb128 0xc
 8832 2140 5B120000 		.4byte	.LASF151
 8833 2144 1D       		.byte	0x1d
 8834 2145 B3       		.byte	0xb3
 8835 2146 19       		.byte	0x19
 8836 2147 BD080000 		.4byte	0x8bd
 8837 214b 08       		.byte	0x8
 8838 214c 00       		.byte	0
 8839 214d 0E       		.uleb128 0xe
 8840 214e 04       		.byte	0x4
 8841 214f 18210000 		.4byte	0x2118
 8842 2153 04       		.uleb128 0x4
 8843 2154 C1150000 		.4byte	.LASF412
 8844 2158 1D       		.byte	0x1d
 8845 2159 B7       		.byte	0xb7
 8846 215a 03       		.byte	0x3
 8847 215b 18210000 		.4byte	0x2118
 8848 215f 10       		.uleb128 0x10
 8849 2160 B3060000 		.4byte	.LASF413
 8850 2164 04       		.byte	0x4
 8851 2165 1D       		.byte	0x1d
 8852 2166 BC       		.byte	0xbc
 8853 2167 10       		.byte	0x10
 8854 2168 7A210000 		.4byte	0x217a
 8855 216c 0C       		.uleb128 0xc
 8856 216d 87020000 		.4byte	.LASF165
 8857 2171 1D       		.byte	0x1d
 8858 2172 BD       		.byte	0xbd
 8859 2173 1A       		.byte	0x1a
 8860 2174 7A210000 		.4byte	0x217a
 8861 2178 00       		.byte	0
 8862 2179 00       		.byte	0
 8863 217a 0E       		.uleb128 0xe
 8864 217b 04       		.byte	0x4
 8865 217c 53210000 		.4byte	0x2153
ARM GAS  /tmp/ccfraM8n.s 			page 157


 8866 2180 04       		.uleb128 0x4
 8867 2181 B40F0000 		.4byte	.LASF414
 8868 2185 1D       		.byte	0x1d
 8869 2186 BE       		.byte	0xbe
 8870 2187 03       		.byte	0x3
 8871 2188 5F210000 		.4byte	0x215f
 8872 218c 16       		.uleb128 0x16
 8873 218d 65020000 		.4byte	.LASF415
 8874 2191 48       		.byte	0x48
 8875 2192 1D       		.byte	0x1d
 8876 2193 2001     		.2byte	0x120
 8877 2195 10       		.byte	0x10
 8878 2196 19220000 		.4byte	0x2219
 8879 219a 18       		.uleb128 0x18
 8880 219b 6D747800 		.ascii	"mtx\000"
 8881 219f 1D       		.byte	0x1d
 8882 21a0 2501     		.2byte	0x125
 8883 21a2 19       		.byte	0x19
 8884 21a3 A41F0000 		.4byte	0x1fa4
 8885 21a7 00       		.byte	0
 8886 21a8 17       		.uleb128 0x17
 8887 21a9 530B0000 		.4byte	.LASF416
 8888 21ad 1D       		.byte	0x1d
 8889 21ae 2C01     		.2byte	0x12c
 8890 21b0 19       		.byte	0x19
 8891 21b1 80210000 		.4byte	0x2180
 8892 21b5 10       		.byte	0x10
 8893 21b6 17       		.uleb128 0x17
 8894 21b7 F31A0000 		.4byte	.LASF417
 8895 21bb 1D       		.byte	0x1d
 8896 21bc 3001     		.2byte	0x130
 8897 21be 19       		.byte	0x19
 8898 21bf 0C210000 		.4byte	0x210c
 8899 21c3 14       		.byte	0x14
 8900 21c4 17       		.uleb128 0x17
 8901 21c5 5A170000 		.4byte	.LASF418
 8902 21c9 1D       		.byte	0x1d
 8903 21ca 3501     		.2byte	0x135
 8904 21cc 19       		.byte	0x19
 8905 21cd 80210000 		.4byte	0x2180
 8906 21d1 24       		.byte	0x24
 8907 21d2 17       		.uleb128 0x17
 8908 21d3 411F0000 		.4byte	.LASF419
 8909 21d7 1D       		.byte	0x1d
 8910 21d8 3B01     		.2byte	0x13b
 8911 21da 19       		.byte	0x19
 8912 21db 80210000 		.4byte	0x2180
 8913 21df 28       		.byte	0x28
 8914 21e0 17       		.uleb128 0x17
 8915 21e1 6E0B0000 		.4byte	.LASF420
 8916 21e5 1D       		.byte	0x1d
 8917 21e6 3F01     		.2byte	0x13f
 8918 21e8 19       		.byte	0x19
 8919 21e9 0C210000 		.4byte	0x210c
 8920 21ed 2C       		.byte	0x2c
 8921 21ee 17       		.uleb128 0x17
 8922 21ef 4A1F0000 		.4byte	.LASF421
ARM GAS  /tmp/ccfraM8n.s 			page 158


 8923 21f3 1D       		.byte	0x1d
 8924 21f4 4501     		.2byte	0x145
 8925 21f6 19       		.byte	0x19
 8926 21f7 80210000 		.4byte	0x2180
 8927 21fb 3C       		.byte	0x3c
 8928 21fc 17       		.uleb128 0x17
 8929 21fd 7E0D0000 		.4byte	.LASF422
 8930 2201 1D       		.byte	0x1d
 8931 2202 4B01     		.2byte	0x14b
 8932 2204 19       		.byte	0x19
 8933 2205 80210000 		.4byte	0x2180
 8934 2209 40       		.byte	0x40
 8935 220a 17       		.uleb128 0x17
 8936 220b 570F0000 		.4byte	.LASF423
 8937 220f 1D       		.byte	0x1d
 8938 2210 5101     		.2byte	0x151
 8939 2212 19       		.byte	0x19
 8940 2213 80210000 		.4byte	0x2180
 8941 2217 44       		.byte	0x44
 8942 2218 00       		.byte	0
 8943 2219 06       		.uleb128 0x6
 8944 221a 71010000 		.4byte	.LASF424
 8945 221e 1D       		.byte	0x1d
 8946 221f 5301     		.2byte	0x153
 8947 2221 03       		.byte	0x3
 8948 2222 8C210000 		.4byte	0x218c
 8949 2226 1C       		.uleb128 0x1c
 8950 2227 FC1A0000 		.4byte	.LASF425
 8951 222b 1D       		.byte	0x1d
 8952 222c 5E01     		.2byte	0x15e
 8953 222e 1A       		.byte	0x1a
 8954 222f 19220000 		.4byte	0x2219
 8955 2233 21       		.uleb128 0x21
 8956 2234 10       		.byte	0x10
 8957 2235 1E       		.byte	0x1e
 8958 2236 A201     		.2byte	0x1a2
 8959 2238 09       		.byte	0x9
 8960 2239 92220000 		.4byte	0x2292
 8961 223d 17       		.uleb128 0x17
 8962 223e 2F230000 		.4byte	.LASF426
 8963 2242 1E       		.byte	0x1e
 8964 2243 A301     		.2byte	0x1a3
 8965 2245 1A       		.byte	0x1a
 8966 2246 92220000 		.4byte	0x2292
 8967 224a 00       		.byte	0
 8968 224b 17       		.uleb128 0x17
 8969 224c EF0E0000 		.4byte	.LASF427
 8970 2250 1E       		.byte	0x1e
 8971 2251 A401     		.2byte	0x1a4
 8972 2253 1A       		.byte	0x1a
 8973 2254 98220000 		.4byte	0x2298
 8974 2258 04       		.byte	0x4
 8975 2259 18       		.uleb128 0x18
 8976 225a 6D757800 		.ascii	"mux\000"
 8977 225e 1E       		.byte	0x1e
 8978 225f A601     		.2byte	0x1a6
 8979 2261 1B       		.byte	0x1b
ARM GAS  /tmp/ccfraM8n.s 			page 159


 8980 2262 9E220000 		.4byte	0x229e
 8981 2266 08       		.byte	0x8
 8982 2267 17       		.uleb128 0x17
 8983 2268 960B0000 		.4byte	.LASF428
 8984 226c 1E       		.byte	0x1e
 8985 226d AA01     		.2byte	0x1aa
 8986 226f 19       		.byte	0x19
 8987 2270 66090000 		.4byte	0x966
 8988 2274 0C       		.byte	0xc
 8989 2275 17       		.uleb128 0x17
 8990 2276 3C1C0000 		.4byte	.LASF429
 8991 227a 1E       		.byte	0x1e
 8992 227b AC01     		.2byte	0x1ac
 8993 227d 19       		.byte	0x19
 8994 227e 66090000 		.4byte	0x966
 8995 2282 0D       		.byte	0xd
 8996 2283 17       		.uleb128 0x17
 8997 2284 FA030000 		.4byte	.LASF430
 8998 2288 1E       		.byte	0x1e
 8999 2289 AD01     		.2byte	0x1ad
 9000 228b 19       		.byte	0x19
 9001 228c 66090000 		.4byte	0x966
 9002 2290 0E       		.byte	0xe
 9003 2291 00       		.byte	0
 9004 2292 0E       		.uleb128 0xe
 9005 2293 04       		.byte	0x4
 9006 2294 4A110000 		.4byte	0x114a
 9007 2298 0E       		.uleb128 0xe
 9008 2299 04       		.byte	0x4
 9009 229a A0090000 		.4byte	0x9a0
 9010 229e 0E       		.uleb128 0xe
 9011 229f 04       		.byte	0x4
 9012 22a0 02120000 		.4byte	0x1202
 9013 22a4 06       		.uleb128 0x6
 9014 22a5 71110000 		.4byte	.LASF431
 9015 22a9 1E       		.byte	0x1e
 9016 22aa AE01     		.2byte	0x1ae
 9017 22ac 03       		.byte	0x3
 9018 22ad 33220000 		.4byte	0x2233
 9019 22b1 15       		.uleb128 0x15
 9020 22b2 A4220000 		.4byte	0x22a4
 9021 22b6 09       		.uleb128 0x9
 9022 22b7 B1220000 		.4byte	0x22b1
 9023 22bb C6220000 		.4byte	0x22c6
 9024 22bf 0A       		.uleb128 0xa
 9025 22c0 25000000 		.4byte	0x25
 9026 22c4 0F       		.byte	0xf
 9027 22c5 00       		.byte	0
 9028 22c6 15       		.uleb128 0x15
 9029 22c7 B6220000 		.4byte	0x22b6
 9030 22cb 1C       		.uleb128 0x1c
 9031 22cc 65190000 		.4byte	.LASF432
 9032 22d0 1E       		.byte	0x1e
 9033 22d1 9002     		.2byte	0x290
 9034 22d3 21       		.byte	0x21
 9035 22d4 C6220000 		.4byte	0x22c6
 9036 22d8 0B       		.uleb128 0xb
ARM GAS  /tmp/ccfraM8n.s 			page 160


 9037 22d9 14       		.byte	0x14
 9038 22da 1F       		.byte	0x1f
 9039 22db E7       		.byte	0xe7
 9040 22dc 09       		.byte	0x9
 9041 22dd 30230000 		.4byte	0x2330
 9042 22e1 0C       		.uleb128 0xc
 9043 22e2 C3100000 		.4byte	.LASF433
 9044 22e6 1F       		.byte	0x1f
 9045 22e7 E8       		.byte	0xe8
 9046 22e8 1E       		.byte	0x1e
 9047 22e9 30230000 		.4byte	0x2330
 9048 22ed 00       		.byte	0
 9049 22ee 0C       		.uleb128 0xc
 9050 22ef 9A100000 		.4byte	.LASF434
 9051 22f3 1F       		.byte	0x1f
 9052 22f4 E9       		.byte	0xe9
 9053 22f5 1E       		.byte	0x1e
 9054 22f6 36230000 		.4byte	0x2336
 9055 22fa 04       		.byte	0x4
 9056 22fb 0C       		.uleb128 0xc
 9057 22fc 960B0000 		.4byte	.LASF428
 9058 2300 1F       		.byte	0x1f
 9059 2301 EA       		.byte	0xea
 9060 2302 1D       		.byte	0x1d
 9061 2303 66090000 		.4byte	0x966
 9062 2307 08       		.byte	0x8
 9063 2308 11       		.uleb128 0x11
 9064 2309 6D757800 		.ascii	"mux\000"
 9065 230d 1F       		.byte	0x1f
 9066 230e EC       		.byte	0xec
 9067 230f 1E       		.byte	0x1e
 9068 2310 9E220000 		.4byte	0x229e
 9069 2314 0C       		.byte	0xc
 9070 2315 0C       		.uleb128 0xc
 9071 2316 3C1C0000 		.4byte	.LASF429
 9072 231a 1F       		.byte	0x1f
 9073 231b ED       		.byte	0xed
 9074 231c 1D       		.byte	0x1d
 9075 231d 66090000 		.4byte	0x966
 9076 2321 10       		.byte	0x10
 9077 2322 0C       		.uleb128 0xc
 9078 2323 FA030000 		.4byte	.LASF430
 9079 2327 1F       		.byte	0x1f
 9080 2328 EE       		.byte	0xee
 9081 2329 1D       		.byte	0x1d
 9082 232a 66090000 		.4byte	0x966
 9083 232e 11       		.byte	0x11
 9084 232f 00       		.byte	0
 9085 2330 0E       		.uleb128 0xe
 9086 2331 04       		.byte	0x4
 9087 2332 DC110000 		.4byte	0x11dc
 9088 2336 0E       		.uleb128 0xe
 9089 2337 04       		.byte	0x4
 9090 2338 A8110000 		.4byte	0x11a8
 9091 233c 04       		.uleb128 0x4
 9092 233d A7170000 		.4byte	.LASF435
 9093 2341 1F       		.byte	0x1f
ARM GAS  /tmp/ccfraM8n.s 			page 161


 9094 2342 EF       		.byte	0xef
 9095 2343 03       		.byte	0x3
 9096 2344 D8220000 		.4byte	0x22d8
 9097 2348 15       		.uleb128 0x15
 9098 2349 3C230000 		.4byte	0x233c
 9099 234d 09       		.uleb128 0x9
 9100 234e 48230000 		.4byte	0x2348
 9101 2352 5D230000 		.4byte	0x235d
 9102 2356 0A       		.uleb128 0xa
 9103 2357 25000000 		.4byte	0x25
 9104 235b 07       		.byte	0x7
 9105 235c 00       		.byte	0
 9106 235d 15       		.uleb128 0x15
 9107 235e 4D230000 		.4byte	0x234d
 9108 2362 1C       		.uleb128 0x1c
 9109 2363 DC180000 		.4byte	.LASF436
 9110 2367 1F       		.byte	0x1f
 9111 2368 A101     		.2byte	0x1a1
 9112 236a 22       		.byte	0x22
 9113 236b 5D230000 		.4byte	0x235d
 9114 236f 21       		.uleb128 0x21
 9115 2370 60       		.byte	0x60
 9116 2371 20       		.byte	0x20
 9117 2372 F601     		.2byte	0x1f6
 9118 2374 09       		.byte	0x9
 9119 2375 90240000 		.4byte	0x2490
 9120 2379 18       		.uleb128 0x18
 9121 237a 43523100 		.ascii	"CR1\000"
 9122 237e 20       		.byte	0x20
 9123 237f F701     		.2byte	0x1f7
 9124 2381 19       		.byte	0x19
 9125 2382 A0090000 		.4byte	0x9a0
 9126 2386 00       		.byte	0
 9127 2387 18       		.uleb128 0x18
 9128 2388 43523200 		.ascii	"CR2\000"
 9129 238c 20       		.byte	0x20
 9130 238d F801     		.2byte	0x1f8
 9131 238f 19       		.byte	0x19
 9132 2390 A0090000 		.4byte	0x9a0
 9133 2394 04       		.byte	0x4
 9134 2395 17       		.uleb128 0x17
 9135 2396 E11D0000 		.4byte	.LASF437
 9136 239a 20       		.byte	0x20
 9137 239b F901     		.2byte	0x1f9
 9138 239d 19       		.byte	0x19
 9139 239e A0090000 		.4byte	0x9a0
 9140 23a2 08       		.byte	0x8
 9141 23a3 17       		.uleb128 0x17
 9142 23a4 90090000 		.4byte	.LASF438
 9143 23a8 20       		.byte	0x20
 9144 23a9 FA01     		.2byte	0x1fa
 9145 23ab 19       		.byte	0x19
 9146 23ac A0090000 		.4byte	0x9a0
 9147 23b0 0C       		.byte	0xc
 9148 23b1 18       		.uleb128 0x18
 9149 23b2 535200   		.ascii	"SR\000"
 9150 23b5 20       		.byte	0x20
ARM GAS  /tmp/ccfraM8n.s 			page 162


 9151 23b6 FB01     		.2byte	0x1fb
 9152 23b8 19       		.byte	0x19
 9153 23b9 A0090000 		.4byte	0x9a0
 9154 23bd 10       		.byte	0x10
 9155 23be 18       		.uleb128 0x18
 9156 23bf 45475200 		.ascii	"EGR\000"
 9157 23c3 20       		.byte	0x20
 9158 23c4 FC01     		.2byte	0x1fc
 9159 23c6 19       		.byte	0x19
 9160 23c7 A0090000 		.4byte	0x9a0
 9161 23cb 14       		.byte	0x14
 9162 23cc 17       		.uleb128 0x17
 9163 23cd FB220000 		.4byte	.LASF439
 9164 23d1 20       		.byte	0x20
 9165 23d2 FD01     		.2byte	0x1fd
 9166 23d4 19       		.byte	0x19
 9167 23d5 A0090000 		.4byte	0x9a0
 9168 23d9 18       		.byte	0x18
 9169 23da 17       		.uleb128 0x17
 9170 23db 01230000 		.4byte	.LASF440
 9171 23df 20       		.byte	0x20
 9172 23e0 FE01     		.2byte	0x1fe
 9173 23e2 19       		.byte	0x19
 9174 23e3 A0090000 		.4byte	0x9a0
 9175 23e7 1C       		.byte	0x1c
 9176 23e8 17       		.uleb128 0x17
 9177 23e9 3D070000 		.4byte	.LASF441
 9178 23ed 20       		.byte	0x20
 9179 23ee FF01     		.2byte	0x1ff
 9180 23f0 19       		.byte	0x19
 9181 23f1 A0090000 		.4byte	0x9a0
 9182 23f5 20       		.byte	0x20
 9183 23f6 18       		.uleb128 0x18
 9184 23f7 434E5400 		.ascii	"CNT\000"
 9185 23fb 20       		.byte	0x20
 9186 23fc 0002     		.2byte	0x200
 9187 23fe 19       		.byte	0x19
 9188 23ff A0090000 		.4byte	0x9a0
 9189 2403 24       		.byte	0x24
 9190 2404 18       		.uleb128 0x18
 9191 2405 50534300 		.ascii	"PSC\000"
 9192 2409 20       		.byte	0x20
 9193 240a 0102     		.2byte	0x201
 9194 240c 19       		.byte	0x19
 9195 240d A0090000 		.4byte	0x9a0
 9196 2411 28       		.byte	0x28
 9197 2412 18       		.uleb128 0x18
 9198 2413 41525200 		.ascii	"ARR\000"
 9199 2417 20       		.byte	0x20
 9200 2418 0202     		.2byte	0x202
 9201 241a 19       		.byte	0x19
 9202 241b A0090000 		.4byte	0x9a0
 9203 241f 2C       		.byte	0x2c
 9204 2420 18       		.uleb128 0x18
 9205 2421 52435200 		.ascii	"RCR\000"
 9206 2425 20       		.byte	0x20
 9207 2426 0302     		.2byte	0x203
ARM GAS  /tmp/ccfraM8n.s 			page 163


 9208 2428 19       		.byte	0x19
 9209 2429 A0090000 		.4byte	0x9a0
 9210 242d 30       		.byte	0x30
 9211 242e 18       		.uleb128 0x18
 9212 242f 43435200 		.ascii	"CCR\000"
 9213 2433 20       		.byte	0x20
 9214 2434 0402     		.2byte	0x204
 9215 2436 19       		.byte	0x19
 9216 2437 D2100000 		.4byte	0x10d2
 9217 243b 34       		.byte	0x34
 9218 243c 17       		.uleb128 0x17
 9219 243d 23020000 		.4byte	.LASF442
 9220 2441 20       		.byte	0x20
 9221 2442 0502     		.2byte	0x205
 9222 2444 19       		.byte	0x19
 9223 2445 A0090000 		.4byte	0x9a0
 9224 2449 44       		.byte	0x44
 9225 244a 18       		.uleb128 0x18
 9226 244b 44435200 		.ascii	"DCR\000"
 9227 244f 20       		.byte	0x20
 9228 2450 0602     		.2byte	0x206
 9229 2452 19       		.byte	0x19
 9230 2453 A0090000 		.4byte	0x9a0
 9231 2457 48       		.byte	0x48
 9232 2458 17       		.uleb128 0x17
 9233 2459 34150000 		.4byte	.LASF443
 9234 245d 20       		.byte	0x20
 9235 245e 0702     		.2byte	0x207
 9236 2460 19       		.byte	0x19
 9237 2461 A0090000 		.4byte	0x9a0
 9238 2465 4C       		.byte	0x4c
 9239 2466 18       		.uleb128 0x18
 9240 2467 4F5200   		.ascii	"OR\000"
 9241 246a 20       		.byte	0x20
 9242 246b 0802     		.2byte	0x208
 9243 246d 19       		.byte	0x19
 9244 246e A0090000 		.4byte	0x9a0
 9245 2472 50       		.byte	0x50
 9246 2473 17       		.uleb128 0x17
 9247 2474 07230000 		.4byte	.LASF444
 9248 2478 20       		.byte	0x20
 9249 2479 0902     		.2byte	0x209
 9250 247b 19       		.byte	0x19
 9251 247c A0090000 		.4byte	0x9a0
 9252 2480 54       		.byte	0x54
 9253 2481 17       		.uleb128 0x17
 9254 2482 E10B0000 		.4byte	.LASF445
 9255 2486 20       		.byte	0x20
 9256 2487 0A02     		.2byte	0x20a
 9257 2489 19       		.byte	0x19
 9258 248a E7100000 		.4byte	0x10e7
 9259 248e 58       		.byte	0x58
 9260 248f 00       		.byte	0
 9261 2490 06       		.uleb128 0x6
 9262 2491 14090000 		.4byte	.LASF446
 9263 2495 20       		.byte	0x20
 9264 2496 0B02     		.2byte	0x20b
ARM GAS  /tmp/ccfraM8n.s 			page 164


 9265 2498 03       		.byte	0x3
 9266 2499 6F230000 		.4byte	0x236f
 9267 249d 19       		.uleb128 0x19
 9268 249e 33000000 		.4byte	0x33
 9269 24a2 B6240000 		.4byte	0x24b6
 9270 24a6 1A       		.uleb128 0x1a
 9271 24a7 46010000 		.4byte	0x146
 9272 24ab 1A       		.uleb128 0x1a
 9273 24ac B6240000 		.4byte	0x24b6
 9274 24b0 1A       		.uleb128 0x1a
 9275 24b1 33000000 		.4byte	0x33
 9276 24b5 00       		.byte	0
 9277 24b6 0E       		.uleb128 0xe
 9278 24b7 04       		.byte	0x4
 9279 24b8 72090000 		.4byte	0x972
 9280 24bc 0E       		.uleb128 0xe
 9281 24bd 04       		.byte	0x4
 9282 24be 9D240000 		.4byte	0x249d
 9283 24c2 19       		.uleb128 0x19
 9284 24c3 33000000 		.4byte	0x33
 9285 24c7 DB240000 		.4byte	0x24db
 9286 24cb 1A       		.uleb128 0x1a
 9287 24cc 46010000 		.4byte	0x146
 9288 24d0 1A       		.uleb128 0x1a
 9289 24d1 8F200000 		.4byte	0x208f
 9290 24d5 1A       		.uleb128 0x1a
 9291 24d6 33000000 		.4byte	0x33
 9292 24da 00       		.byte	0
 9293 24db 0E       		.uleb128 0xe
 9294 24dc 04       		.byte	0x4
 9295 24dd C2240000 		.4byte	0x24c2
 9296 24e1 19       		.uleb128 0x19
 9297 24e2 FE090000 		.4byte	0x9fe
 9298 24e6 F5240000 		.4byte	0x24f5
 9299 24ea 1A       		.uleb128 0x1a
 9300 24eb 46010000 		.4byte	0x146
 9301 24ef 1A       		.uleb128 0x1a
 9302 24f0 66090000 		.4byte	0x966
 9303 24f4 00       		.byte	0
 9304 24f5 0E       		.uleb128 0xe
 9305 24f6 04       		.byte	0x4
 9306 24f7 E1240000 		.4byte	0x24e1
 9307 24fb 19       		.uleb128 0x19
 9308 24fc FE090000 		.4byte	0x9fe
 9309 2500 0A250000 		.4byte	0x250a
 9310 2504 1A       		.uleb128 0x1a
 9311 2505 46010000 		.4byte	0x146
 9312 2509 00       		.byte	0
 9313 250a 0E       		.uleb128 0xe
 9314 250b 04       		.byte	0x4
 9315 250c FB240000 		.4byte	0x24fb
 9316 2510 19       		.uleb128 0x19
 9317 2511 FE090000 		.4byte	0x9fe
 9318 2515 29250000 		.4byte	0x2529
 9319 2519 1A       		.uleb128 0x1a
 9320 251a 46010000 		.4byte	0x146
 9321 251e 1A       		.uleb128 0x1a
ARM GAS  /tmp/ccfraM8n.s 			page 165


 9322 251f 66090000 		.4byte	0x966
 9323 2523 1A       		.uleb128 0x1a
 9324 2524 8A0D0000 		.4byte	0xd8a
 9325 2528 00       		.byte	0
 9326 2529 0E       		.uleb128 0xe
 9327 252a 04       		.byte	0x4
 9328 252b 10250000 		.4byte	0x2510
 9329 252f 19       		.uleb128 0x19
 9330 2530 FE090000 		.4byte	0x9fe
 9331 2534 43250000 		.4byte	0x2543
 9332 2538 1A       		.uleb128 0x1a
 9333 2539 46010000 		.4byte	0x146
 9334 253d 1A       		.uleb128 0x1a
 9335 253e 8A0D0000 		.4byte	0xd8a
 9336 2542 00       		.byte	0
 9337 2543 0E       		.uleb128 0xe
 9338 2544 04       		.byte	0x4
 9339 2545 2F250000 		.4byte	0x252f
 9340 2549 19       		.uleb128 0x19
 9341 254a 33000000 		.4byte	0x33
 9342 254e 67250000 		.4byte	0x2567
 9343 2552 1A       		.uleb128 0x1a
 9344 2553 46010000 		.4byte	0x146
 9345 2557 1A       		.uleb128 0x1a
 9346 2558 B6240000 		.4byte	0x24b6
 9347 255c 1A       		.uleb128 0x1a
 9348 255d 33000000 		.4byte	0x33
 9349 2561 1A       		.uleb128 0x1a
 9350 2562 8A0D0000 		.4byte	0xd8a
 9351 2566 00       		.byte	0
 9352 2567 0E       		.uleb128 0xe
 9353 2568 04       		.byte	0x4
 9354 2569 49250000 		.4byte	0x2549
 9355 256d 19       		.uleb128 0x19
 9356 256e 33000000 		.4byte	0x33
 9357 2572 8B250000 		.4byte	0x258b
 9358 2576 1A       		.uleb128 0x1a
 9359 2577 46010000 		.4byte	0x146
 9360 257b 1A       		.uleb128 0x1a
 9361 257c 8F200000 		.4byte	0x208f
 9362 2580 1A       		.uleb128 0x1a
 9363 2581 33000000 		.4byte	0x33
 9364 2585 1A       		.uleb128 0x1a
 9365 2586 8A0D0000 		.4byte	0xd8a
 9366 258a 00       		.byte	0
 9367 258b 0E       		.uleb128 0xe
 9368 258c 04       		.byte	0x4
 9369 258d 6D250000 		.4byte	0x256d
 9370 2591 19       		.uleb128 0x19
 9371 2592 FE090000 		.4byte	0x9fe
 9372 2596 AA250000 		.4byte	0x25aa
 9373 259a 1A       		.uleb128 0x1a
 9374 259b 46010000 		.4byte	0x146
 9375 259f 1A       		.uleb128 0x1a
 9376 25a0 25000000 		.4byte	0x25
 9377 25a4 1A       		.uleb128 0x1a
 9378 25a5 46010000 		.4byte	0x146
ARM GAS  /tmp/ccfraM8n.s 			page 166


 9379 25a9 00       		.byte	0
 9380 25aa 0E       		.uleb128 0xe
 9381 25ab 04       		.byte	0x4
 9382 25ac 91250000 		.4byte	0x2591
 9383 25b0 29       		.uleb128 0x29
 9384 25b1 07       		.byte	0x7
 9385 25b2 01       		.byte	0x1
 9386 25b3 72000000 		.4byte	0x72
 9387 25b7 21       		.byte	0x21
 9388 25b8 28       		.byte	0x28
 9389 25b9 0E       		.byte	0xe
 9390 25ba F5250000 		.4byte	0x25f5
 9391 25be 2A       		.uleb128 0x2a
 9392 25bf AC150000 		.4byte	.LASF447
 9393 25c3 00       		.byte	0
 9394 25c4 2A       		.uleb128 0x2a
 9395 25c5 1D210000 		.4byte	.LASF448
 9396 25c9 01       		.byte	0x1
 9397 25ca 2A       		.uleb128 0x2a
 9398 25cb 460A0000 		.4byte	.LASF449
 9399 25cf 02       		.byte	0x2
 9400 25d0 2A       		.uleb128 0x2a
 9401 25d1 801A0000 		.4byte	.LASF450
 9402 25d5 03       		.byte	0x3
 9403 25d6 2A       		.uleb128 0x2a
 9404 25d7 64210000 		.4byte	.LASF451
 9405 25db 04       		.byte	0x4
 9406 25dc 2A       		.uleb128 0x2a
 9407 25dd 6B070000 		.4byte	.LASF452
 9408 25e1 05       		.byte	0x5
 9409 25e2 2A       		.uleb128 0x2a
 9410 25e3 2B0F0000 		.4byte	.LASF453
 9411 25e7 06       		.byte	0x6
 9412 25e8 2A       		.uleb128 0x2a
 9413 25e9 88170000 		.4byte	.LASF454
 9414 25ed 07       		.byte	0x7
 9415 25ee 2A       		.uleb128 0x2a
 9416 25ef 3D210000 		.4byte	.LASF455
 9417 25f3 08       		.byte	0x8
 9418 25f4 00       		.byte	0
 9419 25f5 04       		.uleb128 0x4
 9420 25f6 10160000 		.4byte	.LASF456
 9421 25fa 21       		.byte	0x21
 9422 25fb 32       		.byte	0x32
 9423 25fc 03       		.byte	0x3
 9424 25fd B0250000 		.4byte	0x25b0
 9425 2601 0B       		.uleb128 0xb
 9426 2602 08       		.byte	0x8
 9427 2603 21       		.byte	0x21
 9428 2604 37       		.byte	0x37
 9429 2605 09       		.byte	0x9
 9430 2606 25260000 		.4byte	0x2625
 9431 260a 0C       		.uleb128 0xc
 9432 260b 09070000 		.4byte	.LASF457
 9433 260f 21       		.byte	0x21
 9434 2610 38       		.byte	0x38
 9435 2611 11       		.byte	0x11
ARM GAS  /tmp/ccfraM8n.s 			page 167


 9436 2612 94090000 		.4byte	0x994
 9437 2616 00       		.byte	0
 9438 2617 0C       		.uleb128 0xc
 9439 2618 851B0000 		.4byte	.LASF458
 9440 261c 21       		.byte	0x21
 9441 261d 39       		.byte	0x39
 9442 261e 11       		.byte	0x11
 9443 261f 94090000 		.4byte	0x994
 9444 2623 04       		.byte	0x4
 9445 2624 00       		.byte	0
 9446 2625 04       		.uleb128 0x4
 9447 2626 741D0000 		.4byte	.LASF459
 9448 262a 21       		.byte	0x21
 9449 262b 3A       		.byte	0x3a
 9450 262c 03       		.byte	0x3
 9451 262d 01260000 		.4byte	0x2601
 9452 2631 19       		.uleb128 0x19
 9453 2632 3E200000 		.4byte	0x203e
 9454 2636 40260000 		.4byte	0x2640
 9455 263a 1A       		.uleb128 0x1a
 9456 263b 46010000 		.4byte	0x146
 9457 263f 00       		.byte	0
 9458 2640 0E       		.uleb128 0xe
 9459 2641 04       		.byte	0x4
 9460 2642 31260000 		.4byte	0x2631
 9461 2646 19       		.uleb128 0x19
 9462 2647 3E200000 		.4byte	0x203e
 9463 264b 64260000 		.4byte	0x2664
 9464 264f 1A       		.uleb128 0x1a
 9465 2650 46010000 		.4byte	0x146
 9466 2654 1A       		.uleb128 0x1a
 9467 2655 94090000 		.4byte	0x994
 9468 2659 1A       		.uleb128 0x1a
 9469 265a 8F200000 		.4byte	0x208f
 9470 265e 1A       		.uleb128 0x1a
 9471 265f 94090000 		.4byte	0x994
 9472 2663 00       		.byte	0
 9473 2664 0E       		.uleb128 0xe
 9474 2665 04       		.byte	0x4
 9475 2666 46260000 		.4byte	0x2646
 9476 266a 19       		.uleb128 0x19
 9477 266b 3E200000 		.4byte	0x203e
 9478 266f 88260000 		.4byte	0x2688
 9479 2673 1A       		.uleb128 0x1a
 9480 2674 46010000 		.4byte	0x146
 9481 2678 1A       		.uleb128 0x1a
 9482 2679 94090000 		.4byte	0x994
 9483 267d 1A       		.uleb128 0x1a
 9484 267e B6240000 		.4byte	0x24b6
 9485 2682 1A       		.uleb128 0x1a
 9486 2683 94090000 		.4byte	0x994
 9487 2687 00       		.byte	0
 9488 2688 0E       		.uleb128 0xe
 9489 2689 04       		.byte	0x4
 9490 268a 6A260000 		.4byte	0x266a
 9491 268e 19       		.uleb128 0x19
 9492 268f 3E200000 		.4byte	0x203e
ARM GAS  /tmp/ccfraM8n.s 			page 168


 9493 2693 A2260000 		.4byte	0x26a2
 9494 2697 1A       		.uleb128 0x1a
 9495 2698 46010000 		.4byte	0x146
 9496 269c 1A       		.uleb128 0x1a
 9497 269d A2260000 		.4byte	0x26a2
 9498 26a1 00       		.byte	0
 9499 26a2 0E       		.uleb128 0xe
 9500 26a3 04       		.byte	0x4
 9501 26a4 25260000 		.4byte	0x2625
 9502 26a8 0E       		.uleb128 0xe
 9503 26a9 04       		.byte	0x4
 9504 26aa 8E260000 		.4byte	0x268e
 9505 26ae 04       		.uleb128 0x4
 9506 26af 650D0000 		.4byte	.LASF460
 9507 26b3 22       		.byte	0x22
 9508 26b4 3A       		.byte	0x3a
 9509 26b5 19       		.byte	0x19
 9510 26b6 BA260000 		.4byte	0x26ba
 9511 26ba 10       		.uleb128 0x10
 9512 26bb 860F0000 		.4byte	.LASF461
 9513 26bf 24       		.byte	0x24
 9514 26c0 22       		.byte	0x22
 9515 26c1 4B       		.byte	0x4b
 9516 26c2 08       		.byte	0x8
 9517 26c3 30270000 		.4byte	0x2730
 9518 26c7 0C       		.uleb128 0xc
 9519 26c8 82050000 		.4byte	.LASF462
 9520 26cc 22       		.byte	0x22
 9521 26cd 4C       		.byte	0x4c
 9522 26ce 19       		.byte	0x19
 9523 26cf 6F0B0000 		.4byte	0xb6f
 9524 26d3 00       		.byte	0
 9525 26d4 0C       		.uleb128 0xc
 9526 26d5 9B160000 		.4byte	.LASF463
 9527 26d9 22       		.byte	0x22
 9528 26da 4D       		.byte	0x4d
 9529 26db 19       		.byte	0x19
 9530 26dc 3F000000 		.4byte	0x3f
 9531 26e0 08       		.byte	0x8
 9532 26e1 0C       		.uleb128 0xc
 9533 26e2 BA100000 		.4byte	.LASF464
 9534 26e6 22       		.byte	0x22
 9535 26e7 4E       		.byte	0x4e
 9536 26e8 1A       		.byte	0x1a
 9537 26e9 8F200000 		.4byte	0x208f
 9538 26ed 0C       		.byte	0xc
 9539 26ee 0C       		.uleb128 0xc
 9540 26ef EC040000 		.4byte	.LASF465
 9541 26f3 22       		.byte	0x22
 9542 26f4 4F       		.byte	0x4f
 9543 26f5 1A       		.byte	0x1a
 9544 26f6 8F200000 		.4byte	0x208f
 9545 26fa 10       		.byte	0x10
 9546 26fb 0C       		.uleb128 0xc
 9547 26fc B70D0000 		.4byte	.LASF466
 9548 2700 22       		.byte	0x22
 9549 2701 51       		.byte	0x51
ARM GAS  /tmp/ccfraM8n.s 			page 169


 9550 2702 1A       		.byte	0x1a
 9551 2703 8F200000 		.4byte	0x208f
 9552 2707 14       		.byte	0x14
 9553 2708 0C       		.uleb128 0xc
 9554 2709 16170000 		.4byte	.LASF467
 9555 270d 22       		.byte	0x22
 9556 270e 52       		.byte	0x52
 9557 270f 1A       		.byte	0x1a
 9558 2710 8F200000 		.4byte	0x208f
 9559 2714 18       		.byte	0x18
 9560 2715 0C       		.uleb128 0xc
 9561 2716 071B0000 		.4byte	.LASF468
 9562 271a 22       		.byte	0x22
 9563 271b 53       		.byte	0x53
 9564 271c 19       		.byte	0x19
 9565 271d 30270000 		.4byte	0x2730
 9566 2721 1C       		.byte	0x1c
 9567 2722 0C       		.uleb128 0xc
 9568 2723 D5180000 		.4byte	.LASF469
 9569 2727 22       		.byte	0x22
 9570 2728 54       		.byte	0x54
 9571 2729 1A       		.byte	0x1a
 9572 272a 46010000 		.4byte	0x146
 9573 272e 20       		.byte	0x20
 9574 272f 00       		.byte	0
 9575 2730 04       		.uleb128 0x4
 9576 2731 A6040000 		.4byte	.LASF470
 9577 2735 22       		.byte	0x22
 9578 2736 41       		.byte	0x41
 9579 2737 10       		.byte	0x10
 9580 2738 3C270000 		.4byte	0x273c
 9581 273c 0E       		.uleb128 0xe
 9582 273d 04       		.byte	0x4
 9583 273e 42270000 		.4byte	0x2742
 9584 2742 1B       		.uleb128 0x1b
 9585 2743 4D270000 		.4byte	0x274d
 9586 2747 1A       		.uleb128 0x1a
 9587 2748 4D270000 		.4byte	0x274d
 9588 274c 00       		.byte	0
 9589 274d 0E       		.uleb128 0xe
 9590 274e 04       		.byte	0x4
 9591 274f AE260000 		.4byte	0x26ae
 9592 2753 04       		.uleb128 0x4
 9593 2754 B2050000 		.4byte	.LASF471
 9594 2758 22       		.byte	0x22
 9595 2759 61       		.byte	0x61
 9596 275a 14       		.byte	0x14
 9597 275b AE260000 		.4byte	0x26ae
 9598 275f 04       		.uleb128 0x4
 9599 2760 AF230000 		.4byte	.LASF472
 9600 2764 22       		.byte	0x22
 9601 2765 6D       		.byte	0x6d
 9602 2766 14       		.byte	0x14
 9603 2767 AE260000 		.4byte	0x26ae
 9604 276b 0B       		.uleb128 0xb
 9605 276c 04       		.byte	0x4
 9606 276d 23       		.byte	0x23
ARM GAS  /tmp/ccfraM8n.s 			page 170


 9607 276e 5B       		.byte	0x5b
 9608 276f 05       		.byte	0x5
 9609 2770 8F270000 		.4byte	0x278f
 9610 2774 11       		.uleb128 0x11
 9611 2775 73657400 		.ascii	"set\000"
 9612 2779 23       		.byte	0x23
 9613 277a 5C       		.byte	0x5c
 9614 277b 19       		.byte	0x19
 9615 277c 77090000 		.4byte	0x977
 9616 2780 00       		.byte	0
 9617 2781 0C       		.uleb128 0xc
 9618 2782 661C0000 		.4byte	.LASF473
 9619 2786 23       		.byte	0x23
 9620 2787 5D       		.byte	0x5d
 9621 2788 19       		.byte	0x19
 9622 2789 77090000 		.4byte	0x977
 9623 278d 02       		.byte	0x2
 9624 278e 00       		.byte	0
 9625 278f 07       		.uleb128 0x7
 9626 2790 04       		.byte	0x4
 9627 2791 23       		.byte	0x23
 9628 2792 59       		.byte	0x59
 9629 2793 0C       		.byte	0xc
 9630 2794 AD270000 		.4byte	0x27ad
 9631 2798 23       		.uleb128 0x23
 9632 2799 5700     		.ascii	"W\000"
 9633 279b 23       		.byte	0x23
 9634 279c 5A       		.byte	0x5a
 9635 279d 19       		.byte	0x19
 9636 279e 94090000 		.4byte	0x994
 9637 27a2 23       		.uleb128 0x23
 9638 27a3 4800     		.ascii	"H\000"
 9639 27a5 23       		.byte	0x23
 9640 27a6 5E       		.byte	0x5e
 9641 27a7 07       		.byte	0x7
 9642 27a8 6B270000 		.4byte	0x276b
 9643 27ac 00       		.byte	0
 9644 27ad 05       		.uleb128 0x5
 9645 27ae 8F270000 		.4byte	0x278f
 9646 27b2 0B       		.uleb128 0xb
 9647 27b3 28       		.byte	0x28
 9648 27b4 23       		.byte	0x23
 9649 27b5 51       		.byte	0x51
 9650 27b6 09       		.byte	0x9
 9651 27b7 3E280000 		.4byte	0x283e
 9652 27bb 0C       		.uleb128 0xc
 9653 27bc 721C0000 		.4byte	.LASF474
 9654 27c0 23       		.byte	0x23
 9655 27c1 53       		.byte	0x53
 9656 27c2 19       		.byte	0x19
 9657 27c3 A0090000 		.4byte	0x9a0
 9658 27c7 00       		.byte	0
 9659 27c8 0C       		.uleb128 0xc
 9660 27c9 91030000 		.4byte	.LASF475
 9661 27cd 23       		.byte	0x23
 9662 27ce 54       		.byte	0x54
 9663 27cf 19       		.byte	0x19
ARM GAS  /tmp/ccfraM8n.s 			page 171


 9664 27d0 A0090000 		.4byte	0x9a0
 9665 27d4 04       		.byte	0x4
 9666 27d5 0C       		.uleb128 0xc
 9667 27d6 D20D0000 		.4byte	.LASF476
 9668 27da 23       		.byte	0x23
 9669 27db 55       		.byte	0x55
 9670 27dc 19       		.byte	0x19
 9671 27dd A0090000 		.4byte	0x9a0
 9672 27e1 08       		.byte	0x8
 9673 27e2 0C       		.uleb128 0xc
 9674 27e3 D51B0000 		.4byte	.LASF477
 9675 27e7 23       		.byte	0x23
 9676 27e8 56       		.byte	0x56
 9677 27e9 19       		.byte	0x19
 9678 27ea A0090000 		.4byte	0x9a0
 9679 27ee 0C       		.byte	0xc
 9680 27ef 11       		.uleb128 0x11
 9681 27f0 49445200 		.ascii	"IDR\000"
 9682 27f4 23       		.byte	0x23
 9683 27f5 57       		.byte	0x57
 9684 27f6 19       		.byte	0x19
 9685 27f7 A0090000 		.4byte	0x9a0
 9686 27fb 10       		.byte	0x10
 9687 27fc 11       		.uleb128 0x11
 9688 27fd 4F445200 		.ascii	"ODR\000"
 9689 2801 23       		.byte	0x23
 9690 2802 58       		.byte	0x58
 9691 2803 19       		.byte	0x19
 9692 2804 A0090000 		.4byte	0x9a0
 9693 2808 14       		.byte	0x14
 9694 2809 0C       		.uleb128 0xc
 9695 280a 6C110000 		.4byte	.LASF478
 9696 280e 23       		.byte	0x23
 9697 280f 5F       		.byte	0x5f
 9698 2810 05       		.byte	0x5
 9699 2811 AD270000 		.4byte	0x27ad
 9700 2815 18       		.byte	0x18
 9701 2816 0C       		.uleb128 0xc
 9702 2817 45120000 		.4byte	.LASF479
 9703 281b 23       		.byte	0x23
 9704 281c 60       		.byte	0x60
 9705 281d 19       		.byte	0x19
 9706 281e A0090000 		.4byte	0x9a0
 9707 2822 1C       		.byte	0x1c
 9708 2823 0C       		.uleb128 0xc
 9709 2824 081A0000 		.4byte	.LASF480
 9710 2828 23       		.byte	0x23
 9711 2829 61       		.byte	0x61
 9712 282a 19       		.byte	0x19
 9713 282b A0090000 		.4byte	0x9a0
 9714 282f 20       		.byte	0x20
 9715 2830 0C       		.uleb128 0xc
 9716 2831 031A0000 		.4byte	.LASF481
 9717 2835 23       		.byte	0x23
 9718 2836 62       		.byte	0x62
 9719 2837 19       		.byte	0x19
 9720 2838 A0090000 		.4byte	0x9a0
ARM GAS  /tmp/ccfraM8n.s 			page 172


 9721 283c 24       		.byte	0x24
 9722 283d 00       		.byte	0
 9723 283e 04       		.uleb128 0x4
 9724 283f 050F0000 		.4byte	.LASF482
 9725 2843 23       		.byte	0x23
 9726 2844 63       		.byte	0x63
 9727 2845 03       		.byte	0x3
 9728 2846 B2270000 		.4byte	0x27b2
 9729 284a 04       		.uleb128 0x4
 9730 284b A5160000 		.4byte	.LASF483
 9731 284f 24       		.byte	0x24
 9732 2850 D9       		.byte	0xd9
 9733 2851 18       		.byte	0x18
 9734 2852 56280000 		.4byte	0x2856
 9735 2856 0E       		.uleb128 0xe
 9736 2857 04       		.byte	0x4
 9737 2858 3E280000 		.4byte	0x283e
 9738 285c 29       		.uleb128 0x29
 9739 285d 07       		.byte	0x7
 9740 285e 01       		.byte	0x1
 9741 285f 72000000 		.4byte	0x72
 9742 2863 25       		.byte	0x25
 9743 2864 46       		.byte	0x46
 9744 2865 0E       		.byte	0xe
 9745 2866 8F280000 		.4byte	0x288f
 9746 286a 2A       		.uleb128 0x2a
 9747 286b 2E080000 		.4byte	.LASF484
 9748 286f 00       		.byte	0
 9749 2870 2A       		.uleb128 0x2a
 9750 2871 13140000 		.4byte	.LASF485
 9751 2875 01       		.byte	0x1
 9752 2876 2A       		.uleb128 0x2a
 9753 2877 31060000 		.4byte	.LASF486
 9754 287b 02       		.byte	0x2
 9755 287c 2A       		.uleb128 0x2a
 9756 287d 4D110000 		.4byte	.LASF487
 9757 2881 03       		.byte	0x3
 9758 2882 2A       		.uleb128 0x2a
 9759 2883 6B060000 		.4byte	.LASF488
 9760 2887 04       		.byte	0x4
 9761 2888 2A       		.uleb128 0x2a
 9762 2889 18110000 		.4byte	.LASF489
 9763 288d 05       		.byte	0x5
 9764 288e 00       		.byte	0
 9765 288f 04       		.uleb128 0x4
 9766 2890 B0040000 		.4byte	.LASF490
 9767 2894 25       		.byte	0x25
 9768 2895 4D       		.byte	0x4d
 9769 2896 03       		.byte	0x3
 9770 2897 5C280000 		.4byte	0x285c
 9771 289b 04       		.uleb128 0x4
 9772 289c 730E0000 		.4byte	.LASF491
 9773 28a0 25       		.byte	0x25
 9774 28a1 52       		.byte	0x52
 9775 28a2 1F       		.byte	0x1f
 9776 28a3 A7280000 		.4byte	0x28a7
 9777 28a7 10       		.uleb128 0x10
ARM GAS  /tmp/ccfraM8n.s 			page 173


 9778 28a8 DB1A0000 		.4byte	.LASF492
 9779 28ac 38       		.byte	0x38
 9780 28ad 25       		.byte	0x25
 9781 28ae A0       		.byte	0xa0
 9782 28af 08       		.byte	0x8
 9783 28b0 44290000 		.4byte	0x2944
 9784 28b4 0C       		.uleb128 0xc
 9785 28b5 EB140000 		.4byte	.LASF153
 9786 28b9 25       		.byte	0x25
 9787 28ba A4       		.byte	0xa4
 9788 28bb 1D       		.byte	0x1d
 9789 28bc 8F280000 		.4byte	0x288f
 9790 28c0 00       		.byte	0
 9791 28c1 0C       		.uleb128 0xc
 9792 28c2 501A0000 		.4byte	.LASF493
 9793 28c6 25       		.byte	0x25
 9794 28c7 A8       		.byte	0xa8
 9795 28c8 1E       		.byte	0x1e
 9796 28c9 3E2B0000 		.4byte	0x2b3e
 9797 28cd 04       		.byte	0x4
 9798 28ce 0C       		.uleb128 0xc
 9799 28cf 15020000 		.4byte	.LASF494
 9800 28d3 25       		.byte	0x25
 9801 28d4 AC       		.byte	0xac
 9802 28d5 1E       		.byte	0x1e
 9803 28d6 442B0000 		.4byte	0x2b44
 9804 28da 08       		.byte	0x8
 9805 28db 0C       		.uleb128 0xc
 9806 28dc E9170000 		.4byte	.LASF495
 9807 28e0 25       		.byte	0x25
 9808 28e1 B0       		.byte	0xb0
 9809 28e2 1D       		.byte	0x1d
 9810 28e3 33000000 		.4byte	0x33
 9811 28e7 0C       		.byte	0xc
 9812 28e8 0C       		.uleb128 0xc
 9813 28e9 121D0000 		.4byte	.LASF496
 9814 28ed 25       		.byte	0x25
 9815 28ee B4       		.byte	0xb4
 9816 28ef 1E       		.byte	0x1e
 9817 28f0 4A2B0000 		.4byte	0x2b4a
 9818 28f4 10       		.byte	0x10
 9819 28f5 0C       		.uleb128 0xc
 9820 28f6 EC060000 		.4byte	.LASF497
 9821 28fa 25       		.byte	0x25
 9822 28fb B9       		.byte	0xb9
 9823 28fc 1D       		.byte	0x1d
 9824 28fd 360B0000 		.4byte	0xb36
 9825 2901 14       		.byte	0x14
 9826 2902 0C       		.uleb128 0xc
 9827 2903 A40B0000 		.4byte	.LASF498
 9828 2907 25       		.byte	0x25
 9829 2908 BF       		.byte	0xbf
 9830 2909 1D       		.byte	0x1d
 9831 290a A41F0000 		.4byte	0x1fa4
 9832 290e 18       		.byte	0x18
 9833 290f 0C       		.uleb128 0xc
 9834 2910 790C0000 		.4byte	.LASF499
ARM GAS  /tmp/ccfraM8n.s 			page 174


 9835 2914 25       		.byte	0x25
 9836 2915 C5       		.byte	0xc5
 9837 2916 03       		.byte	0x3
 9838 2917 502B0000 		.4byte	0x2b50
 9839 291b 28       		.byte	0x28
 9840 291c 0C       		.uleb128 0xc
 9841 291d 6C0C0000 		.4byte	.LASF500
 9842 2921 25       		.byte	0x25
 9843 2922 C5       		.byte	0xc5
 9844 2923 03       		.byte	0x3
 9845 2924 562B0000 		.4byte	0x2b56
 9846 2928 2C       		.byte	0x2c
 9847 2929 0C       		.uleb128 0xc
 9848 292a 091C0000 		.4byte	.LASF501
 9849 292e 25       		.byte	0x25
 9850 292f C5       		.byte	0xc5
 9851 2930 03       		.byte	0x3
 9852 2931 DF2A0000 		.4byte	0x2adf
 9853 2935 30       		.byte	0x30
 9854 2936 0C       		.uleb128 0xc
 9855 2937 DC160000 		.4byte	.LASF502
 9856 293b 25       		.byte	0x25
 9857 293c C5       		.byte	0xc5
 9858 293d 03       		.byte	0x3
 9859 293e 94090000 		.4byte	0x994
 9860 2942 34       		.byte	0x34
 9861 2943 00       		.byte	0
 9862 2944 04       		.uleb128 0x4
 9863 2945 8B0E0000 		.4byte	.LASF503
 9864 2949 25       		.byte	0x25
 9865 294a 57       		.byte	0x57
 9866 294b 1F       		.byte	0x1f
 9867 294c 55290000 		.4byte	0x2955
 9868 2950 15       		.uleb128 0x15
 9869 2951 44290000 		.4byte	0x2944
 9870 2955 10       		.uleb128 0x10
 9871 2956 CE060000 		.4byte	.LASF504
 9872 295a 08       		.byte	0x8
 9873 295b 25       		.byte	0x25
 9874 295c 98       		.byte	0x98
 9875 295d 08       		.byte	0x8
 9876 295e 7D290000 		.4byte	0x297d
 9877 2962 0C       		.uleb128 0xc
 9878 2963 96060000 		.4byte	.LASF505
 9879 2967 25       		.byte	0x25
 9880 2968 9A       		.byte	0x9a
 9881 2969 03       		.byte	0x3
 9882 296a 94090000 		.4byte	0x994
 9883 296e 00       		.byte	0
 9884 296f 0C       		.uleb128 0xc
 9885 2970 5B230000 		.4byte	.LASF506
 9886 2974 25       		.byte	0x25
 9887 2975 9A       		.byte	0x9a
 9888 2976 03       		.byte	0x3
 9889 2977 94090000 		.4byte	0x994
 9890 297b 04       		.byte	0x4
 9891 297c 00       		.byte	0
ARM GAS  /tmp/ccfraM8n.s 			page 175


 9892 297d 04       		.uleb128 0x4
 9893 297e D80F0000 		.4byte	.LASF507
 9894 2982 25       		.byte	0x25
 9895 2983 61       		.byte	0x61
 9896 2984 2C       		.byte	0x2c
 9897 2985 8E290000 		.4byte	0x298e
 9898 2989 15       		.uleb128 0x15
 9899 298a 7D290000 		.4byte	0x297d
 9900 298e 10       		.uleb128 0x10
 9901 298f F3110000 		.4byte	.LASF508
 9902 2993 50       		.byte	0x50
 9903 2994 25       		.byte	0x25
 9904 2995 80       		.byte	0x80
 9905 2996 08       		.byte	0x8
 9906 2997 6C2A0000 		.4byte	0x2a6c
 9907 299b 0C       		.uleb128 0xc
 9908 299c DA1F0000 		.4byte	.LASF509
 9909 29a0 25       		.byte	0x25
 9910 29a1 84       		.byte	0x84
 9911 29a2 1D       		.byte	0x1d
 9912 29a3 3E200000 		.4byte	0x203e
 9913 29a7 00       		.byte	0
 9914 29a8 0C       		.uleb128 0xc
 9915 29a9 4A0F0000 		.4byte	.LASF510
 9916 29ad 25       		.byte	0x25
 9917 29ae 88       		.byte	0x88
 9918 29af 1D       		.byte	0x1d
 9919 29b0 792A0000 		.4byte	0x2a79
 9920 29b4 04       		.byte	0x4
 9921 29b5 0C       		.uleb128 0xc
 9922 29b6 C5080000 		.4byte	.LASF511
 9923 29ba 25       		.byte	0x25
 9924 29bb 8C       		.byte	0x8c
 9925 29bc 1D       		.byte	0x1d
 9926 29bd F92A0000 		.4byte	0x2af9
 9927 29c1 08       		.byte	0x8
 9928 29c2 0C       		.uleb128 0xc
 9929 29c3 5B210000 		.4byte	.LASF512
 9930 29c7 25       		.byte	0x25
 9931 29c8 90       		.byte	0x90
 9932 29c9 1D       		.byte	0x1d
 9933 29ca 1C2B0000 		.4byte	0x2b1c
 9934 29ce 0C       		.byte	0xc
 9935 29cf 0C       		.uleb128 0xc
 9936 29d0 2F150000 		.4byte	.LASF513
 9937 29d4 25       		.byte	0x25
 9938 29d5 92       		.byte	0x92
 9939 29d6 03       		.byte	0x3
 9940 29d7 94090000 		.4byte	0x994
 9941 29db 10       		.byte	0x10
 9942 29dc 0C       		.uleb128 0xc
 9943 29dd 4C200000 		.4byte	.LASF514
 9944 29e1 25       		.byte	0x25
 9945 29e2 92       		.byte	0x92
 9946 29e3 03       		.byte	0x3
 9947 29e4 94090000 		.4byte	0x994
 9948 29e8 14       		.byte	0x14
ARM GAS  /tmp/ccfraM8n.s 			page 176


 9949 29e9 11       		.uleb128 0x11
 9950 29ea 63637200 		.ascii	"ccr\000"
 9951 29ee 25       		.byte	0x25
 9952 29ef 92       		.byte	0x92
 9953 29f0 03       		.byte	0x3
 9954 29f1 94090000 		.4byte	0x994
 9955 29f5 18       		.byte	0x18
 9956 29f6 0C       		.uleb128 0xc
 9957 29f7 2A120000 		.4byte	.LASF515
 9958 29fb 25       		.byte	0x25
 9959 29fc 92       		.byte	0x92
 9960 29fd 03       		.byte	0x3
 9961 29fe 94090000 		.4byte	0x994
 9962 2a02 1C       		.byte	0x1c
 9963 2a03 0C       		.uleb128 0xc
 9964 2a04 12100000 		.4byte	.LASF516
 9965 2a08 25       		.byte	0x25
 9966 2a09 92       		.byte	0x92
 9967 2a0a 03       		.byte	0x3
 9968 2a0b 94090000 		.4byte	0x994
 9969 2a0f 20       		.byte	0x20
 9970 2a10 0C       		.uleb128 0xc
 9971 2a11 C9120000 		.4byte	.LASF517
 9972 2a15 25       		.byte	0x25
 9973 2a16 92       		.byte	0x92
 9974 2a17 03       		.byte	0x3
 9975 2a18 94090000 		.4byte	0x994
 9976 2a1c 24       		.byte	0x24
 9977 2a1d 0C       		.uleb128 0xc
 9978 2a1e 17100000 		.4byte	.LASF518
 9979 2a22 25       		.byte	0x25
 9980 2a23 92       		.byte	0x92
 9981 2a24 03       		.byte	0x3
 9982 2a25 94090000 		.4byte	0x994
 9983 2a29 28       		.byte	0x28
 9984 2a2a 0C       		.uleb128 0xc
 9985 2a2b CE120000 		.4byte	.LASF519
 9986 2a2f 25       		.byte	0x25
 9987 2a30 92       		.byte	0x92
 9988 2a31 03       		.byte	0x3
 9989 2a32 94090000 		.4byte	0x994
 9990 2a36 2C       		.byte	0x2c
 9991 2a37 0C       		.uleb128 0xc
 9992 2a38 1C100000 		.4byte	.LASF520
 9993 2a3c 25       		.byte	0x25
 9994 2a3d 92       		.byte	0x92
 9995 2a3e 03       		.byte	0x3
 9996 2a3f 94090000 		.4byte	0x994
 9997 2a43 30       		.byte	0x30
 9998 2a44 0C       		.uleb128 0xc
 9999 2a45 D3120000 		.4byte	.LASF521
 10000 2a49 25       		.byte	0x25
 10001 2a4a 92       		.byte	0x92
 10002 2a4b 03       		.byte	0x3
 10003 2a4c 94090000 		.4byte	0x994
 10004 2a50 34       		.byte	0x34
 10005 2a51 0C       		.uleb128 0xc
ARM GAS  /tmp/ccfraM8n.s 			page 177


 10006 2a52 96140000 		.4byte	.LASF522
 10007 2a56 25       		.byte	0x25
 10008 2a57 92       		.byte	0x92
 10009 2a58 03       		.byte	0x3
 10010 2a59 960D0000 		.4byte	0xd96
 10011 2a5d 38       		.byte	0x38
 10012 2a5e 11       		.uleb128 0x11
 10013 2a5f 73717200 		.ascii	"sqr\000"
 10014 2a63 25       		.byte	0x25
 10015 2a64 92       		.byte	0x92
 10016 2a65 03       		.byte	0x3
 10017 2a66 47100000 		.4byte	0x1047
 10018 2a6a 40       		.byte	0x40
 10019 2a6b 00       		.byte	0
 10020 2a6c 06       		.uleb128 0x6
 10021 2a6d 27100000 		.4byte	.LASF523
 10022 2a71 26       		.byte	0x26
 10023 2a72 EE01     		.2byte	0x1ee
 10024 2a74 12       		.byte	0x12
 10025 2a75 77090000 		.4byte	0x977
 10026 2a79 06       		.uleb128 0x6
 10027 2a7a A11A0000 		.4byte	.LASF524
 10028 2a7e 26       		.byte	0x26
 10029 2a7f F601     		.2byte	0x1f6
 10030 2a81 12       		.byte	0x12
 10031 2a82 94090000 		.4byte	0x994
 10032 2a86 2B       		.uleb128 0x2b
 10033 2a87 07       		.byte	0x7
 10034 2a88 01       		.byte	0x1
 10035 2a89 72000000 		.4byte	0x72
 10036 2a8d 26       		.byte	0x26
 10037 2a8e FD01     		.2byte	0x1fd
 10038 2a90 0E       		.byte	0xe
 10039 2a91 B42A0000 		.4byte	0x2ab4
 10040 2a95 2A       		.uleb128 0x2a
 10041 2a96 990D0000 		.4byte	.LASF525
 10042 2a9a 00       		.byte	0
 10043 2a9b 2A       		.uleb128 0x2a
 10044 2a9c C9020000 		.4byte	.LASF526
 10045 2aa0 01       		.byte	0x1
 10046 2aa1 2A       		.uleb128 0x2a
 10047 2aa2 91130000 		.4byte	.LASF527
 10048 2aa6 02       		.byte	0x2
 10049 2aa7 2A       		.uleb128 0x2a
 10050 2aa8 9E130000 		.4byte	.LASF528
 10051 2aac 03       		.byte	0x3
 10052 2aad 2A       		.uleb128 0x2a
 10053 2aae AB130000 		.4byte	.LASF529
 10054 2ab2 04       		.byte	0x4
 10055 2ab3 00       		.byte	0
 10056 2ab4 06       		.uleb128 0x6
 10057 2ab5 6C200000 		.4byte	.LASF530
 10058 2ab9 26       		.byte	0x26
 10059 2aba 0302     		.2byte	0x203
 10060 2abc 03       		.byte	0x3
 10061 2abd 862A0000 		.4byte	0x2a86
 10062 2ac1 2C       		.uleb128 0x2c
ARM GAS  /tmp/ccfraM8n.s 			page 178


 10063 2ac2 04       		.byte	0x4
 10064 2ac3 26       		.byte	0x26
 10065 2ac4 0802     		.2byte	0x208
 10066 2ac6 09       		.byte	0x9
 10067 2ac7 D92A0000 		.4byte	0x2ad9
 10068 2acb 2D       		.uleb128 0x2d
 10069 2acc 646D6100 		.ascii	"dma\000"
 10070 2ad0 26       		.byte	0x26
 10071 2ad1 0D02     		.2byte	0x20d
 10072 2ad3 20       		.byte	0x20
 10073 2ad4 D92A0000 		.4byte	0x2ad9
 10074 2ad8 00       		.byte	0
 10075 2ad9 0E       		.uleb128 0xe
 10076 2ada 04       		.byte	0x4
 10077 2adb B1220000 		.4byte	0x22b1
 10078 2adf 06       		.uleb128 0x6
 10079 2ae0 811C0000 		.4byte	.LASF531
 10080 2ae4 26       		.byte	0x26
 10081 2ae5 1502     		.2byte	0x215
 10082 2ae7 03       		.byte	0x3
 10083 2ae8 C12A0000 		.4byte	0x2ac1
 10084 2aec 1C       		.uleb128 0x1c
 10085 2aed BA160000 		.4byte	.LASF532
 10086 2af1 26       		.byte	0x26
 10087 2af2 B302     		.2byte	0x2b3
 10088 2af4 12       		.byte	0x12
 10089 2af5 9B280000 		.4byte	0x289b
 10090 2af9 04       		.uleb128 0x4
 10091 2afa A6190000 		.4byte	.LASF533
 10092 2afe 25       		.byte	0x25
 10093 2aff 6D       		.byte	0x6d
 10094 2b00 10       		.byte	0x10
 10095 2b01 052B0000 		.4byte	0x2b05
 10096 2b05 0E       		.uleb128 0xe
 10097 2b06 04       		.byte	0x4
 10098 2b07 0B2B0000 		.4byte	0x2b0b
 10099 2b0b 1B       		.uleb128 0x1b
 10100 2b0c 162B0000 		.4byte	0x2b16
 10101 2b10 1A       		.uleb128 0x1a
 10102 2b11 162B0000 		.4byte	0x2b16
 10103 2b15 00       		.byte	0
 10104 2b16 0E       		.uleb128 0xe
 10105 2b17 04       		.byte	0x4
 10106 2b18 9B280000 		.4byte	0x289b
 10107 2b1c 04       		.uleb128 0x4
 10108 2b1d CA140000 		.4byte	.LASF534
 10109 2b21 25       		.byte	0x25
 10110 2b22 76       		.byte	0x76
 10111 2b23 10       		.byte	0x10
 10112 2b24 282B0000 		.4byte	0x2b28
 10113 2b28 0E       		.uleb128 0xe
 10114 2b29 04       		.byte	0x4
 10115 2b2a 2E2B0000 		.4byte	0x2b2e
 10116 2b2e 1B       		.uleb128 0x1b
 10117 2b2f 3E2B0000 		.4byte	0x2b3e
 10118 2b33 1A       		.uleb128 0x1a
 10119 2b34 162B0000 		.4byte	0x2b16
ARM GAS  /tmp/ccfraM8n.s 			page 179


 10120 2b38 1A       		.uleb128 0x1a
 10121 2b39 B42A0000 		.4byte	0x2ab4
 10122 2b3d 00       		.byte	0
 10123 2b3e 0E       		.uleb128 0xe
 10124 2b3f 04       		.byte	0x4
 10125 2b40 50290000 		.4byte	0x2950
 10126 2b44 0E       		.uleb128 0xe
 10127 2b45 04       		.byte	0x4
 10128 2b46 6C2A0000 		.4byte	0x2a6c
 10129 2b4a 0E       		.uleb128 0xe
 10130 2b4b 04       		.byte	0x4
 10131 2b4c 89290000 		.4byte	0x2989
 10132 2b50 0E       		.uleb128 0xe
 10133 2b51 04       		.byte	0x4
 10134 2b52 57100000 		.4byte	0x1057
 10135 2b56 0E       		.uleb128 0xe
 10136 2b57 04       		.byte	0x4
 10137 2b58 B5100000 		.4byte	0x10b5
 10138 2b5c 29       		.uleb128 0x29
 10139 2b5d 07       		.byte	0x7
 10140 2b5e 01       		.byte	0x1
 10141 2b5f 72000000 		.4byte	0x72
 10142 2b63 27       		.byte	0x27
 10143 2b64 4C       		.byte	0x4c
 10144 2b65 0E       		.byte	0xe
 10145 2b66 8F2B0000 		.4byte	0x2b8f
 10146 2b6a 2A       		.uleb128 0x2a
 10147 2b6b 50060000 		.4byte	.LASF535
 10148 2b6f 00       		.byte	0
 10149 2b70 2A       		.uleb128 0x2a
 10150 2b71 880D0000 		.4byte	.LASF536
 10151 2b75 01       		.byte	0x1
 10152 2b76 2A       		.uleb128 0x2a
 10153 2b77 12070000 		.4byte	.LASF537
 10154 2b7b 02       		.byte	0x2
 10155 2b7c 2A       		.uleb128 0x2a
 10156 2b7d 0F050000 		.4byte	.LASF538
 10157 2b81 03       		.byte	0x3
 10158 2b82 2A       		.uleb128 0x2a
 10159 2b83 C1030000 		.4byte	.LASF539
 10160 2b87 04       		.byte	0x4
 10161 2b88 2A       		.uleb128 0x2a
 10162 2b89 30120000 		.4byte	.LASF540
 10163 2b8d 05       		.byte	0x5
 10164 2b8e 00       		.byte	0
 10165 2b8f 04       		.uleb128 0x4
 10166 2b90 E60B0000 		.4byte	.LASF541
 10167 2b94 27       		.byte	0x27
 10168 2b95 53       		.byte	0x53
 10169 2b96 03       		.byte	0x3
 10170 2b97 5C2B0000 		.4byte	0x2b5c
 10171 2b9b 06       		.uleb128 0x6
 10172 2b9c 3C040000 		.4byte	.LASF542
 10173 2ba0 28       		.byte	0x28
 10174 2ba1 9D01     		.2byte	0x19d
 10175 2ba3 12       		.byte	0x12
 10176 2ba4 94090000 		.4byte	0x994
ARM GAS  /tmp/ccfraM8n.s 			page 180


 10177 2ba8 21       		.uleb128 0x21
 10178 2ba9 0C       		.byte	0xc
 10179 2baa 28       		.byte	0x28
 10180 2bab A201     		.2byte	0x1a2
 10181 2bad 09       		.byte	0x9
 10182 2bae DD2B0000 		.4byte	0x2bdd
 10183 2bb2 17       		.uleb128 0x17
 10184 2bb3 1F1F0000 		.4byte	.LASF543
 10185 2bb7 28       		.byte	0x28
 10186 2bb8 A801     		.2byte	0x1a8
 10187 2bba 13       		.byte	0x13
 10188 2bbb 94090000 		.4byte	0x994
 10189 2bbf 00       		.byte	0
 10190 2bc0 18       		.uleb128 0x18
 10191 2bc1 63723100 		.ascii	"cr1\000"
 10192 2bc5 28       		.byte	0x28
 10193 2bc6 AD01     		.2byte	0x1ad
 10194 2bc8 13       		.byte	0x13
 10195 2bc9 94090000 		.4byte	0x994
 10196 2bcd 04       		.byte	0x4
 10197 2bce 18       		.uleb128 0x18
 10198 2bcf 63723200 		.ascii	"cr2\000"
 10199 2bd3 28       		.byte	0x28
 10200 2bd4 B201     		.2byte	0x1b2
 10201 2bd6 13       		.byte	0x13
 10202 2bd7 94090000 		.4byte	0x994
 10203 2bdb 08       		.byte	0x8
 10204 2bdc 00       		.byte	0
 10205 2bdd 06       		.uleb128 0x6
 10206 2bde 3A020000 		.4byte	.LASF544
 10207 2be2 28       		.byte	0x28
 10208 2be3 B301     		.2byte	0x1b3
 10209 2be5 03       		.byte	0x3
 10210 2be6 A82B0000 		.4byte	0x2ba8
 10211 2bea 15       		.uleb128 0x15
 10212 2beb DD2B0000 		.4byte	0x2bdd
 10213 2bef 06       		.uleb128 0x6
 10214 2bf0 05050000 		.4byte	.LASF545
 10215 2bf4 28       		.byte	0x28
 10216 2bf5 B801     		.2byte	0x1b8
 10217 2bf7 1A       		.byte	0x1a
 10218 2bf8 FC2B0000 		.4byte	0x2bfc
 10219 2bfc 16       		.uleb128 0x16
 10220 2bfd 05050000 		.4byte	.LASF545
 10221 2c01 3C       		.byte	0x3c
 10222 2c02 28       		.byte	0x28
 10223 2c03 BD01     		.2byte	0x1bd
 10224 2c05 08       		.byte	0x8
 10225 2c06 B12C0000 		.4byte	0x2cb1
 10226 2c0a 17       		.uleb128 0x17
 10227 2c0b EB140000 		.4byte	.LASF153
 10228 2c0f 28       		.byte	0x28
 10229 2c10 C101     		.2byte	0x1c1
 10230 2c12 1D       		.byte	0x1d
 10231 2c13 8F2B0000 		.4byte	0x2b8f
 10232 2c17 00       		.byte	0
 10233 2c18 17       		.uleb128 0x17
ARM GAS  /tmp/ccfraM8n.s 			page 181


 10234 2c19 501A0000 		.4byte	.LASF493
 10235 2c1d 28       		.byte	0x28
 10236 2c1e C501     		.2byte	0x1c5
 10237 2c20 1E       		.byte	0x1e
 10238 2c21 E12C0000 		.4byte	0x2ce1
 10239 2c25 04       		.byte	0x4
 10240 2c26 17       		.uleb128 0x17
 10241 2c27 99010000 		.4byte	.LASF546
 10242 2c2b 28       		.byte	0x28
 10243 2c2c C901     		.2byte	0x1c9
 10244 2c2e 1D       		.byte	0x1d
 10245 2c2f 9B2B0000 		.4byte	0x2b9b
 10246 2c33 08       		.byte	0x8
 10247 2c34 17       		.uleb128 0x17
 10248 2c35 A40B0000 		.4byte	.LASF498
 10249 2c39 28       		.byte	0x28
 10250 2c3a CB01     		.2byte	0x1cb
 10251 2c3c 1D       		.byte	0x1d
 10252 2c3d A41F0000 		.4byte	0x1fa4
 10253 2c41 0C       		.byte	0xc
 10254 2c42 17       		.uleb128 0x17
 10255 2c43 EC060000 		.4byte	.LASF497
 10256 2c47 28       		.byte	0x28
 10257 2c48 D401     		.2byte	0x1d4
 10258 2c4a 1D       		.byte	0x1d
 10259 2c4b 360B0000 		.4byte	0xb36
 10260 2c4f 1C       		.byte	0x1c
 10261 2c50 17       		.uleb128 0x17
 10262 2c51 1A180000 		.4byte	.LASF547
 10263 2c55 28       		.byte	0x28
 10264 2c56 D801     		.2byte	0x1d8
 10265 2c58 1D       		.byte	0x1d
 10266 2c59 33000000 		.4byte	0x33
 10267 2c5d 20       		.byte	0x20
 10268 2c5e 17       		.uleb128 0x17
 10269 2c5f BD080000 		.4byte	.LASF548
 10270 2c63 28       		.byte	0x28
 10271 2c64 DC01     		.2byte	0x1dc
 10272 2c66 1D       		.byte	0x1d
 10273 2c67 33000000 		.4byte	0x33
 10274 2c6b 24       		.byte	0x24
 10275 2c6c 17       		.uleb128 0x17
 10276 2c6d 39080000 		.4byte	.LASF549
 10277 2c71 28       		.byte	0x28
 10278 2c72 E101     		.2byte	0x1e1
 10279 2c74 1D       		.byte	0x1d
 10280 2c75 94090000 		.4byte	0x994
 10281 2c79 28       		.byte	0x28
 10282 2c7a 17       		.uleb128 0x17
 10283 2c7b 7C080000 		.4byte	.LASF550
 10284 2c7f 28       		.byte	0x28
 10285 2c80 E501     		.2byte	0x1e5
 10286 2c82 1D       		.byte	0x1d
 10287 2c83 94090000 		.4byte	0x994
 10288 2c87 2C       		.byte	0x2c
 10289 2c88 18       		.uleb128 0x18
 10290 2c89 727800   		.ascii	"rx\000"
ARM GAS  /tmp/ccfraM8n.s 			page 182


 10291 2c8c 28       		.byte	0x28
 10292 2c8d FE01     		.2byte	0x1fe
 10293 2c8f 05       		.byte	0x5
 10294 2c90 B12C0000 		.4byte	0x2cb1
 10295 2c94 30       		.byte	0x30
 10296 2c95 18       		.uleb128 0x18
 10297 2c96 747800   		.ascii	"tx\000"
 10298 2c99 28       		.byte	0x28
 10299 2c9a 1102     		.2byte	0x211
 10300 2c9c 05       		.byte	0x5
 10301 2c9d C92C0000 		.4byte	0x2cc9
 10302 2ca1 34       		.byte	0x34
 10303 2ca2 18       		.uleb128 0x18
 10304 2ca3 69326300 		.ascii	"i2c\000"
 10305 2ca7 28       		.byte	0x28
 10306 2ca8 1F02     		.2byte	0x21f
 10307 2caa 1E       		.byte	0x1e
 10308 2cab E72C0000 		.4byte	0x2ce7
 10309 2caf 38       		.byte	0x38
 10310 2cb0 00       		.byte	0
 10311 2cb1 2C       		.uleb128 0x2c
 10312 2cb2 04       		.byte	0x4
 10313 2cb3 28       		.byte	0x28
 10314 2cb4 EF01     		.2byte	0x1ef
 10315 2cb6 03       		.byte	0x3
 10316 2cb7 C92C0000 		.4byte	0x2cc9
 10317 2cbb 2D       		.uleb128 0x2d
 10318 2cbc 646D6100 		.ascii	"dma\000"
 10319 2cc0 28       		.byte	0x28
 10320 2cc1 F401     		.2byte	0x1f4
 10321 2cc3 20       		.byte	0x20
 10322 2cc4 D92A0000 		.4byte	0x2ad9
 10323 2cc8 00       		.byte	0
 10324 2cc9 2C       		.uleb128 0x2c
 10325 2cca 04       		.byte	0x4
 10326 2ccb 28       		.byte	0x28
 10327 2ccc 0202     		.2byte	0x202
 10328 2cce 03       		.byte	0x3
 10329 2ccf E12C0000 		.4byte	0x2ce1
 10330 2cd3 2D       		.uleb128 0x2d
 10331 2cd4 646D6100 		.ascii	"dma\000"
 10332 2cd8 28       		.byte	0x28
 10333 2cd9 0702     		.2byte	0x207
 10334 2cdb 20       		.byte	0x20
 10335 2cdc D92A0000 		.4byte	0x2ad9
 10336 2ce0 00       		.byte	0
 10337 2ce1 0E       		.uleb128 0xe
 10338 2ce2 04       		.byte	0x4
 10339 2ce3 EA2B0000 		.4byte	0x2bea
 10340 2ce7 0E       		.uleb128 0xe
 10341 2ce8 04       		.byte	0x4
 10342 2ce9 D4120000 		.4byte	0x12d4
 10343 2ced 1C       		.uleb128 0x1c
 10344 2cee 58100000 		.4byte	.LASF551
 10345 2cf2 28       		.byte	0x28
 10346 2cf3 3502     		.2byte	0x235
 10347 2cf5 12       		.byte	0x12
ARM GAS  /tmp/ccfraM8n.s 			page 183


 10348 2cf6 EF2B0000 		.4byte	0x2bef
 10349 2cfa 29       		.uleb128 0x29
 10350 2cfb 07       		.byte	0x7
 10351 2cfc 01       		.byte	0x1
 10352 2cfd 72000000 		.4byte	0x72
 10353 2d01 29       		.byte	0x29
 10354 2d02 4A       		.byte	0x4a
 10355 2d03 0E       		.byte	0xe
 10356 2d04 1B2D0000 		.4byte	0x2d1b
 10357 2d08 2A       		.uleb128 0x2a
 10358 2d09 42070000 		.4byte	.LASF552
 10359 2d0d 00       		.byte	0
 10360 2d0e 2A       		.uleb128 0x2a
 10361 2d0f 8D0B0000 		.4byte	.LASF553
 10362 2d13 01       		.byte	0x1
 10363 2d14 2A       		.uleb128 0x2a
 10364 2d15 210F0000 		.4byte	.LASF554
 10365 2d19 02       		.byte	0x2
 10366 2d1a 00       		.byte	0
 10367 2d1b 04       		.uleb128 0x4
 10368 2d1c D8030000 		.4byte	.LASF555
 10369 2d20 29       		.byte	0x29
 10370 2d21 4E       		.byte	0x4e
 10371 2d22 03       		.byte	0x3
 10372 2d23 FA2C0000 		.4byte	0x2cfa
 10373 2d27 04       		.uleb128 0x4
 10374 2d28 CE0A0000 		.4byte	.LASF556
 10375 2d2c 29       		.byte	0x29
 10376 2d2d 53       		.byte	0x53
 10377 2d2e 1A       		.byte	0x1a
 10378 2d2f 332D0000 		.4byte	0x2d33
 10379 2d33 16       		.uleb128 0x16
 10380 2d34 CE0A0000 		.4byte	.LASF556
 10381 2d38 1C       		.byte	0x1c
 10382 2d39 2A       		.byte	0x2a
 10383 2d3a 6B03     		.2byte	0x36b
 10384 2d3c 08       		.byte	0x8
 10385 2d3d A42D0000 		.4byte	0x2da4
 10386 2d41 17       		.uleb128 0x17
 10387 2d42 EB140000 		.4byte	.LASF153
 10388 2d46 2A       		.byte	0x2a
 10389 2d47 6F03     		.2byte	0x36f
 10390 2d49 1D       		.byte	0x1d
 10391 2d4a 1B2D0000 		.4byte	0x2d1b
 10392 2d4e 00       		.byte	0
 10393 2d4f 17       		.uleb128 0x17
 10394 2d50 501A0000 		.4byte	.LASF493
 10395 2d54 2A       		.byte	0x2a
 10396 2d55 7303     		.2byte	0x373
 10397 2d57 1E       		.byte	0x1e
 10398 2d58 B02E0000 		.4byte	0x2eb0
 10399 2d5c 04       		.byte	0x4
 10400 2d5d 17       		.uleb128 0x17
 10401 2d5e 0F120000 		.4byte	.LASF557
 10402 2d62 2A       		.byte	0x2a
 10403 2d63 7703     		.2byte	0x377
 10404 2d65 1D       		.byte	0x1d
ARM GAS  /tmp/ccfraM8n.s 			page 184


 10405 2d66 EE2D0000 		.4byte	0x2dee
 10406 2d6a 08       		.byte	0x8
 10407 2d6b 17       		.uleb128 0x17
 10408 2d6c B0180000 		.4byte	.LASF558
 10409 2d70 2A       		.byte	0x2a
 10410 2d71 7B03     		.2byte	0x37b
 10411 2d73 1D       		.byte	0x1d
 10412 2d74 E12D0000 		.4byte	0x2de1
 10413 2d78 0C       		.byte	0xc
 10414 2d79 17       		.uleb128 0x17
 10415 2d7a 76210000 		.4byte	.LASF559
 10416 2d7e 2A       		.byte	0x2a
 10417 2d7f 7F03     		.2byte	0x37f
 10418 2d81 1D       		.byte	0x1d
 10419 2d82 D42D0000 		.4byte	0x2dd4
 10420 2d86 10       		.byte	0x10
 10421 2d87 17       		.uleb128 0x17
 10422 2d88 D50B0000 		.4byte	.LASF560
 10423 2d8c 2A       		.byte	0x2a
 10424 2d8d 8703     		.2byte	0x387
 10425 2d8f 1D       		.byte	0x1d
 10426 2d90 94090000 		.4byte	0x994
 10427 2d94 14       		.byte	0x14
 10428 2d95 18       		.uleb128 0x18
 10429 2d96 74696D00 		.ascii	"tim\000"
 10430 2d9a 2A       		.byte	0x2a
 10431 2d9b 8B03     		.2byte	0x38b
 10432 2d9d 1E       		.byte	0x1e
 10433 2d9e B62E0000 		.4byte	0x2eb6
 10434 2da2 18       		.byte	0x18
 10435 2da3 00       		.byte	0
 10436 2da4 04       		.uleb128 0x4
 10437 2da5 C50F0000 		.4byte	.LASF561
 10438 2da9 29       		.byte	0x29
 10439 2daa 5A       		.byte	0x5a
 10440 2dab 10       		.byte	0x10
 10441 2dac B02D0000 		.4byte	0x2db0
 10442 2db0 0E       		.uleb128 0xe
 10443 2db1 04       		.byte	0x4
 10444 2db2 B62D0000 		.4byte	0x2db6
 10445 2db6 1B       		.uleb128 0x1b
 10446 2db7 C12D0000 		.4byte	0x2dc1
 10447 2dbb 1A       		.uleb128 0x1a
 10448 2dbc C12D0000 		.4byte	0x2dc1
 10449 2dc0 00       		.byte	0
 10450 2dc1 0E       		.uleb128 0xe
 10451 2dc2 04       		.byte	0x4
 10452 2dc3 272D0000 		.4byte	0x2d27
 10453 2dc7 06       		.uleb128 0x6
 10454 2dc8 3A140000 		.4byte	.LASF562
 10455 2dcc 2A       		.byte	0x2a
 10456 2dcd 1703     		.2byte	0x317
 10457 2dcf 12       		.byte	0x12
 10458 2dd0 94090000 		.4byte	0x994
 10459 2dd4 06       		.uleb128 0x6
 10460 2dd5 42160000 		.4byte	.LASF563
 10461 2dd9 2A       		.byte	0x2a
ARM GAS  /tmp/ccfraM8n.s 			page 185


 10462 2dda 1C03     		.2byte	0x31c
 10463 2ddc 11       		.byte	0x11
 10464 2ddd 66090000 		.4byte	0x966
 10465 2de1 06       		.uleb128 0x6
 10466 2de2 43030000 		.4byte	.LASF564
 10467 2de6 2A       		.byte	0x2a
 10468 2de7 2103     		.2byte	0x321
 10469 2de9 12       		.byte	0x12
 10470 2dea 94090000 		.4byte	0x994
 10471 2dee 06       		.uleb128 0x6
 10472 2def 970C0000 		.4byte	.LASF565
 10473 2df3 2A       		.byte	0x2a
 10474 2df4 2603     		.2byte	0x326
 10475 2df6 12       		.byte	0x12
 10476 2df7 94090000 		.4byte	0x994
 10477 2dfb 21       		.uleb128 0x21
 10478 2dfc 08       		.byte	0x8
 10479 2dfd 2A       		.byte	0x2a
 10480 2dfe 2B03     		.2byte	0x32b
 10481 2e00 09       		.byte	0x9
 10482 2e01 222E0000 		.4byte	0x2e22
 10483 2e05 17       		.uleb128 0x17
 10484 2e06 4D080000 		.4byte	.LASF566
 10485 2e0a 2A       		.byte	0x2a
 10486 2e0b 2F03     		.2byte	0x32f
 10487 2e0d 1D       		.byte	0x1d
 10488 2e0e C72D0000 		.4byte	0x2dc7
 10489 2e12 00       		.byte	0
 10490 2e13 17       		.uleb128 0x17
 10491 2e14 39150000 		.4byte	.LASF567
 10492 2e18 2A       		.byte	0x2a
 10493 2e19 3503     		.2byte	0x335
 10494 2e1b 1D       		.byte	0x1d
 10495 2e1c A42D0000 		.4byte	0x2da4
 10496 2e20 04       		.byte	0x4
 10497 2e21 00       		.byte	0
 10498 2e22 06       		.uleb128 0x6
 10499 2e23 860C0000 		.4byte	.LASF568
 10500 2e27 2A       		.byte	0x2a
 10501 2e28 3703     		.2byte	0x337
 10502 2e2a 03       		.byte	0x3
 10503 2e2b FB2D0000 		.4byte	0x2dfb
 10504 2e2f 21       		.uleb128 0x21
 10505 2e30 44       		.byte	0x44
 10506 2e31 2A       		.byte	0x2a
 10507 2e32 3C03     		.2byte	0x33c
 10508 2e34 09       		.byte	0x9
 10509 2e35 8E2E0000 		.4byte	0x2e8e
 10510 2e39 17       		.uleb128 0x17
 10511 2e3a 86220000 		.4byte	.LASF569
 10512 2e3e 2A       		.byte	0x2a
 10513 2e3f 4203     		.2byte	0x342
 10514 2e41 1D       		.byte	0x1d
 10515 2e42 94090000 		.4byte	0x994
 10516 2e46 00       		.byte	0
 10517 2e47 17       		.uleb128 0x17
 10518 2e48 0F120000 		.4byte	.LASF557
ARM GAS  /tmp/ccfraM8n.s 			page 186


 10519 2e4c 2A       		.byte	0x2a
 10520 2e4d 4803     		.2byte	0x348
 10521 2e4f 1D       		.byte	0x1d
 10522 2e50 EE2D0000 		.4byte	0x2dee
 10523 2e54 04       		.byte	0x4
 10524 2e55 17       		.uleb128 0x17
 10525 2e56 39150000 		.4byte	.LASF567
 10526 2e5a 2A       		.byte	0x2a
 10527 2e5b 4E03     		.2byte	0x34e
 10528 2e5d 1D       		.byte	0x1d
 10529 2e5e A42D0000 		.4byte	0x2da4
 10530 2e62 08       		.byte	0x8
 10531 2e63 17       		.uleb128 0x17
 10532 2e64 76210000 		.4byte	.LASF559
 10533 2e68 2A       		.byte	0x2a
 10534 2e69 5203     		.2byte	0x352
 10535 2e6b 1D       		.byte	0x1d
 10536 2e6c 8E2E0000 		.4byte	0x2e8e
 10537 2e70 0C       		.byte	0xc
 10538 2e71 18       		.uleb128 0x18
 10539 2e72 63723200 		.ascii	"cr2\000"
 10540 2e76 2A       		.byte	0x2a
 10541 2e77 5803     		.2byte	0x358
 10542 2e79 1D       		.byte	0x1d
 10543 2e7a 94090000 		.4byte	0x994
 10544 2e7e 3C       		.byte	0x3c
 10545 2e7f 17       		.uleb128 0x17
 10546 2e80 5C0B0000 		.4byte	.LASF570
 10547 2e84 2A       		.byte	0x2a
 10548 2e85 6503     		.2byte	0x365
 10549 2e87 1D       		.byte	0x1d
 10550 2e88 94090000 		.4byte	0x994
 10551 2e8c 40       		.byte	0x40
 10552 2e8d 00       		.byte	0
 10553 2e8e 09       		.uleb128 0x9
 10554 2e8f 222E0000 		.4byte	0x2e22
 10555 2e93 9E2E0000 		.4byte	0x2e9e
 10556 2e97 0A       		.uleb128 0xa
 10557 2e98 25000000 		.4byte	0x25
 10558 2e9c 05       		.byte	0x5
 10559 2e9d 00       		.byte	0
 10560 2e9e 06       		.uleb128 0x6
 10561 2e9f D80A0000 		.4byte	.LASF571
 10562 2ea3 2A       		.byte	0x2a
 10563 2ea4 6603     		.2byte	0x366
 10564 2ea6 03       		.byte	0x3
 10565 2ea7 2F2E0000 		.4byte	0x2e2f
 10566 2eab 15       		.uleb128 0x15
 10567 2eac 9E2E0000 		.4byte	0x2e9e
 10568 2eb0 0E       		.uleb128 0xe
 10569 2eb1 04       		.byte	0x4
 10570 2eb2 AB2E0000 		.4byte	0x2eab
 10571 2eb6 0E       		.uleb128 0xe
 10572 2eb7 04       		.byte	0x4
 10573 2eb8 90240000 		.4byte	0x2490
 10574 2ebc 1C       		.uleb128 0x1c
 10575 2ebd 94100000 		.4byte	.LASF572
ARM GAS  /tmp/ccfraM8n.s 			page 187


 10576 2ec1 2A       		.byte	0x2a
 10577 2ec2 AA03     		.2byte	0x3aa
 10578 2ec4 12       		.byte	0x12
 10579 2ec5 272D0000 		.4byte	0x2d27
 10580 2ec9 1C       		.uleb128 0x1c
 10581 2eca 3F130000 		.4byte	.LASF573
 10582 2ece 2A       		.byte	0x2a
 10583 2ecf B203     		.2byte	0x3b2
 10584 2ed1 12       		.byte	0x12
 10585 2ed2 272D0000 		.4byte	0x2d27
 10586 2ed6 1C       		.uleb128 0x1c
 10587 2ed7 A2100000 		.4byte	.LASF574
 10588 2edb 2A       		.byte	0x2a
 10589 2edc B603     		.2byte	0x3b6
 10590 2ede 12       		.byte	0x12
 10591 2edf 272D0000 		.4byte	0x2d27
 10592 2ee3 1C       		.uleb128 0x1c
 10593 2ee4 A8100000 		.4byte	.LASF575
 10594 2ee8 2A       		.byte	0x2a
 10595 2ee9 BA03     		.2byte	0x3ba
 10596 2eeb 12       		.byte	0x12
 10597 2eec 272D0000 		.4byte	0x2d27
 10598 2ef0 1C       		.uleb128 0x1c
 10599 2ef1 B4100000 		.4byte	.LASF576
 10600 2ef5 2A       		.byte	0x2a
 10601 2ef6 BE03     		.2byte	0x3be
 10602 2ef8 12       		.byte	0x12
 10603 2ef9 272D0000 		.4byte	0x2d27
 10604 2efd 29       		.uleb128 0x29
 10605 2efe 07       		.byte	0x7
 10606 2eff 01       		.byte	0x1
 10607 2f00 72000000 		.4byte	0x72
 10608 2f04 2B       		.byte	0x2b
 10609 2f05 58       		.byte	0x58
 10610 2f06 0E       		.byte	0xe
 10611 2f07 1E2F0000 		.4byte	0x2f1e
 10612 2f0b 2A       		.uleb128 0x2a
 10613 2f0c 78060000 		.4byte	.LASF577
 10614 2f10 00       		.byte	0
 10615 2f11 2A       		.uleb128 0x2a
 10616 2f12 120C0000 		.4byte	.LASF578
 10617 2f16 01       		.byte	0x1
 10618 2f17 2A       		.uleb128 0x2a
 10619 2f18 3F240000 		.4byte	.LASF579
 10620 2f1c 02       		.byte	0x2
 10621 2f1d 00       		.byte	0
 10622 2f1e 04       		.uleb128 0x4
 10623 2f1f A6090000 		.4byte	.LASF580
 10624 2f23 2B       		.byte	0x2b
 10625 2f24 5C       		.byte	0x5c
 10626 2f25 03       		.byte	0x3
 10627 2f26 FD2E0000 		.4byte	0x2efd
 10628 2f2a 04       		.uleb128 0x4
 10629 2f2b 1E010000 		.4byte	.LASF581
 10630 2f2f 2B       		.byte	0x2b
 10631 2f30 61       		.byte	0x61
 10632 2f31 1D       		.byte	0x1d
ARM GAS  /tmp/ccfraM8n.s 			page 188


 10633 2f32 362F0000 		.4byte	0x2f36
 10634 2f36 10       		.uleb128 0x10
 10635 2f37 1E010000 		.4byte	.LASF581
 10636 2f3b 60       		.byte	0x60
 10637 2f3c 2B       		.byte	0x2b
 10638 2f3d 7B       		.byte	0x7b
 10639 2f3e 08       		.byte	0x8
 10640 2f3f AC2F0000 		.4byte	0x2fac
 10641 2f43 11       		.uleb128 0x11
 10642 2f44 766D7400 		.ascii	"vmt\000"
 10643 2f48 2B       		.byte	0x2b
 10644 2f49 7D       		.byte	0x7d
 10645 2f4a 21       		.byte	0x21
 10646 2f4b 75300000 		.4byte	0x3075
 10647 2f4f 00       		.byte	0
 10648 2f50 0C       		.uleb128 0xc
 10649 2f51 54000000 		.4byte	.LASF582
 10650 2f55 2B       		.byte	0x2b
 10651 2f56 7E       		.byte	0x7e
 10652 2f57 03       		.byte	0x3
 10653 2f58 32200000 		.4byte	0x2032
 10654 2f5c 04       		.byte	0x4
 10655 2f5d 0C       		.uleb128 0xc
 10656 2f5e EB140000 		.4byte	.LASF153
 10657 2f62 2B       		.byte	0x2b
 10658 2f63 7E       		.byte	0x7e
 10659 2f64 03       		.byte	0x3
 10660 2f65 1E2F0000 		.4byte	0x2f1e
 10661 2f69 08       		.byte	0x8
 10662 2f6a 0C       		.uleb128 0xc
 10663 2f6b 37170000 		.4byte	.LASF583
 10664 2f6f 2B       		.byte	0x2b
 10665 2f70 7E       		.byte	0x7e
 10666 2f71 03       		.byte	0x3
 10667 2f72 53270000 		.4byte	0x2753
 10668 2f76 0C       		.byte	0xc
 10669 2f77 0C       		.uleb128 0xc
 10670 2f78 740F0000 		.4byte	.LASF584
 10671 2f7c 2B       		.byte	0x2b
 10672 2f7d 7E       		.byte	0x7e
 10673 2f7e 03       		.byte	0x3
 10674 2f7f 5F270000 		.4byte	0x275f
 10675 2f83 30       		.byte	0x30
 10676 2f84 0C       		.uleb128 0xc
 10677 2f85 C5180000 		.4byte	.LASF585
 10678 2f89 2B       		.byte	0x2b
 10679 2f8a 7E       		.byte	0x7e
 10680 2f8b 03       		.byte	0x3
 10681 2f8c 7B300000 		.4byte	0x307b
 10682 2f90 54       		.byte	0x54
 10683 2f91 0C       		.uleb128 0xc
 10684 2f92 D50B0000 		.4byte	.LASF560
 10685 2f96 2B       		.byte	0x2b
 10686 2f97 7E       		.byte	0x7e
 10687 2f98 03       		.byte	0x3
 10688 2f99 94090000 		.4byte	0x994
 10689 2f9d 58       		.byte	0x58
ARM GAS  /tmp/ccfraM8n.s 			page 189


 10690 2f9e 0C       		.uleb128 0xc
 10691 2f9f C2190000 		.4byte	.LASF586
 10692 2fa3 2B       		.byte	0x2b
 10693 2fa4 7E       		.byte	0x7e
 10694 2fa5 03       		.byte	0x3
 10695 2fa6 66090000 		.4byte	0x966
 10696 2faa 5C       		.byte	0x5c
 10697 2fab 00       		.byte	0
 10698 2fac 27       		.uleb128 0x27
 10699 2fad 53443100 		.ascii	"SD1\000"
 10700 2fb1 2C       		.byte	0x2c
 10701 2fb2 EC01     		.2byte	0x1ec
 10702 2fb4 15       		.byte	0x15
 10703 2fb5 2A2F0000 		.4byte	0x2f2a
 10704 2fb9 27       		.uleb128 0x27
 10705 2fba 53443200 		.ascii	"SD2\000"
 10706 2fbe 2C       		.byte	0x2c
 10707 2fbf EF01     		.2byte	0x1ef
 10708 2fc1 15       		.byte	0x15
 10709 2fc2 2A2F0000 		.4byte	0x2f2a
 10710 2fc6 27       		.uleb128 0x27
 10711 2fc7 53443300 		.ascii	"SD3\000"
 10712 2fcb 2C       		.byte	0x2c
 10713 2fcc F201     		.2byte	0x1f2
 10714 2fce 15       		.byte	0x15
 10715 2fcf 2A2F0000 		.4byte	0x2f2a
 10716 2fd3 27       		.uleb128 0x27
 10717 2fd4 53443600 		.ascii	"SD6\000"
 10718 2fd8 2C       		.byte	0x2c
 10719 2fd9 FB01     		.2byte	0x1fb
 10720 2fdb 15       		.byte	0x15
 10721 2fdc 2A2F0000 		.4byte	0x2f2a
 10722 2fe0 10       		.uleb128 0x10
 10723 2fe1 2A0E0000 		.4byte	.LASF587
 10724 2fe5 28       		.byte	0x28
 10725 2fe6 2B       		.byte	0x2b
 10726 2fe7 70       		.byte	0x70
 10727 2fe8 08       		.byte	0x8
 10728 2fe9 70300000 		.4byte	0x3070
 10729 2fed 0C       		.uleb128 0xc
 10730 2fee A0010000 		.4byte	.LASF588
 10731 2ff2 2B       		.byte	0x2b
 10732 2ff3 71       		.byte	0x71
 10733 2ff4 03       		.byte	0x3
 10734 2ff5 33000000 		.4byte	0x33
 10735 2ff9 00       		.byte	0
 10736 2ffa 0C       		.uleb128 0xc
 10737 2ffb 26170000 		.4byte	.LASF589
 10738 2fff 2B       		.byte	0x2b
 10739 3000 71       		.byte	0x71
 10740 3001 03       		.byte	0x3
 10741 3002 BC240000 		.4byte	0x24bc
 10742 3006 04       		.byte	0x4
 10743 3007 0C       		.uleb128 0xc
 10744 3008 22050000 		.4byte	.LASF590
 10745 300c 2B       		.byte	0x2b
 10746 300d 71       		.byte	0x71
ARM GAS  /tmp/ccfraM8n.s 			page 190


 10747 300e 03       		.byte	0x3
 10748 300f DB240000 		.4byte	0x24db
 10749 3013 08       		.byte	0x8
 10750 3014 11       		.uleb128 0x11
 10751 3015 70757400 		.ascii	"put\000"
 10752 3019 2B       		.byte	0x2b
 10753 301a 71       		.byte	0x71
 10754 301b 03       		.byte	0x3
 10755 301c F5240000 		.4byte	0x24f5
 10756 3020 0C       		.byte	0xc
 10757 3021 11       		.uleb128 0x11
 10758 3022 67657400 		.ascii	"get\000"
 10759 3026 2B       		.byte	0x2b
 10760 3027 71       		.byte	0x71
 10761 3028 03       		.byte	0x3
 10762 3029 0A250000 		.4byte	0x250a
 10763 302d 10       		.byte	0x10
 10764 302e 0C       		.uleb128 0xc
 10765 302f 08130000 		.4byte	.LASF591
 10766 3033 2B       		.byte	0x2b
 10767 3034 71       		.byte	0x71
 10768 3035 03       		.byte	0x3
 10769 3036 29250000 		.4byte	0x2529
 10770 303a 14       		.byte	0x14
 10771 303b 0C       		.uleb128 0xc
 10772 303c FA160000 		.4byte	.LASF592
 10773 3040 2B       		.byte	0x2b
 10774 3041 71       		.byte	0x71
 10775 3042 03       		.byte	0x3
 10776 3043 43250000 		.4byte	0x2543
 10777 3047 18       		.byte	0x18
 10778 3048 0C       		.uleb128 0xc
 10779 3049 03200000 		.4byte	.LASF593
 10780 304d 2B       		.byte	0x2b
 10781 304e 71       		.byte	0x71
 10782 304f 03       		.byte	0x3
 10783 3050 67250000 		.4byte	0x2567
 10784 3054 1C       		.byte	0x1c
 10785 3055 0C       		.uleb128 0xc
 10786 3056 55120000 		.4byte	.LASF594
 10787 305a 2B       		.byte	0x2b
 10788 305b 71       		.byte	0x71
 10789 305c 03       		.byte	0x3
 10790 305d 8B250000 		.4byte	0x258b
 10791 3061 20       		.byte	0x20
 10792 3062 11       		.uleb128 0x11
 10793 3063 63746C00 		.ascii	"ctl\000"
 10794 3067 2B       		.byte	0x2b
 10795 3068 71       		.byte	0x71
 10796 3069 03       		.byte	0x3
 10797 306a AA250000 		.4byte	0x25aa
 10798 306e 24       		.byte	0x24
 10799 306f 00       		.byte	0
 10800 3070 15       		.uleb128 0x15
 10801 3071 E02F0000 		.4byte	0x2fe0
 10802 3075 0E       		.uleb128 0xe
 10803 3076 04       		.byte	0x4
ARM GAS  /tmp/ccfraM8n.s 			page 191


 10804 3077 70300000 		.4byte	0x3070
 10805 307b 0E       		.uleb128 0xe
 10806 307c 04       		.byte	0x4
 10807 307d F3190000 		.4byte	0x19f3
 10808 3081 29       		.uleb128 0x29
 10809 3082 07       		.byte	0x7
 10810 3083 01       		.byte	0x1
 10811 3084 72000000 		.4byte	0x72
 10812 3088 2D       		.byte	0x2d
 10813 3089 7A       		.byte	0x7a
 10814 308a 0E       		.byte	0xe
 10815 308b A2300000 		.4byte	0x30a2
 10816 308f 2A       		.uleb128 0x2a
 10817 3090 A3030000 		.4byte	.LASF595
 10818 3094 00       		.byte	0
 10819 3095 2A       		.uleb128 0x2a
 10820 3096 59140000 		.4byte	.LASF596
 10821 309a 01       		.byte	0x1
 10822 309b 2A       		.uleb128 0x2a
 10823 309c 9D110000 		.4byte	.LASF597
 10824 30a0 02       		.byte	0x2
 10825 30a1 00       		.byte	0
 10826 30a2 04       		.uleb128 0x4
 10827 30a3 8C190000 		.4byte	.LASF598
 10828 30a7 2D       		.byte	0x2d
 10829 30a8 7E       		.byte	0x7e
 10830 30a9 03       		.byte	0x3
 10831 30aa 81300000 		.4byte	0x3081
 10832 30ae 04       		.uleb128 0x4
 10833 30af CB180000 		.4byte	.LASF599
 10834 30b3 2E       		.byte	0x2e
 10835 30b4 A6       		.byte	0xa6
 10836 30b5 12       		.byte	0x12
 10837 30b6 94090000 		.4byte	0x994
 10838 30ba 04       		.uleb128 0x4
 10839 30bb ED000000 		.4byte	.LASF600
 10840 30bf 2E       		.byte	0x2e
 10841 30c0 AB       		.byte	0xab
 10842 30c1 12       		.byte	0x12
 10843 30c2 94090000 		.4byte	0x994
 10844 30c6 04       		.uleb128 0x4
 10845 30c7 33100000 		.4byte	.LASF601
 10846 30cb 2E       		.byte	0x2e
 10847 30cc B0       		.byte	0xb0
 10848 30cd 1A       		.byte	0x1a
 10849 30ce D2300000 		.4byte	0x30d2
 10850 30d2 12       		.uleb128 0x12
 10851 30d3 33100000 		.4byte	.LASF601
 10852 30d7 4802     		.2byte	0x248
 10853 30d9 2E       		.byte	0x2e
 10854 30da D0       		.byte	0xd0
 10855 30db 08       		.byte	0x8
 10856 30dc 8A310000 		.4byte	0x318a
 10857 30e0 11       		.uleb128 0x11
 10858 30e1 766D7400 		.ascii	"vmt\000"
 10859 30e5 2E       		.byte	0x2e
 10860 30e6 D4       		.byte	0xd4
ARM GAS  /tmp/ccfraM8n.s 			page 192


 10861 30e7 1E       		.byte	0x1e
 10862 30e8 3A320000 		.4byte	0x323a
 10863 30ec 00       		.byte	0
 10864 30ed 0C       		.uleb128 0xc
 10865 30ee EB140000 		.4byte	.LASF153
 10866 30f2 2E       		.byte	0x2e
 10867 30f3 D5       		.byte	0xd5
 10868 30f4 03       		.byte	0x3
 10869 30f5 F5250000 		.4byte	0x25f5
 10870 30f9 04       		.byte	0x4
 10871 30fa 11       		.uleb128 0x11
 10872 30fb 63696400 		.ascii	"cid\000"
 10873 30ff 2E       		.byte	0x2e
 10874 3100 D5       		.byte	0xd5
 10875 3101 03       		.byte	0x3
 10876 3102 47100000 		.4byte	0x1047
 10877 3106 08       		.byte	0x8
 10878 3107 11       		.uleb128 0x11
 10879 3108 63736400 		.ascii	"csd\000"
 10880 310c 2E       		.byte	0x2e
 10881 310d D5       		.byte	0xd5
 10882 310e 03       		.byte	0x3
 10883 310f 47100000 		.4byte	0x1047
 10884 3113 18       		.byte	0x18
 10885 3114 0C       		.uleb128 0xc
 10886 3115 EA1A0000 		.4byte	.LASF602
 10887 3119 2E       		.byte	0x2e
 10888 311a D5       		.byte	0xd5
 10889 311b 03       		.byte	0x3
 10890 311c 94090000 		.4byte	0x994
 10891 3120 28       		.byte	0x28
 10892 3121 0C       		.uleb128 0xc
 10893 3122 501A0000 		.4byte	.LASF493
 10894 3126 2E       		.byte	0x2e
 10895 3127 D9       		.byte	0xd9
 10896 3128 1E       		.byte	0x1e
 10897 3129 40320000 		.4byte	0x3240
 10898 312d 2C       		.byte	0x2c
 10899 312e 0C       		.uleb128 0xc
 10900 312f FD130000 		.4byte	.LASF603
 10901 3133 2E       		.byte	0x2e
 10902 3134 DD       		.byte	0xdd
 10903 3135 1D       		.byte	0x1d
 10904 3136 AE300000 		.4byte	0x30ae
 10905 313a 30       		.byte	0x30
 10906 313b 0C       		.uleb128 0xc
 10907 313c 99010000 		.4byte	.LASF546
 10908 3140 2E       		.byte	0x2e
 10909 3141 E1       		.byte	0xe1
 10910 3142 1D       		.byte	0x1d
 10911 3143 BA300000 		.4byte	0x30ba
 10912 3147 34       		.byte	0x34
 10913 3148 11       		.uleb128 0x11
 10914 3149 72636100 		.ascii	"rca\000"
 10915 314d 2E       		.byte	0x2e
 10916 314e E5       		.byte	0xe5
 10917 314f 1D       		.byte	0x1d
ARM GAS  /tmp/ccfraM8n.s 			page 193


 10918 3150 94090000 		.4byte	0x994
 10919 3154 38       		.byte	0x38
 10920 3155 0C       		.uleb128 0xc
 10921 3156 EC060000 		.4byte	.LASF497
 10922 315a 2E       		.byte	0x2e
 10923 315b EA       		.byte	0xea
 10924 315c 1D       		.byte	0x1d
 10925 315d 360B0000 		.4byte	0xb36
 10926 3161 3C       		.byte	0x3c
 10927 3162 0C       		.uleb128 0xc
 10928 3163 15200000 		.4byte	.LASF604
 10929 3167 2E       		.byte	0x2e
 10930 3168 EF       		.byte	0xef
 10931 3169 1E       		.byte	0x1e
 10932 316a 46320000 		.4byte	0x3246
 10933 316e 40       		.byte	0x40
 10934 316f 0C       		.uleb128 0xc
 10935 3170 B6090000 		.4byte	.LASF605
 10936 3174 2E       		.byte	0x2e
 10937 3175 F3       		.byte	0xf3
 10938 3176 1D       		.byte	0x1d
 10939 3177 94090000 		.4byte	0x994
 10940 317b 44       		.byte	0x44
 10941 317c 11       		.uleb128 0x11
 10942 317d 62756600 		.ascii	"buf\000"
 10943 3181 2E       		.byte	0x2e
 10944 3182 F7       		.byte	0xf7
 10945 3183 1D       		.byte	0x1d
 10946 3184 4C320000 		.4byte	0x324c
 10947 3188 48       		.byte	0x48
 10948 3189 00       		.byte	0
 10949 318a 0B       		.uleb128 0xb
 10950 318b 01       		.byte	0x1
 10951 318c 2E       		.byte	0x2e
 10952 318d B6       		.byte	0xb6
 10953 318e 09       		.byte	0x9
 10954 318f A1310000 		.4byte	0x31a1
 10955 3193 0C       		.uleb128 0xc
 10956 3194 DD200000 		.4byte	.LASF606
 10957 3198 2E       		.byte	0x2e
 10958 3199 BA       		.byte	0xba
 10959 319a 11       		.byte	0x11
 10960 319b A2300000 		.4byte	0x30a2
 10961 319f 00       		.byte	0
 10962 31a0 00       		.byte	0
 10963 31a1 04       		.uleb128 0x4
 10964 31a2 4E100000 		.4byte	.LASF607
 10965 31a6 2E       		.byte	0x2e
 10966 31a7 BC       		.byte	0xbc
 10967 31a8 03       		.byte	0x3
 10968 31a9 8A310000 		.4byte	0x318a
 10969 31ad 15       		.uleb128 0x15
 10970 31ae A1310000 		.4byte	0x31a1
 10971 31b2 10       		.uleb128 0x10
 10972 31b3 EC200000 		.4byte	.LASF608
 10973 31b7 24       		.byte	0x24
 10974 31b8 2E       		.byte	0x2e
ARM GAS  /tmp/ccfraM8n.s 			page 194


 10975 31b9 C9       		.byte	0xc9
 10976 31ba 08       		.byte	0x8
 10977 31bb 35320000 		.4byte	0x3235
 10978 31bf 0C       		.uleb128 0xc
 10979 31c0 A0010000 		.4byte	.LASF588
 10980 31c4 2E       		.byte	0x2e
 10981 31c5 CA       		.byte	0xca
 10982 31c6 03       		.byte	0x3
 10983 31c7 33000000 		.4byte	0x33
 10984 31cb 00       		.byte	0
 10985 31cc 0C       		.uleb128 0xc
 10986 31cd 061D0000 		.4byte	.LASF609
 10987 31d1 2E       		.byte	0x2e
 10988 31d2 CA       		.byte	0xca
 10989 31d3 03       		.byte	0x3
 10990 31d4 40260000 		.4byte	0x2640
 10991 31d8 04       		.byte	0x4
 10992 31d9 0C       		.uleb128 0xc
 10993 31da 610B0000 		.4byte	.LASF610
 10994 31de 2E       		.byte	0x2e
 10995 31df CA       		.byte	0xca
 10996 31e0 03       		.byte	0x3
 10997 31e1 40260000 		.4byte	0x2640
 10998 31e5 08       		.byte	0x8
 10999 31e6 0C       		.uleb128 0xc
 11000 31e7 6B0E0000 		.4byte	.LASF611
 11001 31eb 2E       		.byte	0x2e
 11002 31ec CA       		.byte	0xca
 11003 31ed 03       		.byte	0x3
 11004 31ee 40260000 		.4byte	0x2640
 11005 31f2 0C       		.byte	0xc
 11006 31f3 0C       		.uleb128 0xc
 11007 31f4 F7120000 		.4byte	.LASF612
 11008 31f8 2E       		.byte	0x2e
 11009 31f9 CA       		.byte	0xca
 11010 31fa 03       		.byte	0x3
 11011 31fb 40260000 		.4byte	0x2640
 11012 31ff 10       		.byte	0x10
 11013 3200 0C       		.uleb128 0xc
 11014 3201 22050000 		.4byte	.LASF590
 11015 3205 2E       		.byte	0x2e
 11016 3206 CA       		.byte	0xca
 11017 3207 03       		.byte	0x3
 11018 3208 64260000 		.4byte	0x2664
 11019 320c 14       		.byte	0x14
 11020 320d 0C       		.uleb128 0xc
 11021 320e 26170000 		.4byte	.LASF589
 11022 3212 2E       		.byte	0x2e
 11023 3213 CA       		.byte	0xca
 11024 3214 03       		.byte	0x3
 11025 3215 88260000 		.4byte	0x2688
 11026 3219 18       		.byte	0x18
 11027 321a 0C       		.uleb128 0xc
 11028 321b C0180000 		.4byte	.LASF613
 11029 321f 2E       		.byte	0x2e
 11030 3220 CA       		.byte	0xca
 11031 3221 03       		.byte	0x3
ARM GAS  /tmp/ccfraM8n.s 			page 195


 11032 3222 40260000 		.4byte	0x2640
 11033 3226 1C       		.byte	0x1c
 11034 3227 0C       		.uleb128 0xc
 11035 3228 63200000 		.4byte	.LASF614
 11036 322c 2E       		.byte	0x2e
 11037 322d CA       		.byte	0xca
 11038 322e 03       		.byte	0x3
 11039 322f A8260000 		.4byte	0x26a8
 11040 3233 20       		.byte	0x20
 11041 3234 00       		.byte	0
 11042 3235 15       		.uleb128 0x15
 11043 3236 B2310000 		.4byte	0x31b2
 11044 323a 0E       		.uleb128 0xe
 11045 323b 04       		.byte	0x4
 11046 323c 35320000 		.4byte	0x3235
 11047 3240 0E       		.uleb128 0xe
 11048 3241 04       		.byte	0x4
 11049 3242 AD310000 		.4byte	0x31ad
 11050 3246 0E       		.uleb128 0xe
 11051 3247 04       		.byte	0x4
 11052 3248 2E180000 		.4byte	0x182e
 11053 324c 09       		.uleb128 0x9
 11054 324d 66090000 		.4byte	0x966
 11055 3251 5D320000 		.4byte	0x325d
 11056 3255 2E       		.uleb128 0x2e
 11057 3256 25000000 		.4byte	0x25
 11058 325a FF01     		.2byte	0x1ff
 11059 325c 00       		.byte	0
 11060 325d 1C       		.uleb128 0x1c
 11061 325e 5D180000 		.4byte	.LASF615
 11062 3262 2E       		.byte	0x2e
 11063 3263 0301     		.2byte	0x103
 11064 3265 12       		.byte	0x12
 11065 3266 C6300000 		.4byte	0x30c6
 11066 326a 29       		.uleb128 0x29
 11067 326b 07       		.byte	0x7
 11068 326c 01       		.byte	0x1
 11069 326d 72000000 		.4byte	0x72
 11070 3271 2F       		.byte	0x2f
 11071 3272 74       		.byte	0x74
 11072 3273 0E       		.byte	0xe
 11073 3274 97320000 		.4byte	0x3297
 11074 3278 2A       		.uleb128 0x2a
 11075 3279 F9060000 		.4byte	.LASF616
 11076 327d 00       		.byte	0
 11077 327e 2A       		.uleb128 0x2a
 11078 327f 33030000 		.4byte	.LASF617
 11079 3283 01       		.byte	0x1
 11080 3284 2A       		.uleb128 0x2a
 11081 3285 AF200000 		.4byte	.LASF618
 11082 3289 02       		.byte	0x2
 11083 328a 2A       		.uleb128 0x2a
 11084 328b AC0D0000 		.4byte	.LASF619
 11085 328f 03       		.byte	0x3
 11086 3290 2A       		.uleb128 0x2a
 11087 3291 77120000 		.4byte	.LASF620
 11088 3295 04       		.byte	0x4
ARM GAS  /tmp/ccfraM8n.s 			page 196


 11089 3296 00       		.byte	0
 11090 3297 04       		.uleb128 0x4
 11091 3298 98030000 		.4byte	.LASF621
 11092 329c 2F       		.byte	0x2f
 11093 329d 7A       		.byte	0x7a
 11094 329e 03       		.byte	0x3
 11095 329f 6A320000 		.4byte	0x326a
 11096 32a3 04       		.uleb128 0x4
 11097 32a4 E31F0000 		.4byte	.LASF622
 11098 32a8 2F       		.byte	0x2f
 11099 32a9 7F       		.byte	0x7f
 11100 32aa 1F       		.byte	0x1f
 11101 32ab AF320000 		.4byte	0x32af
 11102 32af 10       		.uleb128 0x10
 11103 32b0 97040000 		.4byte	.LASF623
 11104 32b4 30       		.byte	0x30
 11105 32b5 2F       		.byte	0x2f
 11106 32b6 C0       		.byte	0xc0
 11107 32b7 08       		.byte	0x8
 11108 32b8 30330000 		.4byte	0x3330
 11109 32bc 0C       		.uleb128 0xc
 11110 32bd EB140000 		.4byte	.LASF153
 11111 32c1 2F       		.byte	0x2f
 11112 32c2 C4       		.byte	0xc4
 11113 32c3 1D       		.byte	0x1d
 11114 32c4 97320000 		.4byte	0x3297
 11115 32c8 00       		.byte	0
 11116 32c9 0C       		.uleb128 0xc
 11117 32ca 501A0000 		.4byte	.LASF493
 11118 32ce 2F       		.byte	0x2f
 11119 32cf C8       		.byte	0xc8
 11120 32d0 1E       		.byte	0x1e
 11121 32d1 06340000 		.4byte	0x3406
 11122 32d5 04       		.byte	0x4
 11123 32d6 0C       		.uleb128 0xc
 11124 32d7 EC060000 		.4byte	.LASF497
 11125 32db 2F       		.byte	0x2f
 11126 32dc CD       		.byte	0xcd
 11127 32dd 1D       		.byte	0x1d
 11128 32de 360B0000 		.4byte	0xb36
 11129 32e2 08       		.byte	0x8
 11130 32e3 0C       		.uleb128 0xc
 11131 32e4 A40B0000 		.4byte	.LASF498
 11132 32e8 2F       		.byte	0x2f
 11133 32e9 D3       		.byte	0xd3
 11134 32ea 1D       		.byte	0x1d
 11135 32eb A41F0000 		.4byte	0x1fa4
 11136 32ef 0C       		.byte	0xc
 11137 32f0 11       		.uleb128 0x11
 11138 32f1 73706900 		.ascii	"spi\000"
 11139 32f5 2F       		.byte	0x2f
 11140 32f6 D9       		.byte	0xd9
 11141 32f7 03       		.byte	0x3
 11142 32f8 0C340000 		.4byte	0x340c
 11143 32fc 1C       		.byte	0x1c
 11144 32fd 11       		.uleb128 0x11
 11145 32fe 727800   		.ascii	"rx\000"
ARM GAS  /tmp/ccfraM8n.s 			page 197


 11146 3301 2F       		.byte	0x2f
 11147 3302 D9       		.byte	0xd9
 11148 3303 03       		.byte	0x3
 11149 3304 DA330000 		.4byte	0x33da
 11150 3308 20       		.byte	0x20
 11151 3309 11       		.uleb128 0x11
 11152 330a 747800   		.ascii	"tx\000"
 11153 330d 2F       		.byte	0x2f
 11154 330e D9       		.byte	0xd9
 11155 330f 03       		.byte	0x3
 11156 3310 F0330000 		.4byte	0x33f0
 11157 3314 24       		.byte	0x24
 11158 3315 0C       		.uleb128 0xc
 11159 3316 39080000 		.4byte	.LASF549
 11160 331a 2F       		.byte	0x2f
 11161 331b D9       		.byte	0xd9
 11162 331c 03       		.byte	0x3
 11163 331d 94090000 		.4byte	0x994
 11164 3321 28       		.byte	0x28
 11165 3322 0C       		.uleb128 0xc
 11166 3323 7C080000 		.4byte	.LASF550
 11167 3327 2F       		.byte	0x2f
 11168 3328 D9       		.byte	0xd9
 11169 3329 03       		.byte	0x3
 11170 332a 94090000 		.4byte	0x994
 11171 332e 2C       		.byte	0x2c
 11172 332f 00       		.byte	0
 11173 3330 04       		.uleb128 0x4
 11174 3331 851E0000 		.4byte	.LASF624
 11175 3335 2F       		.byte	0x2f
 11176 3336 83       		.byte	0x83
 11177 3337 1F       		.byte	0x1f
 11178 3338 41330000 		.4byte	0x3341
 11179 333c 15       		.uleb128 0x15
 11180 333d 30330000 		.4byte	0x3330
 11181 3341 10       		.uleb128 0x10
 11182 3342 90220000 		.4byte	.LASF625
 11183 3346 18       		.byte	0x18
 11184 3347 2F       		.byte	0x2f
 11185 3348 94       		.byte	0x94
 11186 3349 08       		.byte	0x8
 11187 334a 9D330000 		.4byte	0x339d
 11188 334e 0C       		.uleb128 0xc
 11189 334f DA1F0000 		.4byte	.LASF509
 11190 3353 2F       		.byte	0x2f
 11191 3354 99       		.byte	0x99
 11192 3355 1D       		.byte	0x1d
 11193 3356 3E200000 		.4byte	0x203e
 11194 335a 00       		.byte	0
 11195 335b 0C       		.uleb128 0xc
 11196 335c C5080000 		.4byte	.LASF511
 11197 3360 2F       		.byte	0x2f
 11198 3361 9E       		.byte	0x9e
 11199 3362 1D       		.byte	0x1d
 11200 3363 9D330000 		.4byte	0x339d
 11201 3367 04       		.byte	0x4
 11202 3368 0C       		.uleb128 0xc
ARM GAS  /tmp/ccfraM8n.s 			page 198


 11203 3369 7F210000 		.4byte	.LASF626
 11204 336d 2F       		.byte	0x2f
 11205 336e B3       		.byte	0xb3
 11206 336f 1D       		.byte	0x1d
 11207 3370 4A280000 		.4byte	0x284a
 11208 3374 08       		.byte	0x8
 11209 3375 0C       		.uleb128 0xc
 11210 3376 76080000 		.4byte	.LASF627
 11211 337a 2F       		.byte	0x2f
 11212 337b B7       		.byte	0xb7
 11213 337c 1D       		.byte	0x1d
 11214 337d B6090000 		.4byte	0x9b6
 11215 3381 0C       		.byte	0xc
 11216 3382 0C       		.uleb128 0xc
 11217 3383 B5140000 		.4byte	.LASF628
 11218 3387 2F       		.byte	0x2f
 11219 3388 BA       		.byte	0xba
 11220 3389 03       		.byte	0x3
 11221 338a 94090000 		.4byte	0x994
 11222 338e 10       		.byte	0x10
 11223 338f 0C       		.uleb128 0xc
 11224 3390 E4160000 		.4byte	.LASF629
 11225 3394 2F       		.byte	0x2f
 11226 3395 BA       		.byte	0xba
 11227 3396 03       		.byte	0x3
 11228 3397 94090000 		.4byte	0x994
 11229 339b 14       		.byte	0x14
 11230 339c 00       		.byte	0
 11231 339d 04       		.uleb128 0x4
 11232 339e B0010000 		.4byte	.LASF630
 11233 33a2 2F       		.byte	0x2f
 11234 33a3 8B       		.byte	0x8b
 11235 33a4 10       		.byte	0x10
 11236 33a5 A9330000 		.4byte	0x33a9
 11237 33a9 0E       		.uleb128 0xe
 11238 33aa 04       		.byte	0x4
 11239 33ab AF330000 		.4byte	0x33af
 11240 33af 1B       		.uleb128 0x1b
 11241 33b0 BA330000 		.4byte	0x33ba
 11242 33b4 1A       		.uleb128 0x1a
 11243 33b5 BA330000 		.4byte	0x33ba
 11244 33b9 00       		.byte	0
 11245 33ba 0E       		.uleb128 0xe
 11246 33bb 04       		.byte	0x4
 11247 33bc A3320000 		.4byte	0x32a3
 11248 33c0 1C       		.uleb128 0x1c
 11249 33c1 AC1D0000 		.4byte	.LASF631
 11250 33c5 30       		.byte	0x30
 11251 33c6 1C02     		.2byte	0x21c
 11252 33c8 12       		.byte	0x12
 11253 33c9 A3320000 		.4byte	0x32a3
 11254 33cd 1C       		.uleb128 0x1c
 11255 33ce B21D0000 		.4byte	.LASF632
 11256 33d2 30       		.byte	0x30
 11257 33d3 2402     		.2byte	0x224
 11258 33d5 12       		.byte	0x12
 11259 33d6 A3320000 		.4byte	0x32a3
ARM GAS  /tmp/ccfraM8n.s 			page 199


 11260 33da 07       		.uleb128 0x7
 11261 33db 04       		.byte	0x4
 11262 33dc 2F       		.byte	0x2f
 11263 33dd D9       		.byte	0xd9
 11264 33de 03       		.byte	0x3
 11265 33df F0330000 		.4byte	0x33f0
 11266 33e3 23       		.uleb128 0x23
 11267 33e4 646D6100 		.ascii	"dma\000"
 11268 33e8 2F       		.byte	0x2f
 11269 33e9 D9       		.byte	0xd9
 11270 33ea 03       		.byte	0x3
 11271 33eb D92A0000 		.4byte	0x2ad9
 11272 33ef 00       		.byte	0
 11273 33f0 07       		.uleb128 0x7
 11274 33f1 04       		.byte	0x4
 11275 33f2 2F       		.byte	0x2f
 11276 33f3 D9       		.byte	0xd9
 11277 33f4 03       		.byte	0x3
 11278 33f5 06340000 		.4byte	0x3406
 11279 33f9 23       		.uleb128 0x23
 11280 33fa 646D6100 		.ascii	"dma\000"
 11281 33fe 2F       		.byte	0x2f
 11282 33ff D9       		.byte	0xd9
 11283 3400 03       		.byte	0x3
 11284 3401 D92A0000 		.4byte	0x2ad9
 11285 3405 00       		.byte	0
 11286 3406 0E       		.uleb128 0xe
 11287 3407 04       		.byte	0x4
 11288 3408 3C330000 		.4byte	0x333c
 11289 340c 0E       		.uleb128 0xe
 11290 340d 04       		.byte	0x4
 11291 340e 33190000 		.4byte	0x1933
 11292 3412 29       		.uleb128 0x29
 11293 3413 07       		.byte	0x7
 11294 3414 01       		.byte	0x1
 11295 3415 72000000 		.4byte	0x72
 11296 3419 31       		.byte	0x31
 11297 341a 31       		.byte	0x31
 11298 341b 0E       		.byte	0xe
 11299 341c 39340000 		.4byte	0x3439
 11300 3420 2A       		.uleb128 0x2a
 11301 3421 10080000 		.4byte	.LASF633
 11302 3425 00       		.byte	0
 11303 3426 2A       		.uleb128 0x2a
 11304 3427 6F050000 		.4byte	.LASF634
 11305 342b 01       		.byte	0x1
 11306 342c 2A       		.uleb128 0x2a
 11307 342d 60030000 		.4byte	.LASF635
 11308 3431 02       		.byte	0x2
 11309 3432 2A       		.uleb128 0x2a
 11310 3433 AE0E0000 		.4byte	.LASF636
 11311 3437 03       		.byte	0x3
 11312 3438 00       		.byte	0
 11313 3439 04       		.uleb128 0x4
 11314 343a 3E170000 		.4byte	.LASF637
 11315 343e 31       		.byte	0x31
 11316 343f 36       		.byte	0x36
ARM GAS  /tmp/ccfraM8n.s 			page 200


 11317 3440 03       		.byte	0x3
 11318 3441 12340000 		.4byte	0x3412
 11319 3445 04       		.uleb128 0x4
 11320 3446 C3010000 		.4byte	.LASF638
 11321 344a 31       		.byte	0x31
 11322 344b 3B       		.byte	0x3b
 11323 344c 20       		.byte	0x20
 11324 344d 51340000 		.4byte	0x3451
 11325 3451 10       		.uleb128 0x10
 11326 3452 AC000000 		.4byte	.LASF639
 11327 3456 0C       		.byte	0xc
 11328 3457 31       		.byte	0x31
 11329 3458 52       		.byte	0x52
 11330 3459 08       		.byte	0x8
 11331 345a 86340000 		.4byte	0x3486
 11332 345e 0C       		.uleb128 0xc
 11333 345f EB140000 		.4byte	.LASF153
 11334 3463 31       		.byte	0x31
 11335 3464 56       		.byte	0x56
 11336 3465 1E       		.byte	0x1e
 11337 3466 39340000 		.4byte	0x3439
 11338 346a 00       		.byte	0
 11339 346b 0C       		.uleb128 0xc
 11340 346c 501A0000 		.4byte	.LASF493
 11341 3470 31       		.byte	0x31
 11342 3471 5A       		.byte	0x5a
 11343 3472 1F       		.byte	0x1f
 11344 3473 BD340000 		.4byte	0x34bd
 11345 3477 04       		.byte	0x4
 11346 3478 11       		.uleb128 0x11
 11347 3479 726E6700 		.ascii	"rng\000"
 11348 347d 31       		.byte	0x31
 11349 347e 5F       		.byte	0x5f
 11350 347f 03       		.byte	0x3
 11351 3480 C3340000 		.4byte	0x34c3
 11352 3484 08       		.byte	0x8
 11353 3485 00       		.byte	0
 11354 3486 04       		.uleb128 0x4
 11355 3487 CE010000 		.4byte	.LASF640
 11356 348b 31       		.byte	0x31
 11357 348c 41       		.byte	0x41
 11358 348d 20       		.byte	0x20
 11359 348e 97340000 		.4byte	0x3497
 11360 3492 15       		.uleb128 0x15
 11361 3493 86340000 		.4byte	0x3486
 11362 3497 10       		.uleb128 0x10
 11363 3498 D1000000 		.4byte	.LASF641
 11364 349c 04       		.byte	0x4
 11365 349d 31       		.byte	0x31
 11366 349e 4A       		.byte	0x4a
 11367 349f 08       		.byte	0x8
 11368 34a0 B1340000 		.4byte	0x34b1
 11369 34a4 11       		.uleb128 0x11
 11370 34a5 637200   		.ascii	"cr\000"
 11371 34a8 31       		.byte	0x31
 11372 34a9 4C       		.byte	0x4c
 11373 34aa 03       		.byte	0x3
ARM GAS  /tmp/ccfraM8n.s 			page 201


 11374 34ab 94090000 		.4byte	0x994
 11375 34af 00       		.byte	0
 11376 34b0 00       		.byte	0
 11377 34b1 20       		.uleb128 0x20
 11378 34b2 6C170000 		.4byte	.LASF642
 11379 34b6 32       		.byte	0x32
 11380 34b7 7B       		.byte	0x7b
 11381 34b8 13       		.byte	0x13
 11382 34b9 45340000 		.4byte	0x3445
 11383 34bd 0E       		.uleb128 0xe
 11384 34be 04       		.byte	0x4
 11385 34bf 92340000 		.4byte	0x3492
 11386 34c3 0E       		.uleb128 0xe
 11387 34c4 04       		.byte	0x4
 11388 34c5 321A0000 		.4byte	0x1a32
 11389 34c9 06       		.uleb128 0x6
 11390 34ca 70100000 		.4byte	.LASF643
 11391 34ce 33       		.byte	0x33
 11392 34cf 0301     		.2byte	0x103
 11393 34d1 1A       		.byte	0x1a
 11394 34d2 D6340000 		.4byte	0x34d6
 11395 34d6 16       		.uleb128 0x16
 11396 34d7 70100000 		.4byte	.LASF643
 11397 34db 9C       		.byte	0x9c
 11398 34dc 34       		.byte	0x34
 11399 34dd A501     		.2byte	0x1a5
 11400 34df 08       		.byte	0x8
 11401 34e0 EF350000 		.4byte	0x35ef
 11402 34e4 17       		.uleb128 0x17
 11403 34e5 EB140000 		.4byte	.LASF153
 11404 34e9 34       		.byte	0x34
 11405 34ea A901     		.2byte	0x1a9
 11406 34ec 21       		.byte	0x21
 11407 34ed 30360000 		.4byte	0x3630
 11408 34f1 00       		.byte	0
 11409 34f2 17       		.uleb128 0x17
 11410 34f3 501A0000 		.4byte	.LASF493
 11411 34f7 34       		.byte	0x34
 11412 34f8 AD01     		.2byte	0x1ad
 11413 34fa 22       		.byte	0x22
 11414 34fb 6A3F0000 		.4byte	0x3f6a
 11415 34ff 04       		.byte	0x4
 11416 3500 17       		.uleb128 0x17
 11417 3501 B91E0000 		.4byte	.LASF644
 11418 3505 34       		.byte	0x34
 11419 3506 B101     		.2byte	0x1b1
 11420 3508 21       		.byte	0x21
 11421 3509 77090000 		.4byte	0x977
 11422 350d 08       		.byte	0x8
 11423 350e 17       		.uleb128 0x17
 11424 350f A2210000 		.4byte	.LASF645
 11425 3513 34       		.byte	0x34
 11426 3514 B501     		.2byte	0x1b5
 11427 3516 21       		.byte	0x21
 11428 3517 77090000 		.4byte	0x977
 11429 351b 0A       		.byte	0xa
 11430 351c 18       		.uleb128 0x18
ARM GAS  /tmp/ccfraM8n.s 			page 202


 11431 351d 65706300 		.ascii	"epc\000"
 11432 3521 34       		.byte	0x34
 11433 3522 B901     		.2byte	0x1b9
 11434 3524 22       		.byte	0x22
 11435 3525 703F0000 		.4byte	0x3f70
 11436 3529 0C       		.byte	0xc
 11437 352a 17       		.uleb128 0x17
 11438 352b C7040000 		.4byte	.LASF646
 11439 352f 34       		.byte	0x34
 11440 3530 C001     		.2byte	0x1c0
 11441 3532 22       		.byte	0x22
 11442 3533 863F0000 		.4byte	0x3f86
 11443 3537 30       		.byte	0x30
 11444 3538 17       		.uleb128 0x17
 11445 3539 1F0B0000 		.4byte	.LASF647
 11446 353d 34       		.byte	0x34
 11447 353e C701     		.2byte	0x1c7
 11448 3540 22       		.byte	0x22
 11449 3541 863F0000 		.4byte	0x3f86
 11450 3545 50       		.byte	0x50
 11451 3546 17       		.uleb128 0x17
 11452 3547 20090000 		.4byte	.LASF648
 11453 354b 34       		.byte	0x34
 11454 354c CB01     		.2byte	0x1cb
 11455 354e 21       		.byte	0x21
 11456 354f A6360000 		.4byte	0x36a6
 11457 3553 70       		.byte	0x70
 11458 3554 17       		.uleb128 0x17
 11459 3555 BA190000 		.4byte	.LASF649
 11460 3559 34       		.byte	0x34
 11461 355a CF01     		.2byte	0x1cf
 11462 355c 22       		.byte	0x22
 11463 355d 8F200000 		.4byte	0x208f
 11464 3561 74       		.byte	0x74
 11465 3562 17       		.uleb128 0x17
 11466 3563 76160000 		.4byte	.LASF650
 11467 3567 34       		.byte	0x34
 11468 3568 D301     		.2byte	0x1d3
 11469 356a 21       		.byte	0x21
 11470 356b 33000000 		.4byte	0x33
 11471 356f 78       		.byte	0x78
 11472 3570 17       		.uleb128 0x17
 11473 3571 27050000 		.4byte	.LASF651
 11474 3575 34       		.byte	0x34
 11475 3576 D701     		.2byte	0x1d7
 11476 3578 21       		.byte	0x21
 11477 3579 33370000 		.4byte	0x3733
 11478 357d 7C       		.byte	0x7c
 11479 357e 17       		.uleb128 0x17
 11480 357f F3060000 		.4byte	.LASF652
 11481 3583 34       		.byte	0x34
 11482 3584 DB01     		.2byte	0x1db
 11483 3586 21       		.byte	0x21
 11484 3587 963F0000 		.4byte	0x3f96
 11485 358b 80       		.byte	0x80
 11486 358c 17       		.uleb128 0x17
 11487 358d 44140000 		.4byte	.LASF653
ARM GAS  /tmp/ccfraM8n.s 			page 203


 11488 3591 34       		.byte	0x34
 11489 3592 DF01     		.2byte	0x1df
 11490 3594 21       		.byte	0x21
 11491 3595 77090000 		.4byte	0x977
 11492 3599 88       		.byte	0x88
 11493 359a 17       		.uleb128 0x17
 11494 359b 8E140000 		.4byte	.LASF654
 11495 359f 34       		.byte	0x34
 11496 35a0 E301     		.2byte	0x1e3
 11497 35a2 21       		.byte	0x21
 11498 35a3 66090000 		.4byte	0x966
 11499 35a7 8A       		.byte	0x8a
 11500 35a8 17       		.uleb128 0x17
 11501 35a9 29190000 		.4byte	.LASF655
 11502 35ad 34       		.byte	0x34
 11503 35ae E701     		.2byte	0x1e7
 11504 35b0 21       		.byte	0x21
 11505 35b1 66090000 		.4byte	0x966
 11506 35b5 8B       		.byte	0x8b
 11507 35b6 17       		.uleb128 0x17
 11508 35b7 8A060000 		.4byte	.LASF656
 11509 35bb 34       		.byte	0x34
 11510 35bc EB01     		.2byte	0x1eb
 11511 35be 21       		.byte	0x21
 11512 35bf 30360000 		.4byte	0x3630
 11513 35c3 8C       		.byte	0x8c
 11514 35c4 18       		.uleb128 0x18
 11515 35c5 6F746700 		.ascii	"otg\000"
 11516 35c9 34       		.byte	0x34
 11517 35ca F301     		.2byte	0x1f3
 11518 35cc 22       		.byte	0x22
 11519 35cd A63F0000 		.4byte	0x3fa6
 11520 35d1 90       		.byte	0x90
 11521 35d2 17       		.uleb128 0x17
 11522 35d3 E80C0000 		.4byte	.LASF657
 11523 35d7 34       		.byte	0x34
 11524 35d8 F701     		.2byte	0x1f7
 11525 35da 22       		.byte	0x22
 11526 35db AC3F0000 		.4byte	0x3fac
 11527 35df 94       		.byte	0x94
 11528 35e0 17       		.uleb128 0x17
 11529 35e1 581D0000 		.4byte	.LASF658
 11530 35e5 34       		.byte	0x34
 11531 35e6 FB01     		.2byte	0x1fb
 11532 35e8 21       		.byte	0x21
 11533 35e9 94090000 		.4byte	0x994
 11534 35ed 98       		.byte	0x98
 11535 35ee 00       		.byte	0
 11536 35ef 06       		.uleb128 0x6
 11537 35f0 7E220000 		.4byte	.LASF659
 11538 35f4 33       		.byte	0x33
 11539 35f5 0801     		.2byte	0x108
 11540 35f7 11       		.byte	0x11
 11541 35f8 66090000 		.4byte	0x966
 11542 35fc 2B       		.uleb128 0x2b
 11543 35fd 07       		.byte	0x7
 11544 35fe 01       		.byte	0x1
ARM GAS  /tmp/ccfraM8n.s 			page 204


 11545 35ff 72000000 		.4byte	0x72
 11546 3603 33       		.byte	0x33
 11547 3604 0D01     		.2byte	0x10d
 11548 3606 0E       		.byte	0xe
 11549 3607 30360000 		.4byte	0x3630
 11550 360b 2A       		.uleb128 0x2a
 11551 360c 24230000 		.4byte	.LASF660
 11552 3610 00       		.byte	0
 11553 3611 2A       		.uleb128 0x2a
 11554 3612 01080000 		.4byte	.LASF661
 11555 3616 01       		.byte	0x1
 11556 3617 2A       		.uleb128 0x2a
 11557 3618 4B120000 		.4byte	.LASF662
 11558 361c 02       		.byte	0x2
 11559 361d 2A       		.uleb128 0x2a
 11560 361e FB170000 		.4byte	.LASF663
 11561 3622 03       		.byte	0x3
 11562 3623 2A       		.uleb128 0x2a
 11563 3624 F6070000 		.4byte	.LASF664
 11564 3628 04       		.byte	0x4
 11565 3629 2A       		.uleb128 0x2a
 11566 362a C41F0000 		.4byte	.LASF665
 11567 362e 05       		.byte	0x5
 11568 362f 00       		.byte	0
 11569 3630 06       		.uleb128 0x6
 11570 3631 48240000 		.4byte	.LASF666
 11571 3635 33       		.byte	0x33
 11572 3636 1401     		.2byte	0x114
 11573 3638 03       		.byte	0x3
 11574 3639 FC350000 		.4byte	0x35fc
 11575 363d 2B       		.uleb128 0x2b
 11576 363e 07       		.byte	0x7
 11577 363f 01       		.byte	0x1
 11578 3640 72000000 		.4byte	0x72
 11579 3644 33       		.byte	0x33
 11580 3645 1901     		.2byte	0x119
 11581 3647 0E       		.byte	0xe
 11582 3648 5F360000 		.4byte	0x365f
 11583 364c 2A       		.uleb128 0x2a
 11584 364d 531C0000 		.4byte	.LASF667
 11585 3651 00       		.byte	0
 11586 3652 2A       		.uleb128 0x2a
 11587 3653 CE0C0000 		.4byte	.LASF668
 11588 3657 01       		.byte	0x1
 11589 3658 2A       		.uleb128 0x2a
 11590 3659 56040000 		.4byte	.LASF669
 11591 365d 02       		.byte	0x2
 11592 365e 00       		.byte	0
 11593 365f 06       		.uleb128 0x6
 11594 3660 83030000 		.4byte	.LASF670
 11595 3664 33       		.byte	0x33
 11596 3665 1D01     		.2byte	0x11d
 11597 3667 03       		.byte	0x3
 11598 3668 3D360000 		.4byte	0x363d
 11599 366c 2B       		.uleb128 0x2b
 11600 366d 07       		.byte	0x7
 11601 366e 01       		.byte	0x1
ARM GAS  /tmp/ccfraM8n.s 			page 205


 11602 366f 72000000 		.4byte	0x72
 11603 3673 33       		.byte	0x33
 11604 3674 2201     		.2byte	0x122
 11605 3676 0E       		.byte	0xe
 11606 3677 A6360000 		.4byte	0x36a6
 11607 367b 2A       		.uleb128 0x2a
 11608 367c EF190000 		.4byte	.LASF671
 11609 3680 00       		.byte	0
 11610 3681 2A       		.uleb128 0x2a
 11611 3682 B9200000 		.4byte	.LASF672
 11612 3686 09       		.byte	0x9
 11613 3687 2A       		.uleb128 0x2a
 11614 3688 B2020000 		.4byte	.LASF673
 11615 368c 0A       		.byte	0xa
 11616 368d 2A       		.uleb128 0x2a
 11617 368e B70C0000 		.4byte	.LASF674
 11618 3692 0B       		.byte	0xb
 11619 3693 2A       		.uleb128 0x2a
 11620 3694 37190000 		.4byte	.LASF675
 11621 3698 14       		.byte	0x14
 11622 3699 2A       		.uleb128 0x2a
 11623 369a 550E0000 		.4byte	.LASF676
 11624 369e 15       		.byte	0x15
 11625 369f 2A       		.uleb128 0x2a
 11626 36a0 470E0000 		.4byte	.LASF677
 11627 36a4 06       		.byte	0x6
 11628 36a5 00       		.byte	0
 11629 36a6 06       		.uleb128 0x6
 11630 36a7 E20A0000 		.4byte	.LASF678
 11631 36ab 33       		.byte	0x33
 11632 36ac 2A01     		.2byte	0x12a
 11633 36ae 03       		.byte	0x3
 11634 36af 6C360000 		.4byte	0x366c
 11635 36b3 2B       		.uleb128 0x2b
 11636 36b4 07       		.byte	0x7
 11637 36b5 01       		.byte	0x1
 11638 36b6 72000000 		.4byte	0x72
 11639 36ba 33       		.byte	0x33
 11640 36bb 2F01     		.2byte	0x12f
 11641 36bd 0E       		.byte	0xe
 11642 36be ED360000 		.4byte	0x36ed
 11643 36c2 2A       		.uleb128 0x2a
 11644 36c3 971B0000 		.4byte	.LASF679
 11645 36c7 00       		.byte	0
 11646 36c8 2A       		.uleb128 0x2a
 11647 36c9 43180000 		.4byte	.LASF680
 11648 36cd 01       		.byte	0x1
 11649 36ce 2A       		.uleb128 0x2a
 11650 36cf E2120000 		.4byte	.LASF681
 11651 36d3 02       		.byte	0x2
 11652 36d4 2A       		.uleb128 0x2a
 11653 36d5 F8000000 		.4byte	.LASF682
 11654 36d9 03       		.byte	0x3
 11655 36da 2A       		.uleb128 0x2a
 11656 36db 7F130000 		.4byte	.LASF683
 11657 36df 04       		.byte	0x4
 11658 36e0 2A       		.uleb128 0x2a
ARM GAS  /tmp/ccfraM8n.s 			page 206


 11659 36e1 0C210000 		.4byte	.LASF684
 11660 36e5 05       		.byte	0x5
 11661 36e6 2A       		.uleb128 0x2a
 11662 36e7 8B120000 		.4byte	.LASF685
 11663 36eb 06       		.byte	0x6
 11664 36ec 00       		.byte	0
 11665 36ed 06       		.uleb128 0x6
 11666 36ee 6D180000 		.4byte	.LASF686
 11667 36f2 33       		.byte	0x33
 11668 36f3 3701     		.2byte	0x137
 11669 36f5 03       		.byte	0x3
 11670 36f6 B3360000 		.4byte	0x36b3
 11671 36fa 21       		.uleb128 0x21
 11672 36fb 08       		.byte	0x8
 11673 36fc 33       		.byte	0x33
 11674 36fd 3C01     		.2byte	0x13c
 11675 36ff 09       		.byte	0x9
 11676 3700 21370000 		.4byte	0x3721
 11677 3704 17       		.uleb128 0x17
 11678 3705 E4230000 		.4byte	.LASF687
 11679 3709 33       		.byte	0x33
 11680 370a 4001     		.2byte	0x140
 11681 370c 21       		.byte	0x21
 11682 370d 33000000 		.4byte	0x33
 11683 3711 00       		.byte	0
 11684 3712 17       		.uleb128 0x17
 11685 3713 FB040000 		.4byte	.LASF688
 11686 3717 33       		.byte	0x33
 11687 3718 4401     		.2byte	0x144
 11688 371a 22       		.byte	0x22
 11689 371b B6240000 		.4byte	0x24b6
 11690 371f 04       		.byte	0x4
 11691 3720 00       		.byte	0
 11692 3721 06       		.uleb128 0x6
 11693 3722 8F180000 		.4byte	.LASF689
 11694 3726 33       		.byte	0x33
 11695 3727 4501     		.2byte	0x145
 11696 3729 03       		.byte	0x3
 11697 372a FA360000 		.4byte	0x36fa
 11698 372e 15       		.uleb128 0x15
 11699 372f 21370000 		.4byte	0x3721
 11700 3733 06       		.uleb128 0x6
 11701 3734 80230000 		.4byte	.LASF690
 11702 3738 33       		.byte	0x33
 11703 3739 4D01     		.2byte	0x14d
 11704 373b 10       		.byte	0x10
 11705 373c 40370000 		.4byte	0x3740
 11706 3740 0E       		.uleb128 0xe
 11707 3741 04       		.byte	0x4
 11708 3742 46370000 		.4byte	0x3746
 11709 3746 1B       		.uleb128 0x1b
 11710 3747 51370000 		.4byte	0x3751
 11711 374b 1A       		.uleb128 0x1a
 11712 374c 51370000 		.4byte	0x3751
 11713 3750 00       		.byte	0
 11714 3751 0E       		.uleb128 0xe
 11715 3752 04       		.byte	0x4
ARM GAS  /tmp/ccfraM8n.s 			page 207


 11716 3753 C9340000 		.4byte	0x34c9
 11717 3757 06       		.uleb128 0x6
 11718 3758 311F0000 		.4byte	.LASF691
 11719 375c 33       		.byte	0x33
 11720 375d 5601     		.2byte	0x156
 11721 375f 10       		.byte	0x10
 11722 3760 64370000 		.4byte	0x3764
 11723 3764 0E       		.uleb128 0xe
 11724 3765 04       		.byte	0x4
 11725 3766 6A370000 		.4byte	0x376a
 11726 376a 1B       		.uleb128 0x1b
 11727 376b 7A370000 		.4byte	0x377a
 11728 376f 1A       		.uleb128 0x1a
 11729 3770 51370000 		.4byte	0x3751
 11730 3774 1A       		.uleb128 0x1a
 11731 3775 EF350000 		.4byte	0x35ef
 11732 3779 00       		.byte	0
 11733 377a 06       		.uleb128 0x6
 11734 377b 390A0000 		.4byte	.LASF692
 11735 377f 33       		.byte	0x33
 11736 3780 5F01     		.2byte	0x15f
 11737 3782 10       		.byte	0x10
 11738 3783 87370000 		.4byte	0x3787
 11739 3787 0E       		.uleb128 0xe
 11740 3788 04       		.byte	0x4
 11741 3789 8D370000 		.4byte	0x378d
 11742 378d 1B       		.uleb128 0x1b
 11743 378e 9D370000 		.4byte	0x379d
 11744 3792 1A       		.uleb128 0x1a
 11745 3793 51370000 		.4byte	0x3751
 11746 3797 1A       		.uleb128 0x1a
 11747 3798 ED360000 		.4byte	0x36ed
 11748 379c 00       		.byte	0
 11749 379d 06       		.uleb128 0x6
 11750 379e 5B060000 		.4byte	.LASF693
 11751 37a2 33       		.byte	0x33
 11752 37a3 6B01     		.2byte	0x16b
 11753 37a5 10       		.byte	0x10
 11754 37a6 AA370000 		.4byte	0x37aa
 11755 37aa 0E       		.uleb128 0xe
 11756 37ab 04       		.byte	0x4
 11757 37ac B0370000 		.4byte	0x37b0
 11758 37b0 19       		.uleb128 0x19
 11759 37b1 3E200000 		.4byte	0x203e
 11760 37b5 BF370000 		.4byte	0x37bf
 11761 37b9 1A       		.uleb128 0x1a
 11762 37ba 51370000 		.4byte	0x3751
 11763 37be 00       		.byte	0
 11764 37bf 06       		.uleb128 0x6
 11765 37c0 BB0E0000 		.4byte	.LASF694
 11766 37c4 33       		.byte	0x33
 11767 37c5 7001     		.2byte	0x170
 11768 37c7 21       		.byte	0x21
 11769 37c8 CC370000 		.4byte	0x37cc
 11770 37cc 0E       		.uleb128 0xe
 11771 37cd 04       		.byte	0x4
 11772 37ce D2370000 		.4byte	0x37d2
ARM GAS  /tmp/ccfraM8n.s 			page 208


 11773 37d2 19       		.uleb128 0x19
 11774 37d3 F0370000 		.4byte	0x37f0
 11775 37d7 F0370000 		.4byte	0x37f0
 11776 37db 1A       		.uleb128 0x1a
 11777 37dc 51370000 		.4byte	0x3751
 11778 37e0 1A       		.uleb128 0x1a
 11779 37e1 66090000 		.4byte	0x966
 11780 37e5 1A       		.uleb128 0x1a
 11781 37e6 66090000 		.4byte	0x966
 11782 37ea 1A       		.uleb128 0x1a
 11783 37eb 77090000 		.4byte	0x977
 11784 37ef 00       		.byte	0
 11785 37f0 0E       		.uleb128 0xe
 11786 37f1 04       		.byte	0x4
 11787 37f2 2E370000 		.4byte	0x372e
 11788 37f6 0B       		.uleb128 0xb
 11789 37f7 20       		.byte	0x20
 11790 37f8 35       		.byte	0x35
 11791 37f9 29       		.byte	0x29
 11792 37fa 09       		.byte	0x9
 11793 37fb 68380000 		.4byte	0x3868
 11794 37ff 0C       		.uleb128 0xc
 11795 3800 B1030000 		.4byte	.LASF695
 11796 3804 35       		.byte	0x35
 11797 3805 2A       		.byte	0x2a
 11798 3806 15       		.byte	0x15
 11799 3807 A0090000 		.4byte	0x9a0
 11800 380b 00       		.byte	0
 11801 380c 0C       		.uleb128 0xc
 11802 380d 1F0C0000 		.4byte	.LASF696
 11803 3811 35       		.byte	0x35
 11804 3812 2C       		.byte	0x2c
 11805 3813 15       		.byte	0x15
 11806 3814 A0090000 		.4byte	0x9a0
 11807 3818 04       		.byte	0x4
 11808 3819 0C       		.uleb128 0xc
 11809 381a 15030000 		.4byte	.LASF697
 11810 381e 35       		.byte	0x35
 11811 381f 2D       		.byte	0x2d
 11812 3820 15       		.byte	0x15
 11813 3821 A0090000 		.4byte	0x9a0
 11814 3825 08       		.byte	0x8
 11815 3826 0C       		.uleb128 0xc
 11816 3827 411A0000 		.4byte	.LASF698
 11817 382b 35       		.byte	0x35
 11818 382c 2E       		.byte	0x2e
 11819 382d 15       		.byte	0x15
 11820 382e A0090000 		.4byte	0x9a0
 11821 3832 0C       		.byte	0xc
 11822 3833 0C       		.uleb128 0xc
 11823 3834 25130000 		.4byte	.LASF699
 11824 3838 35       		.byte	0x35
 11825 3839 30       		.byte	0x30
 11826 383a 15       		.byte	0x15
 11827 383b A0090000 		.4byte	0x9a0
 11828 383f 10       		.byte	0x10
 11829 3840 0C       		.uleb128 0xc
ARM GAS  /tmp/ccfraM8n.s 			page 209


 11830 3841 6B030000 		.4byte	.LASF700
 11831 3845 35       		.byte	0x35
 11832 3846 32       		.byte	0x32
 11833 3847 15       		.byte	0x15
 11834 3848 A0090000 		.4byte	0x9a0
 11835 384c 14       		.byte	0x14
 11836 384d 0C       		.uleb128 0xc
 11837 384e 710C0000 		.4byte	.LASF701
 11838 3852 35       		.byte	0x35
 11839 3853 33       		.byte	0x33
 11840 3854 15       		.byte	0x15
 11841 3855 A0090000 		.4byte	0x9a0
 11842 3859 18       		.byte	0x18
 11843 385a 0C       		.uleb128 0xc
 11844 385b 34040000 		.4byte	.LASF702
 11845 385f 35       		.byte	0x35
 11846 3860 34       		.byte	0x34
 11847 3861 15       		.byte	0x15
 11848 3862 A0090000 		.4byte	0x9a0
 11849 3866 1C       		.byte	0x1c
 11850 3867 00       		.byte	0
 11851 3868 04       		.uleb128 0x4
 11852 3869 C9190000 		.4byte	.LASF703
 11853 386d 35       		.byte	0x35
 11854 386e 35       		.byte	0x35
 11855 386f 03       		.byte	0x3
 11856 3870 F6370000 		.4byte	0x37f6
 11857 3874 0B       		.uleb128 0xb
 11858 3875 20       		.byte	0x20
 11859 3876 35       		.byte	0x35
 11860 3877 3A       		.byte	0x3a
 11861 3878 09       		.byte	0x9
 11862 3879 E6380000 		.4byte	0x38e6
 11863 387d 0C       		.uleb128 0xc
 11864 387e E00C0000 		.4byte	.LASF704
 11865 3882 35       		.byte	0x35
 11866 3883 3B       		.byte	0x3b
 11867 3884 15       		.byte	0x15
 11868 3885 A0090000 		.4byte	0x9a0
 11869 3889 00       		.byte	0
 11870 388a 0C       		.uleb128 0xc
 11871 388b 0B0C0000 		.4byte	.LASF705
 11872 388f 35       		.byte	0x35
 11873 3890 3D       		.byte	0x3d
 11874 3891 15       		.byte	0x15
 11875 3892 A0090000 		.4byte	0x9a0
 11876 3896 04       		.byte	0x4
 11877 3897 0C       		.uleb128 0xc
 11878 3898 4A1B0000 		.4byte	.LASF706
 11879 389c 35       		.byte	0x35
 11880 389d 3E       		.byte	0x3e
 11881 389e 15       		.byte	0x15
 11882 389f A0090000 		.4byte	0x9a0
 11883 38a3 08       		.byte	0x8
 11884 38a4 0C       		.uleb128 0xc
 11885 38a5 8D100000 		.4byte	.LASF707
 11886 38a9 35       		.byte	0x35
ARM GAS  /tmp/ccfraM8n.s 			page 210


 11887 38aa 40       		.byte	0x40
 11888 38ab 15       		.byte	0x15
 11889 38ac A0090000 		.4byte	0x9a0
 11890 38b0 0C       		.byte	0xc
 11891 38b1 0C       		.uleb128 0xc
 11892 38b2 CF150000 		.4byte	.LASF708
 11893 38b6 35       		.byte	0x35
 11894 38b7 41       		.byte	0x41
 11895 38b8 15       		.byte	0x15
 11896 38b9 A0090000 		.4byte	0x9a0
 11897 38bd 10       		.byte	0x10
 11898 38be 0C       		.uleb128 0xc
 11899 38bf 6B030000 		.4byte	.LASF700
 11900 38c3 35       		.byte	0x35
 11901 38c4 43       		.byte	0x43
 11902 38c5 15       		.byte	0x15
 11903 38c6 A0090000 		.4byte	0x9a0
 11904 38ca 14       		.byte	0x14
 11905 38cb 0C       		.uleb128 0xc
 11906 38cc 99190000 		.4byte	.LASF709
 11907 38d0 35       		.byte	0x35
 11908 38d1 44       		.byte	0x44
 11909 38d2 15       		.byte	0x15
 11910 38d3 A0090000 		.4byte	0x9a0
 11911 38d7 18       		.byte	0x18
 11912 38d8 0C       		.uleb128 0xc
 11913 38d9 7E0C0000 		.4byte	.LASF710
 11914 38dd 35       		.byte	0x35
 11915 38de 46       		.byte	0x46
 11916 38df 15       		.byte	0x15
 11917 38e0 A0090000 		.4byte	0x9a0
 11918 38e4 1C       		.byte	0x1c
 11919 38e5 00       		.byte	0
 11920 38e6 04       		.uleb128 0x4
 11921 38e7 1C080000 		.4byte	.LASF711
 11922 38eb 35       		.byte	0x35
 11923 38ec 47       		.byte	0x47
 11924 38ed 03       		.byte	0x3
 11925 38ee 74380000 		.4byte	0x3874
 11926 38f2 0B       		.uleb128 0xb
 11927 38f3 20       		.byte	0x20
 11928 38f4 35       		.byte	0x35
 11929 38f5 4C       		.byte	0x4c
 11930 38f6 09       		.byte	0x9
 11931 38f7 64390000 		.4byte	0x3964
 11932 38fb 0C       		.uleb128 0xc
 11933 38fc D6130000 		.4byte	.LASF712
 11934 3900 35       		.byte	0x35
 11935 3901 4D       		.byte	0x4d
 11936 3902 15       		.byte	0x15
 11937 3903 A0090000 		.4byte	0x9a0
 11938 3907 00       		.byte	0
 11939 3908 0C       		.uleb128 0xc
 11940 3909 0B0C0000 		.4byte	.LASF705
 11941 390d 35       		.byte	0x35
 11942 390e 4F       		.byte	0x4f
 11943 390f 15       		.byte	0x15
ARM GAS  /tmp/ccfraM8n.s 			page 211


 11944 3910 A0090000 		.4byte	0x9a0
 11945 3914 04       		.byte	0x4
 11946 3915 0C       		.uleb128 0xc
 11947 3916 52170000 		.4byte	.LASF713
 11948 391a 35       		.byte	0x35
 11949 391b 50       		.byte	0x50
 11950 391c 15       		.byte	0x15
 11951 391d A0090000 		.4byte	0x9a0
 11952 3921 08       		.byte	0x8
 11953 3922 0C       		.uleb128 0xc
 11954 3923 8D100000 		.4byte	.LASF707
 11955 3927 35       		.byte	0x35
 11956 3928 52       		.byte	0x52
 11957 3929 15       		.byte	0x15
 11958 392a A0090000 		.4byte	0x9a0
 11959 392e 0C       		.byte	0xc
 11960 392f 0C       		.uleb128 0xc
 11961 3930 161F0000 		.4byte	.LASF714
 11962 3934 35       		.byte	0x35
 11963 3935 53       		.byte	0x53
 11964 3936 15       		.byte	0x15
 11965 3937 A0090000 		.4byte	0x9a0
 11966 393b 10       		.byte	0x10
 11967 393c 0C       		.uleb128 0xc
 11968 393d 6B030000 		.4byte	.LASF700
 11969 3941 35       		.byte	0x35
 11970 3942 55       		.byte	0x55
 11971 3943 15       		.byte	0x15
 11972 3944 A0090000 		.4byte	0x9a0
 11973 3948 14       		.byte	0x14
 11974 3949 0C       		.uleb128 0xc
 11975 394a 710C0000 		.4byte	.LASF701
 11976 394e 35       		.byte	0x35
 11977 394f 56       		.byte	0x56
 11978 3950 15       		.byte	0x15
 11979 3951 A0090000 		.4byte	0x9a0
 11980 3955 18       		.byte	0x18
 11981 3956 0C       		.uleb128 0xc
 11982 3957 7E0C0000 		.4byte	.LASF710
 11983 395b 35       		.byte	0x35
 11984 395c 57       		.byte	0x57
 11985 395d 15       		.byte	0x15
 11986 395e A0090000 		.4byte	0x9a0
 11987 3962 1C       		.byte	0x1c
 11988 3963 00       		.byte	0
 11989 3964 04       		.uleb128 0x4
 11990 3965 A3070000 		.4byte	.LASF715
 11991 3969 35       		.byte	0x35
 11992 396a 58       		.byte	0x58
 11993 396b 03       		.byte	0x3
 11994 396c F2380000 		.4byte	0x38f2
 11995 3970 2F       		.uleb128 0x2f
 11996 3971 00100100 		.4byte	0x11000
 11997 3975 35       		.byte	0x35
 11998 3976 5D       		.byte	0x5d
 11999 3977 09       		.byte	0x9
 12000 3978 873C0000 		.4byte	0x3c87
ARM GAS  /tmp/ccfraM8n.s 			page 212


 12001 397c 0C       		.uleb128 0xc
 12002 397d 41050000 		.4byte	.LASF716
 12003 3981 35       		.byte	0x35
 12004 3982 5E       		.byte	0x5e
 12005 3983 15       		.byte	0x15
 12006 3984 A0090000 		.4byte	0x9a0
 12007 3988 00       		.byte	0
 12008 3989 0C       		.uleb128 0xc
 12009 398a 1E170000 		.4byte	.LASF717
 12010 398e 35       		.byte	0x35
 12011 398f 5F       		.byte	0x5f
 12012 3990 15       		.byte	0x15
 12013 3991 A0090000 		.4byte	0x9a0
 12014 3995 04       		.byte	0x4
 12015 3996 0C       		.uleb128 0xc
 12016 3997 52070000 		.4byte	.LASF718
 12017 399b 35       		.byte	0x35
 12018 399c 60       		.byte	0x60
 12019 399d 15       		.byte	0x15
 12020 399e A0090000 		.4byte	0x9a0
 12021 39a2 08       		.byte	0x8
 12022 39a3 0C       		.uleb128 0xc
 12023 39a4 A2230000 		.4byte	.LASF719
 12024 39a8 35       		.byte	0x35
 12025 39a9 61       		.byte	0x61
 12026 39aa 15       		.byte	0x15
 12027 39ab A0090000 		.4byte	0x9a0
 12028 39af 0C       		.byte	0xc
 12029 39b0 0C       		.uleb128 0xc
 12030 39b1 D21F0000 		.4byte	.LASF720
 12031 39b5 35       		.byte	0x35
 12032 39b6 62       		.byte	0x62
 12033 39b7 15       		.byte	0x15
 12034 39b8 A0090000 		.4byte	0x9a0
 12035 39bc 10       		.byte	0x10
 12036 39bd 0C       		.uleb128 0xc
 12037 39be 01040000 		.4byte	.LASF721
 12038 39c2 35       		.byte	0x35
 12039 39c3 63       		.byte	0x63
 12040 39c4 15       		.byte	0x15
 12041 39c5 A0090000 		.4byte	0x9a0
 12042 39c9 14       		.byte	0x14
 12043 39ca 0C       		.uleb128 0xc
 12044 39cb 18190000 		.4byte	.LASF722
 12045 39cf 35       		.byte	0x35
 12046 39d0 64       		.byte	0x64
 12047 39d1 15       		.byte	0x15
 12048 39d2 A0090000 		.4byte	0x9a0
 12049 39d6 18       		.byte	0x18
 12050 39d7 0C       		.uleb128 0xc
 12051 39d8 BE070000 		.4byte	.LASF723
 12052 39dc 35       		.byte	0x35
 12053 39dd 65       		.byte	0x65
 12054 39de 15       		.byte	0x15
 12055 39df A0090000 		.4byte	0x9a0
 12056 39e3 1C       		.byte	0x1c
 12057 39e4 0C       		.uleb128 0xc
ARM GAS  /tmp/ccfraM8n.s 			page 213


 12058 39e5 B6070000 		.4byte	.LASF724
 12059 39e9 35       		.byte	0x35
 12060 39ea 67       		.byte	0x67
 12061 39eb 15       		.byte	0x15
 12062 39ec A0090000 		.4byte	0x9a0
 12063 39f0 20       		.byte	0x20
 12064 39f1 0C       		.uleb128 0xc
 12065 39f2 B8180000 		.4byte	.LASF725
 12066 39f6 35       		.byte	0x35
 12067 39f7 69       		.byte	0x69
 12068 39f8 15       		.byte	0x15
 12069 39f9 A0090000 		.4byte	0x9a0
 12070 39fd 24       		.byte	0x24
 12071 39fe 0C       		.uleb128 0xc
 12072 39ff 0F010000 		.4byte	.LASF726
 12073 3a03 35       		.byte	0x35
 12074 3a04 6A       		.byte	0x6a
 12075 3a05 15       		.byte	0x15
 12076 3a06 A0090000 		.4byte	0x9a0
 12077 3a0a 28       		.byte	0x28
 12078 3a0b 0C       		.uleb128 0xc
 12079 3a0c 20190000 		.4byte	.LASF727
 12080 3a10 35       		.byte	0x35
 12081 3a11 6C       		.byte	0x6c
 12082 3a12 15       		.byte	0x15
 12083 3a13 A0090000 		.4byte	0x9a0
 12084 3a17 2C       		.byte	0x2c
 12085 3a18 0C       		.uleb128 0xc
 12086 3a19 DA0D0000 		.4byte	.LASF728
 12087 3a1d 35       		.byte	0x35
 12088 3a1e 6E       		.byte	0x6e
 12089 3a1f 15       		.byte	0x15
 12090 3a20 A0090000 		.4byte	0x9a0
 12091 3a24 30       		.byte	0x30
 12092 3a25 0C       		.uleb128 0xc
 12093 3a26 53210000 		.4byte	.LASF729
 12094 3a2a 35       		.byte	0x35
 12095 3a2b 6F       		.byte	0x6f
 12096 3a2c 15       		.byte	0x15
 12097 3a2d A0090000 		.4byte	0x9a0
 12098 3a31 34       		.byte	0x34
 12099 3a32 0C       		.uleb128 0xc
 12100 3a33 1D020000 		.4byte	.LASF730
 12101 3a37 35       		.byte	0x35
 12102 3a38 70       		.byte	0x70
 12103 3a39 15       		.byte	0x15
 12104 3a3a A0090000 		.4byte	0x9a0
 12105 3a3e 38       		.byte	0x38
 12106 3a3f 11       		.uleb128 0x11
 12107 3a40 43494400 		.ascii	"CID\000"
 12108 3a44 35       		.byte	0x35
 12109 3a45 71       		.byte	0x71
 12110 3a46 15       		.byte	0x15
 12111 3a47 A0090000 		.4byte	0x9a0
 12112 3a4b 3C       		.byte	0x3c
 12113 3a4c 0C       		.uleb128 0xc
 12114 3a4d 6E080000 		.4byte	.LASF731
ARM GAS  /tmp/ccfraM8n.s 			page 214


 12115 3a51 35       		.byte	0x35
 12116 3a52 72       		.byte	0x72
 12117 3a53 15       		.byte	0x15
 12118 3a54 973C0000 		.4byte	0x3c97
 12119 3a58 40       		.byte	0x40
 12120 3a59 13       		.uleb128 0x13
 12121 3a5a 29200000 		.4byte	.LASF732
 12122 3a5e 35       		.byte	0x35
 12123 3a5f 73       		.byte	0x73
 12124 3a60 15       		.byte	0x15
 12125 3a61 A0090000 		.4byte	0x9a0
 12126 3a65 0001     		.2byte	0x100
 12127 3a67 13       		.uleb128 0x13
 12128 3a68 AA020000 		.4byte	.LASF733
 12129 3a6c 35       		.byte	0x35
 12130 3a6d 75       		.byte	0x75
 12131 3a6e 15       		.byte	0x15
 12132 3a6f 4F1A0000 		.4byte	0x1a4f
 12133 3a73 0401     		.2byte	0x104
 12134 3a75 13       		.uleb128 0x13
 12135 3a76 54130000 		.4byte	.LASF734
 12136 3a7a 35       		.byte	0x35
 12137 3a7b 77       		.byte	0x77
 12138 3a7c 15       		.byte	0x15
 12139 3a7d AC3C0000 		.4byte	0x3cac
 12140 3a81 4001     		.2byte	0x140
 12141 3a83 13       		.uleb128 0x13
 12142 3a84 C0160000 		.4byte	.LASF735
 12143 3a88 35       		.byte	0x35
 12144 3a89 78       		.byte	0x78
 12145 3a8a 15       		.byte	0x15
 12146 3a8b A0090000 		.4byte	0x9a0
 12147 3a8f 0004     		.2byte	0x400
 12148 3a91 13       		.uleb128 0x13
 12149 3a92 1F230000 		.4byte	.LASF736
 12150 3a96 35       		.byte	0x35
 12151 3a97 79       		.byte	0x79
 12152 3a98 15       		.byte	0x15
 12153 3a99 A0090000 		.4byte	0x9a0
 12154 3a9d 0404     		.2byte	0x404
 12155 3a9f 13       		.uleb128 0x13
 12156 3aa0 91040000 		.4byte	.LASF737
 12157 3aa4 35       		.byte	0x35
 12158 3aa5 7A       		.byte	0x7a
 12159 3aa6 15       		.byte	0x15
 12160 3aa7 A0090000 		.4byte	0x9a0
 12161 3aab 0804     		.2byte	0x408
 12162 3aad 13       		.uleb128 0x13
 12163 3aae BB1F0000 		.4byte	.LASF738
 12164 3ab2 35       		.byte	0x35
 12165 3ab3 7C       		.byte	0x7c
 12166 3ab4 15       		.byte	0x15
 12167 3ab5 A0090000 		.4byte	0x9a0
 12168 3ab9 0C04     		.2byte	0x40c
 12169 3abb 13       		.uleb128 0x13
 12170 3abc 73030000 		.4byte	.LASF739
 12171 3ac0 35       		.byte	0x35
ARM GAS  /tmp/ccfraM8n.s 			page 215


 12172 3ac1 7D       		.byte	0x7d
 12173 3ac2 15       		.byte	0x15
 12174 3ac3 A0090000 		.4byte	0x9a0
 12175 3ac7 1004     		.2byte	0x410
 12176 3ac9 13       		.uleb128 0x13
 12177 3aca 47040000 		.4byte	.LASF740
 12178 3ace 35       		.byte	0x35
 12179 3acf 7F       		.byte	0x7f
 12180 3ad0 15       		.byte	0x15
 12181 3ad1 A0090000 		.4byte	0x9a0
 12182 3ad5 1404     		.2byte	0x414
 12183 3ad7 13       		.uleb128 0x13
 12184 3ad8 160B0000 		.4byte	.LASF741
 12185 3adc 35       		.byte	0x35
 12186 3add 81       		.byte	0x81
 12187 3ade 15       		.byte	0x15
 12188 3adf A0090000 		.4byte	0x9a0
 12189 3ae3 1804     		.2byte	0x418
 12190 3ae5 13       		.uleb128 0x13
 12191 3ae6 86210000 		.4byte	.LASF742
 12192 3aea 35       		.byte	0x35
 12193 3aeb 83       		.byte	0x83
 12194 3aec 15       		.byte	0x15
 12195 3aed C13C0000 		.4byte	0x3cc1
 12196 3af1 1C04     		.2byte	0x41c
 12197 3af3 13       		.uleb128 0x13
 12198 3af4 10030000 		.4byte	.LASF743
 12199 3af8 35       		.byte	0x35
 12200 3af9 84       		.byte	0x84
 12201 3afa 15       		.byte	0x15
 12202 3afb A0090000 		.4byte	0x9a0
 12203 3aff 4004     		.2byte	0x440
 12204 3b01 13       		.uleb128 0x13
 12205 3b02 FD1C0000 		.4byte	.LASF744
 12206 3b06 35       		.byte	0x35
 12207 3b07 86       		.byte	0x86
 12208 3b08 15       		.byte	0x15
 12209 3b09 D63C0000 		.4byte	0x3cd6
 12210 3b0d 4404     		.2byte	0x444
 12211 3b0f 30       		.uleb128 0x30
 12212 3b10 686300   		.ascii	"hc\000"
 12213 3b13 35       		.byte	0x35
 12214 3b14 87       		.byte	0x87
 12215 3b15 18       		.byte	0x18
 12216 3b16 DB3C0000 		.4byte	0x3cdb
 12217 3b1a 0005     		.2byte	0x500
 12218 3b1c 13       		.uleb128 0x13
 12219 3b1d ED1F0000 		.4byte	.LASF745
 12220 3b21 35       		.byte	0x35
 12221 3b22 88       		.byte	0x88
 12222 3b23 15       		.byte	0x15
 12223 3b24 FB3C0000 		.4byte	0x3cfb
 12224 3b28 0007     		.2byte	0x700
 12225 3b2a 13       		.uleb128 0x13
 12226 3b2b FF180000 		.4byte	.LASF746
 12227 3b2f 35       		.byte	0x35
 12228 3b30 89       		.byte	0x89
ARM GAS  /tmp/ccfraM8n.s 			page 216


 12229 3b31 15       		.byte	0x15
 12230 3b32 A0090000 		.4byte	0x9a0
 12231 3b36 0008     		.2byte	0x800
 12232 3b38 13       		.uleb128 0x13
 12233 3b39 E7200000 		.4byte	.LASF747
 12234 3b3d 35       		.byte	0x35
 12235 3b3e 8A       		.byte	0x8a
 12236 3b3f 15       		.byte	0x15
 12237 3b40 A0090000 		.4byte	0x9a0
 12238 3b44 0408     		.2byte	0x804
 12239 3b46 13       		.uleb128 0x13
 12240 3b47 310B0000 		.4byte	.LASF748
 12241 3b4b 35       		.byte	0x35
 12242 3b4c 8B       		.byte	0x8b
 12243 3b4d 15       		.byte	0x15
 12244 3b4e A0090000 		.4byte	0x9a0
 12245 3b52 0808     		.2byte	0x808
 12246 3b54 13       		.uleb128 0x13
 12247 3b55 30050000 		.4byte	.LASF749
 12248 3b59 35       		.byte	0x35
 12249 3b5a 8C       		.byte	0x8c
 12250 3b5b 15       		.byte	0x15
 12251 3b5c A0090000 		.4byte	0x9a0
 12252 3b60 0C08     		.2byte	0x80c
 12253 3b62 13       		.uleb128 0x13
 12254 3b63 FE0A0000 		.4byte	.LASF750
 12255 3b67 35       		.byte	0x35
 12256 3b68 8D       		.byte	0x8d
 12257 3b69 15       		.byte	0x15
 12258 3b6a A0090000 		.4byte	0x9a0
 12259 3b6e 1008     		.2byte	0x810
 12260 3b70 13       		.uleb128 0x13
 12261 3b71 FB1D0000 		.4byte	.LASF751
 12262 3b75 35       		.byte	0x35
 12263 3b76 8F       		.byte	0x8f
 12264 3b77 15       		.byte	0x15
 12265 3b78 A0090000 		.4byte	0x9a0
 12266 3b7c 1408     		.2byte	0x814
 12267 3b7e 13       		.uleb128 0x13
 12268 3b7f 7F1E0000 		.4byte	.LASF752
 12269 3b83 35       		.byte	0x35
 12270 3b84 91       		.byte	0x91
 12271 3b85 15       		.byte	0x15
 12272 3b86 A0090000 		.4byte	0x9a0
 12273 3b8a 1808     		.2byte	0x818
 12274 3b8c 13       		.uleb128 0x13
 12275 3b8d 0E1C0000 		.4byte	.LASF753
 12276 3b91 35       		.byte	0x35
 12277 3b92 93       		.byte	0x93
 12278 3b93 15       		.byte	0x15
 12279 3b94 A0090000 		.4byte	0x9a0
 12280 3b98 1C08     		.2byte	0x81c
 12281 3b9a 13       		.uleb128 0x13
 12282 3b9b F3050000 		.4byte	.LASF754
 12283 3b9f 35       		.byte	0x35
 12284 3ba0 95       		.byte	0x95
 12285 3ba1 15       		.byte	0x15
ARM GAS  /tmp/ccfraM8n.s 			page 217


 12286 3ba2 A0090000 		.4byte	0x9a0
 12287 3ba6 2008     		.2byte	0x820
 12288 3ba8 13       		.uleb128 0x13
 12289 3ba9 79050000 		.4byte	.LASF755
 12290 3bad 35       		.byte	0x35
 12291 3bae 96       		.byte	0x96
 12292 3baf 15       		.byte	0x15
 12293 3bb0 A0090000 		.4byte	0x9a0
 12294 3bb4 2408     		.2byte	0x824
 12295 3bb6 13       		.uleb128 0x13
 12296 3bb7 90010000 		.4byte	.LASF756
 12297 3bbb 35       		.byte	0x35
 12298 3bbc 97       		.byte	0x97
 12299 3bbd 15       		.byte	0x15
 12300 3bbe A0090000 		.4byte	0x9a0
 12301 3bc2 2808     		.2byte	0x828
 12302 3bc4 13       		.uleb128 0x13
 12303 3bc5 F80D0000 		.4byte	.LASF757
 12304 3bc9 35       		.byte	0x35
 12305 3bca 99       		.byte	0x99
 12306 3bcb 15       		.byte	0x15
 12307 3bcc A0090000 		.4byte	0x9a0
 12308 3bd0 2C08     		.2byte	0x82c
 12309 3bd2 13       		.uleb128 0x13
 12310 3bd3 A5060000 		.4byte	.LASF758
 12311 3bd7 35       		.byte	0x35
 12312 3bd8 9B       		.byte	0x9b
 12313 3bd9 15       		.byte	0x15
 12314 3bda A0090000 		.4byte	0x9a0
 12315 3bde 3008     		.2byte	0x830
 12316 3be0 13       		.uleb128 0x13
 12317 3be1 AC0C0000 		.4byte	.LASF759
 12318 3be5 35       		.byte	0x35
 12319 3be6 9C       		.byte	0x9c
 12320 3be7 15       		.byte	0x15
 12321 3be8 A0090000 		.4byte	0x9a0
 12322 3bec 3408     		.2byte	0x834
 12323 3bee 13       		.uleb128 0x13
 12324 3bef C5060000 		.4byte	.LASF760
 12325 3bf3 35       		.byte	0x35
 12326 3bf4 9E       		.byte	0x9e
 12327 3bf5 15       		.byte	0x15
 12328 3bf6 A0090000 		.4byte	0x9a0
 12329 3bfa 3808     		.2byte	0x838
 12330 3bfc 13       		.uleb128 0x13
 12331 3bfd 2A070000 		.4byte	.LASF761
 12332 3c01 35       		.byte	0x35
 12333 3c02 9F       		.byte	0x9f
 12334 3c03 15       		.byte	0x15
 12335 3c04 A0090000 		.4byte	0x9a0
 12336 3c08 3C08     		.2byte	0x83c
 12337 3c0a 13       		.uleb128 0x13
 12338 3c0b 62070000 		.4byte	.LASF762
 12339 3c0f 35       		.byte	0x35
 12340 3c10 A0       		.byte	0xa0
 12341 3c11 15       		.byte	0x15
 12342 3c12 F1120000 		.4byte	0x12f1
ARM GAS  /tmp/ccfraM8n.s 			page 218


 12343 3c16 4008     		.2byte	0x840
 12344 3c18 13       		.uleb128 0x13
 12345 3c19 3C0C0000 		.4byte	.LASF763
 12346 3c1d 35       		.byte	0x35
 12347 3c1e A1       		.byte	0xa1
 12348 3c1f 15       		.byte	0x15
 12349 3c20 F1120000 		.4byte	0x12f1
 12350 3c24 8008     		.2byte	0x880
 12351 3c26 13       		.uleb128 0x13
 12352 3c27 7A100000 		.4byte	.LASF764
 12353 3c2b 35       		.byte	0x35
 12354 3c2c A2       		.byte	0xa2
 12355 3c2d 15       		.byte	0x15
 12356 3c2e F1120000 		.4byte	0x12f1
 12357 3c32 C008     		.2byte	0x8c0
 12358 3c34 30       		.uleb128 0x30
 12359 3c35 696500   		.ascii	"ie\000"
 12360 3c38 35       		.byte	0x35
 12361 3c39 A3       		.byte	0xa3
 12362 3c3a 15       		.byte	0x15
 12363 3c3b 003D0000 		.4byte	0x3d00
 12364 3c3f 0009     		.2byte	0x900
 12365 3c41 30       		.uleb128 0x30
 12366 3c42 6F6500   		.ascii	"oe\000"
 12367 3c45 35       		.byte	0x35
 12368 3c46 A4       		.byte	0xa4
 12369 3c47 16       		.byte	0x16
 12370 3c48 103D0000 		.4byte	0x3d10
 12371 3c4c 000B     		.2byte	0xb00
 12372 3c4e 13       		.uleb128 0x13
 12373 3c4f A20A0000 		.4byte	.LASF765
 12374 3c53 35       		.byte	0x35
 12375 3c54 A5       		.byte	0xa5
 12376 3c55 15       		.byte	0x15
 12377 3c56 FB3C0000 		.4byte	0x3cfb
 12378 3c5a 000D     		.2byte	0xd00
 12379 3c5c 13       		.uleb128 0x13
 12380 3c5d 04210000 		.4byte	.LASF766
 12381 3c61 35       		.byte	0x35
 12382 3c62 A6       		.byte	0xa6
 12383 3c63 15       		.byte	0x15
 12384 3c64 A0090000 		.4byte	0x9a0
 12385 3c68 000E     		.2byte	0xe00
 12386 3c6a 13       		.uleb128 0x13
 12387 3c6b 7B160000 		.4byte	.LASF767
 12388 3c6f 35       		.byte	0x35
 12389 3c70 A8       		.byte	0xa8
 12390 3c71 15       		.byte	0x15
 12391 3c72 303D0000 		.4byte	0x3d30
 12392 3c76 040E     		.2byte	0xe04
 12393 3c78 13       		.uleb128 0x13
 12394 3c79 F0080000 		.4byte	.LASF329
 12395 3c7d 35       		.byte	0x35
 12396 3c7e A9       		.byte	0xa9
 12397 3c7f 15       		.byte	0x15
 12398 3c80 4C3D0000 		.4byte	0x3d4c
 12399 3c84 0010     		.2byte	0x1000
ARM GAS  /tmp/ccfraM8n.s 			page 219


 12400 3c86 00       		.byte	0
 12401 3c87 09       		.uleb128 0x9
 12402 3c88 A0090000 		.4byte	0x9a0
 12403 3c8c 973C0000 		.4byte	0x3c97
 12404 3c90 0A       		.uleb128 0xa
 12405 3c91 25000000 		.4byte	0x25
 12406 3c95 2F       		.byte	0x2f
 12407 3c96 00       		.byte	0
 12408 3c97 05       		.uleb128 0x5
 12409 3c98 873C0000 		.4byte	0x3c87
 12410 3c9c 09       		.uleb128 0x9
 12411 3c9d A0090000 		.4byte	0x9a0
 12412 3ca1 AC3C0000 		.4byte	0x3cac
 12413 3ca5 0A       		.uleb128 0xa
 12414 3ca6 25000000 		.4byte	0x25
 12415 3caa AF       		.byte	0xaf
 12416 3cab 00       		.byte	0
 12417 3cac 05       		.uleb128 0x5
 12418 3cad 9C3C0000 		.4byte	0x3c9c
 12419 3cb1 09       		.uleb128 0x9
 12420 3cb2 A0090000 		.4byte	0x9a0
 12421 3cb6 C13C0000 		.4byte	0x3cc1
 12422 3cba 0A       		.uleb128 0xa
 12423 3cbb 25000000 		.4byte	0x25
 12424 3cbf 08       		.byte	0x8
 12425 3cc0 00       		.byte	0
 12426 3cc1 05       		.uleb128 0x5
 12427 3cc2 B13C0000 		.4byte	0x3cb1
 12428 3cc6 09       		.uleb128 0x9
 12429 3cc7 A0090000 		.4byte	0x9a0
 12430 3ccb D63C0000 		.4byte	0x3cd6
 12431 3ccf 0A       		.uleb128 0xa
 12432 3cd0 25000000 		.4byte	0x25
 12433 3cd4 2E       		.byte	0x2e
 12434 3cd5 00       		.byte	0
 12435 3cd6 05       		.uleb128 0x5
 12436 3cd7 C63C0000 		.4byte	0x3cc6
 12437 3cdb 09       		.uleb128 0x9
 12438 3cdc 68380000 		.4byte	0x3868
 12439 3ce0 EB3C0000 		.4byte	0x3ceb
 12440 3ce4 0A       		.uleb128 0xa
 12441 3ce5 25000000 		.4byte	0x25
 12442 3ce9 0F       		.byte	0xf
 12443 3cea 00       		.byte	0
 12444 3ceb 09       		.uleb128 0x9
 12445 3cec A0090000 		.4byte	0x9a0
 12446 3cf0 FB3C0000 		.4byte	0x3cfb
 12447 3cf4 0A       		.uleb128 0xa
 12448 3cf5 25000000 		.4byte	0x25
 12449 3cf9 3F       		.byte	0x3f
 12450 3cfa 00       		.byte	0
 12451 3cfb 05       		.uleb128 0x5
 12452 3cfc EB3C0000 		.4byte	0x3ceb
 12453 3d00 09       		.uleb128 0x9
 12454 3d01 E6380000 		.4byte	0x38e6
 12455 3d05 103D0000 		.4byte	0x3d10
 12456 3d09 0A       		.uleb128 0xa
ARM GAS  /tmp/ccfraM8n.s 			page 220


 12457 3d0a 25000000 		.4byte	0x25
 12458 3d0e 0F       		.byte	0xf
 12459 3d0f 00       		.byte	0
 12460 3d10 09       		.uleb128 0x9
 12461 3d11 64390000 		.4byte	0x3964
 12462 3d15 203D0000 		.4byte	0x3d20
 12463 3d19 0A       		.uleb128 0xa
 12464 3d1a 25000000 		.4byte	0x25
 12465 3d1e 0F       		.byte	0xf
 12466 3d1f 00       		.byte	0
 12467 3d20 09       		.uleb128 0x9
 12468 3d21 A0090000 		.4byte	0x9a0
 12469 3d25 303D0000 		.4byte	0x3d30
 12470 3d29 0A       		.uleb128 0xa
 12471 3d2a 25000000 		.4byte	0x25
 12472 3d2e 7E       		.byte	0x7e
 12473 3d2f 00       		.byte	0
 12474 3d30 05       		.uleb128 0x5
 12475 3d31 203D0000 		.4byte	0x3d20
 12476 3d35 09       		.uleb128 0x9
 12477 3d36 A0090000 		.4byte	0x9a0
 12478 3d3a 4C3D0000 		.4byte	0x3d4c
 12479 3d3e 0A       		.uleb128 0xa
 12480 3d3f 25000000 		.4byte	0x25
 12481 3d43 0F       		.byte	0xf
 12482 3d44 2E       		.uleb128 0x2e
 12483 3d45 25000000 		.4byte	0x25
 12484 3d49 FF03     		.2byte	0x3ff
 12485 3d4b 00       		.byte	0
 12486 3d4c 05       		.uleb128 0x5
 12487 3d4d 353D0000 		.4byte	0x3d35
 12488 3d51 04       		.uleb128 0x4
 12489 3d52 C6230000 		.4byte	.LASF768
 12490 3d56 35       		.byte	0x35
 12491 3d57 AA       		.byte	0xaa
 12492 3d58 03       		.byte	0x3
 12493 3d59 70390000 		.4byte	0x3970
 12494 3d5d 21       		.uleb128 0x21
 12495 3d5e 0C       		.byte	0xc
 12496 3d5f 34       		.byte	0x34
 12497 3d60 0401     		.2byte	0x104
 12498 3d62 09       		.byte	0x9
 12499 3d63 923D0000 		.4byte	0x3d92
 12500 3d67 17       		.uleb128 0x17
 12501 3d68 A5080000 		.4byte	.LASF769
 12502 3d6c 34       		.byte	0x34
 12503 3d6d 0501     		.2byte	0x105
 12504 3d6f 21       		.byte	0x21
 12505 3d70 94090000 		.4byte	0x994
 12506 3d74 00       		.byte	0
 12507 3d75 17       		.uleb128 0x17
 12508 3d76 6C0A0000 		.4byte	.LASF770
 12509 3d7a 34       		.byte	0x34
 12510 3d7b 0601     		.2byte	0x106
 12511 3d7d 21       		.byte	0x21
 12512 3d7e 94090000 		.4byte	0x994
 12513 3d82 04       		.byte	0x4
ARM GAS  /tmp/ccfraM8n.s 			page 221


 12514 3d83 17       		.uleb128 0x17
 12515 3d84 7D0E0000 		.4byte	.LASF771
 12516 3d88 34       		.byte	0x34
 12517 3d89 0701     		.2byte	0x107
 12518 3d8b 21       		.byte	0x21
 12519 3d8c 94090000 		.4byte	0x994
 12520 3d90 08       		.byte	0x8
 12521 3d91 00       		.byte	0
 12522 3d92 06       		.uleb128 0x6
 12523 3d93 8F0A0000 		.4byte	.LASF772
 12524 3d97 34       		.byte	0x34
 12525 3d98 0801     		.2byte	0x108
 12526 3d9a 03       		.byte	0x3
 12527 3d9b 5D3D0000 		.4byte	0x3d5d
 12528 3d9f 15       		.uleb128 0x15
 12529 3da0 923D0000 		.4byte	0x3d92
 12530 3da4 21       		.uleb128 0x21
 12531 3da5 14       		.byte	0x14
 12532 3da6 34       		.byte	0x34
 12533 3da7 0D01     		.2byte	0x10d
 12534 3da9 09       		.byte	0x9
 12535 3daa F53D0000 		.4byte	0x3df5
 12536 3dae 17       		.uleb128 0x17
 12537 3daf BF110000 		.4byte	.LASF773
 12538 3db3 34       		.byte	0x34
 12539 3db4 1101     		.2byte	0x111
 12540 3db6 21       		.byte	0x21
 12541 3db7 33000000 		.4byte	0x33
 12542 3dbb 00       		.byte	0
 12543 3dbc 17       		.uleb128 0x17
 12544 3dbd 330A0000 		.4byte	.LASF774
 12545 3dc1 34       		.byte	0x34
 12546 3dc2 1501     		.2byte	0x115
 12547 3dc4 21       		.byte	0x21
 12548 3dc5 33000000 		.4byte	0x33
 12549 3dc9 04       		.byte	0x4
 12550 3dca 17       		.uleb128 0x17
 12551 3dcb FE200000 		.4byte	.LASF775
 12552 3dcf 34       		.byte	0x34
 12553 3dd0 1901     		.2byte	0x119
 12554 3dd2 22       		.byte	0x22
 12555 3dd3 B6240000 		.4byte	0x24b6
 12556 3dd7 08       		.byte	0x8
 12557 3dd8 17       		.uleb128 0x17
 12558 3dd9 EC060000 		.4byte	.LASF497
 12559 3ddd 34       		.byte	0x34
 12560 3dde 1E01     		.2byte	0x11e
 12561 3de0 21       		.byte	0x21
 12562 3de1 360B0000 		.4byte	0xb36
 12563 3de5 0C       		.byte	0xc
 12564 3de6 17       		.uleb128 0x17
 12565 3de7 950E0000 		.4byte	.LASF776
 12566 3deb 34       		.byte	0x34
 12567 3dec 2401     		.2byte	0x124
 12568 3dee 21       		.byte	0x21
 12569 3def 33000000 		.4byte	0x33
 12570 3df3 10       		.byte	0x10
ARM GAS  /tmp/ccfraM8n.s 			page 222


 12571 3df4 00       		.byte	0
 12572 3df5 06       		.uleb128 0x6
 12573 3df6 610F0000 		.4byte	.LASF777
 12574 3dfa 34       		.byte	0x34
 12575 3dfb 2501     		.2byte	0x125
 12576 3dfd 03       		.byte	0x3
 12577 3dfe A43D0000 		.4byte	0x3da4
 12578 3e02 21       		.uleb128 0x21
 12579 3e03 14       		.byte	0x14
 12580 3e04 34       		.byte	0x34
 12581 3e05 2A01     		.2byte	0x12a
 12582 3e07 09       		.byte	0x9
 12583 3e08 533E0000 		.4byte	0x3e53
 12584 3e0c 17       		.uleb128 0x17
 12585 3e0d C2120000 		.4byte	.LASF778
 12586 3e11 34       		.byte	0x34
 12587 3e12 2E01     		.2byte	0x12e
 12588 3e14 21       		.byte	0x21
 12589 3e15 33000000 		.4byte	0x33
 12590 3e19 00       		.byte	0
 12591 3e1a 17       		.uleb128 0x17
 12592 3e1b 110A0000 		.4byte	.LASF779
 12593 3e1f 34       		.byte	0x34
 12594 3e20 3201     		.2byte	0x132
 12595 3e22 21       		.byte	0x21
 12596 3e23 33000000 		.4byte	0x33
 12597 3e27 04       		.byte	0x4
 12598 3e28 17       		.uleb128 0x17
 12599 3e29 AB0A0000 		.4byte	.LASF780
 12600 3e2d 34       		.byte	0x34
 12601 3e2e 3601     		.2byte	0x136
 12602 3e30 22       		.byte	0x22
 12603 3e31 8F200000 		.4byte	0x208f
 12604 3e35 08       		.byte	0x8
 12605 3e36 17       		.uleb128 0x17
 12606 3e37 EC060000 		.4byte	.LASF497
 12607 3e3b 34       		.byte	0x34
 12608 3e3c 3B01     		.2byte	0x13b
 12609 3e3e 21       		.byte	0x21
 12610 3e3f 360B0000 		.4byte	0xb36
 12611 3e43 0C       		.byte	0xc
 12612 3e44 17       		.uleb128 0x17
 12613 3e45 950E0000 		.4byte	.LASF776
 12614 3e49 34       		.byte	0x34
 12615 3e4a 4101     		.2byte	0x141
 12616 3e4c 21       		.byte	0x21
 12617 3e4d 33000000 		.4byte	0x33
 12618 3e51 10       		.byte	0x10
 12619 3e52 00       		.byte	0
 12620 3e53 06       		.uleb128 0x6
 12621 3e54 361B0000 		.4byte	.LASF781
 12622 3e58 34       		.byte	0x34
 12623 3e59 4201     		.2byte	0x142
 12624 3e5b 03       		.byte	0x3
 12625 3e5c 023E0000 		.4byte	0x3e02
 12626 3e60 21       		.uleb128 0x21
 12627 3e61 24       		.byte	0x24
ARM GAS  /tmp/ccfraM8n.s 			page 223


 12628 3e62 34       		.byte	0x34
 12629 3e63 4801     		.2byte	0x148
 12630 3e65 09       		.byte	0x9
 12631 3e66 F73E0000 		.4byte	0x3ef7
 12632 3e6a 17       		.uleb128 0x17
 12633 3e6b 3A160000 		.4byte	.LASF782
 12634 3e6f 34       		.byte	0x34
 12635 3e70 4C01     		.2byte	0x14c
 12636 3e72 21       		.byte	0x21
 12637 3e73 94090000 		.4byte	0x994
 12638 3e77 00       		.byte	0
 12639 3e78 17       		.uleb128 0x17
 12640 3e79 CC080000 		.4byte	.LASF783
 12641 3e7d 34       		.byte	0x34
 12642 3e7e 5701     		.2byte	0x157
 12643 3e80 21       		.byte	0x21
 12644 3e81 57370000 		.4byte	0x3757
 12645 3e85 04       		.byte	0x4
 12646 3e86 17       		.uleb128 0x17
 12647 3e87 D7050000 		.4byte	.LASF784
 12648 3e8b 34       		.byte	0x34
 12649 3e8c 5C01     		.2byte	0x15c
 12650 3e8e 21       		.byte	0x21
 12651 3e8f 57370000 		.4byte	0x3757
 12652 3e93 08       		.byte	0x8
 12653 3e94 17       		.uleb128 0x17
 12654 3e95 0F0B0000 		.4byte	.LASF785
 12655 3e99 34       		.byte	0x34
 12656 3e9a 6101     		.2byte	0x161
 12657 3e9c 21       		.byte	0x21
 12658 3e9d 57370000 		.4byte	0x3757
 12659 3ea1 0C       		.byte	0xc
 12660 3ea2 17       		.uleb128 0x17
 12661 3ea3 06240000 		.4byte	.LASF786
 12662 3ea7 34       		.byte	0x34
 12663 3ea8 6601     		.2byte	0x166
 12664 3eaa 21       		.byte	0x21
 12665 3eab 77090000 		.4byte	0x977
 12666 3eaf 10       		.byte	0x10
 12667 3eb0 17       		.uleb128 0x17
 12668 3eb1 F40E0000 		.4byte	.LASF787
 12669 3eb5 34       		.byte	0x34
 12670 3eb6 6B01     		.2byte	0x16b
 12671 3eb8 21       		.byte	0x21
 12672 3eb9 77090000 		.4byte	0x977
 12673 3ebd 12       		.byte	0x12
 12674 3ebe 17       		.uleb128 0x17
 12675 3ebf B9220000 		.4byte	.LASF788
 12676 3ec3 34       		.byte	0x34
 12677 3ec4 7101     		.2byte	0x171
 12678 3ec6 22       		.byte	0x22
 12679 3ec7 F73E0000 		.4byte	0x3ef7
 12680 3ecb 14       		.byte	0x14
 12681 3ecc 17       		.uleb128 0x17
 12682 3ecd 5B0D0000 		.4byte	.LASF789
 12683 3ed1 34       		.byte	0x34
 12684 3ed2 7701     		.2byte	0x177
ARM GAS  /tmp/ccfraM8n.s 			page 224


 12685 3ed4 22       		.byte	0x22
 12686 3ed5 FD3E0000 		.4byte	0x3efd
 12687 3ed9 18       		.byte	0x18
 12688 3eda 17       		.uleb128 0x17
 12689 3edb 0A110000 		.4byte	.LASF790
 12690 3edf 34       		.byte	0x34
 12691 3ee0 7E01     		.2byte	0x17e
 12692 3ee2 21       		.byte	0x21
 12693 3ee3 77090000 		.4byte	0x977
 12694 3ee7 1C       		.byte	0x1c
 12695 3ee8 17       		.uleb128 0x17
 12696 3ee9 49210000 		.4byte	.LASF791
 12697 3eed 34       		.byte	0x34
 12698 3eee 8401     		.2byte	0x184
 12699 3ef0 22       		.byte	0x22
 12700 3ef1 8F200000 		.4byte	0x208f
 12701 3ef5 20       		.byte	0x20
 12702 3ef6 00       		.byte	0
 12703 3ef7 0E       		.uleb128 0xe
 12704 3ef8 04       		.byte	0x4
 12705 3ef9 F53D0000 		.4byte	0x3df5
 12706 3efd 0E       		.uleb128 0xe
 12707 3efe 04       		.byte	0x4
 12708 3eff 533E0000 		.4byte	0x3e53
 12709 3f03 06       		.uleb128 0x6
 12710 3f04 241B0000 		.4byte	.LASF792
 12711 3f08 34       		.byte	0x34
 12712 3f09 8501     		.2byte	0x185
 12713 3f0b 03       		.byte	0x3
 12714 3f0c 603E0000 		.4byte	0x3e60
 12715 3f10 15       		.uleb128 0x15
 12716 3f11 033F0000 		.4byte	0x3f03
 12717 3f15 21       		.uleb128 0x21
 12718 3f16 10       		.byte	0x10
 12719 3f17 34       		.byte	0x34
 12720 3f18 8A01     		.2byte	0x18a
 12721 3f1a 09       		.byte	0x9
 12722 3f1b 583F0000 		.4byte	0x3f58
 12723 3f1f 17       		.uleb128 0x17
 12724 3f20 060B0000 		.4byte	.LASF793
 12725 3f24 34       		.byte	0x34
 12726 3f25 8F01     		.2byte	0x18f
 12727 3f27 21       		.byte	0x21
 12728 3f28 7A370000 		.4byte	0x377a
 12729 3f2c 00       		.byte	0
 12730 3f2d 17       		.uleb128 0x17
 12731 3f2e 88200000 		.4byte	.LASF794
 12732 3f32 34       		.byte	0x34
 12733 3f33 9401     		.2byte	0x194
 12734 3f35 21       		.byte	0x21
 12735 3f36 BF370000 		.4byte	0x37bf
 12736 3f3a 04       		.byte	0x4
 12737 3f3b 17       		.uleb128 0x17
 12738 3f3c 49050000 		.4byte	.LASF795
 12739 3f40 34       		.byte	0x34
 12740 3f41 9A01     		.2byte	0x19a
 12741 3f43 21       		.byte	0x21
ARM GAS  /tmp/ccfraM8n.s 			page 225


 12742 3f44 9D370000 		.4byte	0x379d
 12743 3f48 08       		.byte	0x8
 12744 3f49 17       		.uleb128 0x17
 12745 3f4a 5E020000 		.4byte	.LASF796
 12746 3f4e 34       		.byte	0x34
 12747 3f4f 9E01     		.2byte	0x19e
 12748 3f51 21       		.byte	0x21
 12749 3f52 33370000 		.4byte	0x3733
 12750 3f56 0C       		.byte	0xc
 12751 3f57 00       		.byte	0
 12752 3f58 06       		.uleb128 0x6
 12753 3f59 83100000 		.4byte	.LASF797
 12754 3f5d 34       		.byte	0x34
 12755 3f5e A001     		.2byte	0x1a0
 12756 3f60 03       		.byte	0x3
 12757 3f61 153F0000 		.4byte	0x3f15
 12758 3f65 15       		.uleb128 0x15
 12759 3f66 583F0000 		.4byte	0x3f58
 12760 3f6a 0E       		.uleb128 0xe
 12761 3f6b 04       		.byte	0x4
 12762 3f6c 653F0000 		.4byte	0x3f65
 12763 3f70 09       		.uleb128 0x9
 12764 3f71 803F0000 		.4byte	0x3f80
 12765 3f75 803F0000 		.4byte	0x3f80
 12766 3f79 0A       		.uleb128 0xa
 12767 3f7a 25000000 		.4byte	0x25
 12768 3f7e 08       		.byte	0x8
 12769 3f7f 00       		.byte	0
 12770 3f80 0E       		.uleb128 0xe
 12771 3f81 04       		.byte	0x4
 12772 3f82 103F0000 		.4byte	0x3f10
 12773 3f86 09       		.uleb128 0x9
 12774 3f87 46010000 		.4byte	0x146
 12775 3f8b 963F0000 		.4byte	0x3f96
 12776 3f8f 0A       		.uleb128 0xa
 12777 3f90 25000000 		.4byte	0x25
 12778 3f94 07       		.byte	0x7
 12779 3f95 00       		.byte	0
 12780 3f96 09       		.uleb128 0x9
 12781 3f97 66090000 		.4byte	0x966
 12782 3f9b A63F0000 		.4byte	0x3fa6
 12783 3f9f 0A       		.uleb128 0xa
 12784 3fa0 25000000 		.4byte	0x25
 12785 3fa4 07       		.byte	0x7
 12786 3fa5 00       		.byte	0
 12787 3fa6 0E       		.uleb128 0xe
 12788 3fa7 04       		.byte	0x4
 12789 3fa8 513D0000 		.4byte	0x3d51
 12790 3fac 0E       		.uleb128 0xe
 12791 3fad 04       		.byte	0x4
 12792 3fae 9F3D0000 		.4byte	0x3d9f
 12793 3fb2 1C       		.uleb128 0x1c
 12794 3fb3 18010000 		.4byte	.LASF798
 12795 3fb7 34       		.byte	0x34
 12796 3fb8 3A02     		.2byte	0x23a
 12797 3fba 12       		.byte	0x12
 12798 3fbb C9340000 		.4byte	0x34c9
ARM GAS  /tmp/ccfraM8n.s 			page 226


 12799 3fbf 0B       		.uleb128 0xb
 12800 3fc0 1C       		.byte	0x1c
 12801 3fc1 36       		.byte	0x36
 12802 3fc2 AA       		.byte	0xaa
 12803 3fc3 09       		.byte	0x9
 12804 3fc4 24400000 		.4byte	0x4024
 12805 3fc8 0C       		.uleb128 0xc
 12806 3fc9 E7110000 		.4byte	.LASF799
 12807 3fcd 36       		.byte	0x36
 12808 3fce AB       		.byte	0xab
 12809 3fcf 11       		.byte	0x11
 12810 3fd0 A0090000 		.4byte	0x9a0
 12811 3fd4 00       		.byte	0
 12812 3fd5 0C       		.uleb128 0xc
 12813 3fd6 ED110000 		.4byte	.LASF800
 12814 3fda 36       		.byte	0x36
 12815 3fdb AC       		.byte	0xac
 12816 3fdc 11       		.byte	0x11
 12817 3fdd A0090000 		.4byte	0x9a0
 12818 3fe1 04       		.byte	0x4
 12819 3fe2 0C       		.uleb128 0xc
 12820 3fe3 BB040000 		.4byte	.LASF801
 12821 3fe7 36       		.byte	0x36
 12822 3fe8 AD       		.byte	0xad
 12823 3fe9 11       		.byte	0x11
 12824 3fea A0090000 		.4byte	0x9a0
 12825 3fee 08       		.byte	0x8
 12826 3fef 0C       		.uleb128 0xc
 12827 3ff0 C1040000 		.4byte	.LASF802
 12828 3ff4 36       		.byte	0x36
 12829 3ff5 AE       		.byte	0xae
 12830 3ff6 11       		.byte	0x11
 12831 3ff7 A0090000 		.4byte	0x9a0
 12832 3ffb 0C       		.byte	0xc
 12833 3ffc 0C       		.uleb128 0xc
 12834 3ffd 6F140000 		.4byte	.LASF803
 12835 4001 36       		.byte	0x36
 12836 4002 AF       		.byte	0xaf
 12837 4003 11       		.byte	0x11
 12838 4004 A0090000 		.4byte	0x9a0
 12839 4008 10       		.byte	0x10
 12840 4009 0C       		.uleb128 0xc
 12841 400a 67040000 		.4byte	.LASF804
 12842 400e 36       		.byte	0x36
 12843 400f B0       		.byte	0xb0
 12844 4010 11       		.byte	0x11
 12845 4011 A0090000 		.4byte	0x9a0
 12846 4015 14       		.byte	0x14
 12847 4016 0C       		.uleb128 0xc
 12848 4017 C80D0000 		.4byte	.LASF805
 12849 401b 36       		.byte	0x36
 12850 401c B1       		.byte	0xb1
 12851 401d 11       		.byte	0x11
 12852 401e A0090000 		.4byte	0x9a0
 12853 4022 18       		.byte	0x18
 12854 4023 00       		.byte	0
 12855 4024 04       		.uleb128 0x4
ARM GAS  /tmp/ccfraM8n.s 			page 227


 12856 4025 D3220000 		.4byte	.LASF806
 12857 4029 36       		.byte	0x36
 12858 402a B2       		.byte	0xb2
 12859 402b 03       		.byte	0x3
 12860 402c BF3F0000 		.4byte	0x3fbf
 12861 4030 06       		.uleb128 0x6
 12862 4031 D8150000 		.4byte	.LASF807
 12863 4035 36       		.byte	0x36
 12864 4036 1C01     		.2byte	0x11c
 12865 4038 1B       		.byte	0x1b
 12866 4039 3D400000 		.4byte	0x403d
 12867 403d 16       		.uleb128 0x16
 12868 403e D8150000 		.4byte	.LASF807
 12869 4042 08       		.byte	0x8
 12870 4043 36       		.byte	0x36
 12871 4044 2A01     		.2byte	0x12a
 12872 4046 08       		.byte	0x8
 12873 4047 68400000 		.4byte	0x4068
 12874 404b 17       		.uleb128 0x17
 12875 404c EB140000 		.4byte	.LASF153
 12876 4050 36       		.byte	0x36
 12877 4051 2E01     		.2byte	0x12e
 12878 4053 1D       		.byte	0x1d
 12879 4054 8A400000 		.4byte	0x408a
 12880 4058 00       		.byte	0
 12881 4059 17       		.uleb128 0x17
 12882 405a BF060000 		.4byte	.LASF808
 12883 405e 36       		.byte	0x36
 12884 405f 4D01     		.2byte	0x14d
 12885 4061 1E       		.byte	0x1e
 12886 4062 97400000 		.4byte	0x4097
 12887 4066 04       		.byte	0x4
 12888 4067 00       		.byte	0
 12889 4068 2B       		.uleb128 0x2b
 12890 4069 07       		.byte	0x7
 12891 406a 01       		.byte	0x1
 12892 406b 72000000 		.4byte	0x72
 12893 406f 36       		.byte	0x36
 12894 4070 2101     		.2byte	0x121
 12895 4072 0E       		.byte	0xe
 12896 4073 8A400000 		.4byte	0x408a
 12897 4077 2A       		.uleb128 0x2a
 12898 4078 1C140000 		.4byte	.LASF809
 12899 407c 00       		.byte	0
 12900 407d 2A       		.uleb128 0x2a
 12901 407e 30140000 		.4byte	.LASF810
 12902 4082 01       		.byte	0x1
 12903 4083 2A       		.uleb128 0x2a
 12904 4084 7B0F0000 		.4byte	.LASF811
 12905 4088 02       		.byte	0x2
 12906 4089 00       		.byte	0
 12907 408a 06       		.uleb128 0x6
 12908 408b 450C0000 		.4byte	.LASF812
 12909 408f 36       		.byte	0x36
 12910 4090 2501     		.2byte	0x125
 12911 4092 03       		.byte	0x3
 12912 4093 68400000 		.4byte	0x4068
ARM GAS  /tmp/ccfraM8n.s 			page 228


 12913 4097 0E       		.uleb128 0xe
 12914 4098 04       		.byte	0x4
 12915 4099 24400000 		.4byte	0x4024
 12916 409d 1C       		.uleb128 0x1c
 12917 409e 790A0000 		.4byte	.LASF813
 12918 40a2 36       		.byte	0x36
 12919 40a3 5B01     		.2byte	0x15b
 12920 40a5 13       		.byte	0x13
 12921 40a6 30400000 		.4byte	0x4030
 12922 40aa 29       		.uleb128 0x29
 12923 40ab 07       		.byte	0x7
 12924 40ac 01       		.byte	0x1
 12925 40ad 72000000 		.4byte	0x72
 12926 40b1 37       		.byte	0x37
 12927 40b2 A4       		.byte	0xa4
 12928 40b3 0E       		.byte	0xe
 12929 40b4 CB400000 		.4byte	0x40cb
 12930 40b8 2A       		.uleb128 0x2a
 12931 40b9 5C1F0000 		.4byte	.LASF814
 12932 40bd 00       		.byte	0
 12933 40be 2A       		.uleb128 0x2a
 12934 40bf F5150000 		.4byte	.LASF815
 12935 40c3 01       		.byte	0x1
 12936 40c4 2A       		.uleb128 0x2a
 12937 40c5 A0000000 		.4byte	.LASF816
 12938 40c9 02       		.byte	0x2
 12939 40ca 00       		.byte	0
 12940 40cb 04       		.uleb128 0x4
 12941 40cc 30110000 		.4byte	.LASF817
 12942 40d0 37       		.byte	0x37
 12943 40d1 A8       		.byte	0xa8
 12944 40d2 03       		.byte	0x3
 12945 40d3 AA400000 		.4byte	0x40aa
 12946 40d7 04       		.uleb128 0x4
 12947 40d8 EF170000 		.4byte	.LASF818
 12948 40dc 37       		.byte	0x37
 12949 40dd AD       		.byte	0xad
 12950 40de 1C       		.byte	0x1c
 12951 40df E3400000 		.4byte	0x40e3
 12952 40e3 10       		.uleb128 0x10
 12953 40e4 EF170000 		.4byte	.LASF818
 12954 40e8 08       		.byte	0x8
 12955 40e9 37       		.byte	0x37
 12956 40ea D0       		.byte	0xd0
 12957 40eb 08       		.byte	0x8
 12958 40ec 0B410000 		.4byte	0x410b
 12959 40f0 0C       		.uleb128 0xc
 12960 40f1 EB140000 		.4byte	.LASF153
 12961 40f5 37       		.byte	0x37
 12962 40f6 D4       		.byte	0xd4
 12963 40f7 1D       		.byte	0x1d
 12964 40f8 CB400000 		.4byte	0x40cb
 12965 40fc 00       		.byte	0
 12966 40fd 0C       		.uleb128 0xc
 12967 40fe BF060000 		.4byte	.LASF808
 12968 4102 37       		.byte	0x37
 12969 4103 D8       		.byte	0xd8
ARM GAS  /tmp/ccfraM8n.s 			page 229


 12970 4104 1E       		.byte	0x1e
 12971 4105 97400000 		.4byte	0x4097
 12972 4109 04       		.byte	0x4
 12973 410a 00       		.byte	0
 12974 410b 20       		.uleb128 0x20
 12975 410c 7B030000 		.4byte	.LASF819
 12976 4110 37       		.byte	0x37
 12977 4111 E3       		.byte	0xe3
 12978 4112 14       		.byte	0x14
 12979 4113 D7400000 		.4byte	0x40d7
 12980 4117 31       		.uleb128 0x31
 12981 4118 B23F0000 		.4byte	0x3fb2
 12982 411c 01       		.byte	0x1
 12983 411d 41       		.byte	0x41
 12984 411e 0B       		.byte	0xb
 12985 411f 05       		.uleb128 0x5
 12986 4120 03       		.byte	0x3
 12987 4121 00000000 		.4byte	USBD1
 12988 4125 07       		.uleb128 0x7
 12989 4126 14       		.byte	0x14
 12990 4127 01       		.byte	0x1
 12991 4128 52       		.byte	0x52
 12992 4129 08       		.byte	0x8
 12993 412a 46410000 		.4byte	0x4146
 12994 412e 23       		.uleb128 0x23
 12995 412f 696E00   		.ascii	"in\000"
 12996 4132 01       		.byte	0x1
 12997 4133 56       		.byte	0x56
 12998 4134 16       		.byte	0x16
 12999 4135 F53D0000 		.4byte	0x3df5
 13000 4139 23       		.uleb128 0x23
 13001 413a 6F757400 		.ascii	"out\000"
 13002 413e 01       		.byte	0x1
 13003 413f 5A       		.byte	0x5a
 13004 4140 17       		.byte	0x17
 13005 4141 533E0000 		.4byte	0x3e53
 13006 4145 00       		.byte	0
 13007 4146 32       		.uleb128 0x32
 13008 4147 5B190000 		.4byte	.LASF820
 13009 414b 01       		.byte	0x1
 13010 414c 5B       		.byte	0x5b
 13011 414d 03       		.byte	0x3
 13012 414e 25410000 		.4byte	0x4125
 13013 4152 05       		.uleb128 0x5
 13014 4153 03       		.byte	0x3
 13015 4154 08000000 		.4byte	ep0_state
 13016 4158 32       		.uleb128 0x32
 13017 4159 3A090000 		.4byte	.LASF821
 13018 415d 01       		.byte	0x1
 13019 415e 60       		.byte	0x60
 13020 415f 10       		.byte	0x10
 13021 4160 963F0000 		.4byte	0x3f96
 13022 4164 05       		.uleb128 0x5
 13023 4165 03       		.byte	0x3
 13024 4166 00000000 		.4byte	ep0setup_buffer
 13025 416a 32       		.uleb128 0x32
 13026 416b 56030000 		.4byte	.LASF822
ARM GAS  /tmp/ccfraM8n.s 			page 230


 13027 416f 01       		.byte	0x1
 13028 4170 65       		.byte	0x65
 13029 4171 20       		.byte	0x20
 13030 4172 103F0000 		.4byte	0x3f10
 13031 4176 05       		.uleb128 0x5
 13032 4177 03       		.byte	0x3
 13033 4178 0C000000 		.4byte	ep0config
 13034 417c 32       		.uleb128 0x32
 13035 417d 28060000 		.4byte	.LASF823
 13036 4181 01       		.byte	0x1
 13037 4182 73       		.byte	0x73
 13038 4183 21       		.byte	0x21
 13039 4184 9F3D0000 		.4byte	0x3d9f
 13040 4188 05       		.uleb128 0x5
 13041 4189 03       		.byte	0x3
 13042 418a 00000000 		.4byte	fsparams
 13043 418e 33       		.uleb128 0x33
 13044 418f 3B0B0000 		.4byte	.LASF824
 13045 4193 01       		.byte	0x1
 13046 4194 EA04     		.2byte	0x4ea
 13047 4196 06       		.byte	0x6
 13048 4197 000D0000 		.4byte	.LFB393
 13049 419b 16000000 		.4byte	.LFE393-.LFB393
 13050 419f 01       		.uleb128 0x1
 13051 41a0 9C       		.byte	0x9c
 13052 41a1 C9410000 		.4byte	0x41c9
 13053 41a5 34       		.uleb128 0x34
 13054 41a6 FE1F0000 		.4byte	.LASF826
 13055 41aa 01       		.byte	0x1
 13056 41ab EA04     		.2byte	0x4ea
 13057 41ad 22       		.byte	0x22
 13058 41ae 51370000 		.4byte	0x3751
 13059 41b2 01       		.uleb128 0x1
 13060 41b3 50       		.byte	0x50
 13061 41b4 35       		.uleb128 0x35
 13062 41b5 657000   		.ascii	"ep\000"
 13063 41b8 01       		.byte	0x1
 13064 41b9 EA04     		.2byte	0x4ea
 13065 41bb 30       		.byte	0x30
 13066 41bc EF350000 		.4byte	0x35ef
 13067 41c0 04000000 		.4byte	.LLST138
 13068 41c4 00000000 		.4byte	.LVUS138
 13069 41c8 00       		.byte	0
 13070 41c9 33       		.uleb128 0x33
 13071 41ca 32200000 		.4byte	.LASF825
 13072 41ce 01       		.byte	0x1
 13073 41cf DD04     		.2byte	0x4dd
 13074 41d1 06       		.byte	0x6
 13075 41d2 E00C0000 		.4byte	.LFB392
 13076 41d6 16000000 		.4byte	.LFE392-.LFB392
 13077 41da 01       		.uleb128 0x1
 13078 41db 9C       		.byte	0x9c
 13079 41dc 04420000 		.4byte	0x4204
 13080 41e0 34       		.uleb128 0x34
 13081 41e1 FE1F0000 		.4byte	.LASF826
 13082 41e5 01       		.byte	0x1
 13083 41e6 DD04     		.2byte	0x4dd
ARM GAS  /tmp/ccfraM8n.s 			page 231


 13084 41e8 23       		.byte	0x23
 13085 41e9 51370000 		.4byte	0x3751
 13086 41ed 01       		.uleb128 0x1
 13087 41ee 50       		.byte	0x50
 13088 41ef 35       		.uleb128 0x35
 13089 41f0 657000   		.ascii	"ep\000"
 13090 41f3 01       		.byte	0x1
 13091 41f4 DD04     		.2byte	0x4dd
 13092 41f6 31       		.byte	0x31
 13093 41f7 EF350000 		.4byte	0x35ef
 13094 41fb 29000000 		.4byte	.LLST137
 13095 41ff 25000000 		.4byte	.LVUS137
 13096 4203 00       		.byte	0
 13097 4204 33       		.uleb128 0x33
 13098 4205 A30F0000 		.4byte	.LASF827
 13099 4209 01       		.byte	0x1
 13100 420a D004     		.2byte	0x4d0
 13101 420c 06       		.byte	0x6
 13102 420d C00C0000 		.4byte	.LFB391
 13103 4211 16000000 		.4byte	.LFE391-.LFB391
 13104 4215 01       		.uleb128 0x1
 13105 4216 9C       		.byte	0x9c
 13106 4217 3F420000 		.4byte	0x423f
 13107 421b 34       		.uleb128 0x34
 13108 421c FE1F0000 		.4byte	.LASF826
 13109 4220 01       		.byte	0x1
 13110 4221 D004     		.2byte	0x4d0
 13111 4223 22       		.byte	0x22
 13112 4224 51370000 		.4byte	0x3751
 13113 4228 01       		.uleb128 0x1
 13114 4229 50       		.byte	0x50
 13115 422a 35       		.uleb128 0x35
 13116 422b 657000   		.ascii	"ep\000"
 13117 422e 01       		.byte	0x1
 13118 422f D004     		.2byte	0x4d0
 13119 4231 30       		.byte	0x30
 13120 4232 EF350000 		.4byte	0x35ef
 13121 4236 4E000000 		.4byte	.LLST136
 13122 423a 4A000000 		.4byte	.LVUS136
 13123 423e 00       		.byte	0
 13124 423f 33       		.uleb128 0x33
 13125 4240 D2230000 		.4byte	.LASF828
 13126 4244 01       		.byte	0x1
 13127 4245 C304     		.2byte	0x4c3
 13128 4247 06       		.byte	0x6
 13129 4248 A00C0000 		.4byte	.LFB390
 13130 424c 16000000 		.4byte	.LFE390-.LFB390
 13131 4250 01       		.uleb128 0x1
 13132 4251 9C       		.byte	0x9c
 13133 4252 7A420000 		.4byte	0x427a
 13134 4256 34       		.uleb128 0x34
 13135 4257 FE1F0000 		.4byte	.LASF826
 13136 425b 01       		.byte	0x1
 13137 425c C304     		.2byte	0x4c3
 13138 425e 23       		.byte	0x23
 13139 425f 51370000 		.4byte	0x3751
 13140 4263 01       		.uleb128 0x1
ARM GAS  /tmp/ccfraM8n.s 			page 232


 13141 4264 50       		.byte	0x50
 13142 4265 35       		.uleb128 0x35
 13143 4266 657000   		.ascii	"ep\000"
 13144 4269 01       		.byte	0x1
 13145 426a C304     		.2byte	0x4c3
 13146 426c 31       		.byte	0x31
 13147 426d EF350000 		.4byte	0x35ef
 13148 4271 73000000 		.4byte	.LLST135
 13149 4275 6F000000 		.4byte	.LVUS135
 13150 4279 00       		.byte	0
 13151 427a 33       		.uleb128 0x33
 13152 427b DD050000 		.4byte	.LASF829
 13153 427f 01       		.byte	0x1
 13154 4280 9804     		.2byte	0x498
 13155 4282 06       		.byte	0x6
 13156 4283 F0060000 		.4byte	.LFB389
 13157 4287 A2000000 		.4byte	.LFE389-.LFB389
 13158 428b 01       		.uleb128 0x1
 13159 428c 9C       		.byte	0x9c
 13160 428d EB420000 		.4byte	0x42eb
 13161 4291 36       		.uleb128 0x36
 13162 4292 FE1F0000 		.4byte	.LASF826
 13163 4296 01       		.byte	0x1
 13164 4297 9804     		.2byte	0x498
 13165 4299 22       		.byte	0x22
 13166 429a 51370000 		.4byte	0x3751
 13167 429e 98000000 		.4byte	.LLST80
 13168 42a2 94000000 		.4byte	.LVUS80
 13169 42a6 35       		.uleb128 0x35
 13170 42a7 657000   		.ascii	"ep\000"
 13171 42aa 01       		.byte	0x1
 13172 42ab 9804     		.2byte	0x498
 13173 42ad 30       		.byte	0x30
 13174 42ae EF350000 		.4byte	0x35ef
 13175 42b2 BF000000 		.4byte	.LLST81
 13176 42b6 B9000000 		.4byte	.LVUS81
 13177 42ba 37       		.uleb128 0x37
 13178 42bb 69737000 		.ascii	"isp\000"
 13179 42bf 01       		.byte	0x1
 13180 42c0 9904     		.2byte	0x499
 13181 42c2 17       		.byte	0x17
 13182 42c3 F73E0000 		.4byte	0x3ef7
 13183 42c7 F9000000 		.4byte	.LLST82
 13184 42cb EB000000 		.4byte	.LVUS82
 13185 42cf 38       		.uleb128 0x38
 13186 42d0 48030000 		.4byte	.Ldebug_ranges0+0x348
 13187 42d4 39       		.uleb128 0x39
 13188 42d5 7F180000 		.4byte	.LASF830
 13189 42d9 01       		.byte	0x1
 13190 42da A604     		.2byte	0x4a6
 13191 42dc 0E       		.byte	0xe
 13192 42dd 94090000 		.4byte	0x994
 13193 42e1 6A010000 		.4byte	.LLST83
 13194 42e5 68010000 		.4byte	.LVUS83
 13195 42e9 00       		.byte	0
 13196 42ea 00       		.byte	0
 13197 42eb 33       		.uleb128 0x33
ARM GAS  /tmp/ccfraM8n.s 			page 233


 13198 42ec ED090000 		.4byte	.LASF831
 13199 42f0 01       		.byte	0x1
 13200 42f1 6D04     		.2byte	0x46d
 13201 42f3 06       		.byte	0x6
 13202 42f4 A0050000 		.4byte	.LFB388
 13203 42f8 88000000 		.4byte	.LFE388-.LFB388
 13204 42fc 01       		.uleb128 0x1
 13205 42fd 9C       		.byte	0x9c
 13206 42fe 6B430000 		.4byte	0x436b
 13207 4302 36       		.uleb128 0x36
 13208 4303 FE1F0000 		.4byte	.LASF826
 13209 4307 01       		.byte	0x1
 13210 4308 6D04     		.2byte	0x46d
 13211 430a 23       		.byte	0x23
 13212 430b 51370000 		.4byte	0x3751
 13213 430f 95010000 		.4byte	.LLST65
 13214 4313 8D010000 		.4byte	.LVUS65
 13215 4317 35       		.uleb128 0x35
 13216 4318 657000   		.ascii	"ep\000"
 13217 431b 01       		.byte	0x1
 13218 431c 6D04     		.2byte	0x46d
 13219 431e 31       		.byte	0x31
 13220 431f EF350000 		.4byte	0x35ef
 13221 4323 D7010000 		.4byte	.LLST66
 13222 4327 CF010000 		.4byte	.LVUS66
 13223 432b 39       		.uleb128 0x39
 13224 432c 7F180000 		.4byte	.LASF830
 13225 4330 01       		.byte	0x1
 13226 4331 6E04     		.2byte	0x46e
 13227 4333 0C       		.byte	0xc
 13228 4334 94090000 		.4byte	0x994
 13229 4338 15020000 		.4byte	.LLST67
 13230 433c 11020000 		.4byte	.LVUS67
 13231 4340 39       		.uleb128 0x39
 13232 4341 C2120000 		.4byte	.LASF778
 13233 4345 01       		.byte	0x1
 13234 4346 6E04     		.2byte	0x46e
 13235 4348 12       		.byte	0x12
 13236 4349 94090000 		.4byte	0x994
 13237 434d 3D020000 		.4byte	.LLST68
 13238 4351 33020000 		.4byte	.LVUS68
 13239 4355 37       		.uleb128 0x37
 13240 4356 6F737000 		.ascii	"osp\000"
 13241 435a 01       		.byte	0x1
 13242 435b 6F04     		.2byte	0x46f
 13243 435d 18       		.byte	0x18
 13244 435e FD3E0000 		.4byte	0x3efd
 13245 4362 E3020000 		.4byte	.LLST69
 13246 4366 D7020000 		.4byte	.LVUS69
 13247 436a 00       		.byte	0
 13248 436b 33       		.uleb128 0x33
 13249 436c DA090000 		.4byte	.LASF832
 13250 4370 01       		.byte	0x1
 13251 4371 6004     		.2byte	0x460
 13252 4373 06       		.byte	0x6
 13253 4374 80050000 		.4byte	.LFB387
 13254 4378 12000000 		.4byte	.LFE387-.LFB387
ARM GAS  /tmp/ccfraM8n.s 			page 234


 13255 437c 01       		.uleb128 0x1
 13256 437d 9C       		.byte	0x9c
 13257 437e B5430000 		.4byte	0x43b5
 13258 4382 34       		.uleb128 0x34
 13259 4383 FE1F0000 		.4byte	.LASF826
 13260 4387 01       		.byte	0x1
 13261 4388 6004     		.2byte	0x460
 13262 438a 24       		.byte	0x24
 13263 438b 51370000 		.4byte	0x3751
 13264 438f 01       		.uleb128 0x1
 13265 4390 50       		.byte	0x50
 13266 4391 35       		.uleb128 0x35
 13267 4392 657000   		.ascii	"ep\000"
 13268 4395 01       		.byte	0x1
 13269 4396 6004     		.2byte	0x460
 13270 4398 32       		.byte	0x32
 13271 4399 EF350000 		.4byte	0x35ef
 13272 439d 55030000 		.4byte	.LLST64
 13273 43a1 51030000 		.4byte	.LVUS64
 13274 43a5 3A       		.uleb128 0x3a
 13275 43a6 62756600 		.ascii	"buf\000"
 13276 43aa 01       		.byte	0x1
 13277 43ab 6004     		.2byte	0x460
 13278 43ad 3F       		.byte	0x3f
 13279 43ae 8F200000 		.4byte	0x208f
 13280 43b2 01       		.uleb128 0x1
 13281 43b3 52       		.byte	0x52
 13282 43b4 00       		.byte	0
 13283 43b5 3B       		.uleb128 0x3b
 13284 43b6 5D130000 		.4byte	.LASF833
 13285 43ba 01       		.byte	0x1
 13286 43bb 4504     		.2byte	0x445
 13287 43bd 0F       		.byte	0xf
 13288 43be 5F360000 		.4byte	0x365f
 13289 43c2 60050000 		.4byte	.LFB386
 13290 43c6 1C000000 		.4byte	.LFE386-.LFB386
 13291 43ca 01       		.uleb128 0x1
 13292 43cb 9C       		.byte	0x9c
 13293 43cc 0F440000 		.4byte	0x440f
 13294 43d0 36       		.uleb128 0x36
 13295 43d1 FE1F0000 		.4byte	.LASF826
 13296 43d5 01       		.byte	0x1
 13297 43d6 4504     		.2byte	0x445
 13298 43d8 30       		.byte	0x30
 13299 43d9 51370000 		.4byte	0x3751
 13300 43dd 7A030000 		.4byte	.LLST61
 13301 43e1 76030000 		.4byte	.LVUS61
 13302 43e5 35       		.uleb128 0x35
 13303 43e6 657000   		.ascii	"ep\000"
 13304 43e9 01       		.byte	0x1
 13305 43ea 4504     		.2byte	0x445
 13306 43ec 3E       		.byte	0x3e
 13307 43ed EF350000 		.4byte	0x35ef
 13308 43f1 9F030000 		.4byte	.LLST62
 13309 43f5 9B030000 		.4byte	.LVUS62
 13310 43f9 37       		.uleb128 0x37
 13311 43fa 63746C00 		.ascii	"ctl\000"
ARM GAS  /tmp/ccfraM8n.s 			page 235


 13312 43fe 01       		.byte	0x1
 13313 43ff 4604     		.2byte	0x446
 13314 4401 0C       		.byte	0xc
 13315 4402 94090000 		.4byte	0x994
 13316 4406 C2030000 		.4byte	.LLST63
 13317 440a C0030000 		.4byte	.LVUS63
 13318 440e 00       		.byte	0
 13319 440f 3B       		.uleb128 0x3b
 13320 4410 D61E0000 		.4byte	.LASF834
 13321 4414 01       		.byte	0x1
 13322 4415 2C04     		.2byte	0x42c
 13323 4417 0F       		.byte	0xf
 13324 4418 5F360000 		.4byte	0x365f
 13325 441c 40050000 		.4byte	.LFB385
 13326 4420 1C000000 		.4byte	.LFE385-.LFB385
 13327 4424 01       		.uleb128 0x1
 13328 4425 9C       		.byte	0x9c
 13329 4426 69440000 		.4byte	0x4469
 13330 442a 36       		.uleb128 0x36
 13331 442b FE1F0000 		.4byte	.LASF826
 13332 442f 01       		.byte	0x1
 13333 4430 2C04     		.2byte	0x42c
 13334 4432 31       		.byte	0x31
 13335 4433 51370000 		.4byte	0x3751
 13336 4437 D9030000 		.4byte	.LLST58
 13337 443b D5030000 		.4byte	.LVUS58
 13338 443f 35       		.uleb128 0x35
 13339 4440 657000   		.ascii	"ep\000"
 13340 4443 01       		.byte	0x1
 13341 4444 2C04     		.2byte	0x42c
 13342 4446 3F       		.byte	0x3f
 13343 4447 EF350000 		.4byte	0x35ef
 13344 444b FE030000 		.4byte	.LLST59
 13345 444f FA030000 		.4byte	.LVUS59
 13346 4453 37       		.uleb128 0x37
 13347 4454 63746C00 		.ascii	"ctl\000"
 13348 4458 01       		.byte	0x1
 13349 4459 2D04     		.2byte	0x42d
 13350 445b 0C       		.byte	0xc
 13351 445c 94090000 		.4byte	0x994
 13352 4460 21040000 		.4byte	.LLST60
 13353 4464 1F040000 		.4byte	.LVUS60
 13354 4468 00       		.byte	0
 13355 4469 33       		.uleb128 0x33
 13356 446a 6B1B0000 		.4byte	.LASF835
 13357 446e 01       		.byte	0x1
 13358 446f 1704     		.2byte	0x417
 13359 4471 06       		.byte	0x6
 13360 4472 E0040000 		.4byte	.LFB384
 13361 4476 5E000000 		.4byte	.LFE384-.LFB384
 13362 447a 01       		.uleb128 0x1
 13363 447b 9C       		.byte	0x9c
 13364 447c 04450000 		.4byte	0x4504
 13365 4480 36       		.uleb128 0x36
 13366 4481 FE1F0000 		.4byte	.LASF826
 13367 4485 01       		.byte	0x1
 13368 4486 1704     		.2byte	0x417
ARM GAS  /tmp/ccfraM8n.s 			page 236


 13369 4488 2B       		.byte	0x2b
 13370 4489 51370000 		.4byte	0x3751
 13371 448d 38040000 		.4byte	.LLST53
 13372 4491 34040000 		.4byte	.LVUS53
 13373 4495 3C       		.uleb128 0x3c
 13374 4496 B5550000 		.4byte	0x55b5
 13375 449a F2040000 		.4byte	.LBI360
 13376 449e 0100     		.2byte	.LVU488
 13377 44a0 30010000 		.4byte	.Ldebug_ranges0+0x130
 13378 44a4 01       		.byte	0x1
 13379 44a5 1D04     		.2byte	0x41d
 13380 44a7 03       		.byte	0x3
 13381 44a8 E7440000 		.4byte	0x44e7
 13382 44ac 3D       		.uleb128 0x3d
 13383 44ad C2550000 		.4byte	0x55c2
 13384 44b1 5D040000 		.4byte	.LLST54
 13385 44b5 59040000 		.4byte	.LVUS54
 13386 44b9 3D       		.uleb128 0x3d
 13387 44ba C2550000 		.4byte	0x55c2
 13388 44be 82040000 		.4byte	.LLST55
 13389 44c2 7E040000 		.4byte	.LVUS55
 13390 44c6 38       		.uleb128 0x38
 13391 44c7 30010000 		.4byte	.Ldebug_ranges0+0x130
 13392 44cb 3E       		.uleb128 0x3e
 13393 44cc CE550000 		.4byte	0x55ce
 13394 44d0 A5040000 		.4byte	.LLST56
 13395 44d4 A3040000 		.4byte	.LVUS56
 13396 44d8 3E       		.uleb128 0x3e
 13397 44d9 DA550000 		.4byte	0x55da
 13398 44dd BE040000 		.4byte	.LLST57
 13399 44e1 B8040000 		.4byte	.LVUS57
 13400 44e5 00       		.byte	0
 13401 44e6 00       		.byte	0
 13402 44e7 3F       		.uleb128 0x3f
 13403 44e8 43550000 		.4byte	0x5543
 13404 44ec EC040000 		.4byte	.LBB363
 13405 44f0 06000000 		.4byte	.LBE363-.LBB363
 13406 44f4 01       		.byte	0x1
 13407 44f5 1A04     		.2byte	0x41a
 13408 44f7 03       		.byte	0x3
 13409 44f8 40       		.uleb128 0x40
 13410 44f9 50550000 		.4byte	0x5550
 13411 44fd 40       		.uleb128 0x40
 13412 44fe 50550000 		.4byte	0x5550
 13413 4502 00       		.byte	0
 13414 4503 00       		.byte	0
 13415 4504 33       		.uleb128 0x33
 13416 4505 C7200000 		.4byte	.LASF836
 13417 4509 01       		.byte	0x1
 13418 450a D703     		.2byte	0x3d7
 13419 450c 06       		.byte	0x6
 13420 450d A0030000 		.4byte	.LFB383
 13421 4511 38010000 		.4byte	.LFE383-.LFB383
 13422 4515 01       		.uleb128 0x1
 13423 4516 9C       		.byte	0x9c
 13424 4517 C5460000 		.4byte	0x46c5
 13425 451b 36       		.uleb128 0x36
ARM GAS  /tmp/ccfraM8n.s 			page 237


 13426 451c FE1F0000 		.4byte	.LASF826
 13427 4520 01       		.byte	0x1
 13428 4521 D703     		.2byte	0x3d7
 13429 4523 27       		.byte	0x27
 13430 4524 51370000 		.4byte	0x3751
 13431 4528 F2040000 		.4byte	.LLST37
 13432 452c E8040000 		.4byte	.LVUS37
 13433 4530 35       		.uleb128 0x35
 13434 4531 657000   		.ascii	"ep\000"
 13435 4534 01       		.byte	0x1
 13436 4535 D703     		.2byte	0x3d7
 13437 4537 35       		.byte	0x35
 13438 4538 EF350000 		.4byte	0x35ef
 13439 453c 3B050000 		.4byte	.LLST38
 13440 4540 37050000 		.4byte	.LVUS38
 13441 4544 37       		.uleb128 0x37
 13442 4545 63746C00 		.ascii	"ctl\000"
 13443 4549 01       		.byte	0x1
 13444 454a D803     		.2byte	0x3d8
 13445 454c 0C       		.byte	0xc
 13446 454d 94090000 		.4byte	0x994
 13447 4551 5E050000 		.4byte	.LLST39
 13448 4555 5C050000 		.4byte	.LVUS39
 13449 4559 39       		.uleb128 0x39
 13450 455a 0D140000 		.4byte	.LASF837
 13451 455e 01       		.byte	0x1
 13452 455f D803     		.2byte	0x3d8
 13453 4561 11       		.byte	0x11
 13454 4562 94090000 		.4byte	0x994
 13455 4566 73050000 		.4byte	.LLST40
 13456 456a 71050000 		.4byte	.LVUS40
 13457 456e 39       		.uleb128 0x39
 13458 456f A1190000 		.4byte	.LASF838
 13459 4573 01       		.byte	0x1
 13460 4574 D903     		.2byte	0x3d9
 13461 4576 10       		.byte	0x10
 13462 4577 A63F0000 		.4byte	0x3fa6
 13463 457b 88050000 		.4byte	.LLST41
 13464 457f 86050000 		.4byte	.LVUS41
 13465 4583 3C       		.uleb128 0x3c
 13466 4584 EF540000 		.4byte	0x54ef
 13467 4588 32040000 		.4byte	.LBI346
 13468 458c 0100     		.2byte	.LVU413
 13469 458e 10010000 		.4byte	.Ldebug_ranges0+0x110
 13470 4592 01       		.byte	0x1
 13471 4593 0004     		.2byte	0x400
 13472 4595 1D       		.byte	0x1d
 13473 4596 C8450000 		.4byte	0x45c8
 13474 459a 3D       		.uleb128 0x3d
 13475 459b 00550000 		.4byte	0x5500
 13476 459f 9F050000 		.4byte	.LLST42
 13477 45a3 9B050000 		.4byte	.LVUS42
 13478 45a7 3D       		.uleb128 0x3d
 13479 45a8 0C550000 		.4byte	0x550c
 13480 45ac C2050000 		.4byte	.LLST43
 13481 45b0 C0050000 		.4byte	.LVUS43
 13482 45b4 38       		.uleb128 0x38
ARM GAS  /tmp/ccfraM8n.s 			page 238


 13483 45b5 10010000 		.4byte	.Ldebug_ranges0+0x110
 13484 45b9 3E       		.uleb128 0x3e
 13485 45ba 18550000 		.4byte	0x5518
 13486 45be D7050000 		.4byte	.LLST44
 13487 45c2 D5050000 		.4byte	.LVUS44
 13488 45c6 00       		.byte	0
 13489 45c7 00       		.byte	0
 13490 45c8 41       		.uleb128 0x41
 13491 45c9 5D550000 		.4byte	0x555d
 13492 45cd 40040000 		.4byte	.LBI352
 13493 45d1 0100     		.2byte	.LVU426
 13494 45d3 40040000 		.4byte	.LBB352
 13495 45d7 0E000000 		.4byte	.LBE352-.LBB352
 13496 45db 01       		.byte	0x1
 13497 45dc 0104     		.2byte	0x401
 13498 45de 05       		.byte	0x5
 13499 45df 48460000 		.4byte	0x4648
 13500 45e3 3D       		.uleb128 0x3d
 13501 45e4 6A550000 		.4byte	0x556a
 13502 45e8 EE050000 		.4byte	.LLST45
 13503 45ec EA050000 		.4byte	.LVUS45
 13504 45f0 3D       		.uleb128 0x3d
 13505 45f1 76550000 		.4byte	0x5576
 13506 45f5 11060000 		.4byte	.LLST46
 13507 45f9 0F060000 		.4byte	.LVUS46
 13508 45fd 42       		.uleb128 0x42
 13509 45fe 40040000 		.4byte	.LBB353
 13510 4602 0E000000 		.4byte	.LBE353-.LBB353
 13511 4606 3E       		.uleb128 0x3e
 13512 4607 82550000 		.4byte	0x5582
 13513 460b 2B060000 		.4byte	.LLST47
 13514 460f 29060000 		.4byte	.LVUS47
 13515 4613 43       		.uleb128 0x43
 13516 4614 34560000 		.4byte	0x5634
 13517 4618 48040000 		.4byte	.LBI354
 13518 461c 0100     		.2byte	.LVU435
 13519 461e 48040000 		.4byte	.LBB354
 13520 4622 06000000 		.4byte	.LBE354-.LBB354
 13521 4626 01       		.byte	0x1
 13522 4627 BF       		.byte	0xbf
 13523 4628 03       		.byte	0x3
 13524 4629 3D       		.uleb128 0x3d
 13525 462a 42560000 		.4byte	0x5642
 13526 462e 40060000 		.4byte	.LLST48
 13527 4632 3E060000 		.4byte	.LVUS48
 13528 4636 44       		.uleb128 0x44
 13529 4637 4E040000 		.4byte	.LVL71
 13530 463b C55C0000 		.4byte	0x5cc5
 13531 463f 45       		.uleb128 0x45
 13532 4640 01       		.uleb128 0x1
 13533 4641 50       		.byte	0x50
 13534 4642 01       		.uleb128 0x1
 13535 4643 42       		.byte	0x42
 13536 4644 00       		.byte	0
 13537 4645 00       		.byte	0
 13538 4646 00       		.byte	0
 13539 4647 00       		.byte	0
ARM GAS  /tmp/ccfraM8n.s 			page 239


 13540 4648 46       		.uleb128 0x46
 13541 4649 5D550000 		.4byte	0x555d
 13542 464d 80040000 		.4byte	.LBI356
 13543 4651 0100     		.2byte	.LVU454
 13544 4653 80040000 		.4byte	.LBB356
 13545 4657 12000000 		.4byte	.LBE356-.LBB356
 13546 465b 01       		.byte	0x1
 13547 465c 0A04     		.2byte	0x40a
 13548 465e 05       		.byte	0x5
 13549 465f 3D       		.uleb128 0x3d
 13550 4660 6A550000 		.4byte	0x556a
 13551 4664 58060000 		.4byte	.LLST49
 13552 4668 54060000 		.4byte	.LVUS49
 13553 466c 3D       		.uleb128 0x3d
 13554 466d 76550000 		.4byte	0x5576
 13555 4671 7B060000 		.4byte	.LLST50
 13556 4675 79060000 		.4byte	.LVUS50
 13557 4679 42       		.uleb128 0x42
 13558 467a 80040000 		.4byte	.LBB357
 13559 467e 12000000 		.4byte	.LBE357-.LBB357
 13560 4682 3E       		.uleb128 0x3e
 13561 4683 82550000 		.4byte	0x5582
 13562 4687 95060000 		.4byte	.LLST51
 13563 468b 93060000 		.4byte	.LVUS51
 13564 468f 43       		.uleb128 0x43
 13565 4690 34560000 		.4byte	0x5634
 13566 4694 88040000 		.4byte	.LBI358
 13567 4698 0100     		.2byte	.LVU463
 13568 469a 88040000 		.4byte	.LBB358
 13569 469e 0A000000 		.4byte	.LBE358-.LBB358
 13570 46a2 01       		.byte	0x1
 13571 46a3 BF       		.byte	0xbf
 13572 46a4 03       		.byte	0x3
 13573 46a5 3D       		.uleb128 0x3d
 13574 46a6 42560000 		.4byte	0x5642
 13575 46aa AA060000 		.4byte	.LLST52
 13576 46ae A8060000 		.4byte	.LVUS52
 13577 46b2 44       		.uleb128 0x44
 13578 46b3 92040000 		.4byte	.LVL76
 13579 46b7 C55C0000 		.4byte	0x5cc5
 13580 46bb 45       		.uleb128 0x45
 13581 46bc 01       		.uleb128 0x1
 13582 46bd 50       		.byte	0x50
 13583 46be 01       		.uleb128 0x1
 13584 46bf 42       		.byte	0x42
 13585 46c0 00       		.byte	0
 13586 46c1 00       		.byte	0
 13587 46c2 00       		.byte	0
 13588 46c3 00       		.byte	0
 13589 46c4 00       		.byte	0
 13590 46c5 33       		.uleb128 0x33
 13591 46c6 16120000 		.4byte	.LASF839
 13592 46ca 01       		.byte	0x1
 13593 46cb C903     		.2byte	0x3c9
 13594 46cd 06       		.byte	0x6
 13595 46ce 80030000 		.4byte	.LFB382
 13596 46d2 1A000000 		.4byte	.LFE382-.LFB382
ARM GAS  /tmp/ccfraM8n.s 			page 240


 13597 46d6 01       		.uleb128 0x1
 13598 46d7 9C       		.byte	0x9c
 13599 46d8 01470000 		.4byte	0x4701
 13600 46dc 34       		.uleb128 0x34
 13601 46dd FE1F0000 		.4byte	.LASF826
 13602 46e1 01       		.byte	0x1
 13603 46e2 C903     		.2byte	0x3c9
 13604 46e4 25       		.byte	0x25
 13605 46e5 51370000 		.4byte	0x3751
 13606 46e9 01       		.uleb128 0x1
 13607 46ea 50       		.byte	0x50
 13608 46eb 39       		.uleb128 0x39
 13609 46ec A1190000 		.4byte	.LASF838
 13610 46f0 01       		.byte	0x1
 13611 46f1 CA03     		.2byte	0x3ca
 13612 46f3 10       		.byte	0x10
 13613 46f4 A63F0000 		.4byte	0x3fa6
 13614 46f8 C0060000 		.4byte	.LLST36
 13615 46fc BE060000 		.4byte	.LVUS36
 13616 4700 00       		.byte	0
 13617 4701 33       		.uleb128 0x33
 13618 4702 2C130000 		.4byte	.LASF840
 13619 4706 01       		.byte	0x1
 13620 4707 9303     		.2byte	0x393
 13621 4709 06       		.byte	0x6
 13622 470a B0020000 		.4byte	.LFB381
 13623 470e D0000000 		.4byte	.LFE381-.LFB381
 13624 4712 01       		.uleb128 0x1
 13625 4713 9C       		.byte	0x9c
 13626 4714 A8480000 		.4byte	0x48a8
 13627 4718 36       		.uleb128 0x36
 13628 4719 FE1F0000 		.4byte	.LASF826
 13629 471d 01       		.byte	0x1
 13630 471e 9303     		.2byte	0x393
 13631 4720 1F       		.byte	0x1f
 13632 4721 51370000 		.4byte	0x3751
 13633 4725 D9060000 		.4byte	.LLST21
 13634 4729 D3060000 		.4byte	.LVUS21
 13635 472d 37       		.uleb128 0x37
 13636 472e 6900     		.ascii	"i\000"
 13637 4730 01       		.byte	0x1
 13638 4731 9403     		.2byte	0x394
 13639 4733 0C       		.byte	0xc
 13640 4734 25000000 		.4byte	0x25
 13641 4738 0B070000 		.4byte	.LLST22
 13642 473c 05070000 		.4byte	.LVUS22
 13643 4740 39       		.uleb128 0x39
 13644 4741 A1190000 		.4byte	.LASF838
 13645 4745 01       		.byte	0x1
 13646 4746 9503     		.2byte	0x395
 13647 4748 10       		.byte	0x10
 13648 4749 A63F0000 		.4byte	0x3fa6
 13649 474d 38070000 		.4byte	.LLST23
 13650 4751 36070000 		.4byte	.LVUS23
 13651 4755 3C       		.uleb128 0x3c
 13652 4756 5D550000 		.4byte	0x555d
 13653 475a BA020000 		.4byte	.LBI322
ARM GAS  /tmp/ccfraM8n.s 			page 241


 13654 475e 0000     		.2byte	.LVU259
 13655 4760 90000000 		.4byte	.Ldebug_ranges0+0x90
 13656 4764 01       		.byte	0x1
 13657 4765 9803     		.2byte	0x398
 13658 4767 03       		.byte	0x3
 13659 4768 CD470000 		.4byte	0x47cd
 13660 476c 3D       		.uleb128 0x3d
 13661 476d 6A550000 		.4byte	0x556a
 13662 4771 51070000 		.4byte	.LLST24
 13663 4775 4B070000 		.4byte	.LVUS24
 13664 4779 3D       		.uleb128 0x3d
 13665 477a 76550000 		.4byte	0x5576
 13666 477e 7F070000 		.4byte	.LLST25
 13667 4782 7D070000 		.4byte	.LVUS25
 13668 4786 38       		.uleb128 0x38
 13669 4787 90000000 		.4byte	.Ldebug_ranges0+0x90
 13670 478b 3E       		.uleb128 0x3e
 13671 478c 82550000 		.4byte	0x5582
 13672 4790 95070000 		.4byte	.LLST26
 13673 4794 93070000 		.4byte	.LVUS26
 13674 4798 43       		.uleb128 0x43
 13675 4799 34560000 		.4byte	0x5634
 13676 479d C4020000 		.4byte	.LBI324
 13677 47a1 0100     		.2byte	.LVU268
 13678 47a3 C4020000 		.4byte	.LBB324
 13679 47a7 06000000 		.4byte	.LBE324-.LBB324
 13680 47ab 01       		.byte	0x1
 13681 47ac BF       		.byte	0xbf
 13682 47ad 03       		.byte	0x3
 13683 47ae 3D       		.uleb128 0x3d
 13684 47af 42560000 		.4byte	0x5642
 13685 47b3 AA070000 		.4byte	.LLST27
 13686 47b7 A8070000 		.4byte	.LVUS27
 13687 47bb 44       		.uleb128 0x44
 13688 47bc CA020000 		.4byte	.LVL44
 13689 47c0 C55C0000 		.4byte	0x5cc5
 13690 47c4 45       		.uleb128 0x45
 13691 47c5 01       		.uleb128 0x1
 13692 47c6 50       		.byte	0x50
 13693 47c7 01       		.uleb128 0x1
 13694 47c8 42       		.byte	0x42
 13695 47c9 00       		.byte	0
 13696 47ca 00       		.byte	0
 13697 47cb 00       		.byte	0
 13698 47cc 00       		.byte	0
 13699 47cd 3C       		.uleb128 0x3c
 13700 47ce 43550000 		.4byte	0x5543
 13701 47d2 02030000 		.4byte	.LBI328
 13702 47d6 0100     		.2byte	.LVU294
 13703 47d8 A8000000 		.4byte	.Ldebug_ranges0+0xa8
 13704 47dc 01       		.byte	0x1
 13705 47dd A703     		.2byte	0x3a7
 13706 47df 03       		.byte	0x3
 13707 47e0 FF470000 		.4byte	0x47ff
 13708 47e4 3D       		.uleb128 0x3d
 13709 47e5 50550000 		.4byte	0x5550
 13710 47e9 C2070000 		.4byte	.LLST28
ARM GAS  /tmp/ccfraM8n.s 			page 242


 13711 47ed BE070000 		.4byte	.LVUS28
 13712 47f1 3D       		.uleb128 0x3d
 13713 47f2 50550000 		.4byte	0x5550
 13714 47f6 E7070000 		.4byte	.LLST29
 13715 47fa E3070000 		.4byte	.LVUS29
 13716 47fe 00       		.byte	0
 13717 47ff 3C       		.uleb128 0x3c
 13718 4800 8F550000 		.4byte	0x558f
 13719 4804 16030000 		.4byte	.LBI331
 13720 4808 0100     		.2byte	.LVU304
 13721 480a C0000000 		.4byte	.Ldebug_ranges0+0xc0
 13722 480e 01       		.byte	0x1
 13723 480f AB03     		.2byte	0x3ab
 13724 4811 03       		.byte	0x3
 13725 4812 66480000 		.4byte	0x4866
 13726 4816 3D       		.uleb128 0x3d
 13727 4817 9C550000 		.4byte	0x559c
 13728 481b 0C080000 		.4byte	.LLST30
 13729 481f 08080000 		.4byte	.LVUS30
 13730 4823 38       		.uleb128 0x38
 13731 4824 C0000000 		.4byte	.Ldebug_ranges0+0xc0
 13732 4828 3E       		.uleb128 0x3e
 13733 4829 A8550000 		.4byte	0x55a8
 13734 482d 2F080000 		.4byte	.LLST31
 13735 4831 2D080000 		.4byte	.LVUS31
 13736 4835 47       		.uleb128 0x47
 13737 4836 34560000 		.4byte	0x5634
 13738 483a 20030000 		.4byte	.LBI333
 13739 483e 0100     		.2byte	.LVU313
 13740 4840 E0000000 		.4byte	.Ldebug_ranges0+0xe0
 13741 4844 01       		.byte	0x1
 13742 4845 B5       		.byte	0xb5
 13743 4846 03       		.byte	0x3
 13744 4847 3D       		.uleb128 0x3d
 13745 4848 42560000 		.4byte	0x5642
 13746 484c 44080000 		.4byte	.LLST32
 13747 4850 42080000 		.4byte	.LVUS32
 13748 4854 44       		.uleb128 0x44
 13749 4855 28030000 		.4byte	.LVL52
 13750 4859 C55C0000 		.4byte	0x5cc5
 13751 485d 45       		.uleb128 0x45
 13752 485e 01       		.uleb128 0x1
 13753 485f 50       		.byte	0x50
 13754 4860 01       		.uleb128 0x1
 13755 4861 42       		.byte	0x42
 13756 4862 00       		.byte	0
 13757 4863 00       		.byte	0
 13758 4864 00       		.byte	0
 13759 4865 00       		.byte	0
 13760 4866 48       		.uleb128 0x48
 13761 4867 EF540000 		.4byte	0x54ef
 13762 486b 5E030000 		.4byte	.LBI342
 13763 486f 0100     		.2byte	.LVU345
 13764 4871 F8000000 		.4byte	.Ldebug_ranges0+0xf8
 13765 4875 01       		.byte	0x1
 13766 4876 BE03     		.2byte	0x3be
 13767 4878 14       		.byte	0x14
ARM GAS  /tmp/ccfraM8n.s 			page 243


 13768 4879 3D       		.uleb128 0x3d
 13769 487a 00550000 		.4byte	0x5500
 13770 487e 5C080000 		.4byte	.LLST33
 13771 4882 58080000 		.4byte	.LVUS33
 13772 4886 3D       		.uleb128 0x3d
 13773 4887 0C550000 		.4byte	0x550c
 13774 488b 7F080000 		.4byte	.LLST34
 13775 488f 7D080000 		.4byte	.LVUS34
 13776 4893 38       		.uleb128 0x38
 13777 4894 F8000000 		.4byte	.Ldebug_ranges0+0xf8
 13778 4898 3E       		.uleb128 0x3e
 13779 4899 18550000 		.4byte	0x5518
 13780 489d 99080000 		.4byte	.LLST35
 13781 48a1 93080000 		.4byte	.LVUS35
 13782 48a5 00       		.byte	0
 13783 48a6 00       		.byte	0
 13784 48a7 00       		.byte	0
 13785 48a8 33       		.uleb128 0x33
 13786 48a9 F9020000 		.4byte	.LASF841
 13787 48ad 01       		.byte	0x1
 13788 48ae 6B03     		.2byte	0x36b
 13789 48b0 06       		.byte	0x6
 13790 48b1 10020000 		.4byte	.LFB380
 13791 48b5 A0000000 		.4byte	.LFE380-.LFB380
 13792 48b9 01       		.uleb128 0x1
 13793 48ba 9C       		.byte	0x9c
 13794 48bb 4C490000 		.4byte	0x494c
 13795 48bf 36       		.uleb128 0x36
 13796 48c0 FE1F0000 		.4byte	.LASF826
 13797 48c4 01       		.byte	0x1
 13798 48c5 6B03     		.2byte	0x36b
 13799 48c7 1E       		.byte	0x1e
 13800 48c8 51370000 		.4byte	0x3751
 13801 48cc CA080000 		.4byte	.LLST15
 13802 48d0 C6080000 		.4byte	.LVUS15
 13803 48d4 39       		.uleb128 0x39
 13804 48d5 A1190000 		.4byte	.LASF838
 13805 48d9 01       		.byte	0x1
 13806 48da 6C03     		.2byte	0x36c
 13807 48dc 10       		.byte	0x10
 13808 48dd A63F0000 		.4byte	0x3fa6
 13809 48e1 EF080000 		.4byte	.LLST16
 13810 48e5 EB080000 		.4byte	.LVUS16
 13811 48e9 3C       		.uleb128 0x3c
 13812 48ea B5550000 		.4byte	0x55b5
 13813 48ee 22020000 		.4byte	.LBI314
 13814 48f2 0100     		.2byte	.LVU202
 13815 48f4 68000000 		.4byte	.Ldebug_ranges0+0x68
 13816 48f8 01       		.byte	0x1
 13817 48f9 7303     		.2byte	0x373
 13818 48fb 05       		.byte	0x5
 13819 48fc 3B490000 		.4byte	0x493b
 13820 4900 3D       		.uleb128 0x3d
 13821 4901 C2550000 		.4byte	0x55c2
 13822 4905 1A090000 		.4byte	.LLST17
 13823 4909 14090000 		.4byte	.LVUS17
 13824 490d 3D       		.uleb128 0x3d
ARM GAS  /tmp/ccfraM8n.s 			page 244


 13825 490e C2550000 		.4byte	0x55c2
 13826 4912 4C090000 		.4byte	.LLST18
 13827 4916 46090000 		.4byte	.LVUS18
 13828 491a 38       		.uleb128 0x38
 13829 491b 68000000 		.4byte	.Ldebug_ranges0+0x68
 13830 491f 3E       		.uleb128 0x3e
 13831 4920 CE550000 		.4byte	0x55ce
 13832 4924 7A090000 		.4byte	.LLST19
 13833 4928 78090000 		.4byte	.LVUS19
 13834 492c 3E       		.uleb128 0x3e
 13835 492d DA550000 		.4byte	0x55da
 13836 4931 99090000 		.4byte	.LLST20
 13837 4935 8F090000 		.4byte	.LVUS20
 13838 4939 00       		.byte	0
 13839 493a 00       		.byte	0
 13840 493b 44       		.uleb128 0x44
 13841 493c 88020000 		.4byte	.LVL38
 13842 4940 D25C0000 		.4byte	0x5cd2
 13843 4944 45       		.uleb128 0x45
 13844 4945 01       		.uleb128 0x1
 13845 4946 50       		.byte	0x50
 13846 4947 02       		.uleb128 0x2
 13847 4948 08       		.byte	0x8
 13848 4949 65       		.byte	0x65
 13849 494a 00       		.byte	0
 13850 494b 00       		.byte	0
 13851 494c 33       		.uleb128 0x33
 13852 494d 700D0000 		.4byte	.LASF842
 13853 4951 01       		.byte	0x1
 13854 4952 E702     		.2byte	0x2e7
 13855 4954 06       		.byte	0x6
 13856 4955 D0000000 		.4byte	.LFB379
 13857 4959 40010000 		.4byte	.LFE379-.LFB379
 13858 495d 01       		.uleb128 0x1
 13859 495e 9C       		.byte	0x9c
 13860 495f 9B4A0000 		.4byte	0x4a9b
 13861 4963 36       		.uleb128 0x36
 13862 4964 FE1F0000 		.4byte	.LASF826
 13863 4968 01       		.byte	0x1
 13864 4969 E702     		.2byte	0x2e7
 13865 496b 1F       		.byte	0x1f
 13866 496c 51370000 		.4byte	0x3751
 13867 4970 E1090000 		.4byte	.LLST5
 13868 4974 D9090000 		.4byte	.LVUS5
 13869 4978 39       		.uleb128 0x39
 13870 4979 A1190000 		.4byte	.LASF838
 13871 497d 01       		.byte	0x1
 13872 497e E802     		.2byte	0x2e8
 13873 4980 10       		.byte	0x10
 13874 4981 A63F0000 		.4byte	0x3fa6
 13875 4985 1B0A0000 		.4byte	.LLST6
 13876 4989 150A0000 		.4byte	.LVUS6
 13877 498d 41       		.uleb128 0x41
 13878 498e E5550000 		.4byte	0x55e5
 13879 4992 F8000000 		.4byte	.LBI298
 13880 4996 0100     		.2byte	.LVU97
 13881 4998 F8000000 		.4byte	.LBB298
ARM GAS  /tmp/ccfraM8n.s 			page 245


 13882 499c 24000000 		.4byte	.LBE298-.LBB298
 13883 49a0 01       		.byte	0x1
 13884 49a1 4503     		.2byte	0x345
 13885 49a3 05       		.byte	0x5
 13886 49a4 334A0000 		.4byte	0x4a33
 13887 49a8 3D       		.uleb128 0x3d
 13888 49a9 F2550000 		.4byte	0x55f2
 13889 49ad 4C0A0000 		.4byte	.LLST7
 13890 49b1 4A0A0000 		.4byte	.LVUS7
 13891 49b5 42       		.uleb128 0x42
 13892 49b6 F8000000 		.4byte	.LBB299
 13893 49ba 24000000 		.4byte	.LBE299-.LBB299
 13894 49be 3E       		.uleb128 0x3e
 13895 49bf FE550000 		.4byte	0x55fe
 13896 49c3 610A0000 		.4byte	.LLST8
 13897 49c7 5F0A0000 		.4byte	.LVUS8
 13898 49cb 49       		.uleb128 0x49
 13899 49cc 34560000 		.4byte	0x5634
 13900 49d0 04010000 		.4byte	.LBI300
 13901 49d4 0100     		.2byte	.LVU108
 13902 49d6 28000000 		.4byte	.Ldebug_ranges0+0x28
 13903 49da 01       		.byte	0x1
 13904 49db 8F       		.byte	0x8f
 13905 49dc 03       		.byte	0x3
 13906 49dd FE490000 		.4byte	0x49fe
 13907 49e1 3D       		.uleb128 0x3d
 13908 49e2 42560000 		.4byte	0x5642
 13909 49e6 780A0000 		.4byte	.LLST9
 13910 49ea 760A0000 		.4byte	.LVUS9
 13911 49ee 44       		.uleb128 0x44
 13912 49ef 08010000 		.4byte	.LVL16
 13913 49f3 C55C0000 		.4byte	0x5cc5
 13914 49f7 45       		.uleb128 0x45
 13915 49f8 01       		.uleb128 0x1
 13916 49f9 50       		.byte	0x50
 13917 49fa 01       		.uleb128 0x1
 13918 49fb 3C       		.byte	0x3c
 13919 49fc 00       		.byte	0
 13920 49fd 00       		.byte	0
 13921 49fe 43       		.uleb128 0x43
 13922 49ff 34560000 		.4byte	0x5634
 13923 4a03 10010000 		.4byte	.LBI304
 13924 4a07 0100     		.2byte	.LVU115
 13925 4a09 10010000 		.4byte	.LBB304
 13926 4a0d 06000000 		.4byte	.LBE304-.LBB304
 13927 4a11 01       		.byte	0x1
 13928 4a12 93       		.byte	0x93
 13929 4a13 03       		.byte	0x3
 13930 4a14 3D       		.uleb128 0x3d
 13931 4a15 42560000 		.4byte	0x5642
 13932 4a19 8E0A0000 		.4byte	.LLST10
 13933 4a1d 8C0A0000 		.4byte	.LVUS10
 13934 4a21 44       		.uleb128 0x44
 13935 4a22 16010000 		.4byte	.LVL18
 13936 4a26 C55C0000 		.4byte	0x5cc5
 13937 4a2a 45       		.uleb128 0x45
 13938 4a2b 01       		.uleb128 0x1
ARM GAS  /tmp/ccfraM8n.s 			page 246


 13939 4a2c 50       		.byte	0x50
 13940 4a2d 01       		.uleb128 0x1
 13941 4a2e 42       		.byte	0x42
 13942 4a2f 00       		.byte	0
 13943 4a30 00       		.byte	0
 13944 4a31 00       		.byte	0
 13945 4a32 00       		.byte	0
 13946 4a33 3C       		.uleb128 0x3c
 13947 4a34 B5550000 		.4byte	0x55b5
 13948 4a38 28010000 		.4byte	.LBI306
 13949 4a3c 0100     		.2byte	.LVU127
 13950 4a3e 40000000 		.4byte	.Ldebug_ranges0+0x40
 13951 4a42 01       		.byte	0x1
 13952 4a43 4B03     		.2byte	0x34b
 13953 4a45 05       		.byte	0x5
 13954 4a46 854A0000 		.4byte	0x4a85
 13955 4a4a 3D       		.uleb128 0x3d
 13956 4a4b C2550000 		.4byte	0x55c2
 13957 4a4f A40A0000 		.4byte	.LLST11
 13958 4a53 A20A0000 		.4byte	.LVUS11
 13959 4a57 3D       		.uleb128 0x3d
 13960 4a58 C2550000 		.4byte	0x55c2
 13961 4a5c A40A0000 		.4byte	.LLST11
 13962 4a60 A20A0000 		.4byte	.LVUS11
 13963 4a64 38       		.uleb128 0x38
 13964 4a65 40000000 		.4byte	.Ldebug_ranges0+0x40
 13965 4a69 3E       		.uleb128 0x3e
 13966 4a6a CE550000 		.4byte	0x55ce
 13967 4a6e B90A0000 		.4byte	.LLST13
 13968 4a72 B70A0000 		.4byte	.LVUS13
 13969 4a76 3E       		.uleb128 0x3e
 13970 4a77 DA550000 		.4byte	0x55da
 13971 4a7b D40A0000 		.4byte	.LLST14
 13972 4a7f CC0A0000 		.4byte	.LVUS14
 13973 4a83 00       		.byte	0
 13974 4a84 00       		.byte	0
 13975 4a85 44       		.uleb128 0x44
 13976 4a86 E6010000 		.4byte	.LVL27
 13977 4a8a DE5C0000 		.4byte	0x5cde
 13978 4a8e 45       		.uleb128 0x45
 13979 4a8f 01       		.uleb128 0x1
 13980 4a90 50       		.byte	0x50
 13981 4a91 02       		.uleb128 0x2
 13982 4a92 08       		.byte	0x8
 13983 4a93 65       		.byte	0x65
 13984 4a94 45       		.uleb128 0x45
 13985 4a95 01       		.uleb128 0x1
 13986 4a96 51       		.byte	0x51
 13987 4a97 01       		.uleb128 0x1
 13988 4a98 3E       		.byte	0x3e
 13989 4a99 00       		.byte	0
 13990 4a9a 00       		.byte	0
 13991 4a9b 33       		.uleb128 0x33
 13992 4a9c 1D150000 		.4byte	.LASF843
 13993 4aa0 01       		.byte	0x1
 13994 4aa1 CC02     		.2byte	0x2cc
 13995 4aa3 06       		.byte	0x6
ARM GAS  /tmp/ccfraM8n.s 			page 247


 13996 4aa4 B0000000 		.4byte	.LFB378
 13997 4aa8 20000000 		.4byte	.LFE378-.LFB378
 13998 4aac 01       		.uleb128 0x1
 13999 4aad 9C       		.byte	0x9c
 14000 4aae C34A0000 		.4byte	0x4ac3
 14001 4ab2 44       		.uleb128 0x44
 14002 4ab3 BA000000 		.4byte	.LVL11
 14003 4ab7 EA5C0000 		.4byte	0x5cea
 14004 4abb 45       		.uleb128 0x45
 14005 4abc 01       		.uleb128 0x1
 14006 4abd 50       		.byte	0x50
 14007 4abe 02       		.uleb128 0x2
 14008 4abf 74       		.byte	0x74
 14009 4ac0 00       		.sleb128 0
 14010 4ac1 00       		.byte	0
 14011 4ac2 00       		.byte	0
 14012 4ac3 33       		.uleb128 0x33
 14013 4ac4 32180000 		.4byte	.LASF844
 14014 4ac8 01       		.byte	0x1
 14015 4ac9 A902     		.2byte	0x2a9
 14016 4acb 01       		.byte	0x1
 14017 4acc 60080000 		.4byte	.LFB377
 14018 4ad0 3C040000 		.4byte	.LFE377-.LFB377
 14019 4ad4 01       		.uleb128 0x1
 14020 4ad5 9C       		.byte	0x9c
 14021 4ad6 6B520000 		.4byte	0x526b
 14022 4ada 4A       		.uleb128 0x4a
 14023 4adb 91000000 		.4byte	.LASF857
 14024 4adf 7B520000 		.4byte	0x527b
 14025 4ae3 05       		.uleb128 0x5
 14026 4ae4 03       		.byte	0x3
 14027 4ae5 40000000 		.4byte	__func__.12282
 14028 4ae9 3C       		.uleb128 0x3c
 14029 4aea 80520000 		.4byte	0x5280
 14030 4aee 6C080000 		.4byte	.LBI603
 14031 4af2 0200     		.2byte	.LVU882
 14032 4af4 88050000 		.4byte	.Ldebug_ranges0+0x588
 14033 4af8 01       		.byte	0x1
 14034 4af9 AD02     		.2byte	0x2ad
 14035 4afb 03       		.byte	0x3
 14036 4afc F3510000 		.4byte	0x51f3
 14037 4b00 3D       		.uleb128 0x3d
 14038 4b01 8E520000 		.4byte	0x528e
 14039 4b05 110B0000 		.4byte	.LLST94
 14040 4b09 090B0000 		.4byte	.LVUS94
 14041 4b0d 38       		.uleb128 0x38
 14042 4b0e 88050000 		.4byte	.Ldebug_ranges0+0x588
 14043 4b12 3E       		.uleb128 0x3e
 14044 4b13 9B520000 		.4byte	0x529b
 14045 4b17 5F0B0000 		.4byte	.LLST95
 14046 4b1b 590B0000 		.4byte	.LVUS95
 14047 4b1f 3E       		.uleb128 0x3e
 14048 4b20 A8520000 		.4byte	0x52a8
 14049 4b24 920B0000 		.4byte	.LLST96
 14050 4b28 880B0000 		.4byte	.LVUS96
 14051 4b2c 3E       		.uleb128 0x3e
 14052 4b2d B5520000 		.4byte	0x52b5
ARM GAS  /tmp/ccfraM8n.s 			page 248


 14053 4b31 D70B0000 		.4byte	.LLST97
 14054 4b35 D10B0000 		.4byte	.LVUS97
 14055 4b39 3C       		.uleb128 0x3c
 14056 4b3a B5550000 		.4byte	0x55b5
 14057 4b3e 94080000 		.4byte	.LBI605
 14058 4b42 0000     		.2byte	.LVU904
 14059 4b44 48060000 		.4byte	.Ldebug_ranges0+0x648
 14060 4b48 01       		.byte	0x1
 14061 4b49 3702     		.2byte	0x237
 14062 4b4b 05       		.byte	0x5
 14063 4b4c 8B4B0000 		.4byte	0x4b8b
 14064 4b50 3D       		.uleb128 0x3d
 14065 4b51 C2550000 		.4byte	0x55c2
 14066 4b55 020C0000 		.4byte	.LLST98
 14067 4b59 000C0000 		.4byte	.LVUS98
 14068 4b5d 3D       		.uleb128 0x3d
 14069 4b5e C2550000 		.4byte	0x55c2
 14070 4b62 020C0000 		.4byte	.LLST98
 14071 4b66 000C0000 		.4byte	.LVUS98
 14072 4b6a 38       		.uleb128 0x38
 14073 4b6b 48060000 		.4byte	.Ldebug_ranges0+0x648
 14074 4b6f 3E       		.uleb128 0x3e
 14075 4b70 CE550000 		.4byte	0x55ce
 14076 4b74 1C0C0000 		.4byte	.LLST100
 14077 4b78 1A0C0000 		.4byte	.LVUS100
 14078 4b7c 3E       		.uleb128 0x3e
 14079 4b7d DA550000 		.4byte	0x55da
 14080 4b81 370C0000 		.4byte	.LLST101
 14081 4b85 2F0C0000 		.4byte	.LVUS101
 14082 4b89 00       		.byte	0
 14083 4b8a 00       		.byte	0
 14084 4b8b 3C       		.uleb128 0x3c
 14085 4b8c F8520000 		.4byte	0x52f8
 14086 4b90 B2090000 		.4byte	.LBI611
 14087 4b94 0100     		.2byte	.LVU1015
 14088 4b96 68060000 		.4byte	.Ldebug_ranges0+0x668
 14089 4b9a 01       		.byte	0x1
 14090 4b9b 5102     		.2byte	0x251
 14091 4b9d 05       		.byte	0x5
 14092 4b9e 954D0000 		.4byte	0x4d95
 14093 4ba2 3D       		.uleb128 0x3d
 14094 4ba3 06530000 		.4byte	0x5306
 14095 4ba7 6E0C0000 		.4byte	.LLST102
 14096 4bab 6C0C0000 		.4byte	.LVUS102
 14097 4baf 38       		.uleb128 0x38
 14098 4bb0 68060000 		.4byte	.Ldebug_ranges0+0x668
 14099 4bb4 3E       		.uleb128 0x3e
 14100 4bb5 13530000 		.4byte	0x5313
 14101 4bb9 8C0C0000 		.4byte	.LLST103
 14102 4bbd 860C0000 		.4byte	.LVUS103
 14103 4bc1 3E       		.uleb128 0x3e
 14104 4bc2 1F530000 		.4byte	0x531f
 14105 4bc6 B80C0000 		.4byte	.LLST104
 14106 4bca B60C0000 		.4byte	.LVUS104
 14107 4bce 3C       		.uleb128 0x3c
 14108 4bcf 5D550000 		.4byte	0x555d
 14109 4bd3 040A0000 		.4byte	.LBI613
ARM GAS  /tmp/ccfraM8n.s 			page 249


 14110 4bd7 0000     		.2byte	.LVU1044
 14111 4bd9 C0060000 		.4byte	.Ldebug_ranges0+0x6c0
 14112 4bdd 01       		.byte	0x1
 14113 4bde E801     		.2byte	0x1e8
 14114 4be0 07       		.byte	0x7
 14115 4be1 3A4C0000 		.4byte	0x4c3a
 14116 4be5 3D       		.uleb128 0x3d
 14117 4be6 6A550000 		.4byte	0x556a
 14118 4bea CD0C0000 		.4byte	.LLST105
 14119 4bee CB0C0000 		.4byte	.LVUS105
 14120 4bf2 40       		.uleb128 0x40
 14121 4bf3 76550000 		.4byte	0x5576
 14122 4bf7 38       		.uleb128 0x38
 14123 4bf8 C0060000 		.4byte	.Ldebug_ranges0+0x6c0
 14124 4bfc 3E       		.uleb128 0x3e
 14125 4bfd 82550000 		.4byte	0x5582
 14126 4c01 E70C0000 		.4byte	.LLST106
 14127 4c05 E50C0000 		.4byte	.LVUS106
 14128 4c09 47       		.uleb128 0x47
 14129 4c0a 34560000 		.4byte	0x5634
 14130 4c0e 100A0000 		.4byte	.LBI615
 14131 4c12 0100     		.2byte	.LVU1054
 14132 4c14 E0060000 		.4byte	.Ldebug_ranges0+0x6e0
 14133 4c18 01       		.byte	0x1
 14134 4c19 BF       		.byte	0xbf
 14135 4c1a 03       		.byte	0x3
 14136 4c1b 3D       		.uleb128 0x3d
 14137 4c1c 42560000 		.4byte	0x5642
 14138 4c20 FC0C0000 		.4byte	.LLST107
 14139 4c24 FA0C0000 		.4byte	.LVUS107
 14140 4c28 44       		.uleb128 0x44
 14141 4c29 1A0A0000 		.4byte	.LVL184
 14142 4c2d C55C0000 		.4byte	0x5cc5
 14143 4c31 45       		.uleb128 0x45
 14144 4c32 01       		.uleb128 0x1
 14145 4c33 50       		.byte	0x50
 14146 4c34 01       		.uleb128 0x1
 14147 4c35 42       		.byte	0x42
 14148 4c36 00       		.byte	0
 14149 4c37 00       		.byte	0
 14150 4c38 00       		.byte	0
 14151 4c39 00       		.byte	0
 14152 4c3a 3C       		.uleb128 0x3c
 14153 4c3b 5A560000 		.4byte	0x565a
 14154 4c3f 360A0000 		.4byte	.LBI623
 14155 4c43 0100     		.2byte	.LVU1063
 14156 4c45 F8060000 		.4byte	.Ldebug_ranges0+0x6f8
 14157 4c49 01       		.byte	0x1
 14158 4c4a EB01     		.2byte	0x1eb
 14159 4c4c 07       		.byte	0x7
 14160 4c4d B34C0000 		.4byte	0x4cb3
 14161 4c51 48       		.uleb128 0x48
 14162 4c52 6E560000 		.4byte	0x566e
 14163 4c56 360A0000 		.4byte	.LBI624
 14164 4c5a 0300     		.2byte	.LVU1065
 14165 4c5c 00070000 		.4byte	.Ldebug_ranges0+0x700
 14166 4c60 02       		.byte	0x2
ARM GAS  /tmp/ccfraM8n.s 			page 250


 14167 4c61 1502     		.2byte	0x215
 14168 4c63 03       		.byte	0x3
 14169 4c64 48       		.uleb128 0x48
 14170 4c65 82560000 		.4byte	0x5682
 14171 4c69 360A0000 		.4byte	.LBI625
 14172 4c6d 0500     		.2byte	.LVU1067
 14173 4c6f 08070000 		.4byte	.Ldebug_ranges0+0x708
 14174 4c73 03       		.byte	0x3
 14175 4c74 8B01     		.2byte	0x18b
 14176 4c76 03       		.byte	0x3
 14177 4c77 48       		.uleb128 0x48
 14178 4c78 96560000 		.4byte	0x5696
 14179 4c7c 360A0000 		.4byte	.LBI626
 14180 4c80 0700     		.2byte	.LVU1069
 14181 4c82 10070000 		.4byte	.Ldebug_ranges0+0x710
 14182 4c86 04       		.byte	0x4
 14183 4c87 C602     		.2byte	0x2c6
 14184 4c89 03       		.byte	0x3
 14185 4c8a 46       		.uleb128 0x46
 14186 4c8b A0560000 		.4byte	0x56a0
 14187 4c8f 360A0000 		.4byte	.LBI627
 14188 4c93 0900     		.2byte	.LVU1071
 14189 4c95 360A0000 		.4byte	.LBB627
 14190 4c99 06000000 		.4byte	.LBE627-.LBB627
 14191 4c9d 04       		.byte	0x4
 14192 4c9e A502     		.2byte	0x2a5
 14193 4ca0 03       		.byte	0x3
 14194 4ca1 3D       		.uleb128 0x3d
 14195 4ca2 AE560000 		.4byte	0x56ae
 14196 4ca6 120D0000 		.4byte	.LLST108
 14197 4caa 100D0000 		.4byte	.LVUS108
 14198 4cae 00       		.byte	0
 14199 4caf 00       		.byte	0
 14200 4cb0 00       		.byte	0
 14201 4cb1 00       		.byte	0
 14202 4cb2 00       		.byte	0
 14203 4cb3 3C       		.uleb128 0x3c
 14204 4cb4 0B560000 		.4byte	0x560b
 14205 4cb8 3C0A0000 		.4byte	.LBI639
 14206 4cbc 0400     		.2byte	.LVU1077
 14207 4cbe 28070000 		.4byte	.Ldebug_ranges0+0x728
 14208 4cc2 01       		.byte	0x1
 14209 4cc3 EB01     		.2byte	0x1eb
 14210 4cc5 07       		.byte	0x7
 14211 4cc6 F44C0000 		.4byte	0x4cf4
 14212 4cca 3D       		.uleb128 0x3d
 14213 4ccb 26560000 		.4byte	0x5626
 14214 4ccf 290D0000 		.4byte	.LLST109
 14215 4cd3 270D0000 		.4byte	.LVUS109
 14216 4cd7 3D       		.uleb128 0x3d
 14217 4cd8 19560000 		.4byte	0x5619
 14218 4cdc 3F0D0000 		.4byte	.LLST110
 14219 4ce0 3D0D0000 		.4byte	.LVUS110
 14220 4ce4 44       		.uleb128 0x44
 14221 4ce5 4E0A0000 		.4byte	.LVL187
 14222 4ce9 F75C0000 		.4byte	0x5cf7
 14223 4ced 45       		.uleb128 0x45
ARM GAS  /tmp/ccfraM8n.s 			page 251


 14224 4cee 01       		.uleb128 0x1
 14225 4cef 51       		.byte	0x51
 14226 4cf0 01       		.uleb128 0x1
 14227 4cf1 30       		.byte	0x30
 14228 4cf2 00       		.byte	0
 14229 4cf3 00       		.byte	0
 14230 4cf4 3C       		.uleb128 0x3c
 14231 4cf5 50560000 		.4byte	0x5650
 14232 4cf9 4E0A0000 		.4byte	.LBI645
 14233 4cfd 0200     		.2byte	.LVU1085
 14234 4cff 48070000 		.4byte	.Ldebug_ranges0+0x748
 14235 4d03 01       		.byte	0x1
 14236 4d04 EB01     		.2byte	0x1eb
 14237 4d06 07       		.byte	0x7
 14238 4d07 6D4D0000 		.4byte	0x4d6d
 14239 4d0b 48       		.uleb128 0x48
 14240 4d0c 64560000 		.4byte	0x5664
 14241 4d10 4E0A0000 		.4byte	.LBI646
 14242 4d14 0400     		.2byte	.LVU1087
 14243 4d16 50070000 		.4byte	.Ldebug_ranges0+0x750
 14244 4d1a 02       		.byte	0x2
 14245 4d1b 2002     		.2byte	0x220
 14246 4d1d 03       		.byte	0x3
 14247 4d1e 48       		.uleb128 0x48
 14248 4d1f 78560000 		.4byte	0x5678
 14249 4d23 4E0A0000 		.4byte	.LBI647
 14250 4d27 0800     		.2byte	.LVU1091
 14251 4d29 58070000 		.4byte	.Ldebug_ranges0+0x758
 14252 4d2d 03       		.byte	0x3
 14253 4d2e A101     		.2byte	0x1a1
 14254 4d30 03       		.byte	0x3
 14255 4d31 48       		.uleb128 0x48
 14256 4d32 8C560000 		.4byte	0x568c
 14257 4d36 4E0A0000 		.4byte	.LBI648
 14258 4d3a 0A00     		.2byte	.LVU1093
 14259 4d3c 60070000 		.4byte	.Ldebug_ranges0+0x760
 14260 4d40 04       		.byte	0x4
 14261 4d41 D102     		.2byte	0x2d1
 14262 4d43 03       		.byte	0x3
 14263 4d44 46       		.uleb128 0x46
 14264 4d45 A0560000 		.4byte	0x56a0
 14265 4d49 4E0A0000 		.4byte	.LBI649
 14266 4d4d 0C00     		.2byte	.LVU1095
 14267 4d4f 4E0A0000 		.4byte	.LBB649
 14268 4d53 06000000 		.4byte	.LBE649-.LBB649
 14269 4d57 04       		.byte	0x4
 14270 4d58 B802     		.2byte	0x2b8
 14271 4d5a 03       		.byte	0x3
 14272 4d5b 3D       		.uleb128 0x3d
 14273 4d5c AE560000 		.4byte	0x56ae
 14274 4d60 640D0000 		.4byte	.LLST111
 14275 4d64 620D0000 		.4byte	.LVUS111
 14276 4d68 00       		.byte	0
 14277 4d69 00       		.byte	0
 14278 4d6a 00       		.byte	0
 14279 4d6b 00       		.byte	0
 14280 4d6c 00       		.byte	0
ARM GAS  /tmp/ccfraM8n.s 			page 252


 14281 4d6d 4B       		.uleb128 0x4b
 14282 4d6e 360A0000 		.4byte	.LVL185
 14283 4d72 834D0000 		.4byte	0x4d83
 14284 4d76 45       		.uleb128 0x45
 14285 4d77 01       		.uleb128 0x1
 14286 4d78 50       		.byte	0x50
 14287 4d79 02       		.uleb128 0x2
 14288 4d7a 75       		.byte	0x75
 14289 4d7b 00       		.sleb128 0
 14290 4d7c 45       		.uleb128 0x45
 14291 4d7d 01       		.uleb128 0x1
 14292 4d7e 51       		.byte	0x51
 14293 4d7f 02       		.uleb128 0x2
 14294 4d80 76       		.byte	0x76
 14295 4d81 00       		.sleb128 0
 14296 4d82 00       		.byte	0
 14297 4d83 44       		.uleb128 0x44
 14298 4d84 5A0A0000 		.4byte	.LVL189
 14299 4d88 BC560000 		.4byte	0x56bc
 14300 4d8c 45       		.uleb128 0x45
 14301 4d8d 01       		.uleb128 0x1
 14302 4d8e 50       		.byte	0x50
 14303 4d8f 02       		.uleb128 0x2
 14304 4d90 76       		.byte	0x76
 14305 4d91 00       		.sleb128 0
 14306 4d92 00       		.byte	0
 14307 4d93 00       		.byte	0
 14308 4d94 00       		.byte	0
 14309 4d95 3C       		.uleb128 0x3c
 14310 4d96 08540000 		.4byte	0x5408
 14311 4d9a 8A0A0000 		.4byte	.LBI679
 14312 4d9e 0100     		.2byte	.LVU1114
 14313 4da0 78070000 		.4byte	.Ldebug_ranges0+0x778
 14314 4da4 01       		.byte	0x1
 14315 4da5 5C02     		.2byte	0x25c
 14316 4da7 05       		.byte	0x5
 14317 4da8 CB4E0000 		.4byte	0x4ecb
 14318 4dac 3D       		.uleb128 0x3d
 14319 4dad 16540000 		.4byte	0x5416
 14320 4db1 7C0D0000 		.4byte	.LLST112
 14321 4db5 780D0000 		.4byte	.LVUS112
 14322 4db9 38       		.uleb128 0x38
 14323 4dba 78070000 		.4byte	.Ldebug_ranges0+0x778
 14324 4dbe 3E       		.uleb128 0x3e
 14325 4dbf 23540000 		.4byte	0x5423
 14326 4dc3 A60D0000 		.4byte	.LLST113
 14327 4dc7 A40D0000 		.4byte	.LVUS113
 14328 4dcb 3E       		.uleb128 0x3e
 14329 4dcc 30540000 		.4byte	0x5430
 14330 4dd0 BD0D0000 		.4byte	.LLST114
 14331 4dd4 B90D0000 		.4byte	.LVUS114
 14332 4dd8 3E       		.uleb128 0x3e
 14333 4dd9 3D540000 		.4byte	0x543d
 14334 4ddd E10D0000 		.4byte	.LLST115
 14335 4de1 DB0D0000 		.4byte	.LVUS115
 14336 4de5 41       		.uleb128 0x41
 14337 4de6 4A540000 		.4byte	0x544a
ARM GAS  /tmp/ccfraM8n.s 			page 253


 14338 4dea B20A0000 		.4byte	.LBI681
 14339 4dee 0000     		.2byte	.LVU1128
 14340 4df0 B20A0000 		.4byte	.LBB681
 14341 4df4 2E000000 		.4byte	.LBE681-.LBB681
 14342 4df8 01       		.byte	0x1
 14343 4df9 2901     		.2byte	0x129
 14344 4dfb 05       		.byte	0x5
 14345 4dfc 594E0000 		.4byte	0x4e59
 14346 4e00 3D       		.uleb128 0x3d
 14347 4e01 7D540000 		.4byte	0x547d
 14348 4e05 0E0E0000 		.4byte	.LLST116
 14349 4e09 0C0E0000 		.4byte	.LVUS116
 14350 4e0d 3D       		.uleb128 0x3d
 14351 4e0e 72540000 		.4byte	0x5472
 14352 4e12 240E0000 		.4byte	.LLST117
 14353 4e16 220E0000 		.4byte	.LVUS117
 14354 4e1a 3D       		.uleb128 0x3d
 14355 4e1b 65540000 		.4byte	0x5465
 14356 4e1f 390E0000 		.4byte	.LLST118
 14357 4e23 370E0000 		.4byte	.LVUS118
 14358 4e27 3D       		.uleb128 0x3d
 14359 4e28 58540000 		.4byte	0x5458
 14360 4e2c 500E0000 		.4byte	.LLST119
 14361 4e30 4C0E0000 		.4byte	.LVUS119
 14362 4e34 42       		.uleb128 0x42
 14363 4e35 B20A0000 		.4byte	.LBB682
 14364 4e39 2E000000 		.4byte	.LBE682-.LBB682
 14365 4e3d 3E       		.uleb128 0x3e
 14366 4e3e 8A540000 		.4byte	0x548a
 14367 4e42 770E0000 		.4byte	.LLST120
 14368 4e46 710E0000 		.4byte	.LVUS120
 14369 4e4a 3E       		.uleb128 0x3e
 14370 4e4b 95540000 		.4byte	0x5495
 14371 4e4f AD0E0000 		.4byte	.LLST121
 14372 4e53 A50E0000 		.4byte	.LVUS121
 14373 4e57 00       		.byte	0
 14374 4e58 00       		.byte	0
 14375 4e59 46       		.uleb128 0x46
 14376 4e5a 4A540000 		.4byte	0x544a
 14377 4e5e A80B0000 		.4byte	.LBI683
 14378 4e62 0000     		.2byte	.LVU1238
 14379 4e64 A80B0000 		.4byte	.LBB683
 14380 4e68 38000000 		.4byte	.LBE683-.LBB683
 14381 4e6c 01       		.byte	0x1
 14382 4e6d 2F01     		.2byte	0x12f
 14383 4e6f 05       		.byte	0x5
 14384 4e70 3D       		.uleb128 0x3d
 14385 4e71 7D540000 		.4byte	0x547d
 14386 4e75 E60E0000 		.4byte	.LLST122
 14387 4e79 E40E0000 		.4byte	.LVUS122
 14388 4e7d 3D       		.uleb128 0x3d
 14389 4e7e 72540000 		.4byte	0x5472
 14390 4e82 FB0E0000 		.4byte	.LLST123
 14391 4e86 F90E0000 		.4byte	.LVUS123
 14392 4e8a 3D       		.uleb128 0x3d
 14393 4e8b 65540000 		.4byte	0x5465
 14394 4e8f 160F0000 		.4byte	.LLST124
ARM GAS  /tmp/ccfraM8n.s 			page 254


 14395 4e93 0E0F0000 		.4byte	.LVUS124
 14396 4e97 3D       		.uleb128 0x3d
 14397 4e98 58540000 		.4byte	0x5458
 14398 4e9c 4E0F0000 		.4byte	.LLST125
 14399 4ea0 4A0F0000 		.4byte	.LVUS125
 14400 4ea4 42       		.uleb128 0x42
 14401 4ea5 A80B0000 		.4byte	.LBB684
 14402 4ea9 38000000 		.4byte	.LBE684-.LBB684
 14403 4ead 3E       		.uleb128 0x3e
 14404 4eae 8A540000 		.4byte	0x548a
 14405 4eb2 750F0000 		.4byte	.LLST126
 14406 4eb6 6F0F0000 		.4byte	.LVUS126
 14407 4eba 3E       		.uleb128 0x3e
 14408 4ebb 95540000 		.4byte	0x5495
 14409 4ebf AB0F0000 		.4byte	.LLST127
 14410 4ec3 A30F0000 		.4byte	.LVUS127
 14411 4ec7 00       		.byte	0
 14412 4ec8 00       		.byte	0
 14413 4ec9 00       		.byte	0
 14414 4eca 00       		.byte	0
 14415 4ecb 3C       		.uleb128 0x3c
 14416 4ecc C3520000 		.4byte	0x52c3
 14417 4ed0 E00A0000 		.4byte	.LBI686
 14418 4ed4 0200     		.2byte	.LVU1154
 14419 4ed6 90070000 		.4byte	.Ldebug_ranges0+0x790
 14420 4eda 01       		.byte	0x1
 14421 4edb 5602     		.2byte	0x256
 14422 4edd 05       		.byte	0x5
 14423 4ede 53500000 		.4byte	0x5053
 14424 4ee2 3D       		.uleb128 0x3d
 14425 4ee3 D1520000 		.4byte	0x52d1
 14426 4ee7 E40F0000 		.4byte	.LLST128
 14427 4eeb E20F0000 		.4byte	.LVUS128
 14428 4eef 38       		.uleb128 0x38
 14429 4ef0 90070000 		.4byte	.Ldebug_ranges0+0x790
 14430 4ef4 3E       		.uleb128 0x3e
 14431 4ef5 DE520000 		.4byte	0x52de
 14432 4ef9 02100000 		.4byte	.LLST129
 14433 4efd FC0F0000 		.4byte	.LVUS129
 14434 4f01 3E       		.uleb128 0x3e
 14435 4f02 EA520000 		.4byte	0x52ea
 14436 4f06 2E100000 		.4byte	.LLST130
 14437 4f0a 2C100000 		.4byte	.LVUS130
 14438 4f0e 3C       		.uleb128 0x3c
 14439 4f0f 5A560000 		.4byte	0x565a
 14440 4f13 360B0000 		.4byte	.LBI688
 14441 4f17 0100     		.2byte	.LVU1179
 14442 4f19 E8070000 		.4byte	.Ldebug_ranges0+0x7e8
 14443 4f1d 01       		.byte	0x1
 14444 4f1e 0802     		.2byte	0x208
 14445 4f20 07       		.byte	0x7
 14446 4f21 874F0000 		.4byte	0x4f87
 14447 4f25 48       		.uleb128 0x48
 14448 4f26 6E560000 		.4byte	0x566e
 14449 4f2a 360B0000 		.4byte	.LBI689
 14450 4f2e 0300     		.2byte	.LVU1181
 14451 4f30 F0070000 		.4byte	.Ldebug_ranges0+0x7f0
ARM GAS  /tmp/ccfraM8n.s 			page 255


 14452 4f34 02       		.byte	0x2
 14453 4f35 1502     		.2byte	0x215
 14454 4f37 03       		.byte	0x3
 14455 4f38 48       		.uleb128 0x48
 14456 4f39 82560000 		.4byte	0x5682
 14457 4f3d 360B0000 		.4byte	.LBI690
 14458 4f41 0500     		.2byte	.LVU1183
 14459 4f43 F8070000 		.4byte	.Ldebug_ranges0+0x7f8
 14460 4f47 03       		.byte	0x3
 14461 4f48 8B01     		.2byte	0x18b
 14462 4f4a 03       		.byte	0x3
 14463 4f4b 48       		.uleb128 0x48
 14464 4f4c 96560000 		.4byte	0x5696
 14465 4f50 360B0000 		.4byte	.LBI691
 14466 4f54 0700     		.2byte	.LVU1185
 14467 4f56 00080000 		.4byte	.Ldebug_ranges0+0x800
 14468 4f5a 04       		.byte	0x4
 14469 4f5b C602     		.2byte	0x2c6
 14470 4f5d 03       		.byte	0x3
 14471 4f5e 46       		.uleb128 0x46
 14472 4f5f A0560000 		.4byte	0x56a0
 14473 4f63 360B0000 		.4byte	.LBI692
 14474 4f67 0900     		.2byte	.LVU1187
 14475 4f69 360B0000 		.4byte	.LBB692
 14476 4f6d 06000000 		.4byte	.LBE692-.LBB692
 14477 4f71 04       		.byte	0x4
 14478 4f72 A502     		.2byte	0x2a5
 14479 4f74 03       		.byte	0x3
 14480 4f75 3D       		.uleb128 0x3d
 14481 4f76 AE560000 		.4byte	0x56ae
 14482 4f7a 43100000 		.4byte	.LLST131
 14483 4f7e 41100000 		.4byte	.LVUS131
 14484 4f82 00       		.byte	0
 14485 4f83 00       		.byte	0
 14486 4f84 00       		.byte	0
 14487 4f85 00       		.byte	0
 14488 4f86 00       		.byte	0
 14489 4f87 41       		.uleb128 0x41
 14490 4f88 0B560000 		.4byte	0x560b
 14491 4f8c 460B0000 		.4byte	.LBI704
 14492 4f90 0000     		.2byte	.LVU1193
 14493 4f92 460B0000 		.4byte	.LBB704
 14494 4f96 08000000 		.4byte	.LBE704-.LBB704
 14495 4f9a 01       		.byte	0x1
 14496 4f9b 0802     		.2byte	0x208
 14497 4f9d 07       		.byte	0x7
 14498 4f9e C64F0000 		.4byte	0x4fc6
 14499 4fa2 3D       		.uleb128 0x3d
 14500 4fa3 26560000 		.4byte	0x5626
 14501 4fa7 5C100000 		.4byte	.LLST132
 14502 4fab 58100000 		.4byte	.LVUS132
 14503 4faf 3D       		.uleb128 0x3d
 14504 4fb0 19560000 		.4byte	0x5619
 14505 4fb4 7F100000 		.4byte	.LLST133
 14506 4fb8 7B100000 		.4byte	.LVUS133
 14507 4fbc 4C       		.uleb128 0x4c
 14508 4fbd 4E0B0000 		.4byte	.LVL214
ARM GAS  /tmp/ccfraM8n.s 			page 256


 14509 4fc1 F75C0000 		.4byte	0x5cf7
 14510 4fc5 00       		.byte	0
 14511 4fc6 3C       		.uleb128 0x3c
 14512 4fc7 50560000 		.4byte	0x5650
 14513 4fcb 4E0B0000 		.4byte	.LBI706
 14514 4fcf 0200     		.2byte	.LVU1198
 14515 4fd1 18080000 		.4byte	.Ldebug_ranges0+0x818
 14516 4fd5 01       		.byte	0x1
 14517 4fd6 0802     		.2byte	0x208
 14518 4fd8 07       		.byte	0x7
 14519 4fd9 3F500000 		.4byte	0x503f
 14520 4fdd 48       		.uleb128 0x48
 14521 4fde 64560000 		.4byte	0x5664
 14522 4fe2 4E0B0000 		.4byte	.LBI707
 14523 4fe6 0400     		.2byte	.LVU1200
 14524 4fe8 20080000 		.4byte	.Ldebug_ranges0+0x820
 14525 4fec 02       		.byte	0x2
 14526 4fed 2002     		.2byte	0x220
 14527 4fef 03       		.byte	0x3
 14528 4ff0 48       		.uleb128 0x48
 14529 4ff1 78560000 		.4byte	0x5678
 14530 4ff5 4E0B0000 		.4byte	.LBI708
 14531 4ff9 0800     		.2byte	.LVU1204
 14532 4ffb 28080000 		.4byte	.Ldebug_ranges0+0x828
 14533 4fff 03       		.byte	0x3
 14534 5000 A101     		.2byte	0x1a1
 14535 5002 03       		.byte	0x3
 14536 5003 48       		.uleb128 0x48
 14537 5004 8C560000 		.4byte	0x568c
 14538 5008 4E0B0000 		.4byte	.LBI709
 14539 500c 0A00     		.2byte	.LVU1206
 14540 500e 30080000 		.4byte	.Ldebug_ranges0+0x830
 14541 5012 04       		.byte	0x4
 14542 5013 D102     		.2byte	0x2d1
 14543 5015 03       		.byte	0x3
 14544 5016 46       		.uleb128 0x46
 14545 5017 A0560000 		.4byte	0x56a0
 14546 501b 4E0B0000 		.4byte	.LBI710
 14547 501f 0C00     		.2byte	.LVU1208
 14548 5021 4E0B0000 		.4byte	.LBB710
 14549 5025 08000000 		.4byte	.LBE710-.LBB710
 14550 5029 04       		.byte	0x4
 14551 502a B802     		.2byte	0x2b8
 14552 502c 03       		.byte	0x3
 14553 502d 3D       		.uleb128 0x3d
 14554 502e AE560000 		.4byte	0x56ae
 14555 5032 A1100000 		.4byte	.LLST134
 14556 5036 9F100000 		.4byte	.LVUS134
 14557 503a 00       		.byte	0
 14558 503b 00       		.byte	0
 14559 503c 00       		.byte	0
 14560 503d 00       		.byte	0
 14561 503e 00       		.byte	0
 14562 503f 4D       		.uleb128 0x4d
 14563 5040 360B0000 		.4byte	.LVL210
 14564 5044 45       		.uleb128 0x45
 14565 5045 01       		.uleb128 0x1
ARM GAS  /tmp/ccfraM8n.s 			page 257


 14566 5046 50       		.byte	0x50
 14567 5047 02       		.uleb128 0x2
 14568 5048 75       		.byte	0x75
 14569 5049 00       		.sleb128 0
 14570 504a 45       		.uleb128 0x45
 14571 504b 01       		.uleb128 0x1
 14572 504c 51       		.byte	0x51
 14573 504d 02       		.uleb128 0x2
 14574 504e 76       		.byte	0x76
 14575 504f 00       		.sleb128 0
 14576 5050 00       		.byte	0
 14577 5051 00       		.byte	0
 14578 5052 00       		.byte	0
 14579 5053 4E       		.uleb128 0x4e
 14580 5054 EA080000 		.4byte	.LVL168
 14581 5058 035D0000 		.4byte	0x5d03
 14582 505c 67500000 		.4byte	0x5067
 14583 5060 45       		.uleb128 0x45
 14584 5061 01       		.uleb128 0x1
 14585 5062 50       		.byte	0x50
 14586 5063 02       		.uleb128 0x2
 14587 5064 75       		.byte	0x75
 14588 5065 00       		.sleb128 0
 14589 5066 00       		.byte	0
 14590 5067 4B       		.uleb128 0x4b
 14591 5068 AE090000 		.4byte	.LVL175
 14592 506c 77500000 		.4byte	0x5077
 14593 5070 45       		.uleb128 0x45
 14594 5071 01       		.uleb128 0x1
 14595 5072 50       		.byte	0x50
 14596 5073 02       		.uleb128 0x2
 14597 5074 75       		.byte	0x75
 14598 5075 00       		.sleb128 0
 14599 5076 00       		.byte	0
 14600 5077 4E       		.uleb128 0x4e
 14601 5078 820A0000 		.4byte	.LVL191
 14602 507c 105D0000 		.4byte	0x5d10
 14603 5080 8B500000 		.4byte	0x508b
 14604 5084 45       		.uleb128 0x45
 14605 5085 01       		.uleb128 0x1
 14606 5086 50       		.byte	0x50
 14607 5087 02       		.uleb128 0x2
 14608 5088 75       		.byte	0x75
 14609 5089 00       		.sleb128 0
 14610 508a 00       		.byte	0
 14611 508b 4E       		.uleb128 0x4e
 14612 508c 5C0B0000 		.4byte	.LVL217
 14613 5090 1D5D0000 		.4byte	0x5d1d
 14614 5094 9F500000 		.4byte	0x509f
 14615 5098 45       		.uleb128 0x45
 14616 5099 01       		.uleb128 0x1
 14617 509a 50       		.byte	0x50
 14618 509b 02       		.uleb128 0x2
 14619 509c 75       		.byte	0x75
 14620 509d 00       		.sleb128 0
 14621 509e 00       		.byte	0
 14622 509f 4E       		.uleb128 0x4e
ARM GAS  /tmp/ccfraM8n.s 			page 258


 14623 50a0 700B0000 		.4byte	.LVL220
 14624 50a4 48570000 		.4byte	0x5748
 14625 50a8 B2500000 		.4byte	0x50b2
 14626 50ac 45       		.uleb128 0x45
 14627 50ad 01       		.uleb128 0x1
 14628 50ae 50       		.byte	0x50
 14629 50af 01       		.uleb128 0x1
 14630 50b0 38       		.byte	0x38
 14631 50b1 00       		.byte	0
 14632 50b2 4E       		.uleb128 0x4e
 14633 50b3 860B0000 		.4byte	.LVL222
 14634 50b7 0A5A0000 		.4byte	0x5a0a
 14635 50bb C5500000 		.4byte	0x50c5
 14636 50bf 45       		.uleb128 0x45
 14637 50c0 01       		.uleb128 0x1
 14638 50c1 50       		.byte	0x50
 14639 50c2 01       		.uleb128 0x1
 14640 50c3 38       		.byte	0x38
 14641 50c4 00       		.byte	0
 14642 50c5 4E       		.uleb128 0x4e
 14643 50c6 F20B0000 		.4byte	.LVL238
 14644 50ca 0A5A0000 		.4byte	0x5a0a
 14645 50ce D8500000 		.4byte	0x50d8
 14646 50d2 45       		.uleb128 0x45
 14647 50d3 01       		.uleb128 0x1
 14648 50d4 50       		.byte	0x50
 14649 50d5 01       		.uleb128 0x1
 14650 50d6 30       		.byte	0x30
 14651 50d7 00       		.byte	0
 14652 50d8 4E       		.uleb128 0x4e
 14653 50d9 FE0B0000 		.4byte	.LVL239
 14654 50dd 0A5A0000 		.4byte	0x5a0a
 14655 50e1 EB500000 		.4byte	0x50eb
 14656 50e5 45       		.uleb128 0x45
 14657 50e6 01       		.uleb128 0x1
 14658 50e7 50       		.byte	0x50
 14659 50e8 01       		.uleb128 0x1
 14660 50e9 31       		.byte	0x31
 14661 50ea 00       		.byte	0
 14662 50eb 4E       		.uleb128 0x4e
 14663 50ec 0A0C0000 		.4byte	.LVL240
 14664 50f0 0A5A0000 		.4byte	0x5a0a
 14665 50f4 FE500000 		.4byte	0x50fe
 14666 50f8 45       		.uleb128 0x45
 14667 50f9 01       		.uleb128 0x1
 14668 50fa 50       		.byte	0x50
 14669 50fb 01       		.uleb128 0x1
 14670 50fc 32       		.byte	0x32
 14671 50fd 00       		.byte	0
 14672 50fe 4E       		.uleb128 0x4e
 14673 50ff 160C0000 		.4byte	.LVL241
 14674 5103 0A5A0000 		.4byte	0x5a0a
 14675 5107 11510000 		.4byte	0x5111
 14676 510b 45       		.uleb128 0x45
 14677 510c 01       		.uleb128 0x1
 14678 510d 50       		.byte	0x50
 14679 510e 01       		.uleb128 0x1
ARM GAS  /tmp/ccfraM8n.s 			page 259


 14680 510f 33       		.byte	0x33
 14681 5110 00       		.byte	0
 14682 5111 4E       		.uleb128 0x4e
 14683 5112 220C0000 		.4byte	.LVL243
 14684 5116 0A5A0000 		.4byte	0x5a0a
 14685 511a 24510000 		.4byte	0x5124
 14686 511e 45       		.uleb128 0x45
 14687 511f 01       		.uleb128 0x1
 14688 5120 50       		.byte	0x50
 14689 5121 01       		.uleb128 0x1
 14690 5122 34       		.byte	0x34
 14691 5123 00       		.byte	0
 14692 5124 4E       		.uleb128 0x4e
 14693 5125 2E0C0000 		.4byte	.LVL244
 14694 5129 0A5A0000 		.4byte	0x5a0a
 14695 512d 37510000 		.4byte	0x5137
 14696 5131 45       		.uleb128 0x45
 14697 5132 01       		.uleb128 0x1
 14698 5133 50       		.byte	0x50
 14699 5134 01       		.uleb128 0x1
 14700 5135 35       		.byte	0x35
 14701 5136 00       		.byte	0
 14702 5137 4E       		.uleb128 0x4e
 14703 5138 3A0C0000 		.4byte	.LVL245
 14704 513c 0A5A0000 		.4byte	0x5a0a
 14705 5140 4A510000 		.4byte	0x514a
 14706 5144 45       		.uleb128 0x45
 14707 5145 01       		.uleb128 0x1
 14708 5146 50       		.byte	0x50
 14709 5147 01       		.uleb128 0x1
 14710 5148 36       		.byte	0x36
 14711 5149 00       		.byte	0
 14712 514a 4E       		.uleb128 0x4e
 14713 514b 460C0000 		.4byte	.LVL246
 14714 514f 0A5A0000 		.4byte	0x5a0a
 14715 5153 5D510000 		.4byte	0x515d
 14716 5157 45       		.uleb128 0x45
 14717 5158 01       		.uleb128 0x1
 14718 5159 50       		.byte	0x50
 14719 515a 01       		.uleb128 0x1
 14720 515b 37       		.byte	0x37
 14721 515c 00       		.byte	0
 14722 515d 4E       		.uleb128 0x4e
 14723 515e 4E0C0000 		.4byte	.LVL248
 14724 5162 48570000 		.4byte	0x5748
 14725 5166 70510000 		.4byte	0x5170
 14726 516a 45       		.uleb128 0x45
 14727 516b 01       		.uleb128 0x1
 14728 516c 50       		.byte	0x50
 14729 516d 01       		.uleb128 0x1
 14730 516e 33       		.byte	0x33
 14731 516f 00       		.byte	0
 14732 5170 4E       		.uleb128 0x4e
 14733 5171 5A0C0000 		.4byte	.LVL249
 14734 5175 48570000 		.4byte	0x5748
 14735 5179 83510000 		.4byte	0x5183
 14736 517d 45       		.uleb128 0x45
ARM GAS  /tmp/ccfraM8n.s 			page 260


 14737 517e 01       		.uleb128 0x1
 14738 517f 50       		.byte	0x50
 14739 5180 01       		.uleb128 0x1
 14740 5181 34       		.byte	0x34
 14741 5182 00       		.byte	0
 14742 5183 4E       		.uleb128 0x4e
 14743 5184 660C0000 		.4byte	.LVL250
 14744 5188 48570000 		.4byte	0x5748
 14745 518c 96510000 		.4byte	0x5196
 14746 5190 45       		.uleb128 0x45
 14747 5191 01       		.uleb128 0x1
 14748 5192 50       		.byte	0x50
 14749 5193 01       		.uleb128 0x1
 14750 5194 35       		.byte	0x35
 14751 5195 00       		.byte	0
 14752 5196 4E       		.uleb128 0x4e
 14753 5197 720C0000 		.4byte	.LVL251
 14754 519b 48570000 		.4byte	0x5748
 14755 519f A9510000 		.4byte	0x51a9
 14756 51a3 45       		.uleb128 0x45
 14757 51a4 01       		.uleb128 0x1
 14758 51a5 50       		.byte	0x50
 14759 51a6 01       		.uleb128 0x1
 14760 51a7 36       		.byte	0x36
 14761 51a8 00       		.byte	0
 14762 51a9 4E       		.uleb128 0x4e
 14763 51aa 7E0C0000 		.4byte	.LVL252
 14764 51ae 48570000 		.4byte	0x5748
 14765 51b2 BC510000 		.4byte	0x51bc
 14766 51b6 45       		.uleb128 0x45
 14767 51b7 01       		.uleb128 0x1
 14768 51b8 50       		.byte	0x50
 14769 51b9 01       		.uleb128 0x1
 14770 51ba 37       		.byte	0x37
 14771 51bb 00       		.byte	0
 14772 51bc 4E       		.uleb128 0x4e
 14773 51bd 860C0000 		.4byte	.LVL253
 14774 51c1 48570000 		.4byte	0x5748
 14775 51c5 CF510000 		.4byte	0x51cf
 14776 51c9 45       		.uleb128 0x45
 14777 51ca 01       		.uleb128 0x1
 14778 51cb 50       		.byte	0x50
 14779 51cc 01       		.uleb128 0x1
 14780 51cd 32       		.byte	0x32
 14781 51ce 00       		.byte	0
 14782 51cf 4E       		.uleb128 0x4e
 14783 51d0 8E0C0000 		.4byte	.LVL254
 14784 51d4 48570000 		.4byte	0x5748
 14785 51d8 E2510000 		.4byte	0x51e2
 14786 51dc 45       		.uleb128 0x45
 14787 51dd 01       		.uleb128 0x1
 14788 51de 50       		.byte	0x50
 14789 51df 01       		.uleb128 0x1
 14790 51e0 31       		.byte	0x31
 14791 51e1 00       		.byte	0
 14792 51e2 44       		.uleb128 0x44
 14793 51e3 960C0000 		.4byte	.LVL255
ARM GAS  /tmp/ccfraM8n.s 			page 261


 14794 51e7 48570000 		.4byte	0x5748
 14795 51eb 45       		.uleb128 0x45
 14796 51ec 01       		.uleb128 0x1
 14797 51ed 50       		.byte	0x50
 14798 51ee 01       		.uleb128 0x1
 14799 51ef 30       		.byte	0x30
 14800 51f0 00       		.byte	0
 14801 51f1 00       		.byte	0
 14802 51f2 00       		.byte	0
 14803 51f3 4E       		.uleb128 0x4e
 14804 51f4 6C080000 		.4byte	.LVL159
 14805 51f8 2A5D0000 		.4byte	0x5d2a
 14806 51fc 0A520000 		.4byte	0x520a
 14807 5200 45       		.uleb128 0x45
 14808 5201 01       		.uleb128 0x1
 14809 5202 50       		.byte	0x50
 14810 5203 05       		.uleb128 0x5
 14811 5204 03       		.byte	0x3
 14812 5205 40000000 		.4byte	.LANCHOR0+64
 14813 5209 00       		.byte	0
 14814 520a 4E       		.uleb128 0x4e
 14815 520b 9A090000 		.4byte	.LVL173
 14816 520f 365D0000 		.4byte	0x5d36
 14817 5213 21520000 		.4byte	0x5221
 14818 5217 45       		.uleb128 0x45
 14819 5218 01       		.uleb128 0x1
 14820 5219 50       		.byte	0x50
 14821 521a 05       		.uleb128 0x5
 14822 521b 03       		.byte	0x3
 14823 521c 40000000 		.4byte	.LANCHOR0+64
 14824 5220 00       		.byte	0
 14825 5221 4F       		.uleb128 0x4f
 14826 5222 A2090000 		.4byte	.LVL174
 14827 5226 425D0000 		.4byte	0x5d42
 14828 522a 4E       		.uleb128 0x4e
 14829 522b 620B0000 		.4byte	.LVL218
 14830 522f 365D0000 		.4byte	0x5d36
 14831 5233 41520000 		.4byte	0x5241
 14832 5237 45       		.uleb128 0x45
 14833 5238 01       		.uleb128 0x1
 14834 5239 50       		.byte	0x50
 14835 523a 05       		.uleb128 0x5
 14836 523b 03       		.byte	0x3
 14837 523c 40000000 		.4byte	.LANCHOR0+64
 14838 5240 00       		.byte	0
 14839 5241 4F       		.uleb128 0x4f
 14840 5242 6A0B0000 		.4byte	.LVL219
 14841 5246 425D0000 		.4byte	0x5d42
 14842 524a 4E       		.uleb128 0x4e
 14843 524b 8C0B0000 		.4byte	.LVL223
 14844 524f 365D0000 		.4byte	0x5d36
 14845 5253 61520000 		.4byte	0x5261
 14846 5257 45       		.uleb128 0x45
 14847 5258 01       		.uleb128 0x1
 14848 5259 50       		.byte	0x50
 14849 525a 05       		.uleb128 0x5
 14850 525b 03       		.byte	0x3
ARM GAS  /tmp/ccfraM8n.s 			page 262


 14851 525c 40000000 		.4byte	.LANCHOR0+64
 14852 5260 00       		.byte	0
 14853 5261 4F       		.uleb128 0x4f
 14854 5262 940B0000 		.4byte	.LVL224
 14855 5266 425D0000 		.4byte	0x5d42
 14856 526a 00       		.byte	0
 14857 526b 09       		.uleb128 0x9
 14858 526c 86060000 		.4byte	0x686
 14859 5270 7B520000 		.4byte	0x527b
 14860 5274 0A       		.uleb128 0xa
 14861 5275 25000000 		.4byte	0x25
 14862 5279 09       		.byte	0x9
 14863 527a 00       		.byte	0
 14864 527b 15       		.uleb128 0x15
 14865 527c 6B520000 		.4byte	0x526b
 14866 5280 50       		.uleb128 0x50
 14867 5281 6B150000 		.4byte	.LASF845
 14868 5285 01       		.byte	0x1
 14869 5286 1402     		.2byte	0x214
 14870 5288 0D       		.byte	0xd
 14871 5289 01       		.byte	0x1
 14872 528a C3520000 		.4byte	0x52c3
 14873 528e 51       		.uleb128 0x51
 14874 528f FE1F0000 		.4byte	.LASF826
 14875 5293 01       		.byte	0x1
 14876 5294 1402     		.2byte	0x214
 14877 5296 30       		.byte	0x30
 14878 5297 51370000 		.4byte	0x3751
 14879 529b 52       		.uleb128 0x52
 14880 529c A1190000 		.4byte	.LASF838
 14881 52a0 01       		.byte	0x1
 14882 52a1 1502     		.2byte	0x215
 14883 52a3 10       		.byte	0x10
 14884 52a4 A63F0000 		.4byte	0x3fa6
 14885 52a8 53       		.uleb128 0x53
 14886 52a9 73747300 		.ascii	"sts\000"
 14887 52ad 01       		.byte	0x1
 14888 52ae 1602     		.2byte	0x216
 14889 52b0 0C       		.byte	0xc
 14890 52b1 94090000 		.4byte	0x994
 14891 52b5 53       		.uleb128 0x53
 14892 52b6 73726300 		.ascii	"src\000"
 14893 52ba 01       		.byte	0x1
 14894 52bb 1602     		.2byte	0x216
 14895 52bd 11       		.byte	0x11
 14896 52be 94090000 		.4byte	0x994
 14897 52c2 00       		.byte	0
 14898 52c3 50       		.uleb128 0x50
 14899 52c4 170A0000 		.4byte	.LASF846
 14900 52c8 01       		.byte	0x1
 14901 52c9 FA01     		.2byte	0x1fa
 14902 52cb 0D       		.byte	0xd
 14903 52cc 01       		.byte	0x1
 14904 52cd F8520000 		.4byte	0x52f8
 14905 52d1 51       		.uleb128 0x51
 14906 52d2 FE1F0000 		.4byte	.LASF826
 14907 52d6 01       		.byte	0x1
ARM GAS  /tmp/ccfraM8n.s 			page 263


 14908 52d7 FA01     		.2byte	0x1fa
 14909 52d9 34       		.byte	0x34
 14910 52da 51370000 		.4byte	0x3751
 14911 52de 53       		.uleb128 0x53
 14912 52df 657000   		.ascii	"ep\000"
 14913 52e2 01       		.byte	0x1
 14914 52e3 FB01     		.2byte	0x1fb
 14915 52e5 0B       		.byte	0xb
 14916 52e6 EF350000 		.4byte	0x35ef
 14917 52ea 52       		.uleb128 0x52
 14918 52eb A1190000 		.4byte	.LASF838
 14919 52ef 01       		.byte	0x1
 14920 52f0 FC01     		.2byte	0x1fc
 14921 52f2 10       		.byte	0x10
 14922 52f3 A63F0000 		.4byte	0x3fa6
 14923 52f7 00       		.byte	0
 14924 52f8 50       		.uleb128 0x50
 14925 52f9 F8140000 		.4byte	.LASF847
 14926 52fd 01       		.byte	0x1
 14927 52fe DA01     		.2byte	0x1da
 14928 5300 0D       		.byte	0xd
 14929 5301 01       		.byte	0x1
 14930 5302 2D530000 		.4byte	0x532d
 14931 5306 51       		.uleb128 0x51
 14932 5307 FE1F0000 		.4byte	.LASF826
 14933 530b 01       		.byte	0x1
 14934 530c DA01     		.2byte	0x1da
 14935 530e 33       		.byte	0x33
 14936 530f 51370000 		.4byte	0x3751
 14937 5313 53       		.uleb128 0x53
 14938 5314 657000   		.ascii	"ep\000"
 14939 5317 01       		.byte	0x1
 14940 5318 DB01     		.2byte	0x1db
 14941 531a 0B       		.byte	0xb
 14942 531b EF350000 		.4byte	0x35ef
 14943 531f 52       		.uleb128 0x52
 14944 5320 A1190000 		.4byte	.LASF838
 14945 5324 01       		.byte	0x1
 14946 5325 DC01     		.2byte	0x1dc
 14947 5327 10       		.byte	0x10
 14948 5328 A63F0000 		.4byte	0x3fa6
 14949 532c 00       		.byte	0
 14950 532d 50       		.uleb128 0x50
 14951 532e 28020000 		.4byte	.LASF848
 14952 5332 01       		.byte	0x1
 14953 5333 A101     		.2byte	0x1a1
 14954 5335 0D       		.byte	0xd
 14955 5336 01       		.byte	0x1
 14956 5337 7E530000 		.4byte	0x537e
 14957 533b 51       		.uleb128 0x51
 14958 533c FE1F0000 		.4byte	.LASF826
 14959 5340 01       		.byte	0x1
 14960 5341 A101     		.2byte	0x1a1
 14961 5343 2A       		.byte	0x2a
 14962 5344 51370000 		.4byte	0x3751
 14963 5348 54       		.uleb128 0x54
 14964 5349 657000   		.ascii	"ep\000"
ARM GAS  /tmp/ccfraM8n.s 			page 264


 14965 534c 01       		.byte	0x1
 14966 534d A101     		.2byte	0x1a1
 14967 534f 38       		.byte	0x38
 14968 5350 EF350000 		.4byte	0x35ef
 14969 5354 52       		.uleb128 0x52
 14970 5355 A1190000 		.4byte	.LASF838
 14971 5359 01       		.byte	0x1
 14972 535a A201     		.2byte	0x1a2
 14973 535c 10       		.byte	0x10
 14974 535d A63F0000 		.4byte	0x3fa6
 14975 5361 52       		.uleb128 0x52
 14976 5362 E2020000 		.4byte	.LASF849
 14977 5366 01       		.byte	0x1
 14978 5367 A301     		.2byte	0x1a3
 14979 5369 0C       		.byte	0xc
 14980 536a 94090000 		.4byte	0x994
 14981 536e 55       		.uleb128 0x55
 14982 536f 53       		.uleb128 0x53
 14983 5370 6F737000 		.ascii	"osp\000"
 14984 5374 01       		.byte	0x1
 14985 5375 AF01     		.2byte	0x1af
 14986 5377 1A       		.byte	0x1a
 14987 5378 FD3E0000 		.4byte	0x3efd
 14988 537c 00       		.byte	0
 14989 537d 00       		.byte	0
 14990 537e 50       		.uleb128 0x50
 14991 537f DE190000 		.4byte	.LASF850
 14992 5383 01       		.byte	0x1
 14993 5384 7601     		.2byte	0x176
 14994 5386 0D       		.byte	0xd
 14995 5387 01       		.byte	0x1
 14996 5388 CF530000 		.4byte	0x53cf
 14997 538c 51       		.uleb128 0x51
 14998 538d FE1F0000 		.4byte	.LASF826
 14999 5391 01       		.byte	0x1
 15000 5392 7601     		.2byte	0x176
 15001 5394 29       		.byte	0x29
 15002 5395 51370000 		.4byte	0x3751
 15003 5399 54       		.uleb128 0x54
 15004 539a 657000   		.ascii	"ep\000"
 15005 539d 01       		.byte	0x1
 15006 539e 7601     		.2byte	0x176
 15007 53a0 37       		.byte	0x37
 15008 53a1 EF350000 		.4byte	0x35ef
 15009 53a5 52       		.uleb128 0x52
 15010 53a6 A1190000 		.4byte	.LASF838
 15011 53aa 01       		.byte	0x1
 15012 53ab 7701     		.2byte	0x177
 15013 53ad 10       		.byte	0x10
 15014 53ae A63F0000 		.4byte	0x3fa6
 15015 53b2 52       		.uleb128 0x52
 15016 53b3 E2020000 		.4byte	.LASF849
 15017 53b7 01       		.byte	0x1
 15018 53b8 7801     		.2byte	0x178
 15019 53ba 0C       		.byte	0xc
 15020 53bb 94090000 		.4byte	0x994
 15021 53bf 55       		.uleb128 0x55
ARM GAS  /tmp/ccfraM8n.s 			page 265


 15022 53c0 53       		.uleb128 0x53
 15023 53c1 69737000 		.ascii	"isp\000"
 15024 53c5 01       		.byte	0x1
 15025 53c6 8101     		.2byte	0x181
 15026 53c8 19       		.byte	0x19
 15027 53c9 F73E0000 		.4byte	0x3ef7
 15028 53cd 00       		.byte	0
 15029 53ce 00       		.byte	0
 15030 53cf 56       		.uleb128 0x56
 15031 53d0 400D0000 		.4byte	.LASF855
 15032 53d4 01       		.byte	0x1
 15033 53d5 4801     		.2byte	0x148
 15034 53d7 0D       		.byte	0xd
 15035 53d8 3E200000 		.4byte	0x203e
 15036 53dc 01       		.byte	0x1
 15037 53dd 08540000 		.4byte	0x5408
 15038 53e1 51       		.uleb128 0x51
 15039 53e2 FE1F0000 		.4byte	.LASF826
 15040 53e6 01       		.byte	0x1
 15041 53e7 4801     		.2byte	0x148
 15042 53e9 2B       		.byte	0x2b
 15043 53ea 51370000 		.4byte	0x3751
 15044 53ee 54       		.uleb128 0x54
 15045 53ef 657000   		.ascii	"ep\000"
 15046 53f2 01       		.byte	0x1
 15047 53f3 4801     		.2byte	0x148
 15048 53f5 39       		.byte	0x39
 15049 53f6 EF350000 		.4byte	0x35ef
 15050 53fa 55       		.uleb128 0x55
 15051 53fb 53       		.uleb128 0x53
 15052 53fc 6E00     		.ascii	"n\000"
 15053 53fe 01       		.byte	0x1
 15054 53ff 4C01     		.2byte	0x14c
 15055 5401 0E       		.byte	0xe
 15056 5402 94090000 		.4byte	0x994
 15057 5406 00       		.byte	0
 15058 5407 00       		.byte	0
 15059 5408 50       		.uleb128 0x50
 15060 5409 7D070000 		.4byte	.LASF851
 15061 540d 01       		.byte	0x1
 15062 540e 1D01     		.2byte	0x11d
 15063 5410 0D       		.byte	0xd
 15064 5411 01       		.byte	0x1
 15065 5412 4A540000 		.4byte	0x544a
 15066 5416 51       		.uleb128 0x51
 15067 5417 FE1F0000 		.4byte	.LASF826
 15068 541b 01       		.byte	0x1
 15069 541c 1D01     		.2byte	0x11d
 15070 541e 2B       		.byte	0x2b
 15071 541f 51370000 		.4byte	0x3751
 15072 5423 53       		.uleb128 0x53
 15073 5424 73747300 		.ascii	"sts\000"
 15074 5428 01       		.byte	0x1
 15075 5429 1E01     		.2byte	0x11e
 15076 542b 0C       		.byte	0xc
 15077 542c 94090000 		.4byte	0x994
 15078 5430 53       		.uleb128 0x53
ARM GAS  /tmp/ccfraM8n.s 			page 266


 15079 5431 636E7400 		.ascii	"cnt\000"
 15080 5435 01       		.byte	0x1
 15081 5436 1E01     		.2byte	0x11e
 15082 5438 11       		.byte	0x11
 15083 5439 94090000 		.4byte	0x994
 15084 543d 53       		.uleb128 0x53
 15085 543e 657000   		.ascii	"ep\000"
 15086 5441 01       		.byte	0x1
 15087 5442 1E01     		.2byte	0x11e
 15088 5444 16       		.byte	0x16
 15089 5445 94090000 		.4byte	0x994
 15090 5449 00       		.byte	0
 15091 544a 50       		.uleb128 0x50
 15092 544b 43230000 		.4byte	.LASF852
 15093 544f 01       		.byte	0x1
 15094 5450 0301     		.2byte	0x103
 15095 5452 0D       		.byte	0xd
 15096 5453 01       		.byte	0x1
 15097 5454 A1540000 		.4byte	0x54a1
 15098 5458 51       		.uleb128 0x51
 15099 5459 75140000 		.4byte	.LASF853
 15100 545d 01       		.byte	0x1
 15101 545e 0301     		.2byte	0x103
 15102 5460 38       		.byte	0x38
 15103 5461 98220000 		.4byte	0x2298
 15104 5465 54       		.uleb128 0x54
 15105 5466 62756600 		.ascii	"buf\000"
 15106 546a 01       		.byte	0x1
 15107 546b 0401     		.2byte	0x104
 15108 546d 2E       		.byte	0x2e
 15109 546e 8F200000 		.4byte	0x208f
 15110 5472 54       		.uleb128 0x54
 15111 5473 6E00     		.ascii	"n\000"
 15112 5475 01       		.byte	0x1
 15113 5476 0501     		.2byte	0x105
 15114 5478 2C       		.byte	0x2c
 15115 5479 33000000 		.4byte	0x33
 15116 547d 54       		.uleb128 0x54
 15117 547e 6D617800 		.ascii	"max\000"
 15118 5482 01       		.byte	0x1
 15119 5483 0601     		.2byte	0x106
 15120 5485 2C       		.byte	0x2c
 15121 5486 33000000 		.4byte	0x33
 15122 548a 53       		.uleb128 0x53
 15123 548b 7700     		.ascii	"w\000"
 15124 548d 01       		.byte	0x1
 15125 548e 0701     		.2byte	0x107
 15126 5490 0C       		.byte	0xc
 15127 5491 94090000 		.4byte	0x994
 15128 5495 53       		.uleb128 0x53
 15129 5496 6900     		.ascii	"i\000"
 15130 5498 01       		.byte	0x1
 15131 5499 0801     		.2byte	0x108
 15132 549b 0A       		.byte	0xa
 15133 549c 33000000 		.4byte	0x33
 15134 54a0 00       		.byte	0
 15135 54a1 57       		.uleb128 0x57
ARM GAS  /tmp/ccfraM8n.s 			page 267


 15136 54a2 D1040000 		.4byte	.LASF854
 15137 54a6 01       		.byte	0x1
 15138 54a7 E9       		.byte	0xe9
 15139 54a8 0D       		.byte	0xd
 15140 54a9 01       		.byte	0x1
 15141 54aa DA540000 		.4byte	0x54da
 15142 54ae 58       		.uleb128 0x58
 15143 54af 75140000 		.4byte	.LASF853
 15144 54b3 01       		.byte	0x1
 15145 54b4 E9       		.byte	0xe9
 15146 54b5 3B       		.byte	0x3b
 15147 54b6 98220000 		.4byte	0x2298
 15148 54ba 59       		.uleb128 0x59
 15149 54bb 62756600 		.ascii	"buf\000"
 15150 54bf 01       		.byte	0x1
 15151 54c0 EA       		.byte	0xea
 15152 54c1 37       		.byte	0x37
 15153 54c2 B6240000 		.4byte	0x24b6
 15154 54c6 59       		.uleb128 0x59
 15155 54c7 6E00     		.ascii	"n\000"
 15156 54c9 01       		.byte	0x1
 15157 54ca EB       		.byte	0xeb
 15158 54cb 2F       		.byte	0x2f
 15159 54cc 33000000 		.4byte	0x33
 15160 54d0 5A       		.uleb128 0x5a
 15161 54d1 91000000 		.4byte	.LASF857
 15162 54d5 EA540000 		.4byte	0x54ea
 15163 54d9 00       		.byte	0
 15164 54da 09       		.uleb128 0x9
 15165 54db 86060000 		.4byte	0x686
 15166 54df EA540000 		.4byte	0x54ea
 15167 54e3 0A       		.uleb128 0xa
 15168 54e4 25000000 		.4byte	0x25
 15169 54e8 1A       		.byte	0x1a
 15170 54e9 00       		.byte	0
 15171 54ea 15       		.uleb128 0x15
 15172 54eb DA540000 		.4byte	0x54da
 15173 54ef 5B       		.uleb128 0x5b
 15174 54f0 030E0000 		.4byte	.LASF856
 15175 54f4 01       		.byte	0x1
 15176 54f5 D6       		.byte	0xd6
 15177 54f6 11       		.byte	0x11
 15178 54f7 94090000 		.4byte	0x994
 15179 54fb 01       		.byte	0x1
 15180 54fc 2E550000 		.4byte	0x552e
 15181 5500 58       		.uleb128 0x58
 15182 5501 FE1F0000 		.4byte	.LASF826
 15183 5505 01       		.byte	0x1
 15184 5506 D6       		.byte	0xd6
 15185 5507 2A       		.byte	0x2a
 15186 5508 51370000 		.4byte	0x3751
 15187 550c 58       		.uleb128 0x58
 15188 550d AA0B0000 		.4byte	.LASF357
 15189 5511 01       		.byte	0x1
 15190 5512 D6       		.byte	0xd6
 15191 5513 37       		.byte	0x37
 15192 5514 33000000 		.4byte	0x33
ARM GAS  /tmp/ccfraM8n.s 			page 268


 15193 5518 5C       		.uleb128 0x5c
 15194 5519 87020000 		.4byte	.LASF165
 15195 551d 01       		.byte	0x1
 15196 551e D7       		.byte	0xd7
 15197 551f 0C       		.byte	0xc
 15198 5520 94090000 		.4byte	0x994
 15199 5524 5A       		.uleb128 0x5a
 15200 5525 91000000 		.4byte	.LASF857
 15201 5529 3E550000 		.4byte	0x553e
 15202 552d 00       		.byte	0
 15203 552e 09       		.uleb128 0x9
 15204 552f 86060000 		.4byte	0x686
 15205 5533 3E550000 		.4byte	0x553e
 15206 5537 0A       		.uleb128 0xa
 15207 5538 25000000 		.4byte	0x25
 15208 553c 0D       		.byte	0xd
 15209 553d 00       		.byte	0
 15210 553e 15       		.uleb128 0x15
 15211 553f 2E550000 		.4byte	0x552e
 15212 5543 57       		.uleb128 0x57
 15213 5544 0C1E0000 		.4byte	.LASF858
 15214 5548 01       		.byte	0x1
 15215 5549 C9       		.byte	0xc9
 15216 554a 0D       		.byte	0xd
 15217 554b 01       		.byte	0x1
 15218 554c 5D550000 		.4byte	0x555d
 15219 5550 58       		.uleb128 0x58
 15220 5551 FE1F0000 		.4byte	.LASF826
 15221 5555 01       		.byte	0x1
 15222 5556 C9       		.byte	0xc9
 15223 5557 26       		.byte	0x26
 15224 5558 51370000 		.4byte	0x3751
 15225 555c 00       		.byte	0
 15226 555d 57       		.uleb128 0x57
 15227 555e E6100000 		.4byte	.LASF859
 15228 5562 01       		.byte	0x1
 15229 5563 B8       		.byte	0xb8
 15230 5564 0D       		.byte	0xd
 15231 5565 01       		.byte	0x1
 15232 5566 8F550000 		.4byte	0x558f
 15233 556a 58       		.uleb128 0x58
 15234 556b FE1F0000 		.4byte	.LASF826
 15235 556f 01       		.byte	0x1
 15236 5570 B8       		.byte	0xb8
 15237 5571 29       		.byte	0x29
 15238 5572 51370000 		.4byte	0x3751
 15239 5576 58       		.uleb128 0x58
 15240 5577 C00A0000 		.4byte	.LASF860
 15241 557b 01       		.byte	0x1
 15242 557c B8       		.byte	0xb8
 15243 557d 38       		.byte	0x38
 15244 557e 94090000 		.4byte	0x994
 15245 5582 5C       		.uleb128 0x5c
 15246 5583 A1190000 		.4byte	.LASF838
 15247 5587 01       		.byte	0x1
 15248 5588 B9       		.byte	0xb9
 15249 5589 10       		.byte	0x10
ARM GAS  /tmp/ccfraM8n.s 			page 269


 15250 558a A63F0000 		.4byte	0x3fa6
 15251 558e 00       		.byte	0
 15252 558f 57       		.uleb128 0x57
 15253 5590 77200000 		.4byte	.LASF861
 15254 5594 01       		.byte	0x1
 15255 5595 AE       		.byte	0xae
 15256 5596 0D       		.byte	0xd
 15257 5597 01       		.byte	0x1
 15258 5598 B5550000 		.4byte	0x55b5
 15259 559c 58       		.uleb128 0x58
 15260 559d FE1F0000 		.4byte	.LASF826
 15261 55a1 01       		.byte	0x1
 15262 55a2 AE       		.byte	0xae
 15263 55a3 29       		.byte	0x29
 15264 55a4 51370000 		.4byte	0x3751
 15265 55a8 5C       		.uleb128 0x5c
 15266 55a9 A1190000 		.4byte	.LASF838
 15267 55ad 01       		.byte	0x1
 15268 55ae AF       		.byte	0xaf
 15269 55af 10       		.byte	0x10
 15270 55b0 A63F0000 		.4byte	0x3fa6
 15271 55b4 00       		.byte	0
 15272 55b5 57       		.uleb128 0x57
 15273 55b6 F0180000 		.4byte	.LASF862
 15274 55ba 01       		.byte	0x1
 15275 55bb 9A       		.byte	0x9a
 15276 55bc 0D       		.byte	0xd
 15277 55bd 01       		.byte	0x1
 15278 55be E5550000 		.4byte	0x55e5
 15279 55c2 58       		.uleb128 0x58
 15280 55c3 FE1F0000 		.4byte	.LASF826
 15281 55c7 01       		.byte	0x1
 15282 55c8 9A       		.byte	0x9a
 15283 55c9 27       		.byte	0x27
 15284 55ca 51370000 		.4byte	0x3751
 15285 55ce 5C       		.uleb128 0x5c
 15286 55cf A1190000 		.4byte	.LASF838
 15287 55d3 01       		.byte	0x1
 15288 55d4 9B       		.byte	0x9b
 15289 55d5 10       		.byte	0x10
 15290 55d6 A63F0000 		.4byte	0x3fa6
 15291 55da 5D       		.uleb128 0x5d
 15292 55db 6900     		.ascii	"i\000"
 15293 55dd 01       		.byte	0x1
 15294 55de 9C       		.byte	0x9c
 15295 55df 0C       		.byte	0xc
 15296 55e0 25000000 		.4byte	0x25
 15297 55e4 00       		.byte	0
 15298 55e5 57       		.uleb128 0x57
 15299 55e6 800A0000 		.4byte	.LASF863
 15300 55ea 01       		.byte	0x1
 15301 55eb 86       		.byte	0x86
 15302 55ec 0D       		.byte	0xd
 15303 55ed 01       		.byte	0x1
 15304 55ee 0B560000 		.4byte	0x560b
 15305 55f2 58       		.uleb128 0x58
 15306 55f3 FE1F0000 		.4byte	.LASF826
ARM GAS  /tmp/ccfraM8n.s 			page 270


 15307 55f7 01       		.byte	0x1
 15308 55f8 86       		.byte	0x86
 15309 55f9 27       		.byte	0x27
 15310 55fa 51370000 		.4byte	0x3751
 15311 55fe 5C       		.uleb128 0x5c
 15312 55ff A1190000 		.4byte	.LASF838
 15313 5603 01       		.byte	0x1
 15314 5604 87       		.byte	0x87
 15315 5605 10       		.byte	0x10
 15316 5606 A63F0000 		.4byte	0x3fa6
 15317 560a 00       		.byte	0
 15318 560b 50       		.uleb128 0x50
 15319 560c 6D040000 		.4byte	.LASF864
 15320 5610 02       		.byte	0x2
 15321 5611 0503     		.2byte	0x305
 15322 5613 14       		.byte	0x14
 15323 5614 03       		.byte	0x3
 15324 5615 34560000 		.4byte	0x5634
 15325 5619 54       		.uleb128 0x54
 15326 561a 74727000 		.ascii	"trp\000"
 15327 561e 02       		.byte	0x2
 15328 561f 0503     		.2byte	0x305
 15329 5621 3A       		.byte	0x3a
 15330 5622 E41D0000 		.4byte	0x1de4
 15331 5626 54       		.uleb128 0x54
 15332 5627 6D736700 		.ascii	"msg\000"
 15333 562b 02       		.byte	0x2
 15334 562c 0503     		.2byte	0x305
 15335 562e 45       		.byte	0x45
 15336 562f FE090000 		.4byte	0x9fe
 15337 5633 00       		.byte	0
 15338 5634 50       		.uleb128 0x50
 15339 5635 9F220000 		.4byte	.LASF865
 15340 5639 02       		.byte	0x2
 15341 563a 4D02     		.2byte	0x24d
 15342 563c 14       		.byte	0x14
 15343 563d 03       		.byte	0x3
 15344 563e 50560000 		.4byte	0x5650
 15345 5642 51       		.uleb128 0x51
 15346 5643 3C030000 		.4byte	.LASF866
 15347 5647 02       		.byte	0x2
 15348 5648 4D02     		.2byte	0x24d
 15349 564a 30       		.byte	0x30
 15350 564b C2090000 		.4byte	0x9c2
 15351 564f 00       		.byte	0
 15352 5650 5E       		.uleb128 0x5e
 15353 5651 3B060000 		.4byte	.LASF867
 15354 5655 02       		.byte	0x2
 15355 5656 1E02     		.2byte	0x21e
 15356 5658 14       		.byte	0x14
 15357 5659 03       		.byte	0x3
 15358 565a 5E       		.uleb128 0x5e
 15359 565b 94170000 		.4byte	.LASF868
 15360 565f 02       		.byte	0x2
 15361 5660 1302     		.2byte	0x213
 15362 5662 14       		.byte	0x14
 15363 5663 03       		.byte	0x3
ARM GAS  /tmp/ccfraM8n.s 			page 271


 15364 5664 5E       		.uleb128 0x5e
 15365 5665 9D180000 		.4byte	.LASF869
 15366 5669 03       		.byte	0x3
 15367 566a 9D01     		.2byte	0x19d
 15368 566c 14       		.byte	0x14
 15369 566d 03       		.byte	0x3
 15370 566e 5E       		.uleb128 0x5e
 15371 566f 52200000 		.4byte	.LASF870
 15372 5673 03       		.byte	0x3
 15373 5674 8901     		.2byte	0x189
 15374 5676 14       		.byte	0x14
 15375 5677 03       		.byte	0x3
 15376 5678 5E       		.uleb128 0x5e
 15377 5679 BC000000 		.4byte	.LASF871
 15378 567d 04       		.byte	0x4
 15379 567e CF02     		.2byte	0x2cf
 15380 5680 1B       		.byte	0x1b
 15381 5681 03       		.byte	0x3
 15382 5682 5E       		.uleb128 0x5e
 15383 5683 AF120000 		.4byte	.LASF872
 15384 5687 04       		.byte	0x4
 15385 5688 C402     		.2byte	0x2c4
 15386 568a 1B       		.byte	0x1b
 15387 568b 03       		.byte	0x3
 15388 568c 5E       		.uleb128 0x5e
 15389 568d E9150000 		.4byte	.LASF873
 15390 5691 04       		.byte	0x4
 15391 5692 B502     		.2byte	0x2b5
 15392 5694 1B       		.byte	0x1b
 15393 5695 03       		.byte	0x3
 15394 5696 5E       		.uleb128 0x5e
 15395 5697 BB170000 		.4byte	.LASF874
 15396 569b 04       		.byte	0x4
 15397 569c 9D02     		.2byte	0x29d
 15398 569e 1B       		.byte	0x1b
 15399 569f 03       		.byte	0x3
 15400 56a0 50       		.uleb128 0x50
 15401 56a1 26210000 		.4byte	.LASF875
 15402 56a5 05       		.byte	0x5
 15403 56a6 EB01     		.2byte	0x1eb
 15404 56a8 1B       		.byte	0x1b
 15405 56a9 03       		.byte	0x3
 15406 56aa BC560000 		.4byte	0x56bc
 15407 56ae 51       		.uleb128 0x51
 15408 56af 75070000 		.4byte	.LASF876
 15409 56b3 05       		.byte	0x5
 15410 56b4 EB01     		.2byte	0x1eb
 15411 56b6 32       		.byte	0x32
 15412 56b7 94090000 		.4byte	0x994
 15413 56bb 00       		.byte	0
 15414 56bc 5F       		.uleb128 0x5f
 15415 56bd CF530000 		.4byte	0x53cf
 15416 56c1 00000000 		.4byte	.LFB401
 15417 56c5 A8000000 		.4byte	.LFE401-.LFB401
 15418 56c9 01       		.uleb128 0x1
 15419 56ca 9C       		.byte	0x9c
 15420 56cb 48570000 		.4byte	0x5748
ARM GAS  /tmp/ccfraM8n.s 			page 272


 15421 56cf 3D       		.uleb128 0x3d
 15422 56d0 EE530000 		.4byte	0x53ee
 15423 56d4 BD100000 		.4byte	.LLST0
 15424 56d8 B5100000 		.4byte	.LVUS0
 15425 56dc 60       		.uleb128 0x60
 15426 56dd E1530000 		.4byte	0x53e1
 15427 56e1 06       		.uleb128 0x6
 15428 56e2 03       		.byte	0x3
 15429 56e3 00000000 		.4byte	USBD1
 15430 56e7 9F       		.byte	0x9f
 15431 56e8 61       		.uleb128 0x61
 15432 56e9 FA530000 		.4byte	0x53fa
 15433 56ed 00000000 		.4byte	.Ldebug_ranges0+0
 15434 56f1 3E       		.uleb128 0x3e
 15435 56f2 FB530000 		.4byte	0x53fb
 15436 56f6 FB100000 		.4byte	.LLST1
 15437 56fa F7100000 		.4byte	.LVUS1
 15438 56fe 46       		.uleb128 0x46
 15439 56ff A1540000 		.4byte	0x54a1
 15440 5703 44000000 		.4byte	.LBI285
 15441 5707 0100     		.2byte	.LVU20
 15442 5709 44000000 		.4byte	.LBB285
 15443 570d 1E000000 		.4byte	.LBE285-.LBB285
 15444 5711 01       		.byte	0x1
 15445 5712 6301     		.2byte	0x163
 15446 5714 05       		.byte	0x5
 15447 5715 3D       		.uleb128 0x3d
 15448 5716 C6540000 		.4byte	0x54c6
 15449 571a 1B110000 		.4byte	.LLST2
 15450 571e 19110000 		.4byte	.LVUS2
 15451 5722 3D       		.uleb128 0x3d
 15452 5723 BA540000 		.4byte	0x54ba
 15453 5727 32110000 		.4byte	.LLST3
 15454 572b 2E110000 		.4byte	.LVUS3
 15455 572f 3D       		.uleb128 0x3d
 15456 5730 AE540000 		.4byte	0x54ae
 15457 5734 54110000 		.4byte	.LLST4
 15458 5738 52110000 		.4byte	.LVUS4
 15459 573c 62       		.uleb128 0x62
 15460 573d 44000000 		.4byte	.LBB286
 15461 5741 1E000000 		.4byte	.LBE286-.LBB286
 15462 5745 00       		.byte	0
 15463 5746 00       		.byte	0
 15464 5747 00       		.byte	0
 15465 5748 5F       		.uleb128 0x5f
 15466 5749 2D530000 		.4byte	0x532d
 15467 574d 30060000 		.4byte	.LFB403
 15468 5751 B4000000 		.4byte	.LFE403-.LFB403
 15469 5755 01       		.uleb128 0x1
 15470 5756 9C       		.byte	0x9c
 15471 5757 0A5A0000 		.4byte	0x5a0a
 15472 575b 3D       		.uleb128 0x3d
 15473 575c 48530000 		.4byte	0x5348
 15474 5760 77110000 		.4byte	.LLST70
 15475 5764 73110000 		.4byte	.LVUS70
 15476 5768 3E       		.uleb128 0x3e
 15477 5769 54530000 		.4byte	0x5354
ARM GAS  /tmp/ccfraM8n.s 			page 273


 15478 576d 9C110000 		.4byte	.LLST71
 15479 5771 98110000 		.4byte	.LVUS71
 15480 5775 3E       		.uleb128 0x3e
 15481 5776 61530000 		.4byte	0x5361
 15482 577a BE110000 		.4byte	.LLST72
 15483 577e BA110000 		.4byte	.LVUS72
 15484 5782 60       		.uleb128 0x60
 15485 5783 3B530000 		.4byte	0x533b
 15486 5787 06       		.uleb128 0x6
 15487 5788 03       		.byte	0x3
 15488 5789 00000000 		.4byte	USBD1
 15489 578d 9F       		.byte	0x9f
 15490 578e 63       		.uleb128 0x63
 15491 578f 6E530000 		.4byte	0x536e
 15492 5793 48010000 		.4byte	.Ldebug_ranges0+0x148
 15493 5797 F7590000 		.4byte	0x59f7
 15494 579b 3E       		.uleb128 0x3e
 15495 579c 6F530000 		.4byte	0x536f
 15496 57a0 E2110000 		.4byte	.LLST73
 15497 57a4 DC110000 		.4byte	.LVUS73
 15498 57a8 3C       		.uleb128 0x3c
 15499 57a9 5A560000 		.4byte	0x565a
 15500 57ad 96060000 		.4byte	.LBI367
 15501 57b1 0100     		.2byte	.LVU636
 15502 57b3 F0010000 		.4byte	.Ldebug_ranges0+0x1f0
 15503 57b7 01       		.byte	0x1
 15504 57b8 CF01     		.2byte	0x1cf
 15505 57ba 05       		.byte	0x5
 15506 57bb 21580000 		.4byte	0x5821
 15507 57bf 48       		.uleb128 0x48
 15508 57c0 6E560000 		.4byte	0x566e
 15509 57c4 96060000 		.4byte	.LBI368
 15510 57c8 0300     		.2byte	.LVU638
 15511 57ca F8010000 		.4byte	.Ldebug_ranges0+0x1f8
 15512 57ce 02       		.byte	0x2
 15513 57cf 1502     		.2byte	0x215
 15514 57d1 03       		.byte	0x3
 15515 57d2 48       		.uleb128 0x48
 15516 57d3 82560000 		.4byte	0x5682
 15517 57d7 96060000 		.4byte	.LBI369
 15518 57db 0500     		.2byte	.LVU640
 15519 57dd 00020000 		.4byte	.Ldebug_ranges0+0x200
 15520 57e1 03       		.byte	0x3
 15521 57e2 8B01     		.2byte	0x18b
 15522 57e4 03       		.byte	0x3
 15523 57e5 48       		.uleb128 0x48
 15524 57e6 96560000 		.4byte	0x5696
 15525 57ea 96060000 		.4byte	.LBI370
 15526 57ee 0700     		.2byte	.LVU642
 15527 57f0 08020000 		.4byte	.Ldebug_ranges0+0x208
 15528 57f4 04       		.byte	0x4
 15529 57f5 C602     		.2byte	0x2c6
 15530 57f7 03       		.byte	0x3
 15531 57f8 46       		.uleb128 0x46
 15532 57f9 A0560000 		.4byte	0x56a0
 15533 57fd 96060000 		.4byte	.LBI371
 15534 5801 0900     		.2byte	.LVU644
ARM GAS  /tmp/ccfraM8n.s 			page 274


 15535 5803 96060000 		.4byte	.LBB371
 15536 5807 06000000 		.4byte	.LBE371-.LBB371
 15537 580b 04       		.byte	0x4
 15538 580c A502     		.2byte	0x2a5
 15539 580e 03       		.byte	0x3
 15540 580f 3D       		.uleb128 0x3d
 15541 5810 AE560000 		.4byte	0x56ae
 15542 5814 19120000 		.4byte	.LLST74
 15543 5818 17120000 		.4byte	.LVUS74
 15544 581c 00       		.byte	0
 15545 581d 00       		.byte	0
 15546 581e 00       		.byte	0
 15547 581f 00       		.byte	0
 15548 5820 00       		.byte	0
 15549 5821 41       		.uleb128 0x41
 15550 5822 0B560000 		.4byte	0x560b
 15551 5826 A4060000 		.4byte	.LBI383
 15552 582a 0000     		.2byte	.LVU650
 15553 582c A4060000 		.4byte	.LBB383
 15554 5830 08000000 		.4byte	.LBE383-.LBB383
 15555 5834 01       		.byte	0x1
 15556 5835 CF01     		.2byte	0x1cf
 15557 5837 05       		.byte	0x5
 15558 5838 60580000 		.4byte	0x5860
 15559 583c 3D       		.uleb128 0x3d
 15560 583d 26560000 		.4byte	0x5626
 15561 5841 32120000 		.4byte	.LLST75
 15562 5845 2E120000 		.4byte	.LVUS75
 15563 5849 3D       		.uleb128 0x3d
 15564 584a 19560000 		.4byte	0x5619
 15565 584e 55120000 		.4byte	.LLST76
 15566 5852 51120000 		.4byte	.LVUS76
 15567 5856 4C       		.uleb128 0x4c
 15568 5857 AC060000 		.4byte	.LVL119
 15569 585b F75C0000 		.4byte	0x5cf7
 15570 585f 00       		.byte	0
 15571 5860 3C       		.uleb128 0x3c
 15572 5861 50560000 		.4byte	0x5650
 15573 5865 AC060000 		.4byte	.LBI385
 15574 5869 0200     		.2byte	.LVU655
 15575 586b 20020000 		.4byte	.Ldebug_ranges0+0x220
 15576 586f 01       		.byte	0x1
 15577 5870 CF01     		.2byte	0x1cf
 15578 5872 05       		.byte	0x5
 15579 5873 D9580000 		.4byte	0x58d9
 15580 5877 48       		.uleb128 0x48
 15581 5878 64560000 		.4byte	0x5664
 15582 587c AC060000 		.4byte	.LBI386
 15583 5880 0400     		.2byte	.LVU657
 15584 5882 28020000 		.4byte	.Ldebug_ranges0+0x228
 15585 5886 02       		.byte	0x2
 15586 5887 2002     		.2byte	0x220
 15587 5889 03       		.byte	0x3
 15588 588a 48       		.uleb128 0x48
 15589 588b 78560000 		.4byte	0x5678
 15590 588f AC060000 		.4byte	.LBI387
 15591 5893 0800     		.2byte	.LVU661
ARM GAS  /tmp/ccfraM8n.s 			page 275


 15592 5895 30020000 		.4byte	.Ldebug_ranges0+0x230
 15593 5899 03       		.byte	0x3
 15594 589a A101     		.2byte	0x1a1
 15595 589c 03       		.byte	0x3
 15596 589d 48       		.uleb128 0x48
 15597 589e 8C560000 		.4byte	0x568c
 15598 58a2 AC060000 		.4byte	.LBI388
 15599 58a6 0A00     		.2byte	.LVU663
 15600 58a8 38020000 		.4byte	.Ldebug_ranges0+0x238
 15601 58ac 04       		.byte	0x4
 15602 58ad D102     		.2byte	0x2d1
 15603 58af 03       		.byte	0x3
 15604 58b0 46       		.uleb128 0x46
 15605 58b1 A0560000 		.4byte	0x56a0
 15606 58b5 AC060000 		.4byte	.LBI389
 15607 58b9 0C00     		.2byte	.LVU665
 15608 58bb AC060000 		.4byte	.LBB389
 15609 58bf 06000000 		.4byte	.LBE389-.LBB389
 15610 58c3 04       		.byte	0x4
 15611 58c4 B802     		.2byte	0x2b8
 15612 58c6 03       		.byte	0x3
 15613 58c7 3D       		.uleb128 0x3d
 15614 58c8 AE560000 		.4byte	0x56ae
 15615 58cc 77120000 		.4byte	.LLST77
 15616 58d0 75120000 		.4byte	.LVUS77
 15617 58d4 00       		.byte	0
 15618 58d5 00       		.byte	0
 15619 58d6 00       		.byte	0
 15620 58d7 00       		.byte	0
 15621 58d8 00       		.byte	0
 15622 58d9 3C       		.uleb128 0x3c
 15623 58da 5A560000 		.4byte	0x565a
 15624 58de CC060000 		.4byte	.LBI401
 15625 58e2 0200     		.2byte	.LVU679
 15626 58e4 50020000 		.4byte	.Ldebug_ranges0+0x250
 15627 58e8 01       		.byte	0x1
 15628 58e9 C701     		.2byte	0x1c7
 15629 58eb 09       		.byte	0x9
 15630 58ec 4E590000 		.4byte	0x594e
 15631 58f0 48       		.uleb128 0x48
 15632 58f1 6E560000 		.4byte	0x566e
 15633 58f5 CC060000 		.4byte	.LBI402
 15634 58f9 0400     		.2byte	.LVU681
 15635 58fb 88020000 		.4byte	.Ldebug_ranges0+0x288
 15636 58ff 02       		.byte	0x2
 15637 5900 1502     		.2byte	0x215
 15638 5902 03       		.byte	0x3
 15639 5903 48       		.uleb128 0x48
 15640 5904 82560000 		.4byte	0x5682
 15641 5908 CC060000 		.4byte	.LBI403
 15642 590c 0600     		.2byte	.LVU683
 15643 590e B8020000 		.4byte	.Ldebug_ranges0+0x2b8
 15644 5912 03       		.byte	0x3
 15645 5913 8B01     		.2byte	0x18b
 15646 5915 03       		.byte	0x3
 15647 5916 48       		.uleb128 0x48
 15648 5917 96560000 		.4byte	0x5696
ARM GAS  /tmp/ccfraM8n.s 			page 276


 15649 591b CC060000 		.4byte	.LBI404
 15650 591f 0800     		.2byte	.LVU685
 15651 5921 E0020000 		.4byte	.Ldebug_ranges0+0x2e0
 15652 5925 04       		.byte	0x4
 15653 5926 C602     		.2byte	0x2c6
 15654 5928 03       		.byte	0x3
 15655 5929 48       		.uleb128 0x48
 15656 592a A0560000 		.4byte	0x56a0
 15657 592e CC060000 		.4byte	.LBI405
 15658 5932 0A00     		.2byte	.LVU687
 15659 5934 00030000 		.4byte	.Ldebug_ranges0+0x300
 15660 5938 04       		.byte	0x4
 15661 5939 A502     		.2byte	0x2a5
 15662 593b 03       		.byte	0x3
 15663 593c 3D       		.uleb128 0x3d
 15664 593d AE560000 		.4byte	0x56ae
 15665 5941 8D120000 		.4byte	.LLST78
 15666 5945 8B120000 		.4byte	.LVUS78
 15667 5949 00       		.byte	0
 15668 594a 00       		.byte	0
 15669 594b 00       		.byte	0
 15670 594c 00       		.byte	0
 15671 594d 00       		.byte	0
 15672 594e 3C       		.uleb128 0x3c
 15673 594f 50560000 		.4byte	0x5650
 15674 5953 D8060000 		.4byte	.LBI423
 15675 5957 0100     		.2byte	.LVU694
 15676 5959 18030000 		.4byte	.Ldebug_ranges0+0x318
 15677 595d 01       		.byte	0x1
 15678 595e C901     		.2byte	0x1c9
 15679 5960 09       		.byte	0x9
 15680 5961 C7590000 		.4byte	0x59c7
 15681 5965 48       		.uleb128 0x48
 15682 5966 64560000 		.4byte	0x5664
 15683 596a D8060000 		.4byte	.LBI424
 15684 596e 0300     		.2byte	.LVU696
 15685 5970 20030000 		.4byte	.Ldebug_ranges0+0x320
 15686 5974 02       		.byte	0x2
 15687 5975 2002     		.2byte	0x220
 15688 5977 03       		.byte	0x3
 15689 5978 48       		.uleb128 0x48
 15690 5979 78560000 		.4byte	0x5678
 15691 597d D8060000 		.4byte	.LBI425
 15692 5981 0700     		.2byte	.LVU700
 15693 5983 28030000 		.4byte	.Ldebug_ranges0+0x328
 15694 5987 03       		.byte	0x3
 15695 5988 A101     		.2byte	0x1a1
 15696 598a 03       		.byte	0x3
 15697 598b 48       		.uleb128 0x48
 15698 598c 8C560000 		.4byte	0x568c
 15699 5990 D8060000 		.4byte	.LBI426
 15700 5994 0900     		.2byte	.LVU702
 15701 5996 30030000 		.4byte	.Ldebug_ranges0+0x330
 15702 599a 04       		.byte	0x4
 15703 599b D102     		.2byte	0x2d1
 15704 599d 03       		.byte	0x3
 15705 599e 46       		.uleb128 0x46
ARM GAS  /tmp/ccfraM8n.s 			page 277


 15706 599f A0560000 		.4byte	0x56a0
 15707 59a3 D8060000 		.4byte	.LBI427
 15708 59a7 0B00     		.2byte	.LVU704
 15709 59a9 D8060000 		.4byte	.LBB427
 15710 59ad 04000000 		.4byte	.LBE427-.LBB427
 15711 59b1 04       		.byte	0x4
 15712 59b2 B802     		.2byte	0x2b8
 15713 59b4 03       		.byte	0x3
 15714 59b5 3D       		.uleb128 0x3d
 15715 59b6 AE560000 		.4byte	0x56ae
 15716 59ba A4120000 		.4byte	.LLST79
 15717 59be A2120000 		.4byte	.LVUS79
 15718 59c2 00       		.byte	0
 15719 59c3 00       		.byte	0
 15720 59c4 00       		.byte	0
 15721 59c5 00       		.byte	0
 15722 59c6 00       		.byte	0
 15723 59c7 64       		.uleb128 0x64
 15724 59c8 96060000 		.4byte	.LVL115
 15725 59cc 02       		.uleb128 0x2
 15726 59cd 77       		.byte	0x77
 15727 59ce 00       		.sleb128 0
 15728 59cf E0590000 		.4byte	0x59e0
 15729 59d3 45       		.uleb128 0x45
 15730 59d4 01       		.uleb128 0x1
 15731 59d5 50       		.byte	0x50
 15732 59d6 02       		.uleb128 0x2
 15733 59d7 75       		.byte	0x75
 15734 59d8 00       		.sleb128 0
 15735 59d9 45       		.uleb128 0x45
 15736 59da 01       		.uleb128 0x1
 15737 59db 51       		.byte	0x51
 15738 59dc 02       		.uleb128 0x2
 15739 59dd 76       		.byte	0x76
 15740 59de 00       		.sleb128 0
 15741 59df 00       		.byte	0
 15742 59e0 44       		.uleb128 0x44
 15743 59e1 D8060000 		.4byte	.LVL126
 15744 59e5 EB420000 		.4byte	0x42eb
 15745 59e9 45       		.uleb128 0x45
 15746 59ea 01       		.uleb128 0x1
 15747 59eb 50       		.byte	0x50
 15748 59ec 02       		.uleb128 0x2
 15749 59ed 75       		.byte	0x75
 15750 59ee 00       		.sleb128 0
 15751 59ef 45       		.uleb128 0x45
 15752 59f0 01       		.uleb128 0x1
 15753 59f1 51       		.byte	0x51
 15754 59f2 02       		.uleb128 0x2
 15755 59f3 76       		.byte	0x76
 15756 59f4 00       		.sleb128 0
 15757 59f5 00       		.byte	0
 15758 59f6 00       		.byte	0
 15759 59f7 4D       		.uleb128 0x4d
 15760 59f8 C2060000 		.4byte	.LVL122
 15761 59fc 45       		.uleb128 0x45
 15762 59fd 01       		.uleb128 0x1
ARM GAS  /tmp/ccfraM8n.s 			page 278


 15763 59fe 50       		.byte	0x50
 15764 59ff 02       		.uleb128 0x2
 15765 5a00 75       		.byte	0x75
 15766 5a01 00       		.sleb128 0
 15767 5a02 45       		.uleb128 0x45
 15768 5a03 01       		.uleb128 0x1
 15769 5a04 51       		.byte	0x51
 15770 5a05 02       		.uleb128 0x2
 15771 5a06 76       		.byte	0x76
 15772 5a07 00       		.sleb128 0
 15773 5a08 00       		.byte	0
 15774 5a09 00       		.byte	0
 15775 5a0a 5F       		.uleb128 0x5f
 15776 5a0b 7E530000 		.4byte	0x537e
 15777 5a0f A0070000 		.4byte	.LFB402
 15778 5a13 B4000000 		.4byte	.LFE402-.LFB402
 15779 5a17 01       		.uleb128 0x1
 15780 5a18 9C       		.byte	0x9c
 15781 5a19 C55C0000 		.4byte	0x5cc5
 15782 5a1d 3D       		.uleb128 0x3d
 15783 5a1e 99530000 		.4byte	0x5399
 15784 5a22 C0120000 		.4byte	.LLST84
 15785 5a26 B8120000 		.4byte	.LVUS84
 15786 5a2a 3E       		.uleb128 0x3e
 15787 5a2b A5530000 		.4byte	0x53a5
 15788 5a2f FE120000 		.4byte	.LLST85
 15789 5a33 FA120000 		.4byte	.LVUS85
 15790 5a37 3E       		.uleb128 0x3e
 15791 5a38 B2530000 		.4byte	0x53b2
 15792 5a3c 20130000 		.4byte	.LLST86
 15793 5a40 1C130000 		.4byte	.LVUS86
 15794 5a44 60       		.uleb128 0x60
 15795 5a45 8C530000 		.4byte	0x538c
 15796 5a49 06       		.uleb128 0x6
 15797 5a4a 03       		.byte	0x3
 15798 5a4b 00000000 		.4byte	USBD1
 15799 5a4f 9F       		.byte	0x9f
 15800 5a50 63       		.uleb128 0x63
 15801 5a51 BF530000 		.4byte	0x53bf
 15802 5a55 60030000 		.4byte	.Ldebug_ranges0+0x360
 15803 5a59 BB5C0000 		.4byte	0x5cbb
 15804 5a5d 3E       		.uleb128 0x3e
 15805 5a5e C0530000 		.4byte	0x53c0
 15806 5a62 46130000 		.4byte	.LLST87
 15807 5a66 3E130000 		.4byte	.LVUS87
 15808 5a6a 3C       		.uleb128 0x3c
 15809 5a6b 5A560000 		.4byte	0x565a
 15810 5a6f 08080000 		.4byte	.LBI461
 15811 5a73 0100     		.2byte	.LVU798
 15812 5a75 10040000 		.4byte	.Ldebug_ranges0+0x410
 15813 5a79 01       		.byte	0x1
 15814 5a7a 8F01     		.2byte	0x18f
 15815 5a7c 07       		.byte	0x7
 15816 5a7d E35A0000 		.4byte	0x5ae3
 15817 5a81 48       		.uleb128 0x48
 15818 5a82 6E560000 		.4byte	0x566e
 15819 5a86 08080000 		.4byte	.LBI462
ARM GAS  /tmp/ccfraM8n.s 			page 279


 15820 5a8a 0300     		.2byte	.LVU800
 15821 5a8c 18040000 		.4byte	.Ldebug_ranges0+0x418
 15822 5a90 02       		.byte	0x2
 15823 5a91 1502     		.2byte	0x215
 15824 5a93 03       		.byte	0x3
 15825 5a94 48       		.uleb128 0x48
 15826 5a95 82560000 		.4byte	0x5682
 15827 5a99 08080000 		.4byte	.LBI463
 15828 5a9d 0500     		.2byte	.LVU802
 15829 5a9f 20040000 		.4byte	.Ldebug_ranges0+0x420
 15830 5aa3 03       		.byte	0x3
 15831 5aa4 8B01     		.2byte	0x18b
 15832 5aa6 03       		.byte	0x3
 15833 5aa7 48       		.uleb128 0x48
 15834 5aa8 96560000 		.4byte	0x5696
 15835 5aac 08080000 		.4byte	.LBI464
 15836 5ab0 0700     		.2byte	.LVU804
 15837 5ab2 28040000 		.4byte	.Ldebug_ranges0+0x428
 15838 5ab6 04       		.byte	0x4
 15839 5ab7 C602     		.2byte	0x2c6
 15840 5ab9 03       		.byte	0x3
 15841 5aba 46       		.uleb128 0x46
 15842 5abb A0560000 		.4byte	0x56a0
 15843 5abf 08080000 		.4byte	.LBI465
 15844 5ac3 0900     		.2byte	.LVU806
 15845 5ac5 08080000 		.4byte	.LBB465
 15846 5ac9 06000000 		.4byte	.LBE465-.LBB465
 15847 5acd 04       		.byte	0x4
 15848 5ace A502     		.2byte	0x2a5
 15849 5ad0 03       		.byte	0x3
 15850 5ad1 3D       		.uleb128 0x3d
 15851 5ad2 AE560000 		.4byte	0x56ae
 15852 5ad6 88130000 		.4byte	.LLST88
 15853 5ada 86130000 		.4byte	.LVUS88
 15854 5ade 00       		.byte	0
 15855 5adf 00       		.byte	0
 15856 5ae0 00       		.byte	0
 15857 5ae1 00       		.byte	0
 15858 5ae2 00       		.byte	0
 15859 5ae3 3C       		.uleb128 0x3c
 15860 5ae4 0B560000 		.4byte	0x560b
 15861 5ae8 0E080000 		.4byte	.LBI477
 15862 5aec 0400     		.2byte	.LVU812
 15863 5aee 40040000 		.4byte	.Ldebug_ranges0+0x440
 15864 5af2 01       		.byte	0x1
 15865 5af3 8F01     		.2byte	0x18f
 15866 5af5 07       		.byte	0x7
 15867 5af6 245B0000 		.4byte	0x5b24
 15868 5afa 3D       		.uleb128 0x3d
 15869 5afb 26560000 		.4byte	0x5626
 15870 5aff 9F130000 		.4byte	.LLST89
 15871 5b03 9D130000 		.4byte	.LVUS89
 15872 5b07 3D       		.uleb128 0x3d
 15873 5b08 19560000 		.4byte	0x5619
 15874 5b0c B5130000 		.4byte	.LLST90
 15875 5b10 B3130000 		.4byte	.LVUS90
 15876 5b14 44       		.uleb128 0x44
ARM GAS  /tmp/ccfraM8n.s 			page 280


 15877 5b15 1E080000 		.4byte	.LVL151
 15878 5b19 F75C0000 		.4byte	0x5cf7
 15879 5b1d 45       		.uleb128 0x45
 15880 5b1e 01       		.uleb128 0x1
 15881 5b1f 51       		.byte	0x51
 15882 5b20 01       		.uleb128 0x1
 15883 5b21 30       		.byte	0x30
 15884 5b22 00       		.byte	0
 15885 5b23 00       		.byte	0
 15886 5b24 3C       		.uleb128 0x3c
 15887 5b25 50560000 		.4byte	0x5650
 15888 5b29 1E080000 		.4byte	.LBI483
 15889 5b2d 0200     		.2byte	.LVU820
 15890 5b2f 60040000 		.4byte	.Ldebug_ranges0+0x460
 15891 5b33 01       		.byte	0x1
 15892 5b34 8F01     		.2byte	0x18f
 15893 5b36 07       		.byte	0x7
 15894 5b37 9D5B0000 		.4byte	0x5b9d
 15895 5b3b 48       		.uleb128 0x48
 15896 5b3c 64560000 		.4byte	0x5664
 15897 5b40 1E080000 		.4byte	.LBI484
 15898 5b44 0400     		.2byte	.LVU822
 15899 5b46 68040000 		.4byte	.Ldebug_ranges0+0x468
 15900 5b4a 02       		.byte	0x2
 15901 5b4b 2002     		.2byte	0x220
 15902 5b4d 03       		.byte	0x3
 15903 5b4e 48       		.uleb128 0x48
 15904 5b4f 78560000 		.4byte	0x5678
 15905 5b53 1E080000 		.4byte	.LBI485
 15906 5b57 0800     		.2byte	.LVU826
 15907 5b59 70040000 		.4byte	.Ldebug_ranges0+0x470
 15908 5b5d 03       		.byte	0x3
 15909 5b5e A101     		.2byte	0x1a1
 15910 5b60 03       		.byte	0x3
 15911 5b61 48       		.uleb128 0x48
 15912 5b62 8C560000 		.4byte	0x568c
 15913 5b66 1E080000 		.4byte	.LBI486
 15914 5b6a 0A00     		.2byte	.LVU828
 15915 5b6c 78040000 		.4byte	.Ldebug_ranges0+0x478
 15916 5b70 04       		.byte	0x4
 15917 5b71 D102     		.2byte	0x2d1
 15918 5b73 03       		.byte	0x3
 15919 5b74 46       		.uleb128 0x46
 15920 5b75 A0560000 		.4byte	0x56a0
 15921 5b79 1E080000 		.4byte	.LBI487
 15922 5b7d 0C00     		.2byte	.LVU830
 15923 5b7f 1E080000 		.4byte	.LBB487
 15924 5b83 08000000 		.4byte	.LBE487-.LBB487
 15925 5b87 04       		.byte	0x4
 15926 5b88 B802     		.2byte	0x2b8
 15927 5b8a 03       		.byte	0x3
 15928 5b8b 3D       		.uleb128 0x3d
 15929 5b8c AE560000 		.4byte	0x56ae
 15930 5b90 DA130000 		.4byte	.LLST91
 15931 5b94 D8130000 		.4byte	.LVUS91
 15932 5b98 00       		.byte	0
 15933 5b99 00       		.byte	0
ARM GAS  /tmp/ccfraM8n.s 			page 281


 15934 5b9a 00       		.byte	0
 15935 5b9b 00       		.byte	0
 15936 5b9c 00       		.byte	0
 15937 5b9d 3C       		.uleb128 0x3c
 15938 5b9e 5A560000 		.4byte	0x565a
 15939 5ba2 3C080000 		.4byte	.LBI499
 15940 5ba6 0100     		.2byte	.LVU843
 15941 5ba8 90040000 		.4byte	.Ldebug_ranges0+0x490
 15942 5bac 01       		.byte	0x1
 15943 5bad 8901     		.2byte	0x189
 15944 5baf 07       		.byte	0x7
 15945 5bb0 125C0000 		.4byte	0x5c12
 15946 5bb4 48       		.uleb128 0x48
 15947 5bb5 6E560000 		.4byte	0x566e
 15948 5bb9 3C080000 		.4byte	.LBI500
 15949 5bbd 0300     		.2byte	.LVU845
 15950 5bbf C8040000 		.4byte	.Ldebug_ranges0+0x4c8
 15951 5bc3 02       		.byte	0x2
 15952 5bc4 1502     		.2byte	0x215
 15953 5bc6 03       		.byte	0x3
 15954 5bc7 48       		.uleb128 0x48
 15955 5bc8 82560000 		.4byte	0x5682
 15956 5bcc 3C080000 		.4byte	.LBI501
 15957 5bd0 0500     		.2byte	.LVU847
 15958 5bd2 F8040000 		.4byte	.Ldebug_ranges0+0x4f8
 15959 5bd6 03       		.byte	0x3
 15960 5bd7 8B01     		.2byte	0x18b
 15961 5bd9 03       		.byte	0x3
 15962 5bda 48       		.uleb128 0x48
 15963 5bdb 96560000 		.4byte	0x5696
 15964 5bdf 3C080000 		.4byte	.LBI502
 15965 5be3 0700     		.2byte	.LVU849
 15966 5be5 20050000 		.4byte	.Ldebug_ranges0+0x520
 15967 5be9 04       		.byte	0x4
 15968 5bea C602     		.2byte	0x2c6
 15969 5bec 03       		.byte	0x3
 15970 5bed 48       		.uleb128 0x48
 15971 5bee A0560000 		.4byte	0x56a0
 15972 5bf2 3C080000 		.4byte	.LBI503
 15973 5bf6 0900     		.2byte	.LVU851
 15974 5bf8 40050000 		.4byte	.Ldebug_ranges0+0x540
 15975 5bfc 04       		.byte	0x4
 15976 5bfd A502     		.2byte	0x2a5
 15977 5bff 03       		.byte	0x3
 15978 5c00 3D       		.uleb128 0x3d
 15979 5c01 AE560000 		.4byte	0x56ae
 15980 5c05 F0130000 		.4byte	.LLST92
 15981 5c09 EE130000 		.4byte	.LVUS92
 15982 5c0d 00       		.byte	0
 15983 5c0e 00       		.byte	0
 15984 5c0f 00       		.byte	0
 15985 5c10 00       		.byte	0
 15986 5c11 00       		.byte	0
 15987 5c12 3C       		.uleb128 0x3c
 15988 5c13 50560000 		.4byte	0x5650
 15989 5c17 48080000 		.4byte	.LBI521
 15990 5c1b 0100     		.2byte	.LVU858
ARM GAS  /tmp/ccfraM8n.s 			page 282


 15991 5c1d 58050000 		.4byte	.Ldebug_ranges0+0x558
 15992 5c21 01       		.byte	0x1
 15993 5c22 8B01     		.2byte	0x18b
 15994 5c24 07       		.byte	0x7
 15995 5c25 8B5C0000 		.4byte	0x5c8b
 15996 5c29 48       		.uleb128 0x48
 15997 5c2a 64560000 		.4byte	0x5664
 15998 5c2e 48080000 		.4byte	.LBI522
 15999 5c32 0300     		.2byte	.LVU860
 16000 5c34 60050000 		.4byte	.Ldebug_ranges0+0x560
 16001 5c38 02       		.byte	0x2
 16002 5c39 2002     		.2byte	0x220
 16003 5c3b 03       		.byte	0x3
 16004 5c3c 48       		.uleb128 0x48
 16005 5c3d 78560000 		.4byte	0x5678
 16006 5c41 48080000 		.4byte	.LBI523
 16007 5c45 0700     		.2byte	.LVU864
 16008 5c47 68050000 		.4byte	.Ldebug_ranges0+0x568
 16009 5c4b 03       		.byte	0x3
 16010 5c4c A101     		.2byte	0x1a1
 16011 5c4e 03       		.byte	0x3
 16012 5c4f 48       		.uleb128 0x48
 16013 5c50 8C560000 		.4byte	0x568c
 16014 5c54 48080000 		.4byte	.LBI524
 16015 5c58 0900     		.2byte	.LVU866
 16016 5c5a 70050000 		.4byte	.Ldebug_ranges0+0x570
 16017 5c5e 04       		.byte	0x4
 16018 5c5f D102     		.2byte	0x2d1
 16019 5c61 03       		.byte	0x3
 16020 5c62 46       		.uleb128 0x46
 16021 5c63 A0560000 		.4byte	0x56a0
 16022 5c67 48080000 		.4byte	.LBI525
 16023 5c6b 0B00     		.2byte	.LVU868
 16024 5c6d 48080000 		.4byte	.LBB525
 16025 5c71 0C000000 		.4byte	.LBE525-.LBB525
 16026 5c75 04       		.byte	0x4
 16027 5c76 B802     		.2byte	0x2b8
 16028 5c78 03       		.byte	0x3
 16029 5c79 3D       		.uleb128 0x3d
 16030 5c7a AE560000 		.4byte	0x56ae
 16031 5c7e 07140000 		.4byte	.LLST93
 16032 5c82 05140000 		.4byte	.LVUS93
 16033 5c86 00       		.byte	0
 16034 5c87 00       		.byte	0
 16035 5c88 00       		.byte	0
 16036 5c89 00       		.byte	0
 16037 5c8a 00       		.byte	0
 16038 5c8b 64       		.uleb128 0x64
 16039 5c8c 08080000 		.4byte	.LVL149
 16040 5c90 02       		.uleb128 0x2
 16041 5c91 79       		.byte	0x79
 16042 5c92 00       		.sleb128 0
 16043 5c93 A45C0000 		.4byte	0x5ca4
 16044 5c97 45       		.uleb128 0x45
 16045 5c98 01       		.uleb128 0x1
 16046 5c99 50       		.byte	0x50
 16047 5c9a 02       		.uleb128 0x2
ARM GAS  /tmp/ccfraM8n.s 			page 283


 16048 5c9b 75       		.byte	0x75
 16049 5c9c 00       		.sleb128 0
 16050 5c9d 45       		.uleb128 0x45
 16051 5c9e 01       		.uleb128 0x1
 16052 5c9f 51       		.byte	0x51
 16053 5ca0 02       		.uleb128 0x2
 16054 5ca1 76       		.byte	0x76
 16055 5ca2 00       		.sleb128 0
 16056 5ca3 00       		.byte	0
 16057 5ca4 44       		.uleb128 0x44
 16058 5ca5 48080000 		.4byte	.LVL157
 16059 5ca9 7A420000 		.4byte	0x427a
 16060 5cad 45       		.uleb128 0x45
 16061 5cae 01       		.uleb128 0x1
 16062 5caf 50       		.byte	0x50
 16063 5cb0 02       		.uleb128 0x2
 16064 5cb1 75       		.byte	0x75
 16065 5cb2 00       		.sleb128 0
 16066 5cb3 45       		.uleb128 0x45
 16067 5cb4 01       		.uleb128 0x1
 16068 5cb5 51       		.byte	0x51
 16069 5cb6 02       		.uleb128 0x2
 16070 5cb7 76       		.byte	0x76
 16071 5cb8 00       		.sleb128 0
 16072 5cb9 00       		.byte	0
 16073 5cba 00       		.byte	0
 16074 5cbb 4F       		.uleb128 0x4f
 16075 5cbc 30080000 		.4byte	.LVL154
 16076 5cc0 BC560000 		.4byte	0x56bc
 16077 5cc4 00       		.byte	0
 16078 5cc5 65       		.uleb128 0x65
 16079 5cc6 341D0000 		.4byte	.LASF877
 16080 5cca 341D0000 		.4byte	.LASF877
 16081 5cce 03       		.byte	0x3
 16082 5ccf 2401     		.2byte	0x124
 16083 5cd1 08       		.byte	0x8
 16084 5cd2 66       		.uleb128 0x66
 16085 5cd3 7F040000 		.4byte	.LASF878
 16086 5cd7 7F040000 		.4byte	.LASF878
 16087 5cdb 38       		.byte	0x38
 16088 5cdc 4F       		.byte	0x4f
 16089 5cdd 08       		.byte	0x8
 16090 5cde 66       		.uleb128 0x66
 16091 5cdf 881F0000 		.4byte	.LASF879
 16092 5ce3 881F0000 		.4byte	.LASF879
 16093 5ce7 38       		.byte	0x38
 16094 5ce8 4E       		.byte	0x4e
 16095 5ce9 08       		.byte	0x8
 16096 5cea 65       		.uleb128 0x65
 16097 5ceb DD140000 		.4byte	.LASF880
 16098 5cef DD140000 		.4byte	.LASF880
 16099 5cf3 33       		.byte	0x33
 16100 5cf4 5E02     		.2byte	0x25e
 16101 5cf6 08       		.byte	0x8
 16102 5cf7 66       		.uleb128 0x66
 16103 5cf8 C6070000 		.4byte	.LASF881
 16104 5cfc C6070000 		.4byte	.LASF881
ARM GAS  /tmp/ccfraM8n.s 			page 284


 16105 5d00 39       		.byte	0x39
 16106 5d01 F7       		.byte	0xf7
 16107 5d02 08       		.byte	0x8
 16108 5d03 65       		.uleb128 0x65
 16109 5d04 FE0B0000 		.4byte	.LASF882
 16110 5d08 FE0B0000 		.4byte	.LASF882
 16111 5d0c 33       		.byte	0x33
 16112 5d0d 7102     		.2byte	0x271
 16113 5d0f 08       		.byte	0x8
 16114 5d10 65       		.uleb128 0x65
 16115 5d11 E1000000 		.4byte	.LASF883
 16116 5d15 E1000000 		.4byte	.LASF883
 16117 5d19 33       		.byte	0x33
 16118 5d1a 7202     		.2byte	0x272
 16119 5d1c 08       		.byte	0x8
 16120 5d1d 65       		.uleb128 0x65
 16121 5d1e EB070000 		.4byte	.LASF884
 16122 5d22 EB070000 		.4byte	.LASF884
 16123 5d26 33       		.byte	0x33
 16124 5d27 7002     		.2byte	0x270
 16125 5d29 08       		.byte	0x8
 16126 5d2a 66       		.uleb128 0x66
 16127 5d2b C41B0000 		.4byte	.LASF885
 16128 5d2f C41B0000 		.4byte	.LASF885
 16129 5d33 15       		.byte	0x15
 16130 5d34 EC       		.byte	0xec
 16131 5d35 08       		.byte	0x8
 16132 5d36 66       		.uleb128 0x66
 16133 5d37 481E0000 		.4byte	.LASF886
 16134 5d3b 481E0000 		.4byte	.LASF886
 16135 5d3f 15       		.byte	0x15
 16136 5d40 ED       		.byte	0xed
 16137 5d41 08       		.byte	0x8
 16138 5d42 65       		.uleb128 0x65
 16139 5d43 370F0000 		.4byte	.LASF887
 16140 5d47 370F0000 		.4byte	.LASF887
 16141 5d4b 04       		.byte	0x4
 16142 5d4c 5A02     		.2byte	0x25a
 16143 5d4e 08       		.byte	0x8
 16144 5d4f 00       		.byte	0
 16145              		.section	.debug_abbrev,"",%progbits
 16146              	.Ldebug_abbrev0:
 16147 0000 01       		.uleb128 0x1
 16148 0001 11       		.uleb128 0x11
 16149 0002 01       		.byte	0x1
 16150 0003 25       		.uleb128 0x25
 16151 0004 0E       		.uleb128 0xe
 16152 0005 13       		.uleb128 0x13
 16153 0006 0B       		.uleb128 0xb
 16154 0007 03       		.uleb128 0x3
 16155 0008 0E       		.uleb128 0xe
 16156 0009 1B       		.uleb128 0x1b
 16157 000a 0E       		.uleb128 0xe
 16158 000b 11       		.uleb128 0x11
 16159 000c 01       		.uleb128 0x1
 16160 000d 12       		.uleb128 0x12
 16161 000e 06       		.uleb128 0x6
ARM GAS  /tmp/ccfraM8n.s 			page 285


 16162 000f 10       		.uleb128 0x10
 16163 0010 17       		.uleb128 0x17
 16164 0011 00       		.byte	0
 16165 0012 00       		.byte	0
 16166 0013 02       		.uleb128 0x2
 16167 0014 24       		.uleb128 0x24
 16168 0015 00       		.byte	0
 16169 0016 0B       		.uleb128 0xb
 16170 0017 0B       		.uleb128 0xb
 16171 0018 3E       		.uleb128 0x3e
 16172 0019 0B       		.uleb128 0xb
 16173 001a 03       		.uleb128 0x3
 16174 001b 0E       		.uleb128 0xe
 16175 001c 00       		.byte	0
 16176 001d 00       		.byte	0
 16177 001e 03       		.uleb128 0x3
 16178 001f 24       		.uleb128 0x24
 16179 0020 00       		.byte	0
 16180 0021 0B       		.uleb128 0xb
 16181 0022 0B       		.uleb128 0xb
 16182 0023 3E       		.uleb128 0x3e
 16183 0024 0B       		.uleb128 0xb
 16184 0025 03       		.uleb128 0x3
 16185 0026 08       		.uleb128 0x8
 16186 0027 00       		.byte	0
 16187 0028 00       		.byte	0
 16188 0029 04       		.uleb128 0x4
 16189 002a 16       		.uleb128 0x16
 16190 002b 00       		.byte	0
 16191 002c 03       		.uleb128 0x3
 16192 002d 0E       		.uleb128 0xe
 16193 002e 3A       		.uleb128 0x3a
 16194 002f 0B       		.uleb128 0xb
 16195 0030 3B       		.uleb128 0x3b
 16196 0031 0B       		.uleb128 0xb
 16197 0032 39       		.uleb128 0x39
 16198 0033 0B       		.uleb128 0xb
 16199 0034 49       		.uleb128 0x49
 16200 0035 13       		.uleb128 0x13
 16201 0036 00       		.byte	0
 16202 0037 00       		.byte	0
 16203 0038 05       		.uleb128 0x5
 16204 0039 35       		.uleb128 0x35
 16205 003a 00       		.byte	0
 16206 003b 49       		.uleb128 0x49
 16207 003c 13       		.uleb128 0x13
 16208 003d 00       		.byte	0
 16209 003e 00       		.byte	0
 16210 003f 06       		.uleb128 0x6
 16211 0040 16       		.uleb128 0x16
 16212 0041 00       		.byte	0
 16213 0042 03       		.uleb128 0x3
 16214 0043 0E       		.uleb128 0xe
 16215 0044 3A       		.uleb128 0x3a
 16216 0045 0B       		.uleb128 0xb
 16217 0046 3B       		.uleb128 0x3b
 16218 0047 05       		.uleb128 0x5
ARM GAS  /tmp/ccfraM8n.s 			page 286


 16219 0048 39       		.uleb128 0x39
 16220 0049 0B       		.uleb128 0xb
 16221 004a 49       		.uleb128 0x49
 16222 004b 13       		.uleb128 0x13
 16223 004c 00       		.byte	0
 16224 004d 00       		.byte	0
 16225 004e 07       		.uleb128 0x7
 16226 004f 17       		.uleb128 0x17
 16227 0050 01       		.byte	0x1
 16228 0051 0B       		.uleb128 0xb
 16229 0052 0B       		.uleb128 0xb
 16230 0053 3A       		.uleb128 0x3a
 16231 0054 0B       		.uleb128 0xb
 16232 0055 3B       		.uleb128 0x3b
 16233 0056 0B       		.uleb128 0xb
 16234 0057 39       		.uleb128 0x39
 16235 0058 0B       		.uleb128 0xb
 16236 0059 01       		.uleb128 0x1
 16237 005a 13       		.uleb128 0x13
 16238 005b 00       		.byte	0
 16239 005c 00       		.byte	0
 16240 005d 08       		.uleb128 0x8
 16241 005e 0D       		.uleb128 0xd
 16242 005f 00       		.byte	0
 16243 0060 03       		.uleb128 0x3
 16244 0061 0E       		.uleb128 0xe
 16245 0062 3A       		.uleb128 0x3a
 16246 0063 0B       		.uleb128 0xb
 16247 0064 3B       		.uleb128 0x3b
 16248 0065 0B       		.uleb128 0xb
 16249 0066 39       		.uleb128 0x39
 16250 0067 0B       		.uleb128 0xb
 16251 0068 49       		.uleb128 0x49
 16252 0069 13       		.uleb128 0x13
 16253 006a 00       		.byte	0
 16254 006b 00       		.byte	0
 16255 006c 09       		.uleb128 0x9
 16256 006d 01       		.uleb128 0x1
 16257 006e 01       		.byte	0x1
 16258 006f 49       		.uleb128 0x49
 16259 0070 13       		.uleb128 0x13
 16260 0071 01       		.uleb128 0x1
 16261 0072 13       		.uleb128 0x13
 16262 0073 00       		.byte	0
 16263 0074 00       		.byte	0
 16264 0075 0A       		.uleb128 0xa
 16265 0076 21       		.uleb128 0x21
 16266 0077 00       		.byte	0
 16267 0078 49       		.uleb128 0x49
 16268 0079 13       		.uleb128 0x13
 16269 007a 2F       		.uleb128 0x2f
 16270 007b 0B       		.uleb128 0xb
 16271 007c 00       		.byte	0
 16272 007d 00       		.byte	0
 16273 007e 0B       		.uleb128 0xb
 16274 007f 13       		.uleb128 0x13
 16275 0080 01       		.byte	0x1
ARM GAS  /tmp/ccfraM8n.s 			page 287


 16276 0081 0B       		.uleb128 0xb
 16277 0082 0B       		.uleb128 0xb
 16278 0083 3A       		.uleb128 0x3a
 16279 0084 0B       		.uleb128 0xb
 16280 0085 3B       		.uleb128 0x3b
 16281 0086 0B       		.uleb128 0xb
 16282 0087 39       		.uleb128 0x39
 16283 0088 0B       		.uleb128 0xb
 16284 0089 01       		.uleb128 0x1
 16285 008a 13       		.uleb128 0x13
 16286 008b 00       		.byte	0
 16287 008c 00       		.byte	0
 16288 008d 0C       		.uleb128 0xc
 16289 008e 0D       		.uleb128 0xd
 16290 008f 00       		.byte	0
 16291 0090 03       		.uleb128 0x3
 16292 0091 0E       		.uleb128 0xe
 16293 0092 3A       		.uleb128 0x3a
 16294 0093 0B       		.uleb128 0xb
 16295 0094 3B       		.uleb128 0x3b
 16296 0095 0B       		.uleb128 0xb
 16297 0096 39       		.uleb128 0x39
 16298 0097 0B       		.uleb128 0xb
 16299 0098 49       		.uleb128 0x49
 16300 0099 13       		.uleb128 0x13
 16301 009a 38       		.uleb128 0x38
 16302 009b 0B       		.uleb128 0xb
 16303 009c 00       		.byte	0
 16304 009d 00       		.byte	0
 16305 009e 0D       		.uleb128 0xd
 16306 009f 0F       		.uleb128 0xf
 16307 00a0 00       		.byte	0
 16308 00a1 0B       		.uleb128 0xb
 16309 00a2 0B       		.uleb128 0xb
 16310 00a3 00       		.byte	0
 16311 00a4 00       		.byte	0
 16312 00a5 0E       		.uleb128 0xe
 16313 00a6 0F       		.uleb128 0xf
 16314 00a7 00       		.byte	0
 16315 00a8 0B       		.uleb128 0xb
 16316 00a9 0B       		.uleb128 0xb
 16317 00aa 49       		.uleb128 0x49
 16318 00ab 13       		.uleb128 0x13
 16319 00ac 00       		.byte	0
 16320 00ad 00       		.byte	0
 16321 00ae 0F       		.uleb128 0xf
 16322 00af 13       		.uleb128 0x13
 16323 00b0 00       		.byte	0
 16324 00b1 03       		.uleb128 0x3
 16325 00b2 0E       		.uleb128 0xe
 16326 00b3 3C       		.uleb128 0x3c
 16327 00b4 19       		.uleb128 0x19
 16328 00b5 00       		.byte	0
 16329 00b6 00       		.byte	0
 16330 00b7 10       		.uleb128 0x10
 16331 00b8 13       		.uleb128 0x13
 16332 00b9 01       		.byte	0x1
ARM GAS  /tmp/ccfraM8n.s 			page 288


 16333 00ba 03       		.uleb128 0x3
 16334 00bb 0E       		.uleb128 0xe
 16335 00bc 0B       		.uleb128 0xb
 16336 00bd 0B       		.uleb128 0xb
 16337 00be 3A       		.uleb128 0x3a
 16338 00bf 0B       		.uleb128 0xb
 16339 00c0 3B       		.uleb128 0x3b
 16340 00c1 0B       		.uleb128 0xb
 16341 00c2 39       		.uleb128 0x39
 16342 00c3 0B       		.uleb128 0xb
 16343 00c4 01       		.uleb128 0x1
 16344 00c5 13       		.uleb128 0x13
 16345 00c6 00       		.byte	0
 16346 00c7 00       		.byte	0
 16347 00c8 11       		.uleb128 0x11
 16348 00c9 0D       		.uleb128 0xd
 16349 00ca 00       		.byte	0
 16350 00cb 03       		.uleb128 0x3
 16351 00cc 08       		.uleb128 0x8
 16352 00cd 3A       		.uleb128 0x3a
 16353 00ce 0B       		.uleb128 0xb
 16354 00cf 3B       		.uleb128 0x3b
 16355 00d0 0B       		.uleb128 0xb
 16356 00d1 39       		.uleb128 0x39
 16357 00d2 0B       		.uleb128 0xb
 16358 00d3 49       		.uleb128 0x49
 16359 00d4 13       		.uleb128 0x13
 16360 00d5 38       		.uleb128 0x38
 16361 00d6 0B       		.uleb128 0xb
 16362 00d7 00       		.byte	0
 16363 00d8 00       		.byte	0
 16364 00d9 12       		.uleb128 0x12
 16365 00da 13       		.uleb128 0x13
 16366 00db 01       		.byte	0x1
 16367 00dc 03       		.uleb128 0x3
 16368 00dd 0E       		.uleb128 0xe
 16369 00de 0B       		.uleb128 0xb
 16370 00df 05       		.uleb128 0x5
 16371 00e0 3A       		.uleb128 0x3a
 16372 00e1 0B       		.uleb128 0xb
 16373 00e2 3B       		.uleb128 0x3b
 16374 00e3 0B       		.uleb128 0xb
 16375 00e4 39       		.uleb128 0x39
 16376 00e5 0B       		.uleb128 0xb
 16377 00e6 01       		.uleb128 0x1
 16378 00e7 13       		.uleb128 0x13
 16379 00e8 00       		.byte	0
 16380 00e9 00       		.byte	0
 16381 00ea 13       		.uleb128 0x13
 16382 00eb 0D       		.uleb128 0xd
 16383 00ec 00       		.byte	0
 16384 00ed 03       		.uleb128 0x3
 16385 00ee 0E       		.uleb128 0xe
 16386 00ef 3A       		.uleb128 0x3a
 16387 00f0 0B       		.uleb128 0xb
 16388 00f1 3B       		.uleb128 0x3b
 16389 00f2 0B       		.uleb128 0xb
ARM GAS  /tmp/ccfraM8n.s 			page 289


 16390 00f3 39       		.uleb128 0x39
 16391 00f4 0B       		.uleb128 0xb
 16392 00f5 49       		.uleb128 0x49
 16393 00f6 13       		.uleb128 0x13
 16394 00f7 38       		.uleb128 0x38
 16395 00f8 05       		.uleb128 0x5
 16396 00f9 00       		.byte	0
 16397 00fa 00       		.byte	0
 16398 00fb 14       		.uleb128 0x14
 16399 00fc 15       		.uleb128 0x15
 16400 00fd 00       		.byte	0
 16401 00fe 27       		.uleb128 0x27
 16402 00ff 19       		.uleb128 0x19
 16403 0100 00       		.byte	0
 16404 0101 00       		.byte	0
 16405 0102 15       		.uleb128 0x15
 16406 0103 26       		.uleb128 0x26
 16407 0104 00       		.byte	0
 16408 0105 49       		.uleb128 0x49
 16409 0106 13       		.uleb128 0x13
 16410 0107 00       		.byte	0
 16411 0108 00       		.byte	0
 16412 0109 16       		.uleb128 0x16
 16413 010a 13       		.uleb128 0x13
 16414 010b 01       		.byte	0x1
 16415 010c 03       		.uleb128 0x3
 16416 010d 0E       		.uleb128 0xe
 16417 010e 0B       		.uleb128 0xb
 16418 010f 0B       		.uleb128 0xb
 16419 0110 3A       		.uleb128 0x3a
 16420 0111 0B       		.uleb128 0xb
 16421 0112 3B       		.uleb128 0x3b
 16422 0113 05       		.uleb128 0x5
 16423 0114 39       		.uleb128 0x39
 16424 0115 0B       		.uleb128 0xb
 16425 0116 01       		.uleb128 0x1
 16426 0117 13       		.uleb128 0x13
 16427 0118 00       		.byte	0
 16428 0119 00       		.byte	0
 16429 011a 17       		.uleb128 0x17
 16430 011b 0D       		.uleb128 0xd
 16431 011c 00       		.byte	0
 16432 011d 03       		.uleb128 0x3
 16433 011e 0E       		.uleb128 0xe
 16434 011f 3A       		.uleb128 0x3a
 16435 0120 0B       		.uleb128 0xb
 16436 0121 3B       		.uleb128 0x3b
 16437 0122 05       		.uleb128 0x5
 16438 0123 39       		.uleb128 0x39
 16439 0124 0B       		.uleb128 0xb
 16440 0125 49       		.uleb128 0x49
 16441 0126 13       		.uleb128 0x13
 16442 0127 38       		.uleb128 0x38
 16443 0128 0B       		.uleb128 0xb
 16444 0129 00       		.byte	0
 16445 012a 00       		.byte	0
 16446 012b 18       		.uleb128 0x18
ARM GAS  /tmp/ccfraM8n.s 			page 290


 16447 012c 0D       		.uleb128 0xd
 16448 012d 00       		.byte	0
 16449 012e 03       		.uleb128 0x3
 16450 012f 08       		.uleb128 0x8
 16451 0130 3A       		.uleb128 0x3a
 16452 0131 0B       		.uleb128 0xb
 16453 0132 3B       		.uleb128 0x3b
 16454 0133 05       		.uleb128 0x5
 16455 0134 39       		.uleb128 0x39
 16456 0135 0B       		.uleb128 0xb
 16457 0136 49       		.uleb128 0x49
 16458 0137 13       		.uleb128 0x13
 16459 0138 38       		.uleb128 0x38
 16460 0139 0B       		.uleb128 0xb
 16461 013a 00       		.byte	0
 16462 013b 00       		.byte	0
 16463 013c 19       		.uleb128 0x19
 16464 013d 15       		.uleb128 0x15
 16465 013e 01       		.byte	0x1
 16466 013f 27       		.uleb128 0x27
 16467 0140 19       		.uleb128 0x19
 16468 0141 49       		.uleb128 0x49
 16469 0142 13       		.uleb128 0x13
 16470 0143 01       		.uleb128 0x1
 16471 0144 13       		.uleb128 0x13
 16472 0145 00       		.byte	0
 16473 0146 00       		.byte	0
 16474 0147 1A       		.uleb128 0x1a
 16475 0148 05       		.uleb128 0x5
 16476 0149 00       		.byte	0
 16477 014a 49       		.uleb128 0x49
 16478 014b 13       		.uleb128 0x13
 16479 014c 00       		.byte	0
 16480 014d 00       		.byte	0
 16481 014e 1B       		.uleb128 0x1b
 16482 014f 15       		.uleb128 0x15
 16483 0150 01       		.byte	0x1
 16484 0151 27       		.uleb128 0x27
 16485 0152 19       		.uleb128 0x19
 16486 0153 01       		.uleb128 0x1
 16487 0154 13       		.uleb128 0x13
 16488 0155 00       		.byte	0
 16489 0156 00       		.byte	0
 16490 0157 1C       		.uleb128 0x1c
 16491 0158 34       		.uleb128 0x34
 16492 0159 00       		.byte	0
 16493 015a 03       		.uleb128 0x3
 16494 015b 0E       		.uleb128 0xe
 16495 015c 3A       		.uleb128 0x3a
 16496 015d 0B       		.uleb128 0xb
 16497 015e 3B       		.uleb128 0x3b
 16498 015f 05       		.uleb128 0x5
 16499 0160 39       		.uleb128 0x39
 16500 0161 0B       		.uleb128 0xb
 16501 0162 49       		.uleb128 0x49
 16502 0163 13       		.uleb128 0x13
 16503 0164 3F       		.uleb128 0x3f
ARM GAS  /tmp/ccfraM8n.s 			page 291


 16504 0165 19       		.uleb128 0x19
 16505 0166 3C       		.uleb128 0x3c
 16506 0167 19       		.uleb128 0x19
 16507 0168 00       		.byte	0
 16508 0169 00       		.byte	0
 16509 016a 1D       		.uleb128 0x1d
 16510 016b 13       		.uleb128 0x13
 16511 016c 01       		.byte	0x1
 16512 016d 03       		.uleb128 0x3
 16513 016e 0E       		.uleb128 0xe
 16514 016f 0B       		.uleb128 0xb
 16515 0170 05       		.uleb128 0x5
 16516 0171 3A       		.uleb128 0x3a
 16517 0172 0B       		.uleb128 0xb
 16518 0173 3B       		.uleb128 0x3b
 16519 0174 05       		.uleb128 0x5
 16520 0175 39       		.uleb128 0x39
 16521 0176 0B       		.uleb128 0xb
 16522 0177 01       		.uleb128 0x1
 16523 0178 13       		.uleb128 0x13
 16524 0179 00       		.byte	0
 16525 017a 00       		.byte	0
 16526 017b 1E       		.uleb128 0x1e
 16527 017c 0D       		.uleb128 0xd
 16528 017d 00       		.byte	0
 16529 017e 03       		.uleb128 0x3
 16530 017f 0E       		.uleb128 0xe
 16531 0180 3A       		.uleb128 0x3a
 16532 0181 0B       		.uleb128 0xb
 16533 0182 3B       		.uleb128 0x3b
 16534 0183 05       		.uleb128 0x5
 16535 0184 39       		.uleb128 0x39
 16536 0185 0B       		.uleb128 0xb
 16537 0186 49       		.uleb128 0x49
 16538 0187 13       		.uleb128 0x13
 16539 0188 38       		.uleb128 0x38
 16540 0189 05       		.uleb128 0x5
 16541 018a 00       		.byte	0
 16542 018b 00       		.byte	0
 16543 018c 1F       		.uleb128 0x1f
 16544 018d 0D       		.uleb128 0xd
 16545 018e 00       		.byte	0
 16546 018f 03       		.uleb128 0x3
 16547 0190 08       		.uleb128 0x8
 16548 0191 3A       		.uleb128 0x3a
 16549 0192 0B       		.uleb128 0xb
 16550 0193 3B       		.uleb128 0x3b
 16551 0194 05       		.uleb128 0x5
 16552 0195 39       		.uleb128 0x39
 16553 0196 0B       		.uleb128 0xb
 16554 0197 49       		.uleb128 0x49
 16555 0198 13       		.uleb128 0x13
 16556 0199 38       		.uleb128 0x38
 16557 019a 05       		.uleb128 0x5
 16558 019b 00       		.byte	0
 16559 019c 00       		.byte	0
 16560 019d 20       		.uleb128 0x20
ARM GAS  /tmp/ccfraM8n.s 			page 292


 16561 019e 34       		.uleb128 0x34
 16562 019f 00       		.byte	0
 16563 01a0 03       		.uleb128 0x3
 16564 01a1 0E       		.uleb128 0xe
 16565 01a2 3A       		.uleb128 0x3a
 16566 01a3 0B       		.uleb128 0xb
 16567 01a4 3B       		.uleb128 0x3b
 16568 01a5 0B       		.uleb128 0xb
 16569 01a6 39       		.uleb128 0x39
 16570 01a7 0B       		.uleb128 0xb
 16571 01a8 49       		.uleb128 0x49
 16572 01a9 13       		.uleb128 0x13
 16573 01aa 3F       		.uleb128 0x3f
 16574 01ab 19       		.uleb128 0x19
 16575 01ac 3C       		.uleb128 0x3c
 16576 01ad 19       		.uleb128 0x19
 16577 01ae 00       		.byte	0
 16578 01af 00       		.byte	0
 16579 01b0 21       		.uleb128 0x21
 16580 01b1 13       		.uleb128 0x13
 16581 01b2 01       		.byte	0x1
 16582 01b3 0B       		.uleb128 0xb
 16583 01b4 0B       		.uleb128 0xb
 16584 01b5 3A       		.uleb128 0x3a
 16585 01b6 0B       		.uleb128 0xb
 16586 01b7 3B       		.uleb128 0x3b
 16587 01b8 05       		.uleb128 0x5
 16588 01b9 39       		.uleb128 0x39
 16589 01ba 0B       		.uleb128 0xb
 16590 01bb 01       		.uleb128 0x1
 16591 01bc 13       		.uleb128 0x13
 16592 01bd 00       		.byte	0
 16593 01be 00       		.byte	0
 16594 01bf 22       		.uleb128 0x22
 16595 01c0 13       		.uleb128 0x13
 16596 01c1 01       		.byte	0x1
 16597 01c2 0B       		.uleb128 0xb
 16598 01c3 05       		.uleb128 0x5
 16599 01c4 3A       		.uleb128 0x3a
 16600 01c5 0B       		.uleb128 0xb
 16601 01c6 3B       		.uleb128 0x3b
 16602 01c7 05       		.uleb128 0x5
 16603 01c8 39       		.uleb128 0x39
 16604 01c9 0B       		.uleb128 0xb
 16605 01ca 01       		.uleb128 0x1
 16606 01cb 13       		.uleb128 0x13
 16607 01cc 00       		.byte	0
 16608 01cd 00       		.byte	0
 16609 01ce 23       		.uleb128 0x23
 16610 01cf 0D       		.uleb128 0xd
 16611 01d0 00       		.byte	0
 16612 01d1 03       		.uleb128 0x3
 16613 01d2 08       		.uleb128 0x8
 16614 01d3 3A       		.uleb128 0x3a
 16615 01d4 0B       		.uleb128 0xb
 16616 01d5 3B       		.uleb128 0x3b
 16617 01d6 0B       		.uleb128 0xb
ARM GAS  /tmp/ccfraM8n.s 			page 293


 16618 01d7 39       		.uleb128 0x39
 16619 01d8 0B       		.uleb128 0xb
 16620 01d9 49       		.uleb128 0x49
 16621 01da 13       		.uleb128 0x13
 16622 01db 00       		.byte	0
 16623 01dc 00       		.byte	0
 16624 01dd 24       		.uleb128 0x24
 16625 01de 0D       		.uleb128 0xd
 16626 01df 00       		.byte	0
 16627 01e0 03       		.uleb128 0x3
 16628 01e1 0E       		.uleb128 0xe
 16629 01e2 3A       		.uleb128 0x3a
 16630 01e3 0B       		.uleb128 0xb
 16631 01e4 3B       		.uleb128 0x3b
 16632 01e5 0B       		.uleb128 0xb
 16633 01e6 39       		.uleb128 0x39
 16634 01e7 0B       		.uleb128 0xb
 16635 01e8 49       		.uleb128 0x49
 16636 01e9 13       		.uleb128 0x13
 16637 01ea 0B       		.uleb128 0xb
 16638 01eb 0B       		.uleb128 0xb
 16639 01ec 0D       		.uleb128 0xd
 16640 01ed 0B       		.uleb128 0xb
 16641 01ee 0C       		.uleb128 0xc
 16642 01ef 0B       		.uleb128 0xb
 16643 01f0 38       		.uleb128 0x38
 16644 01f1 0B       		.uleb128 0xb
 16645 01f2 00       		.byte	0
 16646 01f3 00       		.byte	0
 16647 01f4 25       		.uleb128 0x25
 16648 01f5 13       		.uleb128 0x13
 16649 01f6 01       		.byte	0x1
 16650 01f7 0B       		.uleb128 0xb
 16651 01f8 05       		.uleb128 0x5
 16652 01f9 3A       		.uleb128 0x3a
 16653 01fa 0B       		.uleb128 0xb
 16654 01fb 3B       		.uleb128 0x3b
 16655 01fc 0B       		.uleb128 0xb
 16656 01fd 39       		.uleb128 0x39
 16657 01fe 0B       		.uleb128 0xb
 16658 01ff 01       		.uleb128 0x1
 16659 0200 13       		.uleb128 0x13
 16660 0201 00       		.byte	0
 16661 0202 00       		.byte	0
 16662 0203 26       		.uleb128 0x26
 16663 0204 0D       		.uleb128 0xd
 16664 0205 00       		.byte	0
 16665 0206 03       		.uleb128 0x3
 16666 0207 0E       		.uleb128 0xe
 16667 0208 3A       		.uleb128 0x3a
 16668 0209 0B       		.uleb128 0xb
 16669 020a 3B       		.uleb128 0x3b
 16670 020b 05       		.uleb128 0x5
 16671 020c 39       		.uleb128 0x39
 16672 020d 0B       		.uleb128 0xb
 16673 020e 49       		.uleb128 0x49
 16674 020f 13       		.uleb128 0x13
ARM GAS  /tmp/ccfraM8n.s 			page 294


 16675 0210 00       		.byte	0
 16676 0211 00       		.byte	0
 16677 0212 27       		.uleb128 0x27
 16678 0213 34       		.uleb128 0x34
 16679 0214 00       		.byte	0
 16680 0215 03       		.uleb128 0x3
 16681 0216 08       		.uleb128 0x8
 16682 0217 3A       		.uleb128 0x3a
 16683 0218 0B       		.uleb128 0xb
 16684 0219 3B       		.uleb128 0x3b
 16685 021a 05       		.uleb128 0x5
 16686 021b 39       		.uleb128 0x39
 16687 021c 0B       		.uleb128 0xb
 16688 021d 49       		.uleb128 0x49
 16689 021e 13       		.uleb128 0x13
 16690 021f 3F       		.uleb128 0x3f
 16691 0220 19       		.uleb128 0x19
 16692 0221 3C       		.uleb128 0x3c
 16693 0222 19       		.uleb128 0x19
 16694 0223 00       		.byte	0
 16695 0224 00       		.byte	0
 16696 0225 28       		.uleb128 0x28
 16697 0226 21       		.uleb128 0x21
 16698 0227 00       		.byte	0
 16699 0228 00       		.byte	0
 16700 0229 00       		.byte	0
 16701 022a 29       		.uleb128 0x29
 16702 022b 04       		.uleb128 0x4
 16703 022c 01       		.byte	0x1
 16704 022d 3E       		.uleb128 0x3e
 16705 022e 0B       		.uleb128 0xb
 16706 022f 0B       		.uleb128 0xb
 16707 0230 0B       		.uleb128 0xb
 16708 0231 49       		.uleb128 0x49
 16709 0232 13       		.uleb128 0x13
 16710 0233 3A       		.uleb128 0x3a
 16711 0234 0B       		.uleb128 0xb
 16712 0235 3B       		.uleb128 0x3b
 16713 0236 0B       		.uleb128 0xb
 16714 0237 39       		.uleb128 0x39
 16715 0238 0B       		.uleb128 0xb
 16716 0239 01       		.uleb128 0x1
 16717 023a 13       		.uleb128 0x13
 16718 023b 00       		.byte	0
 16719 023c 00       		.byte	0
 16720 023d 2A       		.uleb128 0x2a
 16721 023e 28       		.uleb128 0x28
 16722 023f 00       		.byte	0
 16723 0240 03       		.uleb128 0x3
 16724 0241 0E       		.uleb128 0xe
 16725 0242 1C       		.uleb128 0x1c
 16726 0243 0B       		.uleb128 0xb
 16727 0244 00       		.byte	0
 16728 0245 00       		.byte	0
 16729 0246 2B       		.uleb128 0x2b
 16730 0247 04       		.uleb128 0x4
 16731 0248 01       		.byte	0x1
ARM GAS  /tmp/ccfraM8n.s 			page 295


 16732 0249 3E       		.uleb128 0x3e
 16733 024a 0B       		.uleb128 0xb
 16734 024b 0B       		.uleb128 0xb
 16735 024c 0B       		.uleb128 0xb
 16736 024d 49       		.uleb128 0x49
 16737 024e 13       		.uleb128 0x13
 16738 024f 3A       		.uleb128 0x3a
 16739 0250 0B       		.uleb128 0xb
 16740 0251 3B       		.uleb128 0x3b
 16741 0252 05       		.uleb128 0x5
 16742 0253 39       		.uleb128 0x39
 16743 0254 0B       		.uleb128 0xb
 16744 0255 01       		.uleb128 0x1
 16745 0256 13       		.uleb128 0x13
 16746 0257 00       		.byte	0
 16747 0258 00       		.byte	0
 16748 0259 2C       		.uleb128 0x2c
 16749 025a 17       		.uleb128 0x17
 16750 025b 01       		.byte	0x1
 16751 025c 0B       		.uleb128 0xb
 16752 025d 0B       		.uleb128 0xb
 16753 025e 3A       		.uleb128 0x3a
 16754 025f 0B       		.uleb128 0xb
 16755 0260 3B       		.uleb128 0x3b
 16756 0261 05       		.uleb128 0x5
 16757 0262 39       		.uleb128 0x39
 16758 0263 0B       		.uleb128 0xb
 16759 0264 01       		.uleb128 0x1
 16760 0265 13       		.uleb128 0x13
 16761 0266 00       		.byte	0
 16762 0267 00       		.byte	0
 16763 0268 2D       		.uleb128 0x2d
 16764 0269 0D       		.uleb128 0xd
 16765 026a 00       		.byte	0
 16766 026b 03       		.uleb128 0x3
 16767 026c 08       		.uleb128 0x8
 16768 026d 3A       		.uleb128 0x3a
 16769 026e 0B       		.uleb128 0xb
 16770 026f 3B       		.uleb128 0x3b
 16771 0270 05       		.uleb128 0x5
 16772 0271 39       		.uleb128 0x39
 16773 0272 0B       		.uleb128 0xb
 16774 0273 49       		.uleb128 0x49
 16775 0274 13       		.uleb128 0x13
 16776 0275 00       		.byte	0
 16777 0276 00       		.byte	0
 16778 0277 2E       		.uleb128 0x2e
 16779 0278 21       		.uleb128 0x21
 16780 0279 00       		.byte	0
 16781 027a 49       		.uleb128 0x49
 16782 027b 13       		.uleb128 0x13
 16783 027c 2F       		.uleb128 0x2f
 16784 027d 05       		.uleb128 0x5
 16785 027e 00       		.byte	0
 16786 027f 00       		.byte	0
 16787 0280 2F       		.uleb128 0x2f
 16788 0281 13       		.uleb128 0x13
ARM GAS  /tmp/ccfraM8n.s 			page 296


 16789 0282 01       		.byte	0x1
 16790 0283 0B       		.uleb128 0xb
 16791 0284 06       		.uleb128 0x6
 16792 0285 3A       		.uleb128 0x3a
 16793 0286 0B       		.uleb128 0xb
 16794 0287 3B       		.uleb128 0x3b
 16795 0288 0B       		.uleb128 0xb
 16796 0289 39       		.uleb128 0x39
 16797 028a 0B       		.uleb128 0xb
 16798 028b 01       		.uleb128 0x1
 16799 028c 13       		.uleb128 0x13
 16800 028d 00       		.byte	0
 16801 028e 00       		.byte	0
 16802 028f 30       		.uleb128 0x30
 16803 0290 0D       		.uleb128 0xd
 16804 0291 00       		.byte	0
 16805 0292 03       		.uleb128 0x3
 16806 0293 08       		.uleb128 0x8
 16807 0294 3A       		.uleb128 0x3a
 16808 0295 0B       		.uleb128 0xb
 16809 0296 3B       		.uleb128 0x3b
 16810 0297 0B       		.uleb128 0xb
 16811 0298 39       		.uleb128 0x39
 16812 0299 0B       		.uleb128 0xb
 16813 029a 49       		.uleb128 0x49
 16814 029b 13       		.uleb128 0x13
 16815 029c 38       		.uleb128 0x38
 16816 029d 05       		.uleb128 0x5
 16817 029e 00       		.byte	0
 16818 029f 00       		.byte	0
 16819 02a0 31       		.uleb128 0x31
 16820 02a1 34       		.uleb128 0x34
 16821 02a2 00       		.byte	0
 16822 02a3 47       		.uleb128 0x47
 16823 02a4 13       		.uleb128 0x13
 16824 02a5 3A       		.uleb128 0x3a
 16825 02a6 0B       		.uleb128 0xb
 16826 02a7 3B       		.uleb128 0x3b
 16827 02a8 0B       		.uleb128 0xb
 16828 02a9 39       		.uleb128 0x39
 16829 02aa 0B       		.uleb128 0xb
 16830 02ab 02       		.uleb128 0x2
 16831 02ac 18       		.uleb128 0x18
 16832 02ad 00       		.byte	0
 16833 02ae 00       		.byte	0
 16834 02af 32       		.uleb128 0x32
 16835 02b0 34       		.uleb128 0x34
 16836 02b1 00       		.byte	0
 16837 02b2 03       		.uleb128 0x3
 16838 02b3 0E       		.uleb128 0xe
 16839 02b4 3A       		.uleb128 0x3a
 16840 02b5 0B       		.uleb128 0xb
 16841 02b6 3B       		.uleb128 0x3b
 16842 02b7 0B       		.uleb128 0xb
 16843 02b8 39       		.uleb128 0x39
 16844 02b9 0B       		.uleb128 0xb
 16845 02ba 49       		.uleb128 0x49
ARM GAS  /tmp/ccfraM8n.s 			page 297


 16846 02bb 13       		.uleb128 0x13
 16847 02bc 02       		.uleb128 0x2
 16848 02bd 18       		.uleb128 0x18
 16849 02be 00       		.byte	0
 16850 02bf 00       		.byte	0
 16851 02c0 33       		.uleb128 0x33
 16852 02c1 2E       		.uleb128 0x2e
 16853 02c2 01       		.byte	0x1
 16854 02c3 3F       		.uleb128 0x3f
 16855 02c4 19       		.uleb128 0x19
 16856 02c5 03       		.uleb128 0x3
 16857 02c6 0E       		.uleb128 0xe
 16858 02c7 3A       		.uleb128 0x3a
 16859 02c8 0B       		.uleb128 0xb
 16860 02c9 3B       		.uleb128 0x3b
 16861 02ca 05       		.uleb128 0x5
 16862 02cb 39       		.uleb128 0x39
 16863 02cc 0B       		.uleb128 0xb
 16864 02cd 27       		.uleb128 0x27
 16865 02ce 19       		.uleb128 0x19
 16866 02cf 11       		.uleb128 0x11
 16867 02d0 01       		.uleb128 0x1
 16868 02d1 12       		.uleb128 0x12
 16869 02d2 06       		.uleb128 0x6
 16870 02d3 40       		.uleb128 0x40
 16871 02d4 18       		.uleb128 0x18
 16872 02d5 9742     		.uleb128 0x2117
 16873 02d7 19       		.uleb128 0x19
 16874 02d8 01       		.uleb128 0x1
 16875 02d9 13       		.uleb128 0x13
 16876 02da 00       		.byte	0
 16877 02db 00       		.byte	0
 16878 02dc 34       		.uleb128 0x34
 16879 02dd 05       		.uleb128 0x5
 16880 02de 00       		.byte	0
 16881 02df 03       		.uleb128 0x3
 16882 02e0 0E       		.uleb128 0xe
 16883 02e1 3A       		.uleb128 0x3a
 16884 02e2 0B       		.uleb128 0xb
 16885 02e3 3B       		.uleb128 0x3b
 16886 02e4 05       		.uleb128 0x5
 16887 02e5 39       		.uleb128 0x39
 16888 02e6 0B       		.uleb128 0xb
 16889 02e7 49       		.uleb128 0x49
 16890 02e8 13       		.uleb128 0x13
 16891 02e9 02       		.uleb128 0x2
 16892 02ea 18       		.uleb128 0x18
 16893 02eb 00       		.byte	0
 16894 02ec 00       		.byte	0
 16895 02ed 35       		.uleb128 0x35
 16896 02ee 05       		.uleb128 0x5
 16897 02ef 00       		.byte	0
 16898 02f0 03       		.uleb128 0x3
 16899 02f1 08       		.uleb128 0x8
 16900 02f2 3A       		.uleb128 0x3a
 16901 02f3 0B       		.uleb128 0xb
 16902 02f4 3B       		.uleb128 0x3b
ARM GAS  /tmp/ccfraM8n.s 			page 298


 16903 02f5 05       		.uleb128 0x5
 16904 02f6 39       		.uleb128 0x39
 16905 02f7 0B       		.uleb128 0xb
 16906 02f8 49       		.uleb128 0x49
 16907 02f9 13       		.uleb128 0x13
 16908 02fa 02       		.uleb128 0x2
 16909 02fb 17       		.uleb128 0x17
 16910 02fc B742     		.uleb128 0x2137
 16911 02fe 17       		.uleb128 0x17
 16912 02ff 00       		.byte	0
 16913 0300 00       		.byte	0
 16914 0301 36       		.uleb128 0x36
 16915 0302 05       		.uleb128 0x5
 16916 0303 00       		.byte	0
 16917 0304 03       		.uleb128 0x3
 16918 0305 0E       		.uleb128 0xe
 16919 0306 3A       		.uleb128 0x3a
 16920 0307 0B       		.uleb128 0xb
 16921 0308 3B       		.uleb128 0x3b
 16922 0309 05       		.uleb128 0x5
 16923 030a 39       		.uleb128 0x39
 16924 030b 0B       		.uleb128 0xb
 16925 030c 49       		.uleb128 0x49
 16926 030d 13       		.uleb128 0x13
 16927 030e 02       		.uleb128 0x2
 16928 030f 17       		.uleb128 0x17
 16929 0310 B742     		.uleb128 0x2137
 16930 0312 17       		.uleb128 0x17
 16931 0313 00       		.byte	0
 16932 0314 00       		.byte	0
 16933 0315 37       		.uleb128 0x37
 16934 0316 34       		.uleb128 0x34
 16935 0317 00       		.byte	0
 16936 0318 03       		.uleb128 0x3
 16937 0319 08       		.uleb128 0x8
 16938 031a 3A       		.uleb128 0x3a
 16939 031b 0B       		.uleb128 0xb
 16940 031c 3B       		.uleb128 0x3b
 16941 031d 05       		.uleb128 0x5
 16942 031e 39       		.uleb128 0x39
 16943 031f 0B       		.uleb128 0xb
 16944 0320 49       		.uleb128 0x49
 16945 0321 13       		.uleb128 0x13
 16946 0322 02       		.uleb128 0x2
 16947 0323 17       		.uleb128 0x17
 16948 0324 B742     		.uleb128 0x2137
 16949 0326 17       		.uleb128 0x17
 16950 0327 00       		.byte	0
 16951 0328 00       		.byte	0
 16952 0329 38       		.uleb128 0x38
 16953 032a 0B       		.uleb128 0xb
 16954 032b 01       		.byte	0x1
 16955 032c 55       		.uleb128 0x55
 16956 032d 17       		.uleb128 0x17
 16957 032e 00       		.byte	0
 16958 032f 00       		.byte	0
 16959 0330 39       		.uleb128 0x39
ARM GAS  /tmp/ccfraM8n.s 			page 299


 16960 0331 34       		.uleb128 0x34
 16961 0332 00       		.byte	0
 16962 0333 03       		.uleb128 0x3
 16963 0334 0E       		.uleb128 0xe
 16964 0335 3A       		.uleb128 0x3a
 16965 0336 0B       		.uleb128 0xb
 16966 0337 3B       		.uleb128 0x3b
 16967 0338 05       		.uleb128 0x5
 16968 0339 39       		.uleb128 0x39
 16969 033a 0B       		.uleb128 0xb
 16970 033b 49       		.uleb128 0x49
 16971 033c 13       		.uleb128 0x13
 16972 033d 02       		.uleb128 0x2
 16973 033e 17       		.uleb128 0x17
 16974 033f B742     		.uleb128 0x2137
 16975 0341 17       		.uleb128 0x17
 16976 0342 00       		.byte	0
 16977 0343 00       		.byte	0
 16978 0344 3A       		.uleb128 0x3a
 16979 0345 05       		.uleb128 0x5
 16980 0346 00       		.byte	0
 16981 0347 03       		.uleb128 0x3
 16982 0348 08       		.uleb128 0x8
 16983 0349 3A       		.uleb128 0x3a
 16984 034a 0B       		.uleb128 0xb
 16985 034b 3B       		.uleb128 0x3b
 16986 034c 05       		.uleb128 0x5
 16987 034d 39       		.uleb128 0x39
 16988 034e 0B       		.uleb128 0xb
 16989 034f 49       		.uleb128 0x49
 16990 0350 13       		.uleb128 0x13
 16991 0351 02       		.uleb128 0x2
 16992 0352 18       		.uleb128 0x18
 16993 0353 00       		.byte	0
 16994 0354 00       		.byte	0
 16995 0355 3B       		.uleb128 0x3b
 16996 0356 2E       		.uleb128 0x2e
 16997 0357 01       		.byte	0x1
 16998 0358 3F       		.uleb128 0x3f
 16999 0359 19       		.uleb128 0x19
 17000 035a 03       		.uleb128 0x3
 17001 035b 0E       		.uleb128 0xe
 17002 035c 3A       		.uleb128 0x3a
 17003 035d 0B       		.uleb128 0xb
 17004 035e 3B       		.uleb128 0x3b
 17005 035f 05       		.uleb128 0x5
 17006 0360 39       		.uleb128 0x39
 17007 0361 0B       		.uleb128 0xb
 17008 0362 27       		.uleb128 0x27
 17009 0363 19       		.uleb128 0x19
 17010 0364 49       		.uleb128 0x49
 17011 0365 13       		.uleb128 0x13
 17012 0366 11       		.uleb128 0x11
 17013 0367 01       		.uleb128 0x1
 17014 0368 12       		.uleb128 0x12
 17015 0369 06       		.uleb128 0x6
 17016 036a 40       		.uleb128 0x40
ARM GAS  /tmp/ccfraM8n.s 			page 300


 17017 036b 18       		.uleb128 0x18
 17018 036c 9742     		.uleb128 0x2117
 17019 036e 19       		.uleb128 0x19
 17020 036f 01       		.uleb128 0x1
 17021 0370 13       		.uleb128 0x13
 17022 0371 00       		.byte	0
 17023 0372 00       		.byte	0
 17024 0373 3C       		.uleb128 0x3c
 17025 0374 1D       		.uleb128 0x1d
 17026 0375 01       		.byte	0x1
 17027 0376 31       		.uleb128 0x31
 17028 0377 13       		.uleb128 0x13
 17029 0378 52       		.uleb128 0x52
 17030 0379 01       		.uleb128 0x1
 17031 037a B842     		.uleb128 0x2138
 17032 037c 05       		.uleb128 0x5
 17033 037d 55       		.uleb128 0x55
 17034 037e 17       		.uleb128 0x17
 17035 037f 58       		.uleb128 0x58
 17036 0380 0B       		.uleb128 0xb
 17037 0381 59       		.uleb128 0x59
 17038 0382 05       		.uleb128 0x5
 17039 0383 57       		.uleb128 0x57
 17040 0384 0B       		.uleb128 0xb
 17041 0385 01       		.uleb128 0x1
 17042 0386 13       		.uleb128 0x13
 17043 0387 00       		.byte	0
 17044 0388 00       		.byte	0
 17045 0389 3D       		.uleb128 0x3d
 17046 038a 05       		.uleb128 0x5
 17047 038b 00       		.byte	0
 17048 038c 31       		.uleb128 0x31
 17049 038d 13       		.uleb128 0x13
 17050 038e 02       		.uleb128 0x2
 17051 038f 17       		.uleb128 0x17
 17052 0390 B742     		.uleb128 0x2137
 17053 0392 17       		.uleb128 0x17
 17054 0393 00       		.byte	0
 17055 0394 00       		.byte	0
 17056 0395 3E       		.uleb128 0x3e
 17057 0396 34       		.uleb128 0x34
 17058 0397 00       		.byte	0
 17059 0398 31       		.uleb128 0x31
 17060 0399 13       		.uleb128 0x13
 17061 039a 02       		.uleb128 0x2
 17062 039b 17       		.uleb128 0x17
 17063 039c B742     		.uleb128 0x2137
 17064 039e 17       		.uleb128 0x17
 17065 039f 00       		.byte	0
 17066 03a0 00       		.byte	0
 17067 03a1 3F       		.uleb128 0x3f
 17068 03a2 1D       		.uleb128 0x1d
 17069 03a3 01       		.byte	0x1
 17070 03a4 31       		.uleb128 0x31
 17071 03a5 13       		.uleb128 0x13
 17072 03a6 11       		.uleb128 0x11
 17073 03a7 01       		.uleb128 0x1
ARM GAS  /tmp/ccfraM8n.s 			page 301


 17074 03a8 12       		.uleb128 0x12
 17075 03a9 06       		.uleb128 0x6
 17076 03aa 58       		.uleb128 0x58
 17077 03ab 0B       		.uleb128 0xb
 17078 03ac 59       		.uleb128 0x59
 17079 03ad 05       		.uleb128 0x5
 17080 03ae 57       		.uleb128 0x57
 17081 03af 0B       		.uleb128 0xb
 17082 03b0 00       		.byte	0
 17083 03b1 00       		.byte	0
 17084 03b2 40       		.uleb128 0x40
 17085 03b3 05       		.uleb128 0x5
 17086 03b4 00       		.byte	0
 17087 03b5 31       		.uleb128 0x31
 17088 03b6 13       		.uleb128 0x13
 17089 03b7 00       		.byte	0
 17090 03b8 00       		.byte	0
 17091 03b9 41       		.uleb128 0x41
 17092 03ba 1D       		.uleb128 0x1d
 17093 03bb 01       		.byte	0x1
 17094 03bc 31       		.uleb128 0x31
 17095 03bd 13       		.uleb128 0x13
 17096 03be 52       		.uleb128 0x52
 17097 03bf 01       		.uleb128 0x1
 17098 03c0 B842     		.uleb128 0x2138
 17099 03c2 05       		.uleb128 0x5
 17100 03c3 11       		.uleb128 0x11
 17101 03c4 01       		.uleb128 0x1
 17102 03c5 12       		.uleb128 0x12
 17103 03c6 06       		.uleb128 0x6
 17104 03c7 58       		.uleb128 0x58
 17105 03c8 0B       		.uleb128 0xb
 17106 03c9 59       		.uleb128 0x59
 17107 03ca 05       		.uleb128 0x5
 17108 03cb 57       		.uleb128 0x57
 17109 03cc 0B       		.uleb128 0xb
 17110 03cd 01       		.uleb128 0x1
 17111 03ce 13       		.uleb128 0x13
 17112 03cf 00       		.byte	0
 17113 03d0 00       		.byte	0
 17114 03d1 42       		.uleb128 0x42
 17115 03d2 0B       		.uleb128 0xb
 17116 03d3 01       		.byte	0x1
 17117 03d4 11       		.uleb128 0x11
 17118 03d5 01       		.uleb128 0x1
 17119 03d6 12       		.uleb128 0x12
 17120 03d7 06       		.uleb128 0x6
 17121 03d8 00       		.byte	0
 17122 03d9 00       		.byte	0
 17123 03da 43       		.uleb128 0x43
 17124 03db 1D       		.uleb128 0x1d
 17125 03dc 01       		.byte	0x1
 17126 03dd 31       		.uleb128 0x31
 17127 03de 13       		.uleb128 0x13
 17128 03df 52       		.uleb128 0x52
 17129 03e0 01       		.uleb128 0x1
 17130 03e1 B842     		.uleb128 0x2138
ARM GAS  /tmp/ccfraM8n.s 			page 302


 17131 03e3 05       		.uleb128 0x5
 17132 03e4 11       		.uleb128 0x11
 17133 03e5 01       		.uleb128 0x1
 17134 03e6 12       		.uleb128 0x12
 17135 03e7 06       		.uleb128 0x6
 17136 03e8 58       		.uleb128 0x58
 17137 03e9 0B       		.uleb128 0xb
 17138 03ea 59       		.uleb128 0x59
 17139 03eb 0B       		.uleb128 0xb
 17140 03ec 57       		.uleb128 0x57
 17141 03ed 0B       		.uleb128 0xb
 17142 03ee 00       		.byte	0
 17143 03ef 00       		.byte	0
 17144 03f0 44       		.uleb128 0x44
 17145 03f1 898201   		.uleb128 0x4109
 17146 03f4 01       		.byte	0x1
 17147 03f5 11       		.uleb128 0x11
 17148 03f6 01       		.uleb128 0x1
 17149 03f7 31       		.uleb128 0x31
 17150 03f8 13       		.uleb128 0x13
 17151 03f9 00       		.byte	0
 17152 03fa 00       		.byte	0
 17153 03fb 45       		.uleb128 0x45
 17154 03fc 8A8201   		.uleb128 0x410a
 17155 03ff 00       		.byte	0
 17156 0400 02       		.uleb128 0x2
 17157 0401 18       		.uleb128 0x18
 17158 0402 9142     		.uleb128 0x2111
 17159 0404 18       		.uleb128 0x18
 17160 0405 00       		.byte	0
 17161 0406 00       		.byte	0
 17162 0407 46       		.uleb128 0x46
 17163 0408 1D       		.uleb128 0x1d
 17164 0409 01       		.byte	0x1
 17165 040a 31       		.uleb128 0x31
 17166 040b 13       		.uleb128 0x13
 17167 040c 52       		.uleb128 0x52
 17168 040d 01       		.uleb128 0x1
 17169 040e B842     		.uleb128 0x2138
 17170 0410 05       		.uleb128 0x5
 17171 0411 11       		.uleb128 0x11
 17172 0412 01       		.uleb128 0x1
 17173 0413 12       		.uleb128 0x12
 17174 0414 06       		.uleb128 0x6
 17175 0415 58       		.uleb128 0x58
 17176 0416 0B       		.uleb128 0xb
 17177 0417 59       		.uleb128 0x59
 17178 0418 05       		.uleb128 0x5
 17179 0419 57       		.uleb128 0x57
 17180 041a 0B       		.uleb128 0xb
 17181 041b 00       		.byte	0
 17182 041c 00       		.byte	0
 17183 041d 47       		.uleb128 0x47
 17184 041e 1D       		.uleb128 0x1d
 17185 041f 01       		.byte	0x1
 17186 0420 31       		.uleb128 0x31
 17187 0421 13       		.uleb128 0x13
ARM GAS  /tmp/ccfraM8n.s 			page 303


 17188 0422 52       		.uleb128 0x52
 17189 0423 01       		.uleb128 0x1
 17190 0424 B842     		.uleb128 0x2138
 17191 0426 05       		.uleb128 0x5
 17192 0427 55       		.uleb128 0x55
 17193 0428 17       		.uleb128 0x17
 17194 0429 58       		.uleb128 0x58
 17195 042a 0B       		.uleb128 0xb
 17196 042b 59       		.uleb128 0x59
 17197 042c 0B       		.uleb128 0xb
 17198 042d 57       		.uleb128 0x57
 17199 042e 0B       		.uleb128 0xb
 17200 042f 00       		.byte	0
 17201 0430 00       		.byte	0
 17202 0431 48       		.uleb128 0x48
 17203 0432 1D       		.uleb128 0x1d
 17204 0433 01       		.byte	0x1
 17205 0434 31       		.uleb128 0x31
 17206 0435 13       		.uleb128 0x13
 17207 0436 52       		.uleb128 0x52
 17208 0437 01       		.uleb128 0x1
 17209 0438 B842     		.uleb128 0x2138
 17210 043a 05       		.uleb128 0x5
 17211 043b 55       		.uleb128 0x55
 17212 043c 17       		.uleb128 0x17
 17213 043d 58       		.uleb128 0x58
 17214 043e 0B       		.uleb128 0xb
 17215 043f 59       		.uleb128 0x59
 17216 0440 05       		.uleb128 0x5
 17217 0441 57       		.uleb128 0x57
 17218 0442 0B       		.uleb128 0xb
 17219 0443 00       		.byte	0
 17220 0444 00       		.byte	0
 17221 0445 49       		.uleb128 0x49
 17222 0446 1D       		.uleb128 0x1d
 17223 0447 01       		.byte	0x1
 17224 0448 31       		.uleb128 0x31
 17225 0449 13       		.uleb128 0x13
 17226 044a 52       		.uleb128 0x52
 17227 044b 01       		.uleb128 0x1
 17228 044c B842     		.uleb128 0x2138
 17229 044e 05       		.uleb128 0x5
 17230 044f 55       		.uleb128 0x55
 17231 0450 17       		.uleb128 0x17
 17232 0451 58       		.uleb128 0x58
 17233 0452 0B       		.uleb128 0xb
 17234 0453 59       		.uleb128 0x59
 17235 0454 0B       		.uleb128 0xb
 17236 0455 57       		.uleb128 0x57
 17237 0456 0B       		.uleb128 0xb
 17238 0457 01       		.uleb128 0x1
 17239 0458 13       		.uleb128 0x13
 17240 0459 00       		.byte	0
 17241 045a 00       		.byte	0
 17242 045b 4A       		.uleb128 0x4a
 17243 045c 34       		.uleb128 0x34
 17244 045d 00       		.byte	0
ARM GAS  /tmp/ccfraM8n.s 			page 304


 17245 045e 03       		.uleb128 0x3
 17246 045f 0E       		.uleb128 0xe
 17247 0460 49       		.uleb128 0x49
 17248 0461 13       		.uleb128 0x13
 17249 0462 34       		.uleb128 0x34
 17250 0463 19       		.uleb128 0x19
 17251 0464 02       		.uleb128 0x2
 17252 0465 18       		.uleb128 0x18
 17253 0466 00       		.byte	0
 17254 0467 00       		.byte	0
 17255 0468 4B       		.uleb128 0x4b
 17256 0469 898201   		.uleb128 0x4109
 17257 046c 01       		.byte	0x1
 17258 046d 11       		.uleb128 0x11
 17259 046e 01       		.uleb128 0x1
 17260 046f 01       		.uleb128 0x1
 17261 0470 13       		.uleb128 0x13
 17262 0471 00       		.byte	0
 17263 0472 00       		.byte	0
 17264 0473 4C       		.uleb128 0x4c
 17265 0474 898201   		.uleb128 0x4109
 17266 0477 00       		.byte	0
 17267 0478 11       		.uleb128 0x11
 17268 0479 01       		.uleb128 0x1
 17269 047a 31       		.uleb128 0x31
 17270 047b 13       		.uleb128 0x13
 17271 047c 00       		.byte	0
 17272 047d 00       		.byte	0
 17273 047e 4D       		.uleb128 0x4d
 17274 047f 898201   		.uleb128 0x4109
 17275 0482 01       		.byte	0x1
 17276 0483 11       		.uleb128 0x11
 17277 0484 01       		.uleb128 0x1
 17278 0485 00       		.byte	0
 17279 0486 00       		.byte	0
 17280 0487 4E       		.uleb128 0x4e
 17281 0488 898201   		.uleb128 0x4109
 17282 048b 01       		.byte	0x1
 17283 048c 11       		.uleb128 0x11
 17284 048d 01       		.uleb128 0x1
 17285 048e 31       		.uleb128 0x31
 17286 048f 13       		.uleb128 0x13
 17287 0490 01       		.uleb128 0x1
 17288 0491 13       		.uleb128 0x13
 17289 0492 00       		.byte	0
 17290 0493 00       		.byte	0
 17291 0494 4F       		.uleb128 0x4f
 17292 0495 898201   		.uleb128 0x4109
 17293 0498 00       		.byte	0
 17294 0499 11       		.uleb128 0x11
 17295 049a 01       		.uleb128 0x1
 17296 049b 9542     		.uleb128 0x2115
 17297 049d 19       		.uleb128 0x19
 17298 049e 31       		.uleb128 0x31
 17299 049f 13       		.uleb128 0x13
 17300 04a0 00       		.byte	0
 17301 04a1 00       		.byte	0
ARM GAS  /tmp/ccfraM8n.s 			page 305


 17302 04a2 50       		.uleb128 0x50
 17303 04a3 2E       		.uleb128 0x2e
 17304 04a4 01       		.byte	0x1
 17305 04a5 03       		.uleb128 0x3
 17306 04a6 0E       		.uleb128 0xe
 17307 04a7 3A       		.uleb128 0x3a
 17308 04a8 0B       		.uleb128 0xb
 17309 04a9 3B       		.uleb128 0x3b
 17310 04aa 05       		.uleb128 0x5
 17311 04ab 39       		.uleb128 0x39
 17312 04ac 0B       		.uleb128 0xb
 17313 04ad 27       		.uleb128 0x27
 17314 04ae 19       		.uleb128 0x19
 17315 04af 20       		.uleb128 0x20
 17316 04b0 0B       		.uleb128 0xb
 17317 04b1 01       		.uleb128 0x1
 17318 04b2 13       		.uleb128 0x13
 17319 04b3 00       		.byte	0
 17320 04b4 00       		.byte	0
 17321 04b5 51       		.uleb128 0x51
 17322 04b6 05       		.uleb128 0x5
 17323 04b7 00       		.byte	0
 17324 04b8 03       		.uleb128 0x3
 17325 04b9 0E       		.uleb128 0xe
 17326 04ba 3A       		.uleb128 0x3a
 17327 04bb 0B       		.uleb128 0xb
 17328 04bc 3B       		.uleb128 0x3b
 17329 04bd 05       		.uleb128 0x5
 17330 04be 39       		.uleb128 0x39
 17331 04bf 0B       		.uleb128 0xb
 17332 04c0 49       		.uleb128 0x49
 17333 04c1 13       		.uleb128 0x13
 17334 04c2 00       		.byte	0
 17335 04c3 00       		.byte	0
 17336 04c4 52       		.uleb128 0x52
 17337 04c5 34       		.uleb128 0x34
 17338 04c6 00       		.byte	0
 17339 04c7 03       		.uleb128 0x3
 17340 04c8 0E       		.uleb128 0xe
 17341 04c9 3A       		.uleb128 0x3a
 17342 04ca 0B       		.uleb128 0xb
 17343 04cb 3B       		.uleb128 0x3b
 17344 04cc 05       		.uleb128 0x5
 17345 04cd 39       		.uleb128 0x39
 17346 04ce 0B       		.uleb128 0xb
 17347 04cf 49       		.uleb128 0x49
 17348 04d0 13       		.uleb128 0x13
 17349 04d1 00       		.byte	0
 17350 04d2 00       		.byte	0
 17351 04d3 53       		.uleb128 0x53
 17352 04d4 34       		.uleb128 0x34
 17353 04d5 00       		.byte	0
 17354 04d6 03       		.uleb128 0x3
 17355 04d7 08       		.uleb128 0x8
 17356 04d8 3A       		.uleb128 0x3a
 17357 04d9 0B       		.uleb128 0xb
 17358 04da 3B       		.uleb128 0x3b
ARM GAS  /tmp/ccfraM8n.s 			page 306


 17359 04db 05       		.uleb128 0x5
 17360 04dc 39       		.uleb128 0x39
 17361 04dd 0B       		.uleb128 0xb
 17362 04de 49       		.uleb128 0x49
 17363 04df 13       		.uleb128 0x13
 17364 04e0 00       		.byte	0
 17365 04e1 00       		.byte	0
 17366 04e2 54       		.uleb128 0x54
 17367 04e3 05       		.uleb128 0x5
 17368 04e4 00       		.byte	0
 17369 04e5 03       		.uleb128 0x3
 17370 04e6 08       		.uleb128 0x8
 17371 04e7 3A       		.uleb128 0x3a
 17372 04e8 0B       		.uleb128 0xb
 17373 04e9 3B       		.uleb128 0x3b
 17374 04ea 05       		.uleb128 0x5
 17375 04eb 39       		.uleb128 0x39
 17376 04ec 0B       		.uleb128 0xb
 17377 04ed 49       		.uleb128 0x49
 17378 04ee 13       		.uleb128 0x13
 17379 04ef 00       		.byte	0
 17380 04f0 00       		.byte	0
 17381 04f1 55       		.uleb128 0x55
 17382 04f2 0B       		.uleb128 0xb
 17383 04f3 01       		.byte	0x1
 17384 04f4 00       		.byte	0
 17385 04f5 00       		.byte	0
 17386 04f6 56       		.uleb128 0x56
 17387 04f7 2E       		.uleb128 0x2e
 17388 04f8 01       		.byte	0x1
 17389 04f9 03       		.uleb128 0x3
 17390 04fa 0E       		.uleb128 0xe
 17391 04fb 3A       		.uleb128 0x3a
 17392 04fc 0B       		.uleb128 0xb
 17393 04fd 3B       		.uleb128 0x3b
 17394 04fe 05       		.uleb128 0x5
 17395 04ff 39       		.uleb128 0x39
 17396 0500 0B       		.uleb128 0xb
 17397 0501 27       		.uleb128 0x27
 17398 0502 19       		.uleb128 0x19
 17399 0503 49       		.uleb128 0x49
 17400 0504 13       		.uleb128 0x13
 17401 0505 20       		.uleb128 0x20
 17402 0506 0B       		.uleb128 0xb
 17403 0507 01       		.uleb128 0x1
 17404 0508 13       		.uleb128 0x13
 17405 0509 00       		.byte	0
 17406 050a 00       		.byte	0
 17407 050b 57       		.uleb128 0x57
 17408 050c 2E       		.uleb128 0x2e
 17409 050d 01       		.byte	0x1
 17410 050e 03       		.uleb128 0x3
 17411 050f 0E       		.uleb128 0xe
 17412 0510 3A       		.uleb128 0x3a
 17413 0511 0B       		.uleb128 0xb
 17414 0512 3B       		.uleb128 0x3b
 17415 0513 0B       		.uleb128 0xb
ARM GAS  /tmp/ccfraM8n.s 			page 307


 17416 0514 39       		.uleb128 0x39
 17417 0515 0B       		.uleb128 0xb
 17418 0516 27       		.uleb128 0x27
 17419 0517 19       		.uleb128 0x19
 17420 0518 20       		.uleb128 0x20
 17421 0519 0B       		.uleb128 0xb
 17422 051a 01       		.uleb128 0x1
 17423 051b 13       		.uleb128 0x13
 17424 051c 00       		.byte	0
 17425 051d 00       		.byte	0
 17426 051e 58       		.uleb128 0x58
 17427 051f 05       		.uleb128 0x5
 17428 0520 00       		.byte	0
 17429 0521 03       		.uleb128 0x3
 17430 0522 0E       		.uleb128 0xe
 17431 0523 3A       		.uleb128 0x3a
 17432 0524 0B       		.uleb128 0xb
 17433 0525 3B       		.uleb128 0x3b
 17434 0526 0B       		.uleb128 0xb
 17435 0527 39       		.uleb128 0x39
 17436 0528 0B       		.uleb128 0xb
 17437 0529 49       		.uleb128 0x49
 17438 052a 13       		.uleb128 0x13
 17439 052b 00       		.byte	0
 17440 052c 00       		.byte	0
 17441 052d 59       		.uleb128 0x59
 17442 052e 05       		.uleb128 0x5
 17443 052f 00       		.byte	0
 17444 0530 03       		.uleb128 0x3
 17445 0531 08       		.uleb128 0x8
 17446 0532 3A       		.uleb128 0x3a
 17447 0533 0B       		.uleb128 0xb
 17448 0534 3B       		.uleb128 0x3b
 17449 0535 0B       		.uleb128 0xb
 17450 0536 39       		.uleb128 0x39
 17451 0537 0B       		.uleb128 0xb
 17452 0538 49       		.uleb128 0x49
 17453 0539 13       		.uleb128 0x13
 17454 053a 00       		.byte	0
 17455 053b 00       		.byte	0
 17456 053c 5A       		.uleb128 0x5a
 17457 053d 34       		.uleb128 0x34
 17458 053e 00       		.byte	0
 17459 053f 03       		.uleb128 0x3
 17460 0540 0E       		.uleb128 0xe
 17461 0541 49       		.uleb128 0x49
 17462 0542 13       		.uleb128 0x13
 17463 0543 34       		.uleb128 0x34
 17464 0544 19       		.uleb128 0x19
 17465 0545 00       		.byte	0
 17466 0546 00       		.byte	0
 17467 0547 5B       		.uleb128 0x5b
 17468 0548 2E       		.uleb128 0x2e
 17469 0549 01       		.byte	0x1
 17470 054a 03       		.uleb128 0x3
 17471 054b 0E       		.uleb128 0xe
 17472 054c 3A       		.uleb128 0x3a
ARM GAS  /tmp/ccfraM8n.s 			page 308


 17473 054d 0B       		.uleb128 0xb
 17474 054e 3B       		.uleb128 0x3b
 17475 054f 0B       		.uleb128 0xb
 17476 0550 39       		.uleb128 0x39
 17477 0551 0B       		.uleb128 0xb
 17478 0552 27       		.uleb128 0x27
 17479 0553 19       		.uleb128 0x19
 17480 0554 49       		.uleb128 0x49
 17481 0555 13       		.uleb128 0x13
 17482 0556 20       		.uleb128 0x20
 17483 0557 0B       		.uleb128 0xb
 17484 0558 01       		.uleb128 0x1
 17485 0559 13       		.uleb128 0x13
 17486 055a 00       		.byte	0
 17487 055b 00       		.byte	0
 17488 055c 5C       		.uleb128 0x5c
 17489 055d 34       		.uleb128 0x34
 17490 055e 00       		.byte	0
 17491 055f 03       		.uleb128 0x3
 17492 0560 0E       		.uleb128 0xe
 17493 0561 3A       		.uleb128 0x3a
 17494 0562 0B       		.uleb128 0xb
 17495 0563 3B       		.uleb128 0x3b
 17496 0564 0B       		.uleb128 0xb
 17497 0565 39       		.uleb128 0x39
 17498 0566 0B       		.uleb128 0xb
 17499 0567 49       		.uleb128 0x49
 17500 0568 13       		.uleb128 0x13
 17501 0569 00       		.byte	0
 17502 056a 00       		.byte	0
 17503 056b 5D       		.uleb128 0x5d
 17504 056c 34       		.uleb128 0x34
 17505 056d 00       		.byte	0
 17506 056e 03       		.uleb128 0x3
 17507 056f 08       		.uleb128 0x8
 17508 0570 3A       		.uleb128 0x3a
 17509 0571 0B       		.uleb128 0xb
 17510 0572 3B       		.uleb128 0x3b
 17511 0573 0B       		.uleb128 0xb
 17512 0574 39       		.uleb128 0x39
 17513 0575 0B       		.uleb128 0xb
 17514 0576 49       		.uleb128 0x49
 17515 0577 13       		.uleb128 0x13
 17516 0578 00       		.byte	0
 17517 0579 00       		.byte	0
 17518 057a 5E       		.uleb128 0x5e
 17519 057b 2E       		.uleb128 0x2e
 17520 057c 00       		.byte	0
 17521 057d 03       		.uleb128 0x3
 17522 057e 0E       		.uleb128 0xe
 17523 057f 3A       		.uleb128 0x3a
 17524 0580 0B       		.uleb128 0xb
 17525 0581 3B       		.uleb128 0x3b
 17526 0582 05       		.uleb128 0x5
 17527 0583 39       		.uleb128 0x39
 17528 0584 0B       		.uleb128 0xb
 17529 0585 27       		.uleb128 0x27
ARM GAS  /tmp/ccfraM8n.s 			page 309


 17530 0586 19       		.uleb128 0x19
 17531 0587 20       		.uleb128 0x20
 17532 0588 0B       		.uleb128 0xb
 17533 0589 00       		.byte	0
 17534 058a 00       		.byte	0
 17535 058b 5F       		.uleb128 0x5f
 17536 058c 2E       		.uleb128 0x2e
 17537 058d 01       		.byte	0x1
 17538 058e 31       		.uleb128 0x31
 17539 058f 13       		.uleb128 0x13
 17540 0590 11       		.uleb128 0x11
 17541 0591 01       		.uleb128 0x1
 17542 0592 12       		.uleb128 0x12
 17543 0593 06       		.uleb128 0x6
 17544 0594 40       		.uleb128 0x40
 17545 0595 18       		.uleb128 0x18
 17546 0596 9742     		.uleb128 0x2117
 17547 0598 19       		.uleb128 0x19
 17548 0599 01       		.uleb128 0x1
 17549 059a 13       		.uleb128 0x13
 17550 059b 00       		.byte	0
 17551 059c 00       		.byte	0
 17552 059d 60       		.uleb128 0x60
 17553 059e 05       		.uleb128 0x5
 17554 059f 00       		.byte	0
 17555 05a0 31       		.uleb128 0x31
 17556 05a1 13       		.uleb128 0x13
 17557 05a2 02       		.uleb128 0x2
 17558 05a3 18       		.uleb128 0x18
 17559 05a4 00       		.byte	0
 17560 05a5 00       		.byte	0
 17561 05a6 61       		.uleb128 0x61
 17562 05a7 0B       		.uleb128 0xb
 17563 05a8 01       		.byte	0x1
 17564 05a9 31       		.uleb128 0x31
 17565 05aa 13       		.uleb128 0x13
 17566 05ab 55       		.uleb128 0x55
 17567 05ac 17       		.uleb128 0x17
 17568 05ad 00       		.byte	0
 17569 05ae 00       		.byte	0
 17570 05af 62       		.uleb128 0x62
 17571 05b0 0B       		.uleb128 0xb
 17572 05b1 00       		.byte	0
 17573 05b2 11       		.uleb128 0x11
 17574 05b3 01       		.uleb128 0x1
 17575 05b4 12       		.uleb128 0x12
 17576 05b5 06       		.uleb128 0x6
 17577 05b6 00       		.byte	0
 17578 05b7 00       		.byte	0
 17579 05b8 63       		.uleb128 0x63
 17580 05b9 0B       		.uleb128 0xb
 17581 05ba 01       		.byte	0x1
 17582 05bb 31       		.uleb128 0x31
 17583 05bc 13       		.uleb128 0x13
 17584 05bd 55       		.uleb128 0x55
 17585 05be 17       		.uleb128 0x17
 17586 05bf 01       		.uleb128 0x1
ARM GAS  /tmp/ccfraM8n.s 			page 310


 17587 05c0 13       		.uleb128 0x13
 17588 05c1 00       		.byte	0
 17589 05c2 00       		.byte	0
 17590 05c3 64       		.uleb128 0x64
 17591 05c4 898201   		.uleb128 0x4109
 17592 05c7 01       		.byte	0x1
 17593 05c8 11       		.uleb128 0x11
 17594 05c9 01       		.uleb128 0x1
 17595 05ca 9342     		.uleb128 0x2113
 17596 05cc 18       		.uleb128 0x18
 17597 05cd 01       		.uleb128 0x1
 17598 05ce 13       		.uleb128 0x13
 17599 05cf 00       		.byte	0
 17600 05d0 00       		.byte	0
 17601 05d1 65       		.uleb128 0x65
 17602 05d2 2E       		.uleb128 0x2e
 17603 05d3 00       		.byte	0
 17604 05d4 3F       		.uleb128 0x3f
 17605 05d5 19       		.uleb128 0x19
 17606 05d6 3C       		.uleb128 0x3c
 17607 05d7 19       		.uleb128 0x19
 17608 05d8 6E       		.uleb128 0x6e
 17609 05d9 0E       		.uleb128 0xe
 17610 05da 03       		.uleb128 0x3
 17611 05db 0E       		.uleb128 0xe
 17612 05dc 3A       		.uleb128 0x3a
 17613 05dd 0B       		.uleb128 0xb
 17614 05de 3B       		.uleb128 0x3b
 17615 05df 05       		.uleb128 0x5
 17616 05e0 39       		.uleb128 0x39
 17617 05e1 0B       		.uleb128 0xb
 17618 05e2 00       		.byte	0
 17619 05e3 00       		.byte	0
 17620 05e4 66       		.uleb128 0x66
 17621 05e5 2E       		.uleb128 0x2e
 17622 05e6 00       		.byte	0
 17623 05e7 3F       		.uleb128 0x3f
 17624 05e8 19       		.uleb128 0x19
 17625 05e9 3C       		.uleb128 0x3c
 17626 05ea 19       		.uleb128 0x19
 17627 05eb 6E       		.uleb128 0x6e
 17628 05ec 0E       		.uleb128 0xe
 17629 05ed 03       		.uleb128 0x3
 17630 05ee 0E       		.uleb128 0xe
 17631 05ef 3A       		.uleb128 0x3a
 17632 05f0 0B       		.uleb128 0xb
 17633 05f1 3B       		.uleb128 0x3b
 17634 05f2 0B       		.uleb128 0xb
 17635 05f3 39       		.uleb128 0x39
 17636 05f4 0B       		.uleb128 0xb
 17637 05f5 00       		.byte	0
 17638 05f6 00       		.byte	0
 17639 05f7 00       		.byte	0
 17640              		.section	.debug_loc,"",%progbits
 17641              	.Ldebug_loc0:
 17642              	.LVUS138:
 17643 0000 00       		.uleb128 0
ARM GAS  /tmp/ccfraM8n.s 			page 311


 17644 0001 00       		.uleb128 .LVU1324
 17645 0002 00       		.uleb128 .LVU1324
 17646 0003 00       		.uleb128 0
 17647              	.LLST138:
 17648 0004 000D0000 		.4byte	.LVL262-.Ltext0
 17649 0008 080D0000 		.4byte	.LVL263-.Ltext0
 17650 000c 0100     		.2byte	0x1
 17651 000e 51       		.byte	0x51
 17652 000f 080D0000 		.4byte	.LVL263-.Ltext0
 17653 0013 160D0000 		.4byte	.LFE393-.Ltext0
 17654 0017 0400     		.2byte	0x4
 17655 0019 F3       		.byte	0xf3
 17656 001a 01       		.uleb128 0x1
 17657 001b 51       		.byte	0x51
 17658 001c 9F       		.byte	0x9f
 17659 001d 00000000 		.4byte	0
 17660 0021 00000000 		.4byte	0
 17661              	.LVUS137:
 17662 0025 00       		.uleb128 0
 17663 0026 00       		.uleb128 .LVU1320
 17664 0027 00       		.uleb128 .LVU1320
 17665 0028 00       		.uleb128 0
 17666              	.LLST137:
 17667 0029 E00C0000 		.4byte	.LVL260-.Ltext0
 17668 002d E80C0000 		.4byte	.LVL261-.Ltext0
 17669 0031 0100     		.2byte	0x1
 17670 0033 51       		.byte	0x51
 17671 0034 E80C0000 		.4byte	.LVL261-.Ltext0
 17672 0038 F60C0000 		.4byte	.LFE392-.Ltext0
 17673 003c 0400     		.2byte	0x4
 17674 003e F3       		.byte	0xf3
 17675 003f 01       		.uleb128 0x1
 17676 0040 51       		.byte	0x51
 17677 0041 9F       		.byte	0x9f
 17678 0042 00000000 		.4byte	0
 17679 0046 00000000 		.4byte	0
 17680              	.LVUS136:
 17681 004a 00       		.uleb128 0
 17682 004b 00       		.uleb128 .LVU1316
 17683 004c 00       		.uleb128 .LVU1316
 17684 004d 00       		.uleb128 0
 17685              	.LLST136:
 17686 004e C00C0000 		.4byte	.LVL258-.Ltext0
 17687 0052 C80C0000 		.4byte	.LVL259-.Ltext0
 17688 0056 0100     		.2byte	0x1
 17689 0058 51       		.byte	0x51
 17690 0059 C80C0000 		.4byte	.LVL259-.Ltext0
 17691 005d D60C0000 		.4byte	.LFE391-.Ltext0
 17692 0061 0400     		.2byte	0x4
 17693 0063 F3       		.byte	0xf3
 17694 0064 01       		.uleb128 0x1
 17695 0065 51       		.byte	0x51
 17696 0066 9F       		.byte	0x9f
 17697 0067 00000000 		.4byte	0
 17698 006b 00000000 		.4byte	0
 17699              	.LVUS135:
 17700 006f 00       		.uleb128 0
ARM GAS  /tmp/ccfraM8n.s 			page 312


 17701 0070 00       		.uleb128 .LVU1312
 17702 0071 00       		.uleb128 .LVU1312
 17703 0072 00       		.uleb128 0
 17704              	.LLST135:
 17705 0073 A00C0000 		.4byte	.LVL256-.Ltext0
 17706 0077 A80C0000 		.4byte	.LVL257-.Ltext0
 17707 007b 0100     		.2byte	0x1
 17708 007d 51       		.byte	0x51
 17709 007e A80C0000 		.4byte	.LVL257-.Ltext0
 17710 0082 B60C0000 		.4byte	.LFE390-.Ltext0
 17711 0086 0400     		.2byte	0x4
 17712 0088 F3       		.byte	0xf3
 17713 0089 01       		.uleb128 0x1
 17714 008a 51       		.byte	0x51
 17715 008b 9F       		.byte	0x9f
 17716 008c 00000000 		.4byte	0
 17717 0090 00000000 		.4byte	0
 17718              	.LVUS80:
 17719 0094 00       		.uleb128 0
 17720 0095 00       		.uleb128 .LVU712
 17721 0096 00       		.uleb128 .LVU712
 17722 0097 00       		.uleb128 0
 17723              	.LLST80:
 17724 0098 F0060000 		.4byte	.LVL128-.Ltext0
 17725 009c FA060000 		.4byte	.LVL129-.Ltext0
 17726 00a0 0100     		.2byte	0x1
 17727 00a2 50       		.byte	0x50
 17728 00a3 FA060000 		.4byte	.LVL129-.Ltext0
 17729 00a7 92070000 		.4byte	.LFE389-.Ltext0
 17730 00ab 0400     		.2byte	0x4
 17731 00ad F3       		.byte	0xf3
 17732 00ae 01       		.uleb128 0x1
 17733 00af 50       		.byte	0x50
 17734 00b0 9F       		.byte	0x9f
 17735 00b1 00000000 		.4byte	0
 17736 00b5 00000000 		.4byte	0
 17737              	.LVUS81:
 17738 00b9 00       		.uleb128 0
 17739 00ba 00       		.uleb128 .LVU732
 17740 00bb 00       		.uleb128 .LVU732
 17741 00bc 00       		.uleb128 .LVU736
 17742 00bd 00       		.uleb128 .LVU736
 17743 00be 00       		.uleb128 0
 17744              	.LLST81:
 17745 00bf F0060000 		.4byte	.LVL128-.Ltext0
 17746 00c3 34070000 		.4byte	.LVL133-.Ltext0
 17747 00c7 0100     		.2byte	0x1
 17748 00c9 51       		.byte	0x51
 17749 00ca 34070000 		.4byte	.LVL133-.Ltext0
 17750 00ce 3E070000 		.4byte	.LVL134-.Ltext0
 17751 00d2 0400     		.2byte	0x4
 17752 00d4 F3       		.byte	0xf3
 17753 00d5 01       		.uleb128 0x1
 17754 00d6 51       		.byte	0x51
 17755 00d7 9F       		.byte	0x9f
 17756 00d8 3E070000 		.4byte	.LVL134-.Ltext0
 17757 00dc 92070000 		.4byte	.LFE389-.Ltext0
ARM GAS  /tmp/ccfraM8n.s 			page 313


 17758 00e0 0100     		.2byte	0x1
 17759 00e2 51       		.byte	0x51
 17760 00e3 00000000 		.4byte	0
 17761 00e7 00000000 		.4byte	0
 17762              	.LVUS82:
 17763 00eb 00       		.uleb128 .LVU714
 17764 00ec 00       		.uleb128 .LVU721
 17765 00ed 00       		.uleb128 .LVU721
 17766 00ee 00       		.uleb128 .LVU725
 17767 00ef 00       		.uleb128 .LVU725
 17768 00f0 00       		.uleb128 .LVU732
 17769 00f1 00       		.uleb128 .LVU736
 17770 00f2 00       		.uleb128 .LVU743
 17771 00f3 00       		.uleb128 .LVU743
 17772 00f4 00       		.uleb128 .LVU754
 17773 00f5 00       		.uleb128 .LVU754
 17774 00f6 00       		.uleb128 .LVU758
 17775 00f7 00       		.uleb128 .LVU758
 17776 00f8 00       		.uleb128 0
 17777              	.LLST82:
 17778 00f9 FE060000 		.4byte	.LVL130-.Ltext0
 17779 00fd 0C070000 		.4byte	.LVL131-.Ltext0
 17780 0101 0100     		.2byte	0x1
 17781 0103 54       		.byte	0x54
 17782 0104 0C070000 		.4byte	.LVL131-.Ltext0
 17783 0108 1C070000 		.4byte	.LVL132-.Ltext0
 17784 010c 0200     		.2byte	0x2
 17785 010e 70       		.byte	0x70
 17786 010f 14       		.sleb128 20
 17787 0110 1C070000 		.4byte	.LVL132-.Ltext0
 17788 0114 34070000 		.4byte	.LVL133-.Ltext0
 17789 0118 0D00     		.2byte	0xd
 17790 011a 71       		.byte	0x71
 17791 011b 00       		.sleb128 0
 17792 011c 32       		.byte	0x32
 17793 011d 24       		.byte	0x24
 17794 011e F3       		.byte	0xf3
 17795 011f 01       		.uleb128 0x1
 17796 0120 50       		.byte	0x50
 17797 0121 22       		.byte	0x22
 17798 0122 23       		.byte	0x23
 17799 0123 0C       		.uleb128 0xc
 17800 0124 06       		.byte	0x6
 17801 0125 23       		.byte	0x23
 17802 0126 14       		.uleb128 0x14
 17803 0127 3E070000 		.4byte	.LVL134-.Ltext0
 17804 012b 4C070000 		.4byte	.LVL136-.Ltext0
 17805 012f 0100     		.2byte	0x1
 17806 0131 54       		.byte	0x54
 17807 0132 4C070000 		.4byte	.LVL136-.Ltext0
 17808 0136 6A070000 		.4byte	.LVL138-.Ltext0
 17809 013a 0200     		.2byte	0x2
 17810 013c 70       		.byte	0x70
 17811 013d 14       		.sleb128 20
 17812 013e 6A070000 		.4byte	.LVL138-.Ltext0
 17813 0142 8A070000 		.4byte	.LVL139-.Ltext0
 17814 0146 0D00     		.2byte	0xd
ARM GAS  /tmp/ccfraM8n.s 			page 314


 17815 0148 71       		.byte	0x71
 17816 0149 00       		.sleb128 0
 17817 014a 32       		.byte	0x32
 17818 014b 24       		.byte	0x24
 17819 014c F3       		.byte	0xf3
 17820 014d 01       		.uleb128 0x1
 17821 014e 50       		.byte	0x50
 17822 014f 22       		.byte	0x22
 17823 0150 23       		.byte	0x23
 17824 0151 0C       		.uleb128 0xc
 17825 0152 06       		.byte	0x6
 17826 0153 23       		.byte	0x23
 17827 0154 14       		.uleb128 0x14
 17828 0155 8A070000 		.4byte	.LVL139-.Ltext0
 17829 0159 92070000 		.4byte	.LFE389-.Ltext0
 17830 015d 0100     		.2byte	0x1
 17831 015f 54       		.byte	0x54
 17832 0160 00000000 		.4byte	0
 17833 0164 00000000 		.4byte	0
 17834              	.LVUS83:
 17835 0168 00       		.uleb128 .LVU740
 17836 0169 00       		.uleb128 .LVU746
 17837              	.LLST83:
 17838 016a 46070000 		.4byte	.LVL135-.Ltext0
 17839 016e 56070000 		.4byte	.LVL137-.Ltext0
 17840 0172 1100     		.2byte	0x11
 17841 0174 73       		.byte	0x73
 17842 0175 00       		.sleb128 0
 17843 0176 76       		.byte	0x76
 17844 0177 00       		.sleb128 0
 17845 0178 22       		.byte	0x22
 17846 0179 31       		.byte	0x31
 17847 017a 1C       		.byte	0x1c
 17848 017b F7       		.byte	0xf7
 17849 017c 25       		.uleb128 0x25
 17850 017d 76       		.byte	0x76
 17851 017e 00       		.sleb128 0
 17852 017f F7       		.byte	0xf7
 17853 0180 25       		.uleb128 0x25
 17854 0181 1B       		.byte	0x1b
 17855 0182 F7       		.byte	0xf7
 17856 0183 00       		.uleb128 0
 17857 0184 9F       		.byte	0x9f
 17858 0185 00000000 		.4byte	0
 17859 0189 00000000 		.4byte	0
 17860              	.LVUS65:
 17861 018d 00       		.uleb128 0
 17862 018e 00       		.uleb128 .LVU567
 17863 018f 00       		.uleb128 .LVU567
 17864 0190 00       		.uleb128 .LVU587
 17865 0191 00       		.uleb128 .LVU587
 17866 0192 00       		.uleb128 .LVU589
 17867 0193 00       		.uleb128 .LVU589
 17868 0194 00       		.uleb128 0
 17869              	.LLST65:
 17870 0195 A0050000 		.4byte	.LVL93-.Ltext0
 17871 0199 BE050000 		.4byte	.LVL97-.Ltext0
ARM GAS  /tmp/ccfraM8n.s 			page 315


 17872 019d 0100     		.2byte	0x1
 17873 019f 50       		.byte	0x50
 17874 01a0 BE050000 		.4byte	.LVL97-.Ltext0
 17875 01a4 FE050000 		.4byte	.LVL103-.Ltext0
 17876 01a8 0400     		.2byte	0x4
 17877 01aa F3       		.byte	0xf3
 17878 01ab 01       		.uleb128 0x1
 17879 01ac 50       		.byte	0x50
 17880 01ad 9F       		.byte	0x9f
 17881 01ae FE050000 		.4byte	.LVL103-.Ltext0
 17882 01b2 06060000 		.4byte	.LVL104-.Ltext0
 17883 01b6 0100     		.2byte	0x1
 17884 01b8 50       		.byte	0x50
 17885 01b9 06060000 		.4byte	.LVL104-.Ltext0
 17886 01bd 28060000 		.4byte	.LFE388-.Ltext0
 17887 01c1 0400     		.2byte	0x4
 17888 01c3 F3       		.byte	0xf3
 17889 01c4 01       		.uleb128 0x1
 17890 01c5 50       		.byte	0x50
 17891 01c6 9F       		.byte	0x9f
 17892 01c7 00000000 		.4byte	0
 17893 01cb 00000000 		.4byte	0
 17894              	.LVUS66:
 17895 01cf 00       		.uleb128 0
 17896 01d0 00       		.uleb128 .LVU582
 17897 01d1 00       		.uleb128 .LVU582
 17898 01d2 00       		.uleb128 .LVU587
 17899 01d3 00       		.uleb128 .LVU587
 17900 01d4 00       		.uleb128 .LVU592
 17901 01d5 00       		.uleb128 .LVU592
 17902 01d6 00       		.uleb128 0
 17903              	.LLST66:
 17904 01d7 A0050000 		.4byte	.LVL93-.Ltext0
 17905 01db EA050000 		.4byte	.LVL102-.Ltext0
 17906 01df 0100     		.2byte	0x1
 17907 01e1 51       		.byte	0x51
 17908 01e2 EA050000 		.4byte	.LVL102-.Ltext0
 17909 01e6 FE050000 		.4byte	.LVL103-.Ltext0
 17910 01ea 0400     		.2byte	0x4
 17911 01ec F3       		.byte	0xf3
 17912 01ed 01       		.uleb128 0x1
 17913 01ee 51       		.byte	0x51
 17914 01ef 9F       		.byte	0x9f
 17915 01f0 FE050000 		.4byte	.LVL103-.Ltext0
 17916 01f4 08060000 		.4byte	.LVL105-.Ltext0
 17917 01f8 0100     		.2byte	0x1
 17918 01fa 51       		.byte	0x51
 17919 01fb 08060000 		.4byte	.LVL105-.Ltext0
 17920 01ff 28060000 		.4byte	.LFE388-.Ltext0
 17921 0203 0400     		.2byte	0x4
 17922 0205 F3       		.byte	0xf3
 17923 0206 01       		.uleb128 0x1
 17924 0207 51       		.byte	0x51
 17925 0208 9F       		.byte	0x9f
 17926 0209 00000000 		.4byte	0
 17927 020d 00000000 		.4byte	0
 17928              	.LVUS67:
ARM GAS  /tmp/ccfraM8n.s 			page 316


 17929 0211 00       		.uleb128 .LVU572
 17930 0212 00       		.uleb128 .LVU582
 17931 0213 00       		.uleb128 .LVU589
 17932 0214 00       		.uleb128 .LVU593
 17933              	.LLST67:
 17934 0215 CE050000 		.4byte	.LVL98-.Ltext0
 17935 0219 EA050000 		.4byte	.LVL102-.Ltext0
 17936 021d 0100     		.2byte	0x1
 17937 021f 52       		.byte	0x52
 17938 0220 06060000 		.4byte	.LVL104-.Ltext0
 17939 0224 10060000 		.4byte	.LVL106-.Ltext0
 17940 0228 0100     		.2byte	0x1
 17941 022a 52       		.byte	0x52
 17942 022b 00000000 		.4byte	0
 17943 022f 00000000 		.4byte	0
 17944              	.LVUS68:
 17945 0233 01       		.uleb128 .LVU573
 17946 0234 00       		.uleb128 .LVU575
 17947 0235 00       		.uleb128 .LVU575
 17948 0236 00       		.uleb128 .LVU577
 17949 0237 00       		.uleb128 .LVU577
 17950 0238 00       		.uleb128 .LVU578
 17951 0239 00       		.uleb128 .LVU578
 17952 023a 00       		.uleb128 .LVU582
 17953 023b 00       		.uleb128 .LVU589
 17954 023c 00       		.uleb128 .LVU592
 17955              	.LLST68:
 17956 023d CE050000 		.4byte	.LVL98-.Ltext0
 17957 0241 D2050000 		.4byte	.LVL99-.Ltext0
 17958 0245 0B00     		.2byte	0xb
 17959 0247 73       		.byte	0x73
 17960 0248 00       		.sleb128 0
 17961 0249 72       		.byte	0x72
 17962 024a 00       		.sleb128 0
 17963 024b 1E       		.byte	0x1e
 17964 024c 23       		.byte	0x23
 17965 024d 03       		.uleb128 0x3
 17966 024e 09       		.byte	0x9
 17967 024f FC       		.byte	0xfc
 17968 0250 1A       		.byte	0x1a
 17969 0251 9F       		.byte	0x9f
 17970 0252 D2050000 		.4byte	.LVL99-.Ltext0
 17971 0256 DA050000 		.4byte	.LVL100-.Ltext0
 17972 025a 1C00     		.2byte	0x1c
 17973 025c 71       		.byte	0x71
 17974 025d 00       		.sleb128 0
 17975 025e 32       		.byte	0x32
 17976 025f 24       		.byte	0x24
 17977 0260 F3       		.byte	0xf3
 17978 0261 01       		.uleb128 0x1
 17979 0262 50       		.byte	0x50
 17980 0263 22       		.byte	0x22
 17981 0264 23       		.byte	0x23
 17982 0265 0C       		.uleb128 0xc
 17983 0266 06       		.byte	0x6
 17984 0267 23       		.byte	0x23
 17985 0268 12       		.uleb128 0x12
ARM GAS  /tmp/ccfraM8n.s 			page 317


 17986 0269 94       		.byte	0x94
 17987 026a 02       		.byte	0x2
 17988 026b 0A       		.byte	0xa
 17989 026c FFFF     		.2byte	0xffff
 17990 026e 1A       		.byte	0x1a
 17991 026f 72       		.byte	0x72
 17992 0270 00       		.sleb128 0
 17993 0271 1E       		.byte	0x1e
 17994 0272 23       		.byte	0x23
 17995 0273 03       		.uleb128 0x3
 17996 0274 09       		.byte	0x9
 17997 0275 FC       		.byte	0xfc
 17998 0276 1A       		.byte	0x1a
 17999 0277 9F       		.byte	0x9f
 18000 0278 DA050000 		.4byte	.LVL100-.Ltext0
 18001 027c DE050000 		.4byte	.LVL101-.Ltext0
 18002 0280 0100     		.2byte	0x1
 18003 0282 53       		.byte	0x53
 18004 0283 DE050000 		.4byte	.LVL101-.Ltext0
 18005 0287 EA050000 		.4byte	.LVL102-.Ltext0
 18006 028b 1C00     		.2byte	0x1c
 18007 028d 71       		.byte	0x71
 18008 028e 00       		.sleb128 0
 18009 028f 32       		.byte	0x32
 18010 0290 24       		.byte	0x24
 18011 0291 F3       		.byte	0xf3
 18012 0292 01       		.uleb128 0x1
 18013 0293 50       		.byte	0x50
 18014 0294 22       		.byte	0x22
 18015 0295 23       		.byte	0x23
 18016 0296 0C       		.uleb128 0xc
 18017 0297 06       		.byte	0x6
 18018 0298 23       		.byte	0x23
 18019 0299 12       		.uleb128 0x12
 18020 029a 94       		.byte	0x94
 18021 029b 02       		.byte	0x2
 18022 029c 0A       		.byte	0xa
 18023 029d FFFF     		.2byte	0xffff
 18024 029f 1A       		.byte	0x1a
 18025 02a0 72       		.byte	0x72
 18026 02a1 00       		.sleb128 0
 18027 02a2 1E       		.byte	0x1e
 18028 02a3 23       		.byte	0x23
 18029 02a4 03       		.uleb128 0x3
 18030 02a5 09       		.byte	0x9
 18031 02a6 FC       		.byte	0xfc
 18032 02a7 1A       		.byte	0x1a
 18033 02a8 9F       		.byte	0x9f
 18034 02a9 06060000 		.4byte	.LVL104-.Ltext0
 18035 02ad 08060000 		.4byte	.LVL105-.Ltext0
 18036 02b1 1C00     		.2byte	0x1c
 18037 02b3 71       		.byte	0x71
 18038 02b4 00       		.sleb128 0
 18039 02b5 32       		.byte	0x32
 18040 02b6 24       		.byte	0x24
 18041 02b7 F3       		.byte	0xf3
 18042 02b8 01       		.uleb128 0x1
ARM GAS  /tmp/ccfraM8n.s 			page 318


 18043 02b9 50       		.byte	0x50
 18044 02ba 22       		.byte	0x22
 18045 02bb 23       		.byte	0x23
 18046 02bc 0C       		.uleb128 0xc
 18047 02bd 06       		.byte	0x6
 18048 02be 23       		.byte	0x23
 18049 02bf 12       		.uleb128 0x12
 18050 02c0 94       		.byte	0x94
 18051 02c1 02       		.byte	0x2
 18052 02c2 0A       		.byte	0xa
 18053 02c3 FFFF     		.2byte	0xffff
 18054 02c5 1A       		.byte	0x1a
 18055 02c6 72       		.byte	0x72
 18056 02c7 00       		.sleb128 0
 18057 02c8 1E       		.byte	0x1e
 18058 02c9 23       		.byte	0x23
 18059 02ca 03       		.uleb128 0x3
 18060 02cb 09       		.byte	0x9
 18061 02cc FC       		.byte	0xfc
 18062 02cd 1A       		.byte	0x1a
 18063 02ce 9F       		.byte	0x9f
 18064 02cf 00000000 		.4byte	0
 18065 02d3 00000000 		.4byte	0
 18066              	.LVUS69:
 18067 02d7 00       		.uleb128 .LVU557
 18068 02d8 00       		.uleb128 .LVU564
 18069 02d9 00       		.uleb128 .LVU564
 18070 02da 00       		.uleb128 .LVU565
 18071 02db 00       		.uleb128 .LVU565
 18072 02dc 00       		.uleb128 .LVU567
 18073 02dd 00       		.uleb128 .LVU567
 18074 02de 00       		.uleb128 .LVU582
 18075 02df 00       		.uleb128 .LVU587
 18076 02e0 00       		.uleb128 .LVU589
 18077 02e1 00       		.uleb128 .LVU589
 18078 02e2 00       		.uleb128 .LVU592
 18079              	.LLST69:
 18080 02e3 AA050000 		.4byte	.LVL94-.Ltext0
 18081 02e7 B6050000 		.4byte	.LVL95-.Ltext0
 18082 02eb 0100     		.2byte	0x1
 18083 02ed 53       		.byte	0x53
 18084 02ee B6050000 		.4byte	.LVL95-.Ltext0
 18085 02f2 B8050000 		.4byte	.LVL96-.Ltext0
 18086 02f6 0200     		.2byte	0x2
 18087 02f8 74       		.byte	0x74
 18088 02f9 18       		.sleb128 24
 18089 02fa B8050000 		.4byte	.LVL96-.Ltext0
 18090 02fe BE050000 		.4byte	.LVL97-.Ltext0
 18091 0302 0C00     		.2byte	0xc
 18092 0304 71       		.byte	0x71
 18093 0305 00       		.sleb128 0
 18094 0306 32       		.byte	0x32
 18095 0307 24       		.byte	0x24
 18096 0308 70       		.byte	0x70
 18097 0309 00       		.sleb128 0
 18098 030a 22       		.byte	0x22
 18099 030b 23       		.byte	0x23
ARM GAS  /tmp/ccfraM8n.s 			page 319


 18100 030c 0C       		.uleb128 0xc
 18101 030d 06       		.byte	0x6
 18102 030e 23       		.byte	0x23
 18103 030f 18       		.uleb128 0x18
 18104 0310 BE050000 		.4byte	.LVL97-.Ltext0
 18105 0314 EA050000 		.4byte	.LVL102-.Ltext0
 18106 0318 0D00     		.2byte	0xd
 18107 031a 71       		.byte	0x71
 18108 031b 00       		.sleb128 0
 18109 031c 32       		.byte	0x32
 18110 031d 24       		.byte	0x24
 18111 031e F3       		.byte	0xf3
 18112 031f 01       		.uleb128 0x1
 18113 0320 50       		.byte	0x50
 18114 0321 22       		.byte	0x22
 18115 0322 23       		.byte	0x23
 18116 0323 0C       		.uleb128 0xc
 18117 0324 06       		.byte	0x6
 18118 0325 23       		.byte	0x23
 18119 0326 18       		.uleb128 0x18
 18120 0327 FE050000 		.4byte	.LVL103-.Ltext0
 18121 032b 06060000 		.4byte	.LVL104-.Ltext0
 18122 032f 0100     		.2byte	0x1
 18123 0331 53       		.byte	0x53
 18124 0332 06060000 		.4byte	.LVL104-.Ltext0
 18125 0336 08060000 		.4byte	.LVL105-.Ltext0
 18126 033a 0D00     		.2byte	0xd
 18127 033c 71       		.byte	0x71
 18128 033d 00       		.sleb128 0
 18129 033e 32       		.byte	0x32
 18130 033f 24       		.byte	0x24
 18131 0340 F3       		.byte	0xf3
 18132 0341 01       		.uleb128 0x1
 18133 0342 50       		.byte	0x50
 18134 0343 22       		.byte	0x22
 18135 0344 23       		.byte	0x23
 18136 0345 0C       		.uleb128 0xc
 18137 0346 06       		.byte	0x6
 18138 0347 23       		.byte	0x23
 18139 0348 18       		.uleb128 0x18
 18140 0349 00000000 		.4byte	0
 18141 034d 00000000 		.4byte	0
 18142              	.LVUS64:
 18143 0351 00       		.uleb128 0
 18144 0352 00       		.uleb128 .LVU547
 18145 0353 00       		.uleb128 .LVU547
 18146 0354 00       		.uleb128 0
 18147              	.LLST64:
 18148 0355 80050000 		.4byte	.LVL91-.Ltext0
 18149 0359 84050000 		.4byte	.LVL92-.Ltext0
 18150 035d 0100     		.2byte	0x1
 18151 035f 51       		.byte	0x51
 18152 0360 84050000 		.4byte	.LVL92-.Ltext0
 18153 0364 92050000 		.4byte	.LFE387-.Ltext0
 18154 0368 0400     		.2byte	0x4
 18155 036a F3       		.byte	0xf3
 18156 036b 01       		.uleb128 0x1
ARM GAS  /tmp/ccfraM8n.s 			page 320


 18157 036c 51       		.byte	0x51
 18158 036d 9F       		.byte	0x9f
 18159 036e 00000000 		.4byte	0
 18160 0372 00000000 		.4byte	0
 18161              	.LVUS61:
 18162 0376 00       		.uleb128 0
 18163 0377 00       		.uleb128 .LVU539
 18164 0378 00       		.uleb128 .LVU539
 18165 0379 00       		.uleb128 0
 18166              	.LLST61:
 18167 037a 60050000 		.4byte	.LVL87-.Ltext0
 18168 037e 6E050000 		.4byte	.LVL90-.Ltext0
 18169 0382 0100     		.2byte	0x1
 18170 0384 50       		.byte	0x50
 18171 0385 6E050000 		.4byte	.LVL90-.Ltext0
 18172 0389 7C050000 		.4byte	.LFE386-.Ltext0
 18173 038d 0400     		.2byte	0x4
 18174 038f F3       		.byte	0xf3
 18175 0390 01       		.uleb128 0x1
 18176 0391 50       		.byte	0x50
 18177 0392 9F       		.byte	0x9f
 18178 0393 00000000 		.4byte	0
 18179 0397 00000000 		.4byte	0
 18180              	.LVUS62:
 18181 039b 00       		.uleb128 0
 18182 039c 00       		.uleb128 .LVU535
 18183 039d 00       		.uleb128 .LVU535
 18184 039e 00       		.uleb128 0
 18185              	.LLST62:
 18186 039f 60050000 		.4byte	.LVL87-.Ltext0
 18187 03a3 62050000 		.4byte	.LVL88-.Ltext0
 18188 03a7 0100     		.2byte	0x1
 18189 03a9 51       		.byte	0x51
 18190 03aa 62050000 		.4byte	.LVL88-.Ltext0
 18191 03ae 7C050000 		.4byte	.LFE386-.Ltext0
 18192 03b2 0400     		.2byte	0x4
 18193 03b4 F3       		.byte	0xf3
 18194 03b5 01       		.uleb128 0x1
 18195 03b6 51       		.byte	0x51
 18196 03b7 9F       		.byte	0x9f
 18197 03b8 00000000 		.4byte	0
 18198 03bc 00000000 		.4byte	0
 18199              	.LVUS63:
 18200 03c0 00       		.uleb128 .LVU537
 18201 03c1 00       		.uleb128 0
 18202              	.LLST63:
 18203 03c2 6A050000 		.4byte	.LVL89-.Ltext0
 18204 03c6 7C050000 		.4byte	.LFE386-.Ltext0
 18205 03ca 0100     		.2byte	0x1
 18206 03cc 53       		.byte	0x53
 18207 03cd 00000000 		.4byte	0
 18208 03d1 00000000 		.4byte	0
 18209              	.LVUS58:
 18210 03d5 00       		.uleb128 0
 18211 03d6 00       		.uleb128 .LVU525
 18212 03d7 00       		.uleb128 .LVU525
 18213 03d8 00       		.uleb128 0
ARM GAS  /tmp/ccfraM8n.s 			page 321


 18214              	.LLST58:
 18215 03d9 40050000 		.4byte	.LVL83-.Ltext0
 18216 03dd 4E050000 		.4byte	.LVL86-.Ltext0
 18217 03e1 0100     		.2byte	0x1
 18218 03e3 50       		.byte	0x50
 18219 03e4 4E050000 		.4byte	.LVL86-.Ltext0
 18220 03e8 5C050000 		.4byte	.LFE385-.Ltext0
 18221 03ec 0400     		.2byte	0x4
 18222 03ee F3       		.byte	0xf3
 18223 03ef 01       		.uleb128 0x1
 18224 03f0 50       		.byte	0x50
 18225 03f1 9F       		.byte	0x9f
 18226 03f2 00000000 		.4byte	0
 18227 03f6 00000000 		.4byte	0
 18228              	.LVUS59:
 18229 03fa 00       		.uleb128 0
 18230 03fb 00       		.uleb128 .LVU521
 18231 03fc 00       		.uleb128 .LVU521
 18232 03fd 00       		.uleb128 0
 18233              	.LLST59:
 18234 03fe 40050000 		.4byte	.LVL83-.Ltext0
 18235 0402 42050000 		.4byte	.LVL84-.Ltext0
 18236 0406 0100     		.2byte	0x1
 18237 0408 51       		.byte	0x51
 18238 0409 42050000 		.4byte	.LVL84-.Ltext0
 18239 040d 5C050000 		.4byte	.LFE385-.Ltext0
 18240 0411 0400     		.2byte	0x4
 18241 0413 F3       		.byte	0xf3
 18242 0414 01       		.uleb128 0x1
 18243 0415 51       		.byte	0x51
 18244 0416 9F       		.byte	0x9f
 18245 0417 00000000 		.4byte	0
 18246 041b 00000000 		.4byte	0
 18247              	.LVUS60:
 18248 041f 00       		.uleb128 .LVU523
 18249 0420 00       		.uleb128 0
 18250              	.LLST60:
 18251 0421 4A050000 		.4byte	.LVL85-.Ltext0
 18252 0425 5C050000 		.4byte	.LFE385-.Ltext0
 18253 0429 0100     		.2byte	0x1
 18254 042b 53       		.byte	0x53
 18255 042c 00000000 		.4byte	0
 18256 0430 00000000 		.4byte	0
 18257              	.LVUS53:
 18258 0434 00       		.uleb128 0
 18259 0435 00       		.uleb128 .LVU493
 18260 0436 00       		.uleb128 .LVU493
 18261 0437 00       		.uleb128 0
 18262              	.LLST53:
 18263 0438 E0040000 		.4byte	.LVL78-.Ltext0
 18264 043c F4040000 		.4byte	.LVL80-.Ltext0
 18265 0440 0100     		.2byte	0x1
 18266 0442 50       		.byte	0x50
 18267 0443 F4040000 		.4byte	.LVL80-.Ltext0
 18268 0447 3E050000 		.4byte	.LFE384-.Ltext0
 18269 044b 0400     		.2byte	0x4
 18270 044d F3       		.byte	0xf3
ARM GAS  /tmp/ccfraM8n.s 			page 322


 18271 044e 01       		.uleb128 0x1
 18272 044f 50       		.byte	0x50
 18273 0450 9F       		.byte	0x9f
 18274 0451 00000000 		.4byte	0
 18275 0455 00000000 		.4byte	0
 18276              	.LVUS54:
 18277 0459 02       		.uleb128 .LVU489
 18278 045a 00       		.uleb128 .LVU493
 18279 045b 00       		.uleb128 .LVU493
 18280 045c 00       		.uleb128 0
 18281              	.LLST54:
 18282 045d F2040000 		.4byte	.LVL79-.Ltext0
 18283 0461 F4040000 		.4byte	.LVL80-.Ltext0
 18284 0465 0100     		.2byte	0x1
 18285 0467 50       		.byte	0x50
 18286 0468 F4040000 		.4byte	.LVL80-.Ltext0
 18287 046c 3E050000 		.4byte	.LFE384-.Ltext0
 18288 0470 0400     		.2byte	0x4
 18289 0472 F3       		.byte	0xf3
 18290 0473 01       		.uleb128 0x1
 18291 0474 50       		.byte	0x50
 18292 0475 9F       		.byte	0x9f
 18293 0476 00000000 		.4byte	0
 18294 047a 00000000 		.4byte	0
 18295              	.LVUS55:
 18296 047e 02       		.uleb128 .LVU489
 18297 047f 00       		.uleb128 .LVU493
 18298 0480 00       		.uleb128 .LVU493
 18299 0481 00       		.uleb128 0
 18300              	.LLST55:
 18301 0482 F2040000 		.4byte	.LVL79-.Ltext0
 18302 0486 F4040000 		.4byte	.LVL80-.Ltext0
 18303 048a 0100     		.2byte	0x1
 18304 048c 50       		.byte	0x50
 18305 048d F4040000 		.4byte	.LVL80-.Ltext0
 18306 0491 3E050000 		.4byte	.LFE384-.Ltext0
 18307 0495 0400     		.2byte	0x4
 18308 0497 F3       		.byte	0xf3
 18309 0498 01       		.uleb128 0x1
 18310 0499 50       		.byte	0x50
 18311 049a 9F       		.byte	0x9f
 18312 049b 00000000 		.4byte	0
 18313 049f 00000000 		.4byte	0
 18314              	.LVUS56:
 18315 04a3 03       		.uleb128 .LVU490
 18316 04a4 00       		.uleb128 .LVU514
 18317              	.LLST56:
 18318 04a5 F2040000 		.4byte	.LVL79-.Ltext0
 18319 04a9 3A050000 		.4byte	.LVL82-.Ltext0
 18320 04ad 0100     		.2byte	0x1
 18321 04af 54       		.byte	0x54
 18322 04b0 00000000 		.4byte	0
 18323 04b4 00000000 		.4byte	0
 18324              	.LVUS57:
 18325 04b8 05       		.uleb128 .LVU492
 18326 04b9 00       		.uleb128 .LVU493
 18327 04ba 00       		.uleb128 .LVU493
ARM GAS  /tmp/ccfraM8n.s 			page 323


 18328 04bb 01       		.uleb128 .LVU509
 18329 04bc 01       		.uleb128 .LVU509
 18330 04bd 00       		.uleb128 .LVU514
 18331              	.LLST57:
 18332 04be F2040000 		.4byte	.LVL79-.Ltext0
 18333 04c2 F4040000 		.4byte	.LVL80-.Ltext0
 18334 04c6 0200     		.2byte	0x2
 18335 04c8 30       		.byte	0x30
 18336 04c9 9F       		.byte	0x9f
 18337 04ca F4040000 		.4byte	.LVL80-.Ltext0
 18338 04ce 2A050000 		.4byte	.LVL81-.Ltext0
 18339 04d2 0100     		.2byte	0x1
 18340 04d4 51       		.byte	0x51
 18341 04d5 2A050000 		.4byte	.LVL81-.Ltext0
 18342 04d9 3A050000 		.4byte	.LVL82-.Ltext0
 18343 04dd 0100     		.2byte	0x1
 18344 04df 50       		.byte	0x50
 18345 04e0 00000000 		.4byte	0
 18346 04e4 00000000 		.4byte	0
 18347              	.LVUS37:
 18348 04e8 00       		.uleb128 0
 18349 04e9 00       		.uleb128 .LVU437
 18350 04ea 00       		.uleb128 .LVU437
 18351 04eb 00       		.uleb128 .LVU451
 18352 04ec 00       		.uleb128 .LVU451
 18353 04ed 00       		.uleb128 .LVU465
 18354 04ee 00       		.uleb128 .LVU465
 18355 04ef 00       		.uleb128 .LVU475
 18356 04f0 00       		.uleb128 .LVU475
 18357 04f1 00       		.uleb128 0
 18358              	.LLST37:
 18359 04f2 A0030000 		.4byte	.LVL60-.Ltext0
 18360 04f6 4A040000 		.4byte	.LVL70-.Ltext0
 18361 04fa 0100     		.2byte	0x1
 18362 04fc 50       		.byte	0x50
 18363 04fd 4A040000 		.4byte	.LVL70-.Ltext0
 18364 0501 74040000 		.4byte	.LVL72-.Ltext0
 18365 0505 0400     		.2byte	0x4
 18366 0507 F3       		.byte	0xf3
 18367 0508 01       		.uleb128 0x1
 18368 0509 50       		.byte	0x50
 18369 050a 9F       		.byte	0x9f
 18370 050b 74040000 		.4byte	.LVL72-.Ltext0
 18371 050f 8E040000 		.4byte	.LVL75-.Ltext0
 18372 0513 0100     		.2byte	0x1
 18373 0515 50       		.byte	0x50
 18374 0516 8E040000 		.4byte	.LVL75-.Ltext0
 18375 051a B2040000 		.4byte	.LVL77-.Ltext0
 18376 051e 0400     		.2byte	0x4
 18377 0520 F3       		.byte	0xf3
 18378 0521 01       		.uleb128 0x1
 18379 0522 50       		.byte	0x50
 18380 0523 9F       		.byte	0x9f
 18381 0524 B2040000 		.4byte	.LVL77-.Ltext0
 18382 0528 D8040000 		.4byte	.LFE383-.Ltext0
 18383 052c 0100     		.2byte	0x1
 18384 052e 50       		.byte	0x50
ARM GAS  /tmp/ccfraM8n.s 			page 324


 18385 052f 00000000 		.4byte	0
 18386 0533 00000000 		.4byte	0
 18387              	.LVUS38:
 18388 0537 00       		.uleb128 0
 18389 0538 00       		.uleb128 .LVU381
 18390 0539 00       		.uleb128 .LVU381
 18391 053a 00       		.uleb128 0
 18392              	.LLST38:
 18393 053b A0030000 		.4byte	.LVL60-.Ltext0
 18394 053f CC030000 		.4byte	.LVL62-.Ltext0
 18395 0543 0100     		.2byte	0x1
 18396 0545 51       		.byte	0x51
 18397 0546 CC030000 		.4byte	.LVL62-.Ltext0
 18398 054a D8040000 		.4byte	.LFE383-.Ltext0
 18399 054e 0400     		.2byte	0x4
 18400 0550 F3       		.byte	0xf3
 18401 0551 01       		.uleb128 0x1
 18402 0552 51       		.byte	0x51
 18403 0553 9F       		.byte	0x9f
 18404 0554 00000000 		.4byte	0
 18405 0558 00000000 		.4byte	0
 18406              	.LVUS39:
 18407 055c 00       		.uleb128 .LVU385
 18408 055d 00       		.uleb128 0
 18409              	.LLST39:
 18410 055e E2030000 		.4byte	.LVL63-.Ltext0
 18411 0562 D8040000 		.4byte	.LFE383-.Ltext0
 18412 0566 0100     		.2byte	0x1
 18413 0568 59       		.byte	0x59
 18414 0569 00000000 		.4byte	0
 18415 056d 00000000 		.4byte	0
 18416              	.LVUS40:
 18417 0571 00       		.uleb128 .LVU408
 18418 0572 00       		.uleb128 .LVU419
 18419              	.LLST40:
 18420 0573 28040000 		.4byte	.LVL64-.Ltext0
 18421 0577 3A040000 		.4byte	.LVL66-.Ltext0
 18422 057b 0100     		.2byte	0x1
 18423 057d 53       		.byte	0x53
 18424 057e 00000000 		.4byte	0
 18425 0582 00000000 		.4byte	0
 18426              	.LVUS41:
 18427 0586 02       		.uleb128 .LVU377
 18428 0587 00       		.uleb128 0
 18429              	.LLST41:
 18430 0588 BA030000 		.4byte	.LVL61-.Ltext0
 18431 058c D8040000 		.4byte	.LFE383-.Ltext0
 18432 0590 0100     		.2byte	0x1
 18433 0592 54       		.byte	0x54
 18434 0593 00000000 		.4byte	0
 18435 0597 00000000 		.4byte	0
 18436              	.LVUS42:
 18437 059b 02       		.uleb128 .LVU414
 18438 059c 00       		.uleb128 .LVU437
 18439 059d 00       		.uleb128 .LVU437
 18440 059e 00       		.uleb128 .LVU451
 18441              	.LLST42:
ARM GAS  /tmp/ccfraM8n.s 			page 325


 18442 059f 32040000 		.4byte	.LVL65-.Ltext0
 18443 05a3 4A040000 		.4byte	.LVL70-.Ltext0
 18444 05a7 0100     		.2byte	0x1
 18445 05a9 50       		.byte	0x50
 18446 05aa 4A040000 		.4byte	.LVL70-.Ltext0
 18447 05ae 74040000 		.4byte	.LVL72-.Ltext0
 18448 05b2 0400     		.2byte	0x4
 18449 05b4 F3       		.byte	0xf3
 18450 05b5 01       		.uleb128 0x1
 18451 05b6 50       		.byte	0x50
 18452 05b7 9F       		.byte	0x9f
 18453 05b8 00000000 		.4byte	0
 18454 05bc 00000000 		.4byte	0
 18455              	.LVUS43:
 18456 05c0 01       		.uleb128 .LVU413
 18457 05c1 00       		.uleb128 .LVU419
 18458              	.LLST43:
 18459 05c2 32040000 		.4byte	.LVL65-.Ltext0
 18460 05c6 3A040000 		.4byte	.LVL66-.Ltext0
 18461 05ca 0100     		.2byte	0x1
 18462 05cc 53       		.byte	0x53
 18463 05cd 00000000 		.4byte	0
 18464 05d1 00000000 		.4byte	0
 18465              	.LVUS44:
 18466 05d5 04       		.uleb128 .LVU416
 18467 05d6 03       		.uleb128 .LVU423
 18468              	.LLST44:
 18469 05d7 32040000 		.4byte	.LVL65-.Ltext0
 18470 05db 3E040000 		.4byte	.LVL67-.Ltext0
 18471 05df 0100     		.2byte	0x1
 18472 05e1 56       		.byte	0x56
 18473 05e2 00000000 		.4byte	0
 18474 05e6 00000000 		.4byte	0
 18475              	.LVUS45:
 18476 05ea 02       		.uleb128 .LVU427
 18477 05eb 00       		.uleb128 .LVU437
 18478 05ec 00       		.uleb128 .LVU437
 18479 05ed 00       		.uleb128 .LVU451
 18480              	.LLST45:
 18481 05ee 40040000 		.4byte	.LVL68-.Ltext0
 18482 05f2 4A040000 		.4byte	.LVL70-.Ltext0
 18483 05f6 0100     		.2byte	0x1
 18484 05f8 50       		.byte	0x50
 18485 05f9 4A040000 		.4byte	.LVL70-.Ltext0
 18486 05fd 74040000 		.4byte	.LVL72-.Ltext0
 18487 0601 0400     		.2byte	0x4
 18488 0603 F3       		.byte	0xf3
 18489 0604 01       		.uleb128 0x1
 18490 0605 50       		.byte	0x50
 18491 0606 9F       		.byte	0x9f
 18492 0607 00000000 		.4byte	0
 18493 060b 00000000 		.4byte	0
 18494              	.LVUS46:
 18495 060f 01       		.uleb128 .LVU426
 18496 0610 00       		.uleb128 .LVU438
 18497              	.LLST46:
 18498 0611 40040000 		.4byte	.LVL68-.Ltext0
ARM GAS  /tmp/ccfraM8n.s 			page 326


 18499 0615 4E040000 		.4byte	.LVL71-.Ltext0
 18500 0619 0600     		.2byte	0x6
 18501 061b 75       		.byte	0x75
 18502 061c 00       		.sleb128 0
 18503 061d 08       		.byte	0x8
 18504 061e FF       		.byte	0xff
 18505 061f 1A       		.byte	0x1a
 18506 0620 9F       		.byte	0x9f
 18507 0621 00000000 		.4byte	0
 18508 0625 00000000 		.4byte	0
 18509              	.LVUS47:
 18510 0629 03       		.uleb128 .LVU428
 18511 062a 00       		.uleb128 .LVU438
 18512              	.LLST47:
 18513 062b 40040000 		.4byte	.LVL68-.Ltext0
 18514 062f 4E040000 		.4byte	.LVL71-.Ltext0
 18515 0633 0100     		.2byte	0x1
 18516 0635 54       		.byte	0x54
 18517 0636 00000000 		.4byte	0
 18518 063a 00000000 		.4byte	0
 18519              	.LVUS48:
 18520 063e 01       		.uleb128 .LVU435
 18521 063f 00       		.uleb128 .LVU438
 18522              	.LLST48:
 18523 0640 48040000 		.4byte	.LVL69-.Ltext0
 18524 0644 4E040000 		.4byte	.LVL71-.Ltext0
 18525 0648 0200     		.2byte	0x2
 18526 064a 42       		.byte	0x42
 18527 064b 9F       		.byte	0x9f
 18528 064c 00000000 		.4byte	0
 18529 0650 00000000 		.4byte	0
 18530              	.LVUS49:
 18531 0654 02       		.uleb128 .LVU455
 18532 0655 00       		.uleb128 .LVU465
 18533 0656 00       		.uleb128 .LVU465
 18534 0657 00       		.uleb128 .LVU475
 18535              	.LLST49:
 18536 0658 80040000 		.4byte	.LVL73-.Ltext0
 18537 065c 8E040000 		.4byte	.LVL75-.Ltext0
 18538 0660 0100     		.2byte	0x1
 18539 0662 50       		.byte	0x50
 18540 0663 8E040000 		.4byte	.LVL75-.Ltext0
 18541 0667 B2040000 		.4byte	.LVL77-.Ltext0
 18542 066b 0400     		.2byte	0x4
 18543 066d F3       		.byte	0xf3
 18544 066e 01       		.uleb128 0x1
 18545 066f 50       		.byte	0x50
 18546 0670 9F       		.byte	0x9f
 18547 0671 00000000 		.4byte	0
 18548 0675 00000000 		.4byte	0
 18549              	.LVUS50:
 18550 0679 01       		.uleb128 .LVU454
 18551 067a 00       		.uleb128 .LVU466
 18552              	.LLST50:
 18553 067b 80040000 		.4byte	.LVL73-.Ltext0
 18554 067f 92040000 		.4byte	.LVL76-.Ltext0
 18555 0683 0600     		.2byte	0x6
ARM GAS  /tmp/ccfraM8n.s 			page 327


 18556 0685 75       		.byte	0x75
 18557 0686 00       		.sleb128 0
 18558 0687 08       		.byte	0x8
 18559 0688 FF       		.byte	0xff
 18560 0689 1A       		.byte	0x1a
 18561 068a 9F       		.byte	0x9f
 18562 068b 00000000 		.4byte	0
 18563 068f 00000000 		.4byte	0
 18564              	.LVUS51:
 18565 0693 03       		.uleb128 .LVU456
 18566 0694 00       		.uleb128 .LVU466
 18567              	.LLST51:
 18568 0695 80040000 		.4byte	.LVL73-.Ltext0
 18569 0699 92040000 		.4byte	.LVL76-.Ltext0
 18570 069d 0100     		.2byte	0x1
 18571 069f 54       		.byte	0x54
 18572 06a0 00000000 		.4byte	0
 18573 06a4 00000000 		.4byte	0
 18574              	.LVUS52:
 18575 06a8 01       		.uleb128 .LVU463
 18576 06a9 00       		.uleb128 .LVU466
 18577              	.LLST52:
 18578 06aa 88040000 		.4byte	.LVL74-.Ltext0
 18579 06ae 92040000 		.4byte	.LVL76-.Ltext0
 18580 06b2 0200     		.2byte	0x2
 18581 06b4 42       		.byte	0x42
 18582 06b5 9F       		.byte	0x9f
 18583 06b6 00000000 		.4byte	0
 18584 06ba 00000000 		.4byte	0
 18585              	.LVUS36:
 18586 06be 00       		.uleb128 .LVU363
 18587 06bf 00       		.uleb128 0
 18588              	.LLST36:
 18589 06c0 84030000 		.4byte	.LVL59-.Ltext0
 18590 06c4 9A030000 		.4byte	.LFE382-.Ltext0
 18591 06c8 0100     		.2byte	0x1
 18592 06ca 52       		.byte	0x52
 18593 06cb 00000000 		.4byte	0
 18594 06cf 00000000 		.4byte	0
 18595              	.LVUS21:
 18596 06d3 00       		.uleb128 0
 18597 06d4 00       		.uleb128 .LVU270
 18598 06d5 00       		.uleb128 .LVU270
 18599 06d6 00       		.uleb128 .LVU359
 18600 06d7 00       		.uleb128 .LVU359
 18601 06d8 00       		.uleb128 0
 18602              	.LLST21:
 18603 06d9 B0020000 		.4byte	.LVL39-.Ltext0
 18604 06dd C6020000 		.4byte	.LVL43-.Ltext0
 18605 06e1 0100     		.2byte	0x1
 18606 06e3 50       		.byte	0x50
 18607 06e4 C6020000 		.4byte	.LVL43-.Ltext0
 18608 06e8 72030000 		.4byte	.LVL57-.Ltext0
 18609 06ec 0100     		.2byte	0x1
 18610 06ee 56       		.byte	0x56
 18611 06ef 72030000 		.4byte	.LVL57-.Ltext0
 18612 06f3 80030000 		.4byte	.LFE381-.Ltext0
ARM GAS  /tmp/ccfraM8n.s 			page 328


 18613 06f7 0400     		.2byte	0x4
 18614 06f9 F3       		.byte	0xf3
 18615 06fa 01       		.uleb128 0x1
 18616 06fb 50       		.byte	0x50
 18617 06fc 9F       		.byte	0x9f
 18618 06fd 00000000 		.4byte	0
 18619 0701 00000000 		.4byte	0
 18620              	.LVUS22:
 18621 0705 01       		.uleb128 .LVU282
 18622 0706 00       		.uleb128 .LVU287
 18623 0707 00       		.uleb128 .LVU287
 18624 0708 01       		.uleb128 .LVU291
 18625 0709 01       		.uleb128 .LVU291
 18626 070a 00       		.uleb128 .LVU315
 18627              	.LLST22:
 18628 070b E6020000 		.4byte	.LVL45-.Ltext0
 18629 070f F4020000 		.4byte	.LVL46-.Ltext0
 18630 0713 0100     		.2byte	0x1
 18631 0715 54       		.byte	0x54
 18632 0716 F4020000 		.4byte	.LVL46-.Ltext0
 18633 071a FC020000 		.4byte	.LVL47-.Ltext0
 18634 071e 0300     		.2byte	0x3
 18635 0720 70       		.byte	0x70
 18636 0721 7F       		.sleb128 -1
 18637 0722 9F       		.byte	0x9f
 18638 0723 FC020000 		.4byte	.LVL47-.Ltext0
 18639 0727 22030000 		.4byte	.LVL51-.Ltext0
 18640 072b 0100     		.2byte	0x1
 18641 072d 50       		.byte	0x50
 18642 072e 00000000 		.4byte	0
 18643 0732 00000000 		.4byte	0
 18644              	.LVUS23:
 18645 0736 00       		.uleb128 .LVU257
 18646 0737 00       		.uleb128 .LVU359
 18647              	.LLST23:
 18648 0738 B8020000 		.4byte	.LVL40-.Ltext0
 18649 073c 72030000 		.4byte	.LVL57-.Ltext0
 18650 0740 0100     		.2byte	0x1
 18651 0742 55       		.byte	0x55
 18652 0743 00000000 		.4byte	0
 18653 0747 00000000 		.4byte	0
 18654              	.LVUS24:
 18655 074b 01       		.uleb128 .LVU260
 18656 074c 00       		.uleb128 .LVU270
 18657 074d 00       		.uleb128 .LVU270
 18658 074e 00       		.uleb128 .LVU359
 18659 074f 00       		.uleb128 .LVU359
 18660 0750 00       		.uleb128 0
 18661              	.LLST24:
 18662 0751 BA020000 		.4byte	.LVL41-.Ltext0
 18663 0755 C6020000 		.4byte	.LVL43-.Ltext0
 18664 0759 0100     		.2byte	0x1
 18665 075b 50       		.byte	0x50
 18666 075c C6020000 		.4byte	.LVL43-.Ltext0
 18667 0760 72030000 		.4byte	.LVL57-.Ltext0
 18668 0764 0100     		.2byte	0x1
 18669 0766 56       		.byte	0x56
ARM GAS  /tmp/ccfraM8n.s 			page 329


 18670 0767 72030000 		.4byte	.LVL57-.Ltext0
 18671 076b 80030000 		.4byte	.LFE381-.Ltext0
 18672 076f 0400     		.2byte	0x4
 18673 0771 F3       		.byte	0xf3
 18674 0772 01       		.uleb128 0x1
 18675 0773 50       		.byte	0x50
 18676 0774 9F       		.byte	0x9f
 18677 0775 00000000 		.4byte	0
 18678 0779 00000000 		.4byte	0
 18679              	.LVUS25:
 18680 077d 00       		.uleb128 .LVU259
 18681 077e 00       		.uleb128 .LVU271
 18682              	.LLST25:
 18683 077f BA020000 		.4byte	.LVL41-.Ltext0
 18684 0783 CA020000 		.4byte	.LVL44-.Ltext0
 18685 0787 0200     		.2byte	0x2
 18686 0789 30       		.byte	0x30
 18687 078a 9F       		.byte	0x9f
 18688 078b 00000000 		.4byte	0
 18689 078f 00000000 		.4byte	0
 18690              	.LVUS26:
 18691 0793 02       		.uleb128 .LVU261
 18692 0794 00       		.uleb128 .LVU271
 18693              	.LLST26:
 18694 0795 BA020000 		.4byte	.LVL41-.Ltext0
 18695 0799 CA020000 		.4byte	.LVL44-.Ltext0
 18696 079d 0100     		.2byte	0x1
 18697 079f 55       		.byte	0x55
 18698 07a0 00000000 		.4byte	0
 18699 07a4 00000000 		.4byte	0
 18700              	.LVUS27:
 18701 07a8 01       		.uleb128 .LVU268
 18702 07a9 00       		.uleb128 .LVU271
 18703              	.LLST27:
 18704 07aa C4020000 		.4byte	.LVL42-.Ltext0
 18705 07ae CA020000 		.4byte	.LVL44-.Ltext0
 18706 07b2 0200     		.2byte	0x2
 18707 07b4 42       		.byte	0x42
 18708 07b5 9F       		.byte	0x9f
 18709 07b6 00000000 		.4byte	0
 18710 07ba 00000000 		.4byte	0
 18711              	.LVUS28:
 18712 07be 02       		.uleb128 .LVU295
 18713 07bf 00       		.uleb128 .LVU359
 18714 07c0 00       		.uleb128 .LVU359
 18715 07c1 00       		.uleb128 0
 18716              	.LLST28:
 18717 07c2 02030000 		.4byte	.LVL48-.Ltext0
 18718 07c6 72030000 		.4byte	.LVL57-.Ltext0
 18719 07ca 0100     		.2byte	0x1
 18720 07cc 56       		.byte	0x56
 18721 07cd 72030000 		.4byte	.LVL57-.Ltext0
 18722 07d1 80030000 		.4byte	.LFE381-.Ltext0
 18723 07d5 0400     		.2byte	0x4
 18724 07d7 F3       		.byte	0xf3
 18725 07d8 01       		.uleb128 0x1
 18726 07d9 50       		.byte	0x50
ARM GAS  /tmp/ccfraM8n.s 			page 330


 18727 07da 9F       		.byte	0x9f
 18728 07db 00000000 		.4byte	0
 18729 07df 00000000 		.4byte	0
 18730              	.LVUS29:
 18731 07e3 02       		.uleb128 .LVU295
 18732 07e4 00       		.uleb128 .LVU359
 18733 07e5 00       		.uleb128 .LVU359
 18734 07e6 00       		.uleb128 0
 18735              	.LLST29:
 18736 07e7 02030000 		.4byte	.LVL48-.Ltext0
 18737 07eb 72030000 		.4byte	.LVL57-.Ltext0
 18738 07ef 0100     		.2byte	0x1
 18739 07f1 56       		.byte	0x56
 18740 07f2 72030000 		.4byte	.LVL57-.Ltext0
 18741 07f6 80030000 		.4byte	.LFE381-.Ltext0
 18742 07fa 0400     		.2byte	0x4
 18743 07fc F3       		.byte	0xf3
 18744 07fd 01       		.uleb128 0x1
 18745 07fe 50       		.byte	0x50
 18746 07ff 9F       		.byte	0x9f
 18747 0800 00000000 		.4byte	0
 18748 0804 00000000 		.4byte	0
 18749              	.LVUS30:
 18750 0808 02       		.uleb128 .LVU305
 18751 0809 00       		.uleb128 .LVU359
 18752 080a 00       		.uleb128 .LVU359
 18753 080b 00       		.uleb128 0
 18754              	.LLST30:
 18755 080c 16030000 		.4byte	.LVL49-.Ltext0
 18756 0810 72030000 		.4byte	.LVL57-.Ltext0
 18757 0814 0100     		.2byte	0x1
 18758 0816 56       		.byte	0x56
 18759 0817 72030000 		.4byte	.LVL57-.Ltext0
 18760 081b 80030000 		.4byte	.LFE381-.Ltext0
 18761 081f 0400     		.2byte	0x4
 18762 0821 F3       		.byte	0xf3
 18763 0822 01       		.uleb128 0x1
 18764 0823 50       		.byte	0x50
 18765 0824 9F       		.byte	0x9f
 18766 0825 00000000 		.4byte	0
 18767 0829 00000000 		.4byte	0
 18768              	.LVUS31:
 18769 082d 03       		.uleb128 .LVU306
 18770 082e 00       		.uleb128 .LVU318
 18771              	.LLST31:
 18772 082f 16030000 		.4byte	.LVL49-.Ltext0
 18773 0833 27030000 		.4byte	.LVL52-1-.Ltext0
 18774 0837 0100     		.2byte	0x1
 18775 0839 52       		.byte	0x52
 18776 083a 00000000 		.4byte	0
 18777 083e 00000000 		.4byte	0
 18778              	.LVUS32:
 18779 0842 01       		.uleb128 .LVU313
 18780 0843 00       		.uleb128 .LVU318
 18781              	.LLST32:
 18782 0844 20030000 		.4byte	.LVL50-.Ltext0
 18783 0848 28030000 		.4byte	.LVL52-.Ltext0
ARM GAS  /tmp/ccfraM8n.s 			page 331


 18784 084c 0200     		.2byte	0x2
 18785 084e 42       		.byte	0x42
 18786 084f 9F       		.byte	0x9f
 18787 0850 00000000 		.4byte	0
 18788 0854 00000000 		.4byte	0
 18789              	.LVUS33:
 18790 0858 02       		.uleb128 .LVU346
 18791 0859 00       		.uleb128 .LVU359
 18792 085a 00       		.uleb128 .LVU359
 18793 085b 00       		.uleb128 0
 18794              	.LLST33:
 18795 085c 5E030000 		.4byte	.LVL53-.Ltext0
 18796 0860 72030000 		.4byte	.LVL57-.Ltext0
 18797 0864 0100     		.2byte	0x1
 18798 0866 56       		.byte	0x56
 18799 0867 72030000 		.4byte	.LVL57-.Ltext0
 18800 086b 80030000 		.4byte	.LFE381-.Ltext0
 18801 086f 0400     		.2byte	0x4
 18802 0871 F3       		.byte	0xf3
 18803 0872 01       		.uleb128 0x1
 18804 0873 50       		.byte	0x50
 18805 0874 9F       		.byte	0x9f
 18806 0875 00000000 		.4byte	0
 18807 0879 00000000 		.4byte	0
 18808              	.LVUS34:
 18809 087d 01       		.uleb128 .LVU345
 18810 087e 03       		.uleb128 .LVU356
 18811              	.LLST34:
 18812 087f 5E030000 		.4byte	.LVL53-.Ltext0
 18813 0883 6E030000 		.4byte	.LVL56-.Ltext0
 18814 0887 0200     		.2byte	0x2
 18815 0889 40       		.byte	0x40
 18816 088a 9F       		.byte	0x9f
 18817 088b 00000000 		.4byte	0
 18818 088f 00000000 		.4byte	0
 18819              	.LVUS35:
 18820 0893 00       		.uleb128 .LVU349
 18821 0894 00       		.uleb128 .LVU352
 18822 0895 00       		.uleb128 .LVU352
 18823 0896 00       		.uleb128 .LVU353
 18824 0897 00       		.uleb128 .LVU353
 18825 0898 03       		.uleb128 .LVU356
 18826              	.LLST35:
 18827 0899 62030000 		.4byte	.LVL54-.Ltext0
 18828 089d 6A030000 		.4byte	.LVL55-.Ltext0
 18829 08a1 0100     		.2byte	0x1
 18830 08a3 53       		.byte	0x53
 18831 08a4 6A030000 		.4byte	.LVL55-.Ltext0
 18832 08a8 6E030000 		.4byte	.LVL56-.Ltext0
 18833 08ac 0300     		.2byte	0x3
 18834 08ae 76       		.byte	0x76
 18835 08af 9801     		.sleb128 152
 18836 08b1 6E030000 		.4byte	.LVL56-.Ltext0
 18837 08b5 6E030000 		.4byte	.LVL56-.Ltext0
 18838 08b9 0300     		.2byte	0x3
 18839 08bb 72       		.byte	0x72
 18840 08bc 70       		.sleb128 -16
ARM GAS  /tmp/ccfraM8n.s 			page 332


 18841 08bd 9F       		.byte	0x9f
 18842 08be 00000000 		.4byte	0
 18843 08c2 00000000 		.4byte	0
 18844              	.LVUS15:
 18845 08c6 00       		.uleb128 0
 18846 08c7 00       		.uleb128 .LVU245
 18847 08c8 00       		.uleb128 .LVU245
 18848 08c9 00       		.uleb128 0
 18849              	.LLST15:
 18850 08ca 10020000 		.4byte	.LVL28-.Ltext0
 18851 08ce 84020000 		.4byte	.LVL37-.Ltext0
 18852 08d2 0100     		.2byte	0x1
 18853 08d4 50       		.byte	0x50
 18854 08d5 84020000 		.4byte	.LVL37-.Ltext0
 18855 08d9 B0020000 		.4byte	.LFE380-.Ltext0
 18856 08dd 0400     		.2byte	0x4
 18857 08df F3       		.byte	0xf3
 18858 08e0 01       		.uleb128 0x1
 18859 08e1 50       		.byte	0x50
 18860 08e2 9F       		.byte	0x9f
 18861 08e3 00000000 		.4byte	0
 18862 08e7 00000000 		.4byte	0
 18863              	.LVUS16:
 18864 08eb 02       		.uleb128 .LVU195
 18865 08ec 00       		.uleb128 .LVU245
 18866 08ed 00       		.uleb128 .LVU245
 18867 08ee 00       		.uleb128 .LVU246
 18868              	.LLST16:
 18869 08ef 10020000 		.4byte	.LVL28-.Ltext0
 18870 08f3 84020000 		.4byte	.LVL37-.Ltext0
 18871 08f7 0300     		.2byte	0x3
 18872 08f9 70       		.byte	0x70
 18873 08fa 9001     		.sleb128 144
 18874 08fc 84020000 		.4byte	.LVL37-.Ltext0
 18875 0900 87020000 		.4byte	.LVL38-1-.Ltext0
 18876 0904 0600     		.2byte	0x6
 18877 0906 F3       		.byte	0xf3
 18878 0907 01       		.uleb128 0x1
 18879 0908 50       		.byte	0x50
 18880 0909 23       		.byte	0x23
 18881 090a 9001     		.uleb128 0x90
 18882 090c 00000000 		.4byte	0
 18883 0910 00000000 		.4byte	0
 18884              	.LVUS17:
 18885 0914 02       		.uleb128 .LVU203
 18886 0915 00       		.uleb128 .LVU243
 18887 0916 00       		.uleb128 .LVU244
 18888 0917 00       		.uleb128 .LVU245
 18889 0918 00       		.uleb128 .LVU245
 18890 0919 00       		.uleb128 0
 18891              	.LLST17:
 18892 091a 22020000 		.4byte	.LVL29-.Ltext0
 18893 091e 80020000 		.4byte	.LVL35-.Ltext0
 18894 0922 0100     		.2byte	0x1
 18895 0924 50       		.byte	0x50
 18896 0925 82020000 		.4byte	.LVL36-.Ltext0
 18897 0929 84020000 		.4byte	.LVL37-.Ltext0
ARM GAS  /tmp/ccfraM8n.s 			page 333


 18898 092d 0100     		.2byte	0x1
 18899 092f 50       		.byte	0x50
 18900 0930 84020000 		.4byte	.LVL37-.Ltext0
 18901 0934 B0020000 		.4byte	.LFE380-.Ltext0
 18902 0938 0400     		.2byte	0x4
 18903 093a F3       		.byte	0xf3
 18904 093b 01       		.uleb128 0x1
 18905 093c 50       		.byte	0x50
 18906 093d 9F       		.byte	0x9f
 18907 093e 00000000 		.4byte	0
 18908 0942 00000000 		.4byte	0
 18909              	.LVUS18:
 18910 0946 02       		.uleb128 .LVU203
 18911 0947 00       		.uleb128 .LVU243
 18912 0948 00       		.uleb128 .LVU244
 18913 0949 00       		.uleb128 .LVU245
 18914 094a 00       		.uleb128 .LVU245
 18915 094b 00       		.uleb128 0
 18916              	.LLST18:
 18917 094c 22020000 		.4byte	.LVL29-.Ltext0
 18918 0950 80020000 		.4byte	.LVL35-.Ltext0
 18919 0954 0100     		.2byte	0x1
 18920 0956 50       		.byte	0x50
 18921 0957 82020000 		.4byte	.LVL36-.Ltext0
 18922 095b 84020000 		.4byte	.LVL37-.Ltext0
 18923 095f 0100     		.2byte	0x1
 18924 0961 50       		.byte	0x50
 18925 0962 84020000 		.4byte	.LVL37-.Ltext0
 18926 0966 B0020000 		.4byte	.LFE380-.Ltext0
 18927 096a 0400     		.2byte	0x4
 18928 096c F3       		.byte	0xf3
 18929 096d 01       		.uleb128 0x1
 18930 096e 50       		.byte	0x50
 18931 096f 9F       		.byte	0x9f
 18932 0970 00000000 		.4byte	0
 18933 0974 00000000 		.4byte	0
 18934              	.LVUS19:
 18935 0978 03       		.uleb128 .LVU204
 18936 0979 00       		.uleb128 .LVU234
 18937              	.LLST19:
 18938 097a 22020000 		.4byte	.LVL29-.Ltext0
 18939 097e 76020000 		.4byte	.LVL34-.Ltext0
 18940 0982 0300     		.2byte	0x3
 18941 0984 70       		.byte	0x70
 18942 0985 9001     		.sleb128 144
 18943 0987 00000000 		.4byte	0
 18944 098b 00000000 		.4byte	0
 18945              	.LVUS20:
 18946 098f 05       		.uleb128 .LVU206
 18947 0990 00       		.uleb128 .LVU208
 18948 0991 00       		.uleb128 .LVU208
 18949 0992 01       		.uleb128 .LVU224
 18950 0993 01       		.uleb128 .LVU224
 18951 0994 00       		.uleb128 .LVU227
 18952 0995 00       		.uleb128 .LVU227
 18953 0996 00       		.uleb128 .LVU231
 18954 0997 00       		.uleb128 .LVU231
ARM GAS  /tmp/ccfraM8n.s 			page 334


 18955 0998 00       		.uleb128 .LVU234
 18956              	.LLST20:
 18957 0999 22020000 		.4byte	.LVL29-.Ltext0
 18958 099d 2A020000 		.4byte	.LVL30-.Ltext0
 18959 09a1 0200     		.2byte	0x2
 18960 09a3 30       		.byte	0x30
 18961 09a4 9F       		.byte	0x9f
 18962 09a5 2A020000 		.4byte	.LVL30-.Ltext0
 18963 09a9 60020000 		.4byte	.LVL31-.Ltext0
 18964 09ad 0100     		.2byte	0x1
 18965 09af 51       		.byte	0x51
 18966 09b0 60020000 		.4byte	.LVL31-.Ltext0
 18967 09b4 68020000 		.4byte	.LVL32-.Ltext0
 18968 09b8 0100     		.2byte	0x1
 18969 09ba 56       		.byte	0x56
 18970 09bb 68020000 		.4byte	.LVL32-.Ltext0
 18971 09bf 70020000 		.4byte	.LVL33-.Ltext0
 18972 09c3 0100     		.2byte	0x1
 18973 09c5 51       		.byte	0x51
 18974 09c6 70020000 		.4byte	.LVL33-.Ltext0
 18975 09ca 76020000 		.4byte	.LVL34-.Ltext0
 18976 09ce 0100     		.2byte	0x1
 18977 09d0 56       		.byte	0x56
 18978 09d1 00000000 		.4byte	0
 18979 09d5 00000000 		.4byte	0
 18980              	.LVUS5:
 18981 09d9 00       		.uleb128 0
 18982 09da 00       		.uleb128 .LVU87
 18983 09db 00       		.uleb128 .LVU87
 18984 09dc 00       		.uleb128 .LVU175
 18985 09dd 00       		.uleb128 .LVU175
 18986 09de 00       		.uleb128 .LVU177
 18987 09df 00       		.uleb128 .LVU177
 18988 09e0 00       		.uleb128 0
 18989              	.LLST5:
 18990 09e1 D0000000 		.4byte	.LVL12-.Ltext0
 18991 09e5 E8000000 		.4byte	.LVL13-.Ltext0
 18992 09e9 0100     		.2byte	0x1
 18993 09eb 50       		.byte	0x50
 18994 09ec E8000000 		.4byte	.LVL13-.Ltext0
 18995 09f0 A4010000 		.4byte	.LVL25-.Ltext0
 18996 09f4 0100     		.2byte	0x1
 18997 09f6 57       		.byte	0x57
 18998 09f7 A4010000 		.4byte	.LVL25-.Ltext0
 18999 09fb AA010000 		.4byte	.LVL26-.Ltext0
 19000 09ff 0100     		.2byte	0x1
 19001 0a01 50       		.byte	0x50
 19002 0a02 AA010000 		.4byte	.LVL26-.Ltext0
 19003 0a06 10020000 		.4byte	.LFE379-.Ltext0
 19004 0a0a 0100     		.2byte	0x1
 19005 0a0c 57       		.byte	0x57
 19006 0a0d 00000000 		.4byte	0
 19007 0a11 00000000 		.4byte	0
 19008              	.LVUS6:
 19009 0a15 02       		.uleb128 .LVU78
 19010 0a16 00       		.uleb128 .LVU87
 19011 0a17 00       		.uleb128 .LVU175
ARM GAS  /tmp/ccfraM8n.s 			page 335


 19012 0a18 00       		.uleb128 .LVU177
 19013 0a19 00       		.uleb128 .LVU177
 19014 0a1a 00       		.uleb128 .LVU187
 19015              	.LLST6:
 19016 0a1b D0000000 		.4byte	.LVL12-.Ltext0
 19017 0a1f E8000000 		.4byte	.LVL13-.Ltext0
 19018 0a23 0300     		.2byte	0x3
 19019 0a25 70       		.byte	0x70
 19020 0a26 9001     		.sleb128 144
 19021 0a28 A4010000 		.4byte	.LVL25-.Ltext0
 19022 0a2c AA010000 		.4byte	.LVL26-.Ltext0
 19023 0a30 0300     		.2byte	0x3
 19024 0a32 70       		.byte	0x70
 19025 0a33 9001     		.sleb128 144
 19026 0a35 AA010000 		.4byte	.LVL26-.Ltext0
 19027 0a39 E5010000 		.4byte	.LVL27-1-.Ltext0
 19028 0a3d 0300     		.2byte	0x3
 19029 0a3f 77       		.byte	0x77
 19030 0a40 9001     		.sleb128 144
 19031 0a42 00000000 		.4byte	0
 19032 0a46 00000000 		.4byte	0
 19033              	.LVUS7:
 19034 0a4a 02       		.uleb128 .LVU98
 19035 0a4b 00       		.uleb128 .LVU175
 19036              	.LLST7:
 19037 0a4c F8000000 		.4byte	.LVL14-.Ltext0
 19038 0a50 A4010000 		.4byte	.LVL25-.Ltext0
 19039 0a54 0100     		.2byte	0x1
 19040 0a56 57       		.byte	0x57
 19041 0a57 00000000 		.4byte	0
 19042 0a5b 00000000 		.4byte	0
 19043              	.LVUS8:
 19044 0a5f 03       		.uleb128 .LVU99
 19045 0a60 00       		.uleb128 .LVU110
 19046              	.LLST8:
 19047 0a61 F8000000 		.4byte	.LVL14-.Ltext0
 19048 0a65 07010000 		.4byte	.LVL16-1-.Ltext0
 19049 0a69 0300     		.2byte	0x3
 19050 0a6b 77       		.byte	0x77
 19051 0a6c 9001     		.sleb128 144
 19052 0a6e 00000000 		.4byte	0
 19053 0a72 00000000 		.4byte	0
 19054              	.LVUS9:
 19055 0a76 01       		.uleb128 .LVU108
 19056 0a77 00       		.uleb128 .LVU175
 19057              	.LLST9:
 19058 0a78 04010000 		.4byte	.LVL15-.Ltext0
 19059 0a7c A4010000 		.4byte	.LVL25-.Ltext0
 19060 0a80 0200     		.2byte	0x2
 19061 0a82 3C       		.byte	0x3c
 19062 0a83 9F       		.byte	0x9f
 19063 0a84 00000000 		.4byte	0
 19064 0a88 00000000 		.4byte	0
 19065              	.LVUS10:
 19066 0a8c 01       		.uleb128 .LVU115
 19067 0a8d 00       		.uleb128 .LVU175
 19068              	.LLST10:
ARM GAS  /tmp/ccfraM8n.s 			page 336


 19069 0a8e 10010000 		.4byte	.LVL17-.Ltext0
 19070 0a92 A4010000 		.4byte	.LVL25-.Ltext0
 19071 0a96 0200     		.2byte	0x2
 19072 0a98 42       		.byte	0x42
 19073 0a99 9F       		.byte	0x9f
 19074 0a9a 00000000 		.4byte	0
 19075 0a9e 00000000 		.4byte	0
 19076              	.LVUS11:
 19077 0aa2 02       		.uleb128 .LVU128
 19078 0aa3 00       		.uleb128 .LVU175
 19079              	.LLST11:
 19080 0aa4 28010000 		.4byte	.LVL19-.Ltext0
 19081 0aa8 A4010000 		.4byte	.LVL25-.Ltext0
 19082 0aac 0100     		.2byte	0x1
 19083 0aae 57       		.byte	0x57
 19084 0aaf 00000000 		.4byte	0
 19085 0ab3 00000000 		.4byte	0
 19086              	.LVUS13:
 19087 0ab7 03       		.uleb128 .LVU129
 19088 0ab8 00       		.uleb128 .LVU157
 19089              	.LLST13:
 19090 0ab9 28010000 		.4byte	.LVL19-.Ltext0
 19091 0abd 7C010000 		.4byte	.LVL23-.Ltext0
 19092 0ac1 0100     		.2byte	0x1
 19093 0ac3 51       		.byte	0x51
 19094 0ac4 00000000 		.4byte	0
 19095 0ac8 00000000 		.4byte	0
 19096              	.LVUS14:
 19097 0acc 05       		.uleb128 .LVU131
 19098 0acd 00       		.uleb128 .LVU132
 19099 0ace 00       		.uleb128 .LVU132
 19100 0acf 01       		.uleb128 .LVU148
 19101 0ad0 01       		.uleb128 .LVU148
 19102 0ad1 00       		.uleb128 .LVU151
 19103 0ad2 00       		.uleb128 .LVU151
 19104 0ad3 00       		.uleb128 .LVU157
 19105              	.LLST14:
 19106 0ad4 28010000 		.4byte	.LVL19-.Ltext0
 19107 0ad8 2C010000 		.4byte	.LVL20-.Ltext0
 19108 0adc 0200     		.2byte	0x2
 19109 0ade 30       		.byte	0x30
 19110 0adf 9F       		.byte	0x9f
 19111 0ae0 2C010000 		.4byte	.LVL20-.Ltext0
 19112 0ae4 66010000 		.4byte	.LVL21-.Ltext0
 19113 0ae8 0100     		.2byte	0x1
 19114 0aea 54       		.byte	0x54
 19115 0aeb 66010000 		.4byte	.LVL21-.Ltext0
 19116 0aef 6E010000 		.4byte	.LVL22-.Ltext0
 19117 0af3 0100     		.2byte	0x1
 19118 0af5 55       		.byte	0x55
 19119 0af6 6E010000 		.4byte	.LVL22-.Ltext0
 19120 0afa 7C010000 		.4byte	.LVL23-.Ltext0
 19121 0afe 0100     		.2byte	0x1
 19122 0b00 54       		.byte	0x54
 19123 0b01 00000000 		.4byte	0
 19124 0b05 00000000 		.4byte	0
 19125              	.LVUS94:
ARM GAS  /tmp/ccfraM8n.s 			page 337


 19126 0b09 03       		.uleb128 .LVU883
 19127 0b0a 00       		.uleb128 .LVU1001
 19128 0b0b 00       		.uleb128 .LVU1009
 19129 0b0c 01       		.uleb128 .LVU1214
 19130 0b0d 00       		.uleb128 .LVU1222
 19131 0b0e 00       		.uleb128 .LVU1226
 19132 0b0f 00       		.uleb128 .LVU1234
 19133 0b10 00       		.uleb128 0
 19134              	.LLST94:
 19135 0b11 6C080000 		.4byte	.LVL159-.Ltext0
 19136 0b15 94090000 		.4byte	.LVL172-.Ltext0
 19137 0b19 0600     		.2byte	0x6
 19138 0b1b 03       		.byte	0x3
 19139 0b1c 00000000 		.4byte	USBD1
 19140 0b20 9F       		.byte	0x9f
 19141 0b21 A2090000 		.4byte	.LVL174-.Ltext0
 19142 0b25 5C0B0000 		.4byte	.LVL217-.Ltext0
 19143 0b29 0600     		.2byte	0x6
 19144 0b2b 03       		.byte	0x3
 19145 0b2c 00000000 		.4byte	USBD1
 19146 0b30 9F       		.byte	0x9f
 19147 0b31 6A0B0000 		.4byte	.LVL219-.Ltext0
 19148 0b35 860B0000 		.4byte	.LVL222-.Ltext0
 19149 0b39 0600     		.2byte	0x6
 19150 0b3b 03       		.byte	0x3
 19151 0b3c 00000000 		.4byte	USBD1
 19152 0b40 9F       		.byte	0x9f
 19153 0b41 940B0000 		.4byte	.LVL224-.Ltext0
 19154 0b45 9C0C0000 		.4byte	.LFE377-.Ltext0
 19155 0b49 0600     		.2byte	0x6
 19156 0b4b 03       		.byte	0x3
 19157 0b4c 00000000 		.4byte	USBD1
 19158 0b50 9F       		.byte	0x9f
 19159 0b51 00000000 		.4byte	0
 19160 0b55 00000000 		.4byte	0
 19161              	.LVUS95:
 19162 0b59 00       		.uleb128 .LVU885
 19163 0b5a 00       		.uleb128 .LVU963
 19164 0b5b 00       		.uleb128 .LVU1009
 19165 0b5c 01       		.uleb128 .LVU1214
 19166 0b5d 00       		.uleb128 .LVU1234
 19167 0b5e 00       		.uleb128 .LVU1270
 19168              	.LLST95:
 19169 0b5f 70080000 		.4byte	.LVL160-.Ltext0
 19170 0b63 26090000 		.4byte	.LVL170-.Ltext0
 19171 0b67 0100     		.2byte	0x1
 19172 0b69 57       		.byte	0x57
 19173 0b6a A2090000 		.4byte	.LVL174-.Ltext0
 19174 0b6e 5C0B0000 		.4byte	.LVL217-.Ltext0
 19175 0b72 0100     		.2byte	0x1
 19176 0b74 57       		.byte	0x57
 19177 0b75 940B0000 		.4byte	.LVL224-.Ltext0
 19178 0b79 EC0B0000 		.4byte	.LVL237-.Ltext0
 19179 0b7d 0100     		.2byte	0x1
 19180 0b7f 57       		.byte	0x57
 19181 0b80 00000000 		.4byte	0
 19182 0b84 00000000 		.4byte	0
ARM GAS  /tmp/ccfraM8n.s 			page 338


 19183              	.LVUS96:
 19184 0b88 00       		.uleb128 .LVU888
 19185 0b89 00       		.uleb128 .LVU992
 19186 0b8a 00       		.uleb128 .LVU1009
 19187 0b8b 01       		.uleb128 .LVU1214
 19188 0b8c 00       		.uleb128 .LVU1222
 19189 0b8d 00       		.uleb128 .LVU1225
 19190 0b8e 00       		.uleb128 .LVU1234
 19191 0b8f 00       		.uleb128 .LVU1283
 19192 0b90 00       		.uleb128 .LVU1294
 19193 0b91 00       		.uleb128 0
 19194              	.LLST96:
 19195 0b92 72080000 		.4byte	.LVL161-.Ltext0
 19196 0b96 78090000 		.4byte	.LVL171-.Ltext0
 19197 0b9a 0100     		.2byte	0x1
 19198 0b9c 54       		.byte	0x54
 19199 0b9d A2090000 		.4byte	.LVL174-.Ltext0
 19200 0ba1 5C0B0000 		.4byte	.LVL217-.Ltext0
 19201 0ba5 0100     		.2byte	0x1
 19202 0ba7 54       		.byte	0x54
 19203 0ba8 6A0B0000 		.4byte	.LVL219-.Ltext0
 19204 0bac 800B0000 		.4byte	.LVL221-.Ltext0
 19205 0bb0 0100     		.2byte	0x1
 19206 0bb2 54       		.byte	0x54
 19207 0bb3 940B0000 		.4byte	.LVL224-.Ltext0
 19208 0bb7 180C0000 		.4byte	.LVL242-.Ltext0
 19209 0bbb 0100     		.2byte	0x1
 19210 0bbd 54       		.byte	0x54
 19211 0bbe 480C0000 		.4byte	.LVL247-.Ltext0
 19212 0bc2 9C0C0000 		.4byte	.LFE377-.Ltext0
 19213 0bc6 0100     		.2byte	0x1
 19214 0bc8 54       		.byte	0x54
 19215 0bc9 00000000 		.4byte	0
 19216 0bcd 00000000 		.4byte	0
 19217              	.LVUS97:
 19218 0bd1 00       		.uleb128 .LVU959
 19219 0bd2 00       		.uleb128 .LVU1001
 19220 0bd3 00       		.uleb128 .LVU1222
 19221 0bd4 00       		.uleb128 .LVU1226
 19222 0bd5 00       		.uleb128 .LVU1270
 19223 0bd6 00       		.uleb128 0
 19224              	.LLST97:
 19225 0bd7 22090000 		.4byte	.LVL169-.Ltext0
 19226 0bdb 94090000 		.4byte	.LVL172-.Ltext0
 19227 0bdf 0100     		.2byte	0x1
 19228 0be1 55       		.byte	0x55
 19229 0be2 6A0B0000 		.4byte	.LVL219-.Ltext0
 19230 0be6 860B0000 		.4byte	.LVL222-.Ltext0
 19231 0bea 0100     		.2byte	0x1
 19232 0bec 55       		.byte	0x55
 19233 0bed EC0B0000 		.4byte	.LVL237-.Ltext0
 19234 0bf1 9C0C0000 		.4byte	.LFE377-.Ltext0
 19235 0bf5 0100     		.2byte	0x1
 19236 0bf7 55       		.byte	0x55
 19237 0bf8 00000000 		.4byte	0
 19238 0bfc 00000000 		.4byte	0
 19239              	.LVUS98:
ARM GAS  /tmp/ccfraM8n.s 			page 339


 19240 0c00 01       		.uleb128 .LVU905
 19241 0c01 00       		.uleb128 .LVU935
 19242              	.LLST98:
 19243 0c02 94080000 		.4byte	.LVL163-.Ltext0
 19244 0c06 EA080000 		.4byte	.LVL168-.Ltext0
 19245 0c0a 0600     		.2byte	0x6
 19246 0c0c 03       		.byte	0x3
 19247 0c0d 00000000 		.4byte	USBD1
 19248 0c11 9F       		.byte	0x9f
 19249 0c12 00000000 		.4byte	0
 19250 0c16 00000000 		.4byte	0
 19251              	.LVUS100:
 19252 0c1a 02       		.uleb128 .LVU906
 19253 0c1b 00       		.uleb128 .LVU933
 19254              	.LLST100:
 19255 0c1c 94080000 		.4byte	.LVL163-.Ltext0
 19256 0c20 E6080000 		.4byte	.LVL167-.Ltext0
 19257 0c24 0100     		.2byte	0x1
 19258 0c26 56       		.byte	0x56
 19259 0c27 00000000 		.4byte	0
 19260 0c2b 00000000 		.4byte	0
 19261              	.LVUS101:
 19262 0c2f 04       		.uleb128 .LVU908
 19263 0c30 00       		.uleb128 .LVU910
 19264 0c31 00       		.uleb128 .LVU910
 19265 0c32 01       		.uleb128 .LVU926
 19266 0c33 01       		.uleb128 .LVU926
 19267 0c34 00       		.uleb128 .LVU929
 19268 0c35 00       		.uleb128 .LVU929
 19269 0c36 00       		.uleb128 .LVU933
 19270              	.LLST101:
 19271 0c37 94080000 		.4byte	.LVL163-.Ltext0
 19272 0c3b 9C080000 		.4byte	.LVL164-.Ltext0
 19273 0c3f 0200     		.2byte	0x2
 19274 0c41 30       		.byte	0x30
 19275 0c42 9F       		.byte	0x9f
 19276 0c43 9C080000 		.4byte	.LVL164-.Ltext0
 19277 0c47 D4080000 		.4byte	.LVL165-.Ltext0
 19278 0c4b 0100     		.2byte	0x1
 19279 0c4d 51       		.byte	0x51
 19280 0c4e D4080000 		.4byte	.LVL165-.Ltext0
 19281 0c52 DC080000 		.4byte	.LVL166-.Ltext0
 19282 0c56 0100     		.2byte	0x1
 19283 0c58 5E       		.byte	0x5e
 19284 0c59 DC080000 		.4byte	.LVL166-.Ltext0
 19285 0c5d E6080000 		.4byte	.LVL167-.Ltext0
 19286 0c61 0100     		.2byte	0x1
 19287 0c63 51       		.byte	0x51
 19288 0c64 00000000 		.4byte	0
 19289 0c68 00000000 		.4byte	0
 19290              	.LVUS102:
 19291 0c6c 02       		.uleb128 .LVU1016
 19292 0c6d 00       		.uleb128 .LVU1100
 19293              	.LLST102:
 19294 0c6e B2090000 		.4byte	.LVL176-.Ltext0
 19295 0c72 5C0A0000 		.4byte	.LVL190-.Ltext0
 19296 0c76 0600     		.2byte	0x6
ARM GAS  /tmp/ccfraM8n.s 			page 340


 19297 0c78 03       		.byte	0x3
 19298 0c79 00000000 		.4byte	USBD1
 19299 0c7d 9F       		.byte	0x9f
 19300 0c7e 00000000 		.4byte	0
 19301 0c82 00000000 		.4byte	0
 19302              	.LVUS103:
 19303 0c86 01       		.uleb128 .LVU1021
 19304 0c87 00       		.uleb128 .LVU1023
 19305 0c88 00       		.uleb128 .LVU1023
 19306 0c89 00       		.uleb128 .LVU1024
 19307 0c8a 00       		.uleb128 .LVU1026
 19308 0c8b 00       		.uleb128 .LVU1100
 19309              	.LLST103:
 19310 0c8c B8090000 		.4byte	.LVL177-.Ltext0
 19311 0c90 C0090000 		.4byte	.LVL178-.Ltext0
 19312 0c94 0200     		.2byte	0x2
 19313 0c96 30       		.byte	0x30
 19314 0c97 9F       		.byte	0x9f
 19315 0c98 C0090000 		.4byte	.LVL178-.Ltext0
 19316 0c9c C2090000 		.4byte	.LVL179-.Ltext0
 19317 0ca0 0100     		.2byte	0x1
 19318 0ca2 56       		.byte	0x56
 19319 0ca3 C8090000 		.4byte	.LVL180-.Ltext0
 19320 0ca7 5C0A0000 		.4byte	.LVL190-.Ltext0
 19321 0cab 0100     		.2byte	0x1
 19322 0cad 56       		.byte	0x56
 19323 0cae 00000000 		.4byte	0
 19324 0cb2 00000000 		.4byte	0
 19325              	.LVUS104:
 19326 0cb6 00       		.uleb128 .LVU1020
 19327 0cb7 00       		.uleb128 .LVU1100
 19328              	.LLST104:
 19329 0cb8 B8090000 		.4byte	.LVL177-.Ltext0
 19330 0cbc 5C0A0000 		.4byte	.LVL190-.Ltext0
 19331 0cc0 0100     		.2byte	0x1
 19332 0cc2 5A       		.byte	0x5a
 19333 0cc3 00000000 		.4byte	0
 19334 0cc7 00000000 		.4byte	0
 19335              	.LVUS105:
 19336 0ccb 01       		.uleb128 .LVU1045
 19337 0ccc 00       		.uleb128 .LVU1100
 19338              	.LLST105:
 19339 0ccd 040A0000 		.4byte	.LVL182-.Ltext0
 19340 0cd1 5C0A0000 		.4byte	.LVL190-.Ltext0
 19341 0cd5 0600     		.2byte	0x6
 19342 0cd7 03       		.byte	0x3
 19343 0cd8 00000000 		.4byte	USBD1
 19344 0cdc 9F       		.byte	0x9f
 19345 0cdd 00000000 		.4byte	0
 19346 0ce1 00000000 		.4byte	0
 19347              	.LVUS106:
 19348 0ce5 02       		.uleb128 .LVU1046
 19349 0ce6 00       		.uleb128 .LVU1058
 19350              	.LLST106:
 19351 0ce7 040A0000 		.4byte	.LVL182-.Ltext0
 19352 0ceb 190A0000 		.4byte	.LVL184-1-.Ltext0
 19353 0cef 0100     		.2byte	0x1
ARM GAS  /tmp/ccfraM8n.s 			page 341


 19354 0cf1 52       		.byte	0x52
 19355 0cf2 00000000 		.4byte	0
 19356 0cf6 00000000 		.4byte	0
 19357              	.LVUS107:
 19358 0cfa 01       		.uleb128 .LVU1054
 19359 0cfb 00       		.uleb128 .LVU1058
 19360              	.LLST107:
 19361 0cfc 100A0000 		.4byte	.LVL183-.Ltext0
 19362 0d00 1A0A0000 		.4byte	.LVL184-.Ltext0
 19363 0d04 0200     		.2byte	0x2
 19364 0d06 42       		.byte	0x42
 19365 0d07 9F       		.byte	0x9f
 19366 0d08 00000000 		.4byte	0
 19367 0d0c 00000000 		.4byte	0
 19368              	.LVUS108:
 19369 0d10 09       		.uleb128 .LVU1071
 19370 0d11 00       		.uleb128 .LVU1073
 19371              	.LLST108:
 19372 0d12 360A0000 		.4byte	.LVL185-.Ltext0
 19373 0d16 3C0A0000 		.4byte	.LVL186-.Ltext0
 19374 0d1a 0300     		.2byte	0x3
 19375 0d1c 08       		.byte	0x8
 19376 0d1d 20       		.byte	0x20
 19377 0d1e 9F       		.byte	0x9f
 19378 0d1f 00000000 		.4byte	0
 19379 0d23 00000000 		.4byte	0
 19380              	.LVUS109:
 19381 0d27 04       		.uleb128 .LVU1077
 19382 0d28 00       		.uleb128 .LVU1083
 19383              	.LLST109:
 19384 0d29 3C0A0000 		.4byte	.LVL186-.Ltext0
 19385 0d2d 4E0A0000 		.4byte	.LVL187-.Ltext0
 19386 0d31 0200     		.2byte	0x2
 19387 0d33 30       		.byte	0x30
 19388 0d34 9F       		.byte	0x9f
 19389 0d35 00000000 		.4byte	0
 19390 0d39 00000000 		.4byte	0
 19391              	.LVUS110:
 19392 0d3d 04       		.uleb128 .LVU1077
 19393 0d3e 00       		.uleb128 .LVU1083
 19394              	.LLST110:
 19395 0d3f 3C0A0000 		.4byte	.LVL186-.Ltext0
 19396 0d43 4D0A0000 		.4byte	.LVL187-1-.Ltext0
 19397 0d47 1100     		.2byte	0x11
 19398 0d49 76       		.byte	0x76
 19399 0d4a 02       		.sleb128 2
 19400 0d4b 32       		.byte	0x32
 19401 0d4c 24       		.byte	0x24
 19402 0d4d 03       		.byte	0x3
 19403 0d4e 04000000 		.4byte	USBD1+4
 19404 0d52 22       		.byte	0x22
 19405 0d53 06       		.byte	0x6
 19406 0d54 23       		.byte	0x23
 19407 0d55 14       		.uleb128 0x14
 19408 0d56 06       		.byte	0x6
 19409 0d57 23       		.byte	0x23
 19410 0d58 0C       		.uleb128 0xc
ARM GAS  /tmp/ccfraM8n.s 			page 342


 19411 0d59 9F       		.byte	0x9f
 19412 0d5a 00000000 		.4byte	0
 19413 0d5e 00000000 		.4byte	0
 19414              	.LVUS111:
 19415 0d62 0C       		.uleb128 .LVU1095
 19416 0d63 00       		.uleb128 .LVU1097
 19417              	.LLST111:
 19418 0d64 4E0A0000 		.4byte	.LVL187-.Ltext0
 19419 0d68 540A0000 		.4byte	.LVL188-.Ltext0
 19420 0d6c 0200     		.2byte	0x2
 19421 0d6e 30       		.byte	0x30
 19422 0d6f 9F       		.byte	0x9f
 19423 0d70 00000000 		.4byte	0
 19424 0d74 00000000 		.4byte	0
 19425              	.LVUS112:
 19426 0d78 02       		.uleb128 .LVU1115
 19427 0d79 00       		.uleb128 .LVU1152
 19428 0d7a 00       		.uleb128 .LVU1234
 19429 0d7b 00       		.uleb128 .LVU1270
 19430              	.LLST112:
 19431 0d7c 8A0A0000 		.4byte	.LVL192-.Ltext0
 19432 0d80 E00A0000 		.4byte	.LVL204-.Ltext0
 19433 0d84 0600     		.2byte	0x6
 19434 0d86 03       		.byte	0x3
 19435 0d87 00000000 		.4byte	USBD1
 19436 0d8b 9F       		.byte	0x9f
 19437 0d8c 940B0000 		.4byte	.LVL224-.Ltext0
 19438 0d90 EC0B0000 		.4byte	.LVL237-.Ltext0
 19439 0d94 0600     		.2byte	0x6
 19440 0d96 03       		.byte	0x3
 19441 0d97 00000000 		.4byte	USBD1
 19442 0d9b 9F       		.byte	0x9f
 19443 0d9c 00000000 		.4byte	0
 19444 0da0 00000000 		.4byte	0
 19445              	.LVUS113:
 19446 0da4 00       		.uleb128 .LVU1119
 19447 0da5 00       		.uleb128 .LVU1124
 19448              	.LLST113:
 19449 0da6 900A0000 		.4byte	.LVL193-.Ltext0
 19450 0daa 9C0A0000 		.4byte	.LVL195-.Ltext0
 19451 0dae 0100     		.2byte	0x1
 19452 0db0 53       		.byte	0x53
 19453 0db1 00000000 		.4byte	0
 19454 0db5 00000000 		.4byte	0
 19455              	.LVUS114:
 19456 0db9 00       		.uleb128 .LVU1122
 19457 0dba 00       		.uleb128 .LVU1152
 19458 0dbb 00       		.uleb128 .LVU1234
 19459 0dbc 00       		.uleb128 .LVU1268
 19460              	.LLST114:
 19461 0dbd 980A0000 		.4byte	.LVL194-.Ltext0
 19462 0dc1 E00A0000 		.4byte	.LVL204-.Ltext0
 19463 0dc5 0100     		.2byte	0x1
 19464 0dc7 52       		.byte	0x52
 19465 0dc8 940B0000 		.4byte	.LVL224-.Ltext0
 19466 0dcc E60B0000 		.4byte	.LVL236-.Ltext0
 19467 0dd0 0100     		.2byte	0x1
ARM GAS  /tmp/ccfraM8n.s 			page 343


 19468 0dd2 52       		.byte	0x52
 19469 0dd3 00000000 		.4byte	0
 19470 0dd7 00000000 		.4byte	0
 19471              	.LVUS115:
 19472 0ddb 00       		.uleb128 .LVU1124
 19473 0ddc 00       		.uleb128 .LVU1127
 19474 0ddd 00       		.uleb128 .LVU1234
 19475 0dde 00       		.uleb128 .LVU1236
 19476 0ddf 00       		.uleb128 .LVU1236
 19477 0de0 00       		.uleb128 .LVU1270
 19478              	.LLST115:
 19479 0de1 9C0A0000 		.4byte	.LVL195-.Ltext0
 19480 0de5 AE0A0000 		.4byte	.LVL196-.Ltext0
 19481 0de9 0100     		.2byte	0x1
 19482 0deb 53       		.byte	0x53
 19483 0dec 940B0000 		.4byte	.LVL224-.Ltext0
 19484 0df0 9A0B0000 		.4byte	.LVL225-.Ltext0
 19485 0df4 0100     		.2byte	0x1
 19486 0df6 53       		.byte	0x53
 19487 0df7 9A0B0000 		.4byte	.LVL225-.Ltext0
 19488 0dfb EC0B0000 		.4byte	.LVL237-.Ltext0
 19489 0dff 0300     		.2byte	0x3
 19490 0e01 70       		.byte	0x70
 19491 0e02 7E       		.sleb128 -2
 19492 0e03 9F       		.byte	0x9f
 19493 0e04 00000000 		.4byte	0
 19494 0e08 00000000 		.4byte	0
 19495              	.LVUS116:
 19496 0e0c 00       		.uleb128 .LVU1128
 19497 0e0d 00       		.uleb128 .LVU1152
 19498              	.LLST116:
 19499 0e0e B20A0000 		.4byte	.LVL197-.Ltext0
 19500 0e12 E00A0000 		.4byte	.LVL204-.Ltext0
 19501 0e16 0200     		.2byte	0x2
 19502 0e18 38       		.byte	0x38
 19503 0e19 9F       		.byte	0x9f
 19504 0e1a 00000000 		.4byte	0
 19505 0e1e 00000000 		.4byte	0
 19506              	.LVUS117:
 19507 0e22 00       		.uleb128 .LVU1128
 19508 0e23 00       		.uleb128 .LVU1152
 19509              	.LLST117:
 19510 0e24 B20A0000 		.4byte	.LVL197-.Ltext0
 19511 0e28 E00A0000 		.4byte	.LVL204-.Ltext0
 19512 0e2c 0100     		.2byte	0x1
 19513 0e2e 52       		.byte	0x52
 19514 0e2f 00000000 		.4byte	0
 19515 0e33 00000000 		.4byte	0
 19516              	.LVUS118:
 19517 0e37 00       		.uleb128 .LVU1128
 19518 0e38 00       		.uleb128 .LVU1152
 19519              	.LLST118:
 19520 0e39 B20A0000 		.4byte	.LVL197-.Ltext0
 19521 0e3d E00A0000 		.4byte	.LVL204-.Ltext0
 19522 0e41 0100     		.2byte	0x1
 19523 0e43 50       		.byte	0x50
 19524 0e44 00000000 		.4byte	0
ARM GAS  /tmp/ccfraM8n.s 			page 344


 19525 0e48 00000000 		.4byte	0
 19526              	.LVUS119:
 19527 0e4c 00       		.uleb128 .LVU1128
 19528 0e4d 00       		.uleb128 .LVU1134
 19529 0e4e 00       		.uleb128 .LVU1134
 19530 0e4f 00       		.uleb128 .LVU1152
 19531              	.LLST119:
 19532 0e50 B20A0000 		.4byte	.LVL197-.Ltext0
 19533 0e54 BC0A0000 		.4byte	.LVL198-.Ltext0
 19534 0e58 0400     		.2byte	0x4
 19535 0e5a 71       		.byte	0x71
 19536 0e5b 8020     		.sleb128 4096
 19537 0e5d 9F       		.byte	0x9f
 19538 0e5e BC0A0000 		.4byte	.LVL198-.Ltext0
 19539 0e62 E00A0000 		.4byte	.LVL204-.Ltext0
 19540 0e66 0100     		.2byte	0x1
 19541 0e68 55       		.byte	0x55
 19542 0e69 00000000 		.4byte	0
 19543 0e6d 00000000 		.4byte	0
 19544              	.LVUS120:
 19545 0e71 02       		.uleb128 .LVU1130
 19546 0e72 00       		.uleb128 .LVU1135
 19547 0e73 01       		.uleb128 .LVU1148
 19548 0e74 00       		.uleb128 .LVU1149
 19549 0e75 00       		.uleb128 .LVU1149
 19550 0e76 00       		.uleb128 .LVU1150
 19551              	.LLST120:
 19552 0e77 B20A0000 		.4byte	.LVL197-.Ltext0
 19553 0e7b C00A0000 		.4byte	.LVL199-.Ltext0
 19554 0e7f 0200     		.2byte	0x2
 19555 0e81 30       		.byte	0x30
 19556 0e82 9F       		.byte	0x9f
 19557 0e83 D60A0000 		.4byte	.LVL201-.Ltext0
 19558 0e87 D80A0000 		.4byte	.LVL202-.Ltext0
 19559 0e8b 0500     		.2byte	0x5
 19560 0e8d 76       		.byte	0x76
 19561 0e8e 00       		.sleb128 0
 19562 0e8f 38       		.byte	0x38
 19563 0e90 25       		.byte	0x25
 19564 0e91 9F       		.byte	0x9f
 19565 0e92 D80A0000 		.4byte	.LVL202-.Ltext0
 19566 0e96 DA0A0000 		.4byte	.LVL203-.Ltext0
 19567 0e9a 0100     		.2byte	0x1
 19568 0e9c 56       		.byte	0x56
 19569 0e9d 00000000 		.4byte	0
 19570 0ea1 00000000 		.4byte	0
 19571              	.LVUS121:
 19572 0ea5 03       		.uleb128 .LVU1131
 19573 0ea6 00       		.uleb128 .LVU1135
 19574 0ea7 00       		.uleb128 .LVU1135
 19575 0ea8 00       		.uleb128 .LVU1145
 19576 0ea9 00       		.uleb128 .LVU1145
 19577 0eaa 01       		.uleb128 .LVU1151
 19578 0eab 01       		.uleb128 .LVU1151
 19579 0eac 00       		.uleb128 .LVU1152
 19580              	.LLST121:
 19581 0ead B20A0000 		.4byte	.LVL197-.Ltext0
ARM GAS  /tmp/ccfraM8n.s 			page 345


 19582 0eb1 C00A0000 		.4byte	.LVL199-.Ltext0
 19583 0eb5 0200     		.2byte	0x2
 19584 0eb7 30       		.byte	0x30
 19585 0eb8 9F       		.byte	0x9f
 19586 0eb9 C00A0000 		.4byte	.LVL199-.Ltext0
 19587 0ebd D00A0000 		.4byte	.LVL200-.Ltext0
 19588 0ec1 0100     		.2byte	0x1
 19589 0ec3 53       		.byte	0x53
 19590 0ec4 D00A0000 		.4byte	.LVL200-.Ltext0
 19591 0ec8 DA0A0000 		.4byte	.LVL203-.Ltext0
 19592 0ecc 0300     		.2byte	0x3
 19593 0ece 73       		.byte	0x73
 19594 0ecf 7F       		.sleb128 -1
 19595 0ed0 9F       		.byte	0x9f
 19596 0ed1 DA0A0000 		.4byte	.LVL203-.Ltext0
 19597 0ed5 E00A0000 		.4byte	.LVL204-.Ltext0
 19598 0ed9 0100     		.2byte	0x1
 19599 0edb 53       		.byte	0x53
 19600 0edc 00000000 		.4byte	0
 19601 0ee0 00000000 		.4byte	0
 19602              	.LVUS122:
 19603 0ee4 00       		.uleb128 .LVU1238
 19604 0ee5 00       		.uleb128 .LVU1264
 19605              	.LLST122:
 19606 0ee6 A80B0000 		.4byte	.LVL226-.Ltext0
 19607 0eea E00B0000 		.4byte	.LVL235-.Ltext0
 19608 0eee 0100     		.2byte	0x1
 19609 0ef0 5E       		.byte	0x5e
 19610 0ef1 00000000 		.4byte	0
 19611 0ef5 00000000 		.4byte	0
 19612              	.LVUS123:
 19613 0ef9 00       		.uleb128 .LVU1238
 19614 0efa 00       		.uleb128 .LVU1264
 19615              	.LLST123:
 19616 0efb A80B0000 		.4byte	.LVL226-.Ltext0
 19617 0eff E00B0000 		.4byte	.LVL235-.Ltext0
 19618 0f03 0100     		.2byte	0x1
 19619 0f05 52       		.byte	0x52
 19620 0f06 00000000 		.4byte	0
 19621 0f0a 00000000 		.4byte	0
 19622              	.LVUS124:
 19623 0f0e 00       		.uleb128 .LVU1238
 19624 0f0f 00       		.uleb128 .LVU1246
 19625 0f10 00       		.uleb128 .LVU1246
 19626 0f11 00       		.uleb128 .LVU1253
 19627 0f12 00       		.uleb128 .LVU1253
 19628 0f13 00       		.uleb128 .LVU1258
 19629 0f14 00       		.uleb128 .LVU1258
 19630 0f15 00       		.uleb128 .LVU1264
 19631              	.LLST124:
 19632 0f16 A80B0000 		.4byte	.LVL226-.Ltext0
 19633 0f1a B40B0000 		.4byte	.LVL228-.Ltext0
 19634 0f1e 0100     		.2byte	0x1
 19635 0f20 5A       		.byte	0x5a
 19636 0f21 B40B0000 		.4byte	.LVL228-.Ltext0
 19637 0f25 BC0B0000 		.4byte	.LVL229-.Ltext0
 19638 0f29 0100     		.2byte	0x1
ARM GAS  /tmp/ccfraM8n.s 			page 346


 19639 0f2b 58       		.byte	0x58
 19640 0f2c BC0B0000 		.4byte	.LVL229-.Ltext0
 19641 0f30 CC0B0000 		.4byte	.LVL231-.Ltext0
 19642 0f34 0100     		.2byte	0x1
 19643 0f36 51       		.byte	0x51
 19644 0f37 CC0B0000 		.4byte	.LVL231-.Ltext0
 19645 0f3b E00B0000 		.4byte	.LVL235-.Ltext0
 19646 0f3f 0100     		.2byte	0x1
 19647 0f41 58       		.byte	0x58
 19648 0f42 00000000 		.4byte	0
 19649 0f46 00000000 		.4byte	0
 19650              	.LVUS125:
 19651 0f4a 00       		.uleb128 .LVU1238
 19652 0f4b 00       		.uleb128 .LVU1245
 19653 0f4c 00       		.uleb128 .LVU1245
 19654 0f4d 00       		.uleb128 .LVU1264
 19655              	.LLST125:
 19656 0f4e A80B0000 		.4byte	.LVL226-.Ltext0
 19657 0f52 B00B0000 		.4byte	.LVL227-.Ltext0
 19658 0f56 0400     		.2byte	0x4
 19659 0f58 71       		.byte	0x71
 19660 0f59 8020     		.sleb128 4096
 19661 0f5b 9F       		.byte	0x9f
 19662 0f5c B00B0000 		.4byte	.LVL227-.Ltext0
 19663 0f60 E00B0000 		.4byte	.LVL235-.Ltext0
 19664 0f64 0100     		.2byte	0x1
 19665 0f66 5C       		.byte	0x5c
 19666 0f67 00000000 		.4byte	0
 19667 0f6b 00000000 		.4byte	0
 19668              	.LVUS126:
 19669 0f6f 02       		.uleb128 .LVU1240
 19670 0f70 00       		.uleb128 .LVU1246
 19671 0f71 01       		.uleb128 .LVU1259
 19672 0f72 00       		.uleb128 .LVU1260
 19673 0f73 00       		.uleb128 .LVU1260
 19674 0f74 00       		.uleb128 .LVU1261
 19675              	.LLST126:
 19676 0f75 A80B0000 		.4byte	.LVL226-.Ltext0
 19677 0f79 B40B0000 		.4byte	.LVL228-.Ltext0
 19678 0f7d 0200     		.2byte	0x2
 19679 0f7f 30       		.byte	0x30
 19680 0f80 9F       		.byte	0x9f
 19681 0f81 CC0B0000 		.4byte	.LVL231-.Ltext0
 19682 0f85 CE0B0000 		.4byte	.LVL232-.Ltext0
 19683 0f89 0500     		.2byte	0x5
 19684 0f8b 76       		.byte	0x76
 19685 0f8c 00       		.sleb128 0
 19686 0f8d 38       		.byte	0x38
 19687 0f8e 25       		.byte	0x25
 19688 0f8f 9F       		.byte	0x9f
 19689 0f90 CE0B0000 		.4byte	.LVL232-.Ltext0
 19690 0f94 D00B0000 		.4byte	.LVL233-.Ltext0
 19691 0f98 0100     		.2byte	0x1
 19692 0f9a 56       		.byte	0x56
 19693 0f9b 00000000 		.4byte	0
 19694 0f9f 00000000 		.4byte	0
 19695              	.LVUS127:
ARM GAS  /tmp/ccfraM8n.s 			page 347


 19696 0fa3 03       		.uleb128 .LVU1241
 19697 0fa4 00       		.uleb128 .LVU1246
 19698 0fa5 00       		.uleb128 .LVU1246
 19699 0fa6 00       		.uleb128 .LVU1256
 19700 0fa7 00       		.uleb128 .LVU1256
 19701 0fa8 01       		.uleb128 .LVU1262
 19702 0fa9 01       		.uleb128 .LVU1262
 19703 0faa 00       		.uleb128 .LVU1263
 19704              	.LLST127:
 19705 0fab A80B0000 		.4byte	.LVL226-.Ltext0
 19706 0faf B40B0000 		.4byte	.LVL228-.Ltext0
 19707 0fb3 0200     		.2byte	0x2
 19708 0fb5 30       		.byte	0x30
 19709 0fb6 9F       		.byte	0x9f
 19710 0fb7 B40B0000 		.4byte	.LVL228-.Ltext0
 19711 0fbb C60B0000 		.4byte	.LVL230-.Ltext0
 19712 0fbf 0100     		.2byte	0x1
 19713 0fc1 53       		.byte	0x53
 19714 0fc2 C60B0000 		.4byte	.LVL230-.Ltext0
 19715 0fc6 D00B0000 		.4byte	.LVL233-.Ltext0
 19716 0fca 0300     		.2byte	0x3
 19717 0fcc 73       		.byte	0x73
 19718 0fcd 7F       		.sleb128 -1
 19719 0fce 9F       		.byte	0x9f
 19720 0fcf D00B0000 		.4byte	.LVL233-.Ltext0
 19721 0fd3 DA0B0000 		.4byte	.LVL234-.Ltext0
 19722 0fd7 0100     		.2byte	0x1
 19723 0fd9 53       		.byte	0x53
 19724 0fda 00000000 		.4byte	0
 19725 0fde 00000000 		.4byte	0
 19726              	.LVUS128:
 19727 0fe2 03       		.uleb128 .LVU1155
 19728 0fe3 00       		.uleb128 .LVU1211
 19729              	.LLST128:
 19730 0fe4 E00A0000 		.4byte	.LVL204-.Ltext0
 19731 0fe8 560B0000 		.4byte	.LVL216-.Ltext0
 19732 0fec 0600     		.2byte	0x6
 19733 0fee 03       		.byte	0x3
 19734 0fef 00000000 		.4byte	USBD1
 19735 0ff3 9F       		.byte	0x9f
 19736 0ff4 00000000 		.4byte	0
 19737 0ff8 00000000 		.4byte	0
 19738              	.LVUS129:
 19739 0ffc 01       		.uleb128 .LVU1159
 19740 0ffd 00       		.uleb128 .LVU1161
 19741 0ffe 00       		.uleb128 .LVU1161
 19742 0fff 00       		.uleb128 .LVU1163
 19743 1000 00       		.uleb128 .LVU1165
 19744 1001 00       		.uleb128 .LVU1211
 19745              	.LLST129:
 19746 1002 E40A0000 		.4byte	.LVL205-.Ltext0
 19747 1006 EC0A0000 		.4byte	.LVL206-.Ltext0
 19748 100a 0200     		.2byte	0x2
 19749 100c 30       		.byte	0x30
 19750 100d 9F       		.byte	0x9f
 19751 100e EC0A0000 		.4byte	.LVL206-.Ltext0
 19752 1012 EE0A0000 		.4byte	.LVL207-.Ltext0
ARM GAS  /tmp/ccfraM8n.s 			page 348


 19753 1016 0100     		.2byte	0x1
 19754 1018 56       		.byte	0x56
 19755 1019 F40A0000 		.4byte	.LVL208-.Ltext0
 19756 101d 560B0000 		.4byte	.LVL216-.Ltext0
 19757 1021 0100     		.2byte	0x1
 19758 1023 56       		.byte	0x56
 19759 1024 00000000 		.4byte	0
 19760 1028 00000000 		.4byte	0
 19761              	.LVUS130:
 19762 102c 00       		.uleb128 .LVU1158
 19763 102d 00       		.uleb128 .LVU1211
 19764              	.LLST130:
 19765 102e E40A0000 		.4byte	.LVL205-.Ltext0
 19766 1032 560B0000 		.4byte	.LVL216-.Ltext0
 19767 1036 0100     		.2byte	0x1
 19768 1038 5B       		.byte	0x5b
 19769 1039 00000000 		.4byte	0
 19770 103d 00000000 		.4byte	0
 19771              	.LVUS131:
 19772 1041 09       		.uleb128 .LVU1187
 19773 1042 00       		.uleb128 .LVU1189
 19774              	.LLST131:
 19775 1043 360B0000 		.4byte	.LVL210-.Ltext0
 19776 1047 3C0B0000 		.4byte	.LVL211-.Ltext0
 19777 104b 0300     		.2byte	0x3
 19778 104d 08       		.byte	0x8
 19779 104e 20       		.byte	0x20
 19780 104f 9F       		.byte	0x9f
 19781 1050 00000000 		.4byte	0
 19782 1054 00000000 		.4byte	0
 19783              	.LVUS132:
 19784 1058 00       		.uleb128 .LVU1193
 19785 1059 00       		.uleb128 .LVU1195
 19786 105a 00       		.uleb128 .LVU1195
 19787 105b 00       		.uleb128 .LVU1196
 19788              	.LLST132:
 19789 105c 460B0000 		.4byte	.LVL212-.Ltext0
 19790 1060 4A0B0000 		.4byte	.LVL213-.Ltext0
 19791 1064 0200     		.2byte	0x2
 19792 1066 70       		.byte	0x70
 19793 1067 04       		.sleb128 4
 19794 1068 4A0B0000 		.4byte	.LVL213-.Ltext0
 19795 106c 4D0B0000 		.4byte	.LVL214-1-.Ltext0
 19796 1070 0100     		.2byte	0x1
 19797 1072 51       		.byte	0x51
 19798 1073 00000000 		.4byte	0
 19799 1077 00000000 		.4byte	0
 19800              	.LVUS133:
 19801 107b 00       		.uleb128 .LVU1193
 19802 107c 00       		.uleb128 .LVU1195
 19803 107d 00       		.uleb128 .LVU1195
 19804 107e 00       		.uleb128 .LVU1196
 19805              	.LLST133:
 19806 107f 460B0000 		.4byte	.LVL212-.Ltext0
 19807 1083 4A0B0000 		.4byte	.LVL213-.Ltext0
 19808 1087 0300     		.2byte	0x3
 19809 1089 70       		.byte	0x70
ARM GAS  /tmp/ccfraM8n.s 			page 349


 19810 108a 0C       		.sleb128 12
 19811 108b 9F       		.byte	0x9f
 19812 108c 4A0B0000 		.4byte	.LVL213-.Ltext0
 19813 1090 4D0B0000 		.4byte	.LVL214-1-.Ltext0
 19814 1094 0100     		.2byte	0x1
 19815 1096 50       		.byte	0x50
 19816 1097 00000000 		.4byte	0
 19817 109b 00000000 		.4byte	0
 19818              	.LVUS134:
 19819 109f 0C       		.uleb128 .LVU1208
 19820 10a0 00       		.uleb128 .LVU1210
 19821              	.LLST134:
 19822 10a1 4E0B0000 		.4byte	.LVL214-.Ltext0
 19823 10a5 540B0000 		.4byte	.LVL215-.Ltext0
 19824 10a9 0200     		.2byte	0x2
 19825 10ab 30       		.byte	0x30
 19826 10ac 9F       		.byte	0x9f
 19827 10ad 00000000 		.4byte	0
 19828 10b1 00000000 		.4byte	0
 19829              	.LVUS0:
 19830 10b5 00       		.uleb128 0
 19831 10b6 00       		.uleb128 .LVU58
 19832 10b7 00       		.uleb128 .LVU58
 19833 10b8 00       		.uleb128 .LVU60
 19834 10b9 00       		.uleb128 .LVU60
 19835 10ba 00       		.uleb128 .LVU65
 19836 10bb 00       		.uleb128 .LVU65
 19837 10bc 00       		.uleb128 0
 19838              	.LLST0:
 19839 10bd 00000000 		.4byte	.LVL0-.Ltext0
 19840 10c1 86000000 		.4byte	.LVL8-.Ltext0
 19841 10c5 0100     		.2byte	0x1
 19842 10c7 50       		.byte	0x50
 19843 10c8 86000000 		.4byte	.LVL8-.Ltext0
 19844 10cc 8A000000 		.4byte	.LVL9-.Ltext0
 19845 10d0 0400     		.2byte	0x4
 19846 10d2 F3       		.byte	0xf3
 19847 10d3 01       		.uleb128 0x1
 19848 10d4 50       		.byte	0x50
 19849 10d5 9F       		.byte	0x9f
 19850 10d6 8A000000 		.4byte	.LVL9-.Ltext0
 19851 10da 96000000 		.4byte	.LVL10-.Ltext0
 19852 10de 0100     		.2byte	0x1
 19853 10e0 50       		.byte	0x50
 19854 10e1 96000000 		.4byte	.LVL10-.Ltext0
 19855 10e5 A8000000 		.4byte	.LFE401-.Ltext0
 19856 10e9 0400     		.2byte	0x4
 19857 10eb F3       		.byte	0xf3
 19858 10ec 01       		.uleb128 0x1
 19859 10ed 50       		.byte	0x50
 19860 10ee 9F       		.byte	0x9f
 19861 10ef 00000000 		.4byte	0
 19862 10f3 00000000 		.4byte	0
 19863              	.LVUS1:
 19864 10f7 00       		.uleb128 .LVU15
 19865 10f8 00       		.uleb128 .LVU52
 19866 10f9 00       		.uleb128 .LVU55
ARM GAS  /tmp/ccfraM8n.s 			page 350


 19867 10fa 00       		.uleb128 .LVU60
 19868              	.LLST1:
 19869 10fb 32000000 		.4byte	.LVL1-.Ltext0
 19870 10ff 72000000 		.4byte	.LVL6-.Ltext0
 19871 1103 0100     		.2byte	0x1
 19872 1105 54       		.byte	0x54
 19873 1106 7E000000 		.4byte	.LVL7-.Ltext0
 19874 110a 8A000000 		.4byte	.LVL9-.Ltext0
 19875 110e 0100     		.2byte	0x1
 19876 1110 54       		.byte	0x54
 19877 1111 00000000 		.4byte	0
 19878 1115 00000000 		.4byte	0
 19879              	.LVUS2:
 19880 1119 01       		.uleb128 .LVU20
 19881 111a 00       		.uleb128 .LVU31
 19882              	.LLST2:
 19883 111b 44000000 		.4byte	.LVL2-.Ltext0
 19884 111f 58000000 		.4byte	.LVL3-.Ltext0
 19885 1123 0100     		.2byte	0x1
 19886 1125 54       		.byte	0x54
 19887 1126 00000000 		.4byte	0
 19888 112a 00000000 		.4byte	0
 19889              	.LVUS3:
 19890 112e 00       		.uleb128 .LVU31
 19891 112f 00       		.uleb128 .LVU36
 19892 1130 00       		.uleb128 .LVU36
 19893 1131 00       		.uleb128 .LVU40
 19894              	.LLST3:
 19895 1132 58000000 		.4byte	.LVL3-.Ltext0
 19896 1136 5C000000 		.4byte	.LVL4-.Ltext0
 19897 113a 0100     		.2byte	0x1
 19898 113c 53       		.byte	0x53
 19899 113d 5C000000 		.4byte	.LVL4-.Ltext0
 19900 1141 62000000 		.4byte	.LVL5-.Ltext0
 19901 1145 0300     		.2byte	0x3
 19902 1147 73       		.byte	0x73
 19903 1148 7C       		.sleb128 -4
 19904 1149 9F       		.byte	0x9f
 19905 114a 00000000 		.4byte	0
 19906 114e 00000000 		.4byte	0
 19907              	.LVUS4:
 19908 1152 01       		.uleb128 .LVU20
 19909 1153 00       		.uleb128 .LVU40
 19910              	.LLST4:
 19911 1154 44000000 		.4byte	.LVL2-.Ltext0
 19912 1158 62000000 		.4byte	.LVL5-.Ltext0
 19913 115c 0D00     		.2byte	0xd
 19914 115e 70       		.byte	0x70
 19915 115f 00       		.sleb128 0
 19916 1160 08       		.byte	0x8
 19917 1161 FF       		.byte	0xff
 19918 1162 1A       		.byte	0x1a
 19919 1163 23       		.byte	0x23
 19920 1164 01       		.uleb128 0x1
 19921 1165 3C       		.byte	0x3c
 19922 1166 24       		.byte	0x24
 19923 1167 7A       		.byte	0x7a
ARM GAS  /tmp/ccfraM8n.s 			page 351


 19924 1168 00       		.sleb128 0
 19925 1169 22       		.byte	0x22
 19926 116a 9F       		.byte	0x9f
 19927 116b 00000000 		.4byte	0
 19928 116f 00000000 		.4byte	0
 19929              	.LVUS70:
 19930 1173 00       		.uleb128 0
 19931 1174 00       		.uleb128 .LVU606
 19932 1175 00       		.uleb128 .LVU606
 19933 1176 00       		.uleb128 0
 19934              	.LLST70:
 19935 1177 30060000 		.4byte	.LVL107-.Ltext0
 19936 117b 44060000 		.4byte	.LVL110-.Ltext0
 19937 117f 0100     		.2byte	0x1
 19938 1181 50       		.byte	0x50
 19939 1182 44060000 		.4byte	.LVL110-.Ltext0
 19940 1186 E4060000 		.4byte	.LFE403-.Ltext0
 19941 118a 0400     		.2byte	0x4
 19942 118c F3       		.byte	0xf3
 19943 118d 01       		.uleb128 0x1
 19944 118e 50       		.byte	0x50
 19945 118f 9F       		.byte	0x9f
 19946 1190 00000000 		.4byte	0
 19947 1194 00000000 		.4byte	0
 19948              	.LVUS71:
 19949 1198 00       		.uleb128 .LVU602
 19950 1199 00       		.uleb128 .LVU626
 19951 119a 00       		.uleb128 .LVU671
 19952 119b 00       		.uleb128 .LVU672
 19953              	.LLST71:
 19954 119c 3A060000 		.4byte	.LVL108-.Ltext0
 19955 11a0 6E060000 		.4byte	.LVL113-.Ltext0
 19956 11a4 0100     		.2byte	0x1
 19957 11a6 57       		.byte	0x57
 19958 11a7 B4060000 		.4byte	.LVL121-.Ltext0
 19959 11ab C4060000 		.4byte	.LVL123-.Ltext0
 19960 11af 0100     		.2byte	0x1
 19961 11b1 57       		.byte	0x57
 19962 11b2 00000000 		.4byte	0
 19963 11b6 00000000 		.4byte	0
 19964              	.LVUS72:
 19965 11ba 00       		.uleb128 .LVU604
 19966 11bb 00       		.uleb128 .LVU619
 19967 11bc 00       		.uleb128 .LVU671
 19968 11bd 00       		.uleb128 .LVU672
 19969              	.LLST72:
 19970 11be 42060000 		.4byte	.LVL109-.Ltext0
 19971 11c2 60060000 		.4byte	.LVL111-.Ltext0
 19972 11c6 0100     		.2byte	0x1
 19973 11c8 54       		.byte	0x54
 19974 11c9 B4060000 		.4byte	.LVL121-.Ltext0
 19975 11cd C4060000 		.4byte	.LVL123-.Ltext0
 19976 11d1 0100     		.2byte	0x1
 19977 11d3 54       		.byte	0x54
 19978 11d4 00000000 		.4byte	0
 19979 11d8 00000000 		.4byte	0
 19980              	.LVUS73:
ARM GAS  /tmp/ccfraM8n.s 			page 352


 19981 11dc 00       		.uleb128 .LVU620
 19982 11dd 00       		.uleb128 .LVU634
 19983 11de 00       		.uleb128 .LVU634
 19984 11df 00       		.uleb128 .LVU635
 19985 11e0 00       		.uleb128 .LVU672
 19986 11e1 00       		.uleb128 .LVU693
 19987              	.LLST73:
 19988 11e2 66060000 		.4byte	.LVL112-.Ltext0
 19989 11e6 92060000 		.4byte	.LVL114-.Ltext0
 19990 11ea 0200     		.2byte	0x2
 19991 11ec 71       		.byte	0x71
 19992 11ed 18       		.sleb128 24
 19993 11ee 92060000 		.4byte	.LVL114-.Ltext0
 19994 11f2 95060000 		.4byte	.LVL115-1-.Ltext0
 19995 11f6 0C00     		.2byte	0xc
 19996 11f8 74       		.byte	0x74
 19997 11f9 00       		.sleb128 0
 19998 11fa 32       		.byte	0x32
 19999 11fb 24       		.byte	0x24
 20000 11fc 75       		.byte	0x75
 20001 11fd 00       		.sleb128 0
 20002 11fe 22       		.byte	0x22
 20003 11ff 23       		.byte	0x23
 20004 1200 04       		.uleb128 0x4
 20005 1201 06       		.byte	0x6
 20006 1202 23       		.byte	0x23
 20007 1203 18       		.uleb128 0x18
 20008 1204 C4060000 		.4byte	.LVL123-.Ltext0
 20009 1208 D7060000 		.4byte	.LVL126-1-.Ltext0
 20010 120c 0100     		.2byte	0x1
 20011 120e 52       		.byte	0x52
 20012 120f 00000000 		.4byte	0
 20013 1213 00000000 		.4byte	0
 20014              	.LVUS74:
 20015 1217 09       		.uleb128 .LVU644
 20016 1218 00       		.uleb128 .LVU646
 20017              	.LLST74:
 20018 1219 96060000 		.4byte	.LVL115-.Ltext0
 20019 121d 9C060000 		.4byte	.LVL116-.Ltext0
 20020 1221 0300     		.2byte	0x3
 20021 1223 08       		.byte	0x8
 20022 1224 20       		.byte	0x20
 20023 1225 9F       		.byte	0x9f
 20024 1226 00000000 		.4byte	0
 20025 122a 00000000 		.4byte	0
 20026              	.LVUS75:
 20027 122e 00       		.uleb128 .LVU650
 20028 122f 00       		.uleb128 .LVU652
 20029 1230 00       		.uleb128 .LVU652
 20030 1231 00       		.uleb128 .LVU653
 20031              	.LLST75:
 20032 1232 A4060000 		.4byte	.LVL117-.Ltext0
 20033 1236 A8060000 		.4byte	.LVL118-.Ltext0
 20034 123a 0200     		.2byte	0x2
 20035 123c 70       		.byte	0x70
 20036 123d 04       		.sleb128 4
 20037 123e A8060000 		.4byte	.LVL118-.Ltext0
ARM GAS  /tmp/ccfraM8n.s 			page 353


 20038 1242 AB060000 		.4byte	.LVL119-1-.Ltext0
 20039 1246 0100     		.2byte	0x1
 20040 1248 51       		.byte	0x51
 20041 1249 00000000 		.4byte	0
 20042 124d 00000000 		.4byte	0
 20043              	.LVUS76:
 20044 1251 00       		.uleb128 .LVU650
 20045 1252 00       		.uleb128 .LVU652
 20046 1253 00       		.uleb128 .LVU652
 20047 1254 00       		.uleb128 .LVU653
 20048              	.LLST76:
 20049 1255 A4060000 		.4byte	.LVL117-.Ltext0
 20050 1259 A8060000 		.4byte	.LVL118-.Ltext0
 20051 125d 0300     		.2byte	0x3
 20052 125f 70       		.byte	0x70
 20053 1260 0C       		.sleb128 12
 20054 1261 9F       		.byte	0x9f
 20055 1262 A8060000 		.4byte	.LVL118-.Ltext0
 20056 1266 AB060000 		.4byte	.LVL119-1-.Ltext0
 20057 126a 0100     		.2byte	0x1
 20058 126c 50       		.byte	0x50
 20059 126d 00000000 		.4byte	0
 20060 1271 00000000 		.4byte	0
 20061              	.LVUS77:
 20062 1275 0C       		.uleb128 .LVU665
 20063 1276 00       		.uleb128 .LVU667
 20064              	.LLST77:
 20065 1277 AC060000 		.4byte	.LVL119-.Ltext0
 20066 127b B2060000 		.4byte	.LVL120-.Ltext0
 20067 127f 0200     		.2byte	0x2
 20068 1281 30       		.byte	0x30
 20069 1282 9F       		.byte	0x9f
 20070 1283 00000000 		.4byte	0
 20071 1287 00000000 		.4byte	0
 20072              	.LVUS78:
 20073 128b 0A       		.uleb128 .LVU687
 20074 128c 00       		.uleb128 .LVU689
 20075              	.LLST78:
 20076 128d CC060000 		.4byte	.LVL124-.Ltext0
 20077 1291 D0060000 		.4byte	.LVL125-.Ltext0
 20078 1295 0300     		.2byte	0x3
 20079 1297 08       		.byte	0x8
 20080 1298 20       		.byte	0x20
 20081 1299 9F       		.byte	0x9f
 20082 129a 00000000 		.4byte	0
 20083 129e 00000000 		.4byte	0
 20084              	.LVUS79:
 20085 12a2 0B       		.uleb128 .LVU704
 20086 12a3 00       		.uleb128 .LVU706
 20087              	.LLST79:
 20088 12a4 D8060000 		.4byte	.LVL126-.Ltext0
 20089 12a8 DC060000 		.4byte	.LVL127-.Ltext0
 20090 12ac 0200     		.2byte	0x2
 20091 12ae 30       		.byte	0x30
 20092 12af 9F       		.byte	0x9f
 20093 12b0 00000000 		.4byte	0
 20094 12b4 00000000 		.4byte	0
ARM GAS  /tmp/ccfraM8n.s 			page 354


 20095              	.LVUS84:
 20096 12b8 00       		.uleb128 0
 20097 12b9 00       		.uleb128 .LVU777
 20098 12ba 00       		.uleb128 .LVU777
 20099 12bb 00       		.uleb128 .LVU785
 20100 12bc 00       		.uleb128 .LVU785
 20101 12bd 00       		.uleb128 .LVU790
 20102 12be 00       		.uleb128 .LVU790
 20103 12bf 00       		.uleb128 0
 20104              	.LLST84:
 20105 12c0 A0070000 		.4byte	.LVL140-.Ltext0
 20106 12c4 C4070000 		.4byte	.LVL143-.Ltext0
 20107 12c8 0100     		.2byte	0x1
 20108 12ca 50       		.byte	0x50
 20109 12cb C4070000 		.4byte	.LVL143-.Ltext0
 20110 12cf D8070000 		.4byte	.LVL144-.Ltext0
 20111 12d3 0400     		.2byte	0x4
 20112 12d5 F3       		.byte	0xf3
 20113 12d6 01       		.uleb128 0x1
 20114 12d7 50       		.byte	0x50
 20115 12d8 9F       		.byte	0x9f
 20116 12d9 D8070000 		.4byte	.LVL144-.Ltext0
 20117 12dd E6070000 		.4byte	.LVL146-.Ltext0
 20118 12e1 0100     		.2byte	0x1
 20119 12e3 50       		.byte	0x50
 20120 12e4 E6070000 		.4byte	.LVL146-.Ltext0
 20121 12e8 54080000 		.4byte	.LFE402-.Ltext0
 20122 12ec 0400     		.2byte	0x4
 20123 12ee F3       		.byte	0xf3
 20124 12ef 01       		.uleb128 0x1
 20125 12f0 50       		.byte	0x50
 20126 12f1 9F       		.byte	0x9f
 20127 12f2 00000000 		.4byte	0
 20128 12f6 00000000 		.4byte	0
 20129              	.LVUS85:
 20130 12fa 00       		.uleb128 .LVU766
 20131 12fb 00       		.uleb128 .LVU836
 20132 12fc 00       		.uleb128 .LVU837
 20133 12fd 00       		.uleb128 0
 20134              	.LLST85:
 20135 12fe AC070000 		.4byte	.LVL141-.Ltext0
 20136 1302 2C080000 		.4byte	.LVL153-.Ltext0
 20137 1306 0100     		.2byte	0x1
 20138 1308 57       		.byte	0x57
 20139 1309 30080000 		.4byte	.LVL154-.Ltext0
 20140 130d 54080000 		.4byte	.LFE402-.Ltext0
 20141 1311 0100     		.2byte	0x1
 20142 1313 57       		.byte	0x57
 20143 1314 00000000 		.4byte	0
 20144 1318 00000000 		.4byte	0
 20145              	.LVUS86:
 20146 131c 00       		.uleb128 .LVU768
 20147 131d 00       		.uleb128 .LVU836
 20148 131e 00       		.uleb128 .LVU837
 20149 131f 00       		.uleb128 0
 20150              	.LLST86:
 20151 1320 B4070000 		.4byte	.LVL142-.Ltext0
ARM GAS  /tmp/ccfraM8n.s 			page 355


 20152 1324 2C080000 		.4byte	.LVL153-.Ltext0
 20153 1328 0100     		.2byte	0x1
 20154 132a 54       		.byte	0x54
 20155 132b 30080000 		.4byte	.LVL154-.Ltext0
 20156 132f 54080000 		.4byte	.LFE402-.Ltext0
 20157 1333 0100     		.2byte	0x1
 20158 1335 54       		.byte	0x54
 20159 1336 00000000 		.4byte	0
 20160 133a 00000000 		.4byte	0
 20161              	.LVUS87:
 20162 133e 00       		.uleb128 .LVU788
 20163 133f 00       		.uleb128 .LVU793
 20164 1340 00       		.uleb128 .LVU793
 20165 1341 00       		.uleb128 .LVU796
 20166 1342 00       		.uleb128 .LVU796
 20167 1343 00       		.uleb128 .LVU797
 20168 1344 00       		.uleb128 .LVU837
 20169 1345 00       		.uleb128 .LVU857
 20170              	.LLST87:
 20171 1346 E4070000 		.4byte	.LVL145-.Ltext0
 20172 134a F0070000 		.4byte	.LVL147-.Ltext0
 20173 134e 0100     		.2byte	0x1
 20174 1350 53       		.byte	0x53
 20175 1351 F0070000 		.4byte	.LVL147-.Ltext0
 20176 1355 04080000 		.4byte	.LVL148-.Ltext0
 20177 1359 0200     		.2byte	0x2
 20178 135b 71       		.byte	0x71
 20179 135c 14       		.sleb128 20
 20180 135d 04080000 		.4byte	.LVL148-.Ltext0
 20181 1361 07080000 		.4byte	.LVL149-1-.Ltext0
 20182 1365 0C00     		.2byte	0xc
 20183 1367 78       		.byte	0x78
 20184 1368 00       		.sleb128 0
 20185 1369 32       		.byte	0x32
 20186 136a 24       		.byte	0x24
 20187 136b 75       		.byte	0x75
 20188 136c 00       		.sleb128 0
 20189 136d 22       		.byte	0x22
 20190 136e 23       		.byte	0x23
 20191 136f 04       		.uleb128 0x4
 20192 1370 06       		.byte	0x6
 20193 1371 23       		.byte	0x23
 20194 1372 14       		.uleb128 0x14
 20195 1373 30080000 		.4byte	.LVL154-.Ltext0
 20196 1377 47080000 		.4byte	.LVL157-1-.Ltext0
 20197 137b 0100     		.2byte	0x1
 20198 137d 53       		.byte	0x53
 20199 137e 00000000 		.4byte	0
 20200 1382 00000000 		.4byte	0
 20201              	.LVUS88:
 20202 1386 09       		.uleb128 .LVU806
 20203 1387 00       		.uleb128 .LVU808
 20204              	.LLST88:
 20205 1388 08080000 		.4byte	.LVL149-.Ltext0
 20206 138c 0E080000 		.4byte	.LVL150-.Ltext0
 20207 1390 0300     		.2byte	0x3
 20208 1392 08       		.byte	0x8
ARM GAS  /tmp/ccfraM8n.s 			page 356


 20209 1393 20       		.byte	0x20
 20210 1394 9F       		.byte	0x9f
 20211 1395 00000000 		.4byte	0
 20212 1399 00000000 		.4byte	0
 20213              	.LVUS89:
 20214 139d 04       		.uleb128 .LVU812
 20215 139e 00       		.uleb128 .LVU818
 20216              	.LLST89:
 20217 139f 0E080000 		.4byte	.LVL150-.Ltext0
 20218 13a3 1E080000 		.4byte	.LVL151-.Ltext0
 20219 13a7 0200     		.2byte	0x2
 20220 13a9 30       		.byte	0x30
 20221 13aa 9F       		.byte	0x9f
 20222 13ab 00000000 		.4byte	0
 20223 13af 00000000 		.4byte	0
 20224              	.LVUS90:
 20225 13b3 04       		.uleb128 .LVU812
 20226 13b4 00       		.uleb128 .LVU818
 20227              	.LLST90:
 20228 13b5 0E080000 		.4byte	.LVL150-.Ltext0
 20229 13b9 1D080000 		.4byte	.LVL151-1-.Ltext0
 20230 13bd 1100     		.2byte	0x11
 20231 13bf 76       		.byte	0x76
 20232 13c0 02       		.sleb128 2
 20233 13c1 32       		.byte	0x32
 20234 13c2 24       		.byte	0x24
 20235 13c3 03       		.byte	0x3
 20236 13c4 04000000 		.4byte	USBD1+4
 20237 13c8 22       		.byte	0x22
 20238 13c9 06       		.byte	0x6
 20239 13ca 23       		.byte	0x23
 20240 13cb 14       		.uleb128 0x14
 20241 13cc 06       		.byte	0x6
 20242 13cd 23       		.byte	0x23
 20243 13ce 0C       		.uleb128 0xc
 20244 13cf 9F       		.byte	0x9f
 20245 13d0 00000000 		.4byte	0
 20246 13d4 00000000 		.4byte	0
 20247              	.LVUS91:
 20248 13d8 0C       		.uleb128 .LVU830
 20249 13d9 00       		.uleb128 .LVU832
 20250              	.LLST91:
 20251 13da 1E080000 		.4byte	.LVL151-.Ltext0
 20252 13de 24080000 		.4byte	.LVL152-.Ltext0
 20253 13e2 0200     		.2byte	0x2
 20254 13e4 30       		.byte	0x30
 20255 13e5 9F       		.byte	0x9f
 20256 13e6 00000000 		.4byte	0
 20257 13ea 00000000 		.4byte	0
 20258              	.LVUS92:
 20259 13ee 09       		.uleb128 .LVU851
 20260 13ef 00       		.uleb128 .LVU853
 20261              	.LLST92:
 20262 13f0 3C080000 		.4byte	.LVL155-.Ltext0
 20263 13f4 40080000 		.4byte	.LVL156-.Ltext0
 20264 13f8 0300     		.2byte	0x3
 20265 13fa 08       		.byte	0x8
ARM GAS  /tmp/ccfraM8n.s 			page 357


 20266 13fb 20       		.byte	0x20
 20267 13fc 9F       		.byte	0x9f
 20268 13fd 00000000 		.4byte	0
 20269 1401 00000000 		.4byte	0
 20270              	.LVUS93:
 20271 1405 0B       		.uleb128 .LVU868
 20272 1406 00       		.uleb128 .LVU870
 20273              	.LLST93:
 20274 1407 48080000 		.4byte	.LVL157-.Ltext0
 20275 140b 4C080000 		.4byte	.LVL158-.Ltext0
 20276 140f 0200     		.2byte	0x2
 20277 1411 30       		.byte	0x30
 20278 1412 9F       		.byte	0x9f
 20279 1413 00000000 		.4byte	0
 20280 1417 00000000 		.4byte	0
 20281              		.section	.debug_aranges,"",%progbits
 20282 0000 1C000000 		.4byte	0x1c
 20283 0004 0200     		.2byte	0x2
 20284 0006 00000000 		.4byte	.Ldebug_info0
 20285 000a 04       		.byte	0x4
 20286 000b 00       		.byte	0
 20287 000c 0000     		.2byte	0
 20288 000e 0000     		.2byte	0
 20289 0010 00000000 		.4byte	.Ltext0
 20290 0014 160D0000 		.4byte	.Letext0-.Ltext0
 20291 0018 00000000 		.4byte	0
 20292 001c 00000000 		.4byte	0
 20293              		.section	.debug_ranges,"",%progbits
 20294              	.Ldebug_ranges0:
 20295 0000 00000000 		.4byte	.LBB284-.Ltext0
 20296 0004 06000000 		.4byte	.LBE284-.Ltext0
 20297 0008 0E000000 		.4byte	.LBB287-.Ltext0
 20298 000c 6C000000 		.4byte	.LBE287-.Ltext0
 20299 0010 6C000000 		.4byte	.LBB288-.Ltext0
 20300 0014 86000000 		.4byte	.LBE288-.Ltext0
 20301 0018 8A000000 		.4byte	.LBB289-.Ltext0
 20302 001c 9E000000 		.4byte	.LBE289-.Ltext0
 20303 0020 00000000 		.4byte	0
 20304 0024 00000000 		.4byte	0
 20305 0028 00010000 		.4byte	.LBB300-.Ltext0
 20306 002c 02010000 		.4byte	.LBE300-.Ltext0
 20307 0030 04010000 		.4byte	.LBB303-.Ltext0
 20308 0034 08010000 		.4byte	.LBE303-.Ltext0
 20309 0038 00000000 		.4byte	0
 20310 003c 00000000 		.4byte	0
 20311 0040 1E010000 		.4byte	.LBB306-.Ltext0
 20312 0044 22010000 		.4byte	.LBE306-.Ltext0
 20313 0048 28010000 		.4byte	.LBB311-.Ltext0
 20314 004c 6E010000 		.4byte	.LBE311-.Ltext0
 20315 0050 72010000 		.4byte	.LBB312-.Ltext0
 20316 0054 76010000 		.4byte	.LBE312-.Ltext0
 20317 0058 78010000 		.4byte	.LBB313-.Ltext0
 20318 005c 7C010000 		.4byte	.LBE313-.Ltext0
 20319 0060 00000000 		.4byte	0
 20320 0064 00000000 		.4byte	0
 20321 0068 18020000 		.4byte	.LBB314-.Ltext0
 20322 006c 1E020000 		.4byte	.LBE314-.Ltext0
ARM GAS  /tmp/ccfraM8n.s 			page 358


 20323 0070 22020000 		.4byte	.LBB319-.Ltext0
 20324 0074 68020000 		.4byte	.LBE319-.Ltext0
 20325 0078 6C020000 		.4byte	.LBB320-.Ltext0
 20326 007c 70020000 		.4byte	.LBE320-.Ltext0
 20327 0080 72020000 		.4byte	.LBB321-.Ltext0
 20328 0084 76020000 		.4byte	.LBE321-.Ltext0
 20329 0088 00000000 		.4byte	0
 20330 008c 00000000 		.4byte	0
 20331 0090 B2020000 		.4byte	.LBB322-.Ltext0
 20332 0094 B4020000 		.4byte	.LBE322-.Ltext0
 20333 0098 BA020000 		.4byte	.LBB327-.Ltext0
 20334 009c CA020000 		.4byte	.LBE327-.Ltext0
 20335 00a0 00000000 		.4byte	0
 20336 00a4 00000000 		.4byte	0
 20337 00a8 02030000 		.4byte	.LBB328-.Ltext0
 20338 00ac 06030000 		.4byte	.LBE328-.Ltext0
 20339 00b0 0C030000 		.4byte	.LBB339-.Ltext0
 20340 00b4 10030000 		.4byte	.LBE339-.Ltext0
 20341 00b8 00000000 		.4byte	0
 20342 00bc 00000000 		.4byte	0
 20343 00c0 06030000 		.4byte	.LBB331-.Ltext0
 20344 00c4 08030000 		.4byte	.LBE331-.Ltext0
 20345 00c8 16030000 		.4byte	.LBB340-.Ltext0
 20346 00cc 22030000 		.4byte	.LBE340-.Ltext0
 20347 00d0 24030000 		.4byte	.LBB341-.Ltext0
 20348 00d4 28030000 		.4byte	.LBE341-.Ltext0
 20349 00d8 00000000 		.4byte	0
 20350 00dc 00000000 		.4byte	0
 20351 00e0 20030000 		.4byte	.LBB333-.Ltext0
 20352 00e4 22030000 		.4byte	.LBE333-.Ltext0
 20353 00e8 24030000 		.4byte	.LBB336-.Ltext0
 20354 00ec 28030000 		.4byte	.LBE336-.Ltext0
 20355 00f0 00000000 		.4byte	0
 20356 00f4 00000000 		.4byte	0
 20357 00f8 5E030000 		.4byte	.LBB342-.Ltext0
 20358 00fc 66030000 		.4byte	.LBE342-.Ltext0
 20359 0100 6A030000 		.4byte	.LBB345-.Ltext0
 20360 0104 6E030000 		.4byte	.LBE345-.Ltext0
 20361 0108 00000000 		.4byte	0
 20362 010c 00000000 		.4byte	0
 20363 0110 28040000 		.4byte	.LBB346-.Ltext0
 20364 0114 2C040000 		.4byte	.LBE346-.Ltext0
 20365 0118 32040000 		.4byte	.LBB350-.Ltext0
 20366 011c 36040000 		.4byte	.LBE350-.Ltext0
 20367 0120 3A040000 		.4byte	.LBB351-.Ltext0
 20368 0124 3E040000 		.4byte	.LBE351-.Ltext0
 20369 0128 00000000 		.4byte	0
 20370 012c 00000000 		.4byte	0
 20371 0130 E6040000 		.4byte	.LBB360-.Ltext0
 20372 0134 EC040000 		.4byte	.LBE360-.Ltext0
 20373 0138 F2040000 		.4byte	.LBB365-.Ltext0
 20374 013c 3A050000 		.4byte	.LBE365-.Ltext0
 20375 0140 00000000 		.4byte	0
 20376 0144 00000000 		.4byte	0
 20377 0148 5E060000 		.4byte	.LBB366-.Ltext0
 20378 014c 96060000 		.4byte	.LBE366-.Ltext0
 20379 0150 96060000 		.4byte	.LBB439-.Ltext0
ARM GAS  /tmp/ccfraM8n.s 			page 359


 20380 0154 96060000 		.4byte	.LBE439-.Ltext0
 20381 0158 96060000 		.4byte	.LBB440-.Ltext0
 20382 015c 96060000 		.4byte	.LBE440-.Ltext0
 20383 0160 96060000 		.4byte	.LBB441-.Ltext0
 20384 0164 96060000 		.4byte	.LBE441-.Ltext0
 20385 0168 96060000 		.4byte	.LBB442-.Ltext0
 20386 016c 9C060000 		.4byte	.LBE442-.Ltext0
 20387 0170 9C060000 		.4byte	.LBB443-.Ltext0
 20388 0174 AC060000 		.4byte	.LBE443-.Ltext0
 20389 0178 AC060000 		.4byte	.LBB444-.Ltext0
 20390 017c AC060000 		.4byte	.LBE444-.Ltext0
 20391 0180 AC060000 		.4byte	.LBB445-.Ltext0
 20392 0184 AC060000 		.4byte	.LBE445-.Ltext0
 20393 0188 AC060000 		.4byte	.LBB446-.Ltext0
 20394 018c AC060000 		.4byte	.LBE446-.Ltext0
 20395 0190 AC060000 		.4byte	.LBB447-.Ltext0
 20396 0194 B2060000 		.4byte	.LBE447-.Ltext0
 20397 0198 C4060000 		.4byte	.LBB448-.Ltext0
 20398 019c CC060000 		.4byte	.LBE448-.Ltext0
 20399 01a0 CC060000 		.4byte	.LBB449-.Ltext0
 20400 01a4 CC060000 		.4byte	.LBE449-.Ltext0
 20401 01a8 CC060000 		.4byte	.LBB450-.Ltext0
 20402 01ac CC060000 		.4byte	.LBE450-.Ltext0
 20403 01b0 CC060000 		.4byte	.LBB451-.Ltext0
 20404 01b4 CC060000 		.4byte	.LBE451-.Ltext0
 20405 01b8 CC060000 		.4byte	.LBB452-.Ltext0
 20406 01bc D0060000 		.4byte	.LBE452-.Ltext0
 20407 01c0 D0060000 		.4byte	.LBB453-.Ltext0
 20408 01c4 D8060000 		.4byte	.LBE453-.Ltext0
 20409 01c8 D8060000 		.4byte	.LBB454-.Ltext0
 20410 01cc D8060000 		.4byte	.LBE454-.Ltext0
 20411 01d0 D8060000 		.4byte	.LBB455-.Ltext0
 20412 01d4 D8060000 		.4byte	.LBE455-.Ltext0
 20413 01d8 D8060000 		.4byte	.LBB456-.Ltext0
 20414 01dc D8060000 		.4byte	.LBE456-.Ltext0
 20415 01e0 D8060000 		.4byte	.LBB457-.Ltext0
 20416 01e4 DC060000 		.4byte	.LBE457-.Ltext0
 20417 01e8 00000000 		.4byte	0
 20418 01ec 00000000 		.4byte	0
 20419 01f0 96060000 		.4byte	.LBB367-.Ltext0
 20420 01f4 96060000 		.4byte	.LBE367-.Ltext0
 20421 01f8 96060000 		.4byte	.LBB379-.Ltext0
 20422 01fc 96060000 		.4byte	.LBE379-.Ltext0
 20423 0200 96060000 		.4byte	.LBB380-.Ltext0
 20424 0204 96060000 		.4byte	.LBE380-.Ltext0
 20425 0208 96060000 		.4byte	.LBB381-.Ltext0
 20426 020c 96060000 		.4byte	.LBE381-.Ltext0
 20427 0210 96060000 		.4byte	.LBB382-.Ltext0
 20428 0214 9C060000 		.4byte	.LBE382-.Ltext0
 20429 0218 00000000 		.4byte	0
 20430 021c 00000000 		.4byte	0
 20431 0220 AC060000 		.4byte	.LBB385-.Ltext0
 20432 0224 AC060000 		.4byte	.LBE385-.Ltext0
 20433 0228 AC060000 		.4byte	.LBB397-.Ltext0
 20434 022c AC060000 		.4byte	.LBE397-.Ltext0
 20435 0230 AC060000 		.4byte	.LBB398-.Ltext0
 20436 0234 AC060000 		.4byte	.LBE398-.Ltext0
ARM GAS  /tmp/ccfraM8n.s 			page 360


 20437 0238 AC060000 		.4byte	.LBB399-.Ltext0
 20438 023c AC060000 		.4byte	.LBE399-.Ltext0
 20439 0240 AC060000 		.4byte	.LBB400-.Ltext0
 20440 0244 B2060000 		.4byte	.LBE400-.Ltext0
 20441 0248 00000000 		.4byte	0
 20442 024c 00000000 		.4byte	0
 20443 0250 C8060000 		.4byte	.LBB401-.Ltext0
 20444 0254 CA060000 		.4byte	.LBE401-.Ltext0
 20445 0258 CC060000 		.4byte	.LBB418-.Ltext0
 20446 025c CC060000 		.4byte	.LBE418-.Ltext0
 20447 0260 CC060000 		.4byte	.LBB419-.Ltext0
 20448 0264 CC060000 		.4byte	.LBE419-.Ltext0
 20449 0268 CC060000 		.4byte	.LBB420-.Ltext0
 20450 026c CC060000 		.4byte	.LBE420-.Ltext0
 20451 0270 CC060000 		.4byte	.LBB421-.Ltext0
 20452 0274 CC060000 		.4byte	.LBE421-.Ltext0
 20453 0278 CC060000 		.4byte	.LBB422-.Ltext0
 20454 027c D0060000 		.4byte	.LBE422-.Ltext0
 20455 0280 00000000 		.4byte	0
 20456 0284 00000000 		.4byte	0
 20457 0288 C8060000 		.4byte	.LBB402-.Ltext0
 20458 028c CA060000 		.4byte	.LBE402-.Ltext0
 20459 0290 CC060000 		.4byte	.LBB414-.Ltext0
 20460 0294 CC060000 		.4byte	.LBE414-.Ltext0
 20461 0298 CC060000 		.4byte	.LBB415-.Ltext0
 20462 029c CC060000 		.4byte	.LBE415-.Ltext0
 20463 02a0 CC060000 		.4byte	.LBB416-.Ltext0
 20464 02a4 CC060000 		.4byte	.LBE416-.Ltext0
 20465 02a8 CC060000 		.4byte	.LBB417-.Ltext0
 20466 02ac D0060000 		.4byte	.LBE417-.Ltext0
 20467 02b0 00000000 		.4byte	0
 20468 02b4 00000000 		.4byte	0
 20469 02b8 C8060000 		.4byte	.LBB403-.Ltext0
 20470 02bc CA060000 		.4byte	.LBE403-.Ltext0
 20471 02c0 CC060000 		.4byte	.LBB411-.Ltext0
 20472 02c4 CC060000 		.4byte	.LBE411-.Ltext0
 20473 02c8 CC060000 		.4byte	.LBB412-.Ltext0
 20474 02cc CC060000 		.4byte	.LBE412-.Ltext0
 20475 02d0 CC060000 		.4byte	.LBB413-.Ltext0
 20476 02d4 D0060000 		.4byte	.LBE413-.Ltext0
 20477 02d8 00000000 		.4byte	0
 20478 02dc 00000000 		.4byte	0
 20479 02e0 C8060000 		.4byte	.LBB404-.Ltext0
 20480 02e4 CA060000 		.4byte	.LBE404-.Ltext0
 20481 02e8 CC060000 		.4byte	.LBB409-.Ltext0
 20482 02ec CC060000 		.4byte	.LBE409-.Ltext0
 20483 02f0 CC060000 		.4byte	.LBB410-.Ltext0
 20484 02f4 D0060000 		.4byte	.LBE410-.Ltext0
 20485 02f8 00000000 		.4byte	0
 20486 02fc 00000000 		.4byte	0
 20487 0300 C8060000 		.4byte	.LBB405-.Ltext0
 20488 0304 CA060000 		.4byte	.LBE405-.Ltext0
 20489 0308 CC060000 		.4byte	.LBB408-.Ltext0
 20490 030c D0060000 		.4byte	.LBE408-.Ltext0
 20491 0310 00000000 		.4byte	0
 20492 0314 00000000 		.4byte	0
 20493 0318 D8060000 		.4byte	.LBB423-.Ltext0
ARM GAS  /tmp/ccfraM8n.s 			page 361


 20494 031c D8060000 		.4byte	.LBE423-.Ltext0
 20495 0320 D8060000 		.4byte	.LBB435-.Ltext0
 20496 0324 D8060000 		.4byte	.LBE435-.Ltext0
 20497 0328 D8060000 		.4byte	.LBB436-.Ltext0
 20498 032c D8060000 		.4byte	.LBE436-.Ltext0
 20499 0330 D8060000 		.4byte	.LBB437-.Ltext0
 20500 0334 D8060000 		.4byte	.LBE437-.Ltext0
 20501 0338 D8060000 		.4byte	.LBB438-.Ltext0
 20502 033c DC060000 		.4byte	.LBE438-.Ltext0
 20503 0340 00000000 		.4byte	0
 20504 0344 00000000 		.4byte	0
 20505 0348 3E070000 		.4byte	.LBB458-.Ltext0
 20506 034c 5E070000 		.4byte	.LBE458-.Ltext0
 20507 0350 8A070000 		.4byte	.LBB459-.Ltext0
 20508 0354 92070000 		.4byte	.LBE459-.Ltext0
 20509 0358 00000000 		.4byte	0
 20510 035c 00000000 		.4byte	0
 20511 0360 C4070000 		.4byte	.LBB460-.Ltext0
 20512 0364 C4070000 		.4byte	.LBE460-.Ltext0
 20513 0368 D8070000 		.4byte	.LBB537-.Ltext0
 20514 036c 08080000 		.4byte	.LBE537-.Ltext0
 20515 0370 08080000 		.4byte	.LBB538-.Ltext0
 20516 0374 08080000 		.4byte	.LBE538-.Ltext0
 20517 0378 08080000 		.4byte	.LBB539-.Ltext0
 20518 037c 08080000 		.4byte	.LBE539-.Ltext0
 20519 0380 08080000 		.4byte	.LBB540-.Ltext0
 20520 0384 08080000 		.4byte	.LBE540-.Ltext0
 20521 0388 08080000 		.4byte	.LBB541-.Ltext0
 20522 038c 0E080000 		.4byte	.LBE541-.Ltext0
 20523 0390 0E080000 		.4byte	.LBB542-.Ltext0
 20524 0394 1E080000 		.4byte	.LBE542-.Ltext0
 20525 0398 1E080000 		.4byte	.LBB543-.Ltext0
 20526 039c 1E080000 		.4byte	.LBE543-.Ltext0
 20527 03a0 1E080000 		.4byte	.LBB544-.Ltext0
 20528 03a4 1E080000 		.4byte	.LBE544-.Ltext0
 20529 03a8 1E080000 		.4byte	.LBB545-.Ltext0
 20530 03ac 1E080000 		.4byte	.LBE545-.Ltext0
 20531 03b0 1E080000 		.4byte	.LBB546-.Ltext0
 20532 03b4 26080000 		.4byte	.LBE546-.Ltext0
 20533 03b8 30080000 		.4byte	.LBB547-.Ltext0
 20534 03bc 3C080000 		.4byte	.LBE547-.Ltext0
 20535 03c0 3C080000 		.4byte	.LBB548-.Ltext0
 20536 03c4 3C080000 		.4byte	.LBE548-.Ltext0
 20537 03c8 3C080000 		.4byte	.LBB549-.Ltext0
 20538 03cc 3C080000 		.4byte	.LBE549-.Ltext0
 20539 03d0 3C080000 		.4byte	.LBB550-.Ltext0
 20540 03d4 3C080000 		.4byte	.LBE550-.Ltext0
 20541 03d8 3C080000 		.4byte	.LBB551-.Ltext0
 20542 03dc 40080000 		.4byte	.LBE551-.Ltext0
 20543 03e0 40080000 		.4byte	.LBB552-.Ltext0
 20544 03e4 48080000 		.4byte	.LBE552-.Ltext0
 20545 03e8 48080000 		.4byte	.LBB553-.Ltext0
 20546 03ec 48080000 		.4byte	.LBE553-.Ltext0
 20547 03f0 48080000 		.4byte	.LBB554-.Ltext0
 20548 03f4 48080000 		.4byte	.LBE554-.Ltext0
 20549 03f8 48080000 		.4byte	.LBB555-.Ltext0
 20550 03fc 48080000 		.4byte	.LBE555-.Ltext0
ARM GAS  /tmp/ccfraM8n.s 			page 362


 20551 0400 48080000 		.4byte	.LBB556-.Ltext0
 20552 0404 54080000 		.4byte	.LBE556-.Ltext0
 20553 0408 00000000 		.4byte	0
 20554 040c 00000000 		.4byte	0
 20555 0410 08080000 		.4byte	.LBB461-.Ltext0
 20556 0414 08080000 		.4byte	.LBE461-.Ltext0
 20557 0418 08080000 		.4byte	.LBB473-.Ltext0
 20558 041c 08080000 		.4byte	.LBE473-.Ltext0
 20559 0420 08080000 		.4byte	.LBB474-.Ltext0
 20560 0424 08080000 		.4byte	.LBE474-.Ltext0
 20561 0428 08080000 		.4byte	.LBB475-.Ltext0
 20562 042c 08080000 		.4byte	.LBE475-.Ltext0
 20563 0430 08080000 		.4byte	.LBB476-.Ltext0
 20564 0434 0E080000 		.4byte	.LBE476-.Ltext0
 20565 0438 00000000 		.4byte	0
 20566 043c 00000000 		.4byte	0
 20567 0440 0E080000 		.4byte	.LBB477-.Ltext0
 20568 0444 0E080000 		.4byte	.LBE477-.Ltext0
 20569 0448 12080000 		.4byte	.LBB481-.Ltext0
 20570 044c 14080000 		.4byte	.LBE481-.Ltext0
 20571 0450 18080000 		.4byte	.LBB482-.Ltext0
 20572 0454 1E080000 		.4byte	.LBE482-.Ltext0
 20573 0458 00000000 		.4byte	0
 20574 045c 00000000 		.4byte	0
 20575 0460 1E080000 		.4byte	.LBB483-.Ltext0
 20576 0464 1E080000 		.4byte	.LBE483-.Ltext0
 20577 0468 1E080000 		.4byte	.LBB495-.Ltext0
 20578 046c 1E080000 		.4byte	.LBE495-.Ltext0
 20579 0470 1E080000 		.4byte	.LBB496-.Ltext0
 20580 0474 1E080000 		.4byte	.LBE496-.Ltext0
 20581 0478 1E080000 		.4byte	.LBB497-.Ltext0
 20582 047c 1E080000 		.4byte	.LBE497-.Ltext0
 20583 0480 1E080000 		.4byte	.LBB498-.Ltext0
 20584 0484 26080000 		.4byte	.LBE498-.Ltext0
 20585 0488 00000000 		.4byte	0
 20586 048c 00000000 		.4byte	0
 20587 0490 36080000 		.4byte	.LBB499-.Ltext0
 20588 0494 38080000 		.4byte	.LBE499-.Ltext0
 20589 0498 3C080000 		.4byte	.LBB516-.Ltext0
 20590 049c 3C080000 		.4byte	.LBE516-.Ltext0
 20591 04a0 3C080000 		.4byte	.LBB517-.Ltext0
 20592 04a4 3C080000 		.4byte	.LBE517-.Ltext0
 20593 04a8 3C080000 		.4byte	.LBB518-.Ltext0
 20594 04ac 3C080000 		.4byte	.LBE518-.Ltext0
 20595 04b0 3C080000 		.4byte	.LBB519-.Ltext0
 20596 04b4 3C080000 		.4byte	.LBE519-.Ltext0
 20597 04b8 3C080000 		.4byte	.LBB520-.Ltext0
 20598 04bc 40080000 		.4byte	.LBE520-.Ltext0
 20599 04c0 00000000 		.4byte	0
 20600 04c4 00000000 		.4byte	0
 20601 04c8 36080000 		.4byte	.LBB500-.Ltext0
 20602 04cc 38080000 		.4byte	.LBE500-.Ltext0
 20603 04d0 3C080000 		.4byte	.LBB512-.Ltext0
 20604 04d4 3C080000 		.4byte	.LBE512-.Ltext0
 20605 04d8 3C080000 		.4byte	.LBB513-.Ltext0
 20606 04dc 3C080000 		.4byte	.LBE513-.Ltext0
 20607 04e0 3C080000 		.4byte	.LBB514-.Ltext0
ARM GAS  /tmp/ccfraM8n.s 			page 363


 20608 04e4 3C080000 		.4byte	.LBE514-.Ltext0
 20609 04e8 3C080000 		.4byte	.LBB515-.Ltext0
 20610 04ec 40080000 		.4byte	.LBE515-.Ltext0
 20611 04f0 00000000 		.4byte	0
 20612 04f4 00000000 		.4byte	0
 20613 04f8 36080000 		.4byte	.LBB501-.Ltext0
 20614 04fc 38080000 		.4byte	.LBE501-.Ltext0
 20615 0500 3C080000 		.4byte	.LBB509-.Ltext0
 20616 0504 3C080000 		.4byte	.LBE509-.Ltext0
 20617 0508 3C080000 		.4byte	.LBB510-.Ltext0
 20618 050c 3C080000 		.4byte	.LBE510-.Ltext0
 20619 0510 3C080000 		.4byte	.LBB511-.Ltext0
 20620 0514 40080000 		.4byte	.LBE511-.Ltext0
 20621 0518 00000000 		.4byte	0
 20622 051c 00000000 		.4byte	0
 20623 0520 36080000 		.4byte	.LBB502-.Ltext0
 20624 0524 38080000 		.4byte	.LBE502-.Ltext0
 20625 0528 3C080000 		.4byte	.LBB507-.Ltext0
 20626 052c 3C080000 		.4byte	.LBE507-.Ltext0
 20627 0530 3C080000 		.4byte	.LBB508-.Ltext0
 20628 0534 40080000 		.4byte	.LBE508-.Ltext0
 20629 0538 00000000 		.4byte	0
 20630 053c 00000000 		.4byte	0
 20631 0540 36080000 		.4byte	.LBB503-.Ltext0
 20632 0544 38080000 		.4byte	.LBE503-.Ltext0
 20633 0548 3C080000 		.4byte	.LBB506-.Ltext0
 20634 054c 40080000 		.4byte	.LBE506-.Ltext0
 20635 0550 00000000 		.4byte	0
 20636 0554 00000000 		.4byte	0
 20637 0558 48080000 		.4byte	.LBB521-.Ltext0
 20638 055c 48080000 		.4byte	.LBE521-.Ltext0
 20639 0560 48080000 		.4byte	.LBB533-.Ltext0
 20640 0564 48080000 		.4byte	.LBE533-.Ltext0
 20641 0568 48080000 		.4byte	.LBB534-.Ltext0
 20642 056c 48080000 		.4byte	.LBE534-.Ltext0
 20643 0570 48080000 		.4byte	.LBB535-.Ltext0
 20644 0574 48080000 		.4byte	.LBE535-.Ltext0
 20645 0578 48080000 		.4byte	.LBB536-.Ltext0
 20646 057c 54080000 		.4byte	.LBE536-.Ltext0
 20647 0580 00000000 		.4byte	0
 20648 0584 00000000 		.4byte	0
 20649 0588 64080000 		.4byte	.LBB603-.Ltext0
 20650 058c 66080000 		.4byte	.LBE603-.Ltext0
 20651 0590 6C080000 		.4byte	.LBB763-.Ltext0
 20652 0594 94090000 		.4byte	.LBE763-.Ltext0
 20653 0598 A2090000 		.4byte	.LBB764-.Ltext0
 20654 059c 360A0000 		.4byte	.LBE764-.Ltext0
 20655 05a0 360A0000 		.4byte	.LBB765-.Ltext0
 20656 05a4 360A0000 		.4byte	.LBE765-.Ltext0
 20657 05a8 360A0000 		.4byte	.LBB766-.Ltext0
 20658 05ac 360A0000 		.4byte	.LBE766-.Ltext0
 20659 05b0 360A0000 		.4byte	.LBB767-.Ltext0
 20660 05b4 360A0000 		.4byte	.LBE767-.Ltext0
 20661 05b8 360A0000 		.4byte	.LBB768-.Ltext0
 20662 05bc 3C0A0000 		.4byte	.LBE768-.Ltext0
 20663 05c0 3C0A0000 		.4byte	.LBB769-.Ltext0
 20664 05c4 4E0A0000 		.4byte	.LBE769-.Ltext0
ARM GAS  /tmp/ccfraM8n.s 			page 364


 20665 05c8 4E0A0000 		.4byte	.LBB770-.Ltext0
 20666 05cc 4E0A0000 		.4byte	.LBE770-.Ltext0
 20667 05d0 4E0A0000 		.4byte	.LBB771-.Ltext0
 20668 05d4 4E0A0000 		.4byte	.LBE771-.Ltext0
 20669 05d8 4E0A0000 		.4byte	.LBB772-.Ltext0
 20670 05dc 4E0A0000 		.4byte	.LBE772-.Ltext0
 20671 05e0 4E0A0000 		.4byte	.LBB773-.Ltext0
 20672 05e4 360B0000 		.4byte	.LBE773-.Ltext0
 20673 05e8 360B0000 		.4byte	.LBB774-.Ltext0
 20674 05ec 360B0000 		.4byte	.LBE774-.Ltext0
 20675 05f0 360B0000 		.4byte	.LBB775-.Ltext0
 20676 05f4 360B0000 		.4byte	.LBE775-.Ltext0
 20677 05f8 360B0000 		.4byte	.LBB776-.Ltext0
 20678 05fc 360B0000 		.4byte	.LBE776-.Ltext0
 20679 0600 360B0000 		.4byte	.LBB777-.Ltext0
 20680 0604 3C0B0000 		.4byte	.LBE777-.Ltext0
 20681 0608 3C0B0000 		.4byte	.LBB778-.Ltext0
 20682 060c 4E0B0000 		.4byte	.LBE778-.Ltext0
 20683 0610 4E0B0000 		.4byte	.LBB779-.Ltext0
 20684 0614 4E0B0000 		.4byte	.LBE779-.Ltext0
 20685 0618 4E0B0000 		.4byte	.LBB780-.Ltext0
 20686 061c 4E0B0000 		.4byte	.LBE780-.Ltext0
 20687 0620 4E0B0000 		.4byte	.LBB781-.Ltext0
 20688 0624 4E0B0000 		.4byte	.LBE781-.Ltext0
 20689 0628 4E0B0000 		.4byte	.LBB782-.Ltext0
 20690 062c 5C0B0000 		.4byte	.LBE782-.Ltext0
 20691 0630 6A0B0000 		.4byte	.LBB783-.Ltext0
 20692 0634 860B0000 		.4byte	.LBE783-.Ltext0
 20693 0638 940B0000 		.4byte	.LBB784-.Ltext0
 20694 063c 9C0C0000 		.4byte	.LBE784-.Ltext0
 20695 0640 00000000 		.4byte	0
 20696 0644 00000000 		.4byte	0
 20697 0648 8A080000 		.4byte	.LBB605-.Ltext0
 20698 064c 90080000 		.4byte	.LBE605-.Ltext0
 20699 0650 94080000 		.4byte	.LBB609-.Ltext0
 20700 0654 E0080000 		.4byte	.LBE609-.Ltext0
 20701 0658 E2080000 		.4byte	.LBB610-.Ltext0
 20702 065c E6080000 		.4byte	.LBE610-.Ltext0
 20703 0660 00000000 		.4byte	0
 20704 0664 00000000 		.4byte	0
 20705 0668 B2090000 		.4byte	.LBB611-.Ltext0
 20706 066c 360A0000 		.4byte	.LBE611-.Ltext0
 20707 0670 360A0000 		.4byte	.LBB670-.Ltext0
 20708 0674 360A0000 		.4byte	.LBE670-.Ltext0
 20709 0678 360A0000 		.4byte	.LBB671-.Ltext0
 20710 067c 360A0000 		.4byte	.LBE671-.Ltext0
 20711 0680 360A0000 		.4byte	.LBB672-.Ltext0
 20712 0684 360A0000 		.4byte	.LBE672-.Ltext0
 20713 0688 360A0000 		.4byte	.LBB673-.Ltext0
 20714 068c 3C0A0000 		.4byte	.LBE673-.Ltext0
 20715 0690 3C0A0000 		.4byte	.LBB674-.Ltext0
 20716 0694 4E0A0000 		.4byte	.LBE674-.Ltext0
 20717 0698 4E0A0000 		.4byte	.LBB675-.Ltext0
 20718 069c 4E0A0000 		.4byte	.LBE675-.Ltext0
 20719 06a0 4E0A0000 		.4byte	.LBB676-.Ltext0
 20720 06a4 4E0A0000 		.4byte	.LBE676-.Ltext0
 20721 06a8 4E0A0000 		.4byte	.LBB677-.Ltext0
ARM GAS  /tmp/ccfraM8n.s 			page 365


 20722 06ac 4E0A0000 		.4byte	.LBE677-.Ltext0
 20723 06b0 4E0A0000 		.4byte	.LBB678-.Ltext0
 20724 06b4 5C0A0000 		.4byte	.LBE678-.Ltext0
 20725 06b8 00000000 		.4byte	0
 20726 06bc 00000000 		.4byte	0
 20727 06c0 FE090000 		.4byte	.LBB613-.Ltext0
 20728 06c4 000A0000 		.4byte	.LBE613-.Ltext0
 20729 06c8 040A0000 		.4byte	.LBB621-.Ltext0
 20730 06cc 100A0000 		.4byte	.LBE621-.Ltext0
 20731 06d0 140A0000 		.4byte	.LBB622-.Ltext0
 20732 06d4 1A0A0000 		.4byte	.LBE622-.Ltext0
 20733 06d8 00000000 		.4byte	0
 20734 06dc 00000000 		.4byte	0
 20735 06e0 100A0000 		.4byte	.LBB615-.Ltext0
 20736 06e4 100A0000 		.4byte	.LBE615-.Ltext0
 20737 06e8 140A0000 		.4byte	.LBB618-.Ltext0
 20738 06ec 1A0A0000 		.4byte	.LBE618-.Ltext0
 20739 06f0 00000000 		.4byte	0
 20740 06f4 00000000 		.4byte	0
 20741 06f8 360A0000 		.4byte	.LBB623-.Ltext0
 20742 06fc 360A0000 		.4byte	.LBE623-.Ltext0
 20743 0700 360A0000 		.4byte	.LBB635-.Ltext0
 20744 0704 360A0000 		.4byte	.LBE635-.Ltext0
 20745 0708 360A0000 		.4byte	.LBB636-.Ltext0
 20746 070c 360A0000 		.4byte	.LBE636-.Ltext0
 20747 0710 360A0000 		.4byte	.LBB637-.Ltext0
 20748 0714 360A0000 		.4byte	.LBE637-.Ltext0
 20749 0718 360A0000 		.4byte	.LBB638-.Ltext0
 20750 071c 3C0A0000 		.4byte	.LBE638-.Ltext0
 20751 0720 00000000 		.4byte	0
 20752 0724 00000000 		.4byte	0
 20753 0728 3C0A0000 		.4byte	.LBB639-.Ltext0
 20754 072c 3C0A0000 		.4byte	.LBE639-.Ltext0
 20755 0730 400A0000 		.4byte	.LBB643-.Ltext0
 20756 0734 420A0000 		.4byte	.LBE643-.Ltext0
 20757 0738 480A0000 		.4byte	.LBB644-.Ltext0
 20758 073c 4E0A0000 		.4byte	.LBE644-.Ltext0
 20759 0740 00000000 		.4byte	0
 20760 0744 00000000 		.4byte	0
 20761 0748 4E0A0000 		.4byte	.LBB645-.Ltext0
 20762 074c 4E0A0000 		.4byte	.LBE645-.Ltext0
 20763 0750 4E0A0000 		.4byte	.LBB657-.Ltext0
 20764 0754 4E0A0000 		.4byte	.LBE657-.Ltext0
 20765 0758 4E0A0000 		.4byte	.LBB658-.Ltext0
 20766 075c 4E0A0000 		.4byte	.LBE658-.Ltext0
 20767 0760 4E0A0000 		.4byte	.LBB659-.Ltext0
 20768 0764 4E0A0000 		.4byte	.LBE659-.Ltext0
 20769 0768 4E0A0000 		.4byte	.LBB660-.Ltext0
 20770 076c 540A0000 		.4byte	.LBE660-.Ltext0
 20771 0770 00000000 		.4byte	0
 20772 0774 00000000 		.4byte	0
 20773 0778 8A0A0000 		.4byte	.LBB679-.Ltext0
 20774 077c E00A0000 		.4byte	.LBE679-.Ltext0
 20775 0780 940B0000 		.4byte	.LBB740-.Ltext0
 20776 0784 EC0B0000 		.4byte	.LBE740-.Ltext0
 20777 0788 00000000 		.4byte	0
 20778 078c 00000000 		.4byte	0
ARM GAS  /tmp/ccfraM8n.s 			page 366


 20779 0790 E00A0000 		.4byte	.LBB686-.Ltext0
 20780 0794 360B0000 		.4byte	.LBE686-.Ltext0
 20781 0798 360B0000 		.4byte	.LBB731-.Ltext0
 20782 079c 360B0000 		.4byte	.LBE731-.Ltext0
 20783 07a0 360B0000 		.4byte	.LBB732-.Ltext0
 20784 07a4 360B0000 		.4byte	.LBE732-.Ltext0
 20785 07a8 360B0000 		.4byte	.LBB733-.Ltext0
 20786 07ac 360B0000 		.4byte	.LBE733-.Ltext0
 20787 07b0 360B0000 		.4byte	.LBB734-.Ltext0
 20788 07b4 3C0B0000 		.4byte	.LBE734-.Ltext0
 20789 07b8 3C0B0000 		.4byte	.LBB735-.Ltext0
 20790 07bc 4E0B0000 		.4byte	.LBE735-.Ltext0
 20791 07c0 4E0B0000 		.4byte	.LBB736-.Ltext0
 20792 07c4 4E0B0000 		.4byte	.LBE736-.Ltext0
 20793 07c8 4E0B0000 		.4byte	.LBB737-.Ltext0
 20794 07cc 4E0B0000 		.4byte	.LBE737-.Ltext0
 20795 07d0 4E0B0000 		.4byte	.LBB738-.Ltext0
 20796 07d4 4E0B0000 		.4byte	.LBE738-.Ltext0
 20797 07d8 4E0B0000 		.4byte	.LBB739-.Ltext0
 20798 07dc 560B0000 		.4byte	.LBE739-.Ltext0
 20799 07e0 00000000 		.4byte	0
 20800 07e4 00000000 		.4byte	0
 20801 07e8 360B0000 		.4byte	.LBB688-.Ltext0
 20802 07ec 360B0000 		.4byte	.LBE688-.Ltext0
 20803 07f0 360B0000 		.4byte	.LBB700-.Ltext0
 20804 07f4 360B0000 		.4byte	.LBE700-.Ltext0
 20805 07f8 360B0000 		.4byte	.LBB701-.Ltext0
 20806 07fc 360B0000 		.4byte	.LBE701-.Ltext0
 20807 0800 360B0000 		.4byte	.LBB702-.Ltext0
 20808 0804 360B0000 		.4byte	.LBE702-.Ltext0
 20809 0808 360B0000 		.4byte	.LBB703-.Ltext0
 20810 080c 3C0B0000 		.4byte	.LBE703-.Ltext0
 20811 0810 00000000 		.4byte	0
 20812 0814 00000000 		.4byte	0
 20813 0818 4E0B0000 		.4byte	.LBB706-.Ltext0
 20814 081c 4E0B0000 		.4byte	.LBE706-.Ltext0
 20815 0820 4E0B0000 		.4byte	.LBB718-.Ltext0
 20816 0824 4E0B0000 		.4byte	.LBE718-.Ltext0
 20817 0828 4E0B0000 		.4byte	.LBB719-.Ltext0
 20818 082c 4E0B0000 		.4byte	.LBE719-.Ltext0
 20819 0830 4E0B0000 		.4byte	.LBB720-.Ltext0
 20820 0834 4E0B0000 		.4byte	.LBE720-.Ltext0
 20821 0838 4E0B0000 		.4byte	.LBB721-.Ltext0
 20822 083c 560B0000 		.4byte	.LBE721-.Ltext0
 20823 0840 00000000 		.4byte	0
 20824 0844 00000000 		.4byte	0
 20825              		.section	.debug_line,"",%progbits
 20826              	.Ldebug_line0:
 20827 0000 EC1D0000 		.section	.debug_str,"MS",%progbits,1
 20827      0300EA08 
 20827      00000201 
 20827      FB0E0D00 
 20827      01010101 
 20828              	.LASF50:
 20829 0000 5F6F6E5F 		.ascii	"_on_exit_args_ptr\000"
 20829      65786974 
 20829      5F617267 
ARM GAS  /tmp/ccfraM8n.s 			page 367


 20829      735F7074 
 20829      7200
 20830              	.LASF405:
 20831 0012 63685F6D 		.ascii	"ch_memcore\000"
 20831      656D636F 
 20831      726500
 20832              	.LASF365:
 20833 001d 73656E74 		.ascii	"sentmsg\000"
 20833      6D736700 
 20834              	.LASF263:
 20835 0025 504C4C43 		.ascii	"PLLCKSELR\000"
 20835      4B53454C 
 20835      5200
 20836              	.LASF346:
 20837 002f 706F7274 		.ascii	"port_intctx\000"
 20837      5F696E74 
 20837      63747800 
 20838              	.LASF359:
 20839 003b 63685F74 		.ascii	"ch_trace_buffer_t\000"
 20839      72616365 
 20839      5F627566 
 20839      6665725F 
 20839      7400
 20840              	.LASF260:
 20841 004d 44314346 		.ascii	"D1CFGR\000"
 20841      475200
 20842              	.LASF582:
 20843 0054 6576656E 		.ascii	"event\000"
 20843      7400
 20844              	.LASF890:
 20845 005a 2F686F6D 		.ascii	"/home/nicolas/source/akso-sub/axoloti/firmware/moun"
 20845      652F6E69 
 20845      636F6C61 
 20845      732F736F 
 20845      75726365 
 20846 008d 74657200 		.ascii	"ter\000"
 20847              	.LASF857:
 20848 0091 5F5F6675 		.ascii	"__func__\000"
 20848      6E635F5F 
 20848      00
 20849              	.LASF140:
 20850 009a 6D73675F 		.ascii	"msg_t\000"
 20850      7400
 20851              	.LASF816:
 20852 00a0 53445241 		.ascii	"SDRAM_READY\000"
 20852      4D5F5245 
 20852      41445900 
 20853              	.LASF639:
 20854 00ac 68616C5F 		.ascii	"hal_trng_driver\000"
 20854      74726E67 
 20854      5F647269 
 20854      76657200 
 20855              	.LASF871:
 20856 00bc 706F7274 		.ascii	"port_unlock_from_isr\000"
 20856      5F756E6C 
 20856      6F636B5F 
 20856      66726F6D 
ARM GAS  /tmp/ccfraM8n.s 			page 368


 20856      5F697372 
 20857              	.LASF641:
 20858 00d1 68616C5F 		.ascii	"hal_trng_config\000"
 20858      74726E67 
 20858      5F636F6E 
 20858      66696700 
 20859              	.LASF883:
 20860 00e1 5F757362 		.ascii	"_usb_wakeup\000"
 20860      5F77616B 
 20860      65757000 
 20861              	.LASF600:
 20862 00ed 73646366 		.ascii	"sdcflags_t\000"
 20862      6C616773 
 20862      5F7400
 20863              	.LASF682:
 20864 00f8 5553425F 		.ascii	"USB_EVENT_UNCONFIGURED\000"
 20864      4556454E 
 20864      545F554E 
 20864      434F4E46 
 20864      49475552 
 20865              	.LASF726:
 20866 010f 44494550 		.ascii	"DIEPTXF0\000"
 20866      54584630 
 20866      00
 20867              	.LASF798:
 20868 0118 55534244 		.ascii	"USBD1\000"
 20868      3100
 20869              	.LASF581:
 20870 011e 53657269 		.ascii	"SerialDriver\000"
 20870      616C4472 
 20870      69766572 
 20870      00
 20871              	.LASF184:
 20872 012b 63685F73 		.ascii	"ch_system_t\000"
 20872      79737465 
 20872      6D5F7400 
 20873              	.LASF6:
 20874 0137 5F5F7569 		.ascii	"__uint8_t\000"
 20874      6E74385F 
 20874      7400
 20875              	.LASF366:
 20876 0141 77747365 		.ascii	"wtsemp\000"
 20876      6D7000
 20877              	.LASF400:
 20878 0148 5F426F6F 		.ascii	"_Bool\000"
 20878      6C00
 20879              	.LASF158:
 20880 014e 6570656E 		.ascii	"epending\000"
 20880      64696E67 
 20880      00
 20881              	.LASF92:
 20882 0157 5F6D6273 		.ascii	"_mbstate\000"
 20882      74617465 
 20882      00
 20883              	.LASF47:
 20884 0160 5F617465 		.ascii	"_atexit\000"
 20884      78697400 
ARM GAS  /tmp/ccfraM8n.s 			page 369


 20885              	.LASF409:
 20886 0168 70726F76 		.ascii	"provider\000"
 20886      69646572 
 20886      00
 20887              	.LASF424:
 20888 0171 6F626A65 		.ascii	"objects_factory_t\000"
 20888      6374735F 
 20888      66616374 
 20888      6F72795F 
 20888      7400
 20889              	.LASF401:
 20890 0183 6D656D67 		.ascii	"memgetfunc_t\000"
 20890      65746675 
 20890      6E635F74 
 20890      00
 20891              	.LASF756:
 20892 0190 44564255 		.ascii	"DVBUSDIS\000"
 20892      53444953 
 20892      00
 20893              	.LASF546:
 20894 0199 6572726F 		.ascii	"errors\000"
 20894      727300
 20895              	.LASF588:
 20896 01a0 696E7374 		.ascii	"instance_offset\000"
 20896      616E6365 
 20896      5F6F6666 
 20896      73657400 
 20897              	.LASF630:
 20898 01b0 73706963 		.ascii	"spicallback_t\000"
 20898      616C6C62 
 20898      61636B5F 
 20898      7400
 20899              	.LASF148:
 20900 01be 7072696F 		.ascii	"prio\000"
 20900      00
 20901              	.LASF638:
 20902 01c3 54524E47 		.ascii	"TRNGDriver\000"
 20902      44726976 
 20902      657200
 20903              	.LASF640:
 20904 01ce 54524E47 		.ascii	"TRNGConfig\000"
 20904      436F6E66 
 20904      696700
 20905              	.LASF310:
 20906 01d9 5243435F 		.ascii	"RCC_TypeDef\000"
 20906      54797065 
 20906      44656600 
 20907              	.LASF37:
 20908 01e5 5F5F746D 		.ascii	"__tm_mon\000"
 20908      5F6D6F6E 
 20908      00
 20909              	.LASF45:
 20910 01ee 5F666E74 		.ascii	"_fntypes\000"
 20910      79706573 
 20910      00
 20911              	.LASF128:
 20912 01f7 5F676C6F 		.ascii	"_global_atexit\000"
ARM GAS  /tmp/ccfraM8n.s 			page 370


 20912      62616C5F 
 20912      61746578 
 20912      697400
 20913              	.LASF64:
 20914 0206 5F696E63 		.ascii	"_inc\000"
 20914      00
 20915              	.LASF48:
 20916 020b 5F696E64 		.ascii	"_ind\000"
 20916      00
 20917              	.LASF322:
 20918 0210 4D41534B 		.ascii	"MASK\000"
 20918      00
 20919              	.LASF494:
 20920 0215 73616D70 		.ascii	"samples\000"
 20920      6C657300 
 20921              	.LASF730:
 20922 021d 47434346 		.ascii	"GCCFG\000"
 20922      4700
 20923              	.LASF442:
 20924 0223 42445452 		.ascii	"BDTR\000"
 20924      00
 20925              	.LASF848:
 20926 0228 6F74675F 		.ascii	"otg_epout_handler\000"
 20926      65706F75 
 20926      745F6861 
 20926      6E646C65 
 20926      7200
 20927              	.LASF544:
 20928 023a 49324343 		.ascii	"I2CConfig\000"
 20928      6F6E6669 
 20928      6700
 20929              	.LASF130:
 20930 0244 75696E74 		.ascii	"uint16_t\000"
 20930      31365F74 
 20930      00
 20931              	.LASF355:
 20932 024d 63685F74 		.ascii	"ch_trace_event_t\000"
 20932      72616365 
 20932      5F657665 
 20932      6E745F74 
 20932      00
 20933              	.LASF796:
 20934 025e 736F665F 		.ascii	"sof_cb\000"
 20934      636200
 20935              	.LASF415:
 20936 0265 63685F6F 		.ascii	"ch_objects_factory\000"
 20936      626A6563 
 20936      74735F66 
 20936      6163746F 
 20936      727900
 20937              	.LASF353:
 20938 0278 72747374 		.ascii	"rtstamp\000"
 20938      616D7000 
 20939              	.LASF55:
 20940 0280 5F666C61 		.ascii	"_flags\000"
 20940      677300
 20941              	.LASF165:
ARM GAS  /tmp/ccfraM8n.s 			page 371


 20942 0287 6E657874 		.ascii	"next\000"
 20942      00
 20943              	.LASF150:
 20944 028c 6F6C6465 		.ascii	"older\000"
 20944      7200
 20945              	.LASF411:
 20946 0292 63685F64 		.ascii	"ch_dyn_element\000"
 20946      796E5F65 
 20946      6C656D65 
 20946      6E7400
 20947              	.LASF287:
 20948 02a1 41504234 		.ascii	"APB4RSTR\000"
 20948      52535452 
 20948      00
 20949              	.LASF733:
 20950 02aa 44494550 		.ascii	"DIEPTXF\000"
 20950      54584600 
 20951              	.LASF673:
 20952 02b2 5553425F 		.ascii	"USB_EP0_IN_WAITING_TX0\000"
 20952      4550305F 
 20952      494E5F57 
 20952      41495449 
 20952      4E475F54 
 20953              	.LASF526:
 20954 02c9 4144435F 		.ascii	"ADC_ERR_OVERFLOW\000"
 20954      4552525F 
 20954      4F564552 
 20954      464C4F57 
 20954      00
 20955              	.LASF71:
 20956 02da 5F637674 		.ascii	"_cvtlen\000"
 20956      6C656E00 
 20957              	.LASF849:
 20958 02e2 6570696E 		.ascii	"epint\000"
 20958      7400
 20959              	.LASF167:
 20960 02e8 63685F74 		.ascii	"ch_threads_queue\000"
 20960      68726561 
 20960      64735F71 
 20960      75657565 
 20960      00
 20961              	.LASF841:
 20962 02f9 7573625F 		.ascii	"usb_lld_stop\000"
 20962      6C6C645F 
 20962      73746F70 
 20962      00
 20963              	.LASF76:
 20964 0306 5F736967 		.ascii	"_sig_func\000"
 20964      5F66756E 
 20964      6300
 20965              	.LASF743:
 20966 0310 48505254 		.ascii	"HPRT\000"
 20966      00
 20967              	.LASF697:
 20968 0315 4843494E 		.ascii	"HCINT\000"
 20968      5400
 20969              	.LASF197:
ARM GAS  /tmp/ccfraM8n.s 			page 372


 20970 031b 534D5052 		.ascii	"SMPR1\000"
 20970      3100
 20971              	.LASF198:
 20972 0321 534D5052 		.ascii	"SMPR2\000"
 20972      3200
 20973              	.LASF91:
 20974 0327 5F6C6F63 		.ascii	"_lock\000"
 20974      6B00
 20975              	.LASF88:
 20976 032d 5F6E6275 		.ascii	"_nbuf\000"
 20976      6600
 20977              	.LASF617:
 20978 0333 5350495F 		.ascii	"SPI_STOP\000"
 20978      53544F50 
 20978      00
 20979              	.LASF866:
 20980 033c 6379636C 		.ascii	"cycles\000"
 20980      657300
 20981              	.LASF564:
 20982 0343 70776D63 		.ascii	"pwmchnmsk_t\000"
 20982      686E6D73 
 20982      6B5F7400 
 20983              	.LASF223:
 20984 034f 41574433 		.ascii	"AWD3CR\000"
 20984      435200
 20985              	.LASF822:
 20986 0356 65703063 		.ascii	"ep0config\000"
 20986      6F6E6669 
 20986      6700
 20987              	.LASF635:
 20988 0360 54524E47 		.ascii	"TRNG_READY\000"
 20988      5F524541 
 20988      445900
 20989              	.LASF700:
 20990 036b 72657376 		.ascii	"resvd14\000"
 20990      64313400 
 20991              	.LASF739:
 20992 0373 48505458 		.ascii	"HPTXSTS\000"
 20992      53545300 
 20993              	.LASF819:
 20994 037b 53445241 		.ascii	"SDRAMD1\000"
 20994      4D443100 
 20995              	.LASF670:
 20996 0383 75736265 		.ascii	"usbepstatus_t\000"
 20996      70737461 
 20996      7475735F 
 20996      7400
 20997              	.LASF475:
 20998 0391 4F545950 		.ascii	"OTYPER\000"
 20998      455200
 20999              	.LASF621:
 21000 0398 73706973 		.ascii	"spistate_t\000"
 21000      74617465 
 21000      5F7400
 21001              	.LASF595:
 21002 03a3 5344435F 		.ascii	"SDC_MODE_1BIT\000"
 21002      4D4F4445 
ARM GAS  /tmp/ccfraM8n.s 			page 373


 21002      5F314249 
 21002      5400
 21003              	.LASF695:
 21004 03b1 48434348 		.ascii	"HCCHAR\000"
 21004      415200
 21005              	.LASF252:
 21006 03b8 54494D45 		.ascii	"TIMEOUTR\000"
 21006      4F555452 
 21006      00
 21007              	.LASF539:
 21008 03c1 4932435F 		.ascii	"I2C_ACTIVE_RX\000"
 21008      41435449 
 21008      56455F52 
 21008      5800
 21009              	.LASF145:
 21010 03cf 74687265 		.ascii	"thread_t\000"
 21010      61645F74 
 21010      00
 21011              	.LASF555:
 21012 03d8 70776D73 		.ascii	"pwmstate_t\000"
 21012      74617465 
 21012      5F7400
 21013              	.LASF178:
 21014 03e3 63685F76 		.ascii	"ch_virtual_timers_list\000"
 21014      69727475 
 21014      616C5F74 
 21014      696D6572 
 21014      735F6C69 
 21015              	.LASF430:
 21016 03fa 76656374 		.ascii	"vector\000"
 21016      6F7200
 21017              	.LASF721:
 21018 0401 47494E54 		.ascii	"GINTSTS\000"
 21018      53545300 
 21019              	.LASF131:
 21020 0409 696E7433 		.ascii	"int32_t\000"
 21020      325F7400 
 21021              	.LASF189:
 21022 0411 73797374 		.ascii	"systime_t\000"
 21022      696D655F 
 21022      7400
 21023              	.LASF95:
 21024 041b 5F5F4649 		.ascii	"__FILE\000"
 21024      4C4500
 21025              	.LASF54:
 21026 0422 5F5F7346 		.ascii	"__sFILE_fake\000"
 21026      494C455F 
 21026      66616B65 
 21026      00
 21027              	.LASF238:
 21028 042f 4D304152 		.ascii	"M0AR\000"
 21028      00
 21029              	.LASF702:
 21030 0434 72657376 		.ascii	"resvd1c\000"
 21030      64316300 
 21031              	.LASF542:
 21032 043c 69326366 		.ascii	"i2cflags_t\000"
ARM GAS  /tmp/ccfraM8n.s 			page 374


 21032      6C616773 
 21032      5F7400
 21033              	.LASF740:
 21034 0447 4841494E 		.ascii	"HAINT\000"
 21034      5400
 21035              	.LASF377:
 21036 044d 74696D65 		.ascii	"timesize\000"
 21036      73697A65 
 21036      00
 21037              	.LASF669:
 21038 0456 45505F53 		.ascii	"EP_STATUS_ACTIVE\000"
 21038      54415455 
 21038      535F4143 
 21038      54495645 
 21038      00
 21039              	.LASF804:
 21040 0467 53445254 		.ascii	"SDRTR\000"
 21040      5200
 21041              	.LASF864:
 21042 046d 6F73616C 		.ascii	"osalThreadResumeI\000"
 21042      54687265 
 21042      61645265 
 21042      73756D65 
 21042      4900
 21043              	.LASF878:
 21044 047f 6E766963 		.ascii	"nvicDisableVector\000"
 21044      44697361 
 21044      626C6556 
 21044      6563746F 
 21044      7200
 21045              	.LASF737:
 21046 0491 48464E55 		.ascii	"HFNUM\000"
 21046      4D00
 21047              	.LASF623:
 21048 0497 68616C5F 		.ascii	"hal_spi_driver\000"
 21048      7370695F 
 21048      64726976 
 21048      657200
 21049              	.LASF470:
 21050 04a6 716E6F74 		.ascii	"qnotify_t\000"
 21050      6966795F 
 21050      7400
 21051              	.LASF490:
 21052 04b0 61646373 		.ascii	"adcstate_t\000"
 21052      74617465 
 21052      5F7400
 21053              	.LASF801:
 21054 04bb 53445452 		.ascii	"SDTR1\000"
 21054      3100
 21055              	.LASF802:
 21056 04c1 53445452 		.ascii	"SDTR2\000"
 21056      3200
 21057              	.LASF646:
 21058 04c7 696E5F70 		.ascii	"in_params\000"
 21058      6172616D 
 21058      7300
 21059              	.LASF854:
ARM GAS  /tmp/ccfraM8n.s 			page 375


 21060 04d1 6F74675F 		.ascii	"otg_fifo_write_from_buffer\000"
 21060      6669666F 
 21060      5F777269 
 21060      74655F66 
 21060      726F6D5F 
 21061              	.LASF465:
 21062 04ec 715F746F 		.ascii	"q_top\000"
 21062      7000
 21063              	.LASF57:
 21064 04f2 5F6C6266 		.ascii	"_lbfsize\000"
 21064      73697A65 
 21064      00
 21065              	.LASF688:
 21066 04fb 75645F73 		.ascii	"ud_string\000"
 21066      7472696E 
 21066      6700
 21067              	.LASF545:
 21068 0505 49324344 		.ascii	"I2CDriver\000"
 21068      72697665 
 21068      7200
 21069              	.LASF538:
 21070 050f 4932435F 		.ascii	"I2C_ACTIVE_TX\000"
 21070      41435449 
 21070      56455F54 
 21070      5800
 21071              	.LASF155:
 21072 051d 72656673 		.ascii	"refs\000"
 21072      00
 21073              	.LASF590:
 21074 0522 72656164 		.ascii	"read\000"
 21074      00
 21075              	.LASF651:
 21076 0527 65703065 		.ascii	"ep0endcb\000"
 21076      6E646362 
 21076      00
 21077              	.LASF749:
 21078 0530 72657376 		.ascii	"resvd80C\000"
 21078      64383043 
 21078      00
 21079              	.LASF159:
 21080 0539 6D74786C 		.ascii	"mtxlist\000"
 21080      69737400 
 21081              	.LASF716:
 21082 0541 474F5447 		.ascii	"GOTGCTL\000"
 21082      43544C00 
 21083              	.LASF795:
 21084 0549 72657175 		.ascii	"requests_hook_cb\000"
 21084      65737473 
 21084      5F686F6F 
 21084      6B5F6362 
 21084      00
 21085              	.LASF298:
 21086 055a 41504234 		.ascii	"APB4ENR\000"
 21086      454E5200 
 21087              	.LASF58:
 21088 0562 5F646174 		.ascii	"_data\000"
 21088      6100
ARM GAS  /tmp/ccfraM8n.s 			page 376


 21089              	.LASF187:
 21090 0568 76746C69 		.ascii	"vtlist\000"
 21090      737400
 21091              	.LASF634:
 21092 056f 54524E47 		.ascii	"TRNG_STOP\000"
 21092      5F53544F 
 21092      5000
 21093              	.LASF755:
 21094 0579 72657376 		.ascii	"resvd824\000"
 21094      64383234 
 21094      00
 21095              	.LASF462:
 21096 0582 715F7761 		.ascii	"q_waiting\000"
 21096      6974696E 
 21096      6700
 21097              	.LASF186:
 21098 058c 726C6973 		.ascii	"rlist\000"
 21098      7400
 21099              	.LASF163:
 21100 0592 74687265 		.ascii	"threads_list_t\000"
 21100      6164735F 
 21100      6C697374 
 21100      5F7400
 21101              	.LASF361:
 21102 05a1 746D5F63 		.ascii	"tm_calibration_t\000"
 21102      616C6962 
 21102      72617469 
 21102      6F6E5F74 
 21102      00
 21103              	.LASF471:
 21104 05b2 696E7075 		.ascii	"input_queue_t\000"
 21104      745F7175 
 21104      6575655F 
 21104      7400
 21105              	.LASF269:
 21106 05c0 504C4C33 		.ascii	"PLL3DIVR\000"
 21106      44495652 
 21106      00
 21107              	.LASF121:
 21108 05c9 5F5F6C6F 		.ascii	"__lock\000"
 21108      636B00
 21109              	.LASF59:
 21110 05d0 5F726565 		.ascii	"_reent\000"
 21110      6E7400
 21111              	.LASF784:
 21112 05d7 696E5F63 		.ascii	"in_cb\000"
 21112      6200
 21113              	.LASF829:
 21114 05dd 7573625F 		.ascii	"usb_lld_start_in\000"
 21114      6C6C645F 
 21114      73746172 
 21114      745F696E 
 21114      00
 21115              	.LASF78:
 21116 05ee 5F5F7366 		.ascii	"__sf\000"
 21116      00
 21117              	.LASF754:
ARM GAS  /tmp/ccfraM8n.s 			page 377


 21118 05f3 72657376 		.ascii	"resvd820\000"
 21118      64383230 
 21118      00
 21119              	.LASF52:
 21120 05fc 5F626173 		.ascii	"_base\000"
 21120      6500
 21121              	.LASF314:
 21122 0602 52455350 		.ascii	"RESP1\000"
 21122      3100
 21123              	.LASF315:
 21124 0608 52455350 		.ascii	"RESP2\000"
 21124      3200
 21125              	.LASF316:
 21126 060e 52455350 		.ascii	"RESP3\000"
 21126      3300
 21127              	.LASF317:
 21128 0614 52455350 		.ascii	"RESP4\000"
 21128      3400
 21129              	.LASF113:
 21130 061a 5F6D6274 		.ascii	"_mbtowc_state\000"
 21130      6F77635F 
 21130      73746174 
 21130      6500
 21131              	.LASF823:
 21132 0628 66737061 		.ascii	"fsparams\000"
 21132      72616D73 
 21132      00
 21133              	.LASF486:
 21134 0631 4144435F 		.ascii	"ADC_READY\000"
 21134      52454144 
 21134      5900
 21135              	.LASF867:
 21136 063b 6F73616C 		.ascii	"osalSysUnlockFromISR\000"
 21136      53797355 
 21136      6E6C6F63 
 21136      6B46726F 
 21136      6D495352 
 21137              	.LASF535:
 21138 0650 4932435F 		.ascii	"I2C_UNINIT\000"
 21138      554E494E 
 21138      495400
 21139              	.LASF693:
 21140 065b 75736272 		.ascii	"usbreqhandler_t\000"
 21140      65716861 
 21140      6E646C65 
 21140      725F7400 
 21141              	.LASF488:
 21142 066b 4144435F 		.ascii	"ADC_COMPLETE\000"
 21142      434F4D50 
 21142      4C455445 
 21142      00
 21143              	.LASF577:
 21144 0678 53445F55 		.ascii	"SD_UNINIT\000"
 21144      4E494E49 
 21144      5400
 21145              	.LASF139:
 21146 0682 74707269 		.ascii	"tprio_t\000"
ARM GAS  /tmp/ccfraM8n.s 			page 378


 21146      6F5F7400 
 21147              	.LASF656:
 21148 068a 73617665 		.ascii	"saved_state\000"
 21148      645F7374 
 21148      61746500 
 21149              	.LASF505:
 21150 0696 64696673 		.ascii	"difsel\000"
 21150      656C00
 21151              	.LASF297:
 21152 069d 41504232 		.ascii	"APB2ENR\000"
 21152      454E5200 
 21153              	.LASF758:
 21154 06a5 72657376 		.ascii	"resvd830\000"
 21154      64383330 
 21154      00
 21155              	.LASF32:
 21156 06ae 5F5F746D 		.ascii	"__tm\000"
 21156      00
 21157              	.LASF413:
 21158 06b3 63685F64 		.ascii	"ch_dyn_list\000"
 21158      796E5F6C 
 21158      69737400 
 21159              	.LASF808:
 21160 06bf 73647261 		.ascii	"sdram\000"
 21160      6D00
 21161              	.LASF760:
 21162 06c5 72657376 		.ascii	"resvd838\000"
 21162      64383338 
 21162      00
 21163              	.LASF504:
 21164 06ce 68616C5F 		.ascii	"hal_adc_config\000"
 21164      6164635F 
 21164      636F6E66 
 21164      696700
 21165              	.LASF251:
 21166 06dd 54494D49 		.ascii	"TIMINGR\000"
 21166      4E475200 
 21167              	.LASF230:
 21168 06e5 44494653 		.ascii	"DIFSEL\000"
 21168      454C00
 21169              	.LASF497:
 21170 06ec 74687265 		.ascii	"thread\000"
 21170      616400
 21171              	.LASF652:
 21172 06f3 73657475 		.ascii	"setup\000"
 21172      7000
 21173              	.LASF616:
 21174 06f9 5350495F 		.ascii	"SPI_UNINIT\000"
 21174      554E494E 
 21174      495400
 21175              	.LASF374:
 21176 0704 7A65726F 		.ascii	"zero\000"
 21176      00
 21177              	.LASF457:
 21178 0709 626C6B5F 		.ascii	"blk_size\000"
 21178      73697A65 
 21178      00
ARM GAS  /tmp/ccfraM8n.s 			page 379


 21179              	.LASF537:
 21180 0712 4932435F 		.ascii	"I2C_READY\000"
 21180      52454144 
 21180      5900
 21181              	.LASF193:
 21182 071c 53797374 		.ascii	"SystemD2Clock\000"
 21182      656D4432 
 21182      436C6F63 
 21182      6B00
 21183              	.LASF761:
 21184 072a 72657376 		.ascii	"resvd83C\000"
 21184      64383343 
 21184      00
 21185              	.LASF40:
 21186 0733 5F5F746D 		.ascii	"__tm_yday\000"
 21186      5F796461 
 21186      7900
 21187              	.LASF441:
 21188 073d 43434552 		.ascii	"CCER\000"
 21188      00
 21189              	.LASF552:
 21190 0742 50574D5F 		.ascii	"PWM_UNINIT\000"
 21190      554E494E 
 21190      495400
 21191              	.LASF352:
 21192 074d 74797065 		.ascii	"type\000"
 21192      00
 21193              	.LASF718:
 21194 0752 47414842 		.ascii	"GAHBCFG\000"
 21194      43464700 
 21195              	.LASF25:
 21196 075a 5F4C4F43 		.ascii	"_LOCK_T\000"
 21196      4B5F5400 
 21197              	.LASF762:
 21198 0762 72657376 		.ascii	"resvd840\000"
 21198      64383430 
 21198      00
 21199              	.LASF452:
 21200 076b 424C4B5F 		.ascii	"BLK_READY\000"
 21200      52454144 
 21200      5900
 21201              	.LASF876:
 21202 0775 62617365 		.ascii	"basePri\000"
 21202      50726900 
 21203              	.LASF851:
 21204 077d 6F74675F 		.ascii	"otg_rxfifo_handler\000"
 21204      72786669 
 21204      666F5F68 
 21204      616E646C 
 21204      657200
 21205              	.LASF9:
 21206 0790 5F5F7569 		.ascii	"__uint16_t\000"
 21206      6E743136 
 21206      5F7400
 21207              	.LASF323:
 21208 079b 41434B54 		.ascii	"ACKTIME\000"
 21208      494D4500 
ARM GAS  /tmp/ccfraM8n.s 			page 380


 21209              	.LASF715:
 21210 07a3 73746D33 		.ascii	"stm32_otg_out_ep_t\000"
 21210      325F6F74 
 21210      675F6F75 
 21210      745F6570 
 21210      5F7400
 21211              	.LASF724:
 21212 07b6 47525853 		.ascii	"GRXSTSP\000"
 21212      54535000 
 21213              	.LASF723:
 21214 07be 47525853 		.ascii	"GRXSTSR\000"
 21214      54535200 
 21215              	.LASF881:
 21216 07c6 63685468 		.ascii	"chThdResumeI\000"
 21216      64526573 
 21216      756D6549 
 21216      00
 21217              	.LASF239:
 21218 07d3 4D314152 		.ascii	"M1AR\000"
 21218      00
 21219              	.LASF240:
 21220 07d8 444D415F 		.ascii	"DMA_Stream_TypeDef\000"
 21220      53747265 
 21220      616D5F54 
 21220      79706544 
 21220      656600
 21221              	.LASF884:
 21222 07eb 5F757362 		.ascii	"_usb_reset\000"
 21222      5F726573 
 21222      657400
 21223              	.LASF664:
 21224 07f6 5553425F 		.ascii	"USB_ACTIVE\000"
 21224      41435449 
 21224      564500
 21225              	.LASF661:
 21226 0801 5553425F 		.ascii	"USB_STOP\000"
 21226      53544F50 
 21226      00
 21227              	.LASF149:
 21228 080a 6E657765 		.ascii	"newer\000"
 21228      7200
 21229              	.LASF633:
 21230 0810 54524E47 		.ascii	"TRNG_UNINIT\000"
 21230      5F554E49 
 21230      4E495400 
 21231              	.LASF711:
 21232 081c 73746D33 		.ascii	"stm32_otg_in_ep_t\000"
 21232      325F6F74 
 21232      675F696E 
 21232      5F65705F 
 21232      7400
 21233              	.LASF484:
 21234 082e 4144435F 		.ascii	"ADC_UNINIT\000"
 21234      554E494E 
 21234      495400
 21235              	.LASF549:
 21236 0839 7278646D 		.ascii	"rxdmamode\000"
ARM GAS  /tmp/ccfraM8n.s 			page 381


 21236      616D6F64 
 21236      6500
 21237              	.LASF106:
 21238 0843 5F726573 		.ascii	"_result_k\000"
 21238      756C745F 
 21238      6B00
 21239              	.LASF566:
 21240 084d 6D6F6465 		.ascii	"mode\000"
 21240      00
 21241              	.LASF63:
 21242 0852 5F737464 		.ascii	"_stderr\000"
 21242      65727200 
 21243              	.LASF105:
 21244 085a 5F726573 		.ascii	"_result\000"
 21244      756C7400 
 21245              	.LASF44:
 21246 0862 5F64736F 		.ascii	"_dso_handle\000"
 21246      5F68616E 
 21246      646C6500 
 21247              	.LASF731:
 21248 086e 72657376 		.ascii	"resvd58\000"
 21248      64353800 
 21249              	.LASF627:
 21250 0876 73737061 		.ascii	"sspad\000"
 21250      6400
 21251              	.LASF550:
 21252 087c 7478646D 		.ascii	"txdmamode\000"
 21252      616D6F64 
 21252      6500
 21253              	.LASF39:
 21254 0886 5F5F746D 		.ascii	"__tm_wday\000"
 21254      5F776461 
 21254      7900
 21255              	.LASF41:
 21256 0890 5F5F746D 		.ascii	"__tm_isdst\000"
 21256      5F697364 
 21256      737400
 21257              	.LASF303:
 21258 089b 41484234 		.ascii	"AHB4LPENR\000"
 21258      4C50454E 
 21258      5200
 21259              	.LASF769:
 21260 08a5 72785F66 		.ascii	"rx_fifo_size\000"
 21260      69666F5F 
 21260      73697A65 
 21260      00
 21261              	.LASF345:
 21262 08b2 73746B61 		.ascii	"stkalign_t\000"
 21262      6C69676E 
 21262      5F7400
 21263              	.LASF548:
 21264 08bd 72786279 		.ascii	"rxbytes\000"
 21264      74657300 
 21265              	.LASF511:
 21266 08c5 656E645F 		.ascii	"end_cb\000"
 21266      636200
 21267              	.LASF783:
ARM GAS  /tmp/ccfraM8n.s 			page 382


 21268 08cc 73657475 		.ascii	"setup_cb\000"
 21268      705F6362 
 21268      00
 21269              	.LASF7:
 21270 08d5 756E7369 		.ascii	"unsigned char\000"
 21270      676E6564 
 21270      20636861 
 21270      7200
 21271              	.LASF62:
 21272 08e3 5F737464 		.ascii	"_stdout\000"
 21272      6F757400 
 21273              	.LASF341:
 21274 08eb 52544F52 		.ascii	"RTOR\000"
 21274      00
 21275              	.LASF329:
 21276 08f0 4649464F 		.ascii	"FIFO\000"
 21276      00
 21277              	.LASF274:
 21278 08f5 44334343 		.ascii	"D3CCIPR\000"
 21278      49505200 
 21279              	.LASF169:
 21280 08fd 72656164 		.ascii	"ready_list_t\000"
 21280      795F6C69 
 21280      73745F74 
 21280      00
 21281              	.LASF146:
 21282 090a 63685F74 		.ascii	"ch_thread\000"
 21282      68726561 
 21282      6400
 21283              	.LASF446:
 21284 0914 73746D33 		.ascii	"stm32_tim_t\000"
 21284      325F7469 
 21284      6D5F7400 
 21285              	.LASF648:
 21286 0920 65703073 		.ascii	"ep0state\000"
 21286      74617465 
 21286      00
 21287              	.LASF118:
 21288 0929 5F6D6273 		.ascii	"_mbsrtowcs_state\000"
 21288      72746F77 
 21288      63735F73 
 21288      74617465 
 21288      00
 21289              	.LASF821:
 21290 093a 65703073 		.ascii	"ep0setup_buffer\000"
 21290      65747570 
 21290      5F627566 
 21290      66657200 
 21291              	.LASF300:
 21292 094a 41484233 		.ascii	"AHB3LPENR\000"
 21292      4C50454E 
 21292      5200
 21293              	.LASF30:
 21294 0954 5F776473 		.ascii	"_wds\000"
 21294      00
 21295              	.LASF79:
 21296 0959 5F6D6973 		.ascii	"_misc\000"
ARM GAS  /tmp/ccfraM8n.s 			page 383


 21296      6300
 21297              	.LASF123:
 21298 095f 5F5F7366 		.ascii	"__sf_fake_stdin\000"
 21298      5F66616B 
 21298      655F7374 
 21298      64696E00 
 21299              	.LASF53:
 21300 096f 5F73697A 		.ascii	"_size\000"
 21300      6500
 21301              	.LASF406:
 21302 0975 706F6F6C 		.ascii	"pool_header\000"
 21302      5F686561 
 21302      64657200 
 21303              	.LASF180:
 21304 0981 73797374 		.ascii	"system_debug_t\000"
 21304      656D5F64 
 21304      65627567 
 21304      5F7400
 21305              	.LASF438:
 21306 0990 44494552 		.ascii	"DIER\000"
 21306      00
 21307              	.LASF403:
 21308 0995 746F706D 		.ascii	"topmem\000"
 21308      656D00
 21309              	.LASF302:
 21310 099c 41484232 		.ascii	"AHB2LPENR\000"
 21310      4C50454E 
 21310      5200
 21311              	.LASF580:
 21312 09a6 73647374 		.ascii	"sdstate_t\000"
 21312      6174655F 
 21312      7400
 21313              	.LASF175:
 21314 09b0 64656C74 		.ascii	"delta\000"
 21314      6100
 21315              	.LASF605:
 21316 09b6 636C6B66 		.ascii	"clkfreq\000"
 21316      72657100 
 21317              	.LASF84:
 21318 09be 5F777269 		.ascii	"_write\000"
 21318      746500
 21319              	.LASF245:
 21320 09c5 42444D41 		.ascii	"BDMA_Channel_TypeDef\000"
 21320      5F436861 
 21320      6E6E656C 
 21320      5F547970 
 21320      65446566 
 21321              	.LASF832:
 21322 09da 7573625F 		.ascii	"usb_lld_read_setup\000"
 21322      6C6C645F 
 21322      72656164 
 21322      5F736574 
 21322      757000
 21323              	.LASF831:
 21324 09ed 7573625F 		.ascii	"usb_lld_start_out\000"
 21324      6C6C645F 
 21324      73746172 
ARM GAS  /tmp/ccfraM8n.s 			page 384


 21324      745F6F75 
 21324      7400
 21325              	.LASF133:
 21326 09ff 75696E74 		.ascii	"uint64_t\000"
 21326      36345F74 
 21326      00
 21327              	.LASF391:
 21328 0a08 63685F64 		.ascii	"ch_debug\000"
 21328      65627567 
 21328      00
 21329              	.LASF779:
 21330 0a11 7278636E 		.ascii	"rxcnt\000"
 21330      7400
 21331              	.LASF846:
 21332 0a17 6F74675F 		.ascii	"otg_isoc_out_failed_handler\000"
 21332      69736F63 
 21332      5F6F7574 
 21332      5F666169 
 21332      6C65645F 
 21333              	.LASF774:
 21334 0a33 7478636E 		.ascii	"txcnt\000"
 21334      7400
 21335              	.LASF692:
 21336 0a39 75736265 		.ascii	"usbeventcb_t\000"
 21336      76656E74 
 21336      63625F74 
 21336      00
 21337              	.LASF449:
 21338 0a46 424C4B5F 		.ascii	"BLK_ACTIVE\000"
 21338      41435449 
 21338      564500
 21339              	.LASF38:
 21340 0a51 5F5F746D 		.ascii	"__tm_year\000"
 21340      5F796561 
 21340      7200
 21341              	.LASF393:
 21342 0a5b 6576656E 		.ascii	"event_listener_t\000"
 21342      745F6C69 
 21342      7374656E 
 21342      65725F74 
 21342      00
 21343              	.LASF770:
 21344 0a6c 6F74675F 		.ascii	"otg_ram_size\000"
 21344      72616D5F 
 21344      73697A65 
 21344      00
 21345              	.LASF813:
 21346 0a79 46534D43 		.ascii	"FSMCD1\000"
 21346      443100
 21347              	.LASF863:
 21348 0a80 6F74675F 		.ascii	"otg_core_reset\000"
 21348      636F7265 
 21348      5F726573 
 21348      657400
 21349              	.LASF772:
 21350 0a8f 73746D33 		.ascii	"stm32_otg_params_t\000"
 21350      325F6F74 
ARM GAS  /tmp/ccfraM8n.s 			page 385


 21350      675F7061 
 21350      72616D73 
 21350      5F7400
 21351              	.LASF765:
 21352 0aa2 72657376 		.ascii	"resvdD00\000"
 21352      64443030 
 21352      00
 21353              	.LASF780:
 21354 0aab 72786275 		.ascii	"rxbuf\000"
 21354      6600
 21355              	.LASF101:
 21356 0ab1 5F6D756C 		.ascii	"_mult\000"
 21356      7400
 21357              	.LASF370:
 21358 0ab7 63685F6D 		.ascii	"ch_mutex\000"
 21358      75746578 
 21358      00
 21359              	.LASF860:
 21360 0ac0 6669666F 		.ascii	"fifo\000"
 21360      00
 21361              	.LASF281:
 21362 0ac5 41484232 		.ascii	"AHB2RSTR\000"
 21362      52535452 
 21362      00
 21363              	.LASF556:
 21364 0ace 50574D44 		.ascii	"PWMDriver\000"
 21364      72697665 
 21364      7200
 21365              	.LASF571:
 21366 0ad8 50574D43 		.ascii	"PWMConfig\000"
 21366      6F6E6669 
 21366      6700
 21367              	.LASF678:
 21368 0ae2 75736265 		.ascii	"usbep0state_t\000"
 21368      70307374 
 21368      6174655F 
 21368      7400
 21369              	.LASF116:
 21370 0af0 5F6D6272 		.ascii	"_mbrlen_state\000"
 21370      6C656E5F 
 21370      73746174 
 21370      6500
 21371              	.LASF750:
 21372 0afe 44494550 		.ascii	"DIEPMSK\000"
 21372      4D534B00 
 21373              	.LASF793:
 21374 0b06 6576656E 		.ascii	"event_cb\000"
 21374      745F6362 
 21374      00
 21375              	.LASF785:
 21376 0b0f 6F75745F 		.ascii	"out_cb\000"
 21376      636200
 21377              	.LASF741:
 21378 0b16 4841494E 		.ascii	"HAINTMSK\000"
 21378      544D534B 
 21378      00
 21379              	.LASF647:
ARM GAS  /tmp/ccfraM8n.s 			page 386


 21380 0b1f 6F75745F 		.ascii	"out_params\000"
 21380      70617261 
 21380      6D7300
 21381              	.LASF261:
 21382 0b2a 44324346 		.ascii	"D2CFGR\000"
 21382      475200
 21383              	.LASF748:
 21384 0b31 44535453 		.ascii	"DSTS\000"
 21384      00
 21385              	.LASF210:
 21386 0b36 4A535152 		.ascii	"JSQR\000"
 21386      00
 21387              	.LASF824:
 21388 0b3b 7573625F 		.ascii	"usb_lld_clear_in\000"
 21388      6C6C645F 
 21388      636C6561 
 21388      725F696E 
 21388      00
 21389              	.LASF61:
 21390 0b4c 5F737464 		.ascii	"_stdin\000"
 21390      696E00
 21391              	.LASF416:
 21392 0b53 6F626A5F 		.ascii	"obj_list\000"
 21392      6C697374 
 21392      00
 21393              	.LASF570:
 21394 0b5c 64696572 		.ascii	"dier\000"
 21394      00
 21395              	.LASF610:
 21396 0b61 69735F70 		.ascii	"is_protected\000"
 21396      726F7465 
 21396      63746564 
 21396      00
 21397              	.LASF420:
 21398 0b6e 73656D5F 		.ascii	"sem_pool\000"
 21398      706F6F6C 
 21398      00
 21399              	.LASF288:
 21400 0b77 4433414D 		.ascii	"D3AMR\000"
 21400      5200
 21401              	.LASF173:
 21402 0b7d 76697274 		.ascii	"virtual_timer_t\000"
 21402      75616C5F 
 21402      74696D65 
 21402      725F7400 
 21403              	.LASF553:
 21404 0b8d 50574D5F 		.ascii	"PWM_STOP\000"
 21404      53544F50 
 21404      00
 21405              	.LASF428:
 21406 0b96 73686966 		.ascii	"shift\000"
 21406      7400
 21407              	.LASF135:
 21408 0b9c 7274636E 		.ascii	"rtcnt_t\000"
 21408      745F7400 
 21409              	.LASF498:
 21410 0ba4 6D757465 		.ascii	"mutex\000"
ARM GAS  /tmp/ccfraM8n.s 			page 387


 21410      7800
 21411              	.LASF357:
 21412 0baa 73697A65 		.ascii	"size\000"
 21412      00
 21413              	.LASF372:
 21414 0baf 63685F69 		.ascii	"ch_idle_thread_wa\000"
 21414      646C655F 
 21414      74687265 
 21414      61645F77 
 21414      6100
 21415              	.LASF327:
 21416 0bc1 49444D41 		.ascii	"IDMABASE0\000"
 21416      42415345 
 21416      3000
 21417              	.LASF328:
 21418 0bcb 49444D41 		.ascii	"IDMABASE1\000"
 21418      42415345 
 21418      3100
 21419              	.LASF560:
 21420 0bd5 636C6F63 		.ascii	"clock\000"
 21420      6B00
 21421              	.LASF371:
 21422 0bdb 6F776E65 		.ascii	"owner\000"
 21422      7200
 21423              	.LASF445:
 21424 0be1 43435852 		.ascii	"CCXR\000"
 21424      00
 21425              	.LASF541:
 21426 0be6 69326373 		.ascii	"i2cstate_t\000"
 21426      74617465 
 21426      5F7400
 21427              	.LASF337:
 21428 0bf1 55445244 		.ascii	"UDRDR\000"
 21428      5200
 21429              	.LASF17:
 21430 0bf7 5F6F6666 		.ascii	"_off_t\000"
 21430      5F7400
 21431              	.LASF882:
 21432 0bfe 5F757362 		.ascii	"_usb_suspend\000"
 21432      5F737573 
 21432      70656E64 
 21432      00
 21433              	.LASF705:
 21434 0c0b 72657376 		.ascii	"resvd4\000"
 21434      643400
 21435              	.LASF578:
 21436 0c12 53445F53 		.ascii	"SD_STOP\000"
 21436      544F5000 
 21437              	.LASF246:
 21438 0c1a 49464352 		.ascii	"IFCR\000"
 21438      00
 21439              	.LASF696:
 21440 0c1f 72657376 		.ascii	"resvd8\000"
 21440      643800
 21441              	.LASF3:
 21442 0c26 73697A65 		.ascii	"size_t\000"
 21442      5F7400
ARM GAS  /tmp/ccfraM8n.s 			page 388


 21443              	.LASF74:
 21444 0c2d 5F6C6F63 		.ascii	"_localtime_buf\000"
 21444      616C7469 
 21444      6D655F62 
 21444      756600
 21445              	.LASF763:
 21446 0c3c 72657376 		.ascii	"resvd880\000"
 21446      64383830 
 21446      00
 21447              	.LASF812:
 21448 0c45 66736D63 		.ascii	"fsmcstate_t\000"
 21448      73746174 
 21448      655F7400 
 21449              	.LASF21:
 21450 0c51 5F5F636F 		.ascii	"__count\000"
 21450      756E7400 
 21451              	.LASF373:
 21452 0c59 6964656E 		.ascii	"identifier\000"
 21452      74696669 
 21452      657200
 21453              	.LASF129:
 21454 0c64 75696E74 		.ascii	"uint8_t\000"
 21454      385F7400 
 21455              	.LASF500:
 21456 0c6c 61646363 		.ascii	"adcc\000"
 21456      00
 21457              	.LASF701:
 21458 0c71 72657376 		.ascii	"resvd18\000"
 21458      64313800 
 21459              	.LASF499:
 21460 0c79 6164636D 		.ascii	"adcm\000"
 21460      00
 21461              	.LASF710:
 21462 0c7e 72657376 		.ascii	"resvd1C\000"
 21462      64314300 
 21463              	.LASF568:
 21464 0c86 50574D43 		.ascii	"PWMChannelConfig\000"
 21464      68616E6E 
 21464      656C436F 
 21464      6E666967 
 21464      00
 21465              	.LASF565:
 21466 0c97 70776D63 		.ascii	"pwmcnt_t\000"
 21466      6E745F74 
 21466      00
 21467              	.LASF407:
 21468 0ca0 6F626A65 		.ascii	"object_size\000"
 21468      63745F73 
 21468      697A6500 
 21469              	.LASF759:
 21470 0cac 44494550 		.ascii	"DIEPEMPMSK\000"
 21470      454D504D 
 21470      534B00
 21471              	.LASF674:
 21472 0cb7 5553425F 		.ascii	"USB_EP0_IN_SENDING_STS\000"
 21472      4550305F 
 21472      494E5F53 
ARM GAS  /tmp/ccfraM8n.s 			page 389


 21472      454E4449 
 21472      4E475F53 
 21473              	.LASF668:
 21474 0cce 45505F53 		.ascii	"EP_STATUS_STALLED\000"
 21474      54415455 
 21474      535F5354 
 21474      414C4C45 
 21474      4400
 21475              	.LASF704:
 21476 0ce0 44494550 		.ascii	"DIEPCTL\000"
 21476      43544C00 
 21477              	.LASF657:
 21478 0ce8 6F746770 		.ascii	"otgparams\000"
 21478      6172616D 
 21478      7300
 21479              	.LASF363:
 21480 0cf2 65786974 		.ascii	"exitcode\000"
 21480      636F6465 
 21480      00
 21481              	.LASF889:
 21482 0cfb 2E2E2F2E 		.ascii	"../../../external/ChibiOS/os/hal/ports/STM32/LLD/OT"
 21482      2E2F2E2E 
 21482      2F657874 
 21482      65726E61 
 21482      6C2F4368 
 21483 0d2e 4776312F 		.ascii	"Gv1/hal_usb_lld.c\000"
 21483      68616C5F 
 21483      7573625F 
 21483      6C6C642E 
 21483      6300
 21484              	.LASF855:
 21485 0d40 6F74675F 		.ascii	"otg_txfifo_handler\000"
 21485      74786669 
 21485      666F5F68 
 21485      616E646C 
 21485      657200
 21486              	.LASF72:
 21487 0d53 5F637674 		.ascii	"_cvtbuf\000"
 21487      62756600 
 21488              	.LASF789:
 21489 0d5b 6F75745F 		.ascii	"out_state\000"
 21489      73746174 
 21489      6500
 21490              	.LASF460:
 21491 0d65 696F5F71 		.ascii	"io_queue_t\000"
 21491      75657565 
 21491      5F7400
 21492              	.LASF842:
 21493 0d70 7573625F 		.ascii	"usb_lld_start\000"
 21493      6C6C645F 
 21493      73746172 
 21493      7400
 21494              	.LASF422:
 21495 0d7e 6669666F 		.ascii	"fifo_list\000"
 21495      5F6C6973 
 21495      7400
 21496              	.LASF536:
ARM GAS  /tmp/ccfraM8n.s 			page 390


 21497 0d88 4932435F 		.ascii	"I2C_STOP\000"
 21497      53544F50 
 21497      00
 21498              	.LASF259:
 21499 0d91 43534943 		.ascii	"CSICFGR\000"
 21499      46475200 
 21500              	.LASF525:
 21501 0d99 4144435F 		.ascii	"ADC_ERR_DMAFAILURE\000"
 21501      4552525F 
 21501      444D4146 
 21501      41494C55 
 21501      524500
 21502              	.LASF619:
 21503 0dac 5350495F 		.ascii	"SPI_ACTIVE\000"
 21503      41435449 
 21503      564500
 21504              	.LASF466:
 21505 0db7 715F7772 		.ascii	"q_wrptr\000"
 21505      70747200 
 21506              	.LASF395:
 21507 0dbf 6C697374 		.ascii	"listener\000"
 21507      656E6572 
 21507      00
 21508              	.LASF805:
 21509 0dc8 53445352 		.ascii	"SDSR\000"
 21509      00
 21510              	.LASF340:
 21511 0dcd 47545052 		.ascii	"GTPR\000"
 21511      00
 21512              	.LASF476:
 21513 0dd2 4F535045 		.ascii	"OSPEEDR\000"
 21513      45445200 
 21514              	.LASF728:
 21515 0dda 72657376 		.ascii	"resvd30\000"
 21515      64333000 
 21516              	.LASF20:
 21517 0de2 5F5F7763 		.ascii	"__wchb\000"
 21517      686200
 21518              	.LASF117:
 21519 0de9 5F6D6272 		.ascii	"_mbrtowc_state\000"
 21519      746F7763 
 21519      5F737461 
 21519      746500
 21520              	.LASF757:
 21521 0df8 44564255 		.ascii	"DVBUSPULSE\000"
 21521      5350554C 
 21521      534500
 21522              	.LASF856:
 21523 0e03 6F74675F 		.ascii	"otg_ram_alloc\000"
 21523      72616D5F 
 21523      616C6C6F 
 21523      6300
 21524              	.LASF35:
 21525 0e11 5F5F746D 		.ascii	"__tm_hour\000"
 21525      5F686F75 
 21525      7200
 21526              	.LASF200:
ARM GAS  /tmp/ccfraM8n.s 			page 391


 21527 0e1b 4C545231 		.ascii	"LTR1\000"
 21527      00
 21528              	.LASF226:
 21529 0e20 4C545232 		.ascii	"LTR2\000"
 21529      00
 21530              	.LASF228:
 21531 0e25 4C545233 		.ascii	"LTR3\000"
 21531      00
 21532              	.LASF587:
 21533 0e2a 53657269 		.ascii	"SerialDriverVMT\000"
 21533      616C4472 
 21533      69766572 
 21533      564D5400 
 21534              	.LASF242:
 21535 0e3a 43504152 		.ascii	"CPAR\000"
 21535      00
 21536              	.LASF376:
 21537 0e3f 70747273 		.ascii	"ptrsize\000"
 21537      697A6500 
 21538              	.LASF677:
 21539 0e47 5553425F 		.ascii	"USB_EP0_ERROR\000"
 21539      4550305F 
 21539      4552524F 
 21539      5200
 21540              	.LASF676:
 21541 0e55 5553425F 		.ascii	"USB_EP0_OUT_RX\000"
 21541      4550305F 
 21541      4F55545F 
 21541      525800
 21542              	.LASF4:
 21543 0e64 77696E74 		.ascii	"wint_t\000"
 21543      5F7400
 21544              	.LASF611:
 21545 0e6b 636F6E6E 		.ascii	"connect\000"
 21545      65637400 
 21546              	.LASF491:
 21547 0e73 41444344 		.ascii	"ADCDriver\000"
 21547      72697665 
 21547      7200
 21548              	.LASF771:
 21549 0e7d 6E756D5F 		.ascii	"num_endpoints\000"
 21549      656E6470 
 21549      6F696E74 
 21549      7300
 21550              	.LASF503:
 21551 0e8b 41444343 		.ascii	"ADCConfig\000"
 21551      6F6E6669 
 21551      6700
 21552              	.LASF776:
 21553 0e95 746F7473 		.ascii	"totsize\000"
 21553      697A6500 
 21554              	.LASF97:
 21555 0e9d 5F6E696F 		.ascii	"_niobs\000"
 21555      627300
 21556              	.LASF326:
 21557 0ea4 49444D41 		.ascii	"IDMABSIZE\000"
 21557      4253495A 
ARM GAS  /tmp/ccfraM8n.s 			page 392


 21557      4500
 21558              	.LASF636:
 21559 0eae 54524E47 		.ascii	"TRNG_RUNNING\000"
 21559      5F52554E 
 21559      4E494E47 
 21559      00
 21560              	.LASF694:
 21561 0ebb 75736267 		.ascii	"usbgetdescriptor_t\000"
 21561      65746465 
 21561      73637269 
 21561      70746F72 
 21561      5F7400
 21562              	.LASF60:
 21563 0ece 5F657272 		.ascii	"_errno\000"
 21563      6E6F00
 21564              	.LASF199:
 21565 0ed5 50435345 		.ascii	"PCSEL\000"
 21565      4C00
 21566              	.LASF404:
 21567 0edb 6D656D63 		.ascii	"memcore_t\000"
 21567      6F72655F 
 21567      7400
 21568              	.LASF36:
 21569 0ee5 5F5F746D 		.ascii	"__tm_mday\000"
 21569      5F6D6461 
 21569      7900
 21570              	.LASF427:
 21571 0eef 69666372 		.ascii	"ifcr\000"
 21571      00
 21572              	.LASF787:
 21573 0ef4 6F75745F 		.ascii	"out_maxsize\000"
 21573      6D617873 
 21573      697A6500 
 21574              	.LASF255:
 21575 0f00 54584452 		.ascii	"TXDR\000"
 21575      00
 21576              	.LASF482:
 21577 0f05 73746D33 		.ascii	"stm32_gpio_t\000"
 21577      325F6770 
 21577      696F5F74 
 21577      00
 21578              	.LASF362:
 21579 0f12 7264796D 		.ascii	"rdymsg\000"
 21579      736700
 21580              	.LASF43:
 21581 0f19 5F666E61 		.ascii	"_fnargs\000"
 21581      72677300 
 21582              	.LASF554:
 21583 0f21 50574D5F 		.ascii	"PWM_READY\000"
 21583      52454144 
 21583      5900
 21584              	.LASF453:
 21585 0f2b 424C4B5F 		.ascii	"BLK_READING\000"
 21585      52454144 
 21585      494E4700 
 21586              	.LASF887:
 21587 0f37 5F706F72 		.ascii	"_port_irq_epilogue\000"
ARM GAS  /tmp/ccfraM8n.s 			page 393


 21587      745F6972 
 21587      715F6570 
 21587      696C6F67 
 21587      756500
 21588              	.LASF510:
 21589 0f4a 6E756D5F 		.ascii	"num_channels\000"
 21589      6368616E 
 21589      6E656C73 
 21589      00
 21590              	.LASF423:
 21591 0f57 70697065 		.ascii	"pipe_list\000"
 21591      5F6C6973 
 21591      7400
 21592              	.LASF777:
 21593 0f61 55534249 		.ascii	"USBInEndpointState\000"
 21593      6E456E64 
 21593      706F696E 
 21593      74537461 
 21593      746500
 21594              	.LASF584:
 21595 0f74 6F717565 		.ascii	"oqueue\000"
 21595      756500
 21596              	.LASF811:
 21597 0f7b 46534D43 		.ascii	"FSMC_READY\000"
 21597      5F524541 
 21597      445900
 21598              	.LASF461:
 21599 0f86 696F5F71 		.ascii	"io_queue\000"
 21599      75657565 
 21599      00
 21600              	.LASF15:
 21601 0f8f 5F5F7569 		.ascii	"__uint64_t\000"
 21601      6E743634 
 21601      5F7400
 21602              	.LASF379:
 21603 0f9a 6F66665F 		.ascii	"off_prio\000"
 21603      7072696F 
 21603      00
 21604              	.LASF827:
 21605 0fa3 7573625F 		.ascii	"usb_lld_stall_in\000"
 21605      6C6C645F 
 21605      7374616C 
 21605      6C5F696E 
 21605      00
 21606              	.LASF414:
 21607 0fb4 64796E5F 		.ascii	"dyn_list_t\000"
 21607      6C697374 
 21607      5F7400
 21608              	.LASF27:
 21609 0fbf 5F6E6578 		.ascii	"_next\000"
 21609      7400
 21610              	.LASF561:
 21611 0fc5 70776D63 		.ascii	"pwmcallback_t\000"
 21611      616C6C62 
 21611      61636B5F 
 21611      7400
 21612              	.LASF227:
ARM GAS  /tmp/ccfraM8n.s 			page 394


 21613 0fd3 48545232 		.ascii	"HTR2\000"
 21613      00
 21614              	.LASF507:
 21615 0fd8 41444343 		.ascii	"ADCConversionGroup\000"
 21615      6F6E7665 
 21615      7273696F 
 21615      6E47726F 
 21615      757000
 21616              	.LASF247:
 21617 0feb 42444D41 		.ascii	"BDMA_TypeDef\000"
 21617      5F547970 
 21617      65446566 
 21617      00
 21618              	.LASF80:
 21619 0ff8 5F736967 		.ascii	"_signal_buf\000"
 21619      6E616C5F 
 21619      62756600 
 21620              	.LASF241:
 21621 1004 434E4454 		.ascii	"CNDTR\000"
 21621      5200
 21622              	.LASF82:
 21623 100a 5F636F6F 		.ascii	"_cookie\000"
 21623      6B696500 
 21624              	.LASF516:
 21625 1012 6C747231 		.ascii	"ltr1\000"
 21625      00
 21626              	.LASF518:
 21627 1017 6C747232 		.ascii	"ltr2\000"
 21627      00
 21628              	.LASF520:
 21629 101c 6C747233 		.ascii	"ltr3\000"
 21629      00
 21630              	.LASF258:
 21631 1021 43525243 		.ascii	"CRRCR\000"
 21631      5200
 21632              	.LASF523:
 21633 1027 61646373 		.ascii	"adcsample_t\000"
 21633      616D706C 
 21633      655F7400 
 21634              	.LASF601:
 21635 1033 53444344 		.ascii	"SDCDriver\000"
 21635      72697665 
 21635      7200
 21636              	.LASF257:
 21637 103d 48534943 		.ascii	"HSICFGR\000"
 21637      46475200 
 21638              	.LASF286:
 21639 1045 41504232 		.ascii	"APB2RSTR\000"
 21639      52535452 
 21639      00
 21640              	.LASF607:
 21641 104e 53444343 		.ascii	"SDCConfig\000"
 21641      6F6E6669 
 21641      6700
 21642              	.LASF551:
 21643 1058 49324344 		.ascii	"I2CD1\000"
 21643      3100
ARM GAS  /tmp/ccfraM8n.s 			page 395


 21644              	.LASF347:
 21645 105e 706F7274 		.ascii	"port_context\000"
 21645      5F636F6E 
 21645      74657874 
 21645      00
 21646              	.LASF254:
 21647 106b 52584452 		.ascii	"RXDR\000"
 21647      00
 21648              	.LASF643:
 21649 1070 55534244 		.ascii	"USBDriver\000"
 21649      72697665 
 21649      7200
 21650              	.LASF764:
 21651 107a 72657376 		.ascii	"resvd8C0\000"
 21651      64384330 
 21651      00
 21652              	.LASF797:
 21653 1083 55534243 		.ascii	"USBConfig\000"
 21653      6F6E6669 
 21653      6700
 21654              	.LASF707:
 21655 108d 72657376 		.ascii	"resvdC\000"
 21655      644300
 21656              	.LASF572:
 21657 1094 50574D44 		.ascii	"PWMD1\000"
 21657      3100
 21658              	.LASF434:
 21659 109a 6368616E 		.ascii	"channel\000"
 21659      6E656C00 
 21660              	.LASF574:
 21661 10a2 50574D44 		.ascii	"PWMD4\000"
 21661      3400
 21662              	.LASF575:
 21663 10a8 50574D44 		.ascii	"PWMD5\000"
 21663      3500
 21664              	.LASF335:
 21665 10ae 54584352 		.ascii	"TXCRC\000"
 21665      4300
 21666              	.LASF576:
 21667 10b4 50574D44 		.ascii	"PWMD8\000"
 21667      3800
 21668              	.LASF464:
 21669 10ba 715F6275 		.ascii	"q_buffer\000"
 21669      66666572 
 21669      00
 21670              	.LASF433:
 21671 10c3 62646D61 		.ascii	"bdma\000"
 21671      00
 21672              	.LASF201:
 21673 10c8 48545231 		.ascii	"HTR1\000"
 21673      00
 21674              	.LASF138:
 21675 10cd 74726566 		.ascii	"trefs_t\000"
 21675      735F7400 
 21676              	.LASF229:
 21677 10d5 48545233 		.ascii	"HTR3\000"
 21677      00
ARM GAS  /tmp/ccfraM8n.s 			page 396


 21678              	.LASF256:
 21679 10da 4932435F 		.ascii	"I2C_TypeDef\000"
 21679      54797065 
 21679      44656600 
 21680              	.LASF859:
 21681 10e6 6F74675F 		.ascii	"otg_txfifo_flush\000"
 21681      74786669 
 21681      666F5F66 
 21681      6C757368 
 21681      00
 21682              	.LASF270:
 21683 10f7 504C4C33 		.ascii	"PLL3FRACR\000"
 21683      46524143 
 21683      5200
 21684              	.LASF33:
 21685 1101 5F5F746D 		.ascii	"__tm_sec\000"
 21685      5F736563 
 21685      00
 21686              	.LASF790:
 21687 110a 696E5F6D 		.ascii	"in_multiplier\000"
 21687      756C7469 
 21687      706C6965 
 21687      7200
 21688              	.LASF489:
 21689 1118 4144435F 		.ascii	"ADC_ERROR\000"
 21689      4552524F 
 21689      5200
 21690              	.LASF42:
 21691 1122 5F6F6E5F 		.ascii	"_on_exit_args\000"
 21691      65786974 
 21691      5F617267 
 21691      7300
 21692              	.LASF817:
 21693 1130 73647261 		.ascii	"sdramstate_t\000"
 21693      6D737461 
 21693      74655F74 
 21693      00
 21694              	.LASF136:
 21695 113d 746D6F64 		.ascii	"tmode_t\000"
 21695      655F7400 
 21696              	.LASF290:
 21697 1145 41484233 		.ascii	"AHB3ENR\000"
 21697      454E5200 
 21698              	.LASF487:
 21699 114d 4144435F 		.ascii	"ADC_ACTIVE\000"
 21699      41435449 
 21699      564500
 21700              	.LASF204:
 21701 1158 53515231 		.ascii	"SQR1\000"
 21701      00
 21702              	.LASF205:
 21703 115d 53515232 		.ascii	"SQR2\000"
 21703      00
 21704              	.LASF206:
 21705 1162 53515233 		.ascii	"SQR3\000"
 21705      00
 21706              	.LASF207:
ARM GAS  /tmp/ccfraM8n.s 			page 397


 21707 1167 53515234 		.ascii	"SQR4\000"
 21707      00
 21708              	.LASF478:
 21709 116c 42535252 		.ascii	"BSRR\000"
 21709      00
 21710              	.LASF431:
 21711 1171 73746D33 		.ascii	"stm32_dma_stream_t\000"
 21711      325F646D 
 21711      615F7374 
 21711      7265616D 
 21711      5F7400
 21712              	.LASF268:
 21713 1184 504C4C32 		.ascii	"PLL2FRACR\000"
 21713      46524143 
 21713      5200
 21714              	.LASF119:
 21715 118e 5F776372 		.ascii	"_wcrtomb_state\000"
 21715      746F6D62 
 21715      5F737461 
 21715      746500
 21716              	.LASF597:
 21717 119d 5344435F 		.ascii	"SDC_MODE_8BIT\000"
 21717      4D4F4445 
 21717      5F384249 
 21717      5400
 21718              	.LASF212:
 21719 11ab 4F465231 		.ascii	"OFR1\000"
 21719      00
 21720              	.LASF213:
 21721 11b0 4F465232 		.ascii	"OFR2\000"
 21721      00
 21722              	.LASF214:
 21723 11b5 4F465233 		.ascii	"OFR3\000"
 21723      00
 21724              	.LASF215:
 21725 11ba 4F465234 		.ascii	"OFR4\000"
 21725      00
 21726              	.LASF773:
 21727 11bf 74787369 		.ascii	"txsize\000"
 21727      7A6500
 21728              	.LASF289:
 21729 11c6 52455345 		.ascii	"RESERVED11\000"
 21729      52564544 
 21729      313100
 21730              	.LASF299:
 21731 11d1 52455345 		.ascii	"RESERVED12\000"
 21731      52564544 
 21731      313200
 21732              	.LASF309:
 21733 11dc 52455345 		.ascii	"RESERVED13\000"
 21733      52564544 
 21733      313300
 21734              	.LASF799:
 21735 11e7 53444352 		.ascii	"SDCR1\000"
 21735      3100
 21736              	.LASF800:
 21737 11ed 53444352 		.ascii	"SDCR2\000"
ARM GAS  /tmp/ccfraM8n.s 			page 398


 21737      3200
 21738              	.LASF508:
 21739 11f3 68616C5F 		.ascii	"hal_adc_configuration_group\000"
 21739      6164635F 
 21739      636F6E66 
 21739      69677572 
 21739      6174696F 
 21740              	.LASF557:
 21741 120f 70657269 		.ascii	"period\000"
 21741      6F6400
 21742              	.LASF839:
 21743 1216 7573625F 		.ascii	"usb_lld_set_address\000"
 21743      6C6C645F 
 21743      7365745F 
 21743      61646472 
 21743      65737300 
 21744              	.LASF515:
 21745 122a 70637365 		.ascii	"pcsel\000"
 21745      6C00
 21746              	.LASF540:
 21747 1230 4932435F 		.ascii	"I2C_LOCKED\000"
 21747      4C4F434B 
 21747      454400
 21748              	.LASF266:
 21749 123b 504C4C31 		.ascii	"PLL1FRACR\000"
 21749      46524143 
 21749      5200
 21750              	.LASF479:
 21751 1245 4C4F434B 		.ascii	"LOCKR\000"
 21751      5200
 21752              	.LASF662:
 21753 124b 5553425F 		.ascii	"USB_READY\000"
 21753      52454144 
 21753      5900
 21754              	.LASF594:
 21755 1255 72656164 		.ascii	"readt\000"
 21755      7400
 21756              	.LASF151:
 21757 125b 6E616D65 		.ascii	"name\000"
 21757      00
 21758              	.LASF235:
 21759 1260 43445232 		.ascii	"CDR2\000"
 21759      00
 21760              	.LASF24:
 21761 1265 5F5F554C 		.ascii	"__ULong\000"
 21761      6F6E6700 
 21762              	.LASF182:
 21763 126d 70616E69 		.ascii	"panic_msg\000"
 21763      635F6D73 
 21763      6700
 21764              	.LASF620:
 21765 1277 5350495F 		.ascii	"SPI_COMPLETE\000"
 21765      434F4D50 
 21765      4C455445 
 21765      00
 21766              	.LASF318:
 21767 1284 4454494D 		.ascii	"DTIMER\000"
ARM GAS  /tmp/ccfraM8n.s 			page 399


 21767      455200
 21768              	.LASF685:
 21769 128b 5553425F 		.ascii	"USB_EVENT_STALLED\000"
 21769      4556454E 
 21769      545F5354 
 21769      414C4C45 
 21769      4400
 21770              	.LASF291:
 21771 129d 41484231 		.ascii	"AHB1ENR\000"
 21771      454E5200 
 21772              	.LASF390:
 21773 12a5 63686465 		.ascii	"chdebug_t\000"
 21773      6275675F 
 21773      7400
 21774              	.LASF872:
 21775 12af 706F7274 		.ascii	"port_lock_from_isr\000"
 21775      5F6C6F63 
 21775      6B5F6672 
 21775      6F6D5F69 
 21775      737200
 21776              	.LASF778:
 21777 12c2 72787369 		.ascii	"rxsize\000"
 21777      7A6500
 21778              	.LASF517:
 21779 12c9 68747231 		.ascii	"htr1\000"
 21779      00
 21780              	.LASF519:
 21781 12ce 68747232 		.ascii	"htr2\000"
 21781      00
 21782              	.LASF521:
 21783 12d3 68747233 		.ascii	"htr3\000"
 21783      00
 21784              	.LASF332:
 21785 12d8 43464731 		.ascii	"CFG1\000"
 21785      00
 21786              	.LASF333:
 21787 12dd 43464732 		.ascii	"CFG2\000"
 21787      00
 21788              	.LASF681:
 21789 12e2 5553425F 		.ascii	"USB_EVENT_CONFIGURED\000"
 21789      4556454E 
 21789      545F434F 
 21789      4E464947 
 21789      55524544 
 21790              	.LASF612:
 21791 12f7 64697363 		.ascii	"disconnect\000"
 21791      6F6E6E65 
 21791      637400
 21792              	.LASF342:
 21793 1302 50524553 		.ascii	"PRESC\000"
 21793      4300
 21794              	.LASF591:
 21795 1308 70757474 		.ascii	"putt\000"
 21795      00
 21796              	.LASF110:
 21797 130d 5F737472 		.ascii	"_strtok_last\000"
 21797      746F6B5F 
ARM GAS  /tmp/ccfraM8n.s 			page 400


 21797      6C617374 
 21797      00
 21798              	.LASF306:
 21799 131a 41504231 		.ascii	"APB1HLPENR\000"
 21799      484C5045 
 21799      4E5200
 21800              	.LASF699:
 21801 1325 48435453 		.ascii	"HCTSIZ\000"
 21801      495A00
 21802              	.LASF840:
 21803 132c 7573625F 		.ascii	"usb_lld_reset\000"
 21803      6C6C645F 
 21803      72657365 
 21803      7400
 21804              	.LASF195:
 21805 133a 43464752 		.ascii	"CFGR\000"
 21805      00
 21806              	.LASF573:
 21807 133f 50574D44 		.ascii	"PWMD3\000"
 21807      3300
 21808              	.LASF399:
 21809 1345 6576656E 		.ascii	"event_source_t\000"
 21809      745F736F 
 21809      75726365 
 21809      5F7400
 21810              	.LASF734:
 21811 1354 72657376 		.ascii	"resvd140\000"
 21811      64313430 
 21811      00
 21812              	.LASF833:
 21813 135d 7573625F 		.ascii	"usb_lld_get_status_in\000"
 21813      6C6C645F 
 21813      6765745F 
 21813      73746174 
 21813      75735F69 
 21814              	.LASF100:
 21815 1373 5F736565 		.ascii	"_seed\000"
 21815      6400
 21816              	.LASF85:
 21817 1379 5F736565 		.ascii	"_seek\000"
 21817      6B00
 21818              	.LASF683:
 21819 137f 5553425F 		.ascii	"USB_EVENT_SUSPEND\000"
 21819      4556454E 
 21819      545F5355 
 21819      5350454E 
 21819      4400
 21820              	.LASF527:
 21821 1391 4144435F 		.ascii	"ADC_ERR_AWD1\000"
 21821      4552525F 
 21821      41574431 
 21821      00
 21822              	.LASF528:
 21823 139e 4144435F 		.ascii	"ADC_ERR_AWD2\000"
 21823      4552525F 
 21823      41574432 
 21823      00
ARM GAS  /tmp/ccfraM8n.s 			page 401


 21824              	.LASF529:
 21825 13ab 4144435F 		.ascii	"ADC_ERR_AWD3\000"
 21825      4552525F 
 21825      41574433 
 21825      00
 21826              	.LASF232:
 21827 13b8 43414C46 		.ascii	"CALFACT2\000"
 21827      41435432 
 21827      00
 21828              	.LASF265:
 21829 13c1 504C4C31 		.ascii	"PLL1DIVR\000"
 21829      44495652 
 21829      00
 21830              	.LASF233:
 21831 13ca 4144435F 		.ascii	"ADC_TypeDef\000"
 21831      54797065 
 21831      44656600 
 21832              	.LASF712:
 21833 13d6 444F4550 		.ascii	"DOEPCTL\000"
 21833      43544C00 
 21834              	.LASF10:
 21835 13de 73686F72 		.ascii	"short unsigned int\000"
 21835      7420756E 
 21835      7369676E 
 21835      65642069 
 21835      6E7400
 21836              	.LASF5:
 21837 13f1 7369676E 		.ascii	"signed char\000"
 21837      65642063 
 21837      68617200 
 21838              	.LASF603:
 21839 13fd 63617264 		.ascii	"cardmode\000"
 21839      6D6F6465 
 21839      00
 21840              	.LASF144:
 21841 1406 75636E74 		.ascii	"ucnt_t\000"
 21841      5F7400
 21842              	.LASF837:
 21843 140d 6673697A 		.ascii	"fsize\000"
 21843      6500
 21844              	.LASF485:
 21845 1413 4144435F 		.ascii	"ADC_STOP\000"
 21845      53544F50 
 21845      00
 21846              	.LASF809:
 21847 141c 46534D43 		.ascii	"FSMC_UNINIT\000"
 21847      5F554E49 
 21847      4E495400 
 21848              	.LASF171:
 21849 1428 63757272 		.ascii	"current\000"
 21849      656E7400 
 21850              	.LASF810:
 21851 1430 46534D43 		.ascii	"FSMC_STOP\000"
 21851      5F53544F 
 21851      5000
 21852              	.LASF562:
 21853 143a 70776D6D 		.ascii	"pwmmode_t\000"
ARM GAS  /tmp/ccfraM8n.s 			page 402


 21853      6F64655F 
 21853      7400
 21854              	.LASF653:
 21855 1444 73746174 		.ascii	"status\000"
 21855      757300
 21856              	.LASF389:
 21857 144b 6F66665F 		.ascii	"off_time\000"
 21857      74696D65 
 21857      00
 21858              	.LASF319:
 21859 1454 444C454E 		.ascii	"DLEN\000"
 21859      00
 21860              	.LASF596:
 21861 1459 5344435F 		.ascii	"SDC_MODE_4BIT\000"
 21861      4D4F4445 
 21861      5F344249 
 21861      5400
 21862              	.LASF380:
 21863 1467 6F66665F 		.ascii	"off_ctx\000"
 21863      63747800 
 21864              	.LASF803:
 21865 146f 5344434D 		.ascii	"SDCMR\000"
 21865      5200
 21866              	.LASF853:
 21867 1475 6669666F 		.ascii	"fifop\000"
 21867      7000
 21868              	.LASF179:
 21869 147b 6C617374 		.ascii	"lasttime\000"
 21869      74696D65 
 21869      00
 21870              	.LASF108:
 21871 1484 5F667265 		.ascii	"_freelist\000"
 21871      656C6973 
 21871      7400
 21872              	.LASF654:
 21873 148e 61646472 		.ascii	"address\000"
 21873      65737300 
 21874              	.LASF522:
 21875 1496 736D7072 		.ascii	"smpr\000"
 21875      00
 21876              	.LASF157:
 21877 149b 6D736771 		.ascii	"msgqueue\000"
 21877      75657565 
 21877      00
 21878              	.LASF387:
 21879 14a4 6F66665F 		.ascii	"off_refs\000"
 21879      72656673 
 21879      00
 21880              	.LASF90:
 21881 14ad 5F6F6666 		.ascii	"_offset\000"
 21881      73657400 
 21882              	.LASF628:
 21883 14b5 63666731 		.ascii	"cfg1\000"
 21883      00
 21884              	.LASF192:
 21885 14ba 53797374 		.ascii	"SystemCoreClock\000"
 21885      656D436F 
ARM GAS  /tmp/ccfraM8n.s 			page 403


 21885      7265436C 
 21885      6F636B00 
 21886              	.LASF534:
 21887 14ca 61646365 		.ascii	"adcerrorcallback_t\000"
 21887      72726F72 
 21887      63616C6C 
 21887      6261636B 
 21887      5F7400
 21888              	.LASF880:
 21889 14dd 7573624F 		.ascii	"usbObjectInit\000"
 21889      626A6563 
 21889      74496E69 
 21889      7400
 21890              	.LASF153:
 21891 14eb 73746174 		.ascii	"state\000"
 21891      6500
 21892              	.LASF51:
 21893 14f1 5F5F7362 		.ascii	"__sbuf\000"
 21893      756600
 21894              	.LASF847:
 21895 14f8 6F74675F 		.ascii	"otg_isoc_in_failed_handler\000"
 21895      69736F63 
 21895      5F696E5F 
 21895      6661696C 
 21895      65645F68 
 21896              	.LASF114:
 21897 1513 5F6C3634 		.ascii	"_l64a_buf\000"
 21897      615F6275 
 21897      6600
 21898              	.LASF843:
 21899 151d 7573625F 		.ascii	"usb_lld_init\000"
 21899      6C6C645F 
 21899      696E6974 
 21899      00
 21900              	.LASF102:
 21901 152a 5F616464 		.ascii	"_add\000"
 21901      00
 21902              	.LASF513:
 21903 152f 63666772 		.ascii	"cfgr\000"
 21903      00
 21904              	.LASF443:
 21905 1534 444D4152 		.ascii	"DMAR\000"
 21905      00
 21906              	.LASF567:
 21907 1539 63616C6C 		.ascii	"callback\000"
 21907      6261636B 
 21907      00
 21908              	.LASF185:
 21909 1542 63685F73 		.ascii	"ch_system\000"
 21909      79737465 
 21909      6D00
 21910              	.LASF311:
 21911 154c 504F5745 		.ascii	"POWER\000"
 21911      5200
 21912              	.LASF152:
 21913 1552 77616261 		.ascii	"wabase\000"
 21913      736500
ARM GAS  /tmp/ccfraM8n.s 			page 404


 21914              	.LASF75:
 21915 1559 5F617363 		.ascii	"_asctime_buf\000"
 21915      74696D65 
 21915      5F627566 
 21915      00
 21916              	.LASF176:
 21917 1566 66756E63 		.ascii	"func\000"
 21917      00
 21918              	.LASF845:
 21919 156b 7573625F 		.ascii	"usb_lld_serve_interrupt\000"
 21919      6C6C645F 
 21919      73657276 
 21919      655F696E 
 21919      74657272 
 21920              	.LASF19:
 21921 1583 5F5F7763 		.ascii	"__wch\000"
 21921      6800
 21922              	.LASF350:
 21923 1589 68616C74 		.ascii	"halt\000"
 21923      00
 21924              	.LASF369:
 21925 158e 63685F73 		.ascii	"ch_semaphore\000"
 21925      656D6170 
 21925      686F7265 
 21925      00
 21926              	.LASF120:
 21927 159b 5F776373 		.ascii	"_wcsrtombs_state\000"
 21927      72746F6D 
 21927      62735F73 
 21927      74617465 
 21927      00
 21928              	.LASF447:
 21929 15ac 424C4B5F 		.ascii	"BLK_UNINIT\000"
 21929      554E494E 
 21929      495400
 21930              	.LASF386:
 21931 15b7 6F66665F 		.ascii	"off_flags\000"
 21931      666C6167 
 21931      7300
 21932              	.LASF412:
 21933 15c1 64796E5F 		.ascii	"dyn_element_t\000"
 21933      656C656D 
 21933      656E745F 
 21933      7400
 21934              	.LASF708:
 21935 15cf 44494550 		.ascii	"DIEPTSIZ\000"
 21935      5453495A 
 21935      00
 21936              	.LASF807:
 21937 15d8 46534D43 		.ascii	"FSMCDriver\000"
 21937      44726976 
 21937      657200
 21938              	.LASF161:
 21939 15e3 6D706F6F 		.ascii	"mpool\000"
 21939      6C00
 21940              	.LASF873:
 21941 15e9 706F7274 		.ascii	"port_unlock\000"
ARM GAS  /tmp/ccfraM8n.s 			page 405


 21941      5F756E6C 
 21941      6F636B00 
 21942              	.LASF815:
 21943 15f5 53445241 		.ascii	"SDRAM_STOP\000"
 21943      4D5F5354 
 21943      4F5000
 21944              	.LASF166:
 21945 1600 74687265 		.ascii	"threads_queue_t\000"
 21945      6164735F 
 21945      71756575 
 21945      655F7400 
 21946              	.LASF456:
 21947 1610 626C6B73 		.ascii	"blkstate_t\000"
 21947      74617465 
 21947      5F7400
 21948              	.LASF354:
 21949 161b 74696D65 		.ascii	"time\000"
 21949      00
 21950              	.LASF344:
 21951 1620 524E475F 		.ascii	"RNG_TypeDef\000"
 21951      54797065 
 21951      44656600 
 21952              	.LASF343:
 21953 162c 55534152 		.ascii	"USART_TypeDef\000"
 21953      545F5479 
 21953      70654465 
 21953      6600
 21954              	.LASF782:
 21955 163a 65705F6D 		.ascii	"ep_mode\000"
 21955      6F646500 
 21956              	.LASF563:
 21957 1642 70776D63 		.ascii	"pwmchannel_t\000"
 21957      68616E6E 
 21957      656C5F74 
 21957      00
 21958              	.LASF12:
 21959 164f 6C6F6E67 		.ascii	"long int\000"
 21959      20696E74 
 21959      00
 21960              	.LASF188:
 21961 1658 6D61696E 		.ascii	"mainthread\000"
 21961      74687265 
 21961      616400
 21962              	.LASF236:
 21963 1663 4144435F 		.ascii	"ADC_Common_TypeDef\000"
 21963      436F6D6D 
 21963      6F6E5F54 
 21963      79706544 
 21963      656600
 21964              	.LASF650:
 21965 1676 6570306E 		.ascii	"ep0n\000"
 21965      00
 21966              	.LASF767:
 21967 167b 72657376 		.ascii	"resvdE04\000"
 21967      64453034 
 21967      00
 21968              	.LASF112:
ARM GAS  /tmp/ccfraM8n.s 			page 406


 21969 1684 5F776374 		.ascii	"_wctomb_state\000"
 21969      6F6D625F 
 21969      73746174 
 21969      6500
 21970              	.LASF279:
 21971 1692 41484233 		.ascii	"AHB3RSTR\000"
 21971      52535452 
 21971      00
 21972              	.LASF463:
 21973 169b 715F636F 		.ascii	"q_counter\000"
 21973      756E7465 
 21973      7200
 21974              	.LASF483:
 21975 16a5 696F706F 		.ascii	"ioportid_t\000"
 21975      72746964 
 21975      5F7400
 21976              	.LASF285:
 21977 16b0 41504231 		.ascii	"APB1HRSTR\000"
 21977      48525354 
 21977      5200
 21978              	.LASF532:
 21979 16ba 41444344 		.ascii	"ADCD1\000"
 21979      3100
 21980              	.LASF735:
 21981 16c0 48434647 		.ascii	"HCFG\000"
 21981      00
 21982              	.LASF248:
 21983 16c5 444D414D 		.ascii	"DMAMUX_Channel_TypeDef\000"
 21983      55585F43 
 21983      68616E6E 
 21983      656C5F54 
 21983      79706544 
 21984              	.LASF502:
 21985 16dc 646D616D 		.ascii	"dmamode\000"
 21985      6F646500 
 21986              	.LASF629:
 21987 16e4 63666732 		.ascii	"cfg2\000"
 21987      00
 21988              	.LASF98:
 21989 16e9 5F696F62 		.ascii	"_iobs\000"
 21989      7300
 21990              	.LASF65:
 21991 16ef 5F656D65 		.ascii	"_emergency\000"
 21991      7267656E 
 21991      637900
 21992              	.LASF592:
 21993 16fa 67657474 		.ascii	"gett\000"
 21993      00
 21994              	.LASF330:
 21995 16ff 49505652 		.ascii	"IPVR\000"
 21995      00
 21996              	.LASF253:
 21997 1704 50454352 		.ascii	"PECR\000"
 21997      00
 21998              	.LASF262:
 21999 1709 44334346 		.ascii	"D3CFGR\000"
 21999      475200
ARM GAS  /tmp/ccfraM8n.s 			page 407


 22000              	.LASF364:
 22001 1710 77747472 		.ascii	"wttrp\000"
 22001      7000
 22002              	.LASF467:
 22003 1716 715F7264 		.ascii	"q_rdptr\000"
 22003      70747200 
 22004              	.LASF717:
 22005 171e 474F5447 		.ascii	"GOTGINT\000"
 22005      494E5400 
 22006              	.LASF589:
 22007 1726 77726974 		.ascii	"write\000"
 22007      6500
 22008              	.LASF103:
 22009 172c 5F72616E 		.ascii	"_rand_next\000"
 22009      645F6E65 
 22009      787400
 22010              	.LASF583:
 22011 1737 69717565 		.ascii	"iqueue\000"
 22011      756500
 22012              	.LASF637:
 22013 173e 74726E67 		.ascii	"trngstate_t\000"
 22013      73746174 
 22013      655F7400 
 22014              	.LASF231:
 22015 174a 43414C46 		.ascii	"CALFACT\000"
 22015      41435400 
 22016              	.LASF713:
 22017 1752 444F4550 		.ascii	"DOEPINT\000"
 22017      494E5400 
 22018              	.LASF418:
 22019 175a 6275665F 		.ascii	"buf_list\000"
 22019      6C697374 
 22019      00
 22020              	.LASF132:
 22021 1763 75696E74 		.ascii	"uint32_t\000"
 22021      33325F74 
 22021      00
 22022              	.LASF642:
 22023 176c 54524E47 		.ascii	"TRNGD1\000"
 22023      443100
 22024              	.LASF384:
 22025 1773 6F66665F 		.ascii	"off_stklimit\000"
 22025      73746B6C 
 22025      696D6974 
 22025      00
 22026              	.LASF28:
 22027 1780 5F6D6178 		.ascii	"_maxwds\000"
 22027      77647300 
 22028              	.LASF454:
 22029 1788 424C4B5F 		.ascii	"BLK_WRITING\000"
 22029      57524954 
 22029      494E4700 
 22030              	.LASF868:
 22031 1794 6F73616C 		.ascii	"osalSysLockFromISR\000"
 22031      5379734C 
 22031      6F636B46 
 22031      726F6D49 
ARM GAS  /tmp/ccfraM8n.s 			page 408


 22031      535200
 22032              	.LASF435:
 22033 17a7 73746D33 		.ascii	"stm32_bdma_stream_t\000"
 22033      325F6264 
 22033      6D615F73 
 22033      74726561 
 22033      6D5F7400 
 22034              	.LASF874:
 22035 17bb 706F7274 		.ascii	"port_lock\000"
 22035      5F6C6F63 
 22035      6B00
 22036              	.LASF2:
 22037 17c5 6C6F6E67 		.ascii	"long double\000"
 22037      20646F75 
 22037      626C6500 
 22038              	.LASF388:
 22039 17d1 6F66665F 		.ascii	"off_preempt\000"
 22039      70726565 
 22039      6D707400 
 22040              	.LASF141:
 22041 17dd 6576656E 		.ascii	"eventmask_t\000"
 22041      746D6173 
 22041      6B5F7400 
 22042              	.LASF495:
 22043 17e9 64657074 		.ascii	"depth\000"
 22043      6800
 22044              	.LASF818:
 22045 17ef 53445241 		.ascii	"SDRAMDriver\000"
 22045      4D447269 
 22045      76657200 
 22046              	.LASF663:
 22047 17fb 5553425F 		.ascii	"USB_SELECTED\000"
 22047      53454C45 
 22047      43544544 
 22047      00
 22048              	.LASF14:
 22049 1808 6C6F6E67 		.ascii	"long unsigned int\000"
 22049      20756E73 
 22049      69676E65 
 22049      6420696E 
 22049      7400
 22050              	.LASF547:
 22051 181a 74786279 		.ascii	"txbytes\000"
 22051      74657300 
 22052              	.LASF402:
 22053 1822 62617365 		.ascii	"basemem\000"
 22053      6D656D00 
 22054              	.LASF294:
 22055 182a 41504233 		.ascii	"APB3ENR\000"
 22055      454E5200 
 22056              	.LASF844:
 22057 1832 56656374 		.ascii	"Vector1D4\000"
 22057      6F723144 
 22057      3400
 22058              	.LASF349:
 22059 183c 72656173 		.ascii	"reason\000"
 22059      6F6E00
ARM GAS  /tmp/ccfraM8n.s 			page 409


 22060              	.LASF680:
 22061 1843 5553425F 		.ascii	"USB_EVENT_ADDRESS\000"
 22061      4556454E 
 22061      545F4144 
 22061      44524553 
 22061      5300
 22062              	.LASF313:
 22063 1855 52455350 		.ascii	"RESPCMD\000"
 22063      434D4400 
 22064              	.LASF615:
 22065 185d 53444344 		.ascii	"SDCD1\000"
 22065      3100
 22066              	.LASF382:
 22067 1863 6F66665F 		.ascii	"off_older\000"
 22067      6F6C6465 
 22067      7200
 22068              	.LASF686:
 22069 186d 75736265 		.ascii	"usbevent_t\000"
 22069      76656E74 
 22069      5F7400
 22070              	.LASF86:
 22071 1878 5F636C6F 		.ascii	"_close\000"
 22071      736500
 22072              	.LASF830:
 22073 187f 70636E74 		.ascii	"pcnt\000"
 22073      00
 22074              	.LASF94:
 22075 1884 63686172 		.ascii	"char\000"
 22075      00
 22076              	.LASF96:
 22077 1889 5F676C75 		.ascii	"_glue\000"
 22077      6500
 22078              	.LASF689:
 22079 188f 55534244 		.ascii	"USBDescriptor\000"
 22079      65736372 
 22079      6970746F 
 22079      7200
 22080              	.LASF869:
 22081 189d 63685379 		.ascii	"chSysUnlockFromISR\000"
 22081      73556E6C 
 22081      6F636B46 
 22081      726F6D49 
 22081      535200
 22082              	.LASF558:
 22083 18b0 656E6162 		.ascii	"enabled\000"
 22083      6C656400 
 22084              	.LASF725:
 22085 18b8 47525846 		.ascii	"GRXFSIZ\000"
 22085      53495A00 
 22086              	.LASF613:
 22087 18c0 73796E63 		.ascii	"sync\000"
 22087      00
 22088              	.LASF585:
 22089 18c5 75736172 		.ascii	"usart\000"
 22089      7400
 22090              	.LASF599:
 22091 18cb 7364636D 		.ascii	"sdcmode_t\000"
ARM GAS  /tmp/ccfraM8n.s 			page 410


 22091      6F64655F 
 22091      7400
 22092              	.LASF469:
 22093 18d5 715F6C69 		.ascii	"q_link\000"
 22093      6E6B00
 22094              	.LASF436:
 22095 18dc 5F73746D 		.ascii	"_stm32_bdma_streams\000"
 22095      33325F62 
 22095      646D615F 
 22095      73747265 
 22095      616D7300 
 22096              	.LASF862:
 22097 18f0 6F74675F 		.ascii	"otg_disable_ep\000"
 22097      64697361 
 22097      626C655F 
 22097      657000
 22098              	.LASF746:
 22099 18ff 44434647 		.ascii	"DCFG\000"
 22099      00
 22100              	.LASF31:
 22101 1904 5F426967 		.ascii	"_Bigint\000"
 22101      696E7400 
 22102              	.LASF109:
 22103 190c 5F6D6973 		.ascii	"_misc_reent\000"
 22103      635F7265 
 22103      656E7400 
 22104              	.LASF722:
 22105 1918 47494E54 		.ascii	"GINTMSK\000"
 22105      4D534B00 
 22106              	.LASF727:
 22107 1920 484E5054 		.ascii	"HNPTXSTS\000"
 22107      58535453 
 22107      00
 22108              	.LASF655:
 22109 1929 636F6E66 		.ascii	"configuration\000"
 22109      69677572 
 22109      6174696F 
 22109      6E00
 22110              	.LASF675:
 22111 1937 5553425F 		.ascii	"USB_EP0_OUT_WAITING_STS\000"
 22111      4550305F 
 22111      4F55545F 
 22111      57414954 
 22111      494E475F 
 22112              	.LASF408:
 22113 194f 616C6967 		.ascii	"align\000"
 22113      6E00
 22114              	.LASF243:
 22115 1955 434D3041 		.ascii	"CM0AR\000"
 22115      5200
 22116              	.LASF820:
 22117 195b 6570305F 		.ascii	"ep0_state\000"
 22117      73746174 
 22117      6500
 22118              	.LASF432:
 22119 1965 5F73746D 		.ascii	"_stm32_dma_streams\000"
 22119      33325F64 
ARM GAS  /tmp/ccfraM8n.s 			page 411


 22119      6D615F73 
 22119      74726561 
 22119      6D7300
 22120              	.LASF358:
 22121 1978 62756666 		.ascii	"buffer\000"
 22121      657200
 22122              	.LASF115:
 22123 197f 5F676574 		.ascii	"_getdate_err\000"
 22123      64617465 
 22123      5F657272 
 22123      00
 22124              	.LASF598:
 22125 198c 73646362 		.ascii	"sdcbusmode_t\000"
 22125      75736D6F 
 22125      64655F74 
 22125      00
 22126              	.LASF709:
 22127 1999 44545846 		.ascii	"DTXFSTS\000"
 22127      53545300 
 22128              	.LASF838:
 22129 19a1 6F746770 		.ascii	"otgp\000"
 22129      00
 22130              	.LASF533:
 22131 19a6 61646363 		.ascii	"adccallback_t\000"
 22131      616C6C62 
 22131      61636B5F 
 22131      7400
 22132              	.LASF143:
 22133 19b4 636E745F 		.ascii	"cnt_t\000"
 22133      7400
 22134              	.LASF649:
 22135 19ba 6570306E 		.ascii	"ep0next\000"
 22135      65787400 
 22136              	.LASF586:
 22137 19c2 72786D61 		.ascii	"rxmask\000"
 22137      736B00
 22138              	.LASF703:
 22139 19c9 73746D33 		.ascii	"stm32_otg_host_chn_t\000"
 22139      325F6F74 
 22139      675F686F 
 22139      73745F63 
 22139      686E5F74 
 22140              	.LASF850:
 22141 19de 6F74675F 		.ascii	"otg_epin_handler\000"
 22141      6570696E 
 22141      5F68616E 
 22141      646C6572 
 22141      00
 22142              	.LASF671:
 22143 19ef 5553425F 		.ascii	"USB_EP0_STP_WAITING\000"
 22143      4550305F 
 22143      5354505F 
 22143      57414954 
 22143      494E4700 
 22144              	.LASF481:
 22145 1a03 41465248 		.ascii	"AFRH\000"
 22145      00
ARM GAS  /tmp/ccfraM8n.s 			page 412


 22146              	.LASF480:
 22147 1a08 4146524C 		.ascii	"AFRL\000"
 22147      00
 22148              	.LASF385:
 22149 1a0d 6F66665F 		.ascii	"off_state\000"
 22149      73746174 
 22149      6500
 22150              	.LASF183:
 22151 1a17 74726163 		.ascii	"trace_buffer\000"
 22151      655F6275 
 22151      66666572 
 22151      00
 22152              	.LASF334:
 22153 1a24 43524350 		.ascii	"CRCPOLY\000"
 22153      4F4C5900 
 22154              	.LASF126:
 22155 1a2c 5F696D70 		.ascii	"_impure_ptr\000"
 22155      7572655F 
 22155      70747200 
 22156              	.LASF89:
 22157 1a38 5F626C6B 		.ascii	"_blksize\000"
 22157      73697A65 
 22157      00
 22158              	.LASF698:
 22159 1a41 4843494E 		.ascii	"HCINTMSK\000"
 22159      544D534B 
 22159      00
 22160              	.LASF87:
 22161 1a4a 5F756275 		.ascii	"_ubuf\000"
 22161      6600
 22162              	.LASF493:
 22163 1a50 636F6E66 		.ascii	"config\000"
 22163      696700
 22164              	.LASF111:
 22165 1a57 5F6D626C 		.ascii	"_mblen_state\000"
 22165      656E5F73 
 22165      74617465 
 22165      00
 22166              	.LASF77:
 22167 1a64 5F5F7367 		.ascii	"__sglue\000"
 22167      6C756500 
 22168              	.LASF122:
 22169 1a6c 5F5F6C6F 		.ascii	"__locale_t\000"
 22169      63616C65 
 22169      5F7400
 22170              	.LASF325:
 22171 1a77 49444D41 		.ascii	"IDMACTRL\000"
 22171      4354524C 
 22171      00
 22172              	.LASF450:
 22173 1a80 424C4B5F 		.ascii	"BLK_CONNECTING\000"
 22173      434F4E4E 
 22173      45435449 
 22173      4E4700
 22174              	.LASF69:
 22175 1a8f 5F5F636C 		.ascii	"__cleanup\000"
 22175      65616E75 
ARM GAS  /tmp/ccfraM8n.s 			page 413


 22175      7000
 22176              	.LASF264:
 22177 1a99 504C4C43 		.ascii	"PLLCFGR\000"
 22177      46475200 
 22178              	.LASF524:
 22179 1aa1 6164635F 		.ascii	"adc_channels_num_t\000"
 22179      6368616E 
 22179      6E656C73 
 22179      5F6E756D 
 22179      5F7400
 22180              	.LASF172:
 22181 1ab4 76746675 		.ascii	"vtfunc_t\000"
 22181      6E635F74 
 22181      00
 22182              	.LASF348:
 22183 1abd 77746F62 		.ascii	"wtobjp\000"
 22183      6A7000
 22184              	.LASF283:
 22185 1ac4 41504233 		.ascii	"APB3RSTR\000"
 22185      52535452 
 22185      00
 22186              	.LASF18:
 22187 1acd 5F66706F 		.ascii	"_fpos_t\000"
 22187      735F7400 
 22188              	.LASF56:
 22189 1ad5 5F66696C 		.ascii	"_file\000"
 22189      6500
 22190              	.LASF492:
 22191 1adb 68616C5F 		.ascii	"hal_adc_driver\000"
 22191      6164635F 
 22191      64726976 
 22191      657200
 22192              	.LASF602:
 22193 1aea 63617061 		.ascii	"capacity\000"
 22193      63697479 
 22193      00
 22194              	.LASF417:
 22195 1af3 6F626A5F 		.ascii	"obj_pool\000"
 22195      706F6F6C 
 22195      00
 22196              	.LASF425:
 22197 1afc 63685F66 		.ascii	"ch_factory\000"
 22197      6163746F 
 22197      727900
 22198              	.LASF468:
 22199 1b07 715F6E6F 		.ascii	"q_notify\000"
 22199      74696679 
 22199      00
 22200              	.LASF367:
 22201 1b10 77746D74 		.ascii	"wtmtxp\000"
 22201      787000
 22202              	.LASF81:
 22203 1b17 5F5F7346 		.ascii	"__sFILE\000"
 22203      494C4500 
 22204              	.LASF49:
 22205 1b1f 5F666E73 		.ascii	"_fns\000"
 22205      00
ARM GAS  /tmp/ccfraM8n.s 			page 414


 22206              	.LASF792:
 22207 1b24 55534245 		.ascii	"USBEndpointConfig\000"
 22207      6E64706F 
 22207      696E7443 
 22207      6F6E6669 
 22207      6700
 22208              	.LASF781:
 22209 1b36 5553424F 		.ascii	"USBOutEndpointState\000"
 22209      7574456E 
 22209      64706F69 
 22209      6E745374 
 22209      61746500 
 22210              	.LASF706:
 22211 1b4a 44494550 		.ascii	"DIEPINT\000"
 22211      494E5400 
 22212              	.LASF23:
 22213 1b52 5F6D6273 		.ascii	"_mbstate_t\000"
 22213      74617465 
 22213      5F7400
 22214              	.LASF190:
 22215 1b5d 73797369 		.ascii	"sysinterval_t\000"
 22215      6E746572 
 22215      76616C5F 
 22215      7400
 22216              	.LASF835:
 22217 1b6b 7573625F 		.ascii	"usb_lld_disable_endpoints\000"
 22217      6C6C645F 
 22217      64697361 
 22217      626C655F 
 22217      656E6470 
 22218              	.LASF458:
 22219 1b85 626C6B5F 		.ascii	"blk_num\000"
 22219      6E756D00 
 22220              	.LASF275:
 22221 1b8d 43494552 		.ascii	"CIER\000"
 22221      00
 22222              	.LASF278:
 22223 1b92 42444352 		.ascii	"BDCR\000"
 22223      00
 22224              	.LASF679:
 22225 1b97 5553425F 		.ascii	"USB_EVENT_RESET\000"
 22225      4556454E 
 22225      545F5245 
 22225      53455400 
 22226              	.LASF397:
 22227 1ba7 77666C61 		.ascii	"wflags\000"
 22227      677300
 22228              	.LASF156:
 22229 1bae 77616974 		.ascii	"waiting\000"
 22229      696E6700 
 22230              	.LASF170:
 22231 1bb6 63685F72 		.ascii	"ch_ready_list\000"
 22231      65616479 
 22231      5F6C6973 
 22231      7400
 22232              	.LASF885:
 22233 1bc4 5F747261 		.ascii	"_trace_isr_enter\000"
ARM GAS  /tmp/ccfraM8n.s 			page 415


 22233      63655F69 
 22233      73725F65 
 22233      6E746572 
 22233      00
 22234              	.LASF477:
 22235 1bd5 50555044 		.ascii	"PUPDR\000"
 22235      5200
 22236              	.LASF11:
 22237 1bdb 5F5F696E 		.ascii	"__int32_t\000"
 22237      7433325F 
 22237      7400
 22238              	.LASF295:
 22239 1be5 41504231 		.ascii	"APB1LENR\000"
 22239      4C454E52 
 22239      00
 22240              	.LASF13:
 22241 1bee 5F5F7569 		.ascii	"__uint32_t\000"
 22241      6E743332 
 22241      5F7400
 22242              	.LASF181:
 22243 1bf9 63685F73 		.ascii	"ch_system_debug\000"
 22243      79737465 
 22243      6D5F6465 
 22243      62756700 
 22244              	.LASF501:
 22245 1c09 64617461 		.ascii	"data\000"
 22245      00
 22246              	.LASF753:
 22247 1c0e 4441494E 		.ascii	"DAINTMSK\000"
 22247      544D534B 
 22247      00
 22248              	.LASF272:
 22249 1c17 44324343 		.ascii	"D2CCIP1R\000"
 22249      49503152 
 22249      00
 22250              	.LASF22:
 22251 1c20 5F5F7661 		.ascii	"__value\000"
 22251      6C756500 
 22252              	.LASF46:
 22253 1c28 5F69735F 		.ascii	"_is_cxa\000"
 22253      63786100 
 22254              	.LASF276:
 22255 1c30 43494652 		.ascii	"CIFR\000"
 22255      00
 22256              	.LASF104:
 22257 1c35 5F6D7072 		.ascii	"_mprec\000"
 22257      656300
 22258              	.LASF429:
 22259 1c3c 73656C66 		.ascii	"selfindex\000"
 22259      696E6465 
 22259      7800
 22260              	.LASF392:
 22261 1c46 6D757465 		.ascii	"mutex_t\000"
 22261      785F7400 
 22262              	.LASF107:
 22263 1c4e 5F703573 		.ascii	"_p5s\000"
 22263      00
ARM GAS  /tmp/ccfraM8n.s 			page 416


 22264              	.LASF667:
 22265 1c53 45505F53 		.ascii	"EP_STATUS_DISABLED\000"
 22265      54415455 
 22265      535F4449 
 22265      5341424C 
 22265      454400
 22266              	.LASF473:
 22267 1c66 636C6561 		.ascii	"clear\000"
 22267      7200
 22268              	.LASF244:
 22269 1c6c 434D3141 		.ascii	"CM1AR\000"
 22269      5200
 22270              	.LASF474:
 22271 1c72 4D4F4445 		.ascii	"MODER\000"
 22271      5200
 22272              	.LASF273:
 22273 1c78 44324343 		.ascii	"D2CCIP2R\000"
 22273      49503252 
 22273      00
 22274              	.LASF531:
 22275 1c81 6164635F 		.ascii	"adc_ldd_dma_reference_t\000"
 22275      6C64645F 
 22275      646D615F 
 22275      72656665 
 22275      72656E63 
 22276              	.LASF324:
 22277 1c99 52455345 		.ascii	"RESERVED0\000"
 22277      52564544 
 22277      3000
 22278              	.LASF202:
 22279 1ca3 52455345 		.ascii	"RESERVED1\000"
 22279      52564544 
 22279      3100
 22280              	.LASF203:
 22281 1cad 52455345 		.ascii	"RESERVED2\000"
 22281      52564544 
 22281      3200
 22282              	.LASF208:
 22283 1cb7 52455345 		.ascii	"RESERVED3\000"
 22283      52564544 
 22283      3300
 22284              	.LASF209:
 22285 1cc1 52455345 		.ascii	"RESERVED4\000"
 22285      52564544 
 22285      3400
 22286              	.LASF211:
 22287 1ccb 52455345 		.ascii	"RESERVED5\000"
 22287      52564544 
 22287      3500
 22288              	.LASF216:
 22289 1cd5 52455345 		.ascii	"RESERVED6\000"
 22289      52564544 
 22289      3600
 22290              	.LASF221:
 22291 1cdf 52455345 		.ascii	"RESERVED7\000"
 22291      52564544 
 22291      3700
ARM GAS  /tmp/ccfraM8n.s 			page 417


 22292              	.LASF224:
 22293 1ce9 52455345 		.ascii	"RESERVED8\000"
 22293      52564544 
 22293      3800
 22294              	.LASF225:
 22295 1cf3 52455345 		.ascii	"RESERVED9\000"
 22295      52564544 
 22295      3900
 22296              	.LASF744:
 22297 1cfd 72657376 		.ascii	"resvd444\000"
 22297      64343434 
 22297      00
 22298              	.LASF609:
 22299 1d06 69735F69 		.ascii	"is_inserted\000"
 22299      6E736572 
 22299      74656400 
 22300              	.LASF496:
 22301 1d12 67727070 		.ascii	"grpp\000"
 22301      00
 22302              	.LASF277:
 22303 1d17 43494352 		.ascii	"CICR\000"
 22303      00
 22304              	.LASF331:
 22305 1d1c 53444D4D 		.ascii	"SDMMC_TypeDef\000"
 22305      435F5479 
 22305      70654465 
 22305      6600
 22306              	.LASF381:
 22307 1d2a 6F66665F 		.ascii	"off_newer\000"
 22307      6E657765 
 22307      7200
 22308              	.LASF877:
 22309 1d34 63685379 		.ascii	"chSysPolledDelayX\000"
 22309      73506F6C 
 22309      6C656444 
 22309      656C6179 
 22309      5800
 22310              	.LASF336:
 22311 1d46 52584352 		.ascii	"RXCRC\000"
 22311      4300
 22312              	.LASF196:
 22313 1d4c 43464752 		.ascii	"CFGR2\000"
 22313      3200
 22314              	.LASF147:
 22315 1d52 71756575 		.ascii	"queue\000"
 22315      6500
 22316              	.LASF658:
 22317 1d58 706D6E65 		.ascii	"pmnext\000"
 22317      787400
 22318              	.LASF271:
 22319 1d5f 44314343 		.ascii	"D1CCIPR\000"
 22319      49505200 
 22320              	.LASF191:
 22321 1d67 49544D5F 		.ascii	"ITM_RxBuffer\000"
 22321      52784275 
 22321      66666572 
 22321      00
ARM GAS  /tmp/ccfraM8n.s 			page 418


 22322              	.LASF459:
 22323 1d74 426C6F63 		.ascii	"BlockDeviceInfo\000"
 22323      6B446576 
 22323      69636549 
 22323      6E666F00 
 22324              	.LASF16:
 22325 1d84 6C6F6E67 		.ascii	"long long unsigned int\000"
 22325      206C6F6E 
 22325      6720756E 
 22325      7369676E 
 22325      65642069 
 22326              	.LASF360:
 22327 1d9b 6F666673 		.ascii	"offset\000"
 22327      657400
 22328              	.LASF301:
 22329 1da2 41484231 		.ascii	"AHB1LPENR\000"
 22329      4C50454E 
 22329      5200
 22330              	.LASF631:
 22331 1dac 53504944 		.ascii	"SPID1\000"
 22331      3100
 22332              	.LASF632:
 22333 1db2 53504944 		.ascii	"SPID3\000"
 22333      3300
 22334              	.LASF237:
 22335 1db8 4E445452 		.ascii	"NDTR\000"
 22335      00
 22336              	.LASF70:
 22337 1dbd 5F67616D 		.ascii	"_gamma_signgam\000"
 22337      6D615F73 
 22337      69676E67 
 22337      616D00
 22338              	.LASF267:
 22339 1dcc 504C4C32 		.ascii	"PLL2DIVR\000"
 22339      44495652 
 22339      00
 22340              	.LASF339:
 22341 1dd5 5350495F 		.ascii	"SPI_TypeDef\000"
 22341      54797065 
 22341      44656600 
 22342              	.LASF437:
 22343 1de1 534D4352 		.ascii	"SMCR\000"
 22343      00
 22344              	.LASF308:
 22345 1de6 41504234 		.ascii	"APB4LPENR\000"
 22345      4C50454E 
 22345      5200
 22346              	.LASF378:
 22347 1df0 74687265 		.ascii	"threadsize\000"
 22347      61647369 
 22347      7A6500
 22348              	.LASF751:
 22349 1dfb 444F4550 		.ascii	"DOEPMSK\000"
 22349      4D534B00 
 22350              	.LASF234:
 22351 1e03 52455345 		.ascii	"RESERVED\000"
 22351      52564544 
ARM GAS  /tmp/ccfraM8n.s 			page 419


 22351      00
 22352              	.LASF858:
 22353 1e0c 6F74675F 		.ascii	"otg_ram_reset\000"
 22353      72616D5F 
 22353      72657365 
 22353      7400
 22354              	.LASF174:
 22355 1e1a 63685F76 		.ascii	"ch_virtual_timer\000"
 22355      69727475 
 22355      616C5F74 
 22355      696D6572 
 22355      00
 22356              	.LASF296:
 22357 1e2b 41504231 		.ascii	"APB1HENR\000"
 22357      48454E52 
 22357      00
 22358              	.LASF368:
 22359 1e34 65776D61 		.ascii	"ewmask\000"
 22359      736B00
 22360              	.LASF398:
 22361 1e3b 6576656E 		.ascii	"event_source\000"
 22361      745F736F 
 22361      75726365 
 22361      00
 22362              	.LASF886:
 22363 1e48 5F747261 		.ascii	"_trace_isr_leave\000"
 22363      63655F69 
 22363      73725F6C 
 22363      65617665 
 22363      00
 22364              	.LASF304:
 22365 1e59 41504233 		.ascii	"APB3LPENR\000"
 22365      4C50454E 
 22365      5200
 22366              	.LASF137:
 22367 1e63 74737461 		.ascii	"tstate_t\000"
 22367      74655F74 
 22367      00
 22368              	.LASF127:
 22369 1e6c 5F676C6F 		.ascii	"_global_impure_ptr\000"
 22369      62616C5F 
 22369      696D7075 
 22369      72655F70 
 22369      747200
 22370              	.LASF752:
 22371 1e7f 4441494E 		.ascii	"DAINT\000"
 22371      5400
 22372              	.LASF624:
 22373 1e85 53504943 		.ascii	"SPIConfig\000"
 22373      6F6E6669 
 22373      6700
 22374              	.LASF67:
 22375 1e8f 5F756E73 		.ascii	"_unspecified_locale_info\000"
 22375      70656369 
 22375      66696564 
 22375      5F6C6F63 
 22375      616C655F 
ARM GAS  /tmp/ccfraM8n.s 			page 420


 22376              	.LASF125:
 22377 1ea8 5F5F7366 		.ascii	"__sf_fake_stderr\000"
 22377      5F66616B 
 22377      655F7374 
 22377      64657272 
 22377      00
 22378              	.LASF644:
 22379 1eb9 7472616E 		.ascii	"transmitting\000"
 22379      736D6974 
 22379      74696E67 
 22379      00
 22380              	.LASF356:
 22381 1ec6 73757370 		.ascii	"suspended\000"
 22381      656E6465 
 22381      6400
 22382              	.LASF312:
 22383 1ed0 434C4B43 		.ascii	"CLKCR\000"
 22383      5200
 22384              	.LASF834:
 22385 1ed6 7573625F 		.ascii	"usb_lld_get_status_out\000"
 22385      6C6C645F 
 22385      6765745F 
 22385      73746174 
 22385      75735F6F 
 22386              	.LASF284:
 22387 1eed 41504231 		.ascii	"APB1LRSTR\000"
 22387      4C525354 
 22387      5200
 22388              	.LASF66:
 22389 1ef7 5F5F7364 		.ascii	"__sdidinit\000"
 22389      6964696E 
 22389      697400
 22390              	.LASF217:
 22391 1f02 4A445231 		.ascii	"JDR1\000"
 22391      00
 22392              	.LASF218:
 22393 1f07 4A445232 		.ascii	"JDR2\000"
 22393      00
 22394              	.LASF219:
 22395 1f0c 4A445233 		.ascii	"JDR3\000"
 22395      00
 22396              	.LASF220:
 22397 1f11 4A445234 		.ascii	"JDR4\000"
 22397      00
 22398              	.LASF714:
 22399 1f16 444F4550 		.ascii	"DOEPTSIZ\000"
 22399      5453495A 
 22399      00
 22400              	.LASF543:
 22401 1f1f 74696D69 		.ascii	"timingr\000"
 22401      6E677200 
 22402              	.LASF307:
 22403 1f27 41504232 		.ascii	"APB2LPENR\000"
 22403      4C50454E 
 22403      5200
 22404              	.LASF691:
 22405 1f31 75736265 		.ascii	"usbepcallback_t\000"
ARM GAS  /tmp/ccfraM8n.s 			page 421


 22405      7063616C 
 22405      6C626163 
 22405      6B5F7400 
 22406              	.LASF419:
 22407 1f41 73656D5F 		.ascii	"sem_list\000"
 22407      6C697374 
 22407      00
 22408              	.LASF421:
 22409 1f4a 6D62785F 		.ascii	"mbx_list\000"
 22409      6C697374 
 22409      00
 22410              	.LASF383:
 22411 1f53 6F66665F 		.ascii	"off_name\000"
 22411      6E616D65 
 22411      00
 22412              	.LASF814:
 22413 1f5c 53445241 		.ascii	"SDRAM_UNINIT\000"
 22413      4D5F554E 
 22413      494E4954 
 22413      00
 22414              	.LASF26:
 22415 1f69 5F666C6F 		.ascii	"_flock_t\000"
 22415      636B5F74 
 22415      00
 22416              	.LASF177:
 22417 1f72 76697274 		.ascii	"virtual_timers_list_t\000"
 22417      75616C5F 
 22417      74696D65 
 22417      72735F6C 
 22417      6973745F 
 22418              	.LASF879:
 22419 1f88 6E766963 		.ascii	"nvicEnableVector\000"
 22419      456E6162 
 22419      6C655665 
 22419      63746F72 
 22419      00
 22420              	.LASF124:
 22421 1f99 5F5F7366 		.ascii	"__sf_fake_stdout\000"
 22421      5F66616B 
 22421      655F7374 
 22421      646F7574 
 22421      00
 22422              	.LASF194:
 22423 1faa 4431436F 		.ascii	"D1CorePrescTable\000"
 22423      72655072 
 22423      65736354 
 22423      61626C65 
 22423      00
 22424              	.LASF738:
 22425 1fbb 72657376 		.ascii	"resvd40C\000"
 22425      64343043 
 22425      00
 22426              	.LASF665:
 22427 1fc4 5553425F 		.ascii	"USB_SUSPENDED\000"
 22427      53555350 
 22427      454E4445 
 22427      4400
ARM GAS  /tmp/ccfraM8n.s 			page 422


 22428              	.LASF720:
 22429 1fd2 47525354 		.ascii	"GRSTCTL\000"
 22429      43544C00 
 22430              	.LASF509:
 22431 1fda 63697263 		.ascii	"circular\000"
 22431      756C6172 
 22431      00
 22432              	.LASF622:
 22433 1fe3 53504944 		.ascii	"SPIDriver\000"
 22433      72697665 
 22433      7200
 22434              	.LASF745:
 22435 1fed 72657376 		.ascii	"resvd700\000"
 22435      64373030 
 22435      00
 22436              	.LASF338:
 22437 1ff6 49325343 		.ascii	"I2SCFGR\000"
 22437      46475200 
 22438              	.LASF826:
 22439 1ffe 75736270 		.ascii	"usbp\000"
 22439      00
 22440              	.LASF593:
 22441 2003 77726974 		.ascii	"writet\000"
 22441      657400
 22442              	.LASF305:
 22443 200a 41504231 		.ascii	"APB1LLPENR\000"
 22443      4C4C5045 
 22443      4E5200
 22444              	.LASF604:
 22445 2015 73646D6D 		.ascii	"sdmmc\000"
 22445      6300
 22446              	.LASF1:
 22447 201b 6C6F6E67 		.ascii	"long long int\000"
 22447      206C6F6E 
 22447      6720696E 
 22447      7400
 22448              	.LASF732:
 22449 2029 48505458 		.ascii	"HPTXFSIZ\000"
 22449      4653495A 
 22449      00
 22450              	.LASF825:
 22451 2032 7573625F 		.ascii	"usb_lld_clear_out\000"
 22451      6C6C645F 
 22451      636C6561 
 22451      725F6F75 
 22451      7400
 22452              	.LASF93:
 22453 2044 5F666C61 		.ascii	"_flags2\000"
 22453      67733200 
 22454              	.LASF514:
 22455 204c 63666772 		.ascii	"cfgr2\000"
 22455      3200
 22456              	.LASF870:
 22457 2052 63685379 		.ascii	"chSysLockFromISR\000"
 22457      734C6F63 
 22457      6B46726F 
 22457      6D495352 
ARM GAS  /tmp/ccfraM8n.s 			page 423


 22457      00
 22458              	.LASF614:
 22459 2063 6765745F 		.ascii	"get_info\000"
 22459      696E666F 
 22459      00
 22460              	.LASF530:
 22461 206c 61646365 		.ascii	"adcerror_t\000"
 22461      72726F72 
 22461      5F7400
 22462              	.LASF861:
 22463 2077 6F74675F 		.ascii	"otg_rxfifo_flush\000"
 22463      72786669 
 22463      666F5F66 
 22463      6C757368 
 22463      00
 22464              	.LASF794:
 22465 2088 6765745F 		.ascii	"get_descriptor_cb\000"
 22465      64657363 
 22465      72697074 
 22465      6F725F63 
 22465      6200
 22466              	.LASF68:
 22467 209a 5F6C6F63 		.ascii	"_locale\000"
 22467      616C6500 
 22468              	.LASF142:
 22469 20a2 6576656E 		.ascii	"eventflags_t\000"
 22469      74666C61 
 22469      67735F74 
 22469      00
 22470              	.LASF618:
 22471 20af 5350495F 		.ascii	"SPI_READY\000"
 22471      52454144 
 22471      5900
 22472              	.LASF672:
 22473 20b9 5553425F 		.ascii	"USB_EP0_IN_TX\000"
 22473      4550305F 
 22473      494E5F54 
 22473      5800
 22474              	.LASF836:
 22475 20c7 7573625F 		.ascii	"usb_lld_init_endpoint\000"
 22475      6C6C645F 
 22475      696E6974 
 22475      5F656E64 
 22475      706F696E 
 22476              	.LASF606:
 22477 20dd 6275735F 		.ascii	"bus_width\000"
 22477      77696474 
 22477      6800
 22478              	.LASF747:
 22479 20e7 4443544C 		.ascii	"DCTL\000"
 22479      00
 22480              	.LASF608:
 22481 20ec 53444344 		.ascii	"SDCDriverVMT\000"
 22481      72697665 
 22481      72564D54 
 22481      00
 22482              	.LASF351:
ARM GAS  /tmp/ccfraM8n.s 			page 424


 22483 20f9 75736572 		.ascii	"user\000"
 22483      00
 22484              	.LASF775:
 22485 20fe 74786275 		.ascii	"txbuf\000"
 22485      6600
 22486              	.LASF766:
 22487 2104 50434743 		.ascii	"PCGCCTL\000"
 22487      43544C00 
 22488              	.LASF684:
 22489 210c 5553425F 		.ascii	"USB_EVENT_WAKEUP\000"
 22489      4556454E 
 22489      545F5741 
 22489      4B455550 
 22489      00
 22490              	.LASF448:
 22491 211d 424C4B5F 		.ascii	"BLK_STOP\000"
 22491      53544F50 
 22491      00
 22492              	.LASF875:
 22493 2126 5F5F7365 		.ascii	"__set_BASEPRI\000"
 22493      745F4241 
 22493      53455052 
 22493      4900
 22494              	.LASF282:
 22495 2134 41484234 		.ascii	"AHB4RSTR\000"
 22495      52535452 
 22495      00
 22496              	.LASF455:
 22497 213d 424C4B5F 		.ascii	"BLK_SYNCING\000"
 22497      53594E43 
 22497      494E4700 
 22498              	.LASF791:
 22499 2149 73657475 		.ascii	"setup_buf\000"
 22499      705F6275 
 22499      6600
 22500              	.LASF729:
 22501 2153 72657376 		.ascii	"resvd34\000"
 22501      64333400 
 22502              	.LASF512:
 22503 215b 6572726F 		.ascii	"error_cb\000"
 22503      725F6362 
 22503      00
 22504              	.LASF451:
 22505 2164 424C4B5F 		.ascii	"BLK_DISCONNECTING\000"
 22505      44495343 
 22505      4F4E4E45 
 22505      4354494E 
 22505      4700
 22506              	.LASF559:
 22507 2176 6368616E 		.ascii	"channels\000"
 22507      6E656C73 
 22507      00
 22508              	.LASF626:
 22509 217f 7373706F 		.ascii	"ssport\000"
 22509      727400
 22510              	.LASF742:
 22511 2186 72657376 		.ascii	"resvd41C\000"
ARM GAS  /tmp/ccfraM8n.s 			page 425


 22511      64343143 
 22511      00
 22512              	.LASF162:
 22513 218f 74687265 		.ascii	"thread_reference_t\000"
 22513      61645F72 
 22513      65666572 
 22513      656E6365 
 22513      5F7400
 22514              	.LASF645:
 22515 21a2 72656365 		.ascii	"receiving\000"
 22515      6976696E 
 22515      6700
 22516              	.LASF888:
 22517 21ac 474E5520 		.ascii	"GNU C17 8.3.1 20190703 (release) [gcc-8-branch revi"
 22517      43313720 
 22517      382E332E 
 22517      31203230 
 22517      31393037 
 22518 21df 73696F6E 		.ascii	"sion 273027] -mcpu=cortex-m7 -mthumb -mfloat-abi=ha"
 22518      20323733 
 22518      3032375D 
 22518      202D6D63 
 22518      70753D63 
 22519 2212 7264202D 		.ascii	"rd -mfpu=fpv4-sp-d16 -march=armv7e-m+fp -ggdb -O2 -"
 22519      6D667075 
 22519      3D667076 
 22519      342D7370 
 22519      2D643136 
 22520 2245 666F6D69 		.ascii	"fomit-frame-pointer -falign-functions=16 -fno-math-"
 22520      742D6672 
 22520      616D652D 
 22520      706F696E 
 22520      74657220 
 22521 2278 6572726E 		.ascii	"errno\000"
 22521      6F00
 22522              	.LASF659:
 22523 227e 75736265 		.ascii	"usbep_t\000"
 22523      705F7400 
 22524              	.LASF569:
 22525 2286 66726571 		.ascii	"frequency\000"
 22525      75656E63 
 22525      7900
 22526              	.LASF625:
 22527 2290 68616C5F 		.ascii	"hal_spi_config\000"
 22527      7370695F 
 22527      636F6E66 
 22527      696700
 22528              	.LASF865:
 22529 229f 6F73616C 		.ascii	"osalSysPolledDelayX\000"
 22529      53797350 
 22529      6F6C6C65 
 22529      6444656C 
 22529      61795800 
 22530              	.LASF29:
 22531 22b3 5F736967 		.ascii	"_sign\000"
 22531      6E00
 22532              	.LASF788:
ARM GAS  /tmp/ccfraM8n.s 			page 426


 22533 22b9 696E5F73 		.ascii	"in_state\000"
 22533      74617465 
 22533      00
 22534              	.LASF34:
 22535 22c2 5F5F746D 		.ascii	"__tm_min\000"
 22535      5F6D696E 
 22535      00
 22536              	.LASF293:
 22537 22cb 41484234 		.ascii	"AHB4ENR\000"
 22537      454E5200 
 22538              	.LASF806:
 22539 22d3 46534D43 		.ascii	"FSMC_SDRAM_TypeDef\000"
 22539      5F534452 
 22539      414D5F54 
 22539      79706544 
 22539      656600
 22540              	.LASF375:
 22541 22e6 76657273 		.ascii	"version\000"
 22541      696F6E00 
 22542              	.LASF320:
 22543 22ee 44435452 		.ascii	"DCTRL\000"
 22543      4C00
 22544              	.LASF396:
 22545 22f4 6576656E 		.ascii	"events\000"
 22545      747300
 22546              	.LASF439:
 22547 22fb 43434D52 		.ascii	"CCMR1\000"
 22547      3100
 22548              	.LASF440:
 22549 2301 43434D52 		.ascii	"CCMR2\000"
 22549      3200
 22550              	.LASF444:
 22551 2307 43434D52 		.ascii	"CCMR3\000"
 22551      3300
 22552              	.LASF0:
 22553 230d 756E7369 		.ascii	"unsigned int\000"
 22553      676E6564 
 22553      20696E74 
 22553      00
 22554              	.LASF73:
 22555 231a 5F723438 		.ascii	"_r48\000"
 22555      00
 22556              	.LASF736:
 22557 231f 48464952 		.ascii	"HFIR\000"
 22557      00
 22558              	.LASF660:
 22559 2324 5553425F 		.ascii	"USB_UNINIT\000"
 22559      554E494E 
 22559      495400
 22560              	.LASF426:
 22561 232f 73747265 		.ascii	"stream\000"
 22561      616D00
 22562              	.LASF134:
 22563 2336 75696E74 		.ascii	"uint_fast8_t\000"
 22563      5F666173 
 22563      74385F74 
 22563      00
ARM GAS  /tmp/ccfraM8n.s 			page 427


 22564              	.LASF852:
 22565 2343 6F74675F 		.ascii	"otg_fifo_read_to_buffer\000"
 22565      6669666F 
 22565      5F726561 
 22565      645F746F 
 22565      5F627566 
 22566              	.LASF506:
 22567 235b 63616C69 		.ascii	"calibration\000"
 22567      62726174 
 22567      696F6E00 
 22568              	.LASF394:
 22569 2367 6576656E 		.ascii	"event_listener\000"
 22569      745F6C69 
 22569      7374656E 
 22569      657200
 22570              	.LASF8:
 22571 2376 73686F72 		.ascii	"short int\000"
 22571      7420696E 
 22571      7400
 22572              	.LASF690:
 22573 2380 75736263 		.ascii	"usbcallback_t\000"
 22573      616C6C62 
 22573      61636B5F 
 22573      7400
 22574              	.LASF410:
 22575 238e 6D656D6F 		.ascii	"memory_pool_t\000"
 22575      72795F70 
 22575      6F6F6C5F 
 22575      7400
 22576              	.LASF83:
 22577 239c 5F726561 		.ascii	"_read\000"
 22577      6400
 22578              	.LASF719:
 22579 23a2 47555342 		.ascii	"GUSBCFG\000"
 22579      43464700 
 22580              	.LASF168:
 22581 23aa 70726576 		.ascii	"prev\000"
 22581      00
 22582              	.LASF472:
 22583 23af 6F757470 		.ascii	"output_queue_t\000"
 22583      75745F71 
 22583      75657565 
 22583      5F7400
 22584              	.LASF99:
 22585 23be 5F72616E 		.ascii	"_rand48\000"
 22585      64343800 
 22586              	.LASF768:
 22587 23c6 73746D33 		.ascii	"stm32_otg_t\000"
 22587      325F6F74 
 22587      675F7400 
 22588              	.LASF828:
 22589 23d2 7573625F 		.ascii	"usb_lld_stall_out\000"
 22589      6C6C645F 
 22589      7374616C 
 22589      6C5F6F75 
 22589      7400
 22590              	.LASF687:
ARM GAS  /tmp/ccfraM8n.s 			page 428


 22591 23e4 75645F73 		.ascii	"ud_size\000"
 22591      697A6500 
 22592              	.LASF160:
 22593 23ec 7265616C 		.ascii	"realprio\000"
 22593      7072696F 
 22593      00
 22594              	.LASF292:
 22595 23f5 41484232 		.ascii	"AHB2ENR\000"
 22595      454E5200 
 22596              	.LASF280:
 22597 23fd 41484231 		.ascii	"AHB1RSTR\000"
 22597      52535452 
 22597      00
 22598              	.LASF786:
 22599 2406 696E5F6D 		.ascii	"in_maxsize\000"
 22599      61787369 
 22599      7A6500
 22600              	.LASF154:
 22601 2411 666C6167 		.ascii	"flags\000"
 22601      7300
 22602              	.LASF222:
 22603 2417 41574432 		.ascii	"AWD2CR\000"
 22603      435200
 22604              	.LASF164:
 22605 241e 63685F74 		.ascii	"ch_threads_list\000"
 22605      68726561 
 22605      64735F6C 
 22605      69737400 
 22606              	.LASF321:
 22607 242e 44434F55 		.ascii	"DCOUNT\000"
 22607      4E5400
 22608              	.LASF249:
 22609 2435 4F415231 		.ascii	"OAR1\000"
 22609      00
 22610              	.LASF250:
 22611 243a 4F415232 		.ascii	"OAR2\000"
 22611      00
 22612              	.LASF579:
 22613 243f 53445F52 		.ascii	"SD_READY\000"
 22613      45414459 
 22613      00
 22614              	.LASF666:
 22615 2448 75736273 		.ascii	"usbstate_t\000"
 22615      74617465 
 22615      5F7400
 22616              		.ident	"GCC: (GNU Tools for Arm Embedded Processors 8-2019-q3-update) 8.3.1 20190703 (release) [gc
ARM GAS  /tmp/ccfraM8n.s 			page 429


DEFINED SYMBOLS
                            *ABS*:0000000000000000 hal_usb_lld.c
     /tmp/ccfraM8n.s:17     .text:0000000000000000 $t
     /tmp/ccfraM8n.s:25     .text:0000000000000000 otg_txfifo_handler.constprop.11
     /tmp/ccfraM8n.s:197    .text:00000000000000a4 $d
                            *COM*:000000000000009c USBD1
     /tmp/ccfraM8n.s:201    .text:00000000000000a8 $t
     /tmp/ccfraM8n.s:209    .text:00000000000000b0 usb_lld_init
     /tmp/ccfraM8n.s:237    .text:00000000000000c4 $d
     /tmp/ccfraM8n.s:243    .text:00000000000000d0 $t
     /tmp/ccfraM8n.s:251    .text:00000000000000d0 usb_lld_start
     /tmp/ccfraM8n.s:549    .text:00000000000001f8 $d
     /tmp/ccfraM8n.s:558    .text:0000000000000210 $t
     /tmp/ccfraM8n.s:566    .text:0000000000000210 usb_lld_stop
     /tmp/ccfraM8n.s:723    .text:00000000000002a8 $d
     /tmp/ccfraM8n.s:728    .text:00000000000002b0 $t
     /tmp/ccfraM8n.s:736    .text:00000000000002b0 usb_lld_reset
     /tmp/ccfraM8n.s:998    .text:0000000000000374 $d
     /tmp/ccfraM8n.s:1004   .text:0000000000000380 $t
     /tmp/ccfraM8n.s:1012   .text:0000000000000380 usb_lld_set_address
     /tmp/ccfraM8n.s:1048   .text:00000000000003a0 usb_lld_init_endpoint
     /tmp/ccfraM8n.s:1327   .text:00000000000004d0 $d
     /tmp/ccfraM8n.s:1332   .text:00000000000004d8 $t
     /tmp/ccfraM8n.s:1340   .text:00000000000004e0 usb_lld_disable_endpoints
     /tmp/ccfraM8n.s:1457   .text:0000000000000540 usb_lld_get_status_out
     /tmp/ccfraM8n.s:1504   .text:0000000000000560 usb_lld_get_status_in
     /tmp/ccfraM8n.s:1551   .text:0000000000000580 usb_lld_read_setup
     /tmp/ccfraM8n.s:1584   .text:00000000000005a0 usb_lld_start_out
     /tmp/ccfraM8n.s:1720   .text:0000000000000630 otg_epout_handler.constprop.9
     /tmp/ccfraM8n.s:2172   .text:00000000000006e0 $d
     /tmp/ccfraM8n.s:2176   .text:00000000000006e4 $t
     /tmp/ccfraM8n.s:2184   .text:00000000000006f0 usb_lld_start_in
     /tmp/ccfraM8n.s:2339   .text:00000000000007a0 otg_epin_handler.constprop.10
     /tmp/ccfraM8n.s:2794   .text:0000000000000850 $d
     /tmp/ccfraM8n.s:2805   .text:0000000000000854 $t
     /tmp/ccfraM8n.s:2813   .text:0000000000000860 Vector1D4
     /tmp/ccfraM8n.s:3992   .text:0000000000000b78 $d
     /tmp/ccfraM8n.s:3997   .text:0000000000000b80 $t
     /tmp/ccfraM8n.s:4262   .text:0000000000000c98 $d
     /tmp/ccfraM8n.s:4268   .text:0000000000000c9c $t
     /tmp/ccfraM8n.s:4276   .text:0000000000000ca0 usb_lld_stall_out
     /tmp/ccfraM8n.s:4305   .text:0000000000000cc0 usb_lld_stall_in
     /tmp/ccfraM8n.s:4334   .text:0000000000000ce0 usb_lld_clear_out
     /tmp/ccfraM8n.s:4363   .text:0000000000000d00 usb_lld_clear_in
     /tmp/ccfraM8n.s:4386   .rodata:0000000000000000 $d
     /tmp/ccfraM8n.s:4390   .rodata:0000000000000000 fsparams
     /tmp/ccfraM8n.s:4396   .rodata:000000000000000c ep0config
     /tmp/ccfraM8n.s:4427   .bss:0000000000000008 ep0_state
     /tmp/ccfraM8n.s:4423   .bss:0000000000000000 ep0setup_buffer
     /tmp/ccfraM8n.s:4410   .rodata:0000000000000030 CSWTCH.15
     /tmp/ccfraM8n.s:4417   .rodata:0000000000000040 __func__.12282
     /tmp/ccfraM8n.s:4420   .bss:0000000000000000 $d

UNDEFINED SYMBOLS
usbObjectInit
chSysPolledDelayX
nvicEnableVector
ARM GAS  /tmp/ccfraM8n.s 			page 430


nvicDisableVector
chThdResumeI
_trace_isr_enter
_usb_suspend
_trace_isr_leave
_port_irq_epilogue
_usb_wakeup
_usb_reset
_usb_ep0setup
_usb_ep0in
_usb_ep0out
