ARM GAS  /tmp/ccyzoGuO.s 			page 1


   1              		.cpu cortex-m7
   2              		.eabi_attribute 27, 1
   3              		.eabi_attribute 28, 1
   4              		.eabi_attribute 20, 1
   5              		.eabi_attribute 21, 1
   6              		.eabi_attribute 23, 3
   7              		.eabi_attribute 24, 1
   8              		.eabi_attribute 25, 1
   9              		.eabi_attribute 26, 1
  10              		.eabi_attribute 30, 2
  11              		.eabi_attribute 34, 1
  12              		.eabi_attribute 18, 4
  13              		.file	"hal_sdc.c"
  14              		.text
  15              	.Ltext0:
  16              		.cfi_sections	.debug_frame
  17              		.align	1
  18              		.p2align 4,,15
  19              		.global	sdcGetInfo
  20              		.arch armv7e-m
  21              		.syntax unified
  22              		.thumb
  23              		.thumb_func
  24              		.fpu fpv4-sp-d16
  25              		.type	sdcGetInfo, %function
  26              	sdcGetInfo:
  27              	.LVL0:
  28              	.LFB385:
  29              		.file 1 "../../../external/ChibiOS/os/hal/src/hal_sdc.c"
  30              		.loc 1 919 57 view -0
  31              		.cfi_startproc
  32              		@ args = 0, pretend = 0, frame = 0
  33              		@ frame_needed = 0, uses_anonymous_args = 0
  34              		@ link register save eliminated.
  35              		.loc 1 921 3 view .LVU1
  36              		.loc 1 921 3 view .LVU2
  37              		.loc 1 923 3 view .LVU3
  38              		.loc 1 923 6 is_stmt 0 view .LVU4
  39 0000 0379     		ldrb	r3, [r0, #4]	@ zero_extendqisi2
  40 0002 052B     		cmp	r3, #5
  41 0004 06D1     		bne	.L3
  42              		.loc 1 927 3 is_stmt 1 view .LVU5
  43              		.loc 1 927 17 is_stmt 0 view .LVU6
  44 0006 826A     		ldr	r2, [r0, #40]
  45              		.loc 1 928 18 view .LVU7
  46 0008 4FF40073 		mov	r3, #512
  47              		.loc 1 930 10 view .LVU8
  48 000c 0020     		movs	r0, #0
  49              	.LVL1:
  50              		.loc 1 928 18 view .LVU9
  51 000e C1E90032 		strd	r3, r2, [r1]
  52              		.loc 1 930 3 is_stmt 1 view .LVU10
  53              		.loc 1 930 10 is_stmt 0 view .LVU11
  54 0012 7047     		bx	lr
  55              	.LVL2:
  56              	.L3:
  57              		.loc 1 924 12 view .LVU12
ARM GAS  /tmp/ccyzoGuO.s 			page 2


  58 0014 0120     		movs	r0, #1
  59              	.LVL3:
  60              		.loc 1 931 1 view .LVU13
  61 0016 7047     		bx	lr
  62              		.cfi_endproc
  63              	.LFE385:
  64              		.size	sdcGetInfo, .-sdcGetInfo
  65              		.align	1
  66 0018 AFF30080 		.p2align 4,,15
  66      AFF30080 
  67              		.global	sdcConnect
  68              		.syntax unified
  69              		.thumb
  70              		.thumb_func
  71              		.fpu fpv4-sp-d16
  72              		.type	sdcConnect, %function
  73              	sdcConnect:
  74              	.LVL4:
  75              	.LFB379:
  76              		.loc 1 620 34 is_stmt 1 view -0
  77              		.cfi_startproc
  78              		@ args = 0, pretend = 0, frame = 8
  79              		@ frame_needed = 0, uses_anonymous_args = 0
  80              		.loc 1 621 3 view .LVU15
  81              		.loc 1 622 3 view .LVU16
  82              		.loc 1 624 3 view .LVU17
  83              		.loc 1 624 3 view .LVU18
  84              		.loc 1 625 3 view .LVU19
  85              		.loc 1 625 3 view .LVU20
  86              		.loc 1 629 3 view .LVU21
  87              		.loc 1 629 15 is_stmt 0 view .LVU22
  88 0020 0323     		movs	r3, #3
  89              		.loc 1 620 34 view .LVU23
  90 0022 2DE9F041 		push	{r4, r5, r6, r7, r8, lr}
  91              		.cfi_def_cfa_offset 24
  92              		.cfi_offset 4, -24
  93              		.cfi_offset 5, -20
  94              		.cfi_offset 6, -16
  95              		.cfi_offset 7, -12
  96              		.cfi_offset 8, -8
  97              		.cfi_offset 14, -4
  98              		.loc 1 629 15 view .LVU24
  99 0026 0371     		strb	r3, [r0, #4]
 100              		.loc 1 632 3 is_stmt 1 view .LVU25
 101              		.loc 1 620 34 is_stmt 0 view .LVU26
 102 0028 84B0     		sub	sp, sp, #16
 103              		.cfi_def_cfa_offset 40
 104              		.loc 1 620 34 view .LVU27
 105 002a 0446     		mov	r4, r0
 106              		.loc 1 632 3 view .LVU28
 107 002c FFF7FEFF 		bl	sdc_lld_start_clk
 108              	.LVL5:
 109              		.loc 1 635 3 is_stmt 1 view .LVU29
 110 0030 0022     		movs	r2, #0
 111 0032 2046     		mov	r0, r4
 112 0034 1146     		mov	r1, r2
 113 0036 FFF7FEFF 		bl	sdc_lld_send_cmd_none
ARM GAS  /tmp/ccyzoGuO.s 			page 3


 114              	.LVL6:
 115              		.loc 1 638 3 view .LVU30
 116              	.LBB145:
 117              	.LBI145:
 118              		.loc 1 100 13 view .LVU31
 119              	.LBB146:
 120              		.loc 1 101 3 view .LVU32
 121              		.loc 1 104 3 view .LVU33
 122              		.loc 1 104 8 is_stmt 0 view .LVU34
 123 003a 2046     		mov	r0, r4
 124 003c 03AB     		add	r3, sp, #12
 125 003e 4FF4D572 		mov	r2, #426
 126 0042 0821     		movs	r1, #8
 127 0044 FFF7FEFF 		bl	sdc_lld_send_cmd_short_crc
 128              	.LVL7:
 129              		.loc 1 104 6 view .LVU35
 130 0048 E8B9     		cbnz	r0, .L6
 131              		.loc 1 106 5 is_stmt 1 view .LVU36
 132              		.loc 1 108 19 is_stmt 0 view .LVU37
 133 004a 039B     		ldr	r3, [sp, #12]
 134              		.loc 1 106 20 view .LVU38
 135 004c 0122     		movs	r2, #1
 136              		.loc 1 108 26 view .LVU39
 137 004e C3F30323 		ubfx	r3, r3, #8, #4
 138              		.loc 1 106 20 view .LVU40
 139 0052 2263     		str	r2, [r4, #48]
 140              		.loc 1 108 5 is_stmt 1 view .LVU41
 141              		.loc 1 108 8 is_stmt 0 view .LVU42
 142 0054 9342     		cmp	r3, r2
 143 0056 09D0     		beq	.L80
 144              	.LVL8:
 145              	.L8:
 146              		.loc 1 108 8 view .LVU43
 147              	.LBE146:
 148              	.LBE145:
 149              		.loc 1 738 3 is_stmt 1 view .LVU44
 150 0058 2046     		mov	r0, r4
 151              		.loc 1 740 10 is_stmt 0 view .LVU45
 152 005a 0125     		movs	r5, #1
 153              		.loc 1 738 3 view .LVU46
 154 005c FFF7FEFF 		bl	sdc_lld_stop_clk
 155              	.LVL9:
 156              		.loc 1 739 3 is_stmt 1 view .LVU47
 157              		.loc 1 739 15 is_stmt 0 view .LVU48
 158 0060 0223     		movs	r3, #2
 159 0062 2371     		strb	r3, [r4, #4]
 160              		.loc 1 740 3 is_stmt 1 view .LVU49
 161              	.L44:
 162              	.LVL10:
 163              		.loc 1 741 1 is_stmt 0 view .LVU50
 164 0064 2846     		mov	r0, r5
 165 0066 04B0     		add	sp, sp, #16
 166              		.cfi_remember_state
 167              		.cfi_def_cfa_offset 24
 168              		@ sp needed
 169 0068 BDE8F081 		pop	{r4, r5, r6, r7, r8, pc}
 170              	.LVL11:
ARM GAS  /tmp/ccyzoGuO.s 			page 4


 171              	.L80:
 172              		.cfi_restore_state
 173              	.LBB149:
 174              	.LBB147:
 175              		.loc 1 111 5 is_stmt 1 view .LVU51
 176              		.loc 1 111 9 is_stmt 0 view .LVU52
 177 006c 0246     		mov	r2, r0
 178 006e 03AB     		add	r3, sp, #12
 179 0070 3721     		movs	r1, #55
 180 0072 2046     		mov	r0, r4
 181 0074 FFF7FEFF 		bl	sdc_lld_send_cmd_short_crc
 182              	.LVL12:
 183              		.loc 1 111 8 view .LVU53
 184 0078 0028     		cmp	r0, #0
 185 007a EDD1     		bne	.L8
 186              		.loc 1 112 9 view .LVU54
 187 007c 039A     		ldr	r2, [sp, #12]
 188 007e A14B     		ldr	r3, .L86
 189 0080 1340     		ands	r3, r3, r2
 190              		.loc 1 111 70 view .LVU55
 191 0082 8BB1     		cbz	r3, .L14
 192 0084 E8E7     		b	.L8
 193              	.L6:
 194              		.loc 1 118 5 is_stmt 1 view .LVU56
 195              		.loc 1 118 9 is_stmt 0 view .LVU57
 196 0086 03AB     		add	r3, sp, #12
 197 0088 0022     		movs	r2, #0
 198 008a 3721     		movs	r1, #55
 199 008c 2046     		mov	r0, r4
 200 008e FFF7FEFF 		bl	sdc_lld_send_cmd_short_crc
 201              	.LVL13:
 202              		.loc 1 118 8 view .LVU58
 203 0092 0028     		cmp	r0, #0
 204 0094 33D1     		bne	.L11
 205              		.loc 1 119 9 view .LVU59
 206 0096 039B     		ldr	r3, [sp, #12]
 207 0098 9A4A     		ldr	r2, .L86
 208 009a 1A40     		ands	r2, r2, r3
 209              		.loc 1 118 70 view .LVU60
 210 009c 7ABB     		cbnz	r2, .L11
 211              		.loc 1 123 7 is_stmt 1 view .LVU61
 212              		.loc 1 123 22 is_stmt 0 view .LVU62
 213 009e 2263     		str	r2, [r4, #48]
 214              		.loc 1 126 7 is_stmt 1 view .LVU63
 215 00a0 1146     		mov	r1, r2
 216 00a2 2046     		mov	r0, r4
 217 00a4 FFF7FEFF 		bl	sdc_lld_send_cmd_none
 218              	.LVL14:
 219              	.L14:
 220              		.loc 1 126 7 is_stmt 0 view .LVU64
 221              	.LBE147:
 222              	.LBE149:
 223              		.loc 1 643 3 is_stmt 1 view .LVU65
 224              		.loc 1 643 23 is_stmt 0 view .LVU66
 225 00a8 266B     		ldr	r6, [r4, #48]
 226 00aa 06F00F03 		and	r3, r6, #15
 227              		.loc 1 643 6 view .LVU67
ARM GAS  /tmp/ccyzoGuO.s 			page 5


 228 00ae 022B     		cmp	r3, #2
 229 00b0 27D0     		beq	.L13
 230              		.loc 1 649 5 is_stmt 1 view .LVU68
 231              	.LVL15:
 232              	.LBB150:
 233              	.LBI150:
 234              		.loc 1 181 13 view .LVU69
 235              	.LBB151:
 236              		.loc 1 182 3 view .LVU70
 237              		.loc 1 183 3 view .LVU71
 238              		.loc 1 184 3 view .LVU72
 239              		.loc 1 186 3 view .LVU73
 240              		.loc 1 190 9 is_stmt 0 view .LVU74
 241 00b2 954E     		ldr	r6, .L86+4
 242 00b4 6425     		movs	r5, #100
 243 00b6 954A     		ldr	r2, .L86+8
 244              		.loc 1 196 9 view .LVU75
 245 00b8 DFF84882 		ldr	r8, .L86
 246              		.loc 1 190 9 view .LVU76
 247 00bc 012B     		cmp	r3, #1
 248 00be 18BF     		it	ne
 249 00c0 1646     		movne	r6, r2
 250              	.LVL16:
 251              		.loc 1 193 3 is_stmt 1 view .LVU77
 252              		.loc 1 193 3 is_stmt 0 view .LVU78
 253 00c2 10E0     		b	.L25
 254              	.LVL17:
 255              	.L81:
 256              		.loc 1 195 70 view .LVU79
 257 00c4 039F     		ldr	r7, [sp, #12]
 258              		.loc 1 199 9 view .LVU80
 259 00c6 2046     		mov	r0, r4
 260              		.loc 1 195 70 view .LVU81
 261 00c8 17EA080F 		tst	r7, r8
 262 00cc C4D1     		bne	.L8
 263              	.LVL18:
 264              		.loc 1 199 9 view .LVU82
 265 00ce FFF7FEFF 		bl	sdc_lld_send_cmd_short
 266              	.LVL19:
 267              		.loc 1 202 5 is_stmt 1 view .LVU83
 268              		.loc 1 208 5 view .LVU84
 269              		.loc 1 211 5 view .LVU85
 270              	.LBB152:
 271              	.LBI152:
 272              		.file 2 "../../../external/ChibiOS/os/hal/osal/rt-nil/osal.h"
 273              		.loc 2 718 20 view .LVU86
 274              	.LBB153:
 275              		.loc 2 720 3 view .LVU87
 276              	.LBE153:
 277              	.LBE152:
 278              		.loc 1 199 8 is_stmt 0 view .LVU88
 279 00d2 0028     		cmp	r0, #0
 280 00d4 C0D1     		bne	.L8
 281              		.loc 1 202 14 view .LVU89
 282 00d6 039B     		ldr	r3, [sp, #12]
 283              	.LBB156:
 284              	.LBB154:
ARM GAS  /tmp/ccyzoGuO.s 			page 6


 285              		.loc 2 720 3 view .LVU90
 286 00d8 6420     		movs	r0, #100
 287              	.LBE154:
 288              	.LBE156:
 289              		.loc 1 202 8 view .LVU91
 290 00da 002B     		cmp	r3, #0
 291 00dc 25DB     		blt	.L79
 292              		.loc 1 208 8 view .LVU92
 293 00de 013D     		subs	r5, r5, #1
 294              	.LVL20:
 295              		.loc 1 208 8 view .LVU93
 296 00e0 BAD0     		beq	.L8
 297              	.LBB157:
 298              	.LBB155:
 299              		.loc 2 720 3 view .LVU94
 300 00e2 FFF7FEFF 		bl	chThdSleep
 301              	.LVL21:
 302              	.L25:
 303              		.loc 2 720 3 view .LVU95
 304              	.LBE155:
 305              	.LBE157:
 306              		.loc 1 194 3 is_stmt 1 view .LVU96
 307              		.loc 1 195 5 view .LVU97
 308              		.loc 1 195 9 is_stmt 0 view .LVU98
 309 00e6 03AB     		add	r3, sp, #12
 310 00e8 0022     		movs	r2, #0
 311 00ea 3721     		movs	r1, #55
 312 00ec 2046     		mov	r0, r4
 313 00ee FFF7FEFF 		bl	sdc_lld_send_cmd_short_crc
 314              	.LVL22:
 315              		.loc 1 199 5 is_stmt 1 view .LVU99
 316              		.loc 1 199 9 is_stmt 0 view .LVU100
 317 00f2 03AB     		add	r3, sp, #12
 318 00f4 3246     		mov	r2, r6
 319 00f6 2921     		movs	r1, #41
 320              		.loc 1 195 8 view .LVU101
 321 00f8 0028     		cmp	r0, #0
 322 00fa E3D0     		beq	.L81
 323              	.LVL23:
 324              		.loc 1 195 8 view .LVU102
 325 00fc ACE7     		b	.L8
 326              	.LVL24:
 327              	.L11:
 328              		.loc 1 195 8 view .LVU103
 329              	.LBE151:
 330              	.LBE150:
 331              	.LBB159:
 332              	.LBB148:
 333              		.loc 1 120 7 is_stmt 1 view .LVU104
 334              		.loc 1 120 22 is_stmt 0 view .LVU105
 335 00fe 0223     		movs	r3, #2
 336 0100 2363     		str	r3, [r4, #48]
 337              	.LVL25:
 338              		.loc 1 120 22 view .LVU106
 339              	.LBE148:
 340              	.LBE159:
 341              		.loc 1 643 3 is_stmt 1 view .LVU107
ARM GAS  /tmp/ccyzoGuO.s 			page 7


 342              	.L13:
 343              		.loc 1 620 34 is_stmt 0 view .LVU108
 344 0102 6425     		movs	r5, #100
 345              	.LBB160:
 346              	.LBB161:
 347              		.loc 1 152 9 view .LVU109
 348 0104 824E     		ldr	r6, .L86+12
 349 0106 07E0     		b	.L20
 350              	.LVL26:
 351              	.L82:
 352              		.loc 1 155 14 view .LVU110
 353 0108 039B     		ldr	r3, [sp, #12]
 354              	.LBB162:
 355              	.LBB163:
 356              		.loc 2 720 3 view .LVU111
 357 010a 6420     		movs	r0, #100
 358              	.LBE163:
 359              	.LBE162:
 360              		.loc 1 155 8 view .LVU112
 361 010c 002B     		cmp	r3, #0
 362 010e 0CDB     		blt	.L79
 363              		.loc 1 161 8 view .LVU113
 364 0110 013D     		subs	r5, r5, #1
 365              	.LVL27:
 366              		.loc 1 161 8 view .LVU114
 367 0112 A1D0     		beq	.L8
 368              	.LBB166:
 369              	.LBB164:
 370              		.loc 2 720 3 view .LVU115
 371 0114 FFF7FEFF 		bl	chThdSleep
 372              	.LVL28:
 373              	.L20:
 374              		.loc 2 720 3 view .LVU116
 375              	.LBE164:
 376              	.LBE166:
 377              		.loc 1 151 3 is_stmt 1 view .LVU117
 378              		.loc 1 152 5 view .LVU118
 379              		.loc 1 152 9 is_stmt 0 view .LVU119
 380 0118 03AB     		add	r3, sp, #12
 381 011a 3246     		mov	r2, r6
 382 011c 0121     		movs	r1, #1
 383 011e 2046     		mov	r0, r4
 384 0120 FFF7FEFF 		bl	sdc_lld_send_cmd_short
 385              	.LVL29:
 386              		.loc 1 155 5 is_stmt 1 view .LVU120
 387              		.loc 1 161 5 view .LVU121
 388              		.loc 1 164 5 view .LVU122
 389              	.LBB167:
 390              	.LBI162:
 391              		.loc 2 718 20 view .LVU123
 392              	.LBB165:
 393              		.loc 2 720 3 view .LVU124
 394              	.LBE165:
 395              	.LBE167:
 396              		.loc 1 152 8 is_stmt 0 view .LVU125
 397 0124 0028     		cmp	r0, #0
 398 0126 EFD0     		beq	.L82
ARM GAS  /tmp/ccyzoGuO.s 			page 8


 399 0128 96E7     		b	.L8
 400              	.LVL30:
 401              	.L79:
 402              		.loc 1 152 8 view .LVU126
 403              	.LBE161:
 404              	.LBE160:
 405              	.LBB168:
 406              	.LBB158:
 407              		.loc 1 203 7 is_stmt 1 view .LVU127
 408              		.loc 1 203 10 is_stmt 0 view .LVU128
 409 012a 5A00     		lsls	r2, r3, #1
 410 012c 03D5     		bpl	.L19
 411              		.loc 1 204 9 is_stmt 1 view .LVU129
 412              		.loc 1 204 24 is_stmt 0 view .LVU130
 413 012e 236B     		ldr	r3, [r4, #48]
 414 0130 43F01003 		orr	r3, r3, #16
 415 0134 2363     		str	r3, [r4, #48]
 416              	.L19:
 417              		.loc 1 204 24 view .LVU131
 418              	.LBE158:
 419              	.LBE168:
 420              		.loc 1 655 3 is_stmt 1 view .LVU132
 421              		.loc 1 655 7 is_stmt 0 view .LVU133
 422 0136 04F10803 		add	r3, r4, #8
 423 013a 0022     		movs	r2, #0
 424 013c 0221     		movs	r1, #2
 425 013e 2046     		mov	r0, r4
 426 0140 FFF7FEFF 		bl	sdc_lld_send_cmd_long_crc
 427              	.LVL31:
 428              		.loc 1 655 6 view .LVU134
 429 0144 0028     		cmp	r0, #0
 430 0146 87D1     		bne	.L8
 431              		.loc 1 660 3 is_stmt 1 view .LVU135
 432              		.loc 1 660 7 is_stmt 0 view .LVU136
 433 0148 0246     		mov	r2, r0
 434 014a 04F13803 		add	r3, r4, #56
 435 014e 0321     		movs	r1, #3
 436 0150 2046     		mov	r0, r4
 437 0152 FFF7FEFF 		bl	sdc_lld_send_cmd_short_crc
 438              	.LVL32:
 439              		.loc 1 660 6 view .LVU137
 440 0156 0028     		cmp	r0, #0
 441 0158 7FF47EAF 		bne	.L8
 442              		.loc 1 666 3 is_stmt 1 view .LVU138
 443              		.loc 1 667 48 is_stmt 0 view .LVU139
 444 015c 04F11805 		add	r5, r4, #24
 445              		.loc 1 666 7 view .LVU140
 446 0160 A26B     		ldr	r2, [r4, #56]
 447 0162 0921     		movs	r1, #9
 448 0164 2046     		mov	r0, r4
 449 0166 2B46     		mov	r3, r5
 450 0168 FFF7FEFF 		bl	sdc_lld_send_cmd_long_crc
 451              	.LVL33:
 452              		.loc 1 666 6 view .LVU141
 453 016c 0028     		cmp	r0, #0
 454 016e 7FF473AF 		bne	.L8
 455              		.loc 1 672 3 is_stmt 1 view .LVU142
ARM GAS  /tmp/ccyzoGuO.s 			page 9


 456              		.loc 1 672 7 is_stmt 0 view .LVU143
 457 0172 A26B     		ldr	r2, [r4, #56]
 458 0174 0721     		movs	r1, #7
 459 0176 2046     		mov	r0, r4
 460 0178 02AB     		add	r3, sp, #8
 461 017a FFF7FEFF 		bl	sdc_lld_send_cmd_short_crc
 462              	.LVL34:
 463              		.loc 1 672 6 view .LVU144
 464 017e 0646     		mov	r6, r0
 465 0180 0028     		cmp	r0, #0
 466 0182 7FF469AF 		bne	.L8
 467              		.loc 1 678 3 is_stmt 1 view .LVU145
 468              	.LVL35:
 469              	.LBB169:
 470              	.LBI169:
 471              		.loc 1 404 13 view .LVU146
 472              	.LBB170:
 473              		.loc 1 406 3 view .LVU147
 474              		.loc 1 406 48 is_stmt 0 view .LVU148
 475 0186 236B     		ldr	r3, [r4, #48]
 476 0188 03F00F03 		and	r3, r3, #15
 477              		.loc 1 406 6 view .LVU149
 478 018c 022B     		cmp	r3, #2
 479 018e 57D0     		beq	.L83
 480              		.loc 1 409 3 is_stmt 1 view .LVU150
 481              	.LVL36:
 482              	.LBB171:
 483              	.LBI171:
 484              		.loc 1 322 13 view .LVU151
 485              	.LBB172:
 486              		.loc 1 323 3 view .LVU152
 487              		.loc 1 324 3 view .LVU153
 488              		.loc 1 328 3 view .LVU154
 489              		.loc 1 332 3 view .LVU155
 490              		.loc 1 332 13 is_stmt 0 view .LVU156
 491 0190 7E22     		movs	r2, #126
 492 0192 7F21     		movs	r1, #127
 493 0194 2846     		mov	r0, r5
 494 0196 FFF7FEFF 		bl	_mmcsd_get_slice
 495              	.LVL37:
 496              		.loc 1 332 6 view .LVU157
 497 019a 68B1     		cbz	r0, .L31
 498              		.loc 1 338 3 is_stmt 1 view .LVU158
 499              		.loc 1 338 7 is_stmt 0 view .LVU159
 500 019c 5D4F     		ldr	r7, .L86+16
 501 019e 0623     		movs	r3, #6
 502 01a0 0096     		str	r6, [sp]
 503 01a2 4022     		movs	r2, #64
 504 01a4 3946     		mov	r1, r7
 505 01a6 2046     		mov	r0, r4
 506 01a8 FFF7FEFF 		bl	sdc_lld_read_special
 507              	.LVL38:
 508              		.loc 1 338 6 view .LVU160
 509 01ac 0028     		cmp	r0, #0
 510 01ae 7FF453AF 		bne	.L8
 511              		.loc 1 343 3 is_stmt 1 view .LVU161
 512              	.LVL39:
ARM GAS  /tmp/ccyzoGuO.s 			page 10


 513              	.LBB173:
 514              	.LBI173:
 515              		.loc 1 271 17 view .LVU162
 516              	.LBB174:
 517              		.loc 1 274 3 view .LVU163
 518              		.loc 1 276 3 view .LVU164
 519              		.loc 1 276 54 is_stmt 0 view .LVU165
 520 01b2 7B7B     		ldrb	r3, [r7, #13]	@ zero_extendqisi2
 521              	.LBE174:
 522              	.LBE173:
 523              		.loc 1 343 6 view .LVU166
 524 01b4 9B07     		lsls	r3, r3, #30
 525 01b6 6CD4     		bmi	.L84
 526              	.LVL40:
 527              	.L31:
 528              		.loc 1 333 10 view .LVU167
 529 01b8 0021     		movs	r1, #0
 530              	.L29:
 531              	.LBE172:
 532              	.LBE171:
 533              	.LBE170:
 534              	.LBE169:
 535              		.loc 1 681 3 is_stmt 1 view .LVU168
 536 01ba 2046     		mov	r0, r4
 537 01bc FFF7FEFF 		bl	sdc_lld_set_data_clk
 538              	.LVL41:
 539              		.loc 1 684 3 view .LVU169
 540              		.loc 1 684 48 is_stmt 0 view .LVU170
 541 01c0 236B     		ldr	r3, [r4, #48]
 542 01c2 03F00F03 		and	r3, r3, #15
 543              		.loc 1 684 6 view .LVU171
 544 01c6 022B     		cmp	r3, #2
 545 01c8 49D0     		beq	.L85
 546              	.L32:
 547              		.loc 1 704 5 is_stmt 1 view .LVU172
 548              		.loc 1 704 22 is_stmt 0 view .LVU173
 549 01ca 2846     		mov	r0, r5
 550 01cc FFF7FEFF 		bl	_mmcsd_get_capacity
 551              	.LVL42:
 552              		.loc 1 704 20 view .LVU174
 553 01d0 A062     		str	r0, [r4, #40]
 554              	.L34:
 555              		.loc 1 708 3 is_stmt 1 view .LVU175
 556              		.loc 1 708 7 is_stmt 0 view .LVU176
 557 01d2 02AB     		add	r3, sp, #8
 558 01d4 4FF40072 		mov	r2, #512
 559 01d8 1021     		movs	r1, #16
 560 01da 2046     		mov	r0, r4
 561 01dc FFF7FEFF 		bl	sdc_lld_send_cmd_short_crc
 562              	.LVL43:
 563              		.loc 1 708 6 view .LVU177
 564 01e0 0546     		mov	r5, r0
 565 01e2 0028     		cmp	r0, #0
 566 01e4 7FF438AF 		bne	.L8
 567              		.loc 1 710 7 view .LVU178
 568 01e8 029B     		ldr	r3, [sp, #8]
 569 01ea 464E     		ldr	r6, .L86
ARM GAS  /tmp/ccyzoGuO.s 			page 11


 570              		.loc 1 709 58 view .LVU179
 571 01ec 3342     		tst	r3, r6
 572 01ee 7FF433AF 		bne	.L8
 573              		.loc 1 715 3 is_stmt 1 view .LVU180
 574              		.loc 1 715 26 is_stmt 0 view .LVU181
 575 01f2 236B     		ldr	r3, [r4, #48]
 576 01f4 03F00F03 		and	r3, r3, #15
 577              		.loc 1 715 3 view .LVU182
 578 01f8 012B     		cmp	r3, #1
 579 01fa 5CD9     		bls	.L35
 580 01fc 022B     		cmp	r3, #2
 581 01fe 7FF42BAF 		bne	.L8
 582              		.loc 1 723 5 is_stmt 1 view .LVU183
 583              	.LVL44:
 584              	.LBB189:
 585              	.LBI189:
 586              		.loc 1 461 13 view .LVU184
 587              	.LBB190:
 588              		.loc 1 462 3 view .LVU185
 589              		.loc 1 463 3 view .LVU186
 590              		.loc 1 463 3 is_stmt 0 view .LVU187
 591              	.LBE190:
 592              	.LBE189:
 593              		.loc 1 232 3 is_stmt 1 view .LVU188
 594              		.loc 1 232 3 view .LVU189
 595              		.loc 1 233 3 view .LVU190
 596              		.loc 1 233 3 view .LVU191
 597              		.loc 1 235 3 view .LVU192
 598              	.LBB193:
 599              	.LBB191:
 600              		.loc 1 465 3 view .LVU193
 601              		.loc 1 465 23 is_stmt 0 view .LVU194
 602 0202 E36A     		ldr	r3, [r4, #44]
 603 0204 1978     		ldrb	r1, [r3]	@ zero_extendqisi2
 604              		.loc 1 465 3 view .LVU195
 605 0206 0129     		cmp	r1, #1
 606 0208 79D0     		beq	.L47
 607 020a B1B1     		cbz	r1, .L39
 608              		.loc 1 463 21 view .LVU196
 609 020c 424E     		ldr	r6, .L86+20
 610 020e 434B     		ldr	r3, .L86+24
 611 0210 0229     		cmp	r1, #2
 612 0212 18BF     		it	ne
 613 0214 1E46     		movne	r6, r3
 614              	.L40:
 615              	.LVL45:
 616              		.loc 1 480 3 is_stmt 1 view .LVU197
 617 0216 2046     		mov	r0, r4
 618 0218 FFF7FEFF 		bl	sdc_lld_set_bus_mode
 619              	.LVL46:
 620              		.loc 1 481 3 view .LVU198
 621              		.loc 1 481 7 is_stmt 0 view .LVU199
 622 021c 03AB     		add	r3, sp, #12
 623 021e 3246     		mov	r2, r6
 624 0220 0621     		movs	r1, #6
 625 0222 2046     		mov	r0, r4
 626 0224 FFF7FEFF 		bl	sdc_lld_send_cmd_short_crc
ARM GAS  /tmp/ccyzoGuO.s 			page 12


 627              	.LVL47:
 628              		.loc 1 481 6 view .LVU200
 629 0228 0028     		cmp	r0, #0
 630 022a 7FF415AF 		bne	.L8
 631              		.loc 1 482 7 view .LVU201
 632 022e 039A     		ldr	r2, [sp, #12]
 633 0230 344B     		ldr	r3, .L86
 634 0232 1340     		ands	r3, r3, r2
 635              		.loc 1 481 72 view .LVU202
 636 0234 002B     		cmp	r3, #0
 637 0236 7FF40FAF 		bne	.L8
 638              	.LVL48:
 639              	.L39:
 640              		.loc 1 481 72 view .LVU203
 641              	.LBE191:
 642              	.LBE193:
 643              		.loc 1 733 3 is_stmt 1 view .LVU204
 644              		.loc 1 733 15 is_stmt 0 view .LVU205
 645 023a 0523     		movs	r3, #5
 646 023c 2371     		strb	r3, [r4, #4]
 647              		.loc 1 734 3 is_stmt 1 view .LVU206
 648              		.loc 1 734 10 is_stmt 0 view .LVU207
 649 023e 11E7     		b	.L44
 650              	.L83:
 651              	.LBB194:
 652              	.LBB185:
 653              		.loc 1 407 5 is_stmt 1 view .LVU208
 654              	.LVL49:
 655              	.LBB179:
 656              	.LBI179:
 657              		.loc 1 376 13 view .LVU209
 658              	.LBB180:
 659              		.loc 1 377 3 view .LVU210
 660              		.loc 1 378 3 view .LVU211
 661              		.loc 1 381 3 view .LVU212
 662              		.loc 1 383 3 view .LVU213
 663              		.loc 1 383 3 is_stmt 0 view .LVU214
 664              	.LBE180:
 665              	.LBE179:
 666              	.LBE185:
 667              	.LBE194:
 668              		.loc 1 232 3 is_stmt 1 view .LVU215
 669              		.loc 1 232 3 view .LVU216
 670              		.loc 1 233 3 view .LVU217
 671              		.loc 1 233 3 view .LVU218
 672              		.loc 1 235 3 view .LVU219
 673              	.LBB195:
 674              	.LBB186:
 675              	.LBB182:
 676              	.LBB181:
 677              		.loc 1 384 3 view .LVU220
 678              		.loc 1 384 9 is_stmt 0 view .LVU221
 679 0240 03AB     		add	r3, sp, #12
 680 0242 374A     		ldr	r2, .L86+28
 681 0244 0621     		movs	r1, #6
 682 0246 2046     		mov	r0, r4
 683 0248 FFF7FEFF 		bl	sdc_lld_send_cmd_short_crc
ARM GAS  /tmp/ccyzoGuO.s 			page 13


 684              	.LVL50:
 685              		.loc 1 384 6 view .LVU222
 686 024c 0028     		cmp	r0, #0
 687 024e B3D1     		bne	.L31
 688              		.loc 1 385 36 view .LVU223
 689 0250 039B     		ldr	r3, [sp, #12]
 690 0252 2C49     		ldr	r1, .L86
 691 0254 1940     		ands	r1, r1, r3
 692              		.loc 1 381 8 view .LVU224
 693 0256 B1FA81F1 		clz	r1, r1
 694 025a 4909     		lsrs	r1, r1, #5
 695 025c ADE7     		b	.L29
 696              	.LVL51:
 697              	.L85:
 698              		.loc 1 381 8 view .LVU225
 699              	.LBE181:
 700              	.LBE182:
 701              	.LBE186:
 702              	.LBE195:
 703              		.loc 1 687 5 is_stmt 1 view .LVU226
 704              		.loc 1 687 9 is_stmt 0 view .LVU227
 705 025e 7E22     		movs	r2, #126
 706 0260 7F21     		movs	r1, #127
 707 0262 2846     		mov	r0, r5
 708 0264 FFF7FEFF 		bl	_mmcsd_get_slice
 709              	.LVL52:
 710              		.loc 1 687 8 view .LVU228
 711 0268 0128     		cmp	r0, #1
 712 026a AED9     		bls	.L32
 713              	.LBB196:
 714              		.loc 1 688 7 is_stmt 1 view .LVU229
 715              		.loc 1 690 11 is_stmt 0 view .LVU230
 716 026c 0020     		movs	r0, #0
 717              		.loc 1 688 16 view .LVU231
 718 026e 04F14805 		add	r5, r4, #72
 719              	.LVL53:
 720              		.loc 1 690 7 is_stmt 1 view .LVU232
 721              		.loc 1 690 11 is_stmt 0 view .LVU233
 722 0272 0823     		movs	r3, #8
 723 0274 4FF40072 		mov	r2, #512
 724 0278 0090     		str	r0, [sp]
 725 027a 2946     		mov	r1, r5
 726 027c 2046     		mov	r0, r4
 727 027e FFF7FEFF 		bl	sdc_lld_read_special
 728              	.LVL54:
 729              		.loc 1 690 10 view .LVU234
 730 0282 0028     		cmp	r0, #0
 731 0284 7FF4E8AE 		bne	.L8
 732              		.loc 1 695 7 is_stmt 1 view .LVU235
 733              		.loc 1 695 24 is_stmt 0 view .LVU236
 734 0288 2846     		mov	r0, r5
 735 028a FFF7FEFF 		bl	_mmcsd_get_capacity_ext
 736              	.LVL55:
 737              		.loc 1 695 22 view .LVU237
 738 028e A062     		str	r0, [r4, #40]
 739              	.LBE196:
 740 0290 9FE7     		b	.L34
ARM GAS  /tmp/ccyzoGuO.s 			page 14


 741              	.LVL56:
 742              	.L84:
 743              	.LBB197:
 744              	.LBB187:
 745              	.LBB183:
 746              	.LBB177:
 747              		.loc 1 345 5 is_stmt 1 view .LVU238
 748              		.loc 1 345 5 is_stmt 0 view .LVU239
 749              	.LBE177:
 750              	.LBE183:
 751              	.LBE187:
 752              	.LBE197:
 753              		.loc 1 252 3 is_stmt 1 view .LVU240
 754              		.loc 1 254 3 view .LVU241
 755              		.loc 1 254 3 view .LVU242
 756              		.loc 1 256 3 view .LVU243
 757              		.loc 1 257 3 view .LVU244
 758              		.loc 1 258 3 view .LVU245
 759              	.LBB198:
 760              	.LBB188:
 761              	.LBB184:
 762              	.LBB178:
 763              		.loc 1 348 5 view .LVU246
 764              		.loc 1 348 9 is_stmt 0 view .LVU247
 765 0292 2448     		ldr	r0, .L86+32
 766 0294 0623     		movs	r3, #6
 767 0296 4022     		movs	r2, #64
 768 0298 3946     		mov	r1, r7
 769 029a 0090     		str	r0, [sp]
 770 029c 2046     		mov	r0, r4
 771 029e FFF7FEFF 		bl	sdc_lld_read_special
 772              	.LVL57:
 773              		.loc 1 348 8 view .LVU248
 774 02a2 0028     		cmp	r0, #0
 775 02a4 7FF4D8AE 		bne	.L8
 776              		.loc 1 353 5 is_stmt 1 view .LVU249
 777              	.LVL58:
 778              	.LBB175:
 779              	.LBI175:
 780              		.loc 1 291 13 view .LVU250
 781              	.LBB176:
 782              		.loc 1 294 3 view .LVU251
 783              		.loc 1 295 3 view .LVU252
 784              		.loc 1 297 3 view .LVU253
 785              		.loc 1 300 3 view .LVU254
 786              		.loc 1 301 3 view .LVU255
 787              		.loc 1 299 9 is_stmt 0 view .LVU256
 788 02a8 397C     		ldrb	r1, [r7, #16]	@ zero_extendqisi2
 789              		.loc 1 300 10 view .LVU257
 790 02aa 01F00F01 		and	r1, r1, #15
 791              	.LBE176:
 792              	.LBE175:
 793              		.loc 1 328 8 view .LVU258
 794 02ae 0F39     		subs	r1, r1, #15
 795 02b0 18BF     		it	ne
 796 02b2 0121     		movne	r1, #1
 797 02b4 81E7     		b	.L29
ARM GAS  /tmp/ccyzoGuO.s 			page 15


 798              	.LVL59:
 799              	.L35:
 800              		.loc 1 328 8 view .LVU259
 801              	.LBE178:
 802              	.LBE184:
 803              	.LBE188:
 804              	.LBE198:
 805              		.loc 1 718 5 is_stmt 1 view .LVU260
 806              	.LBB199:
 807              	.LBI199:
 808              		.loc 1 423 13 view .LVU261
 809              	.LBB200:
 810              		.loc 1 424 3 view .LVU262
 811              		.loc 1 426 3 view .LVU263
 812              		.loc 1 426 36 is_stmt 0 view .LVU264
 813 02b6 E36A     		ldr	r3, [r4, #44]
 814 02b8 1978     		ldrb	r1, [r3]	@ zero_extendqisi2
 815              		.loc 1 426 6 view .LVU265
 816 02ba 0029     		cmp	r1, #0
 817 02bc BDD0     		beq	.L39
 818              		.loc 1 430 8 is_stmt 1 view .LVU266
 819              		.loc 1 430 11 is_stmt 0 view .LVU267
 820 02be 0129     		cmp	r1, #1
 821 02c0 7FF4CAAE 		bne	.L8
 822              		.loc 1 431 5 is_stmt 1 view .LVU268
 823 02c4 2046     		mov	r0, r4
 824 02c6 FFF7FEFF 		bl	sdc_lld_set_bus_mode
 825              	.LVL60:
 826              		.loc 1 432 5 view .LVU269
 827              		.loc 1 432 9 is_stmt 0 view .LVU270
 828 02ca 03AB     		add	r3, sp, #12
 829 02cc A26B     		ldr	r2, [r4, #56]
 830 02ce 3721     		movs	r1, #55
 831 02d0 2046     		mov	r0, r4
 832 02d2 FFF7FEFF 		bl	sdc_lld_send_cmd_short_crc
 833              	.LVL61:
 834              		.loc 1 432 8 view .LVU271
 835 02d6 0028     		cmp	r0, #0
 836 02d8 7FF4BEAE 		bne	.L8
 837              		.loc 1 433 9 view .LVU272
 838 02dc 039B     		ldr	r3, [sp, #12]
 839              		.loc 1 432 78 view .LVU273
 840 02de 3342     		tst	r3, r6
 841 02e0 7FF4BAAE 		bne	.L8
 842              		.loc 1 437 5 is_stmt 1 view .LVU274
 843              		.loc 1 437 9 is_stmt 0 view .LVU275
 844 02e4 03AB     		add	r3, sp, #12
 845 02e6 0222     		movs	r2, #2
 846 02e8 0621     		movs	r1, #6
 847 02ea 2046     		mov	r0, r4
 848 02ec FFF7FEFF 		bl	sdc_lld_send_cmd_short_crc
 849              	.LVL62:
 850              		.loc 1 437 8 view .LVU276
 851 02f0 0028     		cmp	r0, #0
 852 02f2 7FF4B1AE 		bne	.L8
 853              		.loc 1 438 9 view .LVU277
 854 02f6 039B     		ldr	r3, [sp, #12]
ARM GAS  /tmp/ccyzoGuO.s 			page 16


 855              		.loc 1 437 76 view .LVU278
 856 02f8 3342     		tst	r3, r6
 857 02fa 9ED0     		beq	.L39
 858 02fc ACE6     		b	.L8
 859              	.LVL63:
 860              	.L47:
 861              		.loc 1 437 76 view .LVU279
 862              	.LBE200:
 863              	.LBE199:
 864              	.LBB201:
 865              	.LBB192:
 866              		.loc 1 470 14 view .LVU280
 867 02fe 0A4E     		ldr	r6, .L86+36
 868 0300 89E7     		b	.L40
 869              	.L87:
 870 0302 00BF     		.align	2
 871              	.L86:
 872 0304 08E0FFFD 		.word	-33562616
 873 0308 0080FF50 		.word	1358921728
 874 030c 00001080 		.word	-2146435072
 875 0310 0080FFC0 		.word	-1056997376
 876 0314 00000000 		.word	.LANCHOR0
 877 0318 0002B703 		.word	62325248
 878 031c 0000B703 		.word	62324736
 879 0320 0001B903 		.word	62456064
 880 0324 F1FFFF80 		.word	-2130706447
 881 0328 0001B703 		.word	62324992
 882              	.LBE192:
 883              	.LBE201:
 884              		.cfi_endproc
 885              	.LFE379:
 886              		.size	sdcConnect, .-sdcConnect
 887              		.align	1
 888 032c AFF30080 		.p2align 4,,15
 889              		.global	sdcRead
 890              		.syntax unified
 891              		.thumb
 892              		.thumb_func
 893              		.fpu fpv4-sp-d16
 894              		.type	sdcRead, %function
 895              	sdcRead:
 896              	.LVL64:
 897              	.LFB381:
 898              		.loc 1 797 76 is_stmt 1 view -0
 899              		.cfi_startproc
 900              		@ args = 0, pretend = 0, frame = 0
 901              		@ frame_needed = 0, uses_anonymous_args = 0
 902              		.loc 1 798 3 view .LVU282
 903              		.loc 1 800 3 view .LVU283
 904              		.loc 1 800 3 view .LVU284
 905              		.loc 1 801 3 view .LVU285
 906              		.loc 1 801 3 view .LVU286
 907              		.loc 1 803 3 view .LVU287
 908              		.loc 1 797 76 is_stmt 0 view .LVU288
 909 0330 70B5     		push	{r4, r5, r6, lr}
 910              		.cfi_def_cfa_offset 16
 911              		.cfi_offset 4, -16
ARM GAS  /tmp/ccyzoGuO.s 			page 17


 912              		.cfi_offset 5, -12
 913              		.cfi_offset 6, -8
 914              		.cfi_offset 14, -4
 915              		.loc 1 803 21 view .LVU289
 916 0332 5D1E     		subs	r5, r3, #1
 917              		.loc 1 803 6 view .LVU290
 918 0334 866A     		ldr	r6, [r0, #40]
 919              		.loc 1 797 76 view .LVU291
 920 0336 0446     		mov	r4, r0
 921              		.loc 1 803 21 view .LVU292
 922 0338 0D44     		add	r5, r5, r1
 923              		.loc 1 803 6 view .LVU293
 924 033a B542     		cmp	r5, r6
 925 033c 05D9     		bls	.L89
 926              		.loc 1 804 5 is_stmt 1 view .LVU294
 927              		.loc 1 804 18 is_stmt 0 view .LVU295
 928 033e 436B     		ldr	r3, [r0, #52]
 929              	.LVL65:
 930              		.loc 1 805 12 view .LVU296
 931 0340 0120     		movs	r0, #1
 932              	.LVL66:
 933              		.loc 1 804 18 view .LVU297
 934 0342 43F08003 		orr	r3, r3, #128
 935 0346 6363     		str	r3, [r4, #52]
 936              		.loc 1 805 5 is_stmt 1 view .LVU298
 937              		.loc 1 816 1 is_stmt 0 view .LVU299
 938 0348 70BD     		pop	{r4, r5, r6, pc}
 939              	.LVL67:
 940              	.L89:
 941              	.LBB204:
 942              	.LBI204:
 943              		.loc 1 797 6 is_stmt 1 view .LVU300
 944              	.LBB205:
 945              		.loc 1 809 3 view .LVU301
 946              		.loc 1 809 15 is_stmt 0 view .LVU302
 947 034a 0625     		movs	r5, #6
 948 034c 0571     		strb	r5, [r0, #4]
 949              		.loc 1 811 3 is_stmt 1 view .LVU303
 950              		.loc 1 811 12 is_stmt 0 view .LVU304
 951 034e FFF7FEFF 		bl	sdc_lld_read
 952              	.LVL68:
 953              		.loc 1 814 3 is_stmt 1 view .LVU305
 954              		.loc 1 814 15 is_stmt 0 view .LVU306
 955 0352 0523     		movs	r3, #5
 956 0354 2371     		strb	r3, [r4, #4]
 957              		.loc 1 815 3 is_stmt 1 view .LVU307
 958              	.LVL69:
 959              		.loc 1 815 3 is_stmt 0 view .LVU308
 960              	.LBE205:
 961              	.LBE204:
 962              		.loc 1 816 1 view .LVU309
 963 0356 70BD     		pop	{r4, r5, r6, pc}
 964              		.loc 1 816 1 view .LVU310
 965              		.cfi_endproc
 966              	.LFE381:
 967              		.size	sdcRead, .-sdcRead
 968              		.align	1
ARM GAS  /tmp/ccyzoGuO.s 			page 18


 969 0358 AFF30080 		.p2align 4,,15
 969      AFF30080 
 970              		.global	sdcWrite
 971              		.syntax unified
 972              		.thumb
 973              		.thumb_func
 974              		.fpu fpv4-sp-d16
 975              		.type	sdcWrite, %function
 976              	sdcWrite:
 977              	.LVL70:
 978              	.LFB382:
 979              		.loc 1 835 47 is_stmt 1 view -0
 980              		.cfi_startproc
 981              		@ args = 0, pretend = 0, frame = 0
 982              		@ frame_needed = 0, uses_anonymous_args = 0
 983              		.loc 1 836 3 view .LVU312
 984              		.loc 1 838 3 view .LVU313
 985              		.loc 1 838 3 view .LVU314
 986              		.loc 1 839 3 view .LVU315
 987              		.loc 1 839 3 view .LVU316
 988              		.loc 1 841 3 view .LVU317
 989              		.loc 1 835 47 is_stmt 0 view .LVU318
 990 0360 70B5     		push	{r4, r5, r6, lr}
 991              		.cfi_def_cfa_offset 16
 992              		.cfi_offset 4, -16
 993              		.cfi_offset 5, -12
 994              		.cfi_offset 6, -8
 995              		.cfi_offset 14, -4
 996              		.loc 1 841 21 view .LVU319
 997 0362 5D1E     		subs	r5, r3, #1
 998              		.loc 1 841 6 view .LVU320
 999 0364 866A     		ldr	r6, [r0, #40]
 1000              		.loc 1 835 47 view .LVU321
 1001 0366 0446     		mov	r4, r0
 1002              		.loc 1 841 21 view .LVU322
 1003 0368 0D44     		add	r5, r5, r1
 1004              		.loc 1 841 6 view .LVU323
 1005 036a B542     		cmp	r5, r6
 1006 036c 05D9     		bls	.L93
 1007              		.loc 1 842 5 is_stmt 1 view .LVU324
 1008              		.loc 1 842 18 is_stmt 0 view .LVU325
 1009 036e 436B     		ldr	r3, [r0, #52]
 1010              	.LVL71:
 1011              		.loc 1 843 12 view .LVU326
 1012 0370 0120     		movs	r0, #1
 1013              	.LVL72:
 1014              		.loc 1 842 18 view .LVU327
 1015 0372 43F08003 		orr	r3, r3, #128
 1016 0376 6363     		str	r3, [r4, #52]
 1017              		.loc 1 843 5 is_stmt 1 view .LVU328
 1018              		.loc 1 854 1 is_stmt 0 view .LVU329
 1019 0378 70BD     		pop	{r4, r5, r6, pc}
 1020              	.LVL73:
 1021              	.L93:
 1022              	.LBB208:
 1023              	.LBI208:
 1024              		.loc 1 834 6 is_stmt 1 view .LVU330
ARM GAS  /tmp/ccyzoGuO.s 			page 19


 1025              	.LBB209:
 1026              		.loc 1 847 3 view .LVU331
 1027              		.loc 1 847 15 is_stmt 0 view .LVU332
 1028 037a 0725     		movs	r5, #7
 1029 037c 0571     		strb	r5, [r0, #4]
 1030              		.loc 1 849 3 is_stmt 1 view .LVU333
 1031              		.loc 1 849 12 is_stmt 0 view .LVU334
 1032 037e FFF7FEFF 		bl	sdc_lld_write
 1033              	.LVL74:
 1034              		.loc 1 852 3 is_stmt 1 view .LVU335
 1035              		.loc 1 852 15 is_stmt 0 view .LVU336
 1036 0382 0523     		movs	r3, #5
 1037 0384 2371     		strb	r3, [r4, #4]
 1038              		.loc 1 853 3 is_stmt 1 view .LVU337
 1039              	.LVL75:
 1040              		.loc 1 853 3 is_stmt 0 view .LVU338
 1041              	.LBE209:
 1042              	.LBE208:
 1043              		.loc 1 854 1 view .LVU339
 1044 0386 70BD     		pop	{r4, r5, r6, pc}
 1045              		.loc 1 854 1 view .LVU340
 1046              		.cfi_endproc
 1047              	.LFE382:
 1048              		.size	sdcWrite, .-sdcWrite
 1049              		.align	1
 1050 0388 AFF30080 		.p2align 4,,15
 1050      AFF30080 
 1051              		.global	sdcSync
 1052              		.syntax unified
 1053              		.thumb
 1054              		.thumb_func
 1055              		.fpu fpv4-sp-d16
 1056              		.type	sdcSync, %function
 1057              	sdcSync:
 1058              	.LVL76:
 1059              	.LFB384:
 1060              		.loc 1 888 31 is_stmt 1 view -0
 1061              		.cfi_startproc
 1062              		@ args = 0, pretend = 0, frame = 0
 1063              		@ frame_needed = 0, uses_anonymous_args = 0
 1064              		.loc 1 889 3 view .LVU342
 1065              		.loc 1 891 3 view .LVU343
 1066              		.loc 1 891 3 view .LVU344
 1067              		.loc 1 893 3 view .LVU345
 1068              		.loc 1 888 31 is_stmt 0 view .LVU346
 1069 0390 38B5     		push	{r3, r4, r5, lr}
 1070              		.cfi_def_cfa_offset 16
 1071              		.cfi_offset 3, -16
 1072              		.cfi_offset 4, -12
 1073              		.cfi_offset 5, -8
 1074              		.cfi_offset 14, -4
 1075              		.loc 1 893 6 view .LVU347
 1076 0392 0579     		ldrb	r5, [r0, #4]	@ zero_extendqisi2
 1077 0394 052D     		cmp	r5, #5
 1078 0396 01D0     		beq	.L100
 1079              		.loc 1 894 12 view .LVU348
 1080 0398 0120     		movs	r0, #1
ARM GAS  /tmp/ccyzoGuO.s 			page 20


 1081              	.LVL77:
 1082              		.loc 1 905 1 view .LVU349
 1083 039a 38BD     		pop	{r3, r4, r5, pc}
 1084              	.LVL78:
 1085              	.L100:
 1086              	.LBB212:
 1087              	.LBB213:
 1088              		.loc 1 898 15 view .LVU350
 1089 039c 0823     		movs	r3, #8
 1090 039e 0446     		mov	r4, r0
 1091              	.LVL79:
 1092              		.loc 1 898 15 view .LVU351
 1093              	.LBE213:
 1094              	.LBI212:
 1095              		.loc 1 888 6 is_stmt 1 view .LVU352
 1096              	.LBB214:
 1097              		.loc 1 898 3 view .LVU353
 1098              		.loc 1 898 15 is_stmt 0 view .LVU354
 1099 03a0 0371     		strb	r3, [r0, #4]
 1100              		.loc 1 900 3 is_stmt 1 view .LVU355
 1101              		.loc 1 900 12 is_stmt 0 view .LVU356
 1102 03a2 FFF7FEFF 		bl	sdc_lld_sync
 1103              	.LVL80:
 1104              		.loc 1 903 3 is_stmt 1 view .LVU357
 1105              		.loc 1 903 15 is_stmt 0 view .LVU358
 1106 03a6 2571     		strb	r5, [r4, #4]
 1107              		.loc 1 904 3 is_stmt 1 view .LVU359
 1108              	.LVL81:
 1109              		.loc 1 904 3 is_stmt 0 view .LVU360
 1110              	.LBE214:
 1111              	.LBE212:
 1112              		.loc 1 905 1 view .LVU361
 1113 03a8 38BD     		pop	{r3, r4, r5, pc}
 1114              		.loc 1 905 1 view .LVU362
 1115              		.cfi_endproc
 1116              	.LFE384:
 1117              		.size	sdcSync, .-sdcSync
 1118              		.align	1
 1119 03aa 00BFAFF3 		.p2align 4,,15
 1119      0080
 1120              		.global	_sdc_wait_for_transfer_state
 1121              		.syntax unified
 1122              		.thumb
 1123              		.thumb_func
 1124              		.fpu fpv4-sp-d16
 1125              		.type	_sdc_wait_for_transfer_state, %function
 1126              	_sdc_wait_for_transfer_state:
 1127              	.LVL82:
 1128              	.LFB374:
 1129              		.loc 1 500 52 is_stmt 1 view -0
 1130              		.cfi_startproc
 1131              		@ args = 0, pretend = 0, frame = 8
 1132              		@ frame_needed = 0, uses_anonymous_args = 0
 1133              		.loc 1 500 52 is_stmt 0 view .LVU364
 1134 03b0 30B5     		push	{r4, r5, lr}
 1135              		.cfi_def_cfa_offset 12
 1136              		.cfi_offset 4, -12
ARM GAS  /tmp/ccyzoGuO.s 			page 21


 1137              		.cfi_offset 5, -8
 1138              		.cfi_offset 14, -4
 1139 03b2 0446     		mov	r4, r0
 1140 03b4 83B0     		sub	sp, sp, #12
 1141              		.cfi_def_cfa_offset 24
 1142              		.loc 1 506 9 view .LVU365
 1143 03b6 0D4D     		ldr	r5, .L111
 1144              	.LVL83:
 1145              	.L103:
 1146              		.loc 1 501 3 is_stmt 1 view .LVU366
 1147              		.loc 1 503 3 view .LVU367
 1148              		.loc 1 504 5 view .LVU368
 1149              		.loc 1 504 9 is_stmt 0 view .LVU369
 1150 03b8 01AB     		add	r3, sp, #4
 1151 03ba A26B     		ldr	r2, [r4, #56]
 1152 03bc 0D21     		movs	r1, #13
 1153 03be 2046     		mov	r0, r4
 1154 03c0 FFF7FEFF 		bl	sdc_lld_send_cmd_short_crc
 1155              	.LVL84:
 1156              		.loc 1 510 5 is_stmt 1 view .LVU370
 1157              		.loc 1 504 8 is_stmt 0 view .LVU371
 1158 03c4 78B9     		cbnz	r0, .L102
 1159              		.loc 1 506 9 view .LVU372
 1160 03c6 019B     		ldr	r3, [sp, #4]
 1161              		.loc 1 505 53 view .LVU373
 1162 03c8 2B42     		tst	r3, r5
 1163              		.loc 1 510 13 view .LVU374
 1164 03ca C3F34322 		ubfx	r2, r3, #9, #4
 1165              		.loc 1 505 53 view .LVU375
 1166 03ce 09D1     		bne	.L106
 1167              		.loc 1 510 5 view .LVU376
 1168 03d0 042A     		cmp	r2, #4
 1169 03d2 08D0     		beq	.L102
 1170              		.loc 1 517 7 is_stmt 1 view .LVU377
 1171              	.LVL85:
 1172              	.LBB215:
 1173              	.LBI215:
 1174              		.loc 2 718 20 view .LVU378
 1175              	.LBB216:
 1176              		.loc 2 720 3 view .LVU379
 1177 03d4 4FF00A00 		mov	r0, #10
 1178              	.LBE216:
 1179              	.LBE215:
 1180              		.loc 1 510 5 is_stmt 0 view .LVU380
 1181 03d8 04D3     		bcc	.L106
 1182 03da 072A     		cmp	r2, #7
 1183 03dc 02D8     		bhi	.L106
 1184              	.LBB218:
 1185              	.LBB217:
 1186              		.loc 2 720 3 view .LVU381
 1187 03de FFF7FEFF 		bl	chThdSleep
 1188              	.LVL86:
 1189              		.loc 2 720 3 view .LVU382
 1190              	.LBE217:
 1191              	.LBE218:
 1192              		.loc 1 519 7 is_stmt 1 view .LVU383
 1193              		.loc 1 504 8 is_stmt 0 view .LVU384
ARM GAS  /tmp/ccyzoGuO.s 			page 22


 1194 03e2 E9E7     		b	.L103
 1195              	.L106:
 1196              		.loc 1 523 14 view .LVU385
 1197 03e4 0120     		movs	r0, #1
 1198              	.L102:
 1199              		.loc 1 526 1 view .LVU386
 1200 03e6 03B0     		add	sp, sp, #12
 1201              		.cfi_def_cfa_offset 12
 1202              		@ sp needed
 1203 03e8 30BD     		pop	{r4, r5, pc}
 1204              	.LVL87:
 1205              	.L112:
 1206              		.loc 1 526 1 view .LVU387
 1207 03ea 00BF     		.align	2
 1208              	.L111:
 1209 03ec 08E0FFFD 		.word	-33562616
 1210              		.cfi_endproc
 1211              	.LFE374:
 1212              		.size	_sdc_wait_for_transfer_state, .-_sdc_wait_for_transfer_state
 1213              		.align	1
 1214              		.p2align 4,,15
 1215              		.global	sdcDisconnect
 1216              		.syntax unified
 1217              		.thumb
 1218              		.thumb_func
 1219              		.fpu fpv4-sp-d16
 1220              		.type	sdcDisconnect, %function
 1221              	sdcDisconnect:
 1222              	.LVL88:
 1223              	.LFB380:
 1224              		.loc 1 754 37 is_stmt 1 view -0
 1225              		.cfi_startproc
 1226              		@ args = 0, pretend = 0, frame = 0
 1227              		@ frame_needed = 0, uses_anonymous_args = 0
 1228              		.loc 1 756 3 view .LVU389
 1229              		.loc 1 756 3 view .LVU390
 1230              		.loc 1 758 3 view .LVU391
 1231              	.LBB249:
 1232              	.LBI249:
 1233              		.loc 2 509 20 view .LVU392
 1234              	.LBE249:
 1235              		.loc 2 511 3 view .LVU393
 1236              	.LBB261:
 1237              	.LBB250:
 1238              	.LBI250:
 1239              		.file 3 "../../../external/ChibiOS/os/rt/include/chsys.h"
 1240              		.loc 3 353 20 view .LVU394
 1241              	.LBE250:
 1242              	.LBE261:
 1243              		.loc 3 355 3 view .LVU395
 1244              	.LBB262:
 1245              	.LBB258:
 1246              	.LBB251:
 1247              	.LBI251:
 1248              		.file 4 "../../../external/ChibiOS/os/common/ports/ARMCMx/chcore_v7m.h"
 1249              		.loc 4 669 27 view .LVU396
 1250              	.LBE251:
ARM GAS  /tmp/ccyzoGuO.s 			page 23


 1251              	.LBE258:
 1252              	.LBE262:
 1253              		.loc 4 677 3 view .LVU397
 1254              	.LBB263:
 1255              	.LBB259:
 1256              	.LBB256:
 1257              	.LBB252:
 1258              	.LBI252:
 1259              		.file 5 "../../../external/ChibiOS/os/common/ext/ARM/CMSIS/Core/Include/cmsis_gcc.h"
 1260              		.loc 5 491 27 view .LVU398
 1261              	.LBB253:
 1262              		.loc 5 493 3 view .LVU399
 1263              	.LBE253:
 1264              	.LBE252:
 1265              	.LBE256:
 1266              	.LBE259:
 1267              	.LBE263:
 1268              		.loc 1 754 37 is_stmt 0 view .LVU400
 1269 03f0 38B5     		push	{r3, r4, r5, lr}
 1270              		.cfi_def_cfa_offset 16
 1271              		.cfi_offset 3, -16
 1272              		.cfi_offset 4, -12
 1273              		.cfi_offset 5, -8
 1274              		.cfi_offset 14, -4
 1275              	.LBB264:
 1276              	.LBB260:
 1277              	.LBB257:
 1278              	.LBB255:
 1279              	.LBB254:
 1280              		.loc 5 493 3 view .LVU401
 1281 03f2 2022     		movs	r2, #32
 1282              		.syntax unified
 1283              	@ 493 "../../../external/ChibiOS/os/common/ext/ARM/CMSIS/Core/Include/cmsis_gcc.h" 1
 1284 03f4 82F31188 		MSR basepri, r2
 1285              	@ 0 "" 2
 1286              	.LVL89:
 1287              		.loc 5 493 3 view .LVU402
 1288              		.thumb
 1289              		.syntax unified
 1290              	.LBE254:
 1291              	.LBE255:
 1292              	.LBE257:
 1293              	.LBE260:
 1294              	.LBE264:
 1295              		.loc 3 356 34 is_stmt 1 view .LVU403
 1296              		.loc 3 357 20 view .LVU404
 1297              		.loc 1 759 3 view .LVU405
 1298              		.loc 1 759 3 view .LVU406
 1299              		.loc 1 761 3 view .LVU407
 1300              		.loc 1 761 6 is_stmt 0 view .LVU408
 1301 03f8 0279     		ldrb	r2, [r0, #4]	@ zero_extendqisi2
 1302 03fa 022A     		cmp	r2, #2
 1303 03fc 0FD0     		beq	.L118
 1304              	.LVL90:
 1305              	.LBB265:
 1306              	.LBI265:
 1307              		.loc 1 754 6 is_stmt 1 view .LVU409
ARM GAS  /tmp/ccyzoGuO.s 			page 24


 1308              	.LBB266:
 1309              		.loc 1 765 3 view .LVU410
 1310              		.loc 1 765 15 is_stmt 0 view .LVU411
 1311 03fe 0422     		movs	r2, #4
 1312 0400 0446     		mov	r4, r0
 1313              	.LBB267:
 1314              	.LBB268:
 1315              	.LBB269:
 1316              	.LBB270:
 1317              	.LBB271:
 1318              	.LBB272:
 1319              		.loc 5 493 3 view .LVU412
 1320 0402 0023     		movs	r3, #0
 1321              	.LBE272:
 1322              	.LBE271:
 1323              	.LBE270:
 1324              	.LBE269:
 1325              	.LBE268:
 1326              	.LBE267:
 1327              		.loc 1 765 15 view .LVU413
 1328 0404 0271     		strb	r2, [r0, #4]
 1329              		.loc 1 766 3 is_stmt 1 view .LVU414
 1330              	.LBB281:
 1331              	.LBI267:
 1332              		.loc 2 520 20 view .LVU415
 1333              	.LBE281:
 1334              	.LBE266:
 1335              	.LBE265:
 1336              		.loc 2 522 3 view .LVU416
 1337              	.LBB287:
 1338              	.LBB284:
 1339              	.LBB282:
 1340              	.LBB279:
 1341              	.LBI268:
 1342              		.loc 3 365 20 view .LVU417
 1343              	.LBB277:
 1344              		.loc 3 367 22 view .LVU418
 1345              		.loc 3 368 33 view .LVU419
 1346              		.loc 3 374 3 view .LVU420
 1347              		.loc 3 374 3 view .LVU421
 1348              		.loc 3 378 3 view .LVU422
 1349              	.LBB275:
 1350              	.LBI270:
 1351              		.loc 4 693 27 view .LVU423
 1352              	.LBE275:
 1353              	.LBE277:
 1354              	.LBE279:
 1355              	.LBE282:
 1356              	.LBE284:
 1357              	.LBE287:
 1358              		.loc 4 696 3 view .LVU424
 1359              	.LVL91:
 1360              	.LBB288:
 1361              	.LBB285:
 1362              	.LBB283:
 1363              	.LBB280:
 1364              	.LBB278:
ARM GAS  /tmp/ccyzoGuO.s 			page 25


 1365              	.LBB276:
 1366              	.LBB274:
 1367              	.LBI271:
 1368              		.loc 5 491 27 view .LVU425
 1369              	.LBB273:
 1370              		.loc 5 493 3 view .LVU426
 1371              		.syntax unified
 1372              	@ 493 "../../../external/ChibiOS/os/common/ext/ARM/CMSIS/Core/Include/cmsis_gcc.h" 1
 1373 0406 83F31188 		MSR basepri, r3
 1374              	@ 0 "" 2
 1375              	.LVL92:
 1376              		.loc 5 493 3 is_stmt 0 view .LVU427
 1377              		.thumb
 1378              		.syntax unified
 1379              	.LBE273:
 1380              	.LBE274:
 1381              	.LBE276:
 1382              	.LBE278:
 1383              	.LBE280:
 1384              	.LBE283:
 1385              		.loc 1 769 3 is_stmt 1 view .LVU428
 1386              		.loc 1 769 7 is_stmt 0 view .LVU429
 1387 040a FFF7FEFF 		bl	_sdc_wait_for_transfer_state
 1388              	.LVL93:
 1389              		.loc 1 769 6 view .LVU430
 1390 040e 0546     		mov	r5, r0
 1391              		.loc 1 770 5 view .LVU431
 1392 0410 2046     		mov	r0, r4
 1393              		.loc 1 776 3 is_stmt 1 view .LVU432
 1394 0412 FFF7FEFF 		bl	sdc_lld_stop_clk
 1395              	.LVL94:
 1396              		.loc 1 777 3 view .LVU433
 1397              		.loc 1 777 15 is_stmt 0 view .LVU434
 1398 0416 0223     		movs	r3, #2
 1399              	.LBE285:
 1400              	.LBE288:
 1401              		.loc 1 779 1 view .LVU435
 1402 0418 2846     		mov	r0, r5
 1403              	.LBB289:
 1404              	.LBB286:
 1405              		.loc 1 777 15 view .LVU436
 1406 041a 2371     		strb	r3, [r4, #4]
 1407              		.loc 1 778 3 is_stmt 1 view .LVU437
 1408              	.LBE286:
 1409              	.LBE289:
 1410              		.loc 1 779 1 is_stmt 0 view .LVU438
 1411 041c 38BD     		pop	{r3, r4, r5, pc}
 1412              	.LVL95:
 1413              	.L118:
 1414              		.loc 1 762 5 is_stmt 1 view .LVU439
 1415              	.LBB290:
 1416              	.LBI290:
 1417              		.loc 2 520 20 view .LVU440
 1418              	.LBE290:
 1419              		.loc 2 522 3 view .LVU441
 1420              	.LBB299:
 1421              	.LBB291:
ARM GAS  /tmp/ccyzoGuO.s 			page 26


 1422              	.LBI291:
 1423              		.loc 3 365 20 view .LVU442
 1424              	.LBB292:
 1425              		.loc 3 367 22 view .LVU443
 1426              		.loc 3 368 33 view .LVU444
 1427              		.loc 3 374 3 view .LVU445
 1428              		.loc 3 374 3 view .LVU446
 1429              		.loc 3 378 3 view .LVU447
 1430              	.LBB293:
 1431              	.LBI293:
 1432              		.loc 4 693 27 view .LVU448
 1433              	.LBE293:
 1434              	.LBE292:
 1435              	.LBE291:
 1436              	.LBE299:
 1437              		.loc 4 696 3 view .LVU449
 1438              	.LBB300:
 1439              	.LBB298:
 1440              	.LBB297:
 1441              	.LBB296:
 1442              	.LBB294:
 1443              	.LBI294:
 1444              		.loc 5 491 27 view .LVU450
 1445              	.LBB295:
 1446              		.loc 5 493 3 view .LVU451
 1447 041e 0025     		movs	r5, #0
 1448              		.syntax unified
 1449              	@ 493 "../../../external/ChibiOS/os/common/ext/ARM/CMSIS/Core/Include/cmsis_gcc.h" 1
 1450 0420 85F31188 		MSR basepri, r5
 1451              	@ 0 "" 2
 1452              	.LVL96:
 1453              		.loc 5 493 3 is_stmt 0 view .LVU452
 1454              		.thumb
 1455              		.syntax unified
 1456              	.LBE295:
 1457              	.LBE294:
 1458              	.LBE296:
 1459              	.LBE297:
 1460              	.LBE298:
 1461              	.LBE300:
 1462              		.loc 1 763 5 is_stmt 1 view .LVU453
 1463              		.loc 1 779 1 is_stmt 0 view .LVU454
 1464 0424 2846     		mov	r0, r5
 1465              	.LVL97:
 1466              		.loc 1 779 1 view .LVU455
 1467 0426 38BD     		pop	{r3, r4, r5, pc}
 1468              		.cfi_endproc
 1469              	.LFE380:
 1470              		.size	sdcDisconnect, .-sdcDisconnect
 1471              		.align	1
 1472 0428 AFF30080 		.p2align 4,,15
 1472      AFF30080 
 1473              		.global	sdcInit
 1474              		.syntax unified
 1475              		.thumb
 1476              		.thumb_func
 1477              		.fpu fpv4-sp-d16
ARM GAS  /tmp/ccyzoGuO.s 			page 27


 1478              		.type	sdcInit, %function
 1479              	sdcInit:
 1480              	.LFB375:
 1481              		.loc 1 539 20 is_stmt 1 view -0
 1482              		.cfi_startproc
 1483              		@ args = 0, pretend = 0, frame = 0
 1484              		@ frame_needed = 0, uses_anonymous_args = 0
 1485              		@ link register save eliminated.
 1486              		.loc 1 541 3 view .LVU457
 1487 0430 FFF7FEBF 		b	sdc_lld_init
 1488              	.LVL98:
 1489              		.cfi_endproc
 1490              	.LFE375:
 1491              		.size	sdcInit, .-sdcInit
 1492              		.align	1
 1493 0434 AFF30080 		.p2align 4,,15
 1493      AFF30080 
 1493      AFF30080 
 1494              		.global	sdcObjectInit
 1495              		.syntax unified
 1496              		.thumb
 1497              		.thumb_func
 1498              		.fpu fpv4-sp-d16
 1499              		.type	sdcObjectInit, %function
 1500              	sdcObjectInit:
 1501              	.LVL99:
 1502              	.LFB376:
 1503              		.loc 1 551 37 view -0
 1504              		.cfi_startproc
 1505              		@ args = 0, pretend = 0, frame = 0
 1506              		@ frame_needed = 0, uses_anonymous_args = 0
 1507              		@ link register save eliminated.
 1508              		.loc 1 553 3 view .LVU459
 1509              		.loc 1 555 18 is_stmt 0 view .LVU460
 1510 0440 0023     		movs	r3, #0
 1511              		.loc 1 553 18 view .LVU461
 1512 0442 0449     		ldr	r1, .L121
 1513              		.loc 1 554 18 view .LVU462
 1514 0444 0122     		movs	r2, #1
 1515              		.loc 1 553 18 view .LVU463
 1516 0446 0160     		str	r1, [r0]
 1517              		.loc 1 554 3 is_stmt 1 view .LVU464
 1518              		.loc 1 554 18 is_stmt 0 view .LVU465
 1519 0448 0271     		strb	r2, [r0, #4]
 1520              		.loc 1 555 3 is_stmt 1 view .LVU466
 1521              		.loc 1 555 18 is_stmt 0 view .LVU467
 1522 044a 4363     		str	r3, [r0, #52]
 1523              		.loc 1 556 3 is_stmt 1 view .LVU468
 1524              		.loc 1 557 18 is_stmt 0 view .LVU469
 1525 044c C0E90A33 		strd	r3, r3, [r0, #40]
 1526              		.loc 1 558 1 view .LVU470
 1527 0450 7047     		bx	lr
 1528              	.L122:
 1529 0452 00BF     		.align	2
 1530              	.L121:
 1531 0454 00000000 		.word	.LANCHOR1
 1532              		.cfi_endproc
ARM GAS  /tmp/ccyzoGuO.s 			page 28


 1533              	.LFE376:
 1534              		.size	sdcObjectInit, .-sdcObjectInit
 1535              		.align	1
 1536 0458 AFF30080 		.p2align 4,,15
 1536      AFF30080 
 1537              		.global	sdcStart
 1538              		.syntax unified
 1539              		.thumb
 1540              		.thumb_func
 1541              		.fpu fpv4-sp-d16
 1542              		.type	sdcStart, %function
 1543              	sdcStart:
 1544              	.LVL100:
 1545              	.LFB377:
 1546              		.loc 1 570 57 is_stmt 1 view -0
 1547              		.cfi_startproc
 1548              		@ args = 0, pretend = 0, frame = 0
 1549              		@ frame_needed = 0, uses_anonymous_args = 0
 1550              		.loc 1 572 3 view .LVU472
 1551              		.loc 1 572 3 view .LVU473
 1552              		.loc 1 574 3 view .LVU474
 1553              	.LBB301:
 1554              	.LBI301:
 1555              		.loc 2 509 20 view .LVU475
 1556              	.LBE301:
 1557              		.loc 2 511 3 view .LVU476
 1558              	.LBB317:
 1559              	.LBB302:
 1560              	.LBI302:
 1561              		.loc 3 353 20 view .LVU477
 1562              	.LBE302:
 1563              	.LBE317:
 1564              		.loc 3 355 3 view .LVU478
 1565              	.LBB318:
 1566              	.LBB313:
 1567              	.LBB303:
 1568              	.LBI303:
 1569              		.loc 4 669 27 view .LVU479
 1570              	.LBE303:
 1571              	.LBE313:
 1572              	.LBE318:
 1573              		.loc 4 677 3 view .LVU480
 1574              	.LBB319:
 1575              	.LBB314:
 1576              	.LBB310:
 1577              	.LBB304:
 1578              	.LBI304:
 1579              		.loc 5 491 27 view .LVU481
 1580              	.LBB305:
 1581              		.loc 5 493 3 view .LVU482
 1582              	.LBE305:
 1583              	.LBE304:
 1584              	.LBE310:
 1585              	.LBE314:
 1586              	.LBE319:
 1587              		.loc 1 570 57 is_stmt 0 view .LVU483
 1588 0460 10B5     		push	{r4, lr}
ARM GAS  /tmp/ccyzoGuO.s 			page 29


 1589              		.cfi_def_cfa_offset 8
 1590              		.cfi_offset 4, -8
 1591              		.cfi_offset 14, -4
 1592              	.LBB320:
 1593              	.LBB315:
 1594              	.LBB311:
 1595              	.LBB308:
 1596              	.LBB306:
 1597              		.loc 5 493 3 view .LVU484
 1598 0462 2023     		movs	r3, #32
 1599              	.LBE306:
 1600              	.LBE308:
 1601              	.LBE311:
 1602              	.LBE315:
 1603              	.LBE320:
 1604              		.loc 1 570 57 view .LVU485
 1605 0464 0446     		mov	r4, r0
 1606              	.LBB321:
 1607              	.LBB316:
 1608              	.LBB312:
 1609              	.LBB309:
 1610              	.LBB307:
 1611              		.loc 5 493 3 view .LVU486
 1612              		.syntax unified
 1613              	@ 493 "../../../external/ChibiOS/os/common/ext/ARM/CMSIS/Core/Include/cmsis_gcc.h" 1
 1614 0466 83F31188 		MSR basepri, r3
 1615              	@ 0 "" 2
 1616              	.LVL101:
 1617              		.loc 5 493 3 view .LVU487
 1618              		.thumb
 1619              		.syntax unified
 1620              	.LBE307:
 1621              	.LBE309:
 1622              	.LBE312:
 1623              	.LBE316:
 1624              	.LBE321:
 1625              		.loc 3 356 34 is_stmt 1 view .LVU488
 1626              		.loc 3 357 20 view .LVU489
 1627              		.loc 1 575 3 view .LVU490
 1628              		.loc 1 575 3 view .LVU491
 1629              		.loc 1 577 3 view .LVU492
 1630              		.loc 1 577 16 is_stmt 0 view .LVU493
 1631 046a C162     		str	r1, [r0, #44]
 1632              		.loc 1 578 3 is_stmt 1 view .LVU494
 1633 046c FFF7FEFF 		bl	sdc_lld_start
 1634              	.LVL102:
 1635              		.loc 1 579 3 view .LVU495
 1636              		.loc 1 579 15 is_stmt 0 view .LVU496
 1637 0470 0222     		movs	r2, #2
 1638              	.LBB322:
 1639              	.LBB323:
 1640              	.LBB324:
 1641              	.LBB325:
 1642              	.LBB326:
 1643              	.LBB327:
 1644              		.loc 5 493 3 view .LVU497
 1645 0472 0023     		movs	r3, #0
ARM GAS  /tmp/ccyzoGuO.s 			page 30


 1646              	.LBE327:
 1647              	.LBE326:
 1648              	.LBE325:
 1649              	.LBE324:
 1650              	.LBE323:
 1651              	.LBE322:
 1652              		.loc 1 579 15 view .LVU498
 1653 0474 2271     		strb	r2, [r4, #4]
 1654              		.loc 1 580 3 is_stmt 1 view .LVU499
 1655              	.LBB336:
 1656              	.LBI322:
 1657              		.loc 2 520 20 view .LVU500
 1658              	.LBE336:
 1659              		.loc 2 522 3 view .LVU501
 1660              	.LBB337:
 1661              	.LBB334:
 1662              	.LBI323:
 1663              		.loc 3 365 20 view .LVU502
 1664              	.LBB332:
 1665              		.loc 3 367 22 view .LVU503
 1666              		.loc 3 368 33 view .LVU504
 1667              		.loc 3 374 3 view .LVU505
 1668              		.loc 3 374 3 view .LVU506
 1669              		.loc 3 378 3 view .LVU507
 1670              	.LBB330:
 1671              	.LBI325:
 1672              		.loc 4 693 27 view .LVU508
 1673              	.LBE330:
 1674              	.LBE332:
 1675              	.LBE334:
 1676              	.LBE337:
 1677              		.loc 4 696 3 view .LVU509
 1678              	.LVL103:
 1679              	.LBB338:
 1680              	.LBB335:
 1681              	.LBB333:
 1682              	.LBB331:
 1683              	.LBB329:
 1684              	.LBI326:
 1685              		.loc 5 491 27 view .LVU510
 1686              	.LBB328:
 1687              		.loc 5 493 3 view .LVU511
 1688              		.syntax unified
 1689              	@ 493 "../../../external/ChibiOS/os/common/ext/ARM/CMSIS/Core/Include/cmsis_gcc.h" 1
 1690 0476 83F31188 		MSR basepri, r3
 1691              	@ 0 "" 2
 1692              	.LVL104:
 1693              		.loc 5 493 3 is_stmt 0 view .LVU512
 1694              		.thumb
 1695              		.syntax unified
 1696              	.LBE328:
 1697              	.LBE329:
 1698              	.LBE331:
 1699              	.LBE333:
 1700              	.LBE335:
 1701              	.LBE338:
 1702              		.loc 1 581 1 view .LVU513
ARM GAS  /tmp/ccyzoGuO.s 			page 31


 1703 047a 10BD     		pop	{r4, pc}
 1704              		.loc 1 581 1 view .LVU514
 1705              		.cfi_endproc
 1706              	.LFE377:
 1707              		.size	sdcStart, .-sdcStart
 1708              		.align	1
 1709 047c AFF30080 		.p2align 4,,15
 1710              		.global	sdcStop
 1711              		.syntax unified
 1712              		.thumb
 1713              		.thumb_func
 1714              		.fpu fpv4-sp-d16
 1715              		.type	sdcStop, %function
 1716              	sdcStop:
 1717              	.LVL105:
 1718              	.LFB378:
 1719              		.loc 1 590 31 is_stmt 1 view -0
 1720              		.cfi_startproc
 1721              		@ args = 0, pretend = 0, frame = 0
 1722              		@ frame_needed = 0, uses_anonymous_args = 0
 1723              		.loc 1 592 3 view .LVU516
 1724              		.loc 1 592 3 view .LVU517
 1725              		.loc 1 594 3 view .LVU518
 1726              	.LBB339:
 1727              	.LBI339:
 1728              		.loc 2 509 20 view .LVU519
 1729              	.LBE339:
 1730              		.loc 2 511 3 view .LVU520
 1731              	.LBB355:
 1732              	.LBB340:
 1733              	.LBI340:
 1734              		.loc 3 353 20 view .LVU521
 1735              	.LBE340:
 1736              	.LBE355:
 1737              		.loc 3 355 3 view .LVU522
 1738              	.LBB356:
 1739              	.LBB351:
 1740              	.LBB341:
 1741              	.LBI341:
 1742              		.loc 4 669 27 view .LVU523
 1743              	.LBE341:
 1744              	.LBE351:
 1745              	.LBE356:
 1746              		.loc 4 677 3 view .LVU524
 1747              	.LBB357:
 1748              	.LBB352:
 1749              	.LBB348:
 1750              	.LBB342:
 1751              	.LBI342:
 1752              		.loc 5 491 27 view .LVU525
 1753              	.LBB343:
 1754              		.loc 5 493 3 view .LVU526
 1755              	.LBE343:
 1756              	.LBE342:
 1757              	.LBE348:
 1758              	.LBE352:
 1759              	.LBE357:
ARM GAS  /tmp/ccyzoGuO.s 			page 32


 1760              		.loc 1 590 31 is_stmt 0 view .LVU527
 1761 0480 10B5     		push	{r4, lr}
 1762              		.cfi_def_cfa_offset 8
 1763              		.cfi_offset 4, -8
 1764              		.cfi_offset 14, -4
 1765              	.LBB358:
 1766              	.LBB353:
 1767              	.LBB349:
 1768              	.LBB346:
 1769              	.LBB344:
 1770              		.loc 5 493 3 view .LVU528
 1771 0482 2023     		movs	r3, #32
 1772              	.LBE344:
 1773              	.LBE346:
 1774              	.LBE349:
 1775              	.LBE353:
 1776              	.LBE358:
 1777              		.loc 1 590 31 view .LVU529
 1778 0484 0446     		mov	r4, r0
 1779              	.LBB359:
 1780              	.LBB354:
 1781              	.LBB350:
 1782              	.LBB347:
 1783              	.LBB345:
 1784              		.loc 5 493 3 view .LVU530
 1785              		.syntax unified
 1786              	@ 493 "../../../external/ChibiOS/os/common/ext/ARM/CMSIS/Core/Include/cmsis_gcc.h" 1
 1787 0486 83F31188 		MSR basepri, r3
 1788              	@ 0 "" 2
 1789              	.LVL106:
 1790              		.loc 5 493 3 view .LVU531
 1791              		.thumb
 1792              		.syntax unified
 1793              	.LBE345:
 1794              	.LBE347:
 1795              	.LBE350:
 1796              	.LBE354:
 1797              	.LBE359:
 1798              		.loc 3 356 34 is_stmt 1 view .LVU532
 1799              		.loc 3 357 20 view .LVU533
 1800              		.loc 1 596 3 view .LVU534
 1801              		.loc 1 596 3 view .LVU535
 1802              		.loc 1 599 3 view .LVU536
 1803 048a FFF7FEFF 		bl	sdc_lld_stop
 1804              	.LVL107:
 1805              		.loc 1 600 3 view .LVU537
 1806              		.loc 1 601 16 is_stmt 0 view .LVU538
 1807 048e 0122     		movs	r2, #1
 1808              		.loc 1 600 16 view .LVU539
 1809 0490 0023     		movs	r3, #0
 1810              		.loc 1 601 16 view .LVU540
 1811 0492 2271     		strb	r2, [r4, #4]
 1812              		.loc 1 600 16 view .LVU541
 1813 0494 E362     		str	r3, [r4, #44]
 1814              		.loc 1 601 3 is_stmt 1 view .LVU542
 1815              		.loc 1 603 3 view .LVU543
 1816              	.LBB360:
ARM GAS  /tmp/ccyzoGuO.s 			page 33


 1817              	.LBI360:
 1818              		.loc 2 520 20 view .LVU544
 1819              	.LBE360:
 1820              		.loc 2 522 3 view .LVU545
 1821              	.LBB369:
 1822              	.LBB361:
 1823              	.LBI361:
 1824              		.loc 3 365 20 view .LVU546
 1825              	.LBB362:
 1826              		.loc 3 367 22 view .LVU547
 1827              		.loc 3 368 33 view .LVU548
 1828              		.loc 3 374 3 view .LVU549
 1829              		.loc 3 374 3 view .LVU550
 1830              		.loc 3 378 3 view .LVU551
 1831              	.LBB363:
 1832              	.LBI363:
 1833              		.loc 4 693 27 view .LVU552
 1834              	.LBE363:
 1835              	.LBE362:
 1836              	.LBE361:
 1837              	.LBE369:
 1838              		.loc 4 696 3 view .LVU553
 1839              	.LVL108:
 1840              	.LBB370:
 1841              	.LBB368:
 1842              	.LBB367:
 1843              	.LBB366:
 1844              	.LBB364:
 1845              	.LBI364:
 1846              		.loc 5 491 27 view .LVU554
 1847              	.LBB365:
 1848              		.loc 5 493 3 view .LVU555
 1849              		.syntax unified
 1850              	@ 493 "../../../external/ChibiOS/os/common/ext/ARM/CMSIS/Core/Include/cmsis_gcc.h" 1
 1851 0496 83F31188 		MSR basepri, r3
 1852              	@ 0 "" 2
 1853              	.LVL109:
 1854              		.loc 5 493 3 is_stmt 0 view .LVU556
 1855              		.thumb
 1856              		.syntax unified
 1857              	.LBE365:
 1858              	.LBE364:
 1859              	.LBE366:
 1860              	.LBE367:
 1861              	.LBE368:
 1862              	.LBE370:
 1863              		.loc 1 604 1 view .LVU557
 1864 049a 10BD     		pop	{r4, pc}
 1865              		.loc 1 604 1 view .LVU558
 1866              		.cfi_endproc
 1867              	.LFE378:
 1868              		.size	sdcStop, .-sdcStop
 1869              		.align	1
 1870 049c AFF30080 		.p2align 4,,15
 1871              		.global	sdcGetAndClearErrors
 1872              		.syntax unified
 1873              		.thumb
ARM GAS  /tmp/ccyzoGuO.s 			page 34


 1874              		.thumb_func
 1875              		.fpu fpv4-sp-d16
 1876              		.type	sdcGetAndClearErrors, %function
 1877              	sdcGetAndClearErrors:
 1878              	.LVL110:
 1879              	.LFB383:
 1880              		.loc 1 864 50 is_stmt 1 view -0
 1881              		.cfi_startproc
 1882              		@ args = 0, pretend = 0, frame = 0
 1883              		@ frame_needed = 0, uses_anonymous_args = 0
 1884              		@ link register save eliminated.
 1885              		.loc 1 865 3 view .LVU560
 1886              		.loc 1 867 3 view .LVU561
 1887              		.loc 1 867 3 view .LVU562
 1888              		.loc 1 868 3 view .LVU563
 1889              		.loc 1 868 3 view .LVU564
 1890              		.loc 1 870 3 view .LVU565
 1891              	.LBB371:
 1892              	.LBI371:
 1893              		.loc 2 509 20 view .LVU566
 1894              	.LBE371:
 1895              		.loc 2 511 3 view .LVU567
 1896              	.LBB383:
 1897              	.LBB372:
 1898              	.LBI372:
 1899              		.loc 3 353 20 view .LVU568
 1900              	.LBE372:
 1901              	.LBE383:
 1902              		.loc 3 355 3 view .LVU569
 1903              	.LBB384:
 1904              	.LBB380:
 1905              	.LBB373:
 1906              	.LBI373:
 1907              		.loc 4 669 27 view .LVU570
 1908              	.LBE373:
 1909              	.LBE380:
 1910              	.LBE384:
 1911              		.loc 4 677 3 view .LVU571
 1912              	.LBB385:
 1913              	.LBB381:
 1914              	.LBB378:
 1915              	.LBB374:
 1916              	.LBI374:
 1917              		.loc 5 491 27 view .LVU572
 1918              	.LBB375:
 1919              		.loc 5 493 3 view .LVU573
 1920              	.LBE375:
 1921              	.LBE374:
 1922              	.LBE378:
 1923              	.LBE381:
 1924              	.LBE385:
 1925              		.loc 1 864 50 is_stmt 0 view .LVU574
 1926 04a0 0246     		mov	r2, r0
 1927              	.LBB386:
 1928              	.LBB382:
 1929              	.LBB379:
 1930              	.LBB377:
ARM GAS  /tmp/ccyzoGuO.s 			page 35


 1931              	.LBB376:
 1932              		.loc 5 493 3 view .LVU575
 1933 04a2 2023     		movs	r3, #32
 1934              		.syntax unified
 1935              	@ 493 "../../../external/ChibiOS/os/common/ext/ARM/CMSIS/Core/Include/cmsis_gcc.h" 1
 1936 04a4 83F31188 		MSR basepri, r3
 1937              	@ 0 "" 2
 1938              	.LVL111:
 1939              		.loc 5 493 3 view .LVU576
 1940              		.thumb
 1941              		.syntax unified
 1942              	.LBE376:
 1943              	.LBE377:
 1944              	.LBE379:
 1945              	.LBE382:
 1946              	.LBE386:
 1947              		.loc 3 356 34 is_stmt 1 view .LVU577
 1948              		.loc 3 357 20 view .LVU578
 1949              		.loc 1 871 3 view .LVU579
 1950              		.loc 1 872 16 is_stmt 0 view .LVU580
 1951 04a8 0023     		movs	r3, #0
 1952              		.loc 1 871 9 view .LVU581
 1953 04aa 406B     		ldr	r0, [r0, #52]
 1954              	.LVL112:
 1955              		.loc 1 872 3 is_stmt 1 view .LVU582
 1956              		.loc 1 872 16 is_stmt 0 view .LVU583
 1957 04ac 5363     		str	r3, [r2, #52]
 1958              		.loc 1 873 3 is_stmt 1 view .LVU584
 1959              	.LBB387:
 1960              	.LBI387:
 1961              		.loc 2 520 20 view .LVU585
 1962              	.LBE387:
 1963              		.loc 2 522 3 view .LVU586
 1964              	.LBB396:
 1965              	.LBB388:
 1966              	.LBI388:
 1967              		.loc 3 365 20 view .LVU587
 1968              	.LBB389:
 1969              		.loc 3 367 22 view .LVU588
 1970              		.loc 3 368 33 view .LVU589
 1971              		.loc 3 374 3 view .LVU590
 1972              		.loc 3 374 3 view .LVU591
 1973              		.loc 3 378 3 view .LVU592
 1974              	.LBB390:
 1975              	.LBI390:
 1976              		.loc 4 693 27 view .LVU593
 1977              	.LBE390:
 1978              	.LBE389:
 1979              	.LBE388:
 1980              	.LBE396:
 1981              		.loc 4 696 3 view .LVU594
 1982              	.LVL113:
 1983              	.LBB397:
 1984              	.LBB395:
 1985              	.LBB394:
 1986              	.LBB393:
 1987              	.LBB391:
ARM GAS  /tmp/ccyzoGuO.s 			page 36


 1988              	.LBI391:
 1989              		.loc 5 491 27 view .LVU595
 1990              	.LBB392:
 1991              		.loc 5 493 3 view .LVU596
 1992              		.syntax unified
 1993              	@ 493 "../../../external/ChibiOS/os/common/ext/ARM/CMSIS/Core/Include/cmsis_gcc.h" 1
 1994 04ae 83F31188 		MSR basepri, r3
 1995              	@ 0 "" 2
 1996              	.LVL114:
 1997              		.loc 5 493 3 is_stmt 0 view .LVU597
 1998              		.thumb
 1999              		.syntax unified
 2000              	.LBE392:
 2001              	.LBE391:
 2002              	.LBE393:
 2003              	.LBE394:
 2004              	.LBE395:
 2005              	.LBE397:
 2006              		.loc 1 874 3 is_stmt 1 view .LVU598
 2007              		.loc 1 875 1 is_stmt 0 view .LVU599
 2008 04b2 7047     		bx	lr
 2009              		.cfi_endproc
 2010              	.LFE383:
 2011              		.size	sdcGetAndClearErrors, .-sdcGetAndClearErrors
 2012              		.align	1
 2013 04b4 AFF30080 		.p2align 4,,15
 2013      AFF30080 
 2013      AFF30080 
 2014              		.global	sdcErase
 2015              		.syntax unified
 2016              		.thumb
 2017              		.thumb_func
 2018              		.fpu fpv4-sp-d16
 2019              		.type	sdcErase, %function
 2020              	sdcErase:
 2021              	.LVL115:
 2022              	.LFB386:
 2023              		.loc 1 946 68 is_stmt 1 view -0
 2024              		.cfi_startproc
 2025              		@ args = 0, pretend = 0, frame = 8
 2026              		@ frame_needed = 0, uses_anonymous_args = 0
 2027              		.loc 1 947 3 view .LVU601
 2028              		.loc 1 949 3 view .LVU602
 2029              		.loc 1 949 3 view .LVU603
 2030              		.loc 1 950 3 view .LVU604
 2031              		.loc 1 950 3 view .LVU605
 2032              		.loc 1 953 3 view .LVU606
 2033              		.loc 1 946 68 is_stmt 0 view .LVU607
 2034 04c0 70B5     		push	{r4, r5, r6, lr}
 2035              		.cfi_def_cfa_offset 16
 2036              		.cfi_offset 4, -16
 2037              		.cfi_offset 5, -12
 2038              		.cfi_offset 6, -8
 2039              		.cfi_offset 14, -4
 2040 04c2 0446     		mov	r4, r0
 2041              		.loc 1 953 15 view .LVU608
 2042 04c4 0720     		movs	r0, #7
ARM GAS  /tmp/ccyzoGuO.s 			page 37


 2043              	.LVL116:
 2044              		.loc 1 946 68 view .LVU609
 2045 04c6 82B0     		sub	sp, sp, #8
 2046              		.cfi_def_cfa_offset 24
 2047              		.loc 1 946 68 view .LVU610
 2048 04c8 0D46     		mov	r5, r1
 2049              		.loc 1 956 23 view .LVU611
 2050 04ca 236B     		ldr	r3, [r4, #48]
 2051              		.loc 1 946 68 view .LVU612
 2052 04cc 1646     		mov	r6, r2
 2053              		.loc 1 953 15 view .LVU613
 2054 04ce 2071     		strb	r0, [r4, #4]
 2055              		.loc 1 956 3 is_stmt 1 view .LVU614
 2056              		.loc 1 956 6 is_stmt 0 view .LVU615
 2057 04d0 DB06     		lsls	r3, r3, #27
 2058 04d2 01D5     		bpl	.L129
 2059              		.loc 1 957 5 is_stmt 1 view .LVU616
 2060              		.loc 1 957 14 is_stmt 0 view .LVU617
 2061 04d4 4D02     		lsls	r5, r1, #9
 2062              	.LVL117:
 2063              		.loc 1 958 5 is_stmt 1 view .LVU618
 2064              		.loc 1 958 12 is_stmt 0 view .LVU619
 2065 04d6 5602     		lsls	r6, r2, #9
 2066              	.LVL118:
 2067              	.L129:
 2068              		.loc 1 961 3 is_stmt 1 view .LVU620
 2069              		.loc 1 961 7 is_stmt 0 view .LVU621
 2070 04d8 2046     		mov	r0, r4
 2071 04da FFF7FEFF 		bl	_sdc_wait_for_transfer_state
 2072              	.LVL119:
 2073              		.loc 1 961 6 view .LVU622
 2074 04de 20B1     		cbz	r0, .L130
 2075              	.LVL120:
 2076              	.L132:
 2077              		.loc 1 996 10 view .LVU623
 2078 04e0 0120     		movs	r0, #1
 2079              	.L131:
 2080 04e2 0523     		movs	r3, #5
 2081 04e4 2371     		strb	r3, [r4, #4]
 2082              		.loc 1 997 1 view .LVU624
 2083 04e6 02B0     		add	sp, sp, #8
 2084              		.cfi_remember_state
 2085              		.cfi_def_cfa_offset 16
 2086              		@ sp needed
 2087 04e8 70BD     		pop	{r4, r5, r6, pc}
 2088              	.LVL121:
 2089              	.L130:
 2090              		.cfi_restore_state
 2091              		.loc 1 965 3 is_stmt 1 view .LVU625
 2092              		.loc 1 965 8 is_stmt 0 view .LVU626
 2093 04ea 2A46     		mov	r2, r5
 2094 04ec 2021     		movs	r1, #32
 2095 04ee 2046     		mov	r0, r4
 2096 04f0 01AB     		add	r3, sp, #4
 2097 04f2 FFF7FEFF 		bl	sdc_lld_send_cmd_short_crc
 2098              	.LVL122:
 2099              		.loc 1 965 6 view .LVU627
ARM GAS  /tmp/ccyzoGuO.s 			page 38


 2100 04f6 0028     		cmp	r0, #0
 2101 04f8 F2D1     		bne	.L132
 2102              		.loc 1 967 7 view .LVU628
 2103 04fa 019B     		ldr	r3, [sp, #4]
 2104 04fc 0D4D     		ldr	r5, .L137
 2105              	.LVL123:
 2106              		.loc 1 966 67 view .LVU629
 2107 04fe 2B42     		tst	r3, r5
 2108 0500 EED1     		bne	.L132
 2109              		.loc 1 971 3 is_stmt 1 view .LVU630
 2110              		.loc 1 971 8 is_stmt 0 view .LVU631
 2111 0502 3246     		mov	r2, r6
 2112 0504 01AB     		add	r3, sp, #4
 2113 0506 2121     		movs	r1, #33
 2114 0508 2046     		mov	r0, r4
 2115 050a FFF7FEFF 		bl	sdc_lld_send_cmd_short_crc
 2116              	.LVL124:
 2117              		.loc 1 971 6 view .LVU632
 2118 050e 0028     		cmp	r0, #0
 2119 0510 E6D1     		bne	.L132
 2120              		.loc 1 973 7 view .LVU633
 2121 0512 019A     		ldr	r2, [sp, #4]
 2122              		.loc 1 972 65 view .LVU634
 2123 0514 2A40     		ands	r2, r2, r5
 2124 0516 E3D1     		bne	.L132
 2125              		.loc 1 977 3 is_stmt 1 view .LVU635
 2126              		.loc 1 977 8 is_stmt 0 view .LVU636
 2127 0518 01AB     		add	r3, sp, #4
 2128 051a 2621     		movs	r1, #38
 2129 051c 2046     		mov	r0, r4
 2130 051e FFF7FEFF 		bl	sdc_lld_send_cmd_short_crc
 2131              	.LVL125:
 2132              		.loc 1 977 6 view .LVU637
 2133 0522 0028     		cmp	r0, #0
 2134 0524 DCD1     		bne	.L132
 2135              		.loc 1 979 7 view .LVU638
 2136 0526 019B     		ldr	r3, [sp, #4]
 2137              		.loc 1 978 60 view .LVU639
 2138 0528 2B42     		tst	r3, r5
 2139 052a D9D1     		bne	.L132
 2140              		.loc 1 987 3 is_stmt 1 view .LVU640
 2141              		.loc 1 987 7 is_stmt 0 view .LVU641
 2142 052c 2046     		mov	r0, r4
 2143 052e FFF7FEFF 		bl	_sdc_wait_for_transfer_state
 2144              	.LVL126:
 2145 0532 D6E7     		b	.L131
 2146              	.L138:
 2147              		.align	2
 2148              	.L137:
 2149 0534 08E0FFFD 		.word	-33562616
 2150              		.cfi_endproc
 2151              	.LFE386:
 2152              		.size	sdcErase, .-sdcErase
 2153              		.global	tmp
 2154              		.section	.rodata
 2155              		.align	2
 2156              		.set	.LANCHOR1,. + 0
ARM GAS  /tmp/ccyzoGuO.s 			page 39


 2157              		.type	sdc_vmt, %object
 2158              		.size	sdc_vmt, 36
 2159              	sdc_vmt:
 2160 0000 00000000 		.word	0
 2161 0004 00000000 		.word	sdc_lld_is_card_inserted
 2162 0008 00000000 		.word	sdc_lld_is_write_protected
 2163 000c 00000000 		.word	sdcConnect
 2164 0010 00000000 		.word	sdcDisconnect
 2165 0014 00000000 		.word	sdcRead
 2166 0018 00000000 		.word	sdcWrite
 2167 001c 00000000 		.word	sdcSync
 2168 0020 00000000 		.word	sdcGetInfo
 2169              		.section	.ram0a,"aw"
 2170              		.align	5
 2171              		.set	.LANCHOR0,. + 0
 2172              		.type	tmp, %object
 2173              		.size	tmp, 64
 2174              	tmp:
 2175 0000 00000000 		.space	64
 2175      00000000 
 2175      00000000 
 2175      00000000 
 2175      00000000 
 2176              		.text
 2177              	.Letext0:
 2178              		.file 6 "/home/nicolas/arm/gcc-arm-none-eabi-8-2019-q3-update/lib/gcc/arm-none-eabi/8.3.1/include/
 2179              		.file 7 "/home/nicolas/arm/gcc-arm-none-eabi-8-2019-q3-update/arm-none-eabi/include/machine/_defau
 2180              		.file 8 "/home/nicolas/arm/gcc-arm-none-eabi-8-2019-q3-update/arm-none-eabi/include/sys/_types.h"
 2181              		.file 9 "/home/nicolas/arm/gcc-arm-none-eabi-8-2019-q3-update/arm-none-eabi/include/sys/reent.h"
 2182              		.file 10 "/home/nicolas/arm/gcc-arm-none-eabi-8-2019-q3-update/arm-none-eabi/include/sys/lock.h"
 2183              		.file 11 "/home/nicolas/arm/gcc-arm-none-eabi-8-2019-q3-update/arm-none-eabi/include/sys/_stdint.h
 2184              		.file 12 "/home/nicolas/arm/gcc-arm-none-eabi-8-2019-q3-update/arm-none-eabi/include/stdint.h"
 2185              		.file 13 "../../../external/ChibiOS/os/common/ports/ARMCMx/compilers/GCC/chtypes.h"
 2186              		.file 14 "../../../external/ChibiOS/os/rt/include/chsystypes.h"
 2187              		.file 15 "../../../external/ChibiOS/os/rt/include/chschd.h"
 2188              		.file 16 "../../../external/ChibiOS/os/rt/include/chtime.h"
 2189              		.file 17 "../../../external/ChibiOS/os/common/ext/ARM/CMSIS/Core/Include/core_cm7.h"
 2190              		.file 18 "../../../external/ChibiOS/os/common/ext/ST/STM32H7xx/system_stm32h7xx.h"
 2191              		.file 19 "../../../external/ChibiOS/os/common/ext/ST/STM32H7xx/stm32h753xx.h"
 2192              		.file 20 "../../../external/ChibiOS/os/common/ports/ARMCMx/chcore.h"
 2193              		.file 21 "../../../external/ChibiOS/os/rt/include/chtrace.h"
 2194              		.file 22 "../../../external/ChibiOS/os/rt/include/chtm.h"
 2195              		.file 23 "../../../external/ChibiOS/os/rt/include/chsem.h"
 2196              		.file 24 "../../../external/ChibiOS/os/rt/include/chmtx.h"
 2197              		.file 25 "../../../external/ChibiOS/os/rt/include/chregistry.h"
 2198              		.file 26 "../../../external/ChibiOS/os/rt/include/chevents.h"
 2199              		.file 27 "../../../external/ChibiOS/os/oslib/include/chmemcore.h"
 2200              		.file 28 "../../../external/ChibiOS/os/oslib/include/chmempools.h"
 2201              		.file 29 "../../../external/ChibiOS/os/oslib/include/chfactory.h"
 2202              		.file 30 "../../../external/ChibiOS/os/hal/ports/STM32/LLD/DMAv2/stm32_dma.h"
 2203              		.file 31 "../../../external/ChibiOS/os/hal/ports/STM32/LLD/BDMAv1/stm32_bdma.h"
 2204              		.file 32 "../../../external/ChibiOS/os/hal/ports/STM32/LLD/TIMv1/stm32_tim.h"
 2205              		.file 33 "../../../external/ChibiOS/os/hal/include/hal_ioblock.h"
 2206              		.file 34 "../../../external/ChibiOS/os/hal/include/hal_queues.h"
 2207              		.file 35 "../../../external/ChibiOS/os/hal/ports/STM32/LLD/GPIOv2/stm32_gpio.h"
 2208              		.file 36 "../../../external/ChibiOS/os/hal/ports/STM32/LLD/GPIOv2/hal_pal_lld.h"
 2209              		.file 37 "../../../external/ChibiOS/os/hal/include/hal_adc.h"
ARM GAS  /tmp/ccyzoGuO.s 			page 40


 2210              		.file 38 "../../../external/ChibiOS/os/hal/ports/STM32/LLD/ADCv4/hal_adc_lld.h"
 2211              		.file 39 "../../../external/ChibiOS/os/hal/include/hal_i2c.h"
 2212              		.file 40 "../../../external/ChibiOS/os/hal/ports/STM32/LLD/I2Cv3/hal_i2c_lld.h"
 2213              		.file 41 "../../../external/ChibiOS/os/hal/include/hal_pwm.h"
 2214              		.file 42 "../../../external/ChibiOS/os/hal/ports/STM32/LLD/TIMv1/hal_pwm_lld.h"
 2215              		.file 43 "../../../external/ChibiOS/os/hal/include/hal_serial.h"
 2216              		.file 44 "../../../external/ChibiOS/os/hal/ports/STM32/LLD/USARTv2/hal_serial_lld.h"
 2217              		.file 45 "../../../external/ChibiOS/os/hal/include/hal_sdc.h"
 2218              		.file 46 "../../../external/ChibiOS/os/hal/ports/STM32/LLD/SDMMCv2/hal_sdc_lld.h"
 2219              		.file 47 "../../../external/ChibiOS/os/hal/include/hal_spi.h"
 2220              		.file 48 "../../../external/ChibiOS/os/hal/ports/STM32/LLD/SPIv3/hal_spi_lld.h"
 2221              		.file 49 "../../../external/ChibiOS/os/hal/include/hal_trng.h"
 2222              		.file 50 "../../../external/ChibiOS/os/hal/ports/STM32/LLD/RNGv1/hal_trng_lld.h"
 2223              		.file 51 "../../../external/ChibiOS/os/hal/include/hal_usb.h"
 2224              		.file 52 "../../../external/ChibiOS/os/hal/ports/STM32/LLD/OTGv1/hal_usb_lld.h"
 2225              		.file 53 "../../../external/ChibiOS/os/hal/ports/STM32/LLD/OTGv1/stm32_otg.h"
 2226              		.file 54 "../../../external/ChibiOS-Contrib/os/hal/include/hal_fsmc.h"
 2227              		.file 55 "../../../external/ChibiOS-Contrib/os/hal/include/hal_sdram.h"
 2228              		.file 56 "../../../external/ChibiOS/os/hal/include/hal_mmcsd.h"
 2229              		.file 57 "../../../external/ChibiOS/os/rt/include/chthreads.h"