ARM GAS  /tmp/ccGK61tO.s 			page 1


   1              		.cpu cortex-m7
   2              		.eabi_attribute 27, 1
   3              		.eabi_attribute 28, 1
   4              		.eabi_attribute 20, 1
   5              		.eabi_attribute 21, 1
   6              		.eabi_attribute 23, 3
   7              		.eabi_attribute 24, 1
   8              		.eabi_attribute 25, 1
   9              		.eabi_attribute 26, 1
  10              		.eabi_attribute 30, 2
  11              		.eabi_attribute 34, 1
  12              		.eabi_attribute 18, 4
  13              		.file	"hal_trng.c"
  14              		.text
  15              	.Ltext0:
  16              		.cfi_sections	.debug_frame
  17              		.align	1
  18              		.p2align 4,,15
  19              		.global	trngInit
  20              		.arch armv7e-m
  21              		.syntax unified
  22              		.thumb
  23              		.thumb_func
  24              		.fpu fpv4-sp-d16
  25              		.type	trngInit, %function
  26              	trngInit:
  27              	.LFB362:
  28              		.file 1 "../../../external/ChibiOS/os/hal/src/hal_trng.c"
  29              		.loc 1 56 21 view -0
  30              		.cfi_startproc
  31              		@ args = 0, pretend = 0, frame = 0
  32              		@ frame_needed = 0, uses_anonymous_args = 0
  33              		@ link register save eliminated.
  34              		.loc 1 58 3 view .LVU1
  35 0000 FFF7FEBF 		b	trng_lld_init
  36              	.LVL0:
  37              		.cfi_endproc
  38              	.LFE362:
  39              		.size	trngInit, .-trngInit
  40              		.align	1
  41 0004 AFF30080 		.p2align 4,,15
  41      AFF30080 
  41      AFF30080 
  42              		.global	trngObjectInit
  43              		.syntax unified
  44              		.thumb
  45              		.thumb_func
  46              		.fpu fpv4-sp-d16
  47              		.type	trngObjectInit, %function
  48              	trngObjectInit:
  49              	.LVL1:
  50              	.LFB363:
  51              		.loc 1 68 40 view -0
  52              		.cfi_startproc
  53              		@ args = 0, pretend = 0, frame = 0
  54              		@ frame_needed = 0, uses_anonymous_args = 0
  55              		@ link register save eliminated.
ARM GAS  /tmp/ccGK61tO.s 			page 2


  56              		.loc 1 70 3 view .LVU3
  57              		.loc 1 70 17 is_stmt 0 view .LVU4
  58 0010 0122     		movs	r2, #1
  59              		.loc 1 71 17 view .LVU5
  60 0012 0023     		movs	r3, #0
  61              		.loc 1 70 17 view .LVU6
  62 0014 0270     		strb	r2, [r0]
  63              		.loc 1 71 3 is_stmt 1 view .LVU7
  64              		.loc 1 71 17 is_stmt 0 view .LVU8
  65 0016 4360     		str	r3, [r0, #4]
  66              		.loc 1 72 1 view .LVU9
  67 0018 7047     		bx	lr
  68              		.cfi_endproc
  69              	.LFE363:
  70              		.size	trngObjectInit, .-trngObjectInit
  71              		.align	1
  72 001a 00BFAFF3 		.p2align 4,,15
  72      0080
  73              		.global	trngStart
  74              		.syntax unified
  75              		.thumb
  76              		.thumb_func
  77              		.fpu fpv4-sp-d16
  78              		.type	trngStart, %function
  79              	trngStart:
  80              	.LVL2:
  81              	.LFB364:
  82              		.loc 1 83 61 is_stmt 1 view -0
  83              		.cfi_startproc
  84              		@ args = 0, pretend = 0, frame = 0
  85              		@ frame_needed = 0, uses_anonymous_args = 0
  86              		.loc 1 85 3 view .LVU11
  87              		.loc 1 85 3 view .LVU12
  88              		.loc 1 87 3 view .LVU13
  89              	.LBB50:
  90              	.LBI50:
  91              		.file 2 "../../../external/ChibiOS/os/hal/osal/rt-nil/osal.h"
  92              		.loc 2 509 20 view .LVU14
  93              	.LBE50:
  94              		.loc 2 511 3 view .LVU15
  95              	.LBB66:
  96              	.LBB51:
  97              	.LBI51:
  98              		.file 3 "../../../external/ChibiOS/os/rt/include/chsys.h"
  99              		.loc 3 353 20 view .LVU16
 100              	.LBE51:
 101              	.LBE66:
 102              		.loc 3 355 3 view .LVU17
 103              	.LBB67:
 104              	.LBB62:
 105              	.LBB52:
 106              	.LBI52:
 107              		.file 4 "../../../external/ChibiOS/os/common/ports/ARMCMx/chcore_v7m.h"
 108              		.loc 4 669 27 view .LVU18
 109              	.LBE52:
 110              	.LBE62:
 111              	.LBE67:
ARM GAS  /tmp/ccGK61tO.s 			page 3


 112              		.loc 4 677 3 view .LVU19
 113              	.LBB68:
 114              	.LBB63:
 115              	.LBB59:
 116              	.LBB53:
 117              	.LBI53:
 118              		.file 5 "../../../external/ChibiOS/os/common/ext/ARM/CMSIS/Core/Include/cmsis_gcc.h"
 119              		.loc 5 491 27 view .LVU20
 120              	.LBB54:
 121              		.loc 5 493 3 view .LVU21
 122              	.LBE54:
 123              	.LBE53:
 124              	.LBE59:
 125              	.LBE63:
 126              	.LBE68:
 127              		.loc 1 83 61 is_stmt 0 view .LVU22
 128 0020 10B5     		push	{r4, lr}
 129              		.cfi_def_cfa_offset 8
 130              		.cfi_offset 4, -8
 131              		.cfi_offset 14, -4
 132              	.LBB69:
 133              	.LBB64:
 134              	.LBB60:
 135              	.LBB57:
 136              	.LBB55:
 137              		.loc 5 493 3 view .LVU23
 138 0022 2023     		movs	r3, #32
 139              	.LBE55:
 140              	.LBE57:
 141              	.LBE60:
 142              	.LBE64:
 143              	.LBE69:
 144              		.loc 1 83 61 view .LVU24
 145 0024 0446     		mov	r4, r0
 146              	.LBB70:
 147              	.LBB65:
 148              	.LBB61:
 149              	.LBB58:
 150              	.LBB56:
 151              		.loc 5 493 3 view .LVU25
 152              		.syntax unified
 153              	@ 493 "../../../external/ChibiOS/os/common/ext/ARM/CMSIS/Core/Include/cmsis_gcc.h" 1
 154 0026 83F31188 		MSR basepri, r3
 155              	@ 0 "" 2
 156              	.LVL3:
 157              		.loc 5 493 3 view .LVU26
 158              		.thumb
 159              		.syntax unified
 160              	.LBE56:
 161              	.LBE58:
 162              	.LBE61:
 163              	.LBE65:
 164              	.LBE70:
 165              		.loc 3 356 34 is_stmt 1 view .LVU27
 166              		.loc 3 357 20 view .LVU28
 167              		.loc 1 88 3 view .LVU29
 168              		.loc 1 88 3 view .LVU30
ARM GAS  /tmp/ccGK61tO.s 			page 4


 169              		.loc 1 90 3 view .LVU31
 170              		.loc 1 90 17 is_stmt 0 view .LVU32
 171 002a 4160     		str	r1, [r0, #4]
 172              		.loc 1 91 3 is_stmt 1 view .LVU33
 173 002c FFF7FEFF 		bl	trng_lld_start
 174              	.LVL4:
 175              		.loc 1 92 3 view .LVU34
 176              		.loc 1 92 16 is_stmt 0 view .LVU35
 177 0030 0222     		movs	r2, #2
 178              	.LBB71:
 179              	.LBB72:
 180              	.LBB73:
 181              	.LBB74:
 182              	.LBB75:
 183              	.LBB76:
 184              		.loc 5 493 3 view .LVU36
 185 0032 0023     		movs	r3, #0
 186              	.LBE76:
 187              	.LBE75:
 188              	.LBE74:
 189              	.LBE73:
 190              	.LBE72:
 191              	.LBE71:
 192              		.loc 1 92 16 view .LVU37
 193 0034 2270     		strb	r2, [r4]
 194              		.loc 1 93 3 is_stmt 1 view .LVU38
 195              	.LBB85:
 196              	.LBI71:
 197              		.loc 2 520 20 view .LVU39
 198              	.LBE85:
 199              		.loc 2 522 3 view .LVU40
 200              	.LBB86:
 201              	.LBB83:
 202              	.LBI72:
 203              		.loc 3 365 20 view .LVU41
 204              	.LBB81:
 205              		.loc 3 367 22 view .LVU42
 206              		.loc 3 368 33 view .LVU43
 207              		.loc 3 374 3 view .LVU44
 208              		.loc 3 374 3 view .LVU45
 209              		.loc 3 378 3 view .LVU46
 210              	.LBB79:
 211              	.LBI74:
 212              		.loc 4 693 27 view .LVU47
 213              	.LBE79:
 214              	.LBE81:
 215              	.LBE83:
 216              	.LBE86:
 217              		.loc 4 696 3 view .LVU48
 218              	.LVL5:
 219              	.LBB87:
 220              	.LBB84:
 221              	.LBB82:
 222              	.LBB80:
 223              	.LBB78:
 224              	.LBI75:
 225              		.loc 5 491 27 view .LVU49
ARM GAS  /tmp/ccGK61tO.s 			page 5


 226              	.LBB77:
 227              		.loc 5 493 3 view .LVU50
 228              		.syntax unified
 229              	@ 493 "../../../external/ChibiOS/os/common/ext/ARM/CMSIS/Core/Include/cmsis_gcc.h" 1
 230 0036 83F31188 		MSR basepri, r3
 231              	@ 0 "" 2
 232              	.LVL6:
 233              		.loc 5 493 3 is_stmt 0 view .LVU51
 234              		.thumb
 235              		.syntax unified
 236              	.LBE77:
 237              	.LBE78:
 238              	.LBE80:
 239              	.LBE82:
 240              	.LBE84:
 241              	.LBE87:
 242              		.loc 1 94 1 view .LVU52
 243 003a 10BD     		pop	{r4, pc}
 244              		.loc 1 94 1 view .LVU53
 245              		.cfi_endproc
 246              	.LFE364:
 247              		.size	trngStart, .-trngStart
 248              		.align	1
 249 003c AFF30080 		.p2align 4,,15
 250              		.global	trngStop
 251              		.syntax unified
 252              		.thumb
 253              		.thumb_func
 254              		.fpu fpv4-sp-d16
 255              		.type	trngStop, %function
 256              	trngStop:
 257              	.LVL7:
 258              	.LFB365:
 259              		.loc 1 103 34 is_stmt 1 view -0
 260              		.cfi_startproc
 261              		@ args = 0, pretend = 0, frame = 0
 262              		@ frame_needed = 0, uses_anonymous_args = 0
 263              		.loc 1 105 3 view .LVU55
 264              		.loc 1 105 3 view .LVU56
 265              		.loc 1 107 3 view .LVU57
 266              	.LBB88:
 267              	.LBI88:
 268              		.loc 2 509 20 view .LVU58
 269              	.LBE88:
 270              		.loc 2 511 3 view .LVU59
 271              	.LBB104:
 272              	.LBB89:
 273              	.LBI89:
 274              		.loc 3 353 20 view .LVU60
 275              	.LBE89:
 276              	.LBE104:
 277              		.loc 3 355 3 view .LVU61
 278              	.LBB105:
 279              	.LBB100:
 280              	.LBB90:
 281              	.LBI90:
 282              		.loc 4 669 27 view .LVU62
ARM GAS  /tmp/ccGK61tO.s 			page 6


 283              	.LBE90:
 284              	.LBE100:
 285              	.LBE105:
 286              		.loc 4 677 3 view .LVU63
 287              	.LBB106:
 288              	.LBB101:
 289              	.LBB97:
 290              	.LBB91:
 291              	.LBI91:
 292              		.loc 5 491 27 view .LVU64
 293              	.LBB92:
 294              		.loc 5 493 3 view .LVU65
 295              	.LBE92:
 296              	.LBE91:
 297              	.LBE97:
 298              	.LBE101:
 299              	.LBE106:
 300              		.loc 1 103 34 is_stmt 0 view .LVU66
 301 0040 10B5     		push	{r4, lr}
 302              		.cfi_def_cfa_offset 8
 303              		.cfi_offset 4, -8
 304              		.cfi_offset 14, -4
 305              	.LBB107:
 306              	.LBB102:
 307              	.LBB98:
 308              	.LBB95:
 309              	.LBB93:
 310              		.loc 5 493 3 view .LVU67
 311 0042 2023     		movs	r3, #32
 312              	.LBE93:
 313              	.LBE95:
 314              	.LBE98:
 315              	.LBE102:
 316              	.LBE107:
 317              		.loc 1 103 34 view .LVU68
 318 0044 0446     		mov	r4, r0
 319              	.LBB108:
 320              	.LBB103:
 321              	.LBB99:
 322              	.LBB96:
 323              	.LBB94:
 324              		.loc 5 493 3 view .LVU69
 325              		.syntax unified
 326              	@ 493 "../../../external/ChibiOS/os/common/ext/ARM/CMSIS/Core/Include/cmsis_gcc.h" 1
 327 0046 83F31188 		MSR basepri, r3
 328              	@ 0 "" 2
 329              	.LVL8:
 330              		.loc 5 493 3 view .LVU70
 331              		.thumb
 332              		.syntax unified
 333              	.LBE94:
 334              	.LBE96:
 335              	.LBE99:
 336              	.LBE103:
 337              	.LBE108:
 338              		.loc 3 356 34 is_stmt 1 view .LVU71
 339              		.loc 3 357 20 view .LVU72
ARM GAS  /tmp/ccGK61tO.s 			page 7


 340              		.loc 1 109 3 view .LVU73
 341              		.loc 1 109 3 view .LVU74
 342              		.loc 1 112 3 view .LVU75
 343 004a FFF7FEFF 		bl	trng_lld_stop
 344              	.LVL9:
 345              		.loc 1 113 3 view .LVU76
 346              		.loc 1 114 17 is_stmt 0 view .LVU77
 347 004e 0122     		movs	r2, #1
 348              		.loc 1 113 17 view .LVU78
 349 0050 0023     		movs	r3, #0
 350              		.loc 1 114 17 view .LVU79
 351 0052 2270     		strb	r2, [r4]
 352              		.loc 1 113 17 view .LVU80
 353 0054 6360     		str	r3, [r4, #4]
 354              		.loc 1 114 3 is_stmt 1 view .LVU81
 355              		.loc 1 116 3 view .LVU82
 356              	.LBB109:
 357              	.LBI109:
 358              		.loc 2 520 20 view .LVU83
 359              	.LBE109:
 360              		.loc 2 522 3 view .LVU84
 361              	.LBB118:
 362              	.LBB110:
 363              	.LBI110:
 364              		.loc 3 365 20 view .LVU85
 365              	.LBB111:
 366              		.loc 3 367 22 view .LVU86
 367              		.loc 3 368 33 view .LVU87
 368              		.loc 3 374 3 view .LVU88
 369              		.loc 3 374 3 view .LVU89
 370              		.loc 3 378 3 view .LVU90
 371              	.LBB112:
 372              	.LBI112:
 373              		.loc 4 693 27 view .LVU91
 374              	.LBE112:
 375              	.LBE111:
 376              	.LBE110:
 377              	.LBE118:
 378              		.loc 4 696 3 view .LVU92
 379              	.LVL10:
 380              	.LBB119:
 381              	.LBB117:
 382              	.LBB116:
 383              	.LBB115:
 384              	.LBB113:
 385              	.LBI113:
 386              		.loc 5 491 27 view .LVU93
 387              	.LBB114:
 388              		.loc 5 493 3 view .LVU94
 389              		.syntax unified
 390              	@ 493 "../../../external/ChibiOS/os/common/ext/ARM/CMSIS/Core/Include/cmsis_gcc.h" 1
 391 0056 83F31188 		MSR basepri, r3
 392              	@ 0 "" 2
 393              	.LVL11:
 394              		.loc 5 493 3 is_stmt 0 view .LVU95
 395              		.thumb
 396              		.syntax unified
ARM GAS  /tmp/ccGK61tO.s 			page 8


 397              	.LBE114:
 398              	.LBE113:
 399              	.LBE115:
 400              	.LBE116:
 401              	.LBE117:
 402              	.LBE119:
 403              		.loc 1 117 1 view .LVU96
 404 005a 10BD     		pop	{r4, pc}
 405              		.loc 1 117 1 view .LVU97
 406              		.cfi_endproc
 407              	.LFE365:
 408              		.size	trngStop, .-trngStop
 409              		.align	1
 410 005c AFF30080 		.p2align 4,,15
 411              		.global	trngGenerate
 412              		.syntax unified
 413              		.thumb
 414              		.thumb_func
 415              		.fpu fpv4-sp-d16
 416              		.type	trngGenerate, %function
 417              	trngGenerate:
 418              	.LVL12:
 419              	.LFB366:
 420              		.loc 1 133 65 is_stmt 1 view -0
 421              		.cfi_startproc
 422              		@ args = 0, pretend = 0, frame = 0
 423              		@ frame_needed = 0, uses_anonymous_args = 0
 424              		.loc 1 134 3 view .LVU99
 425              		.loc 1 136 3 view .LVU100
 426              		.loc 1 136 3 view .LVU101
 427              		.loc 1 138 3 view .LVU102
 428              		.loc 1 138 3 view .LVU103
 429              		.loc 1 140 3 view .LVU104
 430              		.loc 1 140 16 is_stmt 0 view .LVU105
 431 0060 0323     		movs	r3, #3
 432              		.loc 1 133 65 view .LVU106
 433 0062 10B5     		push	{r4, lr}
 434              		.cfi_def_cfa_offset 8
 435              		.cfi_offset 4, -8
 436              		.cfi_offset 14, -4
 437              		.loc 1 140 16 view .LVU107
 438 0064 0370     		strb	r3, [r0]
 439              		.loc 1 142 3 is_stmt 1 view .LVU108
 440              		.loc 1 133 65 is_stmt 0 view .LVU109
 441 0066 0446     		mov	r4, r0
 442              		.loc 1 142 9 view .LVU110
 443 0068 FFF7FEFF 		bl	trng_lld_generate
 444              	.LVL13:
 445              		.loc 1 144 3 is_stmt 1 view .LVU111
 446              		.loc 1 144 16 is_stmt 0 view .LVU112
 447 006c 0223     		movs	r3, #2
 448 006e 2370     		strb	r3, [r4]
 449              		.loc 1 146 3 is_stmt 1 view .LVU113
 450              		.loc 1 147 1 is_stmt 0 view .LVU114
 451 0070 10BD     		pop	{r4, pc}
 452              		.loc 1 147 1 view .LVU115
 453              		.cfi_endproc
ARM GAS  /tmp/ccGK61tO.s 			page 9


 454              	.LFE366:
 455              		.size	trngGenerate, .-trngGenerate
 456              	.Letext0:
 457              		.file 6 "/home/nicolas/arm/gcc-arm-none-eabi-8-2019-q3-update/lib/gcc/arm-none-eabi/8.3.1/include/
 458              		.file 7 "/home/nicolas/arm/gcc-arm-none-eabi-8-2019-q3-update/arm-none-eabi/include/machine/_defau
 459              		.file 8 "/home/nicolas/arm/gcc-arm-none-eabi-8-2019-q3-update/arm-none-eabi/include/sys/_stdint.h"
 460              		.file 9 "/home/nicolas/arm/gcc-arm-none-eabi-8-2019-q3-update/arm-none-eabi/include/stdint.h"
 461              		.file 10 "../../../external/ChibiOS/os/common/ports/ARMCMx/compilers/GCC/chtypes.h"
 462              		.file 11 "../../../external/ChibiOS/os/rt/include/chsystypes.h"
 463              		.file 12 "../../../external/ChibiOS/os/rt/include/chschd.h"
 464              		.file 13 "../../../external/ChibiOS/os/rt/include/chtime.h"
 465              		.file 14 "../../../external/ChibiOS/os/common/ext/ARM/CMSIS/Core/Include/core_cm7.h"
 466              		.file 15 "../../../external/ChibiOS/os/common/ext/ST/STM32H7xx/system_stm32h7xx.h"
 467              		.file 16 "../../../external/ChibiOS/os/common/ext/ST/STM32H7xx/stm32h753xx.h"
 468              		.file 17 "../../../external/ChibiOS/os/common/ports/ARMCMx/chcore.h"
 469              		.file 18 "../../../external/ChibiOS/os/rt/include/chtrace.h"
 470              		.file 19 "../../../external/ChibiOS/os/rt/include/chtm.h"
 471              		.file 20 "../../../external/ChibiOS/os/rt/include/chsem.h"
 472              		.file 21 "../../../external/ChibiOS/os/rt/include/chmtx.h"
 473              		.file 22 "../../../external/ChibiOS/os/rt/include/chregistry.h"
 474              		.file 23 "../../../external/ChibiOS/os/rt/include/chevents.h"
 475              		.file 24 "../../../external/ChibiOS/os/oslib/include/chmemcore.h"
 476              		.file 25 "../../../external/ChibiOS/os/oslib/include/chmempools.h"
 477              		.file 26 "../../../external/ChibiOS/os/oslib/include/chfactory.h"
 478              		.file 27 "../../../external/ChibiOS/os/hal/ports/STM32/LLD/DMAv2/stm32_dma.h"
 479              		.file 28 "../../../external/ChibiOS/os/hal/ports/STM32/LLD/BDMAv1/stm32_bdma.h"
 480              		.file 29 "../../../external/ChibiOS/os/hal/ports/STM32/LLD/TIMv1/stm32_tim.h"
 481              		.file 30 "../../../external/ChibiOS/os/hal/include/hal_ioblock.h"
 482              		.file 31 "../../../external/ChibiOS/os/hal/include/hal_queues.h"
 483              		.file 32 "../../../external/ChibiOS/os/hal/ports/STM32/LLD/GPIOv2/stm32_gpio.h"
 484              		.file 33 "../../../external/ChibiOS/os/hal/ports/STM32/LLD/GPIOv2/hal_pal_lld.h"
 485              		.file 34 "../../../external/ChibiOS/os/hal/include/hal_adc.h"
 486              		.file 35 "../../../external/ChibiOS/os/hal/ports/STM32/LLD/ADCv4/hal_adc_lld.h"
 487              		.file 36 "../../../external/ChibiOS/os/hal/include/hal_i2c.h"
 488              		.file 37 "../../../external/ChibiOS/os/hal/ports/STM32/LLD/I2Cv3/hal_i2c_lld.h"
 489              		.file 38 "../../../external/ChibiOS/os/hal/include/hal_pwm.h"
 490              		.file 39 "../../../external/ChibiOS/os/hal/ports/STM32/LLD/TIMv1/hal_pwm_lld.h"
 491              		.file 40 "../../../external/ChibiOS/os/hal/include/hal_serial.h"
 492              		.file 41 "../../../external/ChibiOS/os/hal/ports/STM32/LLD/USARTv2/hal_serial_lld.h"
 493              		.file 42 "../../../external/ChibiOS/os/hal/include/hal_sdc.h"
 494              		.file 43 "../../../external/ChibiOS/os/hal/ports/STM32/LLD/SDMMCv2/hal_sdc_lld.h"
 495              		.file 44 "../../../external/ChibiOS/os/hal/include/hal_spi.h"
 496              		.file 45 "../../../external/ChibiOS/os/hal/ports/STM32/LLD/SPIv3/hal_spi_lld.h"
 497              		.file 46 "../../../external/ChibiOS/os/hal/include/hal_trng.h"
 498              		.file 47 "../../../external/ChibiOS/os/hal/ports/STM32/LLD/RNGv1/hal_trng_lld.h"
 499              		.file 48 "../../../external/ChibiOS/os/hal/include/hal_usb.h"
 500              		.file 49 "../../../external/ChibiOS/os/hal/ports/STM32/LLD/OTGv1/hal_usb_lld.h"
 501              		.file 50 "../../../external/ChibiOS/os/hal/ports/STM32/LLD/OTGv1/stm32_otg.h"
 502              		.file 51 "../../../external/ChibiOS-Contrib/os/hal/include/hal_fsmc.h"
 503              		.file 52 "../../../external/ChibiOS-Contrib/os/hal/include/hal_sdram.h"