ARM GAS  /tmp/ccDvwBZR.s 			page 1


   1              		.cpu cortex-m7
   2              		.eabi_attribute 27, 1
   3              		.eabi_attribute 28, 1
   4              		.eabi_attribute 20, 1
   5              		.eabi_attribute 21, 1
   6              		.eabi_attribute 23, 3
   7              		.eabi_attribute 24, 1
   8              		.eabi_attribute 25, 1
   9              		.eabi_attribute 26, 1
  10              		.eabi_attribute 30, 2
  11              		.eabi_attribute 34, 1
  12              		.eabi_attribute 18, 4
  13              		.file	"hal_i2c.c"
  14              		.text
  15              	.Ltext0:
  16              		.cfi_sections	.debug_frame
  17              		.align	1
  18              		.p2align 4,,15
  19              		.global	i2cInit
  20              		.arch armv7e-m
  21              		.syntax unified
  22              		.thumb
  23              		.thumb_func
  24              		.fpu fpv4-sp-d16
  25              		.type	i2cInit, %function
  26              	i2cInit:
  27              	.LFB362:
  28              		.file 1 "../../../external/ChibiOS/os/hal/src/hal_i2c.c"
  29              		.loc 1 59 20 view -0
  30              		.cfi_startproc
  31              		@ args = 0, pretend = 0, frame = 0
  32              		@ frame_needed = 0, uses_anonymous_args = 0
  33              		@ link register save eliminated.
  34              		.loc 1 61 3 view .LVU1
  35 0000 FFF7FEBF 		b	i2c_lld_init
  36              	.LVL0:
  37              		.cfi_endproc
  38              	.LFE362:
  39              		.size	i2cInit, .-i2cInit
  40              		.align	1
  41 0004 AFF30080 		.p2align 4,,15
  41      AFF30080 
  41      AFF30080 
  42              		.global	i2cObjectInit
  43              		.syntax unified
  44              		.thumb
  45              		.thumb_func
  46              		.fpu fpv4-sp-d16
  47              		.type	i2cObjectInit, %function
  48              	i2cObjectInit:
  49              	.LVL1:
  50              	.LFB363:
  51              		.loc 1 71 37 view -0
  52              		.cfi_startproc
  53              		@ args = 0, pretend = 0, frame = 0
  54              		@ frame_needed = 0, uses_anonymous_args = 0
  55              		@ link register save eliminated.
ARM GAS  /tmp/ccDvwBZR.s 			page 2


  56              		.loc 1 73 3 view .LVU3
  57              		.loc 1 71 37 is_stmt 0 view .LVU4
  58 0010 0346     		mov	r3, r0
  59              		.loc 1 73 16 view .LVU5
  60 0012 0121     		movs	r1, #1
  61              		.loc 1 74 16 view .LVU6
  62 0014 0022     		movs	r2, #0
  63              	.LBB82:
  64              	.LBB83:
  65              		.file 2 "../../../external/ChibiOS/os/hal/osal/rt-nil/osal.h"
  66              		.loc 2 974 3 view .LVU7
  67 0016 0C30     		adds	r0, r0, #12
  68              	.LVL2:
  69              		.loc 2 974 3 view .LVU8
  70              	.LBE83:
  71              	.LBE82:
  72              		.loc 1 73 16 view .LVU9
  73 0018 00F80C1C 		strb	r1, [r0, #-12]
  74              		.loc 1 74 3 is_stmt 1 view .LVU10
  75              		.loc 1 74 16 is_stmt 0 view .LVU11
  76 001c 5A60     		str	r2, [r3, #4]
  77              		.loc 1 77 3 is_stmt 1 view .LVU12
  78              	.LVL3:
  79              	.LBB85:
  80              	.LBI82:
  81              		.loc 2 971 20 view .LVU13
  82              	.LBB84:
  83              		.loc 2 974 3 view .LVU14
  84 001e FFF7FEBF 		b	chMtxObjectInit
  85              	.LVL4:
  86              		.loc 2 974 3 is_stmt 0 view .LVU15
  87              	.LBE84:
  88              	.LBE85:
  89              		.cfi_endproc
  90              	.LFE363:
  91              		.size	i2cObjectInit, .-i2cObjectInit
  92              		.align	1
  93 0022 00BFAFF3 		.p2align 4,,15
  93      0080AFF3 
  93      0080AFF3 
  93      0080
  94              		.global	i2cStart
  95              		.syntax unified
  96              		.thumb
  97              		.thumb_func
  98              		.fpu fpv4-sp-d16
  99              		.type	i2cStart, %function
 100              	i2cStart:
 101              	.LVL5:
 102              	.LFB364:
 103              		.loc 1 93 57 is_stmt 1 view -0
 104              		.cfi_startproc
 105              		@ args = 0, pretend = 0, frame = 0
 106              		@ frame_needed = 0, uses_anonymous_args = 0
 107              		.loc 1 95 3 view .LVU17
 108              		.loc 1 95 3 view .LVU18
 109              		.loc 1 96 3 view .LVU19
ARM GAS  /tmp/ccDvwBZR.s 			page 3


 110              		.loc 1 96 3 view .LVU20
 111              		.loc 1 99 3 view .LVU21
 112              	.LBB86:
 113              	.LBI86:
 114              		.loc 2 509 20 view .LVU22
 115              	.LBE86:
 116              		.loc 2 511 3 view .LVU23
 117              	.LBB102:
 118              	.LBB87:
 119              	.LBI87:
 120              		.file 3 "../../../external/ChibiOS/os/rt/include/chsys.h"
 121              		.loc 3 353 20 view .LVU24
 122              	.LBE87:
 123              	.LBE102:
 124              		.loc 3 355 3 view .LVU25
 125              	.LBB103:
 126              	.LBB98:
 127              	.LBB88:
 128              	.LBI88:
 129              		.file 4 "../../../external/ChibiOS/os/common/ports/ARMCMx/chcore_v7m.h"
 130              		.loc 4 669 27 view .LVU26
 131              	.LBE88:
 132              	.LBE98:
 133              	.LBE103:
 134              		.loc 4 677 3 view .LVU27
 135              	.LBB104:
 136              	.LBB99:
 137              	.LBB95:
 138              	.LBB89:
 139              	.LBI89:
 140              		.file 5 "../../../external/ChibiOS/os/common/ext/ARM/CMSIS/Core/Include/cmsis_gcc.h"
 141              		.loc 5 491 27 view .LVU28
 142              	.LBB90:
 143              		.loc 5 493 3 view .LVU29
 144              	.LBE90:
 145              	.LBE89:
 146              	.LBE95:
 147              	.LBE99:
 148              	.LBE104:
 149              		.loc 1 93 57 is_stmt 0 view .LVU30
 150 0030 10B5     		push	{r4, lr}
 151              		.cfi_def_cfa_offset 8
 152              		.cfi_offset 4, -8
 153              		.cfi_offset 14, -4
 154              	.LBB105:
 155              	.LBB100:
 156              	.LBB96:
 157              	.LBB93:
 158              	.LBB91:
 159              		.loc 5 493 3 view .LVU31
 160 0032 2023     		movs	r3, #32
 161              	.LBE91:
 162              	.LBE93:
 163              	.LBE96:
 164              	.LBE100:
 165              	.LBE105:
 166              		.loc 1 93 57 view .LVU32
ARM GAS  /tmp/ccDvwBZR.s 			page 4


 167 0034 0446     		mov	r4, r0
 168              	.LBB106:
 169              	.LBB101:
 170              	.LBB97:
 171              	.LBB94:
 172              	.LBB92:
 173              		.loc 5 493 3 view .LVU33
 174              		.syntax unified
 175              	@ 493 "../../../external/ChibiOS/os/common/ext/ARM/CMSIS/Core/Include/cmsis_gcc.h" 1
 176 0036 83F31188 		MSR basepri, r3
 177              	@ 0 "" 2
 178              	.LVL6:
 179              		.loc 5 493 3 view .LVU34
 180              		.thumb
 181              		.syntax unified
 182              	.LBE92:
 183              	.LBE94:
 184              	.LBE97:
 185              	.LBE101:
 186              	.LBE106:
 187              		.loc 3 356 34 is_stmt 1 view .LVU35
 188              		.loc 3 357 20 view .LVU36
 189              		.loc 1 100 3 view .LVU37
 190              		.loc 1 100 16 is_stmt 0 view .LVU38
 191 003a 4160     		str	r1, [r0, #4]
 192              		.loc 1 101 3 is_stmt 1 view .LVU39
 193 003c FFF7FEFF 		bl	i2c_lld_start
 194              	.LVL7:
 195              		.loc 1 102 3 view .LVU40
 196              		.loc 1 102 15 is_stmt 0 view .LVU41
 197 0040 0222     		movs	r2, #2
 198              	.LBB107:
 199              	.LBB108:
 200              	.LBB109:
 201              	.LBB110:
 202              	.LBB111:
 203              	.LBB112:
 204              		.loc 5 493 3 view .LVU42
 205 0042 0023     		movs	r3, #0
 206              	.LBE112:
 207              	.LBE111:
 208              	.LBE110:
 209              	.LBE109:
 210              	.LBE108:
 211              	.LBE107:
 212              		.loc 1 102 15 view .LVU43
 213 0044 2270     		strb	r2, [r4]
 214              		.loc 1 103 3 is_stmt 1 view .LVU44
 215              	.LBB121:
 216              	.LBI107:
 217              		.loc 2 520 20 view .LVU45
 218              	.LBE121:
 219              		.loc 2 522 3 view .LVU46
 220              	.LBB122:
 221              	.LBB119:
 222              	.LBI108:
 223              		.loc 3 365 20 view .LVU47
ARM GAS  /tmp/ccDvwBZR.s 			page 5


 224              	.LBB117:
 225              		.loc 3 367 22 view .LVU48
 226              		.loc 3 368 33 view .LVU49
 227              		.loc 3 374 3 view .LVU50
 228              		.loc 3 374 3 view .LVU51
 229              		.loc 3 378 3 view .LVU52
 230              	.LBB115:
 231              	.LBI110:
 232              		.loc 4 693 27 view .LVU53
 233              	.LBE115:
 234              	.LBE117:
 235              	.LBE119:
 236              	.LBE122:
 237              		.loc 4 696 3 view .LVU54
 238              	.LVL8:
 239              	.LBB123:
 240              	.LBB120:
 241              	.LBB118:
 242              	.LBB116:
 243              	.LBB114:
 244              	.LBI111:
 245              		.loc 5 491 27 view .LVU55
 246              	.LBB113:
 247              		.loc 5 493 3 view .LVU56
 248              		.syntax unified
 249              	@ 493 "../../../external/ChibiOS/os/common/ext/ARM/CMSIS/Core/Include/cmsis_gcc.h" 1
 250 0046 83F31188 		MSR basepri, r3
 251              	@ 0 "" 2
 252              	.LVL9:
 253              		.loc 5 493 3 is_stmt 0 view .LVU57
 254              		.thumb
 255              		.syntax unified
 256              	.LBE113:
 257              	.LBE114:
 258              	.LBE116:
 259              	.LBE118:
 260              	.LBE120:
 261              	.LBE123:
 262              		.loc 1 104 1 view .LVU58
 263 004a 10BD     		pop	{r4, pc}
 264              		.loc 1 104 1 view .LVU59
 265              		.cfi_endproc
 266              	.LFE364:
 267              		.size	i2cStart, .-i2cStart
 268              		.align	1
 269 004c AFF30080 		.p2align 4,,15
 270              		.global	i2cStop
 271              		.syntax unified
 272              		.thumb
 273              		.thumb_func
 274              		.fpu fpv4-sp-d16
 275              		.type	i2cStop, %function
 276              	i2cStop:
 277              	.LVL10:
 278              	.LFB365:
 279              		.loc 1 113 31 is_stmt 1 view -0
 280              		.cfi_startproc
ARM GAS  /tmp/ccDvwBZR.s 			page 6


 281              		@ args = 0, pretend = 0, frame = 0
 282              		@ frame_needed = 0, uses_anonymous_args = 0
 283              		.loc 1 115 3 view .LVU61
 284              		.loc 1 115 3 view .LVU62
 285              		.loc 1 117 3 view .LVU63
 286              	.LBB124:
 287              	.LBI124:
 288              		.loc 2 509 20 view .LVU64
 289              	.LBE124:
 290              		.loc 2 511 3 view .LVU65
 291              	.LBB140:
 292              	.LBB125:
 293              	.LBI125:
 294              		.loc 3 353 20 view .LVU66
 295              	.LBE125:
 296              	.LBE140:
 297              		.loc 3 355 3 view .LVU67
 298              	.LBB141:
 299              	.LBB136:
 300              	.LBB126:
 301              	.LBI126:
 302              		.loc 4 669 27 view .LVU68
 303              	.LBE126:
 304              	.LBE136:
 305              	.LBE141:
 306              		.loc 4 677 3 view .LVU69
 307              	.LBB142:
 308              	.LBB137:
 309              	.LBB133:
 310              	.LBB127:
 311              	.LBI127:
 312              		.loc 5 491 27 view .LVU70
 313              	.LBB128:
 314              		.loc 5 493 3 view .LVU71
 315              	.LBE128:
 316              	.LBE127:
 317              	.LBE133:
 318              	.LBE137:
 319              	.LBE142:
 320              		.loc 1 113 31 is_stmt 0 view .LVU72
 321 0050 10B5     		push	{r4, lr}
 322              		.cfi_def_cfa_offset 8
 323              		.cfi_offset 4, -8
 324              		.cfi_offset 14, -4
 325              	.LBB143:
 326              	.LBB138:
 327              	.LBB134:
 328              	.LBB131:
 329              	.LBB129:
 330              		.loc 5 493 3 view .LVU73
 331 0052 2023     		movs	r3, #32
 332              	.LBE129:
 333              	.LBE131:
 334              	.LBE134:
 335              	.LBE138:
 336              	.LBE143:
 337              		.loc 1 113 31 view .LVU74
ARM GAS  /tmp/ccDvwBZR.s 			page 7


 338 0054 0446     		mov	r4, r0
 339              	.LBB144:
 340              	.LBB139:
 341              	.LBB135:
 342              	.LBB132:
 343              	.LBB130:
 344              		.loc 5 493 3 view .LVU75
 345              		.syntax unified
 346              	@ 493 "../../../external/ChibiOS/os/common/ext/ARM/CMSIS/Core/Include/cmsis_gcc.h" 1
 347 0056 83F31188 		MSR basepri, r3
 348              	@ 0 "" 2
 349              	.LVL11:
 350              		.loc 5 493 3 view .LVU76
 351              		.thumb
 352              		.syntax unified
 353              	.LBE130:
 354              	.LBE132:
 355              	.LBE135:
 356              	.LBE139:
 357              	.LBE144:
 358              		.loc 3 356 34 is_stmt 1 view .LVU77
 359              		.loc 3 357 20 view .LVU78
 360              		.loc 1 119 3 view .LVU79
 361              		.loc 1 119 3 view .LVU80
 362              		.loc 1 122 3 view .LVU81
 363 005a FFF7FEFF 		bl	i2c_lld_stop
 364              	.LVL12:
 365              		.loc 1 123 3 view .LVU82
 366              		.loc 1 124 16 is_stmt 0 view .LVU83
 367 005e 0122     		movs	r2, #1
 368              		.loc 1 123 16 view .LVU84
 369 0060 0023     		movs	r3, #0
 370              		.loc 1 124 16 view .LVU85
 371 0062 2270     		strb	r2, [r4]
 372              		.loc 1 123 16 view .LVU86
 373 0064 6360     		str	r3, [r4, #4]
 374              		.loc 1 124 3 is_stmt 1 view .LVU87
 375              		.loc 1 126 3 view .LVU88
 376              	.LBB145:
 377              	.LBI145:
 378              		.loc 2 520 20 view .LVU89
 379              	.LBE145:
 380              		.loc 2 522 3 view .LVU90
 381              	.LBB154:
 382              	.LBB146:
 383              	.LBI146:
 384              		.loc 3 365 20 view .LVU91
 385              	.LBB147:
 386              		.loc 3 367 22 view .LVU92
 387              		.loc 3 368 33 view .LVU93
 388              		.loc 3 374 3 view .LVU94
 389              		.loc 3 374 3 view .LVU95
 390              		.loc 3 378 3 view .LVU96
 391              	.LBB148:
 392              	.LBI148:
 393              		.loc 4 693 27 view .LVU97
 394              	.LBE148:
ARM GAS  /tmp/ccDvwBZR.s 			page 8


 395              	.LBE147:
 396              	.LBE146:
 397              	.LBE154:
 398              		.loc 4 696 3 view .LVU98
 399              	.LVL13:
 400              	.LBB155:
 401              	.LBB153:
 402              	.LBB152:
 403              	.LBB151:
 404              	.LBB149:
 405              	.LBI149:
 406              		.loc 5 491 27 view .LVU99
 407              	.LBB150:
 408              		.loc 5 493 3 view .LVU100
 409              		.syntax unified
 410              	@ 493 "../../../external/ChibiOS/os/common/ext/ARM/CMSIS/Core/Include/cmsis_gcc.h" 1
 411 0066 83F31188 		MSR basepri, r3
 412              	@ 0 "" 2
 413              	.LVL14:
 414              		.loc 5 493 3 is_stmt 0 view .LVU101
 415              		.thumb
 416              		.syntax unified
 417              	.LBE150:
 418              	.LBE149:
 419              	.LBE151:
 420              	.LBE152:
 421              	.LBE153:
 422              	.LBE155:
 423              		.loc 1 127 1 view .LVU102
 424 006a 10BD     		pop	{r4, pc}
 425              		.loc 1 127 1 view .LVU103
 426              		.cfi_endproc
 427              	.LFE365:
 428              		.size	i2cStop, .-i2cStop
 429              		.align	1
 430 006c AFF30080 		.p2align 4,,15
 431              		.global	i2cGetErrors
 432              		.syntax unified
 433              		.thumb
 434              		.thumb_func
 435              		.fpu fpv4-sp-d16
 436              		.type	i2cGetErrors, %function
 437              	i2cGetErrors:
 438              	.LVL15:
 439              	.LFB366:
 440              		.loc 1 137 42 is_stmt 1 view -0
 441              		.cfi_startproc
 442              		@ args = 0, pretend = 0, frame = 0
 443              		@ frame_needed = 0, uses_anonymous_args = 0
 444              		@ link register save eliminated.
 445              		.loc 1 139 3 view .LVU105
 446              		.loc 1 139 3 view .LVU106
 447              		.loc 1 141 3 view .LVU107
 448              		.loc 1 142 1 is_stmt 0 view .LVU108
 449 0070 8068     		ldr	r0, [r0, #8]
 450              	.LVL16:
 451              		.loc 1 142 1 view .LVU109
ARM GAS  /tmp/ccDvwBZR.s 			page 9


 452 0072 7047     		bx	lr
 453              		.cfi_endproc
 454              	.LFE366:
 455              		.size	i2cGetErrors, .-i2cGetErrors
 456              		.align	1
 457 0074 AFF30080 		.p2align 4,,15
 457      AFF30080 
 457      AFF30080 
 458              		.global	i2cMasterTransmitTimeout
 459              		.syntax unified
 460              		.thumb
 461              		.thumb_func
 462              		.fpu fpv4-sp-d16
 463              		.type	i2cMasterTransmitTimeout, %function
 464              	i2cMasterTransmitTimeout:
 465              	.LVL17:
 466              	.LFB367:
 467              		.loc 1 176 55 is_stmt 1 view -0
 468              		.cfi_startproc
 469              		@ args = 12, pretend = 0, frame = 0
 470              		@ frame_needed = 0, uses_anonymous_args = 0
 471              		.loc 1 177 3 view .LVU111
 472              		.loc 1 179 3 view .LVU112
 473              		.loc 1 179 3 view .LVU113
 474              		.loc 1 184 3 view .LVU114
 475              		.loc 1 184 3 view .LVU115
 476              		.loc 1 186 3 view .LVU116
 477              	.LBB156:
 478              	.LBI156:
 479              		.loc 2 509 20 view .LVU117
 480              	.LBE156:
 481              		.loc 2 511 3 view .LVU118
 482              	.LBB172:
 483              	.LBB157:
 484              	.LBI157:
 485              		.loc 3 353 20 view .LVU119
 486              	.LBE157:
 487              	.LBE172:
 488              		.loc 3 355 3 view .LVU120
 489              	.LBB173:
 490              	.LBB168:
 491              	.LBB158:
 492              	.LBI158:
 493              		.loc 4 669 27 view .LVU121
 494              	.LBE158:
 495              	.LBE168:
 496              	.LBE173:
 497              		.loc 4 677 3 view .LVU122
 498              	.LBB174:
 499              	.LBB169:
 500              	.LBB165:
 501              	.LBB159:
 502              	.LBI159:
 503              		.loc 5 491 27 view .LVU123
 504              	.LBB160:
 505              		.loc 5 493 3 view .LVU124
 506              	.LBE160:
ARM GAS  /tmp/ccDvwBZR.s 			page 10


 507              	.LBE159:
 508              	.LBE165:
 509              	.LBE169:
 510              	.LBE174:
 511              		.loc 1 176 55 is_stmt 0 view .LVU125
 512 0080 F0B5     		push	{r4, r5, r6, r7, lr}
 513              		.cfi_def_cfa_offset 20
 514              		.cfi_offset 4, -20
 515              		.cfi_offset 5, -16
 516              		.cfi_offset 6, -12
 517              		.cfi_offset 7, -8
 518              		.cfi_offset 14, -4
 519 0082 85B0     		sub	sp, sp, #20
 520              		.cfi_def_cfa_offset 40
 521              		.loc 1 176 55 view .LVU126
 522 0084 0446     		mov	r4, r0
 523              	.LBB175:
 524              	.LBB170:
 525              	.LBB166:
 526              	.LBB163:
 527              	.LBB161:
 528              		.loc 5 493 3 view .LVU127
 529 0086 4FF0200C 		mov	ip, #32
 530              	.LBE161:
 531              	.LBE163:
 532              	.LBE166:
 533              	.LBE170:
 534              	.LBE175:
 535              		.loc 1 176 55 view .LVU128
 536 008a 0B9E     		ldr	r6, [sp, #44]
 537 008c 0C9F     		ldr	r7, [sp, #48]
 538              	.LBB176:
 539              	.LBB171:
 540              	.LBB167:
 541              	.LBB164:
 542              	.LBB162:
 543              		.loc 5 493 3 view .LVU129
 544              		.syntax unified
 545              	@ 493 "../../../external/ChibiOS/os/common/ext/ARM/CMSIS/Core/Include/cmsis_gcc.h" 1
 546 008e 8CF31188 		MSR basepri, ip
 547              	@ 0 "" 2
 548              	.LVL18:
 549              		.loc 5 493 3 view .LVU130
 550              		.thumb
 551              		.syntax unified
 552              	.LBE162:
 553              	.LBE164:
 554              	.LBE167:
 555              	.LBE171:
 556              	.LBE176:
 557              		.loc 3 356 34 is_stmt 1 view .LVU131
 558              		.loc 3 357 20 view .LVU132
 559              		.loc 1 187 3 view .LVU133
 560              		.loc 1 188 15 is_stmt 0 view .LVU134
 561 0092 4FF0030C 		mov	ip, #3
 562              		.loc 1 187 16 view .LVU135
 563 0096 0025     		movs	r5, #0
ARM GAS  /tmp/ccDvwBZR.s 			page 11


 564              		.loc 1 189 12 view .LVU136
 565 0098 CDE90167 		strd	r6, r7, [sp, #4]
 566 009c 0A9E     		ldr	r6, [sp, #40]
 567 009e 0096     		str	r6, [sp]
 568              		.loc 1 188 15 view .LVU137
 569 00a0 80F800C0 		strb	ip, [r0]
 570              		.loc 1 187 16 view .LVU138
 571 00a4 8560     		str	r5, [r0, #8]
 572              		.loc 1 188 3 is_stmt 1 view .LVU139
 573              		.loc 1 189 3 view .LVU140
 574              		.loc 1 189 12 is_stmt 0 view .LVU141
 575 00a6 FFF7FEFF 		bl	i2c_lld_master_transmit_timeout
 576              	.LVL19:
 577              		.loc 1 191 3 is_stmt 1 view .LVU142
 578              		.loc 1 191 6 is_stmt 0 view .LVU143
 579 00aa 431C     		adds	r3, r0, #1
 580              		.loc 1 192 17 view .LVU144
 581 00ac 14BF     		ite	ne
 582 00ae 0223     		movne	r3, #2
 583 00b0 0523     		moveq	r3, #5
 584 00b2 2370     		strb	r3, [r4]
 585              		.loc 1 197 3 is_stmt 1 view .LVU145
 586              	.LBB177:
 587              	.LBI177:
 588              		.loc 2 520 20 view .LVU146
 589              	.LBE177:
 590              		.loc 2 522 3 view .LVU147
 591              	.LBB186:
 592              	.LBB178:
 593              	.LBI178:
 594              		.loc 3 365 20 view .LVU148
 595              	.LBB179:
 596              		.loc 3 367 22 view .LVU149
 597              		.loc 3 368 33 view .LVU150
 598              		.loc 3 374 3 view .LVU151
 599              		.loc 3 374 3 view .LVU152
 600              		.loc 3 378 3 view .LVU153
 601              	.LBB180:
 602              	.LBI180:
 603              		.loc 4 693 27 view .LVU154
 604              	.LBE180:
 605              	.LBE179:
 606              	.LBE178:
 607              	.LBE186:
 608              		.loc 4 696 3 view .LVU155
 609              	.LVL20:
 610              	.LBB187:
 611              	.LBB185:
 612              	.LBB184:
 613              	.LBB183:
 614              	.LBB181:
 615              	.LBI181:
 616              		.loc 5 491 27 view .LVU156
 617              	.LBB182:
 618              		.loc 5 493 3 view .LVU157
 619              		.syntax unified
 620              	@ 493 "../../../external/ChibiOS/os/common/ext/ARM/CMSIS/Core/Include/cmsis_gcc.h" 1
ARM GAS  /tmp/ccDvwBZR.s 			page 12


 621 00b4 85F31188 		MSR basepri, r5
 622              	@ 0 "" 2
 623              	.LVL21:
 624              		.loc 5 493 3 is_stmt 0 view .LVU158
 625              		.thumb
 626              		.syntax unified
 627              	.LBE182:
 628              	.LBE181:
 629              	.LBE183:
 630              	.LBE184:
 631              	.LBE185:
 632              	.LBE187:
 633              		.loc 1 198 3 is_stmt 1 view .LVU159
 634              		.loc 1 199 1 is_stmt 0 view .LVU160
 635 00b8 05B0     		add	sp, sp, #20
 636              		.cfi_def_cfa_offset 20
 637              		@ sp needed
 638 00ba F0BD     		pop	{r4, r5, r6, r7, pc}
 639              		.loc 1 199 1 view .LVU161
 640              		.cfi_endproc
 641              	.LFE367:
 642              		.size	i2cMasterTransmitTimeout, .-i2cMasterTransmitTimeout
 643              		.align	1
 644 00bc AFF30080 		.p2align 4,,15
 645              		.global	i2cMasterReceiveTimeout
 646              		.syntax unified
 647              		.thumb
 648              		.thumb_func
 649              		.fpu fpv4-sp-d16
 650              		.type	i2cMasterReceiveTimeout, %function
 651              	i2cMasterReceiveTimeout:
 652              	.LVL22:
 653              	.LFB368:
 654              		.loc 1 225 54 is_stmt 1 view -0
 655              		.cfi_startproc
 656              		@ args = 4, pretend = 0, frame = 0
 657              		@ frame_needed = 0, uses_anonymous_args = 0
 658              		.loc 1 227 3 view .LVU163
 659              		.loc 1 229 3 view .LVU164
 660              		.loc 1 229 3 view .LVU165
 661              		.loc 1 233 3 view .LVU166
 662              		.loc 1 233 3 view .LVU167
 663              		.loc 1 235 3 view .LVU168
 664              	.LBB188:
 665              	.LBI188:
 666              		.loc 2 509 20 view .LVU169
 667              	.LBE188:
 668              		.loc 2 511 3 view .LVU170
 669              	.LBB204:
 670              	.LBB189:
 671              	.LBI189:
 672              		.loc 3 353 20 view .LVU171
 673              	.LBE189:
 674              	.LBE204:
 675              		.loc 3 355 3 view .LVU172
 676              	.LBB205:
 677              	.LBB200:
ARM GAS  /tmp/ccDvwBZR.s 			page 13


 678              	.LBB190:
 679              	.LBI190:
 680              		.loc 4 669 27 view .LVU173
 681              	.LBE190:
 682              	.LBE200:
 683              	.LBE205:
 684              		.loc 4 677 3 view .LVU174
 685              	.LBB206:
 686              	.LBB201:
 687              	.LBB197:
 688              	.LBB191:
 689              	.LBI191:
 690              		.loc 5 491 27 view .LVU175
 691              	.LBB192:
 692              		.loc 5 493 3 view .LVU176
 693              	.LBE192:
 694              	.LBE191:
 695              	.LBE197:
 696              	.LBE201:
 697              	.LBE206:
 698              		.loc 1 225 54 is_stmt 0 view .LVU177
 699 00c0 F0B5     		push	{r4, r5, r6, r7, lr}
 700              		.cfi_def_cfa_offset 20
 701              		.cfi_offset 4, -20
 702              		.cfi_offset 5, -16
 703              		.cfi_offset 6, -12
 704              		.cfi_offset 7, -8
 705              		.cfi_offset 14, -4
 706 00c2 83B0     		sub	sp, sp, #12
 707              		.cfi_def_cfa_offset 32
 708              		.loc 1 225 54 view .LVU178
 709 00c4 0446     		mov	r4, r0
 710              	.LBB207:
 711              	.LBB202:
 712              	.LBB198:
 713              	.LBB195:
 714              	.LBB193:
 715              		.loc 5 493 3 view .LVU179
 716 00c6 2025     		movs	r5, #32
 717              	.LBE193:
 718              	.LBE195:
 719              	.LBE198:
 720              	.LBE202:
 721              	.LBE207:
 722              		.loc 1 225 54 view .LVU180
 723 00c8 089F     		ldr	r7, [sp, #32]
 724              	.LBB208:
 725              	.LBB203:
 726              	.LBB199:
 727              	.LBB196:
 728              	.LBB194:
 729              		.loc 5 493 3 view .LVU181
 730              		.syntax unified
 731              	@ 493 "../../../external/ChibiOS/os/common/ext/ARM/CMSIS/Core/Include/cmsis_gcc.h" 1
 732 00ca 85F31188 		MSR basepri, r5
 733              	@ 0 "" 2
 734              	.LVL23:
ARM GAS  /tmp/ccDvwBZR.s 			page 14


 735              		.loc 5 493 3 view .LVU182
 736              		.thumb
 737              		.syntax unified
 738              	.LBE194:
 739              	.LBE196:
 740              	.LBE199:
 741              	.LBE203:
 742              	.LBE208:
 743              		.loc 3 356 34 is_stmt 1 view .LVU183
 744              		.loc 3 357 20 view .LVU184
 745              		.loc 1 236 3 view .LVU185
 746              		.loc 1 237 15 is_stmt 0 view .LVU186
 747 00ce 0426     		movs	r6, #4
 748              		.loc 1 236 16 view .LVU187
 749 00d0 0025     		movs	r5, #0
 750              		.loc 1 238 12 view .LVU188
 751 00d2 0097     		str	r7, [sp]
 752              		.loc 1 237 15 view .LVU189
 753 00d4 0670     		strb	r6, [r0]
 754              		.loc 1 236 16 view .LVU190
 755 00d6 8560     		str	r5, [r0, #8]
 756              		.loc 1 237 3 is_stmt 1 view .LVU191
 757              		.loc 1 238 3 view .LVU192
 758              		.loc 1 238 12 is_stmt 0 view .LVU193
 759 00d8 FFF7FEFF 		bl	i2c_lld_master_receive_timeout
 760              	.LVL24:
 761              		.loc 1 239 3 is_stmt 1 view .LVU194
 762              		.loc 1 239 6 is_stmt 0 view .LVU195
 763 00dc 431C     		adds	r3, r0, #1
 764              		.loc 1 240 17 view .LVU196
 765 00de 14BF     		ite	ne
 766 00e0 0223     		movne	r3, #2
 767 00e2 0523     		moveq	r3, #5
 768 00e4 2370     		strb	r3, [r4]
 769              		.loc 1 245 3 is_stmt 1 view .LVU197
 770              	.LBB209:
 771              	.LBI209:
 772              		.loc 2 520 20 view .LVU198
 773              	.LBE209:
 774              		.loc 2 522 3 view .LVU199
 775              	.LBB218:
 776              	.LBB210:
 777              	.LBI210:
 778              		.loc 3 365 20 view .LVU200
 779              	.LBB211:
 780              		.loc 3 367 22 view .LVU201
 781              		.loc 3 368 33 view .LVU202
 782              		.loc 3 374 3 view .LVU203
 783              		.loc 3 374 3 view .LVU204
 784              		.loc 3 378 3 view .LVU205
 785              	.LBB212:
 786              	.LBI212:
 787              		.loc 4 693 27 view .LVU206
 788              	.LBE212:
 789              	.LBE211:
 790              	.LBE210:
 791              	.LBE218:
ARM GAS  /tmp/ccDvwBZR.s 			page 15


 792              		.loc 4 696 3 view .LVU207
 793              	.LVL25:
 794              	.LBB219:
 795              	.LBB217:
 796              	.LBB216:
 797              	.LBB215:
 798              	.LBB213:
 799              	.LBI213:
 800              		.loc 5 491 27 view .LVU208
 801              	.LBB214:
 802              		.loc 5 493 3 view .LVU209
 803              		.syntax unified
 804              	@ 493 "../../../external/ChibiOS/os/common/ext/ARM/CMSIS/Core/Include/cmsis_gcc.h" 1
 805 00e6 85F31188 		MSR basepri, r5
 806              	@ 0 "" 2
 807              	.LVL26:
 808              		.loc 5 493 3 is_stmt 0 view .LVU210
 809              		.thumb
 810              		.syntax unified
 811              	.LBE214:
 812              	.LBE213:
 813              	.LBE215:
 814              	.LBE216:
 815              	.LBE217:
 816              	.LBE219:
 817              		.loc 1 246 3 is_stmt 1 view .LVU211
 818              		.loc 1 247 1 is_stmt 0 view .LVU212
 819 00ea 03B0     		add	sp, sp, #12
 820              		.cfi_def_cfa_offset 20
 821              		@ sp needed
 822 00ec F0BD     		pop	{r4, r5, r6, r7, pc}
 823              		.loc 1 247 1 view .LVU213
 824              		.cfi_endproc
 825              	.LFE368:
 826              		.size	i2cMasterReceiveTimeout, .-i2cMasterReceiveTimeout
 827              		.align	1
 828 00ee 00BF     		.p2align 4,,15
 829              		.global	i2cAcquireBus
 830              		.syntax unified
 831              		.thumb
 832              		.thumb_func
 833              		.fpu fpv4-sp-d16
 834              		.type	i2cAcquireBus, %function
 835              	i2cAcquireBus:
 836              	.LVL27:
 837              	.LFB369:
 838              		.loc 1 261 37 is_stmt 1 view -0
 839              		.cfi_startproc
 840              		@ args = 0, pretend = 0, frame = 0
 841              		@ frame_needed = 0, uses_anonymous_args = 0
 842              		@ link register save eliminated.
 843              		.loc 1 263 3 view .LVU215
 844              		.loc 1 263 3 view .LVU216
 845              		.loc 1 265 3 view .LVU217
 846              	.LBB220:
 847              	.LBI220:
 848              		.loc 2 991 20 view .LVU218
ARM GAS  /tmp/ccDvwBZR.s 			page 16


 849              	.LBB221:
 850              		.loc 2 994 3 view .LVU219
 851 00f0 0C30     		adds	r0, r0, #12
 852              	.LVL28:
 853              		.loc 2 994 3 is_stmt 0 view .LVU220
 854 00f2 FFF7FEBF 		b	chMtxLock
 855              	.LVL29:
 856              		.loc 2 994 3 view .LVU221
 857              	.LBE221:
 858              	.LBE220:
 859              		.cfi_endproc
 860              	.LFE369:
 861              		.size	i2cAcquireBus, .-i2cAcquireBus
 862              		.align	1
 863 00f6 00BFAFF3 		.p2align 4,,15
 863      0080AFF3 
 863      0080
 864              		.global	i2cReleaseBus
 865              		.syntax unified
 866              		.thumb
 867              		.thumb_func
 868              		.fpu fpv4-sp-d16
 869              		.type	i2cReleaseBus, %function
 870              	i2cReleaseBus:
 871              	.LVL30:
 872              	.LFB370:
 873              		.loc 1 277 37 is_stmt 1 view -0
 874              		.cfi_startproc
 875              		@ args = 0, pretend = 0, frame = 0
 876              		@ frame_needed = 0, uses_anonymous_args = 0
 877              		@ link register save eliminated.
 878              		.loc 1 279 3 view .LVU223
 879              		.loc 1 279 3 view .LVU224
 880              		.loc 1 281 3 view .LVU225
 881              	.LBB222:
 882              	.LBI222:
 883              		.loc 2 1015 20 view .LVU226
 884              	.LBB223:
 885              		.loc 2 1018 3 view .LVU227
 886 0100 0C30     		adds	r0, r0, #12
 887              	.LVL31:
 888              		.loc 2 1018 3 is_stmt 0 view .LVU228
 889 0102 FFF7FEBF 		b	chMtxUnlock
 890              	.LVL32:
 891              		.loc 2 1018 3 view .LVU229
 892              	.LBE223:
 893              	.LBE222:
 894              		.cfi_endproc
 895              	.LFE370:
 896              		.size	i2cReleaseBus, .-i2cReleaseBus
 897              	.Letext0:
 898              		.file 6 "/home/nicolas/arm/gcc-arm-none-eabi-8-2019-q3-update/lib/gcc/arm-none-eabi/8.3.1/include/
 899              		.file 7 "/home/nicolas/arm/gcc-arm-none-eabi-8-2019-q3-update/arm-none-eabi/include/machine/_defau
 900              		.file 8 "/home/nicolas/arm/gcc-arm-none-eabi-8-2019-q3-update/arm-none-eabi/include/sys/_stdint.h"
 901              		.file 9 "/home/nicolas/arm/gcc-arm-none-eabi-8-2019-q3-update/arm-none-eabi/include/stdint.h"
 902              		.file 10 "../../../external/ChibiOS/os/common/ports/ARMCMx/compilers/GCC/chtypes.h"
 903              		.file 11 "../../../external/ChibiOS/os/rt/include/chsystypes.h"
ARM GAS  /tmp/ccDvwBZR.s 			page 17


 904              		.file 12 "../../../external/ChibiOS/os/rt/include/chschd.h"
 905              		.file 13 "../../../external/ChibiOS/os/rt/include/chtime.h"
 906              		.file 14 "../../../external/ChibiOS/os/common/ext/ARM/CMSIS/Core/Include/core_cm7.h"
 907              		.file 15 "../../../external/ChibiOS/os/common/ext/ST/STM32H7xx/system_stm32h7xx.h"
 908              		.file 16 "../../../external/ChibiOS/os/common/ext/ST/STM32H7xx/stm32h753xx.h"
 909              		.file 17 "../../../external/ChibiOS/os/common/ports/ARMCMx/chcore.h"
 910              		.file 18 "../../../external/ChibiOS/os/rt/include/chtrace.h"
 911              		.file 19 "../../../external/ChibiOS/os/rt/include/chtm.h"
 912              		.file 20 "../../../external/ChibiOS/os/rt/include/chsem.h"
 913              		.file 21 "../../../external/ChibiOS/os/rt/include/chmtx.h"
 914              		.file 22 "../../../external/ChibiOS/os/rt/include/chregistry.h"
 915              		.file 23 "../../../external/ChibiOS/os/rt/include/chevents.h"
 916              		.file 24 "../../../external/ChibiOS/os/oslib/include/chmemcore.h"
 917              		.file 25 "../../../external/ChibiOS/os/oslib/include/chmempools.h"
 918              		.file 26 "../../../external/ChibiOS/os/oslib/include/chfactory.h"
 919              		.file 27 "../../../external/ChibiOS/os/hal/ports/STM32/LLD/DMAv2/stm32_dma.h"
 920              		.file 28 "../../../external/ChibiOS/os/hal/ports/STM32/LLD/BDMAv1/stm32_bdma.h"
 921              		.file 29 "../../../external/ChibiOS/os/hal/ports/STM32/LLD/TIMv1/stm32_tim.h"
 922              		.file 30 "../../../external/ChibiOS/os/hal/include/hal_ioblock.h"
 923              		.file 31 "../../../external/ChibiOS/os/hal/include/hal_queues.h"
 924              		.file 32 "../../../external/ChibiOS/os/hal/ports/STM32/LLD/GPIOv2/stm32_gpio.h"
 925              		.file 33 "../../../external/ChibiOS/os/hal/ports/STM32/LLD/GPIOv2/hal_pal_lld.h"
 926              		.file 34 "../../../external/ChibiOS/os/hal/include/hal_adc.h"
 927              		.file 35 "../../../external/ChibiOS/os/hal/ports/STM32/LLD/ADCv4/hal_adc_lld.h"
 928              		.file 36 "../../../external/ChibiOS/os/hal/include/hal_i2c.h"
 929              		.file 37 "../../../external/ChibiOS/os/hal/ports/STM32/LLD/I2Cv3/hal_i2c_lld.h"
 930              		.file 38 "../../../external/ChibiOS/os/hal/include/hal_pwm.h"
 931              		.file 39 "../../../external/ChibiOS/os/hal/ports/STM32/LLD/TIMv1/hal_pwm_lld.h"
 932              		.file 40 "../../../external/ChibiOS/os/hal/include/hal_serial.h"
 933              		.file 41 "../../../external/ChibiOS/os/hal/ports/STM32/LLD/USARTv2/hal_serial_lld.h"
 934              		.file 42 "../../../external/ChibiOS/os/hal/include/hal_sdc.h"
 935              		.file 43 "../../../external/ChibiOS/os/hal/ports/STM32/LLD/SDMMCv2/hal_sdc_lld.h"
 936              		.file 44 "../../../external/ChibiOS/os/hal/include/hal_spi.h"
 937              		.file 45 "../../../external/ChibiOS/os/hal/ports/STM32/LLD/SPIv3/hal_spi_lld.h"
 938              		.file 46 "../../../external/ChibiOS/os/hal/include/hal_trng.h"
 939              		.file 47 "../../../external/ChibiOS/os/hal/ports/STM32/LLD/RNGv1/hal_trng_lld.h"
 940              		.file 48 "../../../external/ChibiOS/os/hal/include/hal_usb.h"
 941              		.file 49 "../../../external/ChibiOS/os/hal/ports/STM32/LLD/OTGv1/hal_usb_lld.h"
 942              		.file 50 "../../../external/ChibiOS/os/hal/ports/STM32/LLD/OTGv1/stm32_otg.h"
 943              		.file 51 "../../../external/ChibiOS-Contrib/os/hal/include/hal_fsmc.h"
 944              		.file 52 "../../../external/ChibiOS-Contrib/os/hal/include/hal_sdram.h"