ARM GAS  /tmp/ccfGNz29.s 			page 1


   1              		.cpu cortex-m7
   2              		.eabi_attribute 27, 1
   3              		.eabi_attribute 28, 1
   4              		.eabi_attribute 20, 1
   5              		.eabi_attribute 21, 1
   6              		.eabi_attribute 23, 3
   7              		.eabi_attribute 24, 1
   8              		.eabi_attribute 25, 1
   9              		.eabi_attribute 26, 1
  10              		.eabi_attribute 30, 2
  11              		.eabi_attribute 34, 1
  12              		.eabi_attribute 18, 4
  13              		.file	"hal_fsmc.c"
  14              		.text
  15              	.Ltext0:
  16              		.cfi_sections	.debug_frame
  17              		.align	1
  18              		.p2align 4,,15
  19              		.global	fsmcInit
  20              		.arch armv7e-m
  21              		.syntax unified
  22              		.thumb
  23              		.thumb_func
  24              		.fpu fpv4-sp-d16
  25              		.type	fsmcInit, %function
  26              	fsmcInit:
  27              	.LFB362:
  28              		.file 1 "../../../external/ChibiOS-Contrib/os/hal/src/hal_fsmc.c"
  29              		.loc 1 70 21 view -0
  30              		.cfi_startproc
  31              		@ args = 0, pretend = 0, frame = 0
  32              		@ frame_needed = 0, uses_anonymous_args = 0
  33              		@ link register save eliminated.
  34              		.loc 1 72 3 view .LVU1
  35              		.loc 1 72 13 is_stmt 0 view .LVU2
  36 0000 034B     		ldr	r3, .L4
  37              		.loc 1 72 6 view .LVU3
  38 0002 1A78     		ldrb	r2, [r3]	@ zero_extendqisi2
  39 0004 1AB9     		cbnz	r2, .L1
  40              		.loc 1 73 5 is_stmt 1 view .LVU4
  41              		.loc 1 73 19 is_stmt 0 view .LVU5
  42 0006 0121     		movs	r1, #1
  43              		.loc 1 110 18 view .LVU6
  44 0008 024A     		ldr	r2, .L4+4
  45              		.loc 1 73 19 view .LVU7
  46 000a 1970     		strb	r1, [r3]
  47              		.loc 1 110 5 is_stmt 1 view .LVU8
  48              		.loc 1 110 18 is_stmt 0 view .LVU9
  49 000c 5A60     		str	r2, [r3, #4]
  50              	.L1:
  51              		.loc 1 115 1 view .LVU10
  52 000e 7047     		bx	lr
  53              	.L5:
  54              		.align	2
  55              	.L4:
  56 0010 00000000 		.word	FSMCD1
  57 0014 40410052 		.word	1375748416
ARM GAS  /tmp/ccfGNz29.s 			page 2


  58              		.cfi_endproc
  59              	.LFE362:
  60              		.size	fsmcInit, .-fsmcInit
  61              		.align	1
  62 0018 AFF30080 		.p2align 4,,15
  62      AFF30080 
  63              		.global	fsmcStart
  64              		.syntax unified
  65              		.thumb
  66              		.thumb_func
  67              		.fpu fpv4-sp-d16
  68              		.type	fsmcStart, %function
  69              	fsmcStart:
  70              	.LVL0:
  71              	.LFB363:
  72              		.loc 1 124 35 is_stmt 1 view -0
  73              		.cfi_startproc
  74              		@ args = 0, pretend = 0, frame = 0
  75              		@ frame_needed = 0, uses_anonymous_args = 0
  76              		@ link register save eliminated.
  77              		.loc 1 126 3 view .LVU12
  78              		.loc 1 126 3 view .LVU13
  79              		.loc 1 129 3 view .LVU14
  80              		.loc 1 129 6 is_stmt 0 view .LVU15
  81 0020 0378     		ldrb	r3, [r0]	@ zero_extendqisi2
  82 0022 012B     		cmp	r3, #1
  83 0024 00D0     		beq	.L9
  84              		.loc 1 145 1 view .LVU16
  85 0026 7047     		bx	lr
  86              	.L9:
  87              		.loc 1 132 5 is_stmt 1 view .LVU17
  88              		.loc 1 132 8 is_stmt 0 view .LVU18
  89 0028 0F4B     		ldr	r3, .L11
  90 002a 9842     		cmp	r0, r3
  91 002c 02D0     		beq	.L10
  92              	.L8:
  93              		.loc 1 136 27 is_stmt 1 discriminator 5 view .LVU19
  94              		.loc 1 143 5 discriminator 5 view .LVU20
  95              		.loc 1 143 18 is_stmt 0 discriminator 5 view .LVU21
  96 002e 0223     		movs	r3, #2
  97 0030 0370     		strb	r3, [r0]
  98              		.loc 1 145 1 discriminator 5 view .LVU22
  99 0032 7047     		bx	lr
 100              	.L10:
 101              		.loc 1 134 7 is_stmt 1 view .LVU23
 102 0034 0D4B     		ldr	r3, .L11+4
 103 0036 DA6F     		ldr	r2, [r3, #124]
 104 0038 42F48052 		orr	r2, r2, #4096
 105 003c DA67     		str	r2, [r3, #124]
 106              		.loc 1 134 7 view .LVU24
 107 003e DA6F     		ldr	r2, [r3, #124]
 108 0040 22F48052 		bic	r2, r2, #4096
 109 0044 DA67     		str	r2, [r3, #124]
 110              		.loc 1 134 7 view .LVU25
 111 0046 DA6F     		ldr	r2, [r3, #124]
 112              		.loc 1 134 21 view .LVU26
 113              		.loc 1 136 7 view .LVU27
ARM GAS  /tmp/ccfGNz29.s 			page 3


 114 0048 D3F8D420 		ldr	r2, [r3, #212]
 115 004c 42F48052 		orr	r2, r2, #4096
 116 0050 C3F8D420 		str	r2, [r3, #212]
 117              		.loc 1 136 7 view .LVU28
 118              		.loc 1 136 7 view .LVU29
 119 0054 D3F8FC20 		ldr	r2, [r3, #252]
 120 0058 22F48052 		bic	r2, r2, #4096
 121 005c C3F8FC20 		str	r2, [r3, #252]
 122              		.loc 1 136 7 view .LVU30
 123 0060 D3F8FC30 		ldr	r3, [r3, #252]
 124 0064 E3E7     		b	.L8
 125              	.L12:
 126 0066 00BF     		.align	2
 127              	.L11:
 128 0068 00000000 		.word	FSMCD1
 129 006c 00440258 		.word	1476543488
 130              		.cfi_endproc
 131              	.LFE363:
 132              		.size	fsmcStart, .-fsmcStart
 133              		.align	1
 134              		.p2align 4,,15
 135              		.global	fsmcStop
 136              		.syntax unified
 137              		.thumb
 138              		.thumb_func
 139              		.fpu fpv4-sp-d16
 140              		.type	fsmcStop, %function
 141              	fsmcStop:
 142              	.LVL1:
 143              	.LFB364:
 144              		.loc 1 154 34 view -0
 145              		.cfi_startproc
 146              		@ args = 0, pretend = 0, frame = 0
 147              		@ frame_needed = 0, uses_anonymous_args = 0
 148              		@ link register save eliminated.
 149              		.loc 1 156 3 view .LVU32
 150              		.loc 1 156 6 is_stmt 0 view .LVU33
 151 0070 0378     		ldrb	r3, [r0]	@ zero_extendqisi2
 152 0072 022B     		cmp	r3, #2
 153 0074 00D0     		beq	.L16
 154              		.loc 1 174 1 view .LVU34
 155 0076 7047     		bx	lr
 156              	.L16:
 157              		.loc 1 159 5 is_stmt 1 view .LVU35
 158 0078 0F4B     		ldr	r3, .L18
 159              		.loc 1 164 8 is_stmt 0 view .LVU36
 160 007a 1049     		ldr	r1, .L18+4
 161              		.loc 1 159 5 view .LVU37
 162 007c DA6F     		ldr	r2, [r3, #124]
 163              		.loc 1 164 8 view .LVU38
 164 007e 8842     		cmp	r0, r1
 165              		.loc 1 159 5 view .LVU39
 166 0080 42F48052 		orr	r2, r2, #4096
 167 0084 DA67     		str	r2, [r3, #124]
 168              		.loc 1 159 5 is_stmt 1 view .LVU40
 169 0086 DA6F     		ldr	r2, [r3, #124]
 170 0088 22F48052 		bic	r2, r2, #4096
ARM GAS  /tmp/ccfGNz29.s 			page 4


 171 008c DA67     		str	r2, [r3, #124]
 172              		.loc 1 159 5 view .LVU41
 173 008e DA6F     		ldr	r2, [r3, #124]
 174              		.loc 1 159 19 view .LVU42
 175              		.loc 1 164 5 view .LVU43
 176              		.loc 1 164 8 is_stmt 0 view .LVU44
 177 0090 02D0     		beq	.L17
 178              	.L15:
 179              		.loc 1 168 23 is_stmt 1 discriminator 1 view .LVU45
 180              		.loc 1 172 5 discriminator 1 view .LVU46
 181              		.loc 1 172 18 is_stmt 0 discriminator 1 view .LVU47
 182 0092 0123     		movs	r3, #1
 183 0094 0370     		strb	r3, [r0]
 184              		.loc 1 174 1 discriminator 1 view .LVU48
 185 0096 7047     		bx	lr
 186              	.L17:
 187              		.loc 1 168 7 is_stmt 1 view .LVU49
 188 0098 D3F8D420 		ldr	r2, [r3, #212]
 189 009c 22F48052 		bic	r2, r2, #4096
 190 00a0 C3F8D420 		str	r2, [r3, #212]
 191              		.loc 1 168 7 view .LVU50
 192 00a4 D3F8FC20 		ldr	r2, [r3, #252]
 193 00a8 22F48052 		bic	r2, r2, #4096
 194 00ac C3F8FC20 		str	r2, [r3, #252]
 195              		.loc 1 168 7 view .LVU51
 196 00b0 D3F8FC30 		ldr	r3, [r3, #252]
 197 00b4 EDE7     		b	.L15
 198              	.L19:
 199 00b6 00BF     		.align	2
 200              	.L18:
 201 00b8 00440258 		.word	1476543488
 202 00bc 00000000 		.word	FSMCD1
 203              		.cfi_endproc
 204              	.LFE364:
 205              		.size	fsmcStop, .-fsmcStop
 206              		.align	1
 207              		.p2align 4,,15
 208              		.global	Vector100
 209              		.syntax unified
 210              		.thumb
 211              		.thumb_func
 212              		.fpu fpv4-sp-d16
 213              		.type	Vector100, %function
 214              	Vector100:
 215              	.LFB365:
 216              		.loc 1 181 36 view -0
 217              		.cfi_startproc
 218              		@ args = 0, pretend = 0, frame = 0
 219              		@ frame_needed = 0, uses_anonymous_args = 0
 220              		.loc 1 183 3 view .LVU53
 221              		.loc 1 183 3 view .LVU54
 222              		.loc 1 183 3 view .LVU55
 223              		.loc 1 183 3 view .LVU56
 224              		.loc 1 183 3 view .LVU57
 225              		.loc 1 181 36 is_stmt 0 view .LVU58
 226 00c0 10B5     		push	{r4, lr}
 227              		.cfi_def_cfa_offset 8
ARM GAS  /tmp/ccfGNz29.s 			page 5


 228              		.cfi_offset 4, -8
 229              		.cfi_offset 14, -4
 230              		.loc 1 183 3 view .LVU59
 231 00c2 054C     		ldr	r4, .L22
 232 00c4 2046     		mov	r0, r4
 233 00c6 FFF7FEFF 		bl	_trace_isr_enter
 234              	.LVL2:
 235              		.loc 1 183 20 is_stmt 1 view .LVU60
 236              		.loc 1 196 3 view .LVU61
 237              		.loc 1 196 3 view .LVU62
 238 00ca 2046     		mov	r0, r4
 239 00cc FFF7FEFF 		bl	_trace_isr_leave
 240              	.LVL3:
 241              		.loc 1 196 3 view .LVU63
 242              		.loc 1 196 3 view .LVU64
 243              		.loc 1 196 3 view .LVU65
 244              		.loc 1 197 1 is_stmt 0 view .LVU66
 245 00d0 BDE81040 		pop	{r4, lr}
 246              		.cfi_restore 14
 247              		.cfi_restore 4
 248              		.cfi_def_cfa_offset 0
 249              		.loc 1 196 3 view .LVU67
 250 00d4 FFF7FEBF 		b	_port_irq_epilogue
 251              	.LVL4:
 252              	.L23:
 253              		.align	2
 254              	.L22:
 255 00d8 00000000 		.word	.LANCHOR0
 256              		.cfi_endproc
 257              	.LFE365:
 258              		.size	Vector100, .-Vector100
 259              		.comm	FSMCD1,8,4
 260              		.section	.rodata
 261              		.align	2
 262              		.set	.LANCHOR0,. + 0
 263              		.type	__func__.11754, %object
 264              		.size	__func__.11754, 10
 265              	__func__.11754:
 266 0000 56656374 		.ascii	"Vector100\000"
 266      6F723130 
 266      3000
 267              		.text
 268              	.Letext0:
 269              		.file 2 "/home/nicolas/arm/gcc-arm-none-eabi-8-2019-q3-update/lib/gcc/arm-none-eabi/8.3.1/include/
 270              		.file 3 "/home/nicolas/arm/gcc-arm-none-eabi-8-2019-q3-update/arm-none-eabi/include/machine/_defau
 271              		.file 4 "/home/nicolas/arm/gcc-arm-none-eabi-8-2019-q3-update/arm-none-eabi/include/sys/_stdint.h"
 272              		.file 5 "/home/nicolas/arm/gcc-arm-none-eabi-8-2019-q3-update/arm-none-eabi/include/stdint.h"
 273              		.file 6 "../../../external/ChibiOS/os/common/ports/ARMCMx/compilers/GCC/chtypes.h"
 274              		.file 7 "../../../external/ChibiOS/os/rt/include/chsystypes.h"
 275              		.file 8 "../../../external/ChibiOS/os/rt/include/chschd.h"
 276              		.file 9 "../../../external/ChibiOS/os/rt/include/chtime.h"
 277              		.file 10 "../../../external/ChibiOS/os/common/ext/ARM/CMSIS/Core/Include/core_cm7.h"
 278              		.file 11 "../../../external/ChibiOS/os/common/ext/ST/STM32H7xx/system_stm32h7xx.h"
 279              		.file 12 "../../../external/ChibiOS/os/common/ext/ST/STM32H7xx/stm32h753xx.h"
 280              		.file 13 "../../../external/ChibiOS/os/common/ports/ARMCMx/chcore.h"
 281              		.file 14 "../../../external/ChibiOS/os/common/ports/ARMCMx/chcore_v7m.h"
 282              		.file 15 "../../../external/ChibiOS/os/rt/include/chtrace.h"
ARM GAS  /tmp/ccfGNz29.s 			page 6


 283              		.file 16 "../../../external/ChibiOS/os/rt/include/chtm.h"
 284              		.file 17 "../../../external/ChibiOS/os/rt/include/chsem.h"
 285              		.file 18 "../../../external/ChibiOS/os/rt/include/chmtx.h"
 286              		.file 19 "../../../external/ChibiOS/os/rt/include/chsys.h"
 287              		.file 20 "../../../external/ChibiOS/os/rt/include/chregistry.h"
 288              		.file 21 "../../../external/ChibiOS/os/rt/include/chevents.h"
 289              		.file 22 "../../../external/ChibiOS/os/oslib/include/chmemcore.h"
 290              		.file 23 "../../../external/ChibiOS/os/oslib/include/chmempools.h"
 291              		.file 24 "../../../external/ChibiOS/os/oslib/include/chfactory.h"
 292              		.file 25 "../../../external/ChibiOS/os/hal/ports/STM32/LLD/DMAv2/stm32_dma.h"
 293              		.file 26 "../../../external/ChibiOS/os/hal/ports/STM32/LLD/BDMAv1/stm32_bdma.h"
 294              		.file 27 "../../../external/ChibiOS/os/hal/ports/STM32/LLD/TIMv1/stm32_tim.h"
 295              		.file 28 "../../../external/ChibiOS/os/hal/include/hal_ioblock.h"
 296              		.file 29 "../../../external/ChibiOS/os/hal/include/hal_queues.h"
 297              		.file 30 "../../../external/ChibiOS/os/hal/ports/STM32/LLD/GPIOv2/stm32_gpio.h"
 298              		.file 31 "../../../external/ChibiOS/os/hal/ports/STM32/LLD/GPIOv2/hal_pal_lld.h"
 299              		.file 32 "../../../external/ChibiOS/os/hal/include/hal_adc.h"
 300              		.file 33 "../../../external/ChibiOS/os/hal/ports/STM32/LLD/ADCv4/hal_adc_lld.h"
 301              		.file 34 "../../../external/ChibiOS/os/hal/include/hal_i2c.h"
 302              		.file 35 "../../../external/ChibiOS/os/hal/ports/STM32/LLD/I2Cv3/hal_i2c_lld.h"
 303              		.file 36 "../../../external/ChibiOS/os/hal/include/hal_pwm.h"
 304              		.file 37 "../../../external/ChibiOS/os/hal/ports/STM32/LLD/TIMv1/hal_pwm_lld.h"
 305              		.file 38 "../../../external/ChibiOS/os/hal/include/hal_serial.h"
 306              		.file 39 "../../../external/ChibiOS/os/hal/ports/STM32/LLD/USARTv2/hal_serial_lld.h"
 307              		.file 40 "../../../external/ChibiOS/os/hal/include/hal_sdc.h"
 308              		.file 41 "../../../external/ChibiOS/os/hal/ports/STM32/LLD/SDMMCv2/hal_sdc_lld.h"
 309              		.file 42 "../../../external/ChibiOS/os/hal/include/hal_spi.h"
 310              		.file 43 "../../../external/ChibiOS/os/hal/ports/STM32/LLD/SPIv3/hal_spi_lld.h"
 311              		.file 44 "../../../external/ChibiOS/os/hal/include/hal_trng.h"
 312              		.file 45 "../../../external/ChibiOS/os/hal/ports/STM32/LLD/RNGv1/hal_trng_lld.h"
 313              		.file 46 "../../../external/ChibiOS/os/hal/include/hal_usb.h"
 314              		.file 47 "../../../external/ChibiOS/os/hal/ports/STM32/LLD/OTGv1/hal_usb_lld.h"
 315              		.file 48 "../../../external/ChibiOS/os/hal/ports/STM32/LLD/OTGv1/stm32_otg.h"
 316              		.file 49 "../../../external/ChibiOS-Contrib/os/hal/include/hal_fsmc.h"
 317              		.file 50 "../../../external/ChibiOS-Contrib/os/hal/include/hal_sdram.h"