ARM GAS  /tmp/ccfmAKAe.s 			page 1


   1              		.cpu cortex-m7
   2              		.eabi_attribute 27, 1
   3              		.eabi_attribute 28, 1
   4              		.eabi_attribute 20, 1
   5              		.eabi_attribute 21, 1
   6              		.eabi_attribute 23, 3
   7              		.eabi_attribute 24, 1
   8              		.eabi_attribute 25, 1
   9              		.eabi_attribute 26, 1
  10              		.eabi_attribute 30, 2
  11              		.eabi_attribute 34, 1
  12              		.eabi_attribute 18, 4
  13              		.file	"hal_st.c"
  14              		.text
  15              	.Ltext0:
  16              		.cfi_sections	.debug_frame
  17              		.align	1
  18              		.p2align 4,,15
  19              		.global	stInit
  20              		.arch armv7e-m
  21              		.syntax unified
  22              		.thumb
  23              		.thumb_func
  24              		.fpu fpv4-sp-d16
  25              		.type	stInit, %function
  26              	stInit:
  27              	.LFB362:
  28              		.file 1 "../../../external/ChibiOS/os/hal/src/hal_st.c"
  29              		.loc 1 64 19 view -0
  30              		.cfi_startproc
  31              		@ args = 0, pretend = 0, frame = 0
  32              		@ frame_needed = 0, uses_anonymous_args = 0
  33              		@ link register save eliminated.
  34              		.loc 1 72 3 view .LVU1
  35 0000 FFF7FEBF 		b	st_lld_init
  36              	.LVL0:
  37              		.cfi_endproc
  38              	.LFE362:
  39              		.size	stInit, .-stInit
  40              		.align	1
  41 0004 AFF30080 		.p2align 4,,15
  41      AFF30080 
  41      AFF30080 
  42              		.global	stStartAlarm
  43              		.syntax unified
  44              		.thumb
  45              		.thumb_func
  46              		.fpu fpv4-sp-d16
  47              		.type	stStartAlarm, %function
  48              	stStartAlarm:
  49              	.LVL1:
  50              	.LFB363:
  51              		.loc 1 87 38 view -0
  52              		.cfi_startproc
  53              		@ args = 0, pretend = 0, frame = 0
  54              		@ frame_needed = 0, uses_anonymous_args = 0
  55              		@ link register save eliminated.
ARM GAS  /tmp/ccfmAKAe.s 			page 2


  56              		.loc 1 89 3 view .LVU3
  57              		.loc 1 89 3 view .LVU4
  58              		.loc 1 91 3 view .LVU5
  59              	.LBB14:
  60              	.LBI14:
  61              		.file 2 "../../../external/ChibiOS/os/hal/ports/STM32/LLD/TIMv1/hal_st_lld.h"
  62              		.loc 2 553 20 view .LVU6
  63              	.LBB15:
  64              		.loc 2 555 3 view .LVU7
  65              		.loc 2 555 24 is_stmt 0 view .LVU8
  66 0010 4FF08043 		mov	r3, #1073741824
  67              		.loc 2 556 24 view .LVU9
  68 0014 0021     		movs	r1, #0
  69              		.loc 2 558 24 view .LVU10
  70 0016 0222     		movs	r2, #2
  71              		.loc 2 555 24 view .LVU11
  72 0018 5863     		str	r0, [r3, #52]
  73              		.loc 2 556 3 is_stmt 1 view .LVU12
  74              		.loc 2 556 24 is_stmt 0 view .LVU13
  75 001a 1961     		str	r1, [r3, #16]
  76              		.loc 2 558 3 is_stmt 1 view .LVU14
  77              		.loc 2 558 24 is_stmt 0 view .LVU15
  78 001c DA60     		str	r2, [r3, #12]
  79              	.LVL2:
  80              		.loc 2 558 24 view .LVU16
  81              	.LBE15:
  82              	.LBE14:
  83              		.loc 1 92 1 view .LVU17
  84 001e 7047     		bx	lr
  85              		.cfi_endproc
  86              	.LFE363:
  87              		.size	stStartAlarm, .-stStartAlarm
  88              		.align	1
  89              		.p2align 4,,15
  90              		.global	stStopAlarm
  91              		.syntax unified
  92              		.thumb
  93              		.thumb_func
  94              		.fpu fpv4-sp-d16
  95              		.type	stStopAlarm, %function
  96              	stStopAlarm:
  97              	.LFB364:
  98              		.loc 1 101 24 is_stmt 1 view -0
  99              		.cfi_startproc
 100              		@ args = 0, pretend = 0, frame = 0
 101              		@ frame_needed = 0, uses_anonymous_args = 0
 102              		@ link register save eliminated.
 103              		.loc 1 103 3 view .LVU19
 104              	.LBB16:
 105              	.LBI16:
 106              		.loc 2 569 20 view .LVU20
 107              	.LBB17:
 108              		.loc 2 572 3 view .LVU21
 109              		.loc 2 572 22 is_stmt 0 view .LVU22
 110 0020 4FF08043 		mov	r3, #1073741824
 111 0024 0022     		movs	r2, #0
 112 0026 DA60     		str	r2, [r3, #12]
ARM GAS  /tmp/ccfmAKAe.s 			page 3


 113              	.LBE17:
 114              	.LBE16:
 115              		.loc 1 104 1 view .LVU23
 116 0028 7047     		bx	lr
 117              		.cfi_endproc
 118              	.LFE364:
 119              		.size	stStopAlarm, .-stStopAlarm
 120              		.align	1
 121 002a 00BFAFF3 		.p2align 4,,15
 121      0080
 122              		.global	stSetAlarm
 123              		.syntax unified
 124              		.thumb
 125              		.thumb_func
 126              		.fpu fpv4-sp-d16
 127              		.type	stSetAlarm, %function
 128              	stSetAlarm:
 129              	.LVL3:
 130              	.LFB365:
 131              		.loc 1 115 36 is_stmt 1 view -0
 132              		.cfi_startproc
 133              		@ args = 0, pretend = 0, frame = 0
 134              		@ frame_needed = 0, uses_anonymous_args = 0
 135              		@ link register save eliminated.
 136              		.loc 1 117 3 view .LVU25
 137              		.loc 1 117 3 view .LVU26
 138              		.loc 1 119 3 view .LVU27
 139              	.LBB18:
 140              	.LBI18:
 141              		.loc 2 585 20 view .LVU28
 142              	.LBB19:
 143              		.loc 2 587 3 view .LVU29
 144              		.loc 2 587 24 is_stmt 0 view .LVU30
 145 0030 4FF08043 		mov	r3, #1073741824
 146 0034 5863     		str	r0, [r3, #52]
 147              	.LVL4:
 148              		.loc 2 587 24 view .LVU31
 149              	.LBE19:
 150              	.LBE18:
 151              		.loc 1 120 1 view .LVU32
 152 0036 7047     		bx	lr
 153              		.cfi_endproc
 154              	.LFE365:
 155              		.size	stSetAlarm, .-stSetAlarm
 156              		.align	1
 157 0038 AFF30080 		.p2align 4,,15
 157      AFF30080 
 158              		.global	stGetAlarm
 159              		.syntax unified
 160              		.thumb
 161              		.thumb_func
 162              		.fpu fpv4-sp-d16
 163              		.type	stGetAlarm, %function
 164              	stGetAlarm:
 165              	.LFB366:
 166              		.loc 1 131 28 is_stmt 1 view -0
 167              		.cfi_startproc
ARM GAS  /tmp/ccfmAKAe.s 			page 4


 168              		@ args = 0, pretend = 0, frame = 0
 169              		@ frame_needed = 0, uses_anonymous_args = 0
 170              		@ link register save eliminated.
 171              		.loc 1 133 3 view .LVU34
 172              		.loc 1 133 3 view .LVU35
 173              		.loc 1 135 3 view .LVU36
 174              	.LBB20:
 175              	.LBI20:
 176              		.loc 2 597 25 view .LVU37
 177              	.LBB21:
 178              		.loc 2 599 3 view .LVU38
 179              		.loc 2 599 10 is_stmt 0 view .LVU39
 180 0040 4FF08043 		mov	r3, #1073741824
 181 0044 586B     		ldr	r0, [r3, #52]
 182              	.LBE21:
 183              	.LBE20:
 184              		.loc 1 136 1 view .LVU40
 185 0046 7047     		bx	lr
 186              		.cfi_endproc
 187              	.LFE366:
 188              		.size	stGetAlarm, .-stGetAlarm
 189              		.align	1
 190 0048 AFF30080 		.p2align 4,,15
 190      AFF30080 
 191              		.global	stGetCounter
 192              		.syntax unified
 193              		.thumb
 194              		.thumb_func
 195              		.fpu fpv4-sp-d16
 196              		.type	stGetCounter, %function
 197              	stGetCounter:
 198              	.LFB367:
 199              		.loc 1 147 30 is_stmt 1 view -0
 200              		.cfi_startproc
 201              		@ args = 0, pretend = 0, frame = 0
 202              		@ frame_needed = 0, uses_anonymous_args = 0
 203              		@ link register save eliminated.
 204              		.loc 1 149 3 view .LVU42
 205              	.LBB22:
 206              	.LBI22:
 207              		.loc 2 539 25 view .LVU43
 208              	.LBB23:
 209              		.loc 2 541 3 view .LVU44
 210              		.loc 2 541 10 is_stmt 0 view .LVU45
 211 0050 4FF08043 		mov	r3, #1073741824
 212 0054 586A     		ldr	r0, [r3, #36]
 213              	.LBE23:
 214              	.LBE22:
 215              		.loc 1 150 1 view .LVU46
 216 0056 7047     		bx	lr
 217              		.cfi_endproc
 218              	.LFE367:
 219              		.size	stGetCounter, .-stGetCounter
 220              		.align	1
 221 0058 AFF30080 		.p2align 4,,15
 221      AFF30080 
 222              		.global	stIsAlarmActive
ARM GAS  /tmp/ccfmAKAe.s 			page 5


 223              		.syntax unified
 224              		.thumb
 225              		.thumb_func
 226              		.fpu fpv4-sp-d16
 227              		.type	stIsAlarmActive, %function
 228              	stIsAlarmActive:
 229              	.LFB368:
 230              		.loc 1 161 28 is_stmt 1 view -0
 231              		.cfi_startproc
 232              		@ args = 0, pretend = 0, frame = 0
 233              		@ frame_needed = 0, uses_anonymous_args = 0
 234              		@ link register save eliminated.
 235              		.loc 1 163 3 view .LVU48
 236              	.LBB24:
 237              	.LBI24:
 238              		.loc 2 611 20 view .LVU49
 239              	.LBB25:
 240              		.loc 2 613 3 view .LVU50
 241              		.loc 2 613 30 is_stmt 0 view .LVU51
 242 0060 4FF08043 		mov	r3, #1073741824
 243 0064 D868     		ldr	r0, [r3, #12]
 244              	.LBE25:
 245              	.LBE24:
 246              		.loc 1 164 1 view .LVU52
 247 0066 C0F34000 		ubfx	r0, r0, #1, #1
 248 006a 7047     		bx	lr
 249              		.cfi_endproc
 250              	.LFE368:
 251              		.size	stIsAlarmActive, .-stIsAlarmActive
 252              	.Letext0:
 253              		.file 3 "/home/nicolas/arm/gcc-arm-none-eabi-8-2019-q3-update/lib/gcc/arm-none-eabi/8.3.1/include/
 254              		.file 4 "/home/nicolas/arm/gcc-arm-none-eabi-8-2019-q3-update/arm-none-eabi/include/machine/_defau
 255              		.file 5 "/home/nicolas/arm/gcc-arm-none-eabi-8-2019-q3-update/arm-none-eabi/include/sys/_stdint.h"
 256              		.file 6 "/home/nicolas/arm/gcc-arm-none-eabi-8-2019-q3-update/arm-none-eabi/include/stdint.h"
 257              		.file 7 "../../../external/ChibiOS/os/common/ports/ARMCMx/compilers/GCC/chtypes.h"
 258              		.file 8 "../../../external/ChibiOS/os/rt/include/chsystypes.h"
 259              		.file 9 "../../../external/ChibiOS/os/rt/include/chschd.h"
 260              		.file 10 "../../../external/ChibiOS/os/rt/include/chtime.h"
 261              		.file 11 "../../../external/ChibiOS/os/common/ext/ARM/CMSIS/Core/Include/core_cm7.h"
 262              		.file 12 "../../../external/ChibiOS/os/common/ext/ST/STM32H7xx/system_stm32h7xx.h"
 263              		.file 13 "../../../external/ChibiOS/os/common/ext/ST/STM32H7xx/stm32h753xx.h"
 264              		.file 14 "../../../external/ChibiOS/os/common/ports/ARMCMx/chcore.h"
 265              		.file 15 "../../../external/ChibiOS/os/common/ports/ARMCMx/chcore_v7m.h"
 266              		.file 16 "../../../external/ChibiOS/os/rt/include/chtrace.h"
 267              		.file 17 "../../../external/ChibiOS/os/rt/include/chtm.h"
 268              		.file 18 "../../../external/ChibiOS/os/rt/include/chsem.h"
 269              		.file 19 "../../../external/ChibiOS/os/rt/include/chmtx.h"
 270              		.file 20 "../../../external/ChibiOS/os/rt/include/chsys.h"
 271              		.file 21 "../../../external/ChibiOS/os/rt/include/chregistry.h"
 272              		.file 22 "../../../external/ChibiOS/os/rt/include/chevents.h"
 273              		.file 23 "../../../external/ChibiOS/os/oslib/include/chmemcore.h"
 274              		.file 24 "../../../external/ChibiOS/os/oslib/include/chmempools.h"
 275              		.file 25 "../../../external/ChibiOS/os/oslib/include/chfactory.h"
 276              		.file 26 "../../../external/ChibiOS/os/hal/ports/STM32/LLD/DMAv2/stm32_dma.h"
 277              		.file 27 "../../../external/ChibiOS/os/hal/ports/STM32/LLD/BDMAv1/stm32_bdma.h"
 278              		.file 28 "../../../external/ChibiOS/os/hal/ports/STM32/LLD/TIMv1/stm32_tim.h"
 279              		.file 29 "../../../external/ChibiOS/os/hal/include/hal_ioblock.h"
ARM GAS  /tmp/ccfmAKAe.s 			page 6


 280              		.file 30 "../../../external/ChibiOS/os/hal/include/hal_queues.h"
 281              		.file 31 "../../../external/ChibiOS/os/hal/ports/STM32/LLD/GPIOv2/stm32_gpio.h"
 282              		.file 32 "../../../external/ChibiOS/os/hal/ports/STM32/LLD/GPIOv2/hal_pal_lld.h"
 283              		.file 33 "../../../external/ChibiOS/os/hal/include/hal_adc.h"
 284              		.file 34 "../../../external/ChibiOS/os/hal/ports/STM32/LLD/ADCv4/hal_adc_lld.h"
 285              		.file 35 "../../../external/ChibiOS/os/hal/include/hal_i2c.h"
 286              		.file 36 "../../../external/ChibiOS/os/hal/ports/STM32/LLD/I2Cv3/hal_i2c_lld.h"
 287              		.file 37 "../../../external/ChibiOS/os/hal/include/hal_pwm.h"
 288              		.file 38 "../../../external/ChibiOS/os/hal/ports/STM32/LLD/TIMv1/hal_pwm_lld.h"
 289              		.file 39 "../../../external/ChibiOS/os/hal/include/hal_serial.h"
 290              		.file 40 "../../../external/ChibiOS/os/hal/ports/STM32/LLD/USARTv2/hal_serial_lld.h"
 291              		.file 41 "../../../external/ChibiOS/os/hal/include/hal_sdc.h"
 292              		.file 42 "../../../external/ChibiOS/os/hal/ports/STM32/LLD/SDMMCv2/hal_sdc_lld.h"
 293              		.file 43 "../../../external/ChibiOS/os/hal/include/hal_spi.h"
 294              		.file 44 "../../../external/ChibiOS/os/hal/ports/STM32/LLD/SPIv3/hal_spi_lld.h"
 295              		.file 45 "../../../external/ChibiOS/os/hal/include/hal_trng.h"
 296              		.file 46 "../../../external/ChibiOS/os/hal/ports/STM32/LLD/RNGv1/hal_trng_lld.h"
 297              		.file 47 "../../../external/ChibiOS/os/hal/include/hal_usb.h"
 298              		.file 48 "../../../external/ChibiOS/os/hal/ports/STM32/LLD/OTGv1/hal_usb_lld.h"
 299              		.file 49 "../../../external/ChibiOS/os/hal/ports/STM32/LLD/OTGv1/stm32_otg.h"
 300              		.file 50 "../../../external/ChibiOS-Contrib/os/hal/include/hal_fsmc.h"
 301              		.file 51 "../../../external/ChibiOS-Contrib/os/hal/include/hal_sdram.h"