ARM GAS  /tmp/ccLF7Z8f.s 			page 1


   1              		.cpu cortex-m7
   2              		.eabi_attribute 27, 1
   3              		.eabi_attribute 28, 1
   4              		.eabi_attribute 20, 1
   5              		.eabi_attribute 21, 1
   6              		.eabi_attribute 23, 3
   7              		.eabi_attribute 24, 1
   8              		.eabi_attribute 25, 1
   9              		.eabi_attribute 26, 1
  10              		.eabi_attribute 30, 2
  11              		.eabi_attribute 34, 1
  12              		.eabi_attribute 18, 4
  13              		.file	"hal_mmcsd.c"
  14              		.text
  15              	.Ltext0:
  16              		.cfi_sections	.debug_frame
  17              		.align	1
  18              		.p2align 4,,15
  19              		.global	_mmcsd_get_slice
  20              		.arch armv7e-m
  21              		.syntax unified
  22              		.thumb
  23              		.thumb_func
  24              		.fpu fpv4-sp-d16
  25              		.type	_mmcsd_get_slice, %function
  26              	_mmcsd_get_slice:
  27              	.LVL0:
  28              	.LFB362:
  29              		.file 1 "../../../external/ChibiOS/os/hal/src/hal_mmcsd.c"
  30              		.loc 1 63 43 view -0
  31              		.cfi_startproc
  32              		@ args = 0, pretend = 0, frame = 0
  33              		@ frame_needed = 0, uses_anonymous_args = 0
  34              		@ link register save eliminated.
  35              		.loc 1 64 3 view .LVU1
  36              		.loc 1 65 3 view .LVU2
  37              		.loc 1 67 3 view .LVU3
  38              		.loc 1 67 3 view .LVU4
  39              		.loc 1 69 3 view .LVU5
  40              		.loc 1 63 43 is_stmt 0 view .LVU6
  41 0000 70B4     		push	{r4, r5, r6}
  42              		.cfi_def_cfa_offset 12
  43              		.cfi_offset 4, -12
  44              		.cfi_offset 5, -8
  45              		.cfi_offset 6, -4
  46              		.loc 1 72 28 view .LVU7
  47 0002 0123     		movs	r3, #1
  48              		.loc 1 72 37 view .LVU8
  49 0004 01F01F04 		and	r4, r1, #31
  50              		.loc 1 69 12 view .LVU9
  51 0008 5509     		lsrs	r5, r2, #5
  52              	.LVL1:
  53              		.loc 1 70 3 is_stmt 1 view .LVU10
  54              		.loc 1 70 12 is_stmt 0 view .LVU11
  55 000a 02F01F02 		and	r2, r2, #31
  56              	.LVL2:
  57              		.loc 1 71 3 is_stmt 1 view .LVU12
ARM GAS  /tmp/ccLF7Z8f.s 			page 2


  58              		.loc 1 71 12 is_stmt 0 view .LVU13
  59 000e 4909     		lsrs	r1, r1, #5
  60              	.LVL3:
  61              		.loc 1 72 3 is_stmt 1 view .LVU14
  62              		.loc 1 72 44 is_stmt 0 view .LVU15
  63 0010 1C44     		add	r4, r4, r3
  64 0012 50F82560 		ldr	r6, [r0, r5, lsl #2]
  65              		.loc 1 72 28 view .LVU16
  66 0016 A340     		lsls	r3, r3, r4
  67              		.loc 1 75 6 view .LVU17
  68 0018 8D42     		cmp	r5, r1
  69              		.loc 1 72 12 view .LVU18
  70 001a 03F1FF33 		add	r3, r3, #-1
  71              	.LVL4:
  72              		.loc 1 75 3 is_stmt 1 view .LVU19
  73              		.loc 1 75 6 is_stmt 0 view .LVU20
  74 001e 04D3     		bcc	.L6
  75              		.loc 1 79 3 is_stmt 1 view .LVU21
  76              		.loc 1 79 26 is_stmt 0 view .LVU22
  77 0020 3340     		ands	r3, r3, r6
  78              	.LVL5:
  79              		.loc 1 80 1 view .LVU23
  80 0022 70BC     		pop	{r4, r5, r6}
  81              		.cfi_remember_state
  82              		.cfi_restore 6
  83              		.cfi_restore 5
  84              		.cfi_restore 4
  85              		.cfi_def_cfa_offset 0
  86              	.LVL6:
  87              		.loc 1 79 37 view .LVU24
  88 0024 23FA02F0 		lsr	r0, r3, r2
  89              	.LVL7:
  90              		.loc 1 80 1 view .LVU25
  91 0028 7047     		bx	lr
  92              	.LVL8:
  93              	.L6:
  94              		.cfi_restore_state
  95              		.loc 1 76 5 is_stmt 1 view .LVU26
  96              		.loc 1 77 27 is_stmt 0 view .LVU27
  97 002a 50F82100 		ldr	r0, [r0, r1, lsl #2]
  98              	.LVL9:
  99              		.loc 1 77 46 view .LVU28
 100 002e C2F12001 		rsb	r1, r2, #32
 101              	.LVL10:
 102              		.loc 1 76 28 view .LVU29
 103 0032 26FA02F2 		lsr	r2, r6, r2
 104              	.LVL11:
 105              		.loc 1 77 27 view .LVU30
 106 0036 1840     		ands	r0, r0, r3
 107              		.loc 1 77 38 view .LVU31
 108 0038 8840     		lsls	r0, r0, r1
 109              		.loc 1 80 1 view .LVU32
 110 003a 70BC     		pop	{r4, r5, r6}
 111              		.cfi_restore 6
 112              		.cfi_restore 5
 113              		.cfi_restore 4
 114              		.cfi_def_cfa_offset 0
ARM GAS  /tmp/ccLF7Z8f.s 			page 3


 115              	.LVL12:
 116              		.loc 1 76 41 view .LVU33
 117 003c 1043     		orrs	r0, r0, r2
 118              		.loc 1 80 1 view .LVU34
 119 003e 7047     		bx	lr
 120              		.cfi_endproc
 121              	.LFE362:
 122              		.size	_mmcsd_get_slice, .-_mmcsd_get_slice
 123              		.align	1
 124              		.p2align 4,,15
 125              		.global	_mmcsd_get_capacity
 126              		.syntax unified
 127              		.thumb
 128              		.thumb_func
 129              		.fpu fpv4-sp-d16
 130              		.type	_mmcsd_get_capacity, %function
 131              	_mmcsd_get_capacity:
 132              	.LVL13:
 133              	.LFB363:
 134              		.loc 1 93 51 is_stmt 1 view -0
 135              		.cfi_startproc
 136              		@ args = 0, pretend = 0, frame = 0
 137              		@ frame_needed = 0, uses_anonymous_args = 0
 138              		@ link register save eliminated.
 139              		.loc 1 94 3 view .LVU36
 140              		.loc 1 96 3 view .LVU37
 141              		.loc 1 96 3 view .LVU38
 142              		.loc 1 98 3 view .LVU39
 143              	.LBB226:
 144              	.LBI226:
 145              		.loc 1 61 10 view .LVU40
 146              	.LBB227:
 147              		.loc 1 64 3 view .LVU41
 148              		.loc 1 65 3 view .LVU42
 149              		.loc 1 67 3 view .LVU43
 150              		.loc 1 67 3 view .LVU44
 151              		.loc 1 69 3 view .LVU45
 152              		.loc 1 70 3 view .LVU46
 153              		.loc 1 71 3 view .LVU47
 154              		.loc 1 72 3 view .LVU48
 155              		.loc 1 75 3 view .LVU49
 156              		.loc 1 79 3 view .LVU50
 157              		.loc 1 79 37 is_stmt 0 view .LVU51
 158 0040 C368     		ldr	r3, [r0, #12]
 159              	.LBE227:
 160              	.LBE226:
 161              		.loc 1 98 3 view .LVU52
 162 0042 9B0F     		lsrs	r3, r3, #30
 163 0044 0CD0     		beq	.L8
 164 0046 012B     		cmp	r3, #1
 165 0048 08D1     		bne	.L11
 166              		.loc 1 107 5 is_stmt 1 view .LVU53
 167              	.LVL14:
 168              	.LBB228:
 169              	.LBI228:
 170              		.loc 1 61 10 view .LVU54
 171              	.LBB229:
ARM GAS  /tmp/ccLF7Z8f.s 			page 4


 172              		.loc 1 64 3 view .LVU55
 173              		.loc 1 65 3 view .LVU56
 174              		.loc 1 67 3 view .LVU57
 175              		.loc 1 67 3 view .LVU58
 176              		.loc 1 69 3 view .LVU59
 177              		.loc 1 70 3 view .LVU60
 178              		.loc 1 71 3 view .LVU61
 179              		.loc 1 72 3 view .LVU62
 180              		.loc 1 75 3 view .LVU63
 181              		.loc 1 76 5 view .LVU64
 182              		.loc 1 77 38 is_stmt 0 view .LVU65
 183 004a 8368     		ldr	r3, [r0, #8]
 184              		.loc 1 76 28 view .LVU66
 185 004c C288     		ldrh	r2, [r0, #6]
 186              		.loc 1 77 38 view .LVU67
 187 004e 1804     		lsls	r0, r3, #16
 188              	.LVL15:
 189              		.loc 1 77 38 view .LVU68
 190 0050 00F47C10 		and	r0, r0, #4128768
 191              		.loc 1 76 41 view .LVU69
 192 0054 1043     		orrs	r0, r0, r2
 193              	.LBE229:
 194              	.LBE228:
 195              		.loc 1 107 18 view .LVU70
 196 0056 0130     		adds	r0, r0, #1
 197 0058 8002     		lsls	r0, r0, #10
 198              		.loc 1 113 1 view .LVU71
 199 005a 7047     		bx	lr
 200              	.LVL16:
 201              	.L11:
 202              		.loc 1 112 10 view .LVU72
 203 005c 0020     		movs	r0, #0
 204              	.LVL17:
 205              		.loc 1 112 10 view .LVU73
 206 005e 7047     		bx	lr
 207              	.LVL18:
 208              	.L8:
 209              		.loc 1 101 5 is_stmt 1 view .LVU74
 210              	.LBB230:
 211              	.LBI230:
 212              		.loc 1 61 10 view .LVU75
 213              	.LBB231:
 214              		.loc 1 64 3 view .LVU76
 215              		.loc 1 65 3 view .LVU77
 216              		.loc 1 67 3 view .LVU78
 217              		.loc 1 67 3 view .LVU79
 218              		.loc 1 69 3 view .LVU80
 219              		.loc 1 70 3 view .LVU81
 220              		.loc 1 71 3 view .LVU82
 221              		.loc 1 72 3 view .LVU83
 222              		.loc 1 75 3 view .LVU84
 223              		.loc 1 76 5 view .LVU85
 224              		.loc 1 77 18 is_stmt 0 view .LVU86
 225 0060 8268     		ldr	r2, [r0, #8]
 226              	.LVL19:
 227              		.loc 1 77 38 view .LVU87
 228 0062 40F6FC73 		movw	r3, #4092
ARM GAS  /tmp/ccLF7Z8f.s 			page 5


 229              		.loc 1 76 17 view .LVU88
 230 0066 4168     		ldr	r1, [r0, #4]
 231              	.LVL20:
 232              		.loc 1 76 17 view .LVU89
 233              	.LBE231:
 234              	.LBE230:
 235              		.loc 1 102 5 is_stmt 1 view .LVU90
 236              	.LBB234:
 237              	.LBI234:
 238              		.loc 1 61 10 view .LVU91
 239              	.LBB235:
 240              		.loc 1 64 3 view .LVU92
 241              		.loc 1 65 3 view .LVU93
 242              		.loc 1 67 3 view .LVU94
 243              		.loc 1 67 3 view .LVU95
 244              		.loc 1 69 3 view .LVU96
 245              		.loc 1 70 3 view .LVU97
 246              		.loc 1 71 3 view .LVU98
 247              		.loc 1 72 3 view .LVU99
 248              		.loc 1 75 3 view .LVU100
 249              		.loc 1 79 3 view .LVU101
 250              		.loc 1 79 3 is_stmt 0 view .LVU102
 251              	.LBE235:
 252              	.LBE234:
 253              		.loc 1 103 5 is_stmt 1 view .LVU103
 254              	.LBB237:
 255              	.LBI237:
 256              		.loc 1 61 10 view .LVU104
 257              	.LBB238:
 258              		.loc 1 64 3 view .LVU105
 259              		.loc 1 65 3 view .LVU106
 260              		.loc 1 67 3 view .LVU107
 261              		.loc 1 67 3 view .LVU108
 262              		.loc 1 69 3 view .LVU109
 263              		.loc 1 70 3 view .LVU110
 264              		.loc 1 71 3 view .LVU111
 265              		.loc 1 72 3 view .LVU112
 266              		.loc 1 75 3 view .LVU113
 267              		.loc 1 79 3 view .LVU114
 268              		.loc 1 79 3 is_stmt 0 view .LVU115
 269              	.LBE238:
 270              	.LBE237:
 271              		.loc 1 104 5 is_stmt 1 view .LVU116
 272              	.LBB240:
 273              	.LBB232:
 274              		.loc 1 77 38 is_stmt 0 view .LVU117
 275 0068 03EA8200 		and	r0, r3, r2, lsl #2
 276              	.LVL21:
 277              		.loc 1 77 38 view .LVU118
 278              	.LBE232:
 279              	.LBE240:
 280              	.LBB241:
 281              	.LBB239:
 282              		.loc 1 79 37 view .LVU119
 283 006c C2F30342 		ubfx	r2, r2, #16, #4
 284              	.LVL22:
 285              		.loc 1 79 37 view .LVU120
ARM GAS  /tmp/ccLF7Z8f.s 			page 6


 286              	.LBE239:
 287              	.LBE241:
 288              	.LBB242:
 289              	.LBB236:
 290 0070 C1F3C233 		ubfx	r3, r1, #15, #3
 291              	.LBE236:
 292              	.LBE242:
 293              	.LBB243:
 294              	.LBB233:
 295              		.loc 1 76 41 view .LVU121
 296 0074 40EA9170 		orr	r0, r0, r1, lsr #30
 297              	.LVL23:
 298              		.loc 1 76 41 view .LVU122
 299              	.LBE233:
 300              	.LBE243:
 301              		.loc 1 104 41 view .LVU123
 302 0078 093A     		subs	r2, r2, #9
 303              		.loc 1 104 28 view .LVU124
 304 007a 0233     		adds	r3, r3, #2
 305              		.loc 1 104 16 view .LVU125
 306 007c 0130     		adds	r0, r0, #1
 307              	.LVL24:
 308              		.loc 1 104 22 view .LVU126
 309 007e 9840     		lsls	r0, r0, r3
 310              	.LVL25:
 311              		.loc 1 104 35 view .LVU127
 312 0080 9040     		lsls	r0, r0, r2
 313 0082 7047     		bx	lr
 314              		.cfi_endproc
 315              	.LFE363:
 316              		.size	_mmcsd_get_capacity, .-_mmcsd_get_capacity
 317              		.align	1
 318 0084 AFF30080 		.p2align 4,,15
 318      AFF30080 
 318      AFF30080 
 319              		.global	_mmcsd_get_capacity_ext
 320              		.syntax unified
 321              		.thumb
 322              		.thumb_func
 323              		.fpu fpv4-sp-d16
 324              		.type	_mmcsd_get_capacity_ext, %function
 325              	_mmcsd_get_capacity_ext:
 326              	.LVL26:
 327              	.LFB364:
 328              		.loc 1 125 58 is_stmt 1 view -0
 329              		.cfi_startproc
 330              		@ args = 0, pretend = 0, frame = 0
 331              		@ frame_needed = 0, uses_anonymous_args = 0
 332              		@ link register save eliminated.
 333              		.loc 1 127 3 view .LVU129
 334              		.loc 1 127 3 view .LVU130
 335              		.loc 1 129 3 view .LVU131
 336              		.loc 1 130 11 is_stmt 0 view .LVU132
 337 0090 90F8D630 		ldrb	r3, [r0, #214]	@ zero_extendqisi2
 338              		.loc 1 129 11 view .LVU133
 339 0094 90F8D710 		ldrb	r1, [r0, #215]	@ zero_extendqisi2
 340              		.loc 1 130 34 view .LVU134
ARM GAS  /tmp/ccLF7Z8f.s 			page 7


 341 0098 1B04     		lsls	r3, r3, #16
 342              		.loc 1 132 10 view .LVU135
 343 009a 90F8D420 		ldrb	r2, [r0, #212]	@ zero_extendqisi2
 344              		.loc 1 131 11 view .LVU136
 345 009e 90F8D500 		ldrb	r0, [r0, #213]	@ zero_extendqisi2
 346              	.LVL27:
 347              		.loc 1 129 42 view .LVU137
 348 00a2 03EB0163 		add	r3, r3, r1, lsl #24
 349              		.loc 1 131 42 view .LVU138
 350 00a6 1344     		add	r3, r3, r2
 351              		.loc 1 133 1 view .LVU139
 352 00a8 03EB0020 		add	r0, r3, r0, lsl #8
 353 00ac 7047     		bx	lr
 354              		.cfi_endproc
 355              	.LFE364:
 356              		.size	_mmcsd_get_capacity_ext, .-_mmcsd_get_capacity_ext
 357              		.align	1
 358 00ae 00BF     		.p2align 4,,15
 359              		.global	_mmcsd_unpack_sdc_cid
 360              		.syntax unified
 361              		.thumb
 362              		.thumb_func
 363              		.fpu fpv4-sp-d16
 364              		.type	_mmcsd_unpack_sdc_cid, %function
 365              	_mmcsd_unpack_sdc_cid:
 366              	.LVL28:
 367              	.LFB365:
 368              		.loc 1 144 56 is_stmt 1 view -0
 369              		.cfi_startproc
 370              		@ args = 0, pretend = 0, frame = 0
 371              		@ frame_needed = 0, uses_anonymous_args = 0
 372              		@ link register save eliminated.
 373              		.loc 1 145 3 view .LVU141
 374              		.loc 1 147 3 view .LVU142
 375              		.loc 1 147 3 view .LVU143
 376              		.loc 1 149 3 view .LVU144
 377              		.loc 1 150 3 view .LVU145
 378              	.LBB244:
 379              	.LBI244:
 380              		.loc 1 61 10 view .LVU146
 381              	.LBB245:
 382              		.loc 1 64 3 view .LVU147
 383              		.loc 1 65 3 view .LVU148
 384              		.loc 1 67 3 view .LVU149
 385              		.loc 1 67 3 view .LVU150
 386              		.loc 1 69 3 view .LVU151
 387              		.loc 1 70 3 view .LVU152
 388              		.loc 1 71 3 view .LVU153
 389              		.loc 1 72 3 view .LVU154
 390              		.loc 1 75 3 view .LVU155
 391              		.loc 1 79 3 view .LVU156
 392              		.loc 1 79 37 is_stmt 0 view .LVU157
 393 00b0 8368     		ldr	r3, [r0, #8]
 394 00b2 C3F34603 		ubfx	r3, r3, #1, #7
 395              	.LBE245:
 396              	.LBE244:
 397              		.loc 1 150 20 view .LVU158
ARM GAS  /tmp/ccLF7Z8f.s 			page 8


 398 00b6 0B75     		strb	r3, [r1, #20]
 399              		.loc 1 151 3 is_stmt 1 view .LVU159
 400              	.LVL29:
 401              	.LBB246:
 402              	.LBI246:
 403              		.loc 1 61 10 view .LVU160
 404              	.LBB247:
 405              		.loc 1 64 3 view .LVU161
 406              		.loc 1 65 3 view .LVU162
 407              		.loc 1 67 3 view .LVU163
 408              		.loc 1 67 3 view .LVU164
 409              		.loc 1 69 3 view .LVU165
 410              		.loc 1 70 3 view .LVU166
 411              		.loc 1 71 3 view .LVU167
 412              		.loc 1 72 3 view .LVU168
 413              		.loc 1 75 3 view .LVU169
 414              		.loc 1 79 3 view .LVU170
 415              		.loc 1 79 15 is_stmt 0 view .LVU171
 416 00b8 8368     		ldr	r3, [r0, #8]
 417              	.LVL30:
 418              		.loc 1 79 15 view .LVU172
 419              	.LBE247:
 420              	.LBE246:
 421              	.LBB249:
 422              	.LBB250:
 423              		.loc 1 79 37 view .LVU173
 424 00ba C3F30322 		ubfx	r2, r3, #8, #4
 425              	.LBE250:
 426              	.LBE249:
 427              	.LBB252:
 428              	.LBB248:
 429 00be C3F30733 		ubfx	r3, r3, #12, #8
 430              	.LBE248:
 431              	.LBE252:
 432              		.loc 1 153 20 view .LVU174
 433 00c2 0A74     		strb	r2, [r1, #16]
 434              		.loc 1 151 79 view .LVU175
 435 00c4 03F5FA63 		add	r3, r3, #2000
 436              	.LBB253:
 437              	.LBB254:
 438              		.loc 1 79 37 view .LVU176
 439 00c8 C27D     		ldrb	r2, [r0, #23]	@ zero_extendqisi2
 440              	.LBE254:
 441              	.LBE253:
 442              		.loc 1 151 18 view .LVU177
 443 00ca 4B82     		strh	r3, [r1, #18]	@ movhi
 444              		.loc 1 153 3 is_stmt 1 view .LVU178
 445              	.LVL31:
 446              	.LBB256:
 447              	.LBI249:
 448              		.loc 1 61 10 view .LVU179
 449              	.LBB251:
 450              		.loc 1 64 3 view .LVU180
 451              		.loc 1 65 3 view .LVU181
 452              		.loc 1 67 3 view .LVU182
 453              		.loc 1 67 3 view .LVU183
 454              		.loc 1 69 3 view .LVU184
ARM GAS  /tmp/ccLF7Z8f.s 			page 9


 455              		.loc 1 70 3 view .LVU185
 456              		.loc 1 71 3 view .LVU186
 457              		.loc 1 72 3 view .LVU187
 458              		.loc 1 75 3 view .LVU188
 459              		.loc 1 79 3 view .LVU189
 460              		.loc 1 79 3 is_stmt 0 view .LVU190
 461              	.LBE251:
 462              	.LBE256:
 463              		.loc 1 154 3 is_stmt 1 view .LVU191
 464              	.LBB257:
 465              	.LBI253:
 466              		.loc 1 61 10 view .LVU192
 467              	.LBB255:
 468              		.loc 1 64 3 view .LVU193
 469              		.loc 1 65 3 view .LVU194
 470              		.loc 1 67 3 view .LVU195
 471              		.loc 1 67 3 view .LVU196
 472              		.loc 1 69 3 view .LVU197
 473              		.loc 1 70 3 view .LVU198
 474              		.loc 1 71 3 view .LVU199
 475              		.loc 1 72 3 view .LVU200
 476              		.loc 1 75 3 view .LVU201
 477              		.loc 1 79 3 view .LVU202
 478              		.loc 1 79 3 is_stmt 0 view .LVU203
 479              	.LBE255:
 480              	.LBE257:
 481              		.loc 1 154 20 view .LVU204
 482 00cc 0A70     		strb	r2, [r1]
 483              		.loc 1 155 3 is_stmt 1 view .LVU205
 484              	.LVL32:
 485              	.LBB258:
 486              	.LBI258:
 487              		.loc 1 61 10 view .LVU206
 488              	.LBB259:
 489              		.loc 1 64 3 view .LVU207
 490              		.loc 1 65 3 view .LVU208
 491              		.loc 1 67 3 view .LVU209
 492              		.loc 1 67 3 view .LVU210
 493              		.loc 1 69 3 view .LVU211
 494              		.loc 1 70 3 view .LVU212
 495              		.loc 1 71 3 view .LVU213
 496              		.loc 1 72 3 view .LVU214
 497              		.loc 1 75 3 view .LVU215
 498              		.loc 1 79 3 view .LVU216
 499              		.loc 1 79 3 is_stmt 0 view .LVU217
 500              	.LBE259:
 501              	.LBE258:
 502              		.loc 1 155 20 view .LVU218
 503 00ce D0E90432 		ldrd	r3, r2, [r0, #16]
 504              		.loc 1 156 20 view .LVU219
 505 00d2 0B72     		strb	r3, [r1, #8]
 506              		.loc 1 155 20 view .LVU220
 507 00d4 120A     		lsrs	r2, r2, #8
 508              		.loc 1 157 20 view .LVU221
 509 00d6 0369     		ldr	r3, [r0, #16]
 510              		.loc 1 155 20 view .LVU222
 511 00d8 4A80     		strh	r2, [r1, #2]	@ movhi
ARM GAS  /tmp/ccLF7Z8f.s 			page 10


 512              		.loc 1 156 3 is_stmt 1 view .LVU223
 513              	.LVL33:
 514              	.LBB260:
 515              	.LBI260:
 516              		.loc 1 61 10 view .LVU224
 517              	.LBB261:
 518              		.loc 1 64 3 view .LVU225
 519              		.loc 1 65 3 view .LVU226
 520              		.loc 1 67 3 view .LVU227
 521              		.loc 1 67 3 view .LVU228
 522              		.loc 1 69 3 view .LVU229
 523              		.loc 1 70 3 view .LVU230
 524              		.loc 1 71 3 view .LVU231
 525              		.loc 1 72 3 view .LVU232
 526              		.loc 1 75 3 view .LVU233
 527              		.loc 1 79 3 view .LVU234
 528              		.loc 1 79 3 is_stmt 0 view .LVU235
 529              	.LBE261:
 530              	.LBE260:
 531              		.loc 1 157 3 is_stmt 1 view .LVU236
 532              	.LBB262:
 533              	.LBI262:
 534              		.loc 1 61 10 view .LVU237
 535              	.LBB263:
 536              		.loc 1 64 3 view .LVU238
 537              		.loc 1 65 3 view .LVU239
 538              		.loc 1 67 3 view .LVU240
 539              		.loc 1 67 3 view .LVU241
 540              		.loc 1 69 3 view .LVU242
 541              		.loc 1 70 3 view .LVU243
 542              		.loc 1 71 3 view .LVU244
 543              		.loc 1 72 3 view .LVU245
 544              		.loc 1 75 3 view .LVU246
 545              		.loc 1 79 3 view .LVU247
 546              		.loc 1 79 3 is_stmt 0 view .LVU248
 547              	.LBE263:
 548              	.LBE262:
 549              		.loc 1 157 20 view .LVU249
 550 00da 1B0A     		lsrs	r3, r3, #8
 551 00dc CB71     		strb	r3, [r1, #7]
 552              		.loc 1 158 3 is_stmt 1 view .LVU250
 553              	.LVL34:
 554              	.LBB264:
 555              	.LBI264:
 556              		.loc 1 61 10 view .LVU251
 557              	.LBB265:
 558              		.loc 1 64 3 view .LVU252
 559              		.loc 1 65 3 view .LVU253
 560              		.loc 1 67 3 view .LVU254
 561              		.loc 1 67 3 view .LVU255
 562              		.loc 1 69 3 view .LVU256
 563              		.loc 1 70 3 view .LVU257
 564              		.loc 1 71 3 view .LVU258
 565              		.loc 1 72 3 view .LVU259
 566              		.loc 1 75 3 view .LVU260
 567              		.loc 1 79 3 view .LVU261
 568              		.loc 1 79 3 is_stmt 0 view .LVU262
ARM GAS  /tmp/ccLF7Z8f.s 			page 11


 569              	.LBE265:
 570              	.LBE264:
 571              		.loc 1 158 20 view .LVU263
 572 00de 438A     		ldrh	r3, [r0, #18]
 573 00e0 8B71     		strb	r3, [r1, #6]
 574              		.loc 1 159 3 is_stmt 1 view .LVU264
 575              	.LVL35:
 576              	.LBB266:
 577              	.LBI266:
 578              		.loc 1 61 10 view .LVU265
 579              	.LBB267:
 580              		.loc 1 64 3 view .LVU266
 581              		.loc 1 65 3 view .LVU267
 582              		.loc 1 67 3 view .LVU268
 583              		.loc 1 67 3 view .LVU269
 584              		.loc 1 69 3 view .LVU270
 585              		.loc 1 70 3 view .LVU271
 586              		.loc 1 71 3 view .LVU272
 587              		.loc 1 72 3 view .LVU273
 588              		.loc 1 75 3 view .LVU274
 589              		.loc 1 79 3 view .LVU275
 590              		.loc 1 79 37 is_stmt 0 view .LVU276
 591 00e2 C37C     		ldrb	r3, [r0, #19]	@ zero_extendqisi2
 592              	.LBE267:
 593              	.LBE266:
 594              		.loc 1 159 20 view .LVU277
 595 00e4 4B71     		strb	r3, [r1, #5]
 596              		.loc 1 160 3 is_stmt 1 view .LVU278
 597              	.LVL36:
 598              	.LBB268:
 599              	.LBI268:
 600              		.loc 1 61 10 view .LVU279
 601              	.LBB269:
 602              		.loc 1 64 3 view .LVU280
 603              		.loc 1 65 3 view .LVU281
 604              		.loc 1 67 3 view .LVU282
 605              		.loc 1 67 3 view .LVU283
 606              		.loc 1 69 3 view .LVU284
 607              		.loc 1 70 3 view .LVU285
 608              		.loc 1 71 3 view .LVU286
 609              		.loc 1 72 3 view .LVU287
 610              		.loc 1 75 3 view .LVU288
 611              		.loc 1 79 3 view .LVU289
 612              		.loc 1 79 3 is_stmt 0 view .LVU290
 613              	.LBE269:
 614              	.LBE268:
 615              		.loc 1 160 20 view .LVU291
 616 00e6 4369     		ldr	r3, [r0, #20]
 617 00e8 0B71     		strb	r3, [r1, #4]
 618              		.loc 1 161 3 is_stmt 1 view .LVU292
 619              	.LVL37:
 620              	.LBB270:
 621              	.LBI270:
 622              		.loc 1 61 10 view .LVU293
 623              	.LBB271:
 624              		.loc 1 64 3 view .LVU294
 625              		.loc 1 65 3 view .LVU295
ARM GAS  /tmp/ccLF7Z8f.s 			page 12


 626              		.loc 1 67 3 view .LVU296
 627              		.loc 1 67 3 view .LVU297
 628              		.loc 1 69 3 view .LVU298
 629              		.loc 1 70 3 view .LVU299
 630              		.loc 1 71 3 view .LVU300
 631              		.loc 1 72 3 view .LVU301
 632              		.loc 1 75 3 view .LVU302
 633              		.loc 1 79 3 view .LVU303
 634              		.loc 1 79 37 is_stmt 0 view .LVU304
 635 00ea C368     		ldr	r3, [r0, #12]
 636 00ec 1B0F     		lsrs	r3, r3, #28
 637              	.LBE271:
 638              	.LBE270:
 639              		.loc 1 161 20 view .LVU305
 640 00ee 4B72     		strb	r3, [r1, #9]
 641              		.loc 1 162 3 is_stmt 1 view .LVU306
 642              	.LVL38:
 643              	.LBB272:
 644              	.LBI272:
 645              		.loc 1 61 10 view .LVU307
 646              	.LBB273:
 647              		.loc 1 64 3 view .LVU308
 648              		.loc 1 65 3 view .LVU309
 649              		.loc 1 67 3 view .LVU310
 650              		.loc 1 67 3 view .LVU311
 651              		.loc 1 69 3 view .LVU312
 652              		.loc 1 70 3 view .LVU313
 653              		.loc 1 71 3 view .LVU314
 654              		.loc 1 72 3 view .LVU315
 655              		.loc 1 75 3 view .LVU316
 656              		.loc 1 79 3 view .LVU317
 657              		.loc 1 79 37 is_stmt 0 view .LVU318
 658 00f0 C37B     		ldrb	r3, [r0, #15]	@ zero_extendqisi2
 659 00f2 03F00F03 		and	r3, r3, #15
 660              	.LBE273:
 661              	.LBE272:
 662              		.loc 1 162 20 view .LVU319
 663 00f6 8B72     		strb	r3, [r1, #10]
 664              		.loc 1 163 3 is_stmt 1 view .LVU320
 665              	.LVL39:
 666              	.LBB274:
 667              	.LBI274:
 668              		.loc 1 61 10 view .LVU321
 669              	.LBB275:
 670              		.loc 1 64 3 view .LVU322
 671              		.loc 1 65 3 view .LVU323
 672              		.loc 1 67 3 view .LVU324
 673              		.loc 1 67 3 view .LVU325
 674              		.loc 1 69 3 view .LVU326
 675              		.loc 1 70 3 view .LVU327
 676              		.loc 1 71 3 view .LVU328
 677              		.loc 1 72 3 view .LVU329
 678              		.loc 1 75 3 view .LVU330
 679              		.loc 1 76 5 view .LVU331
 680              		.loc 1 76 28 is_stmt 0 view .LVU332
 681 00f8 C37A     		ldrb	r3, [r0, #11]	@ zero_extendqisi2
 682              		.loc 1 76 41 view .LVU333
ARM GAS  /tmp/ccLF7Z8f.s 			page 13


 683 00fa C268     		ldr	r2, [r0, #12]
 684 00fc 43EA0223 		orr	r3, r3, r2, lsl #8
 685              	.LBE275:
 686              	.LBE274:
 687              		.loc 1 163 18 view .LVU334
 688 0100 CB60     		str	r3, [r1, #12]
 689              		.loc 1 164 1 view .LVU335
 690 0102 7047     		bx	lr
 691              		.cfi_endproc
 692              	.LFE365:
 693              		.size	_mmcsd_unpack_sdc_cid, .-_mmcsd_unpack_sdc_cid
 694              		.align	1
 695 0104 AFF30080 		.p2align 4,,15
 695      AFF30080 
 695      AFF30080 
 696              		.global	_mmcsd_unpack_mmc_cid
 697              		.syntax unified
 698              		.thumb
 699              		.thumb_func
 700              		.fpu fpv4-sp-d16
 701              		.type	_mmcsd_unpack_mmc_cid, %function
 702              	_mmcsd_unpack_mmc_cid:
 703              	.LVL40:
 704              	.LFB366:
 705              		.loc 1 175 56 is_stmt 1 view -0
 706              		.cfi_startproc
 707              		@ args = 0, pretend = 0, frame = 0
 708              		@ frame_needed = 0, uses_anonymous_args = 0
 709              		@ link register save eliminated.
 710              		.loc 1 176 3 view .LVU337
 711              		.loc 1 178 3 view .LVU338
 712              		.loc 1 178 3 view .LVU339
 713              		.loc 1 180 3 view .LVU340
 714              		.loc 1 181 3 view .LVU341
 715              	.LBB276:
 716              	.LBI276:
 717              		.loc 1 61 10 view .LVU342
 718              	.LBB277:
 719              		.loc 1 64 3 view .LVU343
 720              		.loc 1 65 3 view .LVU344
 721              		.loc 1 67 3 view .LVU345
 722              		.loc 1 67 3 view .LVU346
 723              		.loc 1 69 3 view .LVU347
 724              		.loc 1 70 3 view .LVU348
 725              		.loc 1 71 3 view .LVU349
 726              		.loc 1 72 3 view .LVU350
 727              		.loc 1 75 3 view .LVU351
 728              		.loc 1 79 3 view .LVU352
 729              		.loc 1 79 37 is_stmt 0 view .LVU353
 730 0110 8368     		ldr	r3, [r0, #8]
 731 0112 C3F34603 		ubfx	r3, r3, #1, #7
 732              	.LBE277:
 733              	.LBE276:
 734              		.loc 1 181 20 view .LVU354
 735 0116 0B75     		strb	r3, [r1, #20]
 736              		.loc 1 182 3 is_stmt 1 view .LVU355
 737              	.LVL41:
ARM GAS  /tmp/ccLF7Z8f.s 			page 14


 738              	.LBB278:
 739              	.LBI278:
 740              		.loc 1 61 10 view .LVU356
 741              	.LBB279:
 742              		.loc 1 64 3 view .LVU357
 743              		.loc 1 65 3 view .LVU358
 744              		.loc 1 67 3 view .LVU359
 745              		.loc 1 67 3 view .LVU360
 746              		.loc 1 69 3 view .LVU361
 747              		.loc 1 70 3 view .LVU362
 748              		.loc 1 71 3 view .LVU363
 749              		.loc 1 72 3 view .LVU364
 750              		.loc 1 75 3 view .LVU365
 751              		.loc 1 79 3 view .LVU366
 752              		.loc 1 79 15 is_stmt 0 view .LVU367
 753 0118 8368     		ldr	r3, [r0, #8]
 754              	.LVL42:
 755              		.loc 1 79 15 view .LVU368
 756              	.LBE279:
 757              	.LBE278:
 758              	.LBB281:
 759              	.LBB282:
 760              		.loc 1 79 37 view .LVU369
 761 011a C3F30332 		ubfx	r2, r3, #12, #4
 762              	.LBE282:
 763              	.LBE281:
 764              	.LBB284:
 765              	.LBB280:
 766 011e C3F30323 		ubfx	r3, r3, #8, #4
 767              	.LBE280:
 768              	.LBE284:
 769              		.loc 1 184 20 view .LVU370
 770 0122 0A74     		strb	r2, [r1, #16]
 771              		.loc 1 182 79 view .LVU371
 772 0124 03F2CD73 		addw	r3, r3, #1997
 773              	.LBB285:
 774              	.LBB286:
 775              		.loc 1 79 37 view .LVU372
 776 0128 C27D     		ldrb	r2, [r0, #23]	@ zero_extendqisi2
 777              	.LBE286:
 778              	.LBE285:
 779              		.loc 1 182 18 view .LVU373
 780 012a 4B82     		strh	r3, [r1, #18]	@ movhi
 781              		.loc 1 184 3 is_stmt 1 view .LVU374
 782              	.LVL43:
 783              	.LBB288:
 784              	.LBI281:
 785              		.loc 1 61 10 view .LVU375
 786              	.LBB283:
 787              		.loc 1 64 3 view .LVU376
 788              		.loc 1 65 3 view .LVU377
 789              		.loc 1 67 3 view .LVU378
 790              		.loc 1 67 3 view .LVU379
 791              		.loc 1 69 3 view .LVU380
 792              		.loc 1 70 3 view .LVU381
 793              		.loc 1 71 3 view .LVU382
 794              		.loc 1 72 3 view .LVU383
ARM GAS  /tmp/ccLF7Z8f.s 			page 15


 795              		.loc 1 75 3 view .LVU384
 796              		.loc 1 79 3 view .LVU385
 797              		.loc 1 79 3 is_stmt 0 view .LVU386
 798              	.LBE283:
 799              	.LBE288:
 800              		.loc 1 185 3 is_stmt 1 view .LVU387
 801              	.LBB289:
 802              	.LBI285:
 803              		.loc 1 61 10 view .LVU388
 804              	.LBB287:
 805              		.loc 1 64 3 view .LVU389
 806              		.loc 1 65 3 view .LVU390
 807              		.loc 1 67 3 view .LVU391
 808              		.loc 1 67 3 view .LVU392
 809              		.loc 1 69 3 view .LVU393
 810              		.loc 1 70 3 view .LVU394
 811              		.loc 1 71 3 view .LVU395
 812              		.loc 1 72 3 view .LVU396
 813              		.loc 1 75 3 view .LVU397
 814              		.loc 1 79 3 view .LVU398
 815              		.loc 1 79 3 is_stmt 0 view .LVU399
 816              	.LBE287:
 817              	.LBE289:
 818              		.loc 1 185 20 view .LVU400
 819 012c 0A70     		strb	r2, [r1]
 820              		.loc 1 186 3 is_stmt 1 view .LVU401
 821              	.LVL44:
 822              	.LBB290:
 823              	.LBI290:
 824              		.loc 1 61 10 view .LVU402
 825              	.LBB291:
 826              		.loc 1 64 3 view .LVU403
 827              		.loc 1 65 3 view .LVU404
 828              		.loc 1 67 3 view .LVU405
 829              		.loc 1 67 3 view .LVU406
 830              		.loc 1 69 3 view .LVU407
 831              		.loc 1 70 3 view .LVU408
 832              		.loc 1 71 3 view .LVU409
 833              		.loc 1 72 3 view .LVU410
 834              		.loc 1 75 3 view .LVU411
 835              		.loc 1 79 3 view .LVU412
 836              		.loc 1 79 3 is_stmt 0 view .LVU413
 837              	.LBE291:
 838              	.LBE290:
 839              	.LBB292:
 840              	.LBB293:
 841              		.loc 1 79 37 view .LVU414
 842 012e C37B     		ldrb	r3, [r0, #15]	@ zero_extendqisi2
 843              	.LBE293:
 844              	.LBE292:
 845              		.loc 1 186 20 view .LVU415
 846 0130 4269     		ldr	r2, [r0, #20]
 847              		.loc 1 187 20 view .LVU416
 848 0132 4B72     		strb	r3, [r1, #9]
 849              		.loc 1 188 20 view .LVU417
 850 0134 0369     		ldr	r3, [r0, #16]
 851              		.loc 1 186 20 view .LVU418
ARM GAS  /tmp/ccLF7Z8f.s 			page 16


 852 0136 120A     		lsrs	r2, r2, #8
 853              		.loc 1 188 20 view .LVU419
 854 0138 0B72     		strb	r3, [r1, #8]
 855              		.loc 1 189 20 view .LVU420
 856 013a 0369     		ldr	r3, [r0, #16]
 857              		.loc 1 186 20 view .LVU421
 858 013c 4A80     		strh	r2, [r1, #2]	@ movhi
 859              		.loc 1 187 3 is_stmt 1 view .LVU422
 860              	.LVL45:
 861              	.LBB295:
 862              	.LBI292:
 863              		.loc 1 61 10 view .LVU423
 864              	.LBB294:
 865              		.loc 1 64 3 view .LVU424
 866              		.loc 1 65 3 view .LVU425
 867              		.loc 1 67 3 view .LVU426
 868              		.loc 1 67 3 view .LVU427
 869              		.loc 1 69 3 view .LVU428
 870              		.loc 1 70 3 view .LVU429
 871              		.loc 1 71 3 view .LVU430
 872              		.loc 1 72 3 view .LVU431
 873              		.loc 1 75 3 view .LVU432
 874              		.loc 1 79 3 view .LVU433
 875              		.loc 1 79 3 is_stmt 0 view .LVU434
 876              	.LBE294:
 877              	.LBE295:
 878              		.loc 1 188 3 is_stmt 1 view .LVU435
 879              	.LBB296:
 880              	.LBI296:
 881              		.loc 1 61 10 view .LVU436
 882              	.LBB297:
 883              		.loc 1 64 3 view .LVU437
 884              		.loc 1 65 3 view .LVU438
 885              		.loc 1 67 3 view .LVU439
 886              		.loc 1 67 3 view .LVU440
 887              		.loc 1 69 3 view .LVU441
 888              		.loc 1 70 3 view .LVU442
 889              		.loc 1 71 3 view .LVU443
 890              		.loc 1 72 3 view .LVU444
 891              		.loc 1 75 3 view .LVU445
 892              		.loc 1 79 3 view .LVU446
 893              		.loc 1 79 3 is_stmt 0 view .LVU447
 894              	.LBE297:
 895              	.LBE296:
 896              		.loc 1 189 3 is_stmt 1 view .LVU448
 897              	.LBB298:
 898              	.LBI298:
 899              		.loc 1 61 10 view .LVU449
 900              	.LBB299:
 901              		.loc 1 64 3 view .LVU450
 902              		.loc 1 65 3 view .LVU451
 903              		.loc 1 67 3 view .LVU452
 904              		.loc 1 67 3 view .LVU453
 905              		.loc 1 69 3 view .LVU454
 906              		.loc 1 70 3 view .LVU455
 907              		.loc 1 71 3 view .LVU456
 908              		.loc 1 72 3 view .LVU457
ARM GAS  /tmp/ccLF7Z8f.s 			page 17


 909              		.loc 1 75 3 view .LVU458
 910              		.loc 1 79 3 view .LVU459
 911              		.loc 1 79 3 is_stmt 0 view .LVU460
 912              	.LBE299:
 913              	.LBE298:
 914              		.loc 1 189 20 view .LVU461
 915 013e 1B0A     		lsrs	r3, r3, #8
 916 0140 CB71     		strb	r3, [r1, #7]
 917              		.loc 1 190 3 is_stmt 1 view .LVU462
 918              	.LVL46:
 919              	.LBB300:
 920              	.LBI300:
 921              		.loc 1 61 10 view .LVU463
 922              	.LBB301:
 923              		.loc 1 64 3 view .LVU464
 924              		.loc 1 65 3 view .LVU465
 925              		.loc 1 67 3 view .LVU466
 926              		.loc 1 67 3 view .LVU467
 927              		.loc 1 69 3 view .LVU468
 928              		.loc 1 70 3 view .LVU469
 929              		.loc 1 71 3 view .LVU470
 930              		.loc 1 72 3 view .LVU471
 931              		.loc 1 75 3 view .LVU472
 932              		.loc 1 79 3 view .LVU473
 933              		.loc 1 79 3 is_stmt 0 view .LVU474
 934              	.LBE301:
 935              	.LBE300:
 936              		.loc 1 190 20 view .LVU475
 937 0142 438A     		ldrh	r3, [r0, #18]
 938 0144 8B71     		strb	r3, [r1, #6]
 939              		.loc 1 191 3 is_stmt 1 view .LVU476
 940              	.LVL47:
 941              	.LBB302:
 942              	.LBI302:
 943              		.loc 1 61 10 view .LVU477
 944              	.LBB303:
 945              		.loc 1 64 3 view .LVU478
 946              		.loc 1 65 3 view .LVU479
 947              		.loc 1 67 3 view .LVU480
 948              		.loc 1 67 3 view .LVU481
 949              		.loc 1 69 3 view .LVU482
 950              		.loc 1 70 3 view .LVU483
 951              		.loc 1 71 3 view .LVU484
 952              		.loc 1 72 3 view .LVU485
 953              		.loc 1 75 3 view .LVU486
 954              		.loc 1 79 3 view .LVU487
 955              		.loc 1 79 37 is_stmt 0 view .LVU488
 956 0146 C37C     		ldrb	r3, [r0, #19]	@ zero_extendqisi2
 957              	.LBE303:
 958              	.LBE302:
 959              		.loc 1 191 20 view .LVU489
 960 0148 4B71     		strb	r3, [r1, #5]
 961              		.loc 1 192 3 is_stmt 1 view .LVU490
 962              	.LVL48:
 963              	.LBB304:
 964              	.LBI304:
 965              		.loc 1 61 10 view .LVU491
ARM GAS  /tmp/ccLF7Z8f.s 			page 18


 966              	.LBB305:
 967              		.loc 1 64 3 view .LVU492
 968              		.loc 1 65 3 view .LVU493
 969              		.loc 1 67 3 view .LVU494
 970              		.loc 1 67 3 view .LVU495
 971              		.loc 1 69 3 view .LVU496
 972              		.loc 1 70 3 view .LVU497
 973              		.loc 1 71 3 view .LVU498
 974              		.loc 1 72 3 view .LVU499
 975              		.loc 1 75 3 view .LVU500
 976              		.loc 1 79 3 view .LVU501
 977              		.loc 1 79 3 is_stmt 0 view .LVU502
 978              	.LBE305:
 979              	.LBE304:
 980              		.loc 1 192 20 view .LVU503
 981 014a 4369     		ldr	r3, [r0, #20]
 982 014c 0B71     		strb	r3, [r1, #4]
 983              		.loc 1 193 3 is_stmt 1 view .LVU504
 984              	.LVL49:
 985              	.LBB306:
 986              	.LBI306:
 987              		.loc 1 61 10 view .LVU505
 988              	.LBB307:
 989              		.loc 1 64 3 view .LVU506
 990              		.loc 1 65 3 view .LVU507
 991              		.loc 1 67 3 view .LVU508
 992              		.loc 1 67 3 view .LVU509
 993              		.loc 1 69 3 view .LVU510
 994              		.loc 1 70 3 view .LVU511
 995              		.loc 1 71 3 view .LVU512
 996              		.loc 1 72 3 view .LVU513
 997              		.loc 1 75 3 view .LVU514
 998              		.loc 1 79 3 view .LVU515
 999              		.loc 1 79 37 is_stmt 0 view .LVU516
 1000 014e C368     		ldr	r3, [r0, #12]
 1001 0150 C3F30353 		ubfx	r3, r3, #20, #4
 1002              	.LBE307:
 1003              	.LBE306:
 1004              		.loc 1 193 20 view .LVU517
 1005 0154 8B72     		strb	r3, [r1, #10]
 1006              		.loc 1 194 3 is_stmt 1 view .LVU518
 1007              	.LVL50:
 1008              	.LBB308:
 1009              	.LBI308:
 1010              		.loc 1 61 10 view .LVU519
 1011              	.LBB309:
 1012              		.loc 1 64 3 view .LVU520
 1013              		.loc 1 65 3 view .LVU521
 1014              		.loc 1 67 3 view .LVU522
 1015              		.loc 1 67 3 view .LVU523
 1016              		.loc 1 69 3 view .LVU524
 1017              		.loc 1 70 3 view .LVU525
 1018              		.loc 1 71 3 view .LVU526
 1019              		.loc 1 72 3 view .LVU527
 1020              		.loc 1 75 3 view .LVU528
 1021              		.loc 1 79 3 view .LVU529
 1022              		.loc 1 79 37 is_stmt 0 view .LVU530
ARM GAS  /tmp/ccLF7Z8f.s 			page 19


 1023 0156 C389     		ldrh	r3, [r0, #14]
 1024 0158 03F00F03 		and	r3, r3, #15
 1025              	.LBE309:
 1026              	.LBE308:
 1027              		.loc 1 194 20 view .LVU531
 1028 015c CB72     		strb	r3, [r1, #11]
 1029              		.loc 1 195 3 is_stmt 1 view .LVU532
 1030              	.LVL51:
 1031              	.LBB310:
 1032              	.LBI310:
 1033              		.loc 1 61 10 view .LVU533
 1034              	.LBB311:
 1035              		.loc 1 64 3 view .LVU534
 1036              		.loc 1 65 3 view .LVU535
 1037              		.loc 1 67 3 view .LVU536
 1038              		.loc 1 67 3 view .LVU537
 1039              		.loc 1 69 3 view .LVU538
 1040              		.loc 1 70 3 view .LVU539
 1041              		.loc 1 71 3 view .LVU540
 1042              		.loc 1 72 3 view .LVU541
 1043              		.loc 1 75 3 view .LVU542
 1044              		.loc 1 76 5 view .LVU543
 1045              		.loc 1 76 28 is_stmt 0 view .LVU544
 1046 015e 4389     		ldrh	r3, [r0, #10]
 1047              		.loc 1 76 41 view .LVU545
 1048 0160 C268     		ldr	r2, [r0, #12]
 1049 0162 43EA0243 		orr	r3, r3, r2, lsl #16
 1050              	.LBE311:
 1051              	.LBE310:
 1052              		.loc 1 195 18 view .LVU546
 1053 0166 CB60     		str	r3, [r1, #12]
 1054              		.loc 1 196 1 view .LVU547
 1055 0168 7047     		bx	lr
 1056              		.cfi_endproc
 1057              	.LFE366:
 1058              		.size	_mmcsd_unpack_mmc_cid, .-_mmcsd_unpack_mmc_cid
 1059              		.align	1
 1060 016a 00BFAFF3 		.p2align 4,,15
 1060      0080
 1061              		.global	_mmcsd_unpack_csd_mmc
 1062              		.syntax unified
 1063              		.thumb
 1064              		.thumb_func
 1065              		.fpu fpv4-sp-d16
 1066              		.type	_mmcsd_unpack_csd_mmc, %function
 1067              	_mmcsd_unpack_csd_mmc:
 1068              	.LVL52:
 1069              	.LFB367:
 1070              		.loc 1 207 56 is_stmt 1 view -0
 1071              		.cfi_startproc
 1072              		@ args = 0, pretend = 0, frame = 0
 1073              		@ frame_needed = 0, uses_anonymous_args = 0
 1074              		@ link register save eliminated.
 1075              		.loc 1 208 3 view .LVU549
 1076              		.loc 1 210 3 view .LVU550
 1077              		.loc 1 210 3 view .LVU551
 1078              		.loc 1 212 3 view .LVU552
ARM GAS  /tmp/ccLF7Z8f.s 			page 20


 1079              		.loc 1 213 3 view .LVU553
 1080              	.LBB312:
 1081              	.LBI312:
 1082              		.loc 1 61 10 view .LVU554
 1083              	.LBB313:
 1084              		.loc 1 64 3 view .LVU555
 1085              		.loc 1 65 3 view .LVU556
 1086              		.loc 1 67 3 view .LVU557
 1087              		.loc 1 67 3 view .LVU558
 1088              		.loc 1 69 3 view .LVU559
 1089              		.loc 1 70 3 view .LVU560
 1090              		.loc 1 71 3 view .LVU561
 1091              		.loc 1 72 3 view .LVU562
 1092              		.loc 1 75 3 view .LVU563
 1093              		.loc 1 76 5 view .LVU564
 1094              	.LBE313:
 1095              	.LBE312:
 1096              		.loc 1 207 56 is_stmt 0 view .LVU565
 1097 0170 F0B4     		push	{r4, r5, r6, r7}
 1098              		.cfi_def_cfa_offset 16
 1099              		.cfi_offset 4, -16
 1100              		.cfi_offset 5, -12
 1101              		.cfi_offset 6, -8
 1102              		.cfi_offset 7, -4
 1103              	.LBB317:
 1104              	.LBB314:
 1105              		.loc 1 77 18 view .LVU566
 1106 0172 D0E90724 		ldrd	r2, r4, [r0, #28]
 1107              	.LVL53:
 1108              		.loc 1 77 38 view .LVU567
 1109 0176 40F6FC75 		movw	r5, #4092
 1110              	.LBE314:
 1111              	.LBE317:
 1112              	.LBB318:
 1113              	.LBB319:
 1114              		.loc 1 79 37 view .LVU568
 1115 017a C2F3C233 		ubfx	r3, r2, #15, #3
 1116              	.LBE319:
 1117              	.LBE318:
 1118              	.LBB321:
 1119              	.LBB315:
 1120              		.loc 1 77 38 view .LVU569
 1121 017e 05EA8405 		and	r5, r5, r4, lsl #2
 1122              	.LBE315:
 1123              	.LBE321:
 1124              		.loc 1 214 32 view .LVU570
 1125 0182 0B75     		strb	r3, [r1, #20]
 1126              	.LBB322:
 1127              	.LBB323:
 1128              		.loc 1 79 15 view .LVU571
 1129 0184 8369     		ldr	r3, [r0, #24]
 1130              	.LBE323:
 1131              	.LBE322:
 1132              	.LBB326:
 1133              	.LBB316:
 1134              		.loc 1 76 41 view .LVU572
 1135 0186 45EA9275 		orr	r5, r5, r2, lsr #30
ARM GAS  /tmp/ccLF7Z8f.s 			page 21


 1136              	.LBE316:
 1137              	.LBE326:
 1138              	.LBB327:
 1139              	.LBB328:
 1140              		.loc 1 79 37 view .LVU573
 1141 018a C3F34606 		ubfx	r6, r3, #1, #7
 1142              	.LBE328:
 1143              	.LBE327:
 1144              	.LBB330:
 1145              	.LBB324:
 1146 018e C3F38037 		ubfx	r7, r3, #14, #1
 1147              	.LBE324:
 1148              	.LBE330:
 1149              		.loc 1 213 32 view .LVU574
 1150 0192 CD81     		strh	r5, [r1, #14]	@ movhi
 1151              		.loc 1 214 3 is_stmt 1 view .LVU575
 1152              	.LVL54:
 1153              	.LBB331:
 1154              	.LBI318:
 1155              		.loc 1 61 10 view .LVU576
 1156              	.LBB320:
 1157              		.loc 1 64 3 view .LVU577
 1158              		.loc 1 65 3 view .LVU578
 1159              		.loc 1 67 3 view .LVU579
 1160              		.loc 1 67 3 view .LVU580
 1161              		.loc 1 69 3 view .LVU581
 1162              		.loc 1 70 3 view .LVU582
 1163              		.loc 1 71 3 view .LVU583
 1164              		.loc 1 72 3 view .LVU584
 1165              		.loc 1 75 3 view .LVU585
 1166              		.loc 1 79 3 view .LVU586
 1167              		.loc 1 79 3 is_stmt 0 view .LVU587
 1168              	.LBE320:
 1169              	.LBE331:
 1170              		.loc 1 215 3 is_stmt 1 view .LVU588
 1171              	.LBB332:
 1172              	.LBI332:
 1173              		.loc 1 61 10 view .LVU589
 1174              	.LBB333:
 1175              		.loc 1 64 3 view .LVU590
 1176              		.loc 1 65 3 view .LVU591
 1177              		.loc 1 67 3 view .LVU592
 1178              		.loc 1 67 3 view .LVU593
 1179              		.loc 1 69 3 view .LVU594
 1180              		.loc 1 70 3 view .LVU595
 1181              		.loc 1 71 3 view .LVU596
 1182              		.loc 1 72 3 view .LVU597
 1183              		.loc 1 75 3 view .LVU598
 1184              		.loc 1 79 3 view .LVU599
 1185              		.loc 1 79 3 is_stmt 0 view .LVU600
 1186              	.LBE333:
 1187              	.LBE332:
 1188              	.LBB335:
 1189              	.LBB336:
 1190              		.loc 1 79 37 view .LVU601
 1191 0194 C3F30125 		ubfx	r5, r3, #8, #2
 1192              	.LBE336:
ARM GAS  /tmp/ccLF7Z8f.s 			page 22


 1193              	.LBE335:
 1194              		.loc 1 217 32 view .LVU602
 1195 0198 81F82460 		strb	r6, [r1, #36]
 1196              	.LBB338:
 1197              	.LBB339:
 1198              		.loc 1 79 37 view .LVU603
 1199 019c C4F30036 		ubfx	r6, r4, #12, #1
 1200              	.LBE339:
 1201              	.LBE338:
 1202              		.loc 1 216 32 view .LVU604
 1203 01a0 CF77     		strb	r7, [r1, #31]
 1204              	.LBB341:
 1205              	.LBB334:
 1206              		.loc 1 79 37 view .LVU605
 1207 01a2 270D     		lsrs	r7, r4, #20
 1208              	.LBE334:
 1209              	.LBE341:
 1210              	.LBB342:
 1211              	.LBB343:
 1212              		.loc 1 79 15 view .LVU606
 1213 01a4 406A     		ldr	r0, [r0, #36]
 1214              	.LVL55:
 1215              		.loc 1 79 15 view .LVU607
 1216              	.LBE343:
 1217              	.LBE342:
 1218              		.loc 1 219 32 view .LVU608
 1219 01a6 0E73     		strb	r6, [r1, #12]
 1220              	.LBB345:
 1221              	.LBB346:
 1222              		.loc 1 79 37 view .LVU609
 1223 01a8 C2F34416 		ubfx	r6, r2, #5, #5
 1224              	.LBE346:
 1225              	.LBE345:
 1226              		.loc 1 220 32 view .LVU610
 1227 01ac 81F82350 		strb	r5, [r1, #35]
 1228              	.LBB348:
 1229              	.LBB349:
 1230              		.loc 1 79 37 view .LVU611
 1231 01b0 C3F38125 		ubfx	r5, r3, #10, #2
 1232              	.LBE349:
 1233              	.LBE348:
 1234              		.loc 1 215 32 view .LVU612
 1235 01b4 CF80     		strh	r7, [r1, #6]	@ movhi
 1236              		.loc 1 216 3 is_stmt 1 view .LVU613
 1237              	.LVL56:
 1238              	.LBB351:
 1239              	.LBI322:
 1240              		.loc 1 61 10 view .LVU614
 1241              	.LBB325:
 1242              		.loc 1 64 3 view .LVU615
 1243              		.loc 1 65 3 view .LVU616
 1244              		.loc 1 67 3 view .LVU617
 1245              		.loc 1 67 3 view .LVU618
 1246              		.loc 1 69 3 view .LVU619
 1247              		.loc 1 70 3 view .LVU620
 1248              		.loc 1 71 3 view .LVU621
 1249              		.loc 1 72 3 view .LVU622
ARM GAS  /tmp/ccLF7Z8f.s 			page 23


 1250              		.loc 1 75 3 view .LVU623
 1251              		.loc 1 79 3 view .LVU624
 1252              		.loc 1 79 3 is_stmt 0 view .LVU625
 1253              	.LBE325:
 1254              	.LBE351:
 1255              		.loc 1 217 3 is_stmt 1 view .LVU626
 1256              	.LBB352:
 1257              	.LBI327:
 1258              		.loc 1 61 10 view .LVU627
 1259              	.LBB329:
 1260              		.loc 1 64 3 view .LVU628
 1261              		.loc 1 65 3 view .LVU629
 1262              		.loc 1 67 3 view .LVU630
 1263              		.loc 1 67 3 view .LVU631
 1264              		.loc 1 69 3 view .LVU632
 1265              		.loc 1 70 3 view .LVU633
 1266              		.loc 1 71 3 view .LVU634
 1267              		.loc 1 72 3 view .LVU635
 1268              		.loc 1 75 3 view .LVU636
 1269              		.loc 1 79 3 view .LVU637
 1270              		.loc 1 79 3 is_stmt 0 view .LVU638
 1271              	.LBE329:
 1272              	.LBE352:
 1273              		.loc 1 218 3 is_stmt 1 view .LVU639
 1274              	.LBB353:
 1275              	.LBI342:
 1276              		.loc 1 61 10 view .LVU640
 1277              	.LBB344:
 1278              		.loc 1 64 3 view .LVU641
 1279              		.loc 1 65 3 view .LVU642
 1280              		.loc 1 67 3 view .LVU643
 1281              		.loc 1 67 3 view .LVU644
 1282              		.loc 1 69 3 view .LVU645
 1283              		.loc 1 70 3 view .LVU646
 1284              		.loc 1 71 3 view .LVU647
 1285              		.loc 1 72 3 view .LVU648
 1286              		.loc 1 75 3 view .LVU649
 1287              		.loc 1 79 3 view .LVU650
 1288              		.loc 1 79 37 is_stmt 0 view .LVU651
 1289 01b6 870F     		lsrs	r7, r0, #30
 1290              	.LBE344:
 1291              	.LBE353:
 1292              		.loc 1 221 32 view .LVU652
 1293 01b8 8E75     		strb	r6, [r1, #22]
 1294              	.LBB354:
 1295              	.LBB355:
 1296              		.loc 1 79 37 view .LVU653
 1297 01ba C3F3C036 		ubfx	r6, r3, #15, #1
 1298              	.LBE355:
 1299              	.LBE354:
 1300              		.loc 1 223 32 view .LVU654
 1301 01be 81F82250 		strb	r5, [r1, #34]
 1302              	.LBB357:
 1303              	.LBB358:
 1304              		.loc 1 79 37 view .LVU655
 1305 01c2 C3F34035 		ubfx	r5, r3, #13, #1
 1306              	.LBE358:
ARM GAS  /tmp/ccLF7Z8f.s 			page 24


 1307              	.LBE357:
 1308              		.loc 1 218 32 view .LVU656
 1309 01c6 0F70     		strb	r7, [r1]
 1310              		.loc 1 219 3 is_stmt 1 view .LVU657
 1311              	.LVL57:
 1312              	.LBB360:
 1313              	.LBI338:
 1314              		.loc 1 61 10 view .LVU658
 1315              	.LBB340:
 1316              		.loc 1 64 3 view .LVU659
 1317              		.loc 1 65 3 view .LVU660
 1318              		.loc 1 67 3 view .LVU661
 1319              		.loc 1 67 3 view .LVU662
 1320              		.loc 1 69 3 view .LVU663
 1321              		.loc 1 70 3 view .LVU664
 1322              		.loc 1 71 3 view .LVU665
 1323              		.loc 1 72 3 view .LVU666
 1324              		.loc 1 75 3 view .LVU667
 1325              		.loc 1 79 3 view .LVU668
 1326              		.loc 1 79 3 is_stmt 0 view .LVU669
 1327              	.LBE340:
 1328              	.LBE360:
 1329              		.loc 1 220 3 is_stmt 1 view .LVU670
 1330              	.LBB361:
 1331              	.LBI335:
 1332              		.loc 1 61 10 view .LVU671
 1333              	.LBB337:
 1334              		.loc 1 64 3 view .LVU672
 1335              		.loc 1 65 3 view .LVU673
 1336              		.loc 1 67 3 view .LVU674
 1337              		.loc 1 67 3 view .LVU675
 1338              		.loc 1 69 3 view .LVU676
 1339              		.loc 1 70 3 view .LVU677
 1340              		.loc 1 71 3 view .LVU678
 1341              		.loc 1 72 3 view .LVU679
 1342              		.loc 1 75 3 view .LVU680
 1343              		.loc 1 79 3 view .LVU681
 1344              		.loc 1 79 3 is_stmt 0 view .LVU682
 1345              	.LBE337:
 1346              	.LBE361:
 1347              		.loc 1 221 3 is_stmt 1 view .LVU683
 1348              	.LBB362:
 1349              	.LBI345:
 1350              		.loc 1 61 10 view .LVU684
 1351              	.LBB347:
 1352              		.loc 1 64 3 view .LVU685
 1353              		.loc 1 65 3 view .LVU686
 1354              		.loc 1 67 3 view .LVU687
 1355              		.loc 1 67 3 view .LVU688
 1356              		.loc 1 69 3 view .LVU689
 1357              		.loc 1 70 3 view .LVU690
 1358              		.loc 1 71 3 view .LVU691
 1359              		.loc 1 72 3 view .LVU692
 1360              		.loc 1 75 3 view .LVU693
 1361              		.loc 1 79 3 view .LVU694
 1362              		.loc 1 79 3 is_stmt 0 view .LVU695
 1363              	.LBE347:
ARM GAS  /tmp/ccLF7Z8f.s 			page 25


 1364              	.LBE362:
 1365              		.loc 1 222 3 is_stmt 1 view .LVU696
 1366              	.LBB363:
 1367              	.LBI363:
 1368              		.loc 1 61 10 view .LVU697
 1369              	.LBB364:
 1370              		.loc 1 64 3 view .LVU698
 1371              		.loc 1 65 3 view .LVU699
 1372              		.loc 1 67 3 view .LVU700
 1373              		.loc 1 67 3 view .LVU701
 1374              		.loc 1 69 3 view .LVU702
 1375              		.loc 1 70 3 view .LVU703
 1376              		.loc 1 71 3 view .LVU704
 1377              		.loc 1 72 3 view .LVU705
 1378              		.loc 1 75 3 view .LVU706
 1379              		.loc 1 79 3 view .LVU707
 1380              		.loc 1 79 37 is_stmt 0 view .LVU708
 1381 01c8 C2F38427 		ubfx	r7, r2, #10, #5
 1382              	.LBE364:
 1383              	.LBE363:
 1384              		.loc 1 224 32 view .LVU709
 1385 01cc 8E77     		strb	r6, [r1, #30]
 1386              	.LBB365:
 1387              	.LBB366:
 1388              		.loc 1 79 37 view .LVU710
 1389 01ce C3F38266 		ubfx	r6, r3, #26, #3
 1390              	.LBE366:
 1391              	.LBE365:
 1392              		.loc 1 226 32 view .LVU711
 1393 01d2 81F82050 		strb	r5, [r1, #32]
 1394              	.LBB368:
 1395              	.LBB369:
 1396              		.loc 1 79 37 view .LVU712
 1397 01d6 C4F3C035 		ubfx	r5, r4, #15, #1
 1398              	.LBE369:
 1399              	.LBE368:
 1400              		.loc 1 234 32 view .LVU713
 1401 01da 0871     		strb	r0, [r1, #4]
 1402              		.loc 1 222 32 view .LVU714
 1403 01dc 4F75     		strb	r7, [r1, #21]
 1404              		.loc 1 223 3 is_stmt 1 view .LVU715
 1405              	.LVL58:
 1406              	.LBB371:
 1407              	.LBI348:
 1408              		.loc 1 61 10 view .LVU716
 1409              	.LBB350:
 1410              		.loc 1 64 3 view .LVU717
 1411              		.loc 1 65 3 view .LVU718
 1412              		.loc 1 67 3 view .LVU719
 1413              		.loc 1 67 3 view .LVU720
 1414              		.loc 1 69 3 view .LVU721
 1415              		.loc 1 70 3 view .LVU722
 1416              		.loc 1 71 3 view .LVU723
 1417              		.loc 1 72 3 view .LVU724
 1418              		.loc 1 75 3 view .LVU725
 1419              		.loc 1 79 3 view .LVU726
 1420              		.loc 1 79 3 is_stmt 0 view .LVU727
ARM GAS  /tmp/ccLF7Z8f.s 			page 26


 1421              	.LBE350:
 1422              	.LBE371:
 1423              		.loc 1 224 3 is_stmt 1 view .LVU728
 1424              	.LBB372:
 1425              	.LBI354:
 1426              		.loc 1 61 10 view .LVU729
 1427              	.LBB356:
 1428              		.loc 1 64 3 view .LVU730
 1429              		.loc 1 65 3 view .LVU731
 1430              		.loc 1 67 3 view .LVU732
 1431              		.loc 1 67 3 view .LVU733
 1432              		.loc 1 69 3 view .LVU734
 1433              		.loc 1 70 3 view .LVU735
 1434              		.loc 1 71 3 view .LVU736
 1435              		.loc 1 72 3 view .LVU737
 1436              		.loc 1 75 3 view .LVU738
 1437              		.loc 1 79 3 view .LVU739
 1438              		.loc 1 79 3 is_stmt 0 view .LVU740
 1439              	.LBE356:
 1440              	.LBE372:
 1441              		.loc 1 225 3 is_stmt 1 view .LVU741
 1442              		.loc 1 64 3 view .LVU742
 1443              		.loc 1 65 3 view .LVU743
 1444              		.loc 1 67 3 view .LVU744
 1445              		.loc 1 67 3 view .LVU745
 1446              		.loc 1 69 3 view .LVU746
 1447              		.loc 1 70 3 view .LVU747
 1448              		.loc 1 71 3 view .LVU748
 1449              		.loc 1 72 3 view .LVU749
 1450              		.loc 1 75 3 view .LVU750
 1451              		.loc 1 79 3 view .LVU751
 1452              		.loc 1 225 32 is_stmt 0 view .LVU752
 1453 01de 070A     		lsrs	r7, r0, #8
 1454              		.loc 1 227 32 view .LVU753
 1455 01e0 8E76     		strb	r6, [r1, #26]
 1456              	.LBB373:
 1457              	.LBB374:
 1458              		.loc 1 79 37 view .LVU754
 1459 01e2 C4F34036 		ubfx	r6, r4, #13, #1
 1460              	.LBE374:
 1461              	.LBE373:
 1462              		.loc 1 229 32 view .LVU755
 1463 01e6 4D72     		strb	r5, [r1, #9]
 1464              	.LBB376:
 1465              	.LBB377:
 1466              		.loc 1 79 37 view .LVU756
 1467 01e8 C0F38365 		ubfx	r5, r0, #26, #4
 1468              	.LBE377:
 1469              	.LBE376:
 1470              		.loc 1 232 32 view .LVU757
 1471 01ec 000C     		lsrs	r0, r0, #16
 1472              		.loc 1 225 32 view .LVU758
 1473 01ee CF70     		strb	r7, [r1, #3]
 1474              		.loc 1 226 3 is_stmt 1 view .LVU759
 1475              	.LVL59:
 1476              	.LBB379:
 1477              	.LBI357:
ARM GAS  /tmp/ccLF7Z8f.s 			page 27


 1478              		.loc 1 61 10 view .LVU760
 1479              	.LBB359:
 1480              		.loc 1 64 3 view .LVU761
 1481              		.loc 1 65 3 view .LVU762
 1482              		.loc 1 67 3 view .LVU763
 1483              		.loc 1 67 3 view .LVU764
 1484              		.loc 1 69 3 view .LVU765
 1485              		.loc 1 70 3 view .LVU766
 1486              		.loc 1 71 3 view .LVU767
 1487              		.loc 1 72 3 view .LVU768
 1488              		.loc 1 75 3 view .LVU769
 1489              		.loc 1 79 3 view .LVU770
 1490              		.loc 1 79 3 is_stmt 0 view .LVU771
 1491              	.LBE359:
 1492              	.LBE379:
 1493              		.loc 1 227 3 is_stmt 1 view .LVU772
 1494              	.LBB380:
 1495              	.LBI365:
 1496              		.loc 1 61 10 view .LVU773
 1497              	.LBB367:
 1498              		.loc 1 64 3 view .LVU774
 1499              		.loc 1 65 3 view .LVU775
 1500              		.loc 1 67 3 view .LVU776
 1501              		.loc 1 67 3 view .LVU777
 1502              		.loc 1 69 3 view .LVU778
 1503              		.loc 1 70 3 view .LVU779
 1504              		.loc 1 71 3 view .LVU780
 1505              		.loc 1 72 3 view .LVU781
 1506              		.loc 1 75 3 view .LVU782
 1507              		.loc 1 79 3 view .LVU783
 1508              		.loc 1 79 3 is_stmt 0 view .LVU784
 1509              	.LBE367:
 1510              	.LBE380:
 1511              		.loc 1 228 3 is_stmt 1 view .LVU785
 1512              	.LBB381:
 1513              	.LBI381:
 1514              		.loc 1 61 10 view .LVU786
 1515              	.LBB382:
 1516              		.loc 1 64 3 view .LVU787
 1517              		.loc 1 65 3 view .LVU788
 1518              		.loc 1 67 3 view .LVU789
 1519              		.loc 1 67 3 view .LVU790
 1520              		.loc 1 69 3 view .LVU791
 1521              		.loc 1 70 3 view .LVU792
 1522              		.loc 1 71 3 view .LVU793
 1523              		.loc 1 72 3 view .LVU794
 1524              		.loc 1 75 3 view .LVU795
 1525              		.loc 1 79 3 view .LVU796
 1526              		.loc 1 79 3 is_stmt 0 view .LVU797
 1527              	.LBE382:
 1528              	.LBE381:
 1529              		.loc 1 230 32 view .LVU798
 1530 01f0 CE72     		strb	r6, [r1, #11]
 1531              	.LBB384:
 1532              	.LBB383:
 1533              		.loc 1 79 37 view .LVU799
 1534 01f2 C4F30347 		ubfx	r7, r4, #16, #4
ARM GAS  /tmp/ccLF7Z8f.s 			page 28


 1535              	.LBE383:
 1536              	.LBE384:
 1537              	.LBB385:
 1538              	.LBB386:
 1539 01f6 C2F30266 		ubfx	r6, r2, #24, #3
 1540              	.LBE386:
 1541              	.LBE385:
 1542              		.loc 1 231 32 view .LVU800
 1543 01fa 4D70     		strb	r5, [r1, #1]
 1544              		.loc 1 232 32 view .LVU801
 1545 01fc 8870     		strb	r0, [r1, #2]
 1546              	.LBB388:
 1547              	.LBB389:
 1548              		.loc 1 79 37 view .LVU802
 1549 01fe C2F3C265 		ubfx	r5, r2, #27, #3
 1550              	.LBE389:
 1551              	.LBE388:
 1552              	.LBB391:
 1553              	.LBB392:
 1554 0202 C2F38240 		ubfx	r0, r2, #18, #3
 1555              	.LBE392:
 1556              	.LBE391:
 1557              	.LBB394:
 1558              	.LBB395:
 1559 0206 C4F38034 		ubfx	r4, r4, #14, #1
 1560              	.LBE395:
 1561              	.LBE394:
 1562              		.loc 1 228 32 view .LVU803
 1563 020a 0F72     		strb	r7, [r1, #8]
 1564              		.loc 1 229 3 is_stmt 1 view .LVU804
 1565              	.LVL60:
 1566              	.LBB397:
 1567              	.LBI368:
 1568              		.loc 1 61 10 view .LVU805
 1569              	.LBB370:
 1570              		.loc 1 64 3 view .LVU806
 1571              		.loc 1 65 3 view .LVU807
 1572              		.loc 1 67 3 view .LVU808
 1573              		.loc 1 67 3 view .LVU809
 1574              		.loc 1 69 3 view .LVU810
 1575              		.loc 1 70 3 view .LVU811
 1576              		.loc 1 71 3 view .LVU812
 1577              		.loc 1 72 3 view .LVU813
 1578              		.loc 1 75 3 view .LVU814
 1579              		.loc 1 79 3 view .LVU815
 1580              		.loc 1 79 3 is_stmt 0 view .LVU816
 1581              	.LBE370:
 1582              	.LBE397:
 1583              		.loc 1 230 3 is_stmt 1 view .LVU817
 1584              	.LBB398:
 1585              	.LBI373:
 1586              		.loc 1 61 10 view .LVU818
 1587              	.LBB375:
 1588              		.loc 1 64 3 view .LVU819
 1589              		.loc 1 65 3 view .LVU820
 1590              		.loc 1 67 3 view .LVU821
 1591              		.loc 1 67 3 view .LVU822
ARM GAS  /tmp/ccLF7Z8f.s 			page 29


 1592              		.loc 1 69 3 view .LVU823
 1593              		.loc 1 70 3 view .LVU824
 1594              		.loc 1 71 3 view .LVU825
 1595              		.loc 1 72 3 view .LVU826
 1596              		.loc 1 75 3 view .LVU827
 1597              		.loc 1 79 3 view .LVU828
 1598              		.loc 1 79 3 is_stmt 0 view .LVU829
 1599              	.LBE375:
 1600              	.LBE398:
 1601              		.loc 1 231 3 is_stmt 1 view .LVU830
 1602              	.LBB399:
 1603              	.LBI376:
 1604              		.loc 1 61 10 view .LVU831
 1605              	.LBB378:
 1606              		.loc 1 64 3 view .LVU832
 1607              		.loc 1 65 3 view .LVU833
 1608              		.loc 1 67 3 view .LVU834
 1609              		.loc 1 67 3 view .LVU835
 1610              		.loc 1 69 3 view .LVU836
 1611              		.loc 1 70 3 view .LVU837
 1612              		.loc 1 71 3 view .LVU838
 1613              		.loc 1 72 3 view .LVU839
 1614              		.loc 1 75 3 view .LVU840
 1615              		.loc 1 79 3 view .LVU841
 1616              		.loc 1 79 3 is_stmt 0 view .LVU842
 1617              	.LBE378:
 1618              	.LBE399:
 1619              		.loc 1 232 3 is_stmt 1 view .LVU843
 1620              		.loc 1 64 3 view .LVU844
 1621              		.loc 1 65 3 view .LVU845
 1622              		.loc 1 67 3 view .LVU846
 1623              		.loc 1 67 3 view .LVU847
 1624              		.loc 1 69 3 view .LVU848
 1625              		.loc 1 70 3 view .LVU849
 1626              		.loc 1 71 3 view .LVU850
 1627              		.loc 1 72 3 view .LVU851
 1628              		.loc 1 75 3 view .LVU852
 1629              		.loc 1 79 3 view .LVU853
 1630              		.loc 1 233 3 view .LVU854
 1631              	.LBB400:
 1632              	.LBI400:
 1633              		.loc 1 61 10 view .LVU855
 1634              	.LBB401:
 1635              		.loc 1 64 3 view .LVU856
 1636              		.loc 1 65 3 view .LVU857
 1637              		.loc 1 67 3 view .LVU858
 1638              		.loc 1 67 3 view .LVU859
 1639              		.loc 1 69 3 view .LVU860
 1640              		.loc 1 70 3 view .LVU861
 1641              		.loc 1 71 3 view .LVU862
 1642              		.loc 1 72 3 view .LVU863
 1643              		.loc 1 75 3 view .LVU864
 1644              		.loc 1 79 3 view .LVU865
 1645              		.loc 1 79 37 is_stmt 0 view .LVU866
 1646 020c C3F30037 		ubfx	r7, r3, #12, #1
 1647              	.LBE401:
 1648              	.LBE400:
ARM GAS  /tmp/ccLF7Z8f.s 			page 30


 1649              		.loc 1 235 32 view .LVU867
 1650 0210 4E74     		strb	r6, [r1, #17]
 1651              	.LBB402:
 1652              	.LBB403:
 1653              		.loc 1 79 37 view .LVU868
 1654 0212 C2F34256 		ubfx	r6, r2, #21, #3
 1655              	.LBE403:
 1656              	.LBE402:
 1657              		.loc 1 236 32 view .LVU869
 1658 0216 0D74     		strb	r5, [r1, #16]
 1659              	.LBB405:
 1660              	.LBB406:
 1661              		.loc 1 79 26 view .LVU870
 1662 0218 02F01F02 		and	r2, r2, #31
 1663              	.LBE406:
 1664              	.LBE405:
 1665              	.LBB408:
 1666              	.LBB409:
 1667              		.loc 1 79 37 view .LVU871
 1668 021c DD0F     		lsrs	r5, r3, #31
 1669              	.LBE409:
 1670              	.LBE408:
 1671              		.loc 1 237 32 view .LVU872
 1672 021e C874     		strb	r0, [r1, #19]
 1673              	.LBB411:
 1674              	.LBB412:
 1675              		.loc 1 79 37 view .LVU873
 1676 0220 C3F38350 		ubfx	r0, r3, #22, #4
 1677              	.LBE412:
 1678              	.LBE411:
 1679              	.LBB414:
 1680              	.LBB415:
 1681 0224 C3F34053 		ubfx	r3, r3, #21, #1
 1682              	.LBE415:
 1683              	.LBE414:
 1684              		.loc 1 233 32 view .LVU874
 1685 0228 81F82170 		strb	r7, [r1, #33]
 1686              		.loc 1 234 3 is_stmt 1 view .LVU875
 1687              	.LVL61:
 1688              		.loc 1 64 3 view .LVU876
 1689              		.loc 1 65 3 view .LVU877
 1690              		.loc 1 67 3 view .LVU878
 1691              		.loc 1 67 3 view .LVU879
 1692              		.loc 1 69 3 view .LVU880
 1693              		.loc 1 70 3 view .LVU881
 1694              		.loc 1 71 3 view .LVU882
 1695              		.loc 1 72 3 view .LVU883
 1696              		.loc 1 75 3 view .LVU884
 1697              		.loc 1 79 3 view .LVU885
 1698              		.loc 1 235 3 view .LVU886
 1699              	.LBB417:
 1700              	.LBI385:
 1701              		.loc 1 61 10 view .LVU887
 1702              	.LBB387:
 1703              		.loc 1 64 3 view .LVU888
 1704              		.loc 1 65 3 view .LVU889
 1705              		.loc 1 67 3 view .LVU890
ARM GAS  /tmp/ccLF7Z8f.s 			page 31


 1706              		.loc 1 67 3 view .LVU891
 1707              		.loc 1 69 3 view .LVU892
 1708              		.loc 1 70 3 view .LVU893
 1709              		.loc 1 71 3 view .LVU894
 1710              		.loc 1 72 3 view .LVU895
 1711              		.loc 1 75 3 view .LVU896
 1712              		.loc 1 79 3 view .LVU897
 1713              		.loc 1 79 3 is_stmt 0 view .LVU898
 1714              	.LBE387:
 1715              	.LBE417:
 1716              		.loc 1 236 3 is_stmt 1 view .LVU899
 1717              	.LBB418:
 1718              	.LBI388:
 1719              		.loc 1 61 10 view .LVU900
 1720              	.LBB390:
 1721              		.loc 1 64 3 view .LVU901
 1722              		.loc 1 65 3 view .LVU902
 1723              		.loc 1 67 3 view .LVU903
 1724              		.loc 1 67 3 view .LVU904
 1725              		.loc 1 69 3 view .LVU905
 1726              		.loc 1 70 3 view .LVU906
 1727              		.loc 1 71 3 view .LVU907
 1728              		.loc 1 72 3 view .LVU908
 1729              		.loc 1 75 3 view .LVU909
 1730              		.loc 1 79 3 view .LVU910
 1731              		.loc 1 79 3 is_stmt 0 view .LVU911
 1732              	.LBE390:
 1733              	.LBE418:
 1734              		.loc 1 237 3 is_stmt 1 view .LVU912
 1735              	.LBB419:
 1736              	.LBI391:
 1737              		.loc 1 61 10 view .LVU913
 1738              	.LBB393:
 1739              		.loc 1 64 3 view .LVU914
 1740              		.loc 1 65 3 view .LVU915
 1741              		.loc 1 67 3 view .LVU916
 1742              		.loc 1 67 3 view .LVU917
 1743              		.loc 1 69 3 view .LVU918
 1744              		.loc 1 70 3 view .LVU919
 1745              		.loc 1 71 3 view .LVU920
 1746              		.loc 1 72 3 view .LVU921
 1747              		.loc 1 75 3 view .LVU922
 1748              		.loc 1 79 3 view .LVU923
 1749              		.loc 1 79 3 is_stmt 0 view .LVU924
 1750              	.LBE393:
 1751              	.LBE419:
 1752              		.loc 1 238 3 is_stmt 1 view .LVU925
 1753              	.LBB420:
 1754              	.LBI402:
 1755              		.loc 1 61 10 view .LVU926
 1756              	.LBB404:
 1757              		.loc 1 64 3 view .LVU927
 1758              		.loc 1 65 3 view .LVU928
 1759              		.loc 1 67 3 view .LVU929
 1760              		.loc 1 67 3 view .LVU930
 1761              		.loc 1 69 3 view .LVU931
 1762              		.loc 1 70 3 view .LVU932
ARM GAS  /tmp/ccLF7Z8f.s 			page 32


 1763              		.loc 1 71 3 view .LVU933
 1764              		.loc 1 72 3 view .LVU934
 1765              		.loc 1 75 3 view .LVU935
 1766              		.loc 1 79 3 view .LVU936
 1767              		.loc 1 79 3 is_stmt 0 view .LVU937
 1768              	.LBE404:
 1769              	.LBE420:
 1770              		.loc 1 238 32 view .LVU938
 1771 022c 8E74     		strb	r6, [r1, #18]
 1772              		.loc 1 239 3 is_stmt 1 view .LVU939
 1773              	.LVL62:
 1774              	.LBB421:
 1775              	.LBI408:
 1776              		.loc 1 61 10 view .LVU940
 1777              	.LBB410:
 1778              		.loc 1 64 3 view .LVU941
 1779              		.loc 1 65 3 view .LVU942
 1780              		.loc 1 67 3 view .LVU943
 1781              		.loc 1 67 3 view .LVU944
 1782              		.loc 1 69 3 view .LVU945
 1783              		.loc 1 70 3 view .LVU946
 1784              		.loc 1 71 3 view .LVU947
 1785              		.loc 1 72 3 view .LVU948
 1786              		.loc 1 75 3 view .LVU949
 1787              		.loc 1 79 3 view .LVU950
 1788              		.loc 1 79 3 is_stmt 0 view .LVU951
 1789              	.LBE410:
 1790              	.LBE421:
 1791              		.loc 1 240 32 view .LVU952
 1792 022e CA75     		strb	r2, [r1, #23]
 1793              		.loc 1 239 32 view .LVU953
 1794 0230 0D76     		strb	r5, [r1, #24]
 1795              		.loc 1 240 3 is_stmt 1 view .LVU954
 1796              	.LVL63:
 1797              	.LBB422:
 1798              	.LBI405:
 1799              		.loc 1 61 10 view .LVU955
 1800              	.LBB407:
 1801              		.loc 1 64 3 view .LVU956
 1802              		.loc 1 65 3 view .LVU957
 1803              		.loc 1 67 3 view .LVU958
 1804              		.loc 1 67 3 view .LVU959
 1805              		.loc 1 69 3 view .LVU960
 1806              		.loc 1 70 3 view .LVU961
 1807              		.loc 1 71 3 view .LVU962
 1808              		.loc 1 72 3 view .LVU963
 1809              		.loc 1 75 3 view .LVU964
 1810              		.loc 1 79 3 view .LVU965
 1811              		.loc 1 79 3 is_stmt 0 view .LVU966
 1812              	.LBE407:
 1813              	.LBE422:
 1814              		.loc 1 241 3 is_stmt 1 view .LVU967
 1815              	.LBB423:
 1816              	.LBI411:
 1817              		.loc 1 61 10 view .LVU968
 1818              	.LBB413:
 1819              		.loc 1 64 3 view .LVU969
ARM GAS  /tmp/ccLF7Z8f.s 			page 33


 1820              		.loc 1 65 3 view .LVU970
 1821              		.loc 1 67 3 view .LVU971
 1822              		.loc 1 67 3 view .LVU972
 1823              		.loc 1 69 3 view .LVU973
 1824              		.loc 1 70 3 view .LVU974
 1825              		.loc 1 71 3 view .LVU975
 1826              		.loc 1 72 3 view .LVU976
 1827              		.loc 1 75 3 view .LVU977
 1828              		.loc 1 79 3 view .LVU978
 1829              		.loc 1 79 3 is_stmt 0 view .LVU979
 1830              	.LBE413:
 1831              	.LBE423:
 1832              		.loc 1 243 32 view .LVU980
 1833 0232 8C72     		strb	r4, [r1, #10]
 1834              		.loc 1 241 32 view .LVU981
 1835 0234 C876     		strb	r0, [r1, #27]
 1836              		.loc 1 242 3 is_stmt 1 view .LVU982
 1837              	.LVL64:
 1838              	.LBB424:
 1839              	.LBI414:
 1840              		.loc 1 61 10 view .LVU983
 1841              	.LBB416:
 1842              		.loc 1 64 3 view .LVU984
 1843              		.loc 1 65 3 view .LVU985
 1844              		.loc 1 67 3 view .LVU986
 1845              		.loc 1 67 3 view .LVU987
 1846              		.loc 1 69 3 view .LVU988
 1847              		.loc 1 70 3 view .LVU989
 1848              		.loc 1 71 3 view .LVU990
 1849              		.loc 1 72 3 view .LVU991
 1850              		.loc 1 75 3 view .LVU992
 1851              		.loc 1 79 3 view .LVU993
 1852              		.loc 1 79 3 is_stmt 0 view .LVU994
 1853              	.LBE416:
 1854              	.LBE424:
 1855              		.loc 1 242 32 view .LVU995
 1856 0236 0B77     		strb	r3, [r1, #28]
 1857              		.loc 1 243 3 is_stmt 1 view .LVU996
 1858              	.LVL65:
 1859              	.LBB425:
 1860              	.LBI394:
 1861              		.loc 1 61 10 view .LVU997
 1862              	.LBB396:
 1863              		.loc 1 64 3 view .LVU998
 1864              		.loc 1 65 3 view .LVU999
 1865              		.loc 1 67 3 view .LVU1000
 1866              		.loc 1 67 3 view .LVU1001
 1867              		.loc 1 69 3 view .LVU1002
 1868              		.loc 1 70 3 view .LVU1003
 1869              		.loc 1 71 3 view .LVU1004
 1870              		.loc 1 72 3 view .LVU1005
 1871              		.loc 1 75 3 view .LVU1006
 1872              		.loc 1 79 3 view .LVU1007
 1873              		.loc 1 79 3 is_stmt 0 view .LVU1008
 1874              	.LBE396:
 1875              	.LBE425:
 1876              		.loc 1 244 1 view .LVU1009
ARM GAS  /tmp/ccLF7Z8f.s 			page 34


 1877 0238 F0BC     		pop	{r4, r5, r6, r7}
 1878              		.cfi_restore 7
 1879              		.cfi_restore 6
 1880              		.cfi_restore 5
 1881              		.cfi_restore 4
 1882              		.cfi_def_cfa_offset 0
 1883 023a 7047     		bx	lr
 1884              		.cfi_endproc
 1885              	.LFE367:
 1886              		.size	_mmcsd_unpack_csd_mmc, .-_mmcsd_unpack_csd_mmc
 1887              		.align	1
 1888 023c AFF30080 		.p2align 4,,15
 1889              		.global	_mmcsd_unpack_csd_v10
 1890              		.syntax unified
 1891              		.thumb
 1892              		.thumb_func
 1893              		.fpu fpv4-sp-d16
 1894              		.type	_mmcsd_unpack_csd_v10, %function
 1895              	_mmcsd_unpack_csd_v10:
 1896              	.LVL66:
 1897              	.LFB368:
 1898              		.loc 1 255 58 is_stmt 1 view -0
 1899              		.cfi_startproc
 1900              		@ args = 0, pretend = 0, frame = 0
 1901              		@ frame_needed = 0, uses_anonymous_args = 0
 1902              		@ link register save eliminated.
 1903              		.loc 1 256 3 view .LVU1011
 1904              		.loc 1 258 3 view .LVU1012
 1905              		.loc 1 258 3 view .LVU1013
 1906              		.loc 1 260 3 view .LVU1014
 1907              		.loc 1 261 3 view .LVU1015
 1908              	.LBB426:
 1909              	.LBI426:
 1910              		.loc 1 61 10 view .LVU1016
 1911              	.LBB427:
 1912              		.loc 1 64 3 view .LVU1017
 1913              		.loc 1 65 3 view .LVU1018
 1914              		.loc 1 67 3 view .LVU1019
 1915              		.loc 1 67 3 view .LVU1020
 1916              		.loc 1 69 3 view .LVU1021
 1917              		.loc 1 70 3 view .LVU1022
 1918              		.loc 1 71 3 view .LVU1023
 1919              		.loc 1 72 3 view .LVU1024
 1920              		.loc 1 75 3 view .LVU1025
 1921              		.loc 1 76 5 view .LVU1026
 1922              	.LBE427:
 1923              	.LBE426:
 1924              		.loc 1 255 58 is_stmt 0 view .LVU1027
 1925 0240 F0B4     		push	{r4, r5, r6, r7}
 1926              		.cfi_def_cfa_offset 16
 1927              		.cfi_offset 4, -16
 1928              		.cfi_offset 5, -12
 1929              		.cfi_offset 6, -8
 1930              		.cfi_offset 7, -4
 1931              	.LBB431:
 1932              	.LBB428:
 1933              		.loc 1 77 18 view .LVU1028
ARM GAS  /tmp/ccLF7Z8f.s 			page 35


 1934 0242 D0E90742 		ldrd	r4, r2, [r0, #28]
 1935              	.LVL67:
 1936              		.loc 1 77 38 view .LVU1029
 1937 0246 40F6FC75 		movw	r5, #4092
 1938              	.LBE428:
 1939              	.LBE431:
 1940              	.LBB432:
 1941              	.LBB433:
 1942              		.loc 1 79 37 view .LVU1030
 1943 024a C4F3C233 		ubfx	r3, r4, #15, #3
 1944              	.LBE433:
 1945              	.LBE432:
 1946              	.LBB435:
 1947              	.LBB429:
 1948              		.loc 1 77 38 view .LVU1031
 1949 024e 05EA8205 		and	r5, r5, r2, lsl #2
 1950              	.LBE429:
 1951              	.LBE435:
 1952              		.loc 1 262 32 view .LVU1032
 1953 0252 8B74     		strb	r3, [r1, #18]
 1954              	.LBB436:
 1955              	.LBB437:
 1956              		.loc 1 79 15 view .LVU1033
 1957 0254 8369     		ldr	r3, [r0, #24]
 1958              	.LBE437:
 1959              	.LBE436:
 1960              	.LBB440:
 1961              	.LBB430:
 1962              		.loc 1 76 41 view .LVU1034
 1963 0256 45EA9475 		orr	r5, r5, r4, lsr #30
 1964              	.LBE430:
 1965              	.LBE440:
 1966              	.LBB441:
 1967              	.LBB438:
 1968              		.loc 1 79 37 view .LVU1035
 1969 025a C3F38036 		ubfx	r6, r3, #14, #1
 1970              	.LBE438:
 1971              	.LBE441:
 1972              	.LBB442:
 1973              	.LBB443:
 1974 025e C3F34607 		ubfx	r7, r3, #1, #7
 1975              	.LBE443:
 1976              	.LBE442:
 1977              		.loc 1 261 32 view .LVU1036
 1978 0262 8D81     		strh	r5, [r1, #12]	@ movhi
 1979              		.loc 1 262 3 is_stmt 1 view .LVU1037
 1980              	.LVL68:
 1981              	.LBB445:
 1982              	.LBI432:
 1983              		.loc 1 61 10 view .LVU1038
 1984              	.LBB434:
 1985              		.loc 1 64 3 view .LVU1039
 1986              		.loc 1 65 3 view .LVU1040
 1987              		.loc 1 67 3 view .LVU1041
 1988              		.loc 1 67 3 view .LVU1042
 1989              		.loc 1 69 3 view .LVU1043
 1990              		.loc 1 70 3 view .LVU1044
ARM GAS  /tmp/ccLF7Z8f.s 			page 36


 1991              		.loc 1 71 3 view .LVU1045
 1992              		.loc 1 72 3 view .LVU1046
 1993              		.loc 1 75 3 view .LVU1047
 1994              		.loc 1 79 3 view .LVU1048
 1995              		.loc 1 79 3 is_stmt 0 view .LVU1049
 1996              	.LBE434:
 1997              	.LBE445:
 1998              		.loc 1 263 3 is_stmt 1 view .LVU1050
 1999              	.LBB446:
 2000              	.LBI446:
 2001              		.loc 1 61 10 view .LVU1051
 2002              	.LBB447:
 2003              		.loc 1 64 3 view .LVU1052
 2004              		.loc 1 65 3 view .LVU1053
 2005              		.loc 1 67 3 view .LVU1054
 2006              		.loc 1 67 3 view .LVU1055
 2007              		.loc 1 69 3 view .LVU1056
 2008              		.loc 1 70 3 view .LVU1057
 2009              		.loc 1 71 3 view .LVU1058
 2010              		.loc 1 72 3 view .LVU1059
 2011              		.loc 1 75 3 view .LVU1060
 2012              		.loc 1 79 3 view .LVU1061
 2013              		.loc 1 79 3 is_stmt 0 view .LVU1062
 2014              	.LBE447:
 2015              	.LBE446:
 2016              		.loc 1 264 32 view .LVU1063
 2017 0264 CE76     		strb	r6, [r1, #27]
 2018 0266 1E0B     		lsrs	r6, r3, #12
 2019              		.loc 1 265 32 view .LVU1064
 2020 0268 CF77     		strb	r7, [r1, #31]
 2021              	.LBB449:
 2022              	.LBB448:
 2023              		.loc 1 79 37 view .LVU1065
 2024 026a 170D     		lsrs	r7, r2, #20
 2025 026c 858C     		ldrh	r5, [r0, #36]
 2026              	.LBE448:
 2027              	.LBE449:
 2028              	.LBB450:
 2029              	.LBB451:
 2030              		.loc 1 79 15 view .LVU1066
 2031 026e 406A     		ldr	r0, [r0, #36]
 2032              	.LVL69:
 2033              		.loc 1 79 15 view .LVU1067
 2034 0270 6DBA     		rev16	r5, r5
 2035              	.LBE451:
 2036              	.LBE450:
 2037              		.loc 1 263 32 view .LVU1068
 2038 0272 8F80     		strh	r7, [r1, #4]	@ movhi
 2039              		.loc 1 264 3 is_stmt 1 view .LVU1069
 2040              	.LVL70:
 2041              	.LBB453:
 2042              	.LBI436:
 2043              		.loc 1 61 10 view .LVU1070
 2044              	.LBB439:
 2045              		.loc 1 64 3 view .LVU1071
 2046              		.loc 1 65 3 view .LVU1072
 2047              		.loc 1 67 3 view .LVU1073
ARM GAS  /tmp/ccLF7Z8f.s 			page 37


 2048              		.loc 1 67 3 view .LVU1074
 2049              		.loc 1 69 3 view .LVU1075
 2050              		.loc 1 70 3 view .LVU1076
 2051              		.loc 1 71 3 view .LVU1077
 2052              		.loc 1 72 3 view .LVU1078
 2053              		.loc 1 75 3 view .LVU1079
 2054              		.loc 1 79 3 view .LVU1080
 2055              		.loc 1 79 3 is_stmt 0 view .LVU1081
 2056              	.LBE439:
 2057              	.LBE453:
 2058              		.loc 1 265 3 is_stmt 1 view .LVU1082
 2059              	.LBB454:
 2060              	.LBI442:
 2061              		.loc 1 61 10 view .LVU1083
 2062              	.LBB444:
 2063              		.loc 1 64 3 view .LVU1084
 2064              		.loc 1 65 3 view .LVU1085
 2065              		.loc 1 67 3 view .LVU1086
 2066              		.loc 1 67 3 view .LVU1087
 2067              		.loc 1 69 3 view .LVU1088
 2068              		.loc 1 70 3 view .LVU1089
 2069              		.loc 1 71 3 view .LVU1090
 2070              		.loc 1 72 3 view .LVU1091
 2071              		.loc 1 75 3 view .LVU1092
 2072              		.loc 1 79 3 view .LVU1093
 2073              		.loc 1 79 3 is_stmt 0 view .LVU1094
 2074              	.LBE444:
 2075              	.LBE454:
 2076              		.loc 1 266 3 is_stmt 1 view .LVU1095
 2077              	.LBB455:
 2078              	.LBI450:
 2079              		.loc 1 61 10 view .LVU1096
 2080              	.LBB452:
 2081              		.loc 1 64 3 view .LVU1097
 2082              		.loc 1 65 3 view .LVU1098
 2083              		.loc 1 67 3 view .LVU1099
 2084              		.loc 1 67 3 view .LVU1100
 2085              		.loc 1 69 3 view .LVU1101
 2086              		.loc 1 70 3 view .LVU1102
 2087              		.loc 1 71 3 view .LVU1103
 2088              		.loc 1 72 3 view .LVU1104
 2089              		.loc 1 75 3 view .LVU1105
 2090              		.loc 1 79 3 view .LVU1106
 2091              		.loc 1 79 37 is_stmt 0 view .LVU1107
 2092 0274 4FEA907C 		lsr	ip, r0, #30
 2093              	.LBE452:
 2094              	.LBE455:
 2095              	.LBB456:
 2096              	.LBB457:
 2097 0278 C2F30037 		ubfx	r7, r2, #12, #1
 2098              	.LBE457:
 2099              	.LBE456:
 2100              		.loc 1 278 32 view .LVU1108
 2101 027c 000C     		lsrs	r0, r0, #16
 2102              		.loc 1 272 30 view .LVU1109
 2103 027e 4D80     		strh	r5, [r1, #2]	@ movhi
 2104              	.LBB459:
ARM GAS  /tmp/ccLF7Z8f.s 			page 38


 2105              	.LBB460:
 2106              		.loc 1 79 37 view .LVU1110
 2107 0280 C4F38035 		ubfx	r5, r4, #14, #1
 2108              	.LBE460:
 2109              	.LBE459:
 2110              		.loc 1 283 32 view .LVU1111
 2111 0284 0E76     		strb	r6, [r1, #24]
 2112              		.loc 1 278 32 view .LVU1112
 2113 0286 4870     		strb	r0, [r1, #1]
 2114              	.LBB462:
 2115              	.LBB463:
 2116              		.loc 1 79 37 view .LVU1113
 2117 0288 C4F3C610 		ubfx	r0, r4, #7, #7
 2118              	.LBE463:
 2119              	.LBE462:
 2120              	.LBB465:
 2121              	.LBB466:
 2122              		.loc 1 79 26 view .LVU1114
 2123 028c 04F07F04 		and	r4, r4, #127
 2124              	.LBE466:
 2125              	.LBE465:
 2126              		.loc 1 268 32 view .LVU1115
 2127 0290 CD74     		strb	r5, [r1, #19]
 2128              		.loc 1 269 32 view .LVU1116
 2129 0292 0875     		strb	r0, [r1, #20]
 2130              	.LBB468:
 2131              	.LBB469:
 2132              		.loc 1 79 37 view .LVU1117
 2133 0294 C3F3C030 		ubfx	r0, r3, #15, #1
 2134              	.LBE469:
 2135              	.LBE468:
 2136              	.LBB471:
 2137              	.LBB472:
 2138 0298 C3F34035 		ubfx	r5, r3, #13, #1
 2139              	.LBE472:
 2140              	.LBE471:
 2141              		.loc 1 282 32 view .LVU1118
 2142 029c 4C75     		strb	r4, [r1, #21]
 2143              		.loc 1 271 32 view .LVU1119
 2144 029e 8876     		strb	r0, [r1, #26]
 2145              	.LBB474:
 2146              	.LBB475:
 2147              		.loc 1 79 37 view .LVU1120
 2148 02a0 C3F38264 		ubfx	r4, r3, #26, #3
 2149              	.LBE475:
 2150              	.LBE474:
 2151              	.LBB477:
 2152              	.LBB478:
 2153 02a4 C2F30340 		ubfx	r0, r2, #16, #4
 2154              	.LBE478:
 2155              	.LBE477:
 2156              	.LBB480:
 2157              	.LBB481:
 2158 02a8 06F00106 		and	r6, r6, #1
 2159              	.LBE481:
 2160              	.LBE480:
 2161              		.loc 1 267 32 view .LVU1121
ARM GAS  /tmp/ccLF7Z8f.s 			page 39


 2162 02ac 8F72     		strb	r7, [r1, #10]
 2163              	.LBB483:
 2164              	.LBB484:
 2165              		.loc 1 79 37 view .LVU1122
 2166 02ae C3F38127 		ubfx	r7, r3, #10, #2
 2167              	.LBE484:
 2168              	.LBE483:
 2169              		.loc 1 273 32 view .LVU1123
 2170 02b2 0D77     		strb	r5, [r1, #28]
 2171              	.LBB486:
 2172              	.LBB487:
 2173              		.loc 1 79 37 view .LVU1124
 2174 02b4 C2F3C035 		ubfx	r5, r2, #15, #1
 2175              	.LBE487:
 2176              	.LBE486:
 2177              		.loc 1 274 32 view .LVU1125
 2178 02b8 CC75     		strb	r4, [r1, #23]
 2179              	.LBB489:
 2180              	.LBB490:
 2181              		.loc 1 79 37 view .LVU1126
 2182 02ba C2F34034 		ubfx	r4, r2, #13, #1
 2183              	.LBE490:
 2184              	.LBE489:
 2185              		.loc 1 275 32 view .LVU1127
 2186 02be 8871     		strb	r0, [r1, #6]
 2187              	.LBB492:
 2188              	.LBB493:
 2189              		.loc 1 79 37 view .LVU1128
 2190 02c0 C2F38032 		ubfx	r2, r2, #14, #1
 2191              	.LBE493:
 2192              	.LBE492:
 2193              	.LBB495:
 2194              	.LBB496:
 2195 02c4 D80F     		lsrs	r0, r3, #31
 2196              	.LBE496:
 2197              	.LBE495:
 2198              	.LBB498:
 2199              	.LBB499:
 2200 02c6 C3F34053 		ubfx	r3, r3, #21, #1
 2201              	.LBE499:
 2202              	.LBE498:
 2203              		.loc 1 266 32 view .LVU1129
 2204 02ca 81F800C0 		strb	ip, [r1]
 2205              		.loc 1 267 3 is_stmt 1 view .LVU1130
 2206              	.LVL71:
 2207              	.LBB501:
 2208              	.LBI456:
 2209              		.loc 1 61 10 view .LVU1131
 2210              	.LBB458:
 2211              		.loc 1 64 3 view .LVU1132
 2212              		.loc 1 65 3 view .LVU1133
 2213              		.loc 1 67 3 view .LVU1134
 2214              		.loc 1 67 3 view .LVU1135
 2215              		.loc 1 69 3 view .LVU1136
 2216              		.loc 1 70 3 view .LVU1137
 2217              		.loc 1 71 3 view .LVU1138
 2218              		.loc 1 72 3 view .LVU1139
ARM GAS  /tmp/ccLF7Z8f.s 			page 40


 2219              		.loc 1 75 3 view .LVU1140
 2220              		.loc 1 79 3 view .LVU1141
 2221              		.loc 1 79 3 is_stmt 0 view .LVU1142
 2222              	.LBE458:
 2223              	.LBE501:
 2224              		.loc 1 268 3 is_stmt 1 view .LVU1143
 2225              	.LBB502:
 2226              	.LBI459:
 2227              		.loc 1 61 10 view .LVU1144
 2228              	.LBB461:
 2229              		.loc 1 64 3 view .LVU1145
 2230              		.loc 1 65 3 view .LVU1146
 2231              		.loc 1 67 3 view .LVU1147
 2232              		.loc 1 67 3 view .LVU1148
 2233              		.loc 1 69 3 view .LVU1149
 2234              		.loc 1 70 3 view .LVU1150
 2235              		.loc 1 71 3 view .LVU1151
 2236              		.loc 1 72 3 view .LVU1152
 2237              		.loc 1 75 3 view .LVU1153
 2238              		.loc 1 79 3 view .LVU1154
 2239              		.loc 1 79 3 is_stmt 0 view .LVU1155
 2240              	.LBE461:
 2241              	.LBE502:
 2242              		.loc 1 269 3 is_stmt 1 view .LVU1156
 2243              	.LBB503:
 2244              	.LBI462:
 2245              		.loc 1 61 10 view .LVU1157
 2246              	.LBB464:
 2247              		.loc 1 64 3 view .LVU1158
 2248              		.loc 1 65 3 view .LVU1159
 2249              		.loc 1 67 3 view .LVU1160
 2250              		.loc 1 67 3 view .LVU1161
 2251              		.loc 1 69 3 view .LVU1162
 2252              		.loc 1 70 3 view .LVU1163
 2253              		.loc 1 71 3 view .LVU1164
 2254              		.loc 1 72 3 view .LVU1165
 2255              		.loc 1 75 3 view .LVU1166
 2256              		.loc 1 79 3 view .LVU1167
 2257              		.loc 1 79 3 is_stmt 0 view .LVU1168
 2258              	.LBE464:
 2259              	.LBE503:
 2260              		.loc 1 270 3 is_stmt 1 view .LVU1169
 2261              	.LBB504:
 2262              	.LBI483:
 2263              		.loc 1 61 10 view .LVU1170
 2264              	.LBB485:
 2265              		.loc 1 64 3 view .LVU1171
 2266              		.loc 1 65 3 view .LVU1172
 2267              		.loc 1 67 3 view .LVU1173
 2268              		.loc 1 67 3 view .LVU1174
 2269              		.loc 1 69 3 view .LVU1175
 2270              		.loc 1 70 3 view .LVU1176
 2271              		.loc 1 71 3 view .LVU1177
 2272              		.loc 1 72 3 view .LVU1178
 2273              		.loc 1 75 3 view .LVU1179
 2274              		.loc 1 79 3 view .LVU1180
 2275              		.loc 1 79 3 is_stmt 0 view .LVU1181
ARM GAS  /tmp/ccLF7Z8f.s 			page 41


 2276              	.LBE485:
 2277              	.LBE504:
 2278              		.loc 1 270 32 view .LVU1182
 2279 02ce 8F77     		strb	r7, [r1, #30]
 2280              		.loc 1 271 3 is_stmt 1 view .LVU1183
 2281              	.LVL72:
 2282              	.LBB505:
 2283              	.LBI468:
 2284              		.loc 1 61 10 view .LVU1184
 2285              	.LBB470:
 2286              		.loc 1 64 3 view .LVU1185
 2287              		.loc 1 65 3 view .LVU1186
 2288              		.loc 1 67 3 view .LVU1187
 2289              		.loc 1 67 3 view .LVU1188
 2290              		.loc 1 69 3 view .LVU1189
 2291              		.loc 1 70 3 view .LVU1190
 2292              		.loc 1 71 3 view .LVU1191
 2293              		.loc 1 72 3 view .LVU1192
 2294              		.loc 1 75 3 view .LVU1193
 2295              		.loc 1 79 3 view .LVU1194
 2296              		.loc 1 79 3 is_stmt 0 view .LVU1195
 2297              	.LBE470:
 2298              	.LBE505:
 2299              		.loc 1 272 3 is_stmt 1 view .LVU1196
 2300              		.loc 1 64 3 view .LVU1197
 2301              		.loc 1 65 3 view .LVU1198
 2302              		.loc 1 67 3 view .LVU1199
 2303              		.loc 1 67 3 view .LVU1200
 2304              		.loc 1 69 3 view .LVU1201
 2305              		.loc 1 70 3 view .LVU1202
 2306              		.loc 1 71 3 view .LVU1203
 2307              		.loc 1 72 3 view .LVU1204
 2308              		.loc 1 75 3 view .LVU1205
 2309              		.loc 1 79 3 view .LVU1206
 2310              		.loc 1 273 3 view .LVU1207
 2311              	.LBB506:
 2312              	.LBI471:
 2313              		.loc 1 61 10 view .LVU1208
 2314              	.LBB473:
 2315              		.loc 1 64 3 view .LVU1209
 2316              		.loc 1 65 3 view .LVU1210
 2317              		.loc 1 67 3 view .LVU1211
 2318              		.loc 1 67 3 view .LVU1212
 2319              		.loc 1 69 3 view .LVU1213
 2320              		.loc 1 70 3 view .LVU1214
 2321              		.loc 1 71 3 view .LVU1215
 2322              		.loc 1 72 3 view .LVU1216
 2323              		.loc 1 75 3 view .LVU1217
 2324              		.loc 1 79 3 view .LVU1218
 2325              		.loc 1 79 3 is_stmt 0 view .LVU1219
 2326              	.LBE473:
 2327              	.LBE506:
 2328              		.loc 1 274 3 is_stmt 1 view .LVU1220
 2329              	.LBB507:
 2330              	.LBI474:
 2331              		.loc 1 61 10 view .LVU1221
 2332              	.LBB476:
ARM GAS  /tmp/ccLF7Z8f.s 			page 42


 2333              		.loc 1 64 3 view .LVU1222
 2334              		.loc 1 65 3 view .LVU1223
 2335              		.loc 1 67 3 view .LVU1224
 2336              		.loc 1 67 3 view .LVU1225
 2337              		.loc 1 69 3 view .LVU1226
 2338              		.loc 1 70 3 view .LVU1227
 2339              		.loc 1 71 3 view .LVU1228
 2340              		.loc 1 72 3 view .LVU1229
 2341              		.loc 1 75 3 view .LVU1230
 2342              		.loc 1 79 3 view .LVU1231
 2343              		.loc 1 79 3 is_stmt 0 view .LVU1232
 2344              	.LBE476:
 2345              	.LBE507:
 2346              		.loc 1 275 3 is_stmt 1 view .LVU1233
 2347              	.LBB508:
 2348              	.LBI477:
 2349              		.loc 1 61 10 view .LVU1234
 2350              	.LBB479:
 2351              		.loc 1 64 3 view .LVU1235
 2352              		.loc 1 65 3 view .LVU1236
 2353              		.loc 1 67 3 view .LVU1237
 2354              		.loc 1 67 3 view .LVU1238
 2355              		.loc 1 69 3 view .LVU1239
 2356              		.loc 1 70 3 view .LVU1240
 2357              		.loc 1 71 3 view .LVU1241
 2358              		.loc 1 72 3 view .LVU1242
 2359              		.loc 1 75 3 view .LVU1243
 2360              		.loc 1 79 3 view .LVU1244
 2361              		.loc 1 79 3 is_stmt 0 view .LVU1245
 2362              	.LBE479:
 2363              	.LBE508:
 2364              		.loc 1 276 3 is_stmt 1 view .LVU1246
 2365              	.LBB509:
 2366              	.LBI486:
 2367              		.loc 1 61 10 view .LVU1247
 2368              	.LBB488:
 2369              		.loc 1 64 3 view .LVU1248
 2370              		.loc 1 65 3 view .LVU1249
 2371              		.loc 1 67 3 view .LVU1250
 2372              		.loc 1 67 3 view .LVU1251
 2373              		.loc 1 69 3 view .LVU1252
 2374              		.loc 1 70 3 view .LVU1253
 2375              		.loc 1 71 3 view .LVU1254
 2376              		.loc 1 72 3 view .LVU1255
 2377              		.loc 1 75 3 view .LVU1256
 2378              		.loc 1 79 3 view .LVU1257
 2379              		.loc 1 79 3 is_stmt 0 view .LVU1258
 2380              	.LBE488:
 2381              	.LBE509:
 2382              		.loc 1 276 32 view .LVU1259
 2383 02d0 CD71     		strb	r5, [r1, #7]
 2384              		.loc 1 277 3 is_stmt 1 view .LVU1260
 2385              	.LVL73:
 2386              	.LBB510:
 2387              	.LBI489:
 2388              		.loc 1 61 10 view .LVU1261
 2389              	.LBB491:
ARM GAS  /tmp/ccLF7Z8f.s 			page 43


 2390              		.loc 1 64 3 view .LVU1262
 2391              		.loc 1 65 3 view .LVU1263
 2392              		.loc 1 67 3 view .LVU1264
 2393              		.loc 1 67 3 view .LVU1265
 2394              		.loc 1 69 3 view .LVU1266
 2395              		.loc 1 70 3 view .LVU1267
 2396              		.loc 1 71 3 view .LVU1268
 2397              		.loc 1 72 3 view .LVU1269
 2398              		.loc 1 75 3 view .LVU1270
 2399              		.loc 1 79 3 view .LVU1271
 2400              		.loc 1 79 3 is_stmt 0 view .LVU1272
 2401              	.LBE491:
 2402              	.LBE510:
 2403              		.loc 1 277 32 view .LVU1273
 2404 02d2 4C72     		strb	r4, [r1, #9]
 2405              		.loc 1 278 3 is_stmt 1 view .LVU1274
 2406              	.LVL74:
 2407              		.loc 1 64 3 view .LVU1275
 2408              		.loc 1 65 3 view .LVU1276
 2409              		.loc 1 67 3 view .LVU1277
 2410              		.loc 1 67 3 view .LVU1278
 2411              		.loc 1 69 3 view .LVU1279
 2412              		.loc 1 70 3 view .LVU1280
 2413              		.loc 1 71 3 view .LVU1281
 2414              		.loc 1 72 3 view .LVU1282
 2415              		.loc 1 75 3 view .LVU1283
 2416              		.loc 1 79 3 view .LVU1284
 2417              		.loc 1 279 3 view .LVU1285
 2418              	.LBB511:
 2419              	.LBI480:
 2420              		.loc 1 61 10 view .LVU1286
 2421              	.LBB482:
 2422              		.loc 1 64 3 view .LVU1287
 2423              		.loc 1 65 3 view .LVU1288
 2424              		.loc 1 67 3 view .LVU1289
 2425              		.loc 1 67 3 view .LVU1290
 2426              		.loc 1 69 3 view .LVU1291
 2427              		.loc 1 70 3 view .LVU1292
 2428              		.loc 1 71 3 view .LVU1293
 2429              		.loc 1 72 3 view .LVU1294
 2430              		.loc 1 75 3 view .LVU1295
 2431              		.loc 1 79 3 view .LVU1296
 2432              		.loc 1 79 3 is_stmt 0 view .LVU1297
 2433              	.LBE482:
 2434              	.LBE511:
 2435              		.loc 1 285 32 view .LVU1298
 2436 02d4 0A72     		strb	r2, [r1, #8]
 2437              		.loc 1 279 32 view .LVU1299
 2438 02d6 4E77     		strb	r6, [r1, #29]
 2439              		.loc 1 280 3 is_stmt 1 view .LVU1300
 2440              	.LVL75:
 2441              		.loc 1 64 3 view .LVU1301
 2442              		.loc 1 65 3 view .LVU1302
 2443              		.loc 1 67 3 view .LVU1303
 2444              		.loc 1 67 3 view .LVU1304
 2445              		.loc 1 69 3 view .LVU1305
 2446              		.loc 1 70 3 view .LVU1306
ARM GAS  /tmp/ccLF7Z8f.s 			page 44


 2447              		.loc 1 71 3 view .LVU1307
 2448              		.loc 1 72 3 view .LVU1308
 2449              		.loc 1 75 3 view .LVU1309
 2450              		.loc 1 79 3 view .LVU1310
 2451              		.loc 1 281 3 view .LVU1311
 2452              	.LBB512:
 2453              	.LBI495:
 2454              		.loc 1 61 10 view .LVU1312
 2455              	.LBB497:
 2456              		.loc 1 64 3 view .LVU1313
 2457              		.loc 1 65 3 view .LVU1314
 2458              		.loc 1 67 3 view .LVU1315
 2459              		.loc 1 67 3 view .LVU1316
 2460              		.loc 1 69 3 view .LVU1317
 2461              		.loc 1 70 3 view .LVU1318
 2462              		.loc 1 71 3 view .LVU1319
 2463              		.loc 1 72 3 view .LVU1320
 2464              		.loc 1 75 3 view .LVU1321
 2465              		.loc 1 79 3 view .LVU1322
 2466              		.loc 1 79 3 is_stmt 0 view .LVU1323
 2467              	.LBE497:
 2468              	.LBE512:
 2469              		.loc 1 281 32 view .LVU1324
 2470 02d8 8875     		strb	r0, [r1, #22]
 2471              		.loc 1 282 3 is_stmt 1 view .LVU1325
 2472              	.LVL76:
 2473              	.LBB513:
 2474              	.LBI465:
 2475              		.loc 1 61 10 view .LVU1326
 2476              	.LBB467:
 2477              		.loc 1 64 3 view .LVU1327
 2478              		.loc 1 65 3 view .LVU1328
 2479              		.loc 1 67 3 view .LVU1329
 2480              		.loc 1 67 3 view .LVU1330
 2481              		.loc 1 69 3 view .LVU1331
 2482              		.loc 1 70 3 view .LVU1332
 2483              		.loc 1 71 3 view .LVU1333
 2484              		.loc 1 72 3 view .LVU1334
 2485              		.loc 1 75 3 view .LVU1335
 2486              		.loc 1 79 3 view .LVU1336
 2487              		.loc 1 79 3 is_stmt 0 view .LVU1337
 2488              	.LBE467:
 2489              	.LBE513:
 2490              		.loc 1 283 3 is_stmt 1 view .LVU1338
 2491              	.LBB514:
 2492              	.LBI514:
 2493              		.loc 1 61 10 view .LVU1339
 2494              	.LBB515:
 2495              		.loc 1 64 3 view .LVU1340
 2496              		.loc 1 65 3 view .LVU1341
 2497              		.loc 1 67 3 view .LVU1342
 2498              		.loc 1 67 3 view .LVU1343
 2499              		.loc 1 69 3 view .LVU1344
 2500              		.loc 1 70 3 view .LVU1345
 2501              		.loc 1 71 3 view .LVU1346
 2502              		.loc 1 72 3 view .LVU1347
 2503              		.loc 1 75 3 view .LVU1348
ARM GAS  /tmp/ccLF7Z8f.s 			page 45


 2504              		.loc 1 79 3 view .LVU1349
 2505              		.loc 1 79 3 is_stmt 0 view .LVU1350
 2506              	.LBE515:
 2507              	.LBE514:
 2508              		.loc 1 284 3 is_stmt 1 view .LVU1351
 2509              	.LBB516:
 2510              	.LBI498:
 2511              		.loc 1 61 10 view .LVU1352
 2512              	.LBB500:
 2513              		.loc 1 64 3 view .LVU1353
 2514              		.loc 1 65 3 view .LVU1354
 2515              		.loc 1 67 3 view .LVU1355
 2516              		.loc 1 67 3 view .LVU1356
 2517              		.loc 1 69 3 view .LVU1357
 2518              		.loc 1 70 3 view .LVU1358
 2519              		.loc 1 71 3 view .LVU1359
 2520              		.loc 1 72 3 view .LVU1360
 2521              		.loc 1 75 3 view .LVU1361
 2522              		.loc 1 79 3 view .LVU1362
 2523              		.loc 1 79 3 is_stmt 0 view .LVU1363
 2524              	.LBE500:
 2525              	.LBE516:
 2526              		.loc 1 284 32 view .LVU1364
 2527 02da 4B76     		strb	r3, [r1, #25]
 2528              		.loc 1 285 3 is_stmt 1 view .LVU1365
 2529              	.LVL77:
 2530              	.LBB517:
 2531              	.LBI492:
 2532              		.loc 1 61 10 view .LVU1366
 2533              	.LBB494:
 2534              		.loc 1 64 3 view .LVU1367
 2535              		.loc 1 65 3 view .LVU1368
 2536              		.loc 1 67 3 view .LVU1369
 2537              		.loc 1 67 3 view .LVU1370
 2538              		.loc 1 69 3 view .LVU1371
 2539              		.loc 1 70 3 view .LVU1372
 2540              		.loc 1 71 3 view .LVU1373
 2541              		.loc 1 72 3 view .LVU1374
 2542              		.loc 1 75 3 view .LVU1375
 2543              		.loc 1 79 3 view .LVU1376
 2544              		.loc 1 79 3 is_stmt 0 view .LVU1377
 2545              	.LBE494:
 2546              	.LBE517:
 2547              		.loc 1 286 1 view .LVU1378
 2548 02dc F0BC     		pop	{r4, r5, r6, r7}
 2549              		.cfi_restore 7
 2550              		.cfi_restore 6
 2551              		.cfi_restore 5
 2552              		.cfi_restore 4
 2553              		.cfi_def_cfa_offset 0
 2554 02de 7047     		bx	lr
 2555              		.cfi_endproc
 2556              	.LFE368:
 2557              		.size	_mmcsd_unpack_csd_v10, .-_mmcsd_unpack_csd_v10
 2558              		.align	1
 2559              		.p2align 4,,15
 2560              		.global	_mmcsd_unpack_csd_v20
ARM GAS  /tmp/ccLF7Z8f.s 			page 46


 2561              		.syntax unified
 2562              		.thumb
 2563              		.thumb_func
 2564              		.fpu fpv4-sp-d16
 2565              		.type	_mmcsd_unpack_csd_v20, %function
 2566              	_mmcsd_unpack_csd_v20:
 2567              	.LVL78:
 2568              	.LFB369:
 2569              		.loc 1 297 58 is_stmt 1 view -0
 2570              		.cfi_startproc
 2571              		@ args = 0, pretend = 0, frame = 0
 2572              		@ frame_needed = 0, uses_anonymous_args = 0
 2573              		@ link register save eliminated.
 2574              		.loc 1 298 3 view .LVU1380
 2575              		.loc 1 300 3 view .LVU1381
 2576              		.loc 1 300 3 view .LVU1382
 2577              		.loc 1 302 3 view .LVU1383
 2578              		.loc 1 303 3 view .LVU1384
 2579              	.LBB518:
 2580              	.LBI518:
 2581              		.loc 1 61 10 view .LVU1385
 2582              	.LBB519:
 2583              		.loc 1 64 3 view .LVU1386
 2584              		.loc 1 65 3 view .LVU1387
 2585              		.loc 1 67 3 view .LVU1388
 2586              		.loc 1 67 3 view .LVU1389
 2587              		.loc 1 69 3 view .LVU1390
 2588              		.loc 1 70 3 view .LVU1391
 2589              		.loc 1 71 3 view .LVU1392
 2590              		.loc 1 72 3 view .LVU1393
 2591              		.loc 1 75 3 view .LVU1394
 2592              		.loc 1 76 5 view .LVU1395
 2593              		.loc 1 77 38 is_stmt 0 view .LVU1396
 2594 02e0 036A     		ldr	r3, [r0, #32]
 2595              		.loc 1 76 28 view .LVU1397
 2596 02e2 C28B     		ldrh	r2, [r0, #30]
 2597              		.loc 1 77 38 view .LVU1398
 2598 02e4 1B04     		lsls	r3, r3, #16
 2599 02e6 03F47C13 		and	r3, r3, #4128768
 2600              		.loc 1 76 41 view .LVU1399
 2601 02ea 1343     		orrs	r3, r3, r2
 2602              	.LBE519:
 2603              	.LBE518:
 2604              		.loc 1 303 30 view .LVU1400
 2605 02ec CB60     		str	r3, [r1, #12]
 2606              		.loc 1 304 3 is_stmt 1 view .LVU1401
 2607              	.LVL79:
 2608              	.LBB520:
 2609              	.LBI520:
 2610              		.loc 1 61 10 view .LVU1402
 2611              	.LBB521:
 2612              		.loc 1 64 3 view .LVU1403
 2613              		.loc 1 65 3 view .LVU1404
 2614              		.loc 1 67 3 view .LVU1405
 2615              		.loc 1 67 3 view .LVU1406
 2616              		.loc 1 69 3 view .LVU1407
 2617              		.loc 1 70 3 view .LVU1408
ARM GAS  /tmp/ccLF7Z8f.s 			page 47


 2618              		.loc 1 71 3 view .LVU1409
 2619              		.loc 1 72 3 view .LVU1410
 2620              		.loc 1 75 3 view .LVU1411
 2621              		.loc 1 79 3 view .LVU1412
 2622              		.loc 1 79 37 is_stmt 0 view .LVU1413
 2623 02ee 8369     		ldr	r3, [r0, #24]
 2624 02f0 C3F34603 		ubfx	r3, r3, #1, #7
 2625              	.LBE521:
 2626              	.LBE520:
 2627              		.loc 1 304 32 view .LVU1414
 2628 02f4 0B77     		strb	r3, [r1, #28]
 2629              		.loc 1 305 3 is_stmt 1 view .LVU1415
 2630              	.LVL80:
 2631              	.LBB522:
 2632              	.LBI522:
 2633              		.loc 1 61 10 view .LVU1416
 2634              	.LBB523:
 2635              		.loc 1 64 3 view .LVU1417
 2636              		.loc 1 65 3 view .LVU1418
 2637              		.loc 1 67 3 view .LVU1419
 2638              		.loc 1 67 3 view .LVU1420
 2639              		.loc 1 69 3 view .LVU1421
 2640              		.loc 1 70 3 view .LVU1422
 2641              		.loc 1 71 3 view .LVU1423
 2642              		.loc 1 72 3 view .LVU1424
 2643              		.loc 1 75 3 view .LVU1425
 2644              		.loc 1 79 3 view .LVU1426
 2645              		.loc 1 79 3 is_stmt 0 view .LVU1427
 2646              	.LBE523:
 2647              	.LBE522:
 2648              	.LBB526:
 2649              	.LBB527:
 2650              		.loc 1 79 37 view .LVU1428
 2651 02f6 8269     		ldr	r2, [r0, #24]
 2652              	.LBE527:
 2653              	.LBE526:
 2654              	.LBB530:
 2655              	.LBB524:
 2656 02f8 036A     		ldr	r3, [r0, #32]
 2657              	.LBE524:
 2658              	.LBE530:
 2659              		.loc 1 297 58 view .LVU1429
 2660 02fa 10B4     		push	{r4}
 2661              		.cfi_def_cfa_offset 4
 2662              		.cfi_offset 4, -4
 2663              	.LBB531:
 2664              	.LBB528:
 2665              		.loc 1 79 37 view .LVU1430
 2666 02fc C2F38034 		ubfx	r4, r2, #14, #1
 2667              	.LBE528:
 2668              	.LBE531:
 2669              	.LBB532:
 2670              	.LBB525:
 2671 0300 1A0D     		lsrs	r2, r3, #20
 2672              	.LBE525:
 2673              	.LBE532:
 2674              		.loc 1 306 32 view .LVU1431
ARM GAS  /tmp/ccLF7Z8f.s 			page 48


 2675 0302 0C76     		strb	r4, [r1, #24]
 2676              	.LBB533:
 2677              	.LBB534:
 2678              		.loc 1 79 37 view .LVU1432
 2679 0304 436A     		ldr	r3, [r0, #36]
 2680              	.LBE534:
 2681              	.LBE533:
 2682              		.loc 1 305 32 view .LVU1433
 2683 0306 8A80     		strh	r2, [r1, #4]	@ movhi
 2684              		.loc 1 306 3 is_stmt 1 view .LVU1434
 2685              	.LVL81:
 2686              	.LBB536:
 2687              	.LBI526:
 2688              		.loc 1 61 10 view .LVU1435
 2689              	.LBB529:
 2690              		.loc 1 64 3 view .LVU1436
 2691              		.loc 1 65 3 view .LVU1437
 2692              		.loc 1 67 3 view .LVU1438
 2693              		.loc 1 67 3 view .LVU1439
 2694              		.loc 1 69 3 view .LVU1440
 2695              		.loc 1 70 3 view .LVU1441
 2696              		.loc 1 71 3 view .LVU1442
 2697              		.loc 1 72 3 view .LVU1443
 2698              		.loc 1 75 3 view .LVU1444
 2699              		.loc 1 79 3 view .LVU1445
 2700              		.loc 1 79 3 is_stmt 0 view .LVU1446
 2701              	.LBE529:
 2702              	.LBE536:
 2703              		.loc 1 307 3 is_stmt 1 view .LVU1447
 2704              	.LBB537:
 2705              	.LBI533:
 2706              		.loc 1 61 10 view .LVU1448
 2707              	.LBB535:
 2708              		.loc 1 64 3 view .LVU1449
 2709              		.loc 1 65 3 view .LVU1450
 2710              		.loc 1 67 3 view .LVU1451
 2711              		.loc 1 67 3 view .LVU1452
 2712              		.loc 1 69 3 view .LVU1453
 2713              		.loc 1 70 3 view .LVU1454
 2714              		.loc 1 71 3 view .LVU1455
 2715              		.loc 1 72 3 view .LVU1456
 2716              		.loc 1 75 3 view .LVU1457
 2717              		.loc 1 79 3 view .LVU1458
 2718              		.loc 1 79 37 is_stmt 0 view .LVU1459
 2719 0308 9B0F     		lsrs	r3, r3, #30
 2720              	.LBE535:
 2721              	.LBE537:
 2722              		.loc 1 307 32 view .LVU1460
 2723 030a 0B70     		strb	r3, [r1]
 2724              		.loc 1 308 3 is_stmt 1 view .LVU1461
 2725              	.LVL82:
 2726              	.LBB538:
 2727              	.LBI538:
 2728              		.loc 1 61 10 view .LVU1462
 2729              	.LBB539:
 2730              		.loc 1 64 3 view .LVU1463
 2731              		.loc 1 65 3 view .LVU1464
ARM GAS  /tmp/ccLF7Z8f.s 			page 49


 2732              		.loc 1 67 3 view .LVU1465
 2733              		.loc 1 67 3 view .LVU1466
 2734              		.loc 1 69 3 view .LVU1467
 2735              		.loc 1 70 3 view .LVU1468
 2736              		.loc 1 71 3 view .LVU1469
 2737              		.loc 1 72 3 view .LVU1470
 2738              		.loc 1 75 3 view .LVU1471
 2739              		.loc 1 79 3 view .LVU1472
 2740              		.loc 1 79 37 is_stmt 0 view .LVU1473
 2741 030c 036A     		ldr	r3, [r0, #32]
 2742 030e C3F30033 		ubfx	r3, r3, #12, #1
 2743              	.LBE539:
 2744              	.LBE538:
 2745              		.loc 1 308 32 view .LVU1474
 2746 0312 8B72     		strb	r3, [r1, #10]
 2747              		.loc 1 309 3 is_stmt 1 view .LVU1475
 2748              	.LVL83:
 2749              	.LBB540:
 2750              	.LBI540:
 2751              		.loc 1 61 10 view .LVU1476
 2752              	.LBB541:
 2753              		.loc 1 64 3 view .LVU1477
 2754              		.loc 1 65 3 view .LVU1478
 2755              		.loc 1 67 3 view .LVU1479
 2756              		.loc 1 67 3 view .LVU1480
 2757              		.loc 1 69 3 view .LVU1481
 2758              		.loc 1 70 3 view .LVU1482
 2759              		.loc 1 71 3 view .LVU1483
 2760              		.loc 1 72 3 view .LVU1484
 2761              		.loc 1 75 3 view .LVU1485
 2762              		.loc 1 79 3 view .LVU1486
 2763              		.loc 1 79 37 is_stmt 0 view .LVU1487
 2764 0314 C369     		ldr	r3, [r0, #28]
 2765 0316 C3F38033 		ubfx	r3, r3, #14, #1
 2766              	.LBE541:
 2767              	.LBE540:
 2768              		.loc 1 309 32 view .LVU1488
 2769 031a 0B74     		strb	r3, [r1, #16]
 2770              		.loc 1 310 3 is_stmt 1 view .LVU1489
 2771              	.LVL84:
 2772              	.LBB542:
 2773              	.LBI542:
 2774              		.loc 1 61 10 view .LVU1490
 2775              	.LBB543:
 2776              		.loc 1 64 3 view .LVU1491
 2777              		.loc 1 65 3 view .LVU1492
 2778              		.loc 1 67 3 view .LVU1493
 2779              		.loc 1 67 3 view .LVU1494
 2780              		.loc 1 69 3 view .LVU1495
 2781              		.loc 1 70 3 view .LVU1496
 2782              		.loc 1 71 3 view .LVU1497
 2783              		.loc 1 72 3 view .LVU1498
 2784              		.loc 1 75 3 view .LVU1499
 2785              		.loc 1 79 3 view .LVU1500
 2786              		.loc 1 79 37 is_stmt 0 view .LVU1501
 2787 031c 8369     		ldr	r3, [r0, #24]
 2788 031e C3F38123 		ubfx	r3, r3, #10, #2
ARM GAS  /tmp/ccLF7Z8f.s 			page 50


 2789              	.LBE543:
 2790              	.LBE542:
 2791              		.loc 1 310 32 view .LVU1502
 2792 0322 CB76     		strb	r3, [r1, #27]
 2793              		.loc 1 311 3 is_stmt 1 view .LVU1503
 2794              	.LVL85:
 2795              	.LBB544:
 2796              	.LBI544:
 2797              		.loc 1 61 10 view .LVU1504
 2798              	.LBB545:
 2799              		.loc 1 64 3 view .LVU1505
 2800              		.loc 1 65 3 view .LVU1506
 2801              		.loc 1 67 3 view .LVU1507
 2802              		.loc 1 67 3 view .LVU1508
 2803              		.loc 1 69 3 view .LVU1509
 2804              		.loc 1 70 3 view .LVU1510
 2805              		.loc 1 71 3 view .LVU1511
 2806              		.loc 1 72 3 view .LVU1512
 2807              		.loc 1 75 3 view .LVU1513
 2808              		.loc 1 79 3 view .LVU1514
 2809              		.loc 1 79 37 is_stmt 0 view .LVU1515
 2810 0324 8369     		ldr	r3, [r0, #24]
 2811 0326 C3F3C033 		ubfx	r3, r3, #15, #1
 2812              	.LBE545:
 2813              	.LBE544:
 2814              		.loc 1 311 32 view .LVU1516
 2815 032a CB75     		strb	r3, [r1, #23]
 2816              		.loc 1 312 3 is_stmt 1 view .LVU1517
 2817              	.LVL86:
 2818              	.LBB546:
 2819              	.LBI546:
 2820              		.loc 1 61 10 view .LVU1518
 2821              	.LBB547:
 2822              		.loc 1 64 3 view .LVU1519
 2823              		.loc 1 65 3 view .LVU1520
 2824              		.loc 1 67 3 view .LVU1521
 2825              		.loc 1 67 3 view .LVU1522
 2826              		.loc 1 69 3 view .LVU1523
 2827              		.loc 1 70 3 view .LVU1524
 2828              		.loc 1 71 3 view .LVU1525
 2829              		.loc 1 72 3 view .LVU1526
 2830              		.loc 1 75 3 view .LVU1527
 2831              		.loc 1 79 3 view .LVU1528
 2832              		.loc 1 79 3 is_stmt 0 view .LVU1529
 2833              	.LBE547:
 2834              	.LBE546:
 2835              		.loc 1 312 32 view .LVU1530
 2836 032c 436A     		ldr	r3, [r0, #36]
 2837 032e 1B0A     		lsrs	r3, r3, #8
 2838 0330 8B70     		strb	r3, [r1, #2]
 2839              		.loc 1 313 3 is_stmt 1 view .LVU1531
 2840              	.LVL87:
 2841              	.LBB548:
 2842              	.LBI548:
 2843              		.loc 1 61 10 view .LVU1532
 2844              	.LBB549:
 2845              		.loc 1 64 3 view .LVU1533
ARM GAS  /tmp/ccLF7Z8f.s 			page 51


 2846              		.loc 1 65 3 view .LVU1534
 2847              		.loc 1 67 3 view .LVU1535
 2848              		.loc 1 67 3 view .LVU1536
 2849              		.loc 1 69 3 view .LVU1537
 2850              		.loc 1 70 3 view .LVU1538
 2851              		.loc 1 71 3 view .LVU1539
 2852              		.loc 1 72 3 view .LVU1540
 2853              		.loc 1 75 3 view .LVU1541
 2854              		.loc 1 79 3 view .LVU1542
 2855              		.loc 1 79 37 is_stmt 0 view .LVU1543
 2856 0332 8369     		ldr	r3, [r0, #24]
 2857 0334 C3F34033 		ubfx	r3, r3, #13, #1
 2858              	.LBE549:
 2859              	.LBE548:
 2860              		.loc 1 313 32 view .LVU1544
 2861 0338 4B76     		strb	r3, [r1, #25]
 2862              		.loc 1 314 3 is_stmt 1 view .LVU1545
 2863              	.LVL88:
 2864              	.LBB550:
 2865              	.LBI550:
 2866              		.loc 1 61 10 view .LVU1546
 2867              	.LBB551:
 2868              		.loc 1 64 3 view .LVU1547
 2869              		.loc 1 65 3 view .LVU1548
 2870              		.loc 1 67 3 view .LVU1549
 2871              		.loc 1 67 3 view .LVU1550
 2872              		.loc 1 69 3 view .LVU1551
 2873              		.loc 1 70 3 view .LVU1552
 2874              		.loc 1 71 3 view .LVU1553
 2875              		.loc 1 72 3 view .LVU1554
 2876              		.loc 1 75 3 view .LVU1555
 2877              		.loc 1 79 3 view .LVU1556
 2878              		.loc 1 79 37 is_stmt 0 view .LVU1557
 2879 033a 8369     		ldr	r3, [r0, #24]
 2880 033c C3F38263 		ubfx	r3, r3, #26, #3
 2881              	.LBE551:
 2882              	.LBE550:
 2883              		.loc 1 314 32 view .LVU1558
 2884 0340 0B75     		strb	r3, [r1, #20]
 2885              		.loc 1 315 3 is_stmt 1 view .LVU1559
 2886              	.LVL89:
 2887              	.LBB552:
 2888              	.LBI552:
 2889              		.loc 1 61 10 view .LVU1560
 2890              	.LBB553:
 2891              		.loc 1 64 3 view .LVU1561
 2892              		.loc 1 65 3 view .LVU1562
 2893              		.loc 1 67 3 view .LVU1563
 2894              		.loc 1 67 3 view .LVU1564
 2895              		.loc 1 69 3 view .LVU1565
 2896              		.loc 1 70 3 view .LVU1566
 2897              		.loc 1 71 3 view .LVU1567
 2898              		.loc 1 72 3 view .LVU1568
 2899              		.loc 1 75 3 view .LVU1569
 2900              		.loc 1 79 3 view .LVU1570
 2901              		.loc 1 79 37 is_stmt 0 view .LVU1571
 2902 0342 438C     		ldrh	r3, [r0, #34]
ARM GAS  /tmp/ccLF7Z8f.s 			page 52


 2903 0344 03F00F03 		and	r3, r3, #15
 2904              	.LBE553:
 2905              	.LBE552:
 2906              		.loc 1 315 32 view .LVU1572
 2907 0348 8B71     		strb	r3, [r1, #6]
 2908              		.loc 1 316 3 is_stmt 1 view .LVU1573
 2909              	.LVL90:
 2910              	.LBB554:
 2911              	.LBI554:
 2912              		.loc 1 61 10 view .LVU1574
 2913              	.LBB555:
 2914              		.loc 1 64 3 view .LVU1575
 2915              		.loc 1 65 3 view .LVU1576
 2916              		.loc 1 67 3 view .LVU1577
 2917              		.loc 1 67 3 view .LVU1578
 2918              		.loc 1 69 3 view .LVU1579
 2919              		.loc 1 70 3 view .LVU1580
 2920              		.loc 1 71 3 view .LVU1581
 2921              		.loc 1 72 3 view .LVU1582
 2922              		.loc 1 75 3 view .LVU1583
 2923              		.loc 1 79 3 view .LVU1584
 2924              		.loc 1 79 37 is_stmt 0 view .LVU1585
 2925 034a 036A     		ldr	r3, [r0, #32]
 2926 034c C3F3C033 		ubfx	r3, r3, #15, #1
 2927              	.LBE555:
 2928              	.LBE554:
 2929              		.loc 1 316 32 view .LVU1586
 2930 0350 CB71     		strb	r3, [r1, #7]
 2931              		.loc 1 317 3 is_stmt 1 view .LVU1587
 2932              	.LVL91:
 2933              	.LBB556:
 2934              	.LBI556:
 2935              		.loc 1 61 10 view .LVU1588
 2936              	.LBB557:
 2937              		.loc 1 64 3 view .LVU1589
 2938              		.loc 1 65 3 view .LVU1590
 2939              		.loc 1 67 3 view .LVU1591
 2940              		.loc 1 67 3 view .LVU1592
 2941              		.loc 1 69 3 view .LVU1593
 2942              		.loc 1 70 3 view .LVU1594
 2943              		.loc 1 71 3 view .LVU1595
 2944              		.loc 1 72 3 view .LVU1596
 2945              		.loc 1 75 3 view .LVU1597
 2946              		.loc 1 79 3 view .LVU1598
 2947              		.loc 1 79 37 is_stmt 0 view .LVU1599
 2948 0352 036A     		ldr	r3, [r0, #32]
 2949 0354 C3F34033 		ubfx	r3, r3, #13, #1
 2950              	.LBE557:
 2951              	.LBE556:
 2952              		.loc 1 317 32 view .LVU1600
 2953 0358 4B72     		strb	r3, [r1, #9]
 2954              		.loc 1 318 3 is_stmt 1 view .LVU1601
 2955              	.LVL92:
 2956              	.LBB558:
 2957              	.LBI558:
 2958              		.loc 1 61 10 view .LVU1602
 2959              	.LBB559:
ARM GAS  /tmp/ccLF7Z8f.s 			page 53


 2960              		.loc 1 64 3 view .LVU1603
 2961              		.loc 1 65 3 view .LVU1604
 2962              		.loc 1 67 3 view .LVU1605
 2963              		.loc 1 67 3 view .LVU1606
 2964              		.loc 1 69 3 view .LVU1607
 2965              		.loc 1 70 3 view .LVU1608
 2966              		.loc 1 71 3 view .LVU1609
 2967              		.loc 1 72 3 view .LVU1610
 2968              		.loc 1 75 3 view .LVU1611
 2969              		.loc 1 79 3 view .LVU1612
 2970              		.loc 1 79 37 is_stmt 0 view .LVU1613
 2971 035a C369     		ldr	r3, [r0, #28]
 2972              	.LBE559:
 2973              	.LBE558:
 2974              		.loc 1 327 1 view .LVU1614
 2975 035c 5DF8044B 		ldr	r4, [sp], #4
 2976              		.cfi_restore 4
 2977              		.cfi_def_cfa_offset 0
 2978              	.LBB561:
 2979              	.LBB560:
 2980              		.loc 1 79 37 view .LVU1615
 2981 0360 C3F3C613 		ubfx	r3, r3, #7, #7
 2982              	.LBE560:
 2983              	.LBE561:
 2984              		.loc 1 318 32 view .LVU1616
 2985 0364 4B74     		strb	r3, [r1, #17]
 2986              		.loc 1 319 3 is_stmt 1 view .LVU1617
 2987              	.LVL93:
 2988              	.LBB562:
 2989              	.LBI562:
 2990              		.loc 1 61 10 view .LVU1618
 2991              	.LBB563:
 2992              		.loc 1 64 3 view .LVU1619
 2993              		.loc 1 65 3 view .LVU1620
 2994              		.loc 1 67 3 view .LVU1621
 2995              		.loc 1 67 3 view .LVU1622
 2996              		.loc 1 69 3 view .LVU1623
 2997              		.loc 1 70 3 view .LVU1624
 2998              		.loc 1 71 3 view .LVU1625
 2999              		.loc 1 72 3 view .LVU1626
 3000              		.loc 1 75 3 view .LVU1627
 3001              		.loc 1 79 3 view .LVU1628
 3002              		.loc 1 79 3 is_stmt 0 view .LVU1629
 3003              	.LBE563:
 3004              	.LBE562:
 3005              		.loc 1 319 32 view .LVU1630
 3006 0366 C38C     		ldrh	r3, [r0, #38]
 3007 0368 4B70     		strb	r3, [r1, #1]
 3008              		.loc 1 320 3 is_stmt 1 view .LVU1631
 3009              	.LVL94:
 3010              	.LBB564:
 3011              	.LBI564:
 3012              		.loc 1 61 10 view .LVU1632
 3013              	.LBB565:
 3014              		.loc 1 64 3 view .LVU1633
 3015              		.loc 1 65 3 view .LVU1634
 3016              		.loc 1 67 3 view .LVU1635
ARM GAS  /tmp/ccLF7Z8f.s 			page 54


 3017              		.loc 1 67 3 view .LVU1636
 3018              		.loc 1 69 3 view .LVU1637
 3019              		.loc 1 70 3 view .LVU1638
 3020              		.loc 1 71 3 view .LVU1639
 3021              		.loc 1 72 3 view .LVU1640
 3022              		.loc 1 75 3 view .LVU1641
 3023              		.loc 1 79 3 view .LVU1642
 3024              		.loc 1 79 37 is_stmt 0 view .LVU1643
 3025 036a 8369     		ldr	r3, [r0, #24]
 3026 036c C3F30033 		ubfx	r3, r3, #12, #1
 3027              	.LBE565:
 3028              	.LBE564:
 3029              		.loc 1 320 32 view .LVU1644
 3030 0370 8B76     		strb	r3, [r1, #26]
 3031              		.loc 1 321 3 is_stmt 1 view .LVU1645
 3032              	.LVL95:
 3033              	.LBB566:
 3034              	.LBI566:
 3035              		.loc 1 61 10 view .LVU1646
 3036              	.LBB567:
 3037              		.loc 1 64 3 view .LVU1647
 3038              		.loc 1 65 3 view .LVU1648
 3039              		.loc 1 67 3 view .LVU1649
 3040              		.loc 1 67 3 view .LVU1650
 3041              		.loc 1 69 3 view .LVU1651
 3042              		.loc 1 70 3 view .LVU1652
 3043              		.loc 1 71 3 view .LVU1653
 3044              		.loc 1 72 3 view .LVU1654
 3045              		.loc 1 75 3 view .LVU1655
 3046              		.loc 1 79 3 view .LVU1656
 3047              		.loc 1 79 3 is_stmt 0 view .LVU1657
 3048              	.LBE567:
 3049              	.LBE566:
 3050              		.loc 1 321 32 view .LVU1658
 3051 0372 436A     		ldr	r3, [r0, #36]
 3052 0374 CB70     		strb	r3, [r1, #3]
 3053              		.loc 1 322 3 is_stmt 1 view .LVU1659
 3054              	.LVL96:
 3055              	.LBB568:
 3056              	.LBI568:
 3057              		.loc 1 61 10 view .LVU1660
 3058              	.LBB569:
 3059              		.loc 1 64 3 view .LVU1661
 3060              		.loc 1 65 3 view .LVU1662
 3061              		.loc 1 67 3 view .LVU1663
 3062              		.loc 1 67 3 view .LVU1664
 3063              		.loc 1 69 3 view .LVU1665
 3064              		.loc 1 70 3 view .LVU1666
 3065              		.loc 1 71 3 view .LVU1667
 3066              		.loc 1 72 3 view .LVU1668
 3067              		.loc 1 75 3 view .LVU1669
 3068              		.loc 1 79 3 view .LVU1670
 3069              		.loc 1 79 37 is_stmt 0 view .LVU1671
 3070 0376 8369     		ldr	r3, [r0, #24]
 3071 0378 DB0F     		lsrs	r3, r3, #31
 3072              	.LBE569:
 3073              	.LBE568:
ARM GAS  /tmp/ccLF7Z8f.s 			page 55


 3074              		.loc 1 322 32 view .LVU1672
 3075 037a CB74     		strb	r3, [r1, #19]
 3076              		.loc 1 323 3 is_stmt 1 view .LVU1673
 3077              	.LVL97:
 3078              	.LBB570:
 3079              	.LBI570:
 3080              		.loc 1 61 10 view .LVU1674
 3081              	.LBB571:
 3082              		.loc 1 64 3 view .LVU1675
 3083              		.loc 1 65 3 view .LVU1676
 3084              		.loc 1 67 3 view .LVU1677
 3085              		.loc 1 67 3 view .LVU1678
 3086              		.loc 1 69 3 view .LVU1679
 3087              		.loc 1 70 3 view .LVU1680
 3088              		.loc 1 71 3 view .LVU1681
 3089              		.loc 1 72 3 view .LVU1682
 3090              		.loc 1 75 3 view .LVU1683
 3091              		.loc 1 79 3 view .LVU1684
 3092              		.loc 1 79 26 is_stmt 0 view .LVU1685
 3093 037c C369     		ldr	r3, [r0, #28]
 3094 037e 03F07F03 		and	r3, r3, #127
 3095              	.LBE571:
 3096              	.LBE570:
 3097              		.loc 1 323 32 view .LVU1686
 3098 0382 8B74     		strb	r3, [r1, #18]
 3099              		.loc 1 324 3 is_stmt 1 view .LVU1687
 3100              	.LVL98:
 3101              	.LBB572:
 3102              	.LBI572:
 3103              		.loc 1 61 10 view .LVU1688
 3104              	.LBB573:
 3105              		.loc 1 64 3 view .LVU1689
 3106              		.loc 1 65 3 view .LVU1690
 3107              		.loc 1 67 3 view .LVU1691
 3108              		.loc 1 67 3 view .LVU1692
 3109              		.loc 1 69 3 view .LVU1693
 3110              		.loc 1 70 3 view .LVU1694
 3111              		.loc 1 71 3 view .LVU1695
 3112              		.loc 1 72 3 view .LVU1696
 3113              		.loc 1 75 3 view .LVU1697
 3114              		.loc 1 79 3 view .LVU1698
 3115              		.loc 1 79 37 is_stmt 0 view .LVU1699
 3116 0384 8369     		ldr	r3, [r0, #24]
 3117 0386 C3F30D33 		ubfx	r3, r3, #12, #14
 3118              	.LBE573:
 3119              	.LBE572:
 3120              		.loc 1 324 32 view .LVU1700
 3121 038a 4B75     		strb	r3, [r1, #21]
 3122              		.loc 1 325 3 is_stmt 1 view .LVU1701
 3123              	.LVL99:
 3124              	.LBB574:
 3125              	.LBI574:
 3126              		.loc 1 61 10 view .LVU1702
 3127              	.LBB575:
 3128              		.loc 1 64 3 view .LVU1703
 3129              		.loc 1 65 3 view .LVU1704
 3130              		.loc 1 67 3 view .LVU1705
ARM GAS  /tmp/ccLF7Z8f.s 			page 56


 3131              		.loc 1 67 3 view .LVU1706
 3132              		.loc 1 69 3 view .LVU1707
 3133              		.loc 1 70 3 view .LVU1708
 3134              		.loc 1 71 3 view .LVU1709
 3135              		.loc 1 72 3 view .LVU1710
 3136              		.loc 1 75 3 view .LVU1711
 3137              		.loc 1 79 3 view .LVU1712
 3138              		.loc 1 79 37 is_stmt 0 view .LVU1713
 3139 038c 8369     		ldr	r3, [r0, #24]
 3140 038e C3F34053 		ubfx	r3, r3, #21, #1
 3141              	.LBE575:
 3142              	.LBE574:
 3143              		.loc 1 325 32 view .LVU1714
 3144 0392 8B75     		strb	r3, [r1, #22]
 3145              		.loc 1 326 3 is_stmt 1 view .LVU1715
 3146              	.LVL100:
 3147              	.LBB576:
 3148              	.LBI576:
 3149              		.loc 1 61 10 view .LVU1716
 3150              	.LBB577:
 3151              		.loc 1 64 3 view .LVU1717
 3152              		.loc 1 65 3 view .LVU1718
 3153              		.loc 1 67 3 view .LVU1719
 3154              		.loc 1 67 3 view .LVU1720
 3155              		.loc 1 69 3 view .LVU1721
 3156              		.loc 1 70 3 view .LVU1722
 3157              		.loc 1 71 3 view .LVU1723
 3158              		.loc 1 72 3 view .LVU1724
 3159              		.loc 1 75 3 view .LVU1725
 3160              		.loc 1 79 3 view .LVU1726
 3161              		.loc 1 79 37 is_stmt 0 view .LVU1727
 3162 0394 036A     		ldr	r3, [r0, #32]
 3163 0396 C3F38033 		ubfx	r3, r3, #14, #1
 3164              	.LBE577:
 3165              	.LBE576:
 3166              		.loc 1 326 32 view .LVU1728
 3167 039a 0B72     		strb	r3, [r1, #8]
 3168              		.loc 1 327 1 view .LVU1729
 3169 039c 7047     		bx	lr
 3170              		.cfi_endproc
 3171              	.LFE369:
 3172              		.size	_mmcsd_unpack_csd_v20, .-_mmcsd_unpack_csd_v20
 3173              	.Letext0:
 3174              		.file 2 "/home/nicolas/arm/gcc-arm-none-eabi-8-2019-q3-update/lib/gcc/arm-none-eabi/8.3.1/include/
 3175              		.file 3 "/home/nicolas/arm/gcc-arm-none-eabi-8-2019-q3-update/arm-none-eabi/include/machine/_defau
 3176              		.file 4 "/home/nicolas/arm/gcc-arm-none-eabi-8-2019-q3-update/arm-none-eabi/include/sys/_stdint.h"
 3177              		.file 5 "/home/nicolas/arm/gcc-arm-none-eabi-8-2019-q3-update/arm-none-eabi/include/stdint.h"
 3178              		.file 6 "../../../external/ChibiOS/os/common/ports/ARMCMx/compilers/GCC/chtypes.h"
 3179              		.file 7 "../../../external/ChibiOS/os/rt/include/chsystypes.h"
 3180              		.file 8 "../../../external/ChibiOS/os/rt/include/chschd.h"
 3181              		.file 9 "../../../external/ChibiOS/os/rt/include/chtime.h"
 3182              		.file 10 "../../../external/ChibiOS/os/common/ext/ARM/CMSIS/Core/Include/core_cm7.h"
 3183              		.file 11 "../../../external/ChibiOS/os/common/ext/ST/STM32H7xx/system_stm32h7xx.h"
 3184              		.file 12 "../../../external/ChibiOS/os/common/ext/ST/STM32H7xx/stm32h753xx.h"
 3185              		.file 13 "../../../external/ChibiOS/os/common/ports/ARMCMx/chcore.h"
 3186              		.file 14 "../../../external/ChibiOS/os/common/ports/ARMCMx/chcore_v7m.h"
 3187              		.file 15 "../../../external/ChibiOS/os/rt/include/chtrace.h"
ARM GAS  /tmp/ccLF7Z8f.s 			page 57


 3188              		.file 16 "../../../external/ChibiOS/os/rt/include/chtm.h"
 3189              		.file 17 "../../../external/ChibiOS/os/rt/include/chsem.h"
 3190              		.file 18 "../../../external/ChibiOS/os/rt/include/chmtx.h"
 3191              		.file 19 "../../../external/ChibiOS/os/rt/include/chsys.h"
 3192              		.file 20 "../../../external/ChibiOS/os/rt/include/chregistry.h"
 3193              		.file 21 "../../../external/ChibiOS/os/rt/include/chevents.h"
 3194              		.file 22 "../../../external/ChibiOS/os/oslib/include/chmemcore.h"
 3195              		.file 23 "../../../external/ChibiOS/os/oslib/include/chmempools.h"
 3196              		.file 24 "../../../external/ChibiOS/os/oslib/include/chfactory.h"
 3197              		.file 25 "../../../external/ChibiOS/os/hal/ports/STM32/LLD/DMAv2/stm32_dma.h"
 3198              		.file 26 "../../../external/ChibiOS/os/hal/ports/STM32/LLD/BDMAv1/stm32_bdma.h"
 3199              		.file 27 "../../../external/ChibiOS/os/hal/ports/STM32/LLD/TIMv1/stm32_tim.h"
 3200              		.file 28 "../../../external/ChibiOS/os/hal/include/hal_ioblock.h"
 3201              		.file 29 "../../../external/ChibiOS/os/hal/include/hal_mmcsd.h"
 3202              		.file 30 "../../../external/ChibiOS/os/hal/include/hal_queues.h"
 3203              		.file 31 "../../../external/ChibiOS/os/hal/ports/STM32/LLD/GPIOv2/stm32_gpio.h"
 3204              		.file 32 "../../../external/ChibiOS/os/hal/ports/STM32/LLD/GPIOv2/hal_pal_lld.h"
 3205              		.file 33 "../../../external/ChibiOS/os/hal/include/hal_adc.h"
 3206              		.file 34 "../../../external/ChibiOS/os/hal/ports/STM32/LLD/ADCv4/hal_adc_lld.h"
 3207              		.file 35 "../../../external/ChibiOS/os/hal/include/hal_i2c.h"
 3208              		.file 36 "../../../external/ChibiOS/os/hal/ports/STM32/LLD/I2Cv3/hal_i2c_lld.h"
 3209              		.file 37 "../../../external/ChibiOS/os/hal/include/hal_pwm.h"
 3210              		.file 38 "../../../external/ChibiOS/os/hal/ports/STM32/LLD/TIMv1/hal_pwm_lld.h"
 3211              		.file 39 "../../../external/ChibiOS/os/hal/include/hal_serial.h"
 3212              		.file 40 "../../../external/ChibiOS/os/hal/ports/STM32/LLD/USARTv2/hal_serial_lld.h"
 3213              		.file 41 "../../../external/ChibiOS/os/hal/include/hal_sdc.h"
 3214              		.file 42 "../../../external/ChibiOS/os/hal/ports/STM32/LLD/SDMMCv2/hal_sdc_lld.h"
 3215              		.file 43 "../../../external/ChibiOS/os/hal/include/hal_spi.h"
 3216              		.file 44 "../../../external/ChibiOS/os/hal/ports/STM32/LLD/SPIv3/hal_spi_lld.h"
 3217              		.file 45 "../../../external/ChibiOS/os/hal/include/hal_trng.h"
 3218              		.file 46 "../../../external/ChibiOS/os/hal/ports/STM32/LLD/RNGv1/hal_trng_lld.h"
 3219              		.file 47 "../../../external/ChibiOS/os/hal/include/hal_usb.h"
 3220              		.file 48 "../../../external/ChibiOS/os/hal/ports/STM32/LLD/OTGv1/hal_usb_lld.h"
 3221              		.file 49 "../../../external/ChibiOS/os/hal/ports/STM32/LLD/OTGv1/stm32_otg.h"
 3222              		.file 50 "../../../external/ChibiOS-Contrib/os/hal/include/hal_fsmc.h"
 3223              		.file 51 "../../../external/ChibiOS-Contrib/os/hal/include/hal_sdram.h"