ARM GAS  /tmp/ccDQUTww.s 			page 1


   1              		.cpu cortex-m7
   2              		.eabi_attribute 27, 1
   3              		.eabi_attribute 28, 1
   4              		.eabi_attribute 20, 1
   5              		.eabi_attribute 21, 1
   6              		.eabi_attribute 23, 3
   7              		.eabi_attribute 24, 1
   8              		.eabi_attribute 25, 1
   9              		.eabi_attribute 26, 1
  10              		.eabi_attribute 30, 2
  11              		.eabi_attribute 34, 1
  12              		.eabi_attribute 18, 4
  13              		.file	"hal_buffers.c"
  14              		.text
  15              	.Ltext0:
  16              		.cfi_sections	.debug_frame
  17              		.align	1
  18              		.p2align 4,,15
  19              		.global	ibqObjectInit
  20              		.arch armv7e-m
  21              		.syntax unified
  22              		.thumb
  23              		.thumb_func
  24              		.fpu fpv4-sp-d16
  25              		.type	ibqObjectInit, %function
  26              	ibqObjectInit:
  27              	.LVL0:
  28              	.LFB362:
  29              		.file 1 "../../../external/ChibiOS/os/hal/src/hal_buffers.c"
  30              		.loc 1 77 72 view -0
  31              		.cfi_startproc
  32              		@ args = 12, pretend = 0, frame = 0
  33              		@ frame_needed = 0, uses_anonymous_args = 0
  34              		@ link register save eliminated.
  35              		.loc 1 79 3 view .LVU1
  36              		.loc 1 79 3 view .LVU2
  37              		.loc 1 81 3 view .LVU3
  38              		.loc 1 77 72 is_stmt 0 view .LVU4
  39 0000 70B4     		push	{r4, r5, r6}
  40              		.cfi_def_cfa_offset 12
  41              		.cfi_offset 4, -12
  42              		.cfi_offset 5, -8
  43              		.cfi_offset 6, -4
  44              		.loc 1 86 33 view .LVU5
  45 0002 0433     		adds	r3, r3, #4
  46              	.LVL1:
  47              		.loc 1 83 19 view .LVU6
  48 0004 0024     		movs	r4, #0
  49              		.loc 1 82 19 view .LVU7
  50 0006 0172     		strb	r1, [r0, #8]
  51              		.loc 1 87 19 view .LVU8
  52 0008 C361     		str	r3, [r0, #28]
  53              		.loc 1 77 72 view .LVU9
  54 000a 0599     		ldr	r1, [sp, #20]
  55              	.LVL2:
  56              		.loc 1 83 19 view .LVU10
  57 000c C460     		str	r4, [r0, #12]
ARM GAS  /tmp/ccDQUTww.s 			page 2


  58              		.loc 1 89 19 view .LVU11
  59 000e 4262     		str	r2, [r0, #36]
  60              		.loc 1 77 72 view .LVU12
  61 0010 DDE90356 		ldrd	r5, r6, [sp, #12]
  62              		.loc 1 91 19 view .LVU13
  63 0014 C0E90A44 		strd	r4, r4, [r0, #40]
  64              		.loc 1 86 24 view .LVU14
  65 0018 05FB0323 		mla	r3, r5, r3, r2
  66              	.LVL3:
  67              		.loc 1 88 19 view .LVU15
  68 001c 0562     		str	r5, [r0, #32]
  69              		.loc 1 86 19 view .LVU16
  70 001e 8361     		str	r3, [r0, #24]
  71              		.loc 1 93 19 view .LVU17
  72 0020 C0E90C61 		strd	r6, r1, [r0, #48]
  73              	.LBB236:
  74              	.LBB237:
  75              	.LBB238:
  76              	.LBB239:
  77              		.file 2 "../../../external/ChibiOS/os/rt/include/chschd.h"
  78              		.loc 2 540 13 view .LVU18
  79 0024 C0E90000 		strd	r0, r0, [r0]
  80              	.LBE239:
  81              	.LBE238:
  82              	.LBE237:
  83              	.LBE236:
  84              		.loc 1 82 3 is_stmt 1 view .LVU19
  85              		.loc 1 83 3 view .LVU20
  86              		.loc 1 84 3 view .LVU21
  87              		.loc 1 85 3 view .LVU22
  88              		.loc 1 86 3 view .LVU23
  89              		.loc 1 87 3 view .LVU24
  90              		.loc 1 88 3 view .LVU25
  91              		.loc 1 89 3 view .LVU26
  92              		.loc 1 90 3 view .LVU27
  93              		.loc 1 92 3 view .LVU28
  94              		.loc 1 93 3 view .LVU29
  95              		.loc 1 85 19 is_stmt 0 view .LVU30
  96 0028 C0E90422 		strd	r2, r2, [r0, #16]
  97              		.loc 1 94 1 view .LVU31
  98 002c 70BC     		pop	{r4, r5, r6}
  99              		.cfi_restore 6
 100              		.cfi_restore 5
 101              		.cfi_restore 4
 102              		.cfi_def_cfa_offset 0
 103              	.LVL4:
 104              		.loc 1 94 1 view .LVU32
 105 002e 7047     		bx	lr
 106              		.cfi_endproc
 107              	.LFE362:
 108              		.size	ibqObjectInit, .-ibqObjectInit
 109              		.align	1
 110              		.p2align 4,,15
 111              		.global	ibqResetI
 112              		.syntax unified
 113              		.thumb
 114              		.thumb_func
ARM GAS  /tmp/ccDQUTww.s 			page 3


 115              		.fpu fpv4-sp-d16
 116              		.type	ibqResetI, %function
 117              	ibqResetI:
 118              	.LVL5:
 119              	.LFB363:
 120              		.loc 1 107 45 is_stmt 1 view -0
 121              		.cfi_startproc
 122              		@ args = 0, pretend = 0, frame = 0
 123              		@ frame_needed = 0, uses_anonymous_args = 0
 124              		@ link register save eliminated.
 125              		.loc 1 109 23 view .LVU34
 126              		.loc 1 111 3 view .LVU35
 127              		.loc 1 107 45 is_stmt 0 view .LVU36
 128 0030 10B4     		push	{r4}
 129              		.cfi_def_cfa_offset 4
 130              		.cfi_offset 4, -4
 131              		.loc 1 111 19 view .LVU37
 132 0032 0022     		movs	r2, #0
 133              		.loc 1 112 25 view .LVU38
 134 0034 446A     		ldr	r4, [r0, #36]
 135              	.LBB240:
 136              	.LBB241:
 137              		.file 3 "../../../external/ChibiOS/os/hal/osal/rt-nil/osal.h"
 138              		.loc 3 857 3 view .LVU39
 139 0036 6FF00101 		mvn	r1, #1
 140              	.LBE241:
 141              	.LBE240:
 142              		.loc 1 111 19 view .LVU40
 143 003a C260     		str	r2, [r0, #12]
 144              		.loc 1 112 3 is_stmt 1 view .LVU41
 145              		.loc 1 113 19 is_stmt 0 view .LVU42
 146 003c C0E90444 		strd	r4, r4, [r0, #16]
 147              		.loc 1 114 3 is_stmt 1 view .LVU43
 148              		.loc 1 115 19 is_stmt 0 view .LVU44
 149 0040 C0E90A22 		strd	r2, r2, [r0, #40]
 150              		.loc 1 116 3 is_stmt 1 view .LVU45
 151              	.LVL6:
 152              	.LBB244:
 153              	.LBI240:
 154              		.loc 3 855 20 view .LVU46
 155              	.LBB242:
 156              		.loc 3 857 3 view .LVU47
 157              	.LBE242:
 158              	.LBE244:
 159              		.loc 1 117 1 is_stmt 0 view .LVU48
 160 0044 5DF8044B 		ldr	r4, [sp], #4
 161              		.cfi_restore 4
 162              		.cfi_def_cfa_offset 0
 163              	.LBB245:
 164              	.LBB243:
 165              		.loc 3 857 3 view .LVU49
 166 0048 FFF7FEBF 		b	chThdDequeueAllI
 167              	.LVL7:
 168              		.loc 3 857 3 view .LVU50
 169              	.LBE243:
 170              	.LBE245:
 171              		.cfi_endproc
ARM GAS  /tmp/ccDQUTww.s 			page 4


 172              	.LFE363:
 173              		.size	ibqResetI, .-ibqResetI
 174              		.align	1
 175 004c AFF30080 		.p2align 4,,15
 176              		.global	ibqGetEmptyBufferI
 177              		.syntax unified
 178              		.thumb
 179              		.thumb_func
 180              		.fpu fpv4-sp-d16
 181              		.type	ibqGetEmptyBufferI, %function
 182              	ibqGetEmptyBufferI:
 183              	.LVL8:
 184              	.LFB364:
 185              		.loc 1 129 58 is_stmt 1 view -0
 186              		.cfi_startproc
 187              		@ args = 0, pretend = 0, frame = 0
 188              		@ frame_needed = 0, uses_anonymous_args = 0
 189              		@ link register save eliminated.
 190              		.loc 1 131 23 view .LVU52
 191              		.loc 1 133 3 view .LVU53
 192              		.loc 1 133 7 is_stmt 0 view .LVU54
 193 0050 D0E90432 		ldrd	r3, r2, [r0, #16]
 194 0054 9342     		cmp	r3, r2
 195 0056 01D0     		beq	.L12
 196              	.L7:
 197              		.loc 1 137 3 is_stmt 1 view .LVU55
 198              		.loc 1 137 23 is_stmt 0 view .LVU56
 199 0058 181D     		adds	r0, r3, #4
 200              	.LVL9:
 201              		.loc 1 138 1 view .LVU57
 202 005a 7047     		bx	lr
 203              	.LVL10:
 204              	.L12:
 205              		.loc 1 133 7 discriminator 1 view .LVU58
 206 005c C268     		ldr	r2, [r0, #12]
 207 005e 002A     		cmp	r2, #0
 208 0060 FAD0     		beq	.L7
 209              		.loc 1 134 12 view .LVU59
 210 0062 0020     		movs	r0, #0
 211              	.LVL11:
 212              		.loc 1 134 12 view .LVU60
 213 0064 7047     		bx	lr
 214              		.cfi_endproc
 215              	.LFE364:
 216              		.size	ibqGetEmptyBufferI, .-ibqGetEmptyBufferI
 217              		.align	1
 218 0066 00BFAFF3 		.p2align 4,,15
 218      0080AFF3 
 218      0080
 219              		.global	ibqPostFullBufferI
 220              		.syntax unified
 221              		.thumb
 222              		.thumb_func
 223              		.fpu fpv4-sp-d16
 224              		.type	ibqPostFullBufferI, %function
 225              	ibqPostFullBufferI:
 226              	.LVL12:
ARM GAS  /tmp/ccDQUTww.s 			page 5


 227              	.LFB365:
 228              		.loc 1 148 67 is_stmt 1 view -0
 229              		.cfi_startproc
 230              		@ args = 0, pretend = 0, frame = 0
 231              		@ frame_needed = 0, uses_anonymous_args = 0
 232              		@ link register save eliminated.
 233              		.loc 1 150 23 view .LVU62
 234              		.loc 1 152 3 view .LVU63
 235              		.loc 1 152 3 view .LVU64
 236              		.loc 1 153 3 view .LVU65
 237              		.loc 1 153 3 view .LVU66
 238              		.loc 1 156 3 view .LVU67
 239              		.loc 1 156 19 is_stmt 0 view .LVU68
 240 0070 0369     		ldr	r3, [r0, #16]
 241              		.loc 1 148 67 view .LVU69
 242 0072 10B4     		push	{r4}
 243              		.cfi_def_cfa_offset 4
 244              		.cfi_offset 4, -4
 245              		.loc 1 161 6 view .LVU70
 246 0074 8469     		ldr	r4, [r0, #24]
 247              		.loc 1 156 29 view .LVU71
 248 0076 1960     		str	r1, [r3]
 249              		.loc 1 159 3 is_stmt 1 view .LVU72
 250              		.loc 1 160 16 is_stmt 0 view .LVU73
 251 0078 C169     		ldr	r1, [r0, #28]
 252              	.LVL13:
 253              		.loc 1 159 7 view .LVU74
 254 007a C268     		ldr	r2, [r0, #12]
 255              		.loc 1 160 16 view .LVU75
 256 007c 0B44     		add	r3, r3, r1
 257              	.LVL14:
 258              		.loc 1 159 17 view .LVU76
 259 007e 0132     		adds	r2, r2, #1
 260              		.loc 1 161 6 view .LVU77
 261 0080 A342     		cmp	r3, r4
 262              		.loc 1 160 16 view .LVU78
 263 0082 0361     		str	r3, [r0, #16]
 264              	.LVL15:
 265              		.loc 1 159 17 view .LVU79
 266 0084 C260     		str	r2, [r0, #12]
 267              		.loc 1 160 3 is_stmt 1 view .LVU80
 268              		.loc 1 161 3 view .LVU81
 269              		.loc 1 161 6 is_stmt 0 view .LVU82
 270 0086 01D3     		bcc	.L14
 271              		.loc 1 162 5 is_stmt 1 view .LVU83
 272              		.loc 1 162 18 is_stmt 0 view .LVU84
 273 0088 436A     		ldr	r3, [r0, #36]
 274 008a 0361     		str	r3, [r0, #16]
 275              	.L14:
 276              		.loc 1 166 3 is_stmt 1 view .LVU85
 277              	.LVL16:
 278              	.LBB246:
 279              	.LBI246:
 280              		.loc 3 842 20 view .LVU86
 281              	.LBB247:
 282              		.loc 3 844 3 view .LVU87
 283 008c 0021     		movs	r1, #0
ARM GAS  /tmp/ccDQUTww.s 			page 6


 284              	.LBE247:
 285              	.LBE246:
 286              		.loc 1 167 1 is_stmt 0 view .LVU88
 287 008e 5DF8044B 		ldr	r4, [sp], #4
 288              		.cfi_restore 4
 289              		.cfi_def_cfa_offset 0
 290              	.LBB249:
 291              	.LBB248:
 292              		.loc 3 844 3 view .LVU89
 293 0092 FFF7FEBF 		b	chThdDequeueNextI
 294              	.LVL17:
 295              		.loc 3 844 3 view .LVU90
 296              	.LBE248:
 297              	.LBE249:
 298              		.cfi_endproc
 299              	.LFE365:
 300              		.size	ibqPostFullBufferI, .-ibqPostFullBufferI
 301              		.align	1
 302 0096 00BFAFF3 		.p2align 4,,15
 302      0080AFF3 
 302      0080
 303              		.global	ibqGetFullBufferTimeoutS
 304              		.syntax unified
 305              		.thumb
 306              		.thumb_func
 307              		.fpu fpv4-sp-d16
 308              		.type	ibqGetFullBufferTimeoutS, %function
 309              	ibqGetFullBufferTimeoutS:
 310              	.LVL18:
 311              	.LFB367:
 312              		.loc 1 223 57 is_stmt 1 view -0
 313              		.cfi_startproc
 314              		@ args = 0, pretend = 0, frame = 0
 315              		@ frame_needed = 0, uses_anonymous_args = 0
 316              		.loc 1 223 57 is_stmt 0 view .LVU92
 317 00a0 38B5     		push	{r3, r4, r5, lr}
 318              		.cfi_def_cfa_offset 16
 319              		.cfi_offset 3, -16
 320              		.cfi_offset 4, -12
 321              		.cfi_offset 5, -8
 322              		.cfi_offset 14, -4
 323              		.loc 1 223 57 view .LVU93
 324 00a2 0446     		mov	r4, r0
 325              		.loc 1 225 23 is_stmt 1 view .LVU94
 326              		.loc 1 227 3 view .LVU95
 327              		.loc 1 223 57 is_stmt 0 view .LVU96
 328 00a4 0D46     		mov	r5, r1
 329              		.loc 1 227 9 view .LVU97
 330 00a6 05E0     		b	.L17
 331              	.LVL19:
 332              	.L19:
 333              	.LBB258:
 334              		.loc 1 228 8 view .LVU98
 335 00a8 237A     		ldrb	r3, [r4, #8]	@ zero_extendqisi2
 336 00aa 83B9     		cbnz	r3, .L20
 337              	.LBB259:
 338              	.LBB260:
ARM GAS  /tmp/ccDQUTww.s 			page 7


 339              		.loc 3 831 10 view .LVU99
 340 00ac FFF7FEFF 		bl	chThdEnqueueTimeoutS
 341              	.LVL20:
 342              		.loc 3 831 10 view .LVU100
 343              	.LBE260:
 344              	.LBE259:
 345              		.loc 1 232 5 is_stmt 1 view .LVU101
 346              		.loc 1 232 8 is_stmt 0 view .LVU102
 347 00b0 0028     		cmp	r0, #0
 348              		.loc 1 232 8 view .LVU103
 349 00b2 0BDB     		blt	.L16
 350              	.LVL21:
 351              	.L17:
 352              		.loc 1 228 5 is_stmt 1 view .LVU104
 353              		.loc 1 231 5 view .LVU105
 354              	.LBB263:
 355              	.LBI259:
 356              		.loc 3 828 21 view .LVU106
 357              	.LBB261:
 358              		.loc 3 831 3 view .LVU107
 359              	.LBE261:
 360              	.LBE263:
 361              	.LBE258:
 362              		.loc 1 227 10 is_stmt 0 view .LVU108
 363 00b4 E368     		ldr	r3, [r4, #12]
 364              	.LBB265:
 365              	.LBB264:
 366              	.LBB262:
 367              		.loc 3 831 10 view .LVU109
 368 00b6 2946     		mov	r1, r5
 369 00b8 2046     		mov	r0, r4
 370              	.LBE262:
 371              	.LBE264:
 372              	.LBE265:
 373              		.loc 1 227 9 view .LVU110
 374 00ba 002B     		cmp	r3, #0
 375 00bc F4D0     		beq	.L19
 376              	.LVL22:
 377              	.LBB266:
 378              	.LBI266:
 379              		.loc 1 222 9 is_stmt 1 view .LVU111
 380              	.LBB267:
 381              		.loc 1 237 3 view .LVU112
 382              		.loc 1 237 3 view .LVU113
 383              		.loc 1 240 3 view .LVU114
 384              		.loc 1 240 19 is_stmt 0 view .LVU115
 385 00be 6369     		ldr	r3, [r4, #20]
 386              		.loc 1 241 13 view .LVU116
 387 00c0 0020     		movs	r0, #0
 388              	.LVL23:
 389              		.loc 1 240 28 view .LVU117
 390 00c2 1A1D     		adds	r2, r3, #4
 391              		.loc 1 241 25 view .LVU118
 392 00c4 1B68     		ldr	r3, [r3]
 393 00c6 1344     		add	r3, r3, r2
 394              		.loc 1 241 13 view .LVU119
 395 00c8 C4E90A23 		strd	r2, r3, [r4, #40]
ARM GAS  /tmp/ccDQUTww.s 			page 8


 396              		.loc 1 243 3 is_stmt 1 view .LVU120
 397              	.LVL24:
 398              	.L16:
 399              		.loc 1 243 3 is_stmt 0 view .LVU121
 400              	.LBE267:
 401              	.LBE266:
 402              		.loc 1 244 1 view .LVU122
 403 00cc 38BD     		pop	{r3, r4, r5, pc}
 404              	.LVL25:
 405              	.L20:
 406              	.LBB268:
 407              		.loc 1 229 14 view .LVU123
 408 00ce 6FF00100 		mvn	r0, #1
 409              	.LVL26:
 410              		.loc 1 229 14 view .LVU124
 411              	.LBE268:
 412              		.loc 1 244 1 view .LVU125
 413 00d2 38BD     		pop	{r3, r4, r5, pc}
 414              		.loc 1 244 1 view .LVU126
 415              		.cfi_endproc
 416              	.LFE367:
 417              		.size	ibqGetFullBufferTimeoutS, .-ibqGetFullBufferTimeoutS
 418              		.align	1
 419 00d4 AFF30080 		.p2align 4,,15
 419      AFF30080 
 419      AFF30080 
 420              		.global	ibqGetFullBufferTimeout
 421              		.syntax unified
 422              		.thumb
 423              		.thumb_func
 424              		.fpu fpv4-sp-d16
 425              		.type	ibqGetFullBufferTimeout, %function
 426              	ibqGetFullBufferTimeout:
 427              	.LVL27:
 428              	.LFB366:
 429              		.loc 1 191 54 is_stmt 1 view -0
 430              		.cfi_startproc
 431              		@ args = 0, pretend = 0, frame = 0
 432              		@ frame_needed = 0, uses_anonymous_args = 0
 433              		.loc 1 192 3 view .LVU128
 434              		.loc 1 194 3 view .LVU129
 435              	.LBB269:
 436              	.LBI269:
 437              		.loc 3 509 20 view .LVU130
 438              	.LBE269:
 439              		.loc 3 511 3 view .LVU131
 440              	.LBB281:
 441              	.LBB270:
 442              	.LBI270:
 443              		.file 4 "../../../external/ChibiOS/os/rt/include/chsys.h"
 444              		.loc 4 353 20 view .LVU132
 445              	.LBE270:
 446              	.LBE281:
 447              		.loc 4 355 3 view .LVU133
 448              	.LBB282:
 449              	.LBB278:
 450              	.LBB271:
ARM GAS  /tmp/ccDQUTww.s 			page 9


 451              	.LBI271:
 452              		.file 5 "../../../external/ChibiOS/os/common/ports/ARMCMx/chcore_v7m.h"
 453              		.loc 5 669 27 view .LVU134
 454              	.LBE271:
 455              	.LBE278:
 456              	.LBE282:
 457              		.loc 5 677 3 view .LVU135
 458              	.LBB283:
 459              	.LBB279:
 460              	.LBB276:
 461              	.LBB272:
 462              	.LBI272:
 463              		.file 6 "../../../external/ChibiOS/os/common/ext/ARM/CMSIS/Core/Include/cmsis_gcc.h"
 464              		.loc 6 491 27 view .LVU136
 465              	.LBB273:
 466              		.loc 6 493 3 view .LVU137
 467              	.LBE273:
 468              	.LBE272:
 469              	.LBE276:
 470              	.LBE279:
 471              	.LBE283:
 472              		.loc 1 191 54 is_stmt 0 view .LVU138
 473 00e0 08B5     		push	{r3, lr}
 474              		.cfi_def_cfa_offset 8
 475              		.cfi_offset 3, -8
 476              		.cfi_offset 14, -4
 477              	.LBB284:
 478              	.LBB280:
 479              	.LBB277:
 480              	.LBB275:
 481              	.LBB274:
 482              		.loc 6 493 3 view .LVU139
 483 00e2 2023     		movs	r3, #32
 484              		.syntax unified
 485              	@ 493 "../../../external/ChibiOS/os/common/ext/ARM/CMSIS/Core/Include/cmsis_gcc.h" 1
 486 00e4 83F31188 		MSR basepri, r3
 487              	@ 0 "" 2
 488              	.LVL28:
 489              		.loc 6 493 3 view .LVU140
 490              		.thumb
 491              		.syntax unified
 492              	.LBE274:
 493              	.LBE275:
 494              	.LBE277:
 495              	.LBE280:
 496              	.LBE284:
 497              		.loc 4 356 34 is_stmt 1 view .LVU141
 498              		.loc 4 357 20 view .LVU142
 499              		.loc 1 195 3 view .LVU143
 500              		.loc 1 195 9 is_stmt 0 view .LVU144
 501 00e8 FFF7FEFF 		bl	ibqGetFullBufferTimeoutS
 502              	.LVL29:
 503              		.loc 1 196 3 is_stmt 1 view .LVU145
 504              	.LBB285:
 505              	.LBI285:
 506              		.loc 3 520 20 view .LVU146
 507              	.LBE285:
ARM GAS  /tmp/ccDQUTww.s 			page 10


 508              		.loc 3 522 3 view .LVU147
 509              	.LBB294:
 510              	.LBB286:
 511              	.LBI286:
 512              		.loc 4 365 20 view .LVU148
 513              	.LBB287:
 514              		.loc 4 367 22 view .LVU149
 515              		.loc 4 368 33 view .LVU150
 516              		.loc 4 374 3 view .LVU151
 517              		.loc 4 374 3 view .LVU152
 518              		.loc 4 378 3 view .LVU153
 519              	.LBB288:
 520              	.LBI288:
 521              		.loc 5 693 27 view .LVU154
 522              	.LBE288:
 523              	.LBE287:
 524              	.LBE286:
 525              	.LBE294:
 526              		.loc 5 696 3 view .LVU155
 527              	.LBB295:
 528              	.LBB293:
 529              	.LBB292:
 530              	.LBB291:
 531              	.LBB289:
 532              	.LBI289:
 533              		.loc 6 491 27 view .LVU156
 534              	.LBB290:
 535              		.loc 6 493 3 view .LVU157
 536 00ec 0023     		movs	r3, #0
 537              		.syntax unified
 538              	@ 493 "../../../external/ChibiOS/os/common/ext/ARM/CMSIS/Core/Include/cmsis_gcc.h" 1
 539 00ee 83F31188 		MSR basepri, r3
 540              	@ 0 "" 2
 541              	.LVL30:
 542              		.loc 6 493 3 is_stmt 0 view .LVU158
 543              		.thumb
 544              		.syntax unified
 545              	.LBE290:
 546              	.LBE289:
 547              	.LBE291:
 548              	.LBE292:
 549              	.LBE293:
 550              	.LBE295:
 551              		.loc 1 198 3 is_stmt 1 view .LVU159
 552              		.loc 1 199 1 is_stmt 0 view .LVU160
 553 00f2 08BD     		pop	{r3, pc}
 554              		.cfi_endproc
 555              	.LFE366:
 556              		.size	ibqGetFullBufferTimeout, .-ibqGetFullBufferTimeout
 557              		.align	1
 558 00f4 AFF30080 		.p2align 4,,15
 558      AFF30080 
 558      AFF30080 
 559              		.global	ibqReleaseEmptyBuffer
 560              		.syntax unified
 561              		.thumb
 562              		.thumb_func
ARM GAS  /tmp/ccDQUTww.s 			page 11


 563              		.fpu fpv4-sp-d16
 564              		.type	ibqReleaseEmptyBuffer, %function
 565              	ibqReleaseEmptyBuffer:
 566              	.LVL31:
 567              	.LFB368:
 568              		.loc 1 254 57 is_stmt 1 view -0
 569              		.cfi_startproc
 570              		@ args = 0, pretend = 0, frame = 0
 571              		@ frame_needed = 0, uses_anonymous_args = 0
 572              		.loc 1 256 3 view .LVU162
 573              	.LBB296:
 574              	.LBI296:
 575              		.loc 3 509 20 view .LVU163
 576              	.LBE296:
 577              		.loc 3 511 3 view .LVU164
 578              	.LBB308:
 579              	.LBB297:
 580              	.LBI297:
 581              		.loc 4 353 20 view .LVU165
 582              	.LBE297:
 583              	.LBE308:
 584              		.loc 4 355 3 view .LVU166
 585              	.LBB309:
 586              	.LBB305:
 587              	.LBB298:
 588              	.LBI298:
 589              		.loc 5 669 27 view .LVU167
 590              	.LBE298:
 591              	.LBE305:
 592              	.LBE309:
 593              		.loc 5 677 3 view .LVU168
 594              	.LBB310:
 595              	.LBB306:
 596              	.LBB303:
 597              	.LBB299:
 598              	.LBI299:
 599              		.loc 6 491 27 view .LVU169
 600              	.LBB300:
 601              		.loc 6 493 3 view .LVU170
 602              	.LBE300:
 603              	.LBE299:
 604              	.LBE303:
 605              	.LBE306:
 606              	.LBE310:
 607              		.loc 1 254 57 is_stmt 0 view .LVU171
 608 0100 10B5     		push	{r4, lr}
 609              		.cfi_def_cfa_offset 8
 610              		.cfi_offset 4, -8
 611              		.cfi_offset 14, -4
 612              	.LBB311:
 613              	.LBB307:
 614              	.LBB304:
 615              	.LBB302:
 616              	.LBB301:
 617              		.loc 6 493 3 view .LVU172
 618 0102 2023     		movs	r3, #32
 619              		.syntax unified
ARM GAS  /tmp/ccDQUTww.s 			page 12


 620              	@ 493 "../../../external/ChibiOS/os/common/ext/ARM/CMSIS/Core/Include/cmsis_gcc.h" 1
 621 0104 83F31188 		MSR basepri, r3
 622              	@ 0 "" 2
 623              	.LVL32:
 624              		.loc 6 493 3 view .LVU173
 625              		.thumb
 626              		.syntax unified
 627              	.LBE301:
 628              	.LBE302:
 629              	.LBE304:
 630              	.LBE307:
 631              	.LBE311:
 632              		.loc 4 356 34 is_stmt 1 view .LVU174
 633              		.loc 4 357 20 view .LVU175
 634              		.loc 1 257 3 view .LVU176
 635              	.LBB312:
 636              	.LBI312:
 637              		.loc 1 269 8 view .LVU177
 638              	.LBB313:
 639              		.loc 1 271 23 view .LVU178
 640              		.loc 1 272 3 view .LVU179
 641              		.loc 1 272 3 view .LVU180
 642              		.loc 1 275 3 view .LVU181
 643              		.loc 1 276 16 is_stmt 0 view .LVU182
 644 0108 4369     		ldr	r3, [r0, #20]
 645 010a C469     		ldr	r4, [r0, #28]
 646              		.loc 1 275 7 view .LVU183
 647 010c C268     		ldr	r2, [r0, #12]
 648              		.loc 1 276 16 view .LVU184
 649 010e 2344     		add	r3, r3, r4
 650              		.loc 1 277 6 view .LVU185
 651 0110 8169     		ldr	r1, [r0, #24]
 652              		.loc 1 275 17 view .LVU186
 653 0112 013A     		subs	r2, r2, #1
 654              		.loc 1 277 6 view .LVU187
 655 0114 8B42     		cmp	r3, r1
 656              		.loc 1 276 16 view .LVU188
 657 0116 4361     		str	r3, [r0, #20]
 658              		.loc 1 275 17 view .LVU189
 659 0118 C260     		str	r2, [r0, #12]
 660              		.loc 1 276 3 is_stmt 1 view .LVU190
 661              		.loc 1 277 3 view .LVU191
 662              		.loc 1 277 6 is_stmt 0 view .LVU192
 663 011a 01D3     		bcc	.L25
 664              		.loc 1 278 5 is_stmt 1 view .LVU193
 665              		.loc 1 278 18 is_stmt 0 view .LVU194
 666 011c 436A     		ldr	r3, [r0, #36]
 667 011e 4361     		str	r3, [r0, #20]
 668              	.L25:
 669              		.loc 1 282 3 is_stmt 1 view .LVU195
 670              		.loc 1 282 13 is_stmt 0 view .LVU196
 671 0120 0022     		movs	r2, #0
 672              		.loc 1 285 11 view .LVU197
 673 0122 036B     		ldr	r3, [r0, #48]
 674              		.loc 1 282 13 view .LVU198
 675 0124 8262     		str	r2, [r0, #40]
 676              		.loc 1 285 3 is_stmt 1 view .LVU199
ARM GAS  /tmp/ccDQUTww.s 			page 13


 677              		.loc 1 285 6 is_stmt 0 view .LVU200
 678 0126 03B1     		cbz	r3, .L26
 679              		.loc 1 286 5 is_stmt 1 view .LVU201
 680 0128 9847     		blx	r3
 681              	.LVL33:
 682              	.L26:
 683              		.loc 1 286 5 is_stmt 0 view .LVU202
 684              	.LBE313:
 685              	.LBE312:
 686              		.loc 1 258 3 is_stmt 1 view .LVU203
 687              	.LBB314:
 688              	.LBI314:
 689              		.loc 3 520 20 view .LVU204
 690              	.LBE314:
 691              		.loc 3 522 3 view .LVU205
 692              	.LBB323:
 693              	.LBB315:
 694              	.LBI315:
 695              		.loc 4 365 20 view .LVU206
 696              	.LBB316:
 697              		.loc 4 367 22 view .LVU207
 698              		.loc 4 368 33 view .LVU208
 699              		.loc 4 374 3 view .LVU209
 700              		.loc 4 374 3 view .LVU210
 701              		.loc 4 378 3 view .LVU211
 702              	.LBB317:
 703              	.LBI317:
 704              		.loc 5 693 27 view .LVU212
 705              	.LBE317:
 706              	.LBE316:
 707              	.LBE315:
 708              	.LBE323:
 709              		.loc 5 696 3 view .LVU213
 710              	.LBB324:
 711              	.LBB322:
 712              	.LBB321:
 713              	.LBB320:
 714              	.LBB318:
 715              	.LBI318:
 716              		.loc 6 491 27 view .LVU214
 717              	.LBB319:
 718              		.loc 6 493 3 view .LVU215
 719 012a 0023     		movs	r3, #0
 720              		.syntax unified
 721              	@ 493 "../../../external/ChibiOS/os/common/ext/ARM/CMSIS/Core/Include/cmsis_gcc.h" 1
 722 012c 83F31188 		MSR basepri, r3
 723              	@ 0 "" 2
 724              	.LVL34:
 725              		.loc 6 493 3 is_stmt 0 view .LVU216
 726              		.thumb
 727              		.syntax unified
 728              	.LBE319:
 729              	.LBE318:
 730              	.LBE320:
 731              	.LBE321:
 732              	.LBE322:
 733              	.LBE324:
ARM GAS  /tmp/ccDQUTww.s 			page 14


 734              		.loc 1 259 1 view .LVU217
 735 0130 10BD     		pop	{r4, pc}
 736              		.cfi_endproc
 737              	.LFE368:
 738              		.size	ibqReleaseEmptyBuffer, .-ibqReleaseEmptyBuffer
 739              		.align	1
 740 0132 00BFAFF3 		.p2align 4,,15
 740      0080AFF3 
 740      0080AFF3 
 740      0080
 741              		.global	ibqReleaseEmptyBufferS
 742              		.syntax unified
 743              		.thumb
 744              		.thumb_func
 745              		.fpu fpv4-sp-d16
 746              		.type	ibqReleaseEmptyBufferS, %function
 747              	ibqReleaseEmptyBufferS:
 748              	.LVL35:
 749              	.LFB369:
 750              		.loc 1 269 60 is_stmt 1 view -0
 751              		.cfi_startproc
 752              		@ args = 0, pretend = 0, frame = 0
 753              		@ frame_needed = 0, uses_anonymous_args = 0
 754              		@ link register save eliminated.
 755              		.loc 1 271 23 view .LVU219
 756              		.loc 1 272 3 view .LVU220
 757              		.loc 1 272 3 view .LVU221
 758              		.loc 1 275 3 view .LVU222
 759              		.loc 1 276 16 is_stmt 0 view .LVU223
 760 0140 4369     		ldr	r3, [r0, #20]
 761              		.loc 1 275 7 view .LVU224
 762 0142 C268     		ldr	r2, [r0, #12]
 763              		.loc 1 277 6 view .LVU225
 764 0144 8169     		ldr	r1, [r0, #24]
 765              		.loc 1 275 17 view .LVU226
 766 0146 013A     		subs	r2, r2, #1
 767              		.loc 1 269 60 view .LVU227
 768 0148 10B4     		push	{r4}
 769              		.cfi_def_cfa_offset 4
 770              		.cfi_offset 4, -4
 771              		.loc 1 276 16 view .LVU228
 772 014a C469     		ldr	r4, [r0, #28]
 773              		.loc 1 275 17 view .LVU229
 774 014c C260     		str	r2, [r0, #12]
 775              		.loc 1 276 3 is_stmt 1 view .LVU230
 776              		.loc 1 276 16 is_stmt 0 view .LVU231
 777 014e 2344     		add	r3, r3, r4
 778              		.loc 1 277 6 view .LVU232
 779 0150 8B42     		cmp	r3, r1
 780              		.loc 1 276 16 view .LVU233
 781 0152 4361     		str	r3, [r0, #20]
 782              		.loc 1 277 3 is_stmt 1 view .LVU234
 783              		.loc 1 277 6 is_stmt 0 view .LVU235
 784 0154 01D3     		bcc	.L32
 785              		.loc 1 278 5 is_stmt 1 view .LVU236
 786              		.loc 1 278 18 is_stmt 0 view .LVU237
 787 0156 436A     		ldr	r3, [r0, #36]
ARM GAS  /tmp/ccDQUTww.s 			page 15


 788 0158 4361     		str	r3, [r0, #20]
 789              	.L32:
 790              		.loc 1 282 3 is_stmt 1 view .LVU238
 791              		.loc 1 282 13 is_stmt 0 view .LVU239
 792 015a 0022     		movs	r2, #0
 793              		.loc 1 285 11 view .LVU240
 794 015c 036B     		ldr	r3, [r0, #48]
 795              		.loc 1 282 13 view .LVU241
 796 015e 8262     		str	r2, [r0, #40]
 797              		.loc 1 285 3 is_stmt 1 view .LVU242
 798              		.loc 1 285 6 is_stmt 0 view .LVU243
 799 0160 13B1     		cbz	r3, .L31
 800              		.loc 1 286 5 is_stmt 1 view .LVU244
 801              		.loc 1 288 1 is_stmt 0 view .LVU245
 802 0162 5DF8044B 		ldr	r4, [sp], #4
 803              		.cfi_remember_state
 804              		.cfi_restore 4
 805              		.cfi_def_cfa_offset 0
 806              		.loc 1 286 5 view .LVU246
 807 0166 1847     		bx	r3	@ indirect register sibling call
 808              	.LVL36:
 809              	.L31:
 810              		.cfi_restore_state
 811              		.loc 1 288 1 view .LVU247
 812 0168 5DF8044B 		ldr	r4, [sp], #4
 813              		.cfi_restore 4
 814              		.cfi_def_cfa_offset 0
 815 016c 7047     		bx	lr
 816              		.cfi_endproc
 817              	.LFE369:
 818              		.size	ibqReleaseEmptyBufferS, .-ibqReleaseEmptyBufferS
 819              		.align	1
 820 016e 00BF     		.p2align 4,,15
 821              		.global	ibqGetTimeout
 822              		.syntax unified
 823              		.thumb
 824              		.thumb_func
 825              		.fpu fpv4-sp-d16
 826              		.type	ibqGetTimeout, %function
 827              	ibqGetTimeout:
 828              	.LVL37:
 829              	.LFB370:
 830              		.loc 1 309 73 is_stmt 1 view -0
 831              		.cfi_startproc
 832              		@ args = 0, pretend = 0, frame = 0
 833              		@ frame_needed = 0, uses_anonymous_args = 0
 834              		.loc 1 310 3 view .LVU249
 835              		.loc 1 312 3 view .LVU250
 836              	.LBB325:
 837              	.LBI325:
 838              		.loc 3 509 20 view .LVU251
 839              	.LBE325:
 840              		.loc 3 511 3 view .LVU252
 841              	.LBB341:
 842              	.LBB326:
 843              	.LBI326:
 844              		.loc 4 353 20 view .LVU253
ARM GAS  /tmp/ccDQUTww.s 			page 16


 845              	.LBE326:
 846              	.LBE341:
 847              		.loc 4 355 3 view .LVU254
 848              	.LBB342:
 849              	.LBB337:
 850              	.LBB327:
 851              	.LBI327:
 852              		.loc 5 669 27 view .LVU255
 853              	.LBE327:
 854              	.LBE337:
 855              	.LBE342:
 856              		.loc 5 677 3 view .LVU256
 857              	.LBB343:
 858              	.LBB338:
 859              	.LBB334:
 860              	.LBB328:
 861              	.LBI328:
 862              		.loc 6 491 27 view .LVU257
 863              	.LBB329:
 864              		.loc 6 493 3 view .LVU258
 865              	.LBE329:
 866              	.LBE328:
 867              	.LBE334:
 868              	.LBE338:
 869              	.LBE343:
 870              		.loc 1 309 73 is_stmt 0 view .LVU259
 871 0170 70B5     		push	{r4, r5, r6, lr}
 872              		.cfi_def_cfa_offset 16
 873              		.cfi_offset 4, -16
 874              		.cfi_offset 5, -12
 875              		.cfi_offset 6, -8
 876              		.cfi_offset 14, -4
 877              	.LBB344:
 878              	.LBB339:
 879              	.LBB335:
 880              	.LBB332:
 881              	.LBB330:
 882              		.loc 6 493 3 view .LVU260
 883 0172 2023     		movs	r3, #32
 884              	.LBE330:
 885              	.LBE332:
 886              	.LBE335:
 887              	.LBE339:
 888              	.LBE344:
 889              		.loc 1 309 73 view .LVU261
 890 0174 0446     		mov	r4, r0
 891              	.LBB345:
 892              	.LBB340:
 893              	.LBB336:
 894              	.LBB333:
 895              	.LBB331:
 896              		.loc 6 493 3 view .LVU262
 897              		.syntax unified
 898              	@ 493 "../../../external/ChibiOS/os/common/ext/ARM/CMSIS/Core/Include/cmsis_gcc.h" 1
 899 0176 83F31188 		MSR basepri, r3
 900              	@ 0 "" 2
 901              	.LVL38:
ARM GAS  /tmp/ccDQUTww.s 			page 17


 902              		.loc 6 493 3 view .LVU263
 903              		.thumb
 904              		.syntax unified
 905              	.LBE331:
 906              	.LBE333:
 907              	.LBE336:
 908              	.LBE340:
 909              	.LBE345:
 910              		.loc 4 356 34 is_stmt 1 view .LVU264
 911              		.loc 4 357 20 view .LVU265
 912              		.loc 1 315 3 view .LVU266
 913              		.loc 1 315 11 is_stmt 0 view .LVU267
 914 017a 856A     		ldr	r5, [r0, #40]
 915              		.loc 1 315 6 view .LVU268
 916 017c E5B1     		cbz	r5, .L47
 917              	.LVL39:
 918              	.L36:
 919              		.loc 1 324 3 is_stmt 1 view .LVU269
 920              		.loc 1 324 7 is_stmt 0 view .LVU270
 921 017e 15F8016B 		ldrb	r6, [r5], #1	@ zero_extendqisi2
 922              	.LVL40:
 923              		.loc 1 325 3 is_stmt 1 view .LVU271
 924              		.loc 1 329 6 is_stmt 0 view .LVU272
 925 0182 E26A     		ldr	r2, [r4, #44]
 926              		.loc 1 325 12 view .LVU273
 927 0184 A562     		str	r5, [r4, #40]
 928              		.loc 1 329 3 is_stmt 1 view .LVU274
 929              		.loc 1 329 6 is_stmt 0 view .LVU275
 930 0186 9542     		cmp	r5, r2
 931 0188 11D3     		bcc	.L40
 932              		.loc 1 330 5 is_stmt 1 view .LVU276
 933              	.LVL41:
 934              	.LBB346:
 935              	.LBI346:
 936              		.loc 1 269 8 view .LVU277
 937              	.LBB347:
 938              		.loc 1 271 23 view .LVU278
 939              		.loc 1 272 3 view .LVU279
 940              		.loc 1 272 3 view .LVU280
 941              		.loc 1 275 3 view .LVU281
 942              		.loc 1 276 16 is_stmt 0 view .LVU282
 943 018a 6369     		ldr	r3, [r4, #20]
 944 018c E069     		ldr	r0, [r4, #28]
 945              		.loc 1 275 7 view .LVU283
 946 018e E268     		ldr	r2, [r4, #12]
 947              		.loc 1 276 16 view .LVU284
 948 0190 0344     		add	r3, r3, r0
 949              		.loc 1 277 6 view .LVU285
 950 0192 A169     		ldr	r1, [r4, #24]
 951              		.loc 1 275 17 view .LVU286
 952 0194 013A     		subs	r2, r2, #1
 953              		.loc 1 277 6 view .LVU287
 954 0196 8B42     		cmp	r3, r1
 955              		.loc 1 276 16 view .LVU288
 956 0198 6361     		str	r3, [r4, #20]
 957              		.loc 1 275 17 view .LVU289
 958 019a E260     		str	r2, [r4, #12]
ARM GAS  /tmp/ccDQUTww.s 			page 18


 959              		.loc 1 276 3 is_stmt 1 view .LVU290
 960              		.loc 1 277 3 view .LVU291
 961              		.loc 1 277 6 is_stmt 0 view .LVU292
 962 019c 01D3     		bcc	.L41
 963              		.loc 1 278 5 is_stmt 1 view .LVU293
 964              		.loc 1 278 18 is_stmt 0 view .LVU294
 965 019e 636A     		ldr	r3, [r4, #36]
 966 01a0 6361     		str	r3, [r4, #20]
 967              	.L41:
 968              		.loc 1 282 3 is_stmt 1 view .LVU295
 969              		.loc 1 282 13 is_stmt 0 view .LVU296
 970 01a2 0022     		movs	r2, #0
 971              		.loc 1 285 11 view .LVU297
 972 01a4 236B     		ldr	r3, [r4, #48]
 973              		.loc 1 282 13 view .LVU298
 974 01a6 A262     		str	r2, [r4, #40]
 975              		.loc 1 285 3 is_stmt 1 view .LVU299
 976              		.loc 1 285 6 is_stmt 0 view .LVU300
 977 01a8 0BB1     		cbz	r3, .L40
 978              		.loc 1 286 5 is_stmt 1 view .LVU301
 979 01aa 2046     		mov	r0, r4
 980 01ac 9847     		blx	r3
 981              	.LVL42:
 982              	.L40:
 983              		.loc 1 286 5 is_stmt 0 view .LVU302
 984              	.LBE347:
 985              	.LBE346:
 986              		.loc 1 333 3 is_stmt 1 view .LVU303
 987              	.LBB348:
 988              	.LBI348:
 989              		.loc 3 520 20 view .LVU304
 990              	.LBE348:
 991              		.loc 3 522 3 view .LVU305
 992              	.LBB357:
 993              	.LBB349:
 994              	.LBI349:
 995              		.loc 4 365 20 view .LVU306
 996              	.LBB350:
 997              		.loc 4 367 22 view .LVU307
 998              		.loc 4 368 33 view .LVU308
 999              		.loc 4 374 3 view .LVU309
 1000              		.loc 4 374 3 view .LVU310
 1001              		.loc 4 378 3 view .LVU311
 1002              	.LBB351:
 1003              	.LBI351:
 1004              		.loc 5 693 27 view .LVU312
 1005              	.LBE351:
 1006              	.LBE350:
 1007              	.LBE349:
 1008              	.LBE357:
 1009              		.loc 5 696 3 view .LVU313
 1010              	.LBB358:
 1011              	.LBB356:
 1012              	.LBB355:
 1013              	.LBB354:
 1014              	.LBB352:
 1015              	.LBI352:
ARM GAS  /tmp/ccDQUTww.s 			page 19


 1016              		.loc 6 491 27 view .LVU314
 1017              	.LBB353:
 1018              		.loc 6 493 3 view .LVU315
 1019 01ae 0023     		movs	r3, #0
 1020              		.syntax unified
 1021              	@ 493 "../../../external/ChibiOS/os/common/ext/ARM/CMSIS/Core/Include/cmsis_gcc.h" 1
 1022 01b0 83F31188 		MSR basepri, r3
 1023              	@ 0 "" 2
 1024              	.LVL43:
 1025              		.loc 6 493 3 is_stmt 0 view .LVU316
 1026              		.thumb
 1027              		.syntax unified
 1028              	.LBE353:
 1029              	.LBE352:
 1030              	.LBE354:
 1031              	.LBE355:
 1032              	.LBE356:
 1033              	.LBE358:
 1034              		.loc 1 334 3 is_stmt 1 view .LVU317
 1035              	.L35:
 1036              		.loc 1 335 1 is_stmt 0 view .LVU318
 1037 01b4 3046     		mov	r0, r6
 1038 01b6 70BD     		pop	{r4, r5, r6, pc}
 1039              	.LVL44:
 1040              	.L47:
 1041              		.loc 1 316 5 is_stmt 1 view .LVU319
 1042              		.loc 1 316 11 is_stmt 0 view .LVU320
 1043 01b8 FFF7FEFF 		bl	ibqGetFullBufferTimeoutS
 1044              	.LVL45:
 1045              		.loc 1 317 5 is_stmt 1 view .LVU321
 1046              		.loc 1 317 8 is_stmt 0 view .LVU322
 1047 01bc 0646     		mov	r6, r0
 1048 01be 08B9     		cbnz	r0, .L37
 1049 01c0 A56A     		ldr	r5, [r4, #40]
 1050 01c2 DCE7     		b	.L36
 1051              	.L37:
 1052              		.loc 1 318 7 is_stmt 1 view .LVU323
 1053              	.LBB359:
 1054              	.LBI359:
 1055              		.loc 3 520 20 view .LVU324
 1056              	.LBE359:
 1057              		.loc 3 522 3 view .LVU325
 1058              	.LBB368:
 1059              	.LBB360:
 1060              	.LBI360:
 1061              		.loc 4 365 20 view .LVU326
 1062              	.LBB361:
 1063              		.loc 4 367 22 view .LVU327
 1064              		.loc 4 368 33 view .LVU328
 1065              		.loc 4 374 3 view .LVU329
 1066              		.loc 4 374 3 view .LVU330
 1067              		.loc 4 378 3 view .LVU331
 1068              	.LBB362:
 1069              	.LBI362:
 1070              		.loc 5 693 27 view .LVU332
 1071              	.LBE362:
 1072              	.LBE361:
ARM GAS  /tmp/ccDQUTww.s 			page 20


 1073              	.LBE360:
 1074              	.LBE368:
 1075              		.loc 5 696 3 view .LVU333
 1076              	.LVL46:
 1077              	.LBB369:
 1078              	.LBB367:
 1079              	.LBB366:
 1080              	.LBB365:
 1081              	.LBB363:
 1082              	.LBI363:
 1083              		.loc 6 491 27 view .LVU334
 1084              	.LBB364:
 1085              		.loc 6 493 3 view .LVU335
 1086              		.syntax unified
 1087              	@ 493 "../../../external/ChibiOS/os/common/ext/ARM/CMSIS/Core/Include/cmsis_gcc.h" 1
 1088 01c4 85F31188 		MSR basepri, r5
 1089              	@ 0 "" 2
 1090              	.LVL47:
 1091              		.loc 6 493 3 is_stmt 0 view .LVU336
 1092              		.thumb
 1093              		.syntax unified
 1094              	.LBE364:
 1095              	.LBE363:
 1096              	.LBE365:
 1097              	.LBE366:
 1098              	.LBE367:
 1099              	.LBE369:
 1100              		.loc 1 319 7 is_stmt 1 view .LVU337
 1101              		.loc 1 319 14 is_stmt 0 view .LVU338
 1102 01c8 F4E7     		b	.L35
 1103              		.cfi_endproc
 1104              	.LFE370:
 1105              		.size	ibqGetTimeout, .-ibqGetTimeout
 1106              		.align	1
 1107 01ca 00BFAFF3 		.p2align 4,,15
 1107      0080
 1108              		.global	ibqReadTimeout
 1109              		.syntax unified
 1110              		.thumb
 1111              		.thumb_func
 1112              		.fpu fpv4-sp-d16
 1113              		.type	ibqReadTimeout, %function
 1114              	ibqReadTimeout:
 1115              	.LVL48:
 1116              	.LFB371:
 1117              		.loc 1 359 56 is_stmt 1 view -0
 1118              		.cfi_startproc
 1119              		@ args = 0, pretend = 0, frame = 8
 1120              		@ frame_needed = 0, uses_anonymous_args = 0
 1121              		.loc 1 360 3 view .LVU340
 1122              		.loc 1 362 3 view .LVU341
 1123              		.loc 1 362 3 view .LVU342
 1124              		.loc 1 364 3 view .LVU343
 1125              	.LBB370:
 1126              	.LBI370:
 1127              		.loc 3 509 20 view .LVU344
 1128              	.LBE370:
ARM GAS  /tmp/ccDQUTww.s 			page 21


 1129              		.loc 3 511 3 view .LVU345
 1130              	.LBB382:
 1131              	.LBB371:
 1132              	.LBI371:
 1133              		.loc 4 353 20 view .LVU346
 1134              	.LBE371:
 1135              	.LBE382:
 1136              		.loc 4 355 3 view .LVU347
 1137              	.LBB383:
 1138              	.LBB379:
 1139              	.LBB372:
 1140              	.LBI372:
 1141              		.loc 5 669 27 view .LVU348
 1142              	.LBE372:
 1143              	.LBE379:
 1144              	.LBE383:
 1145              		.loc 5 677 3 view .LVU349
 1146              	.LBB384:
 1147              	.LBB380:
 1148              	.LBB377:
 1149              	.LBB373:
 1150              	.LBI373:
 1151              		.loc 6 491 27 view .LVU350
 1152              	.LBB374:
 1153              		.loc 6 493 3 view .LVU351
 1154              	.LBE374:
 1155              	.LBE373:
 1156              	.LBE377:
 1157              	.LBE380:
 1158              	.LBE384:
 1159              		.loc 1 359 56 is_stmt 0 view .LVU352
 1160 01d0 2DE9F04F 		push	{r4, r5, r6, r7, r8, r9, r10, fp, lr}
 1161              		.cfi_def_cfa_offset 36
 1162              		.cfi_offset 4, -36
 1163              		.cfi_offset 5, -32
 1164              		.cfi_offset 6, -28
 1165              		.cfi_offset 7, -24
 1166              		.cfi_offset 8, -20
 1167              		.cfi_offset 9, -16
 1168              		.cfi_offset 10, -12
 1169              		.cfi_offset 11, -8
 1170              		.cfi_offset 14, -4
 1171 01d4 83B0     		sub	sp, sp, #12
 1172              		.cfi_def_cfa_offset 48
 1173              		.loc 1 359 56 view .LVU353
 1174 01d6 0546     		mov	r5, r0
 1175 01d8 0E46     		mov	r6, r1
 1176 01da 1746     		mov	r7, r2
 1177 01dc 0193     		str	r3, [sp, #4]
 1178              	.LBB385:
 1179              	.LBB381:
 1180              	.LBB378:
 1181              	.LBB376:
 1182              	.LBB375:
 1183              		.loc 6 493 3 view .LVU354
 1184 01de 4FF02009 		mov	r9, #32
 1185              		.syntax unified
ARM GAS  /tmp/ccDQUTww.s 			page 22


 1186              	@ 493 "../../../external/ChibiOS/os/common/ext/ARM/CMSIS/Core/Include/cmsis_gcc.h" 1
 1187 01e2 89F31188 		MSR basepri, r9
 1188              	@ 0 "" 2
 1189              	.LVL49:
 1190              		.loc 6 493 3 view .LVU355
 1191              		.thumb
 1192              		.syntax unified
 1193              	.LBE375:
 1194              	.LBE376:
 1195              	.LBE378:
 1196              	.LBE381:
 1197              	.LBE385:
 1198              		.loc 4 356 34 is_stmt 1 view .LVU356
 1199              		.loc 4 357 20 view .LVU357
 1200              		.loc 1 360 10 is_stmt 0 view .LVU358
 1201 01e6 4FF0000B 		mov	fp, #0
 1202              	.LVL50:
 1203              		.loc 1 366 3 is_stmt 1 view .LVU359
 1204              	.LBB386:
 1205              		.loc 1 367 5 view .LVU360
 1206              		.loc 1 370 5 view .LVU361
 1207              		.loc 1 370 13 is_stmt 0 view .LVU362
 1208 01ea AC6A     		ldr	r4, [r5, #40]
 1209              	.LBB387:
 1210              	.LBB388:
 1211              		.loc 1 282 13 view .LVU363
 1212 01ec D846     		mov	r8, fp
 1213              	.LBE388:
 1214              	.LBE387:
 1215              		.loc 1 370 8 view .LVU364
 1216 01ee 002C     		cmp	r4, #0
 1217 01f0 45D0     		beq	.L65
 1218              	.LVL51:
 1219              	.L49:
 1220              		.loc 1 384 5 is_stmt 1 view .LVU365
 1221              		.loc 1 384 10 is_stmt 0 view .LVU366
 1222 01f2 EA6A     		ldr	r2, [r5, #44]
 1223              		.loc 1 385 19 view .LVU367
 1224 01f4 A7EB0B03 		sub	r3, r7, fp
 1225              		.loc 1 393 7 view .LVU368
 1226 01f8 2146     		mov	r1, r4
 1227              		.loc 1 384 10 view .LVU369
 1228 01fa 121B     		subs	r2, r2, r4
 1229              	.LVL52:
 1230              		.loc 1 385 5 is_stmt 1 view .LVU370
 1231 01fc 9342     		cmp	r3, r2
 1232 01fe 28BF     		it	cs
 1233 0200 1346     		movcs	r3, r2
 1234              		.loc 1 391 8 is_stmt 0 view .LVU371
 1235 0202 402B     		cmp	r3, #64
 1236 0204 9A46     		mov	r10, r3
 1237              	.LVL53:
 1238              		.loc 1 391 5 is_stmt 1 view .LVU372
 1239              		.loc 1 391 8 is_stmt 0 view .LVU373
 1240 0206 41D9     		bls	.L52
 1241              		.loc 1 393 7 is_stmt 1 view .LVU374
 1242 0208 3346     		mov	r3, r6
ARM GAS  /tmp/ccDQUTww.s 			page 23


 1243              	.LVL54:
 1244              		.loc 1 393 7 is_stmt 0 view .LVU375
 1245 020a 04F1400E 		add	lr, r4, #64
 1246              	.L53:
 1247              		.loc 1 393 7 view .LVU376
 1248 020e D1F800C0 		ldr	ip, [r1]	@ unaligned
 1249 0212 1031     		adds	r1, r1, #16
 1250 0214 51F80C4C 		ldr	r4, [r1, #-12]	@ unaligned
 1251 0218 1033     		adds	r3, r3, #16
 1252 021a 51F8080C 		ldr	r0, [r1, #-8]	@ unaligned
 1253 021e 51F8042C 		ldr	r2, [r1, #-4]	@ unaligned
 1254 0222 7145     		cmp	r1, lr
 1255 0224 43F810CC 		str	ip, [r3, #-16]	@ unaligned
 1256 0228 43F80C4C 		str	r4, [r3, #-12]	@ unaligned
 1257 022c 43F8080C 		str	r0, [r3, #-8]	@ unaligned
 1258 0230 43F8042C 		str	r2, [r3, #-4]	@ unaligned
 1259 0234 EBD1     		bne	.L53
 1260              		.loc 1 394 7 is_stmt 1 view .LVU377
 1261              		.loc 1 395 17 is_stmt 0 view .LVU378
 1262 0236 AB6A     		ldr	r3, [r5, #40]
 1263              		.loc 1 394 17 view .LVU379
 1264 0238 4036     		adds	r6, r6, #64
 1265              	.LVL55:
 1266              		.loc 1 395 7 is_stmt 1 view .LVU380
 1267              		.loc 1 396 17 is_stmt 0 view .LVU381
 1268 023a 0BF1400B 		add	fp, fp, #64
 1269              	.LVL56:
 1270              		.loc 1 395 17 view .LVU382
 1271 023e 4033     		adds	r3, r3, #64
 1272 0240 AB62     		str	r3, [r5, #40]
 1273              		.loc 1 396 7 is_stmt 1 view .LVU383
 1274              	.LVL57:
 1275              	.L54:
 1276              		.loc 1 406 5 view .LVU384
 1277              		.loc 1 406 8 is_stmt 0 view .LVU385
 1278 0242 EA6A     		ldr	r2, [r5, #44]
 1279 0244 9A42     		cmp	r2, r3
 1280 0246 11D8     		bhi	.L56
 1281              		.loc 1 407 7 is_stmt 1 view .LVU386
 1282              	.LVL58:
 1283              	.LBB390:
 1284              	.LBI387:
 1285              		.loc 1 269 8 view .LVU387
 1286              	.LBB389:
 1287              		.loc 1 271 23 view .LVU388
 1288              		.loc 1 272 3 view .LVU389
 1289              		.loc 1 272 3 view .LVU390
 1290              		.loc 1 275 3 view .LVU391
 1291              		.loc 1 276 16 is_stmt 0 view .LVU392
 1292 0248 6B69     		ldr	r3, [r5, #20]
 1293 024a E969     		ldr	r1, [r5, #28]
 1294              		.loc 1 275 7 view .LVU393
 1295 024c E868     		ldr	r0, [r5, #12]
 1296              		.loc 1 276 16 view .LVU394
 1297 024e 0B44     		add	r3, r3, r1
 1298              		.loc 1 277 6 view .LVU395
 1299 0250 AA69     		ldr	r2, [r5, #24]
ARM GAS  /tmp/ccDQUTww.s 			page 24


 1300              		.loc 1 275 17 view .LVU396
 1301 0252 0138     		subs	r0, r0, #1
 1302              		.loc 1 277 6 view .LVU397
 1303 0254 9342     		cmp	r3, r2
 1304              		.loc 1 276 16 view .LVU398
 1305 0256 6B61     		str	r3, [r5, #20]
 1306              		.loc 1 275 17 view .LVU399
 1307 0258 E860     		str	r0, [r5, #12]
 1308              		.loc 1 276 3 is_stmt 1 view .LVU400
 1309              		.loc 1 277 3 view .LVU401
 1310              		.loc 1 277 6 is_stmt 0 view .LVU402
 1311 025a 01D3     		bcc	.L57
 1312              		.loc 1 278 5 is_stmt 1 view .LVU403
 1313              		.loc 1 278 18 is_stmt 0 view .LVU404
 1314 025c 6B6A     		ldr	r3, [r5, #36]
 1315 025e 6B61     		str	r3, [r5, #20]
 1316              	.L57:
 1317              		.loc 1 282 3 is_stmt 1 view .LVU405
 1318              		.loc 1 285 11 is_stmt 0 view .LVU406
 1319 0260 2B6B     		ldr	r3, [r5, #48]
 1320              		.loc 1 282 13 view .LVU407
 1321 0262 C5F82880 		str	r8, [r5, #40]
 1322              		.loc 1 285 3 is_stmt 1 view .LVU408
 1323              		.loc 1 285 6 is_stmt 0 view .LVU409
 1324 0266 0BB1     		cbz	r3, .L56
 1325              		.loc 1 286 5 is_stmt 1 view .LVU410
 1326 0268 2846     		mov	r0, r5
 1327 026a 9847     		blx	r3
 1328              	.LVL59:
 1329              	.L56:
 1330              		.loc 1 286 5 is_stmt 0 view .LVU411
 1331              	.LBE389:
 1332              	.LBE390:
 1333              		.loc 1 411 5 is_stmt 1 view .LVU412
 1334              	.LBB391:
 1335              	.LBI391:
 1336              		.loc 3 520 20 view .LVU413
 1337              	.LBE391:
 1338              	.LBE386:
 1339              		.loc 3 522 3 view .LVU414
 1340              	.LBB428:
 1341              	.LBB400:
 1342              	.LBB392:
 1343              	.LBI392:
 1344              		.loc 4 365 20 view .LVU415
 1345              	.LBB393:
 1346              		.loc 4 367 22 view .LVU416
 1347              		.loc 4 368 33 view .LVU417
 1348              		.loc 4 374 3 view .LVU418
 1349              		.loc 4 374 3 view .LVU419
 1350              		.loc 4 378 3 view .LVU420
 1351              	.LBB394:
 1352              	.LBI394:
 1353              		.loc 5 693 27 view .LVU421
 1354              	.LBE394:
 1355              	.LBE393:
 1356              	.LBE392:
ARM GAS  /tmp/ccDQUTww.s 			page 25


 1357              	.LBE400:
 1358              	.LBE428:
 1359              		.loc 5 696 3 view .LVU422
 1360              	.LBB429:
 1361              	.LBB401:
 1362              	.LBB399:
 1363              	.LBB398:
 1364              	.LBB397:
 1365              	.LBB395:
 1366              	.LBI395:
 1367              		.loc 6 491 27 view .LVU423
 1368              	.LBB396:
 1369              		.loc 6 493 3 view .LVU424
 1370              		.syntax unified
 1371              	@ 493 "../../../external/ChibiOS/os/common/ext/ARM/CMSIS/Core/Include/cmsis_gcc.h" 1
 1372 026c 88F31188 		MSR basepri, r8
 1373              	@ 0 "" 2
 1374              	.LVL60:
 1375              		.loc 6 493 3 is_stmt 0 view .LVU425
 1376              		.thumb
 1377              		.syntax unified
 1378              	.LBE396:
 1379              	.LBE395:
 1380              	.LBE397:
 1381              	.LBE398:
 1382              	.LBE399:
 1383              	.LBE401:
 1384              		.loc 1 412 5 is_stmt 1 view .LVU426
 1385              		.loc 1 412 8 is_stmt 0 view .LVU427
 1386 0270 BB45     		cmp	fp, r7
 1387 0272 18D2     		bcs	.L48
 1388              		.loc 1 415 5 is_stmt 1 view .LVU428
 1389              	.LBB402:
 1390              	.LBI402:
 1391              		.loc 3 509 20 view .LVU429
 1392              	.LBE402:
 1393              	.LBE429:
 1394              		.loc 3 511 3 view .LVU430
 1395              	.LBB430:
 1396              	.LBB410:
 1397              	.LBB403:
 1398              	.LBI403:
 1399              		.loc 4 353 20 view .LVU431
 1400              	.LBE403:
 1401              	.LBE410:
 1402              	.LBE430:
 1403              		.loc 4 355 3 view .LVU432
 1404              	.LBB431:
 1405              	.LBB411:
 1406              	.LBB408:
 1407              	.LBB404:
 1408              	.LBI404:
 1409              		.loc 5 669 27 view .LVU433
 1410              	.LBE404:
 1411              	.LBE408:
 1412              	.LBE411:
 1413              	.LBE431:
ARM GAS  /tmp/ccDQUTww.s 			page 26


 1414              		.loc 5 677 3 view .LVU434
 1415              	.LVL61:
 1416              	.LBB432:
 1417              	.LBB412:
 1418              	.LBB409:
 1419              	.LBB407:
 1420              	.LBB405:
 1421              	.LBI405:
 1422              		.loc 6 491 27 view .LVU435
 1423              	.LBB406:
 1424              		.loc 6 493 3 view .LVU436
 1425              		.syntax unified
 1426              	@ 493 "../../../external/ChibiOS/os/common/ext/ARM/CMSIS/Core/Include/cmsis_gcc.h" 1
 1427 0274 89F31188 		MSR basepri, r9
 1428              	@ 0 "" 2
 1429              	.LVL62:
 1430              		.loc 6 493 3 is_stmt 0 view .LVU437
 1431              		.thumb
 1432              		.syntax unified
 1433              	.LBE406:
 1434              	.LBE405:
 1435              	.LBE407:
 1436              	.LBE409:
 1437              	.LBE412:
 1438              	.LBE432:
 1439              		.loc 4 356 34 is_stmt 1 view .LVU438
 1440              		.loc 4 357 20 view .LVU439
 1441              		.loc 1 366 3 view .LVU440
 1442              	.LBB433:
 1443              		.loc 1 367 5 view .LVU441
 1444              		.loc 1 370 5 view .LVU442
 1445              		.loc 1 370 13 is_stmt 0 view .LVU443
 1446 0278 AC6A     		ldr	r4, [r5, #40]
 1447              		.loc 1 370 8 view .LVU444
 1448 027a 002C     		cmp	r4, #0
 1449 027c B9D1     		bne	.L49
 1450              	.LVL63:
 1451              	.L65:
 1452              	.LBB413:
 1453              		.loc 1 371 7 is_stmt 1 view .LVU445
 1454              		.loc 1 374 7 view .LVU446
 1455              		.loc 1 374 13 is_stmt 0 view .LVU447
 1456 027e 0199     		ldr	r1, [sp, #4]
 1457 0280 2846     		mov	r0, r5
 1458 0282 FFF7FEFF 		bl	ibqGetFullBufferTimeoutS
 1459              	.LVL64:
 1460              		.loc 1 377 7 is_stmt 1 view .LVU448
 1461              		.loc 1 377 10 is_stmt 0 view .LVU449
 1462 0286 60B9     		cbnz	r0, .L50
 1463 0288 AC6A     		ldr	r4, [r5, #40]
 1464 028a B2E7     		b	.L49
 1465              	.LVL65:
 1466              	.L52:
 1467              		.loc 1 377 10 view .LVU450
 1468              	.LBE413:
 1469              		.loc 1 399 7 is_stmt 1 view .LVU451
 1470 028c 1A46     		mov	r2, r3
ARM GAS  /tmp/ccDQUTww.s 			page 27


 1471 028e 3046     		mov	r0, r6
 1472              		.loc 1 402 17 is_stmt 0 view .LVU452
 1473 0290 9B44     		add	fp, fp, r3
 1474              	.LVL66:
 1475              		.loc 1 399 7 view .LVU453
 1476 0292 FFF7FEFF 		bl	memcpy
 1477              	.LVL67:
 1478              		.loc 1 400 7 is_stmt 1 view .LVU454
 1479              		.loc 1 401 17 is_stmt 0 view .LVU455
 1480 0296 AA6A     		ldr	r2, [r5, #40]
 1481              		.loc 1 400 17 view .LVU456
 1482 0298 5644     		add	r6, r6, r10
 1483              	.LVL68:
 1484              		.loc 1 401 7 is_stmt 1 view .LVU457
 1485              		.loc 1 401 17 is_stmt 0 view .LVU458
 1486 029a 02EB0A03 		add	r3, r2, r10
 1487 029e AB62     		str	r3, [r5, #40]
 1488              		.loc 1 402 7 is_stmt 1 view .LVU459
 1489              	.LVL69:
 1490              		.loc 1 402 7 is_stmt 0 view .LVU460
 1491 02a0 CFE7     		b	.L54
 1492              	.LVL70:
 1493              	.L50:
 1494              	.LBB425:
 1495              		.loc 1 378 9 is_stmt 1 view .LVU461
 1496              	.LBB414:
 1497              	.LBI414:
 1498              		.loc 3 520 20 view .LVU462
 1499              	.LBE414:
 1500              	.LBE425:
 1501              	.LBE433:
 1502              		.loc 3 522 3 view .LVU463
 1503              	.LBB434:
 1504              	.LBB426:
 1505              	.LBB423:
 1506              	.LBB415:
 1507              	.LBI415:
 1508              		.loc 4 365 20 view .LVU464
 1509              	.LBB416:
 1510              		.loc 4 367 22 view .LVU465
 1511              		.loc 4 368 33 view .LVU466
 1512              		.loc 4 374 3 view .LVU467
 1513              		.loc 4 374 3 view .LVU468
 1514              		.loc 4 378 3 view .LVU469
 1515              	.LBB417:
 1516              	.LBI417:
 1517              		.loc 5 693 27 view .LVU470
 1518              	.LBE417:
 1519              	.LBE416:
 1520              	.LBE415:
 1521              	.LBE423:
 1522              	.LBE426:
 1523              	.LBE434:
 1524              		.loc 5 696 3 view .LVU471
 1525              	.LBB435:
 1526              	.LBB427:
 1527              	.LBB424:
ARM GAS  /tmp/ccDQUTww.s 			page 28


 1528              	.LBB422:
 1529              	.LBB421:
 1530              	.LBB420:
 1531              	.LBB418:
 1532              	.LBI418:
 1533              		.loc 6 491 27 view .LVU472
 1534              	.LBB419:
 1535              		.loc 6 493 3 view .LVU473
 1536              		.syntax unified
 1537              	@ 493 "../../../external/ChibiOS/os/common/ext/ARM/CMSIS/Core/Include/cmsis_gcc.h" 1
 1538 02a2 84F31188 		MSR basepri, r4
 1539              	@ 0 "" 2
 1540              	.LVL71:
 1541              		.loc 6 493 3 is_stmt 0 view .LVU474
 1542              		.thumb
 1543              		.syntax unified
 1544              	.LBE419:
 1545              	.LBE418:
 1546              	.LBE420:
 1547              	.LBE421:
 1548              	.LBE422:
 1549              	.LBE424:
 1550              		.loc 1 379 9 is_stmt 1 view .LVU475
 1551              	.L48:
 1552              		.loc 1 379 9 is_stmt 0 view .LVU476
 1553              	.LBE427:
 1554              	.LBE435:
 1555              		.loc 1 417 1 view .LVU477
 1556 02a6 5846     		mov	r0, fp
 1557 02a8 03B0     		add	sp, sp, #12
 1558              		.cfi_def_cfa_offset 36
 1559              		@ sp needed
 1560 02aa BDE8F08F 		pop	{r4, r5, r6, r7, r8, r9, r10, fp, pc}
 1561              		.loc 1 417 1 view .LVU478
 1562              		.cfi_endproc
 1563              	.LFE371:
 1564              		.size	ibqReadTimeout, .-ibqReadTimeout
 1565              		.align	1
 1566 02ae 00BF     		.p2align 4,,15
 1567              		.global	obqObjectInit
 1568              		.syntax unified
 1569              		.thumb
 1570              		.thumb_func
 1571              		.fpu fpv4-sp-d16
 1572              		.type	obqObjectInit, %function
 1573              	obqObjectInit:
 1574              	.LVL72:
 1575              	.LFB372:
 1576              		.loc 1 433 72 is_stmt 1 view -0
 1577              		.cfi_startproc
 1578              		@ args = 12, pretend = 0, frame = 0
 1579              		@ frame_needed = 0, uses_anonymous_args = 0
 1580              		@ link register save eliminated.
 1581              		.loc 1 435 3 view .LVU480
 1582              		.loc 1 435 3 view .LVU481
 1583              		.loc 1 437 3 view .LVU482
 1584              		.loc 1 433 72 is_stmt 0 view .LVU483
ARM GAS  /tmp/ccDQUTww.s 			page 29


 1585 02b0 70B4     		push	{r4, r5, r6}
 1586              		.cfi_def_cfa_offset 12
 1587              		.cfi_offset 4, -12
 1588              		.cfi_offset 5, -8
 1589              		.cfi_offset 6, -4
 1590              		.loc 1 442 33 view .LVU484
 1591 02b2 0433     		adds	r3, r3, #4
 1592              	.LVL73:
 1593              		.loc 1 446 19 view .LVU485
 1594 02b4 0025     		movs	r5, #0
 1595              		.loc 1 438 19 view .LVU486
 1596 02b6 0172     		strb	r1, [r0, #8]
 1597              		.loc 1 443 19 view .LVU487
 1598 02b8 C361     		str	r3, [r0, #28]
 1599              		.loc 1 433 72 view .LVU488
 1600 02ba 0599     		ldr	r1, [sp, #20]
 1601              	.LVL74:
 1602              		.loc 1 445 19 view .LVU489
 1603 02bc 4262     		str	r2, [r0, #36]
 1604              		.loc 1 433 72 view .LVU490
 1605 02be DDE90346 		ldrd	r4, r6, [sp, #12]
 1606              		.loc 1 447 19 view .LVU491
 1607 02c2 C0E90A55 		strd	r5, r5, [r0, #40]
 1608              		.loc 1 442 24 view .LVU492
 1609 02c6 04FB0323 		mla	r3, r4, r3, r2
 1610              	.LVL75:
 1611              		.loc 1 439 19 view .LVU493
 1612 02ca C460     		str	r4, [r0, #12]
 1613              		.loc 1 444 19 view .LVU494
 1614 02cc 0462     		str	r4, [r0, #32]
 1615              		.loc 1 442 19 view .LVU495
 1616 02ce 8361     		str	r3, [r0, #24]
 1617              		.loc 1 449 19 view .LVU496
 1618 02d0 C0E90C61 		strd	r6, r1, [r0, #48]
 1619              	.LBB436:
 1620              	.LBB437:
 1621              	.LBB438:
 1622              	.LBB439:
 1623              		.loc 2 540 13 view .LVU497
 1624 02d4 C0E90000 		strd	r0, r0, [r0]
 1625              	.LBE439:
 1626              	.LBE438:
 1627              	.LBE437:
 1628              	.LBE436:
 1629              		.loc 1 438 3 is_stmt 1 view .LVU498
 1630              		.loc 1 439 3 view .LVU499
 1631              		.loc 1 440 3 view .LVU500
 1632              		.loc 1 441 3 view .LVU501
 1633              		.loc 1 442 3 view .LVU502
 1634              		.loc 1 443 3 view .LVU503
 1635              		.loc 1 444 3 view .LVU504
 1636              		.loc 1 445 3 view .LVU505
 1637              		.loc 1 446 3 view .LVU506
 1638              		.loc 1 448 3 view .LVU507
 1639              		.loc 1 449 3 view .LVU508
 1640              		.loc 1 441 19 is_stmt 0 view .LVU509
 1641 02d8 C0E90422 		strd	r2, r2, [r0, #16]
ARM GAS  /tmp/ccDQUTww.s 			page 30


 1642              		.loc 1 450 1 view .LVU510
 1643 02dc 70BC     		pop	{r4, r5, r6}
 1644              		.cfi_restore 6
 1645              		.cfi_restore 5
 1646              		.cfi_restore 4
 1647              		.cfi_def_cfa_offset 0
 1648              	.LVL76:
 1649              		.loc 1 450 1 view .LVU511
 1650 02de 7047     		bx	lr
 1651              		.cfi_endproc
 1652              	.LFE372:
 1653              		.size	obqObjectInit, .-obqObjectInit
 1654              		.align	1
 1655              		.p2align 4,,15
 1656              		.global	obqResetI
 1657              		.syntax unified
 1658              		.thumb
 1659              		.thumb_func
 1660              		.fpu fpv4-sp-d16
 1661              		.type	obqResetI, %function
 1662              	obqResetI:
 1663              	.LVL77:
 1664              	.LFB373:
 1665              		.loc 1 463 46 is_stmt 1 view -0
 1666              		.cfi_startproc
 1667              		@ args = 0, pretend = 0, frame = 0
 1668              		@ frame_needed = 0, uses_anonymous_args = 0
 1669              		@ link register save eliminated.
 1670              		.loc 1 465 23 view .LVU513
 1671              		.loc 1 467 3 view .LVU514
 1672              		.loc 1 463 46 is_stmt 0 view .LVU515
 1673 02e0 30B4     		push	{r4, r5}
 1674              		.cfi_def_cfa_offset 8
 1675              		.cfi_offset 4, -8
 1676              		.cfi_offset 5, -4
 1677              		.loc 1 470 19 view .LVU516
 1678 02e2 0022     		movs	r2, #0
 1679              	.LBB440:
 1680              	.LBB441:
 1681              		.loc 3 857 3 view .LVU517
 1682 02e4 6FF00101 		mvn	r1, #1
 1683              	.LBE441:
 1684              	.LBE440:
 1685              		.loc 1 468 25 view .LVU518
 1686 02e8 D0E90854 		ldrd	r5, r4, [r0, #32]
 1687              		.loc 1 471 19 view .LVU519
 1688 02ec C0E90A22 		strd	r2, r2, [r0, #40]
 1689              		.loc 1 467 19 view .LVU520
 1690 02f0 C560     		str	r5, [r0, #12]
 1691              		.loc 1 468 3 is_stmt 1 view .LVU521
 1692              		.loc 1 469 19 is_stmt 0 view .LVU522
 1693 02f2 C0E90444 		strd	r4, r4, [r0, #16]
 1694              		.loc 1 470 3 is_stmt 1 view .LVU523
 1695              		.loc 1 472 3 view .LVU524
 1696              	.LVL78:
 1697              	.LBB444:
 1698              	.LBI440:
ARM GAS  /tmp/ccDQUTww.s 			page 31


 1699              		.loc 3 855 20 view .LVU525
 1700              	.LBB442:
 1701              		.loc 3 857 3 view .LVU526
 1702              	.LBE442:
 1703              	.LBE444:
 1704              		.loc 1 473 1 is_stmt 0 view .LVU527
 1705 02f6 30BC     		pop	{r4, r5}
 1706              		.cfi_restore 5
 1707              		.cfi_restore 4
 1708              		.cfi_def_cfa_offset 0
 1709              	.LBB445:
 1710              	.LBB443:
 1711              		.loc 3 857 3 view .LVU528
 1712 02f8 FFF7FEBF 		b	chThdDequeueAllI
 1713              	.LVL79:
 1714              		.loc 3 857 3 view .LVU529
 1715              	.LBE443:
 1716              	.LBE445:
 1717              		.cfi_endproc
 1718              	.LFE373:
 1719              		.size	obqResetI, .-obqResetI
 1720              		.align	1
 1721 02fc AFF30080 		.p2align 4,,15
 1722              		.global	obqGetFullBufferI
 1723              		.syntax unified
 1724              		.thumb
 1725              		.thumb_func
 1726              		.fpu fpv4-sp-d16
 1727              		.type	obqGetFullBufferI, %function
 1728              	obqGetFullBufferI:
 1729              	.LVL80:
 1730              	.LFB374:
 1731              		.loc 1 487 43 is_stmt 1 view -0
 1732              		.cfi_startproc
 1733              		@ args = 0, pretend = 0, frame = 0
 1734              		@ frame_needed = 0, uses_anonymous_args = 0
 1735              		@ link register save eliminated.
 1736              		.loc 1 489 23 view .LVU531
 1737              		.loc 1 491 3 view .LVU532
 1738              		.loc 1 491 7 is_stmt 0 view .LVU533
 1739 0300 D0E90423 		ldrd	r2, r3, [r0, #16]
 1740 0304 9A42     		cmp	r2, r3
 1741 0306 04D0     		beq	.L76
 1742              	.L71:
 1743              		.loc 1 496 3 is_stmt 1 view .LVU534
 1744              		.loc 1 496 12 is_stmt 0 view .LVU535
 1745 0308 1846     		mov	r0, r3
 1746              	.LVL81:
 1747              		.loc 1 496 12 view .LVU536
 1748 030a 50F8043B 		ldr	r3, [r0], #4
 1749              		.loc 1 496 10 view .LVU537
 1750 030e 0B60     		str	r3, [r1]
 1751              		.loc 1 498 3 is_stmt 1 view .LVU538
 1752              		.loc 1 499 1 is_stmt 0 view .LVU539
 1753 0310 7047     		bx	lr
 1754              	.LVL82:
 1755              	.L76:
ARM GAS  /tmp/ccDQUTww.s 			page 32


 1756              		.loc 1 491 7 discriminator 1 view .LVU540
 1757 0312 C268     		ldr	r2, [r0, #12]
 1758 0314 002A     		cmp	r2, #0
 1759 0316 F7D0     		beq	.L71
 1760              		.loc 1 492 12 view .LVU541
 1761 0318 0020     		movs	r0, #0
 1762              	.LVL83:
 1763              		.loc 1 492 12 view .LVU542
 1764 031a 7047     		bx	lr
 1765              		.cfi_endproc
 1766              	.LFE374:
 1767              		.size	obqGetFullBufferI, .-obqGetFullBufferI
 1768              		.align	1
 1769 031c AFF30080 		.p2align 4,,15
 1770              		.global	obqReleaseEmptyBufferI
 1771              		.syntax unified
 1772              		.thumb
 1773              		.thumb_func
 1774              		.fpu fpv4-sp-d16
 1775              		.type	obqReleaseEmptyBufferI, %function
 1776              	obqReleaseEmptyBufferI:
 1777              	.LVL84:
 1778              	.LFB375:
 1779              		.loc 1 508 59 is_stmt 1 view -0
 1780              		.cfi_startproc
 1781              		@ args = 0, pretend = 0, frame = 0
 1782              		@ frame_needed = 0, uses_anonymous_args = 0
 1783              		@ link register save eliminated.
 1784              		.loc 1 510 23 view .LVU544
 1785              		.loc 1 511 3 view .LVU545
 1786              		.loc 1 511 3 view .LVU546
 1787              		.loc 1 514 3 view .LVU547
 1788              		.loc 1 515 16 is_stmt 0 view .LVU548
 1789 0320 4369     		ldr	r3, [r0, #20]
 1790              		.loc 1 514 7 view .LVU549
 1791 0322 C268     		ldr	r2, [r0, #12]
 1792              		.loc 1 516 6 view .LVU550
 1793 0324 8169     		ldr	r1, [r0, #24]
 1794              		.loc 1 514 17 view .LVU551
 1795 0326 0132     		adds	r2, r2, #1
 1796              		.loc 1 508 59 view .LVU552
 1797 0328 10B4     		push	{r4}
 1798              		.cfi_def_cfa_offset 4
 1799              		.cfi_offset 4, -4
 1800              		.loc 1 515 16 view .LVU553
 1801 032a C469     		ldr	r4, [r0, #28]
 1802              		.loc 1 514 17 view .LVU554
 1803 032c C260     		str	r2, [r0, #12]
 1804              		.loc 1 515 3 is_stmt 1 view .LVU555
 1805              		.loc 1 515 16 is_stmt 0 view .LVU556
 1806 032e 2344     		add	r3, r3, r4
 1807              		.loc 1 516 6 view .LVU557
 1808 0330 8B42     		cmp	r3, r1
 1809              		.loc 1 515 16 view .LVU558
 1810 0332 4361     		str	r3, [r0, #20]
 1811              		.loc 1 516 3 is_stmt 1 view .LVU559
 1812              		.loc 1 516 6 is_stmt 0 view .LVU560
ARM GAS  /tmp/ccDQUTww.s 			page 33


 1813 0334 01D3     		bcc	.L78
 1814              		.loc 1 517 5 is_stmt 1 view .LVU561
 1815              		.loc 1 517 18 is_stmt 0 view .LVU562
 1816 0336 436A     		ldr	r3, [r0, #36]
 1817 0338 4361     		str	r3, [r0, #20]
 1818              	.L78:
 1819              		.loc 1 521 3 is_stmt 1 view .LVU563
 1820              	.LVL85:
 1821              	.LBB446:
 1822              	.LBI446:
 1823              		.loc 3 842 20 view .LVU564
 1824              	.LBB447:
 1825              		.loc 3 844 3 view .LVU565
 1826 033a 0021     		movs	r1, #0
 1827              	.LBE447:
 1828              	.LBE446:
 1829              		.loc 1 522 1 is_stmt 0 view .LVU566
 1830 033c 5DF8044B 		ldr	r4, [sp], #4
 1831              		.cfi_restore 4
 1832              		.cfi_def_cfa_offset 0
 1833              	.LBB449:
 1834              	.LBB448:
 1835              		.loc 3 844 3 view .LVU567
 1836 0340 FFF7FEBF 		b	chThdDequeueNextI
 1837              	.LVL86:
 1838              		.loc 3 844 3 view .LVU568
 1839              	.LBE448:
 1840              	.LBE449:
 1841              		.cfi_endproc
 1842              	.LFE375:
 1843              		.size	obqReleaseEmptyBufferI, .-obqReleaseEmptyBufferI
 1844              		.align	1
 1845 0344 AFF30080 		.p2align 4,,15
 1845      AFF30080 
 1845      AFF30080 
 1846              		.global	obqGetEmptyBufferTimeoutS
 1847              		.syntax unified
 1848              		.thumb
 1849              		.thumb_func
 1850              		.fpu fpv4-sp-d16
 1851              		.type	obqGetEmptyBufferTimeoutS, %function
 1852              	obqGetEmptyBufferTimeoutS:
 1853              	.LVL87:
 1854              	.LFB377:
 1855              		.loc 1 578 56 is_stmt 1 view -0
 1856              		.cfi_startproc
 1857              		@ args = 0, pretend = 0, frame = 0
 1858              		@ frame_needed = 0, uses_anonymous_args = 0
 1859              		.loc 1 578 56 is_stmt 0 view .LVU570
 1860 0350 38B5     		push	{r3, r4, r5, lr}
 1861              		.cfi_def_cfa_offset 16
 1862              		.cfi_offset 3, -16
 1863              		.cfi_offset 4, -12
 1864              		.cfi_offset 5, -8
 1865              		.cfi_offset 14, -4
 1866              		.loc 1 578 56 view .LVU571
 1867 0352 0446     		mov	r4, r0
ARM GAS  /tmp/ccDQUTww.s 			page 34


 1868              		.loc 1 580 23 is_stmt 1 view .LVU572
 1869              		.loc 1 582 3 view .LVU573
 1870              		.loc 1 578 56 is_stmt 0 view .LVU574
 1871 0354 0D46     		mov	r5, r1
 1872              		.loc 1 582 9 view .LVU575
 1873 0356 05E0     		b	.L81
 1874              	.LVL88:
 1875              	.L83:
 1876              	.LBB458:
 1877              		.loc 1 583 8 view .LVU576
 1878 0358 237A     		ldrb	r3, [r4, #8]	@ zero_extendqisi2
 1879 035a 83B9     		cbnz	r3, .L84
 1880              	.LBB459:
 1881              	.LBB460:
 1882              		.loc 3 831 10 view .LVU577
 1883 035c FFF7FEFF 		bl	chThdEnqueueTimeoutS
 1884              	.LVL89:
 1885              		.loc 3 831 10 view .LVU578
 1886              	.LBE460:
 1887              	.LBE459:
 1888              		.loc 1 587 5 is_stmt 1 view .LVU579
 1889              		.loc 1 587 8 is_stmt 0 view .LVU580
 1890 0360 0028     		cmp	r0, #0
 1891              		.loc 1 587 8 view .LVU581
 1892 0362 0BDB     		blt	.L80
 1893              	.LVL90:
 1894              	.L81:
 1895              		.loc 1 583 5 is_stmt 1 view .LVU582
 1896              		.loc 1 586 5 view .LVU583
 1897              	.LBB463:
 1898              	.LBI459:
 1899              		.loc 3 828 21 view .LVU584
 1900              	.LBB461:
 1901              		.loc 3 831 3 view .LVU585
 1902              	.LBE461:
 1903              	.LBE463:
 1904              	.LBE458:
 1905              		.loc 1 582 10 is_stmt 0 view .LVU586
 1906 0364 E368     		ldr	r3, [r4, #12]
 1907              	.LBB465:
 1908              	.LBB464:
 1909              	.LBB462:
 1910              		.loc 3 831 10 view .LVU587
 1911 0366 2946     		mov	r1, r5
 1912 0368 2046     		mov	r0, r4
 1913              	.LBE462:
 1914              	.LBE464:
 1915              	.LBE465:
 1916              		.loc 1 582 9 view .LVU588
 1917 036a 002B     		cmp	r3, #0
 1918 036c F4D0     		beq	.L83
 1919              	.LVL91:
 1920              	.LBB466:
 1921              	.LBI466:
 1922              		.loc 1 577 7 is_stmt 1 view .LVU589
 1923              	.LBB467:
 1924              		.loc 1 592 3 view .LVU590
ARM GAS  /tmp/ccDQUTww.s 			page 35


 1925              		.loc 1 592 3 view .LVU591
 1926              		.loc 1 595 3 view .LVU592
 1927              		.loc 1 595 19 is_stmt 0 view .LVU593
 1928 036e 2369     		ldr	r3, [r4, #16]
 1929              		.loc 1 596 13 view .LVU594
 1930 0370 0020     		movs	r0, #0
 1931              	.LVL92:
 1932              		.loc 1 596 28 view .LVU595
 1933 0372 E169     		ldr	r1, [r4, #28]
 1934              	.LVL93:
 1935              		.loc 1 595 28 view .LVU596
 1936 0374 1A1D     		adds	r2, r3, #4
 1937              		.loc 1 596 28 view .LVU597
 1938 0376 0B44     		add	r3, r3, r1
 1939              		.loc 1 596 13 view .LVU598
 1940 0378 C4E90A23 		strd	r2, r3, [r4, #40]
 1941              		.loc 1 598 3 is_stmt 1 view .LVU599
 1942              	.LVL94:
 1943              	.L80:
 1944              		.loc 1 598 3 is_stmt 0 view .LVU600
 1945              	.LBE467:
 1946              	.LBE466:
 1947              		.loc 1 599 1 view .LVU601
 1948 037c 38BD     		pop	{r3, r4, r5, pc}
 1949              	.LVL95:
 1950              	.L84:
 1951              	.LBB468:
 1952              		.loc 1 584 14 view .LVU602
 1953 037e 6FF00100 		mvn	r0, #1
 1954              	.LVL96:
 1955              		.loc 1 584 14 view .LVU603
 1956              	.LBE468:
 1957              		.loc 1 599 1 view .LVU604
 1958 0382 38BD     		pop	{r3, r4, r5, pc}
 1959              		.loc 1 599 1 view .LVU605
 1960              		.cfi_endproc
 1961              	.LFE377:
 1962              		.size	obqGetEmptyBufferTimeoutS, .-obqGetEmptyBufferTimeoutS
 1963              		.align	1
 1964 0384 AFF30080 		.p2align 4,,15
 1964      AFF30080 
 1964      AFF30080 
 1965              		.global	obqGetEmptyBufferTimeout
 1966              		.syntax unified
 1967              		.thumb
 1968              		.thumb_func
 1969              		.fpu fpv4-sp-d16
 1970              		.type	obqGetEmptyBufferTimeout, %function
 1971              	obqGetEmptyBufferTimeout:
 1972              	.LVL97:
 1973              	.LFB376:
 1974              		.loc 1 546 55 is_stmt 1 view -0
 1975              		.cfi_startproc
 1976              		@ args = 0, pretend = 0, frame = 0
 1977              		@ frame_needed = 0, uses_anonymous_args = 0
 1978              		.loc 1 547 3 view .LVU607
 1979              		.loc 1 549 3 view .LVU608
ARM GAS  /tmp/ccDQUTww.s 			page 36


 1980              	.LBB469:
 1981              	.LBI469:
 1982              		.loc 3 509 20 view .LVU609
 1983              	.LBE469:
 1984              		.loc 3 511 3 view .LVU610
 1985              	.LBB481:
 1986              	.LBB470:
 1987              	.LBI470:
 1988              		.loc 4 353 20 view .LVU611
 1989              	.LBE470:
 1990              	.LBE481:
 1991              		.loc 4 355 3 view .LVU612
 1992              	.LBB482:
 1993              	.LBB478:
 1994              	.LBB471:
 1995              	.LBI471:
 1996              		.loc 5 669 27 view .LVU613
 1997              	.LBE471:
 1998              	.LBE478:
 1999              	.LBE482:
 2000              		.loc 5 677 3 view .LVU614
 2001              	.LBB483:
 2002              	.LBB479:
 2003              	.LBB476:
 2004              	.LBB472:
 2005              	.LBI472:
 2006              		.loc 6 491 27 view .LVU615
 2007              	.LBB473:
 2008              		.loc 6 493 3 view .LVU616
 2009              	.LBE473:
 2010              	.LBE472:
 2011              	.LBE476:
 2012              	.LBE479:
 2013              	.LBE483:
 2014              		.loc 1 546 55 is_stmt 0 view .LVU617
 2015 0390 08B5     		push	{r3, lr}
 2016              		.cfi_def_cfa_offset 8
 2017              		.cfi_offset 3, -8
 2018              		.cfi_offset 14, -4
 2019              	.LBB484:
 2020              	.LBB480:
 2021              	.LBB477:
 2022              	.LBB475:
 2023              	.LBB474:
 2024              		.loc 6 493 3 view .LVU618
 2025 0392 2023     		movs	r3, #32
 2026              		.syntax unified
 2027              	@ 493 "../../../external/ChibiOS/os/common/ext/ARM/CMSIS/Core/Include/cmsis_gcc.h" 1
 2028 0394 83F31188 		MSR basepri, r3
 2029              	@ 0 "" 2
 2030              	.LVL98:
 2031              		.loc 6 493 3 view .LVU619
 2032              		.thumb
 2033              		.syntax unified
 2034              	.LBE474:
 2035              	.LBE475:
 2036              	.LBE477:
ARM GAS  /tmp/ccDQUTww.s 			page 37


 2037              	.LBE480:
 2038              	.LBE484:
 2039              		.loc 4 356 34 is_stmt 1 view .LVU620
 2040              		.loc 4 357 20 view .LVU621
 2041              		.loc 1 550 3 view .LVU622
 2042              		.loc 1 550 9 is_stmt 0 view .LVU623
 2043 0398 FFF7FEFF 		bl	obqGetEmptyBufferTimeoutS
 2044              	.LVL99:
 2045              		.loc 1 551 3 is_stmt 1 view .LVU624
 2046              	.LBB485:
 2047              	.LBI485:
 2048              		.loc 3 520 20 view .LVU625
 2049              	.LBE485:
 2050              		.loc 3 522 3 view .LVU626
 2051              	.LBB494:
 2052              	.LBB486:
 2053              	.LBI486:
 2054              		.loc 4 365 20 view .LVU627
 2055              	.LBB487:
 2056              		.loc 4 367 22 view .LVU628
 2057              		.loc 4 368 33 view .LVU629
 2058              		.loc 4 374 3 view .LVU630
 2059              		.loc 4 374 3 view .LVU631
 2060              		.loc 4 378 3 view .LVU632
 2061              	.LBB488:
 2062              	.LBI488:
 2063              		.loc 5 693 27 view .LVU633
 2064              	.LBE488:
 2065              	.LBE487:
 2066              	.LBE486:
 2067              	.LBE494:
 2068              		.loc 5 696 3 view .LVU634
 2069              	.LBB495:
 2070              	.LBB493:
 2071              	.LBB492:
 2072              	.LBB491:
 2073              	.LBB489:
 2074              	.LBI489:
 2075              		.loc 6 491 27 view .LVU635
 2076              	.LBB490:
 2077              		.loc 6 493 3 view .LVU636
 2078 039c 0023     		movs	r3, #0
 2079              		.syntax unified
 2080              	@ 493 "../../../external/ChibiOS/os/common/ext/ARM/CMSIS/Core/Include/cmsis_gcc.h" 1
 2081 039e 83F31188 		MSR basepri, r3
 2082              	@ 0 "" 2
 2083              	.LVL100:
 2084              		.loc 6 493 3 is_stmt 0 view .LVU637
 2085              		.thumb
 2086              		.syntax unified
 2087              	.LBE490:
 2088              	.LBE489:
 2089              	.LBE491:
 2090              	.LBE492:
 2091              	.LBE493:
 2092              	.LBE495:
 2093              		.loc 1 553 3 is_stmt 1 view .LVU638
ARM GAS  /tmp/ccDQUTww.s 			page 38


 2094              		.loc 1 554 1 is_stmt 0 view .LVU639
 2095 03a2 08BD     		pop	{r3, pc}
 2096              		.cfi_endproc
 2097              	.LFE376:
 2098              		.size	obqGetEmptyBufferTimeout, .-obqGetEmptyBufferTimeout
 2099              		.align	1
 2100 03a4 AFF30080 		.p2align 4,,15
 2100      AFF30080 
 2100      AFF30080 
 2101              		.global	obqPostFullBuffer
 2102              		.syntax unified
 2103              		.thumb
 2104              		.thumb_func
 2105              		.fpu fpv4-sp-d16
 2106              		.type	obqPostFullBuffer, %function
 2107              	obqPostFullBuffer:
 2108              	.LVL101:
 2109              	.LFB378:
 2110              		.loc 1 610 67 is_stmt 1 view -0
 2111              		.cfi_startproc
 2112              		@ args = 0, pretend = 0, frame = 0
 2113              		@ frame_needed = 0, uses_anonymous_args = 0
 2114              		.loc 1 612 3 view .LVU641
 2115              	.LBB496:
 2116              	.LBI496:
 2117              		.loc 3 509 20 view .LVU642
 2118              	.LBE496:
 2119              		.loc 3 511 3 view .LVU643
 2120              	.LBB508:
 2121              	.LBB497:
 2122              	.LBI497:
 2123              		.loc 4 353 20 view .LVU644
 2124              	.LBE497:
 2125              	.LBE508:
 2126              		.loc 4 355 3 view .LVU645
 2127              	.LBB509:
 2128              	.LBB505:
 2129              	.LBB498:
 2130              	.LBI498:
 2131              		.loc 5 669 27 view .LVU646
 2132              	.LBE498:
 2133              	.LBE505:
 2134              	.LBE509:
 2135              		.loc 5 677 3 view .LVU647
 2136              	.LBB510:
 2137              	.LBB506:
 2138              	.LBB503:
 2139              	.LBB499:
 2140              	.LBI499:
 2141              		.loc 6 491 27 view .LVU648
 2142              	.LBB500:
 2143              		.loc 6 493 3 view .LVU649
 2144              	.LBE500:
 2145              	.LBE499:
 2146              	.LBE503:
 2147              	.LBE506:
 2148              	.LBE510:
ARM GAS  /tmp/ccDQUTww.s 			page 39


 2149              		.loc 1 610 67 is_stmt 0 view .LVU650
 2150 03b0 10B5     		push	{r4, lr}
 2151              		.cfi_def_cfa_offset 8
 2152              		.cfi_offset 4, -8
 2153              		.cfi_offset 14, -4
 2154              	.LBB511:
 2155              	.LBB507:
 2156              	.LBB504:
 2157              	.LBB502:
 2158              	.LBB501:
 2159              		.loc 6 493 3 view .LVU651
 2160 03b2 2023     		movs	r3, #32
 2161              		.syntax unified
 2162              	@ 493 "../../../external/ChibiOS/os/common/ext/ARM/CMSIS/Core/Include/cmsis_gcc.h" 1
 2163 03b4 83F31188 		MSR basepri, r3
 2164              	@ 0 "" 2
 2165              	.LVL102:
 2166              		.loc 6 493 3 view .LVU652
 2167              		.thumb
 2168              		.syntax unified
 2169              	.LBE501:
 2170              	.LBE502:
 2171              	.LBE504:
 2172              	.LBE507:
 2173              	.LBE511:
 2174              		.loc 4 356 34 is_stmt 1 view .LVU653
 2175              		.loc 4 357 20 view .LVU654
 2176              		.loc 1 613 3 view .LVU655
 2177              	.LBB512:
 2178              	.LBI512:
 2179              		.loc 1 626 6 view .LVU656
 2180              	.LBB513:
 2181              		.loc 1 628 23 view .LVU657
 2182              		.loc 1 629 3 view .LVU658
 2183              		.loc 1 629 3 view .LVU659
 2184              		.loc 1 630 3 view .LVU660
 2185              		.loc 1 630 3 view .LVU661
 2186              		.loc 1 633 3 view .LVU662
 2187              		.loc 1 633 19 is_stmt 0 view .LVU663
 2188 03b8 0369     		ldr	r3, [r0, #16]
 2189              		.loc 1 638 6 view .LVU664
 2190 03ba 8469     		ldr	r4, [r0, #24]
 2191              		.loc 1 633 29 view .LVU665
 2192 03bc 1960     		str	r1, [r3]
 2193              		.loc 1 636 3 is_stmt 1 view .LVU666
 2194              		.loc 1 637 16 is_stmt 0 view .LVU667
 2195 03be C169     		ldr	r1, [r0, #28]
 2196              	.LVL103:
 2197              		.loc 1 636 7 view .LVU668
 2198 03c0 C268     		ldr	r2, [r0, #12]
 2199              		.loc 1 637 16 view .LVU669
 2200 03c2 0B44     		add	r3, r3, r1
 2201              	.LVL104:
 2202              		.loc 1 636 17 view .LVU670
 2203 03c4 013A     		subs	r2, r2, #1
 2204              		.loc 1 638 6 view .LVU671
 2205 03c6 A342     		cmp	r3, r4
ARM GAS  /tmp/ccDQUTww.s 			page 40


 2206              		.loc 1 637 16 view .LVU672
 2207 03c8 0361     		str	r3, [r0, #16]
 2208              	.LVL105:
 2209              		.loc 1 636 17 view .LVU673
 2210 03ca C260     		str	r2, [r0, #12]
 2211              		.loc 1 637 3 is_stmt 1 view .LVU674
 2212              		.loc 1 638 3 view .LVU675
 2213              		.loc 1 638 6 is_stmt 0 view .LVU676
 2214 03cc 01D3     		bcc	.L89
 2215              		.loc 1 639 5 is_stmt 1 view .LVU677
 2216              		.loc 1 639 18 is_stmt 0 view .LVU678
 2217 03ce 436A     		ldr	r3, [r0, #36]
 2218 03d0 0361     		str	r3, [r0, #16]
 2219              	.L89:
 2220              		.loc 1 643 3 is_stmt 1 view .LVU679
 2221              		.loc 1 643 13 is_stmt 0 view .LVU680
 2222 03d2 0022     		movs	r2, #0
 2223              		.loc 1 646 11 view .LVU681
 2224 03d4 036B     		ldr	r3, [r0, #48]
 2225              		.loc 1 643 13 view .LVU682
 2226 03d6 8262     		str	r2, [r0, #40]
 2227              		.loc 1 646 3 is_stmt 1 view .LVU683
 2228              		.loc 1 646 6 is_stmt 0 view .LVU684
 2229 03d8 03B1     		cbz	r3, .L90
 2230              		.loc 1 647 5 is_stmt 1 view .LVU685
 2231 03da 9847     		blx	r3
 2232              	.LVL106:
 2233              	.L90:
 2234              		.loc 1 647 5 is_stmt 0 view .LVU686
 2235              	.LBE513:
 2236              	.LBE512:
 2237              		.loc 1 614 3 is_stmt 1 view .LVU687
 2238              	.LBB514:
 2239              	.LBI514:
 2240              		.loc 3 520 20 view .LVU688
 2241              	.LBE514:
 2242              		.loc 3 522 3 view .LVU689
 2243              	.LBB523:
 2244              	.LBB515:
 2245              	.LBI515:
 2246              		.loc 4 365 20 view .LVU690
 2247              	.LBB516:
 2248              		.loc 4 367 22 view .LVU691
 2249              		.loc 4 368 33 view .LVU692
 2250              		.loc 4 374 3 view .LVU693
 2251              		.loc 4 374 3 view .LVU694
 2252              		.loc 4 378 3 view .LVU695
 2253              	.LBB517:
 2254              	.LBI517:
 2255              		.loc 5 693 27 view .LVU696
 2256              	.LBE517:
 2257              	.LBE516:
 2258              	.LBE515:
 2259              	.LBE523:
 2260              		.loc 5 696 3 view .LVU697
 2261              	.LBB524:
 2262              	.LBB522:
ARM GAS  /tmp/ccDQUTww.s 			page 41


 2263              	.LBB521:
 2264              	.LBB520:
 2265              	.LBB518:
 2266              	.LBI518:
 2267              		.loc 6 491 27 view .LVU698
 2268              	.LBB519:
 2269              		.loc 6 493 3 view .LVU699
 2270 03dc 0023     		movs	r3, #0
 2271              		.syntax unified
 2272              	@ 493 "../../../external/ChibiOS/os/common/ext/ARM/CMSIS/Core/Include/cmsis_gcc.h" 1
 2273 03de 83F31188 		MSR basepri, r3
 2274              	@ 0 "" 2
 2275              	.LVL107:
 2276              		.loc 6 493 3 is_stmt 0 view .LVU700
 2277              		.thumb
 2278              		.syntax unified
 2279              	.LBE519:
 2280              	.LBE518:
 2281              	.LBE520:
 2282              	.LBE521:
 2283              	.LBE522:
 2284              	.LBE524:
 2285              		.loc 1 615 1 view .LVU701
 2286 03e2 10BD     		pop	{r4, pc}
 2287              		.cfi_endproc
 2288              	.LFE378:
 2289              		.size	obqPostFullBuffer, .-obqPostFullBuffer
 2290              		.align	1
 2291 03e4 AFF30080 		.p2align 4,,15
 2291      AFF30080 
 2291      AFF30080 
 2292              		.global	obqPostFullBufferS
 2293              		.syntax unified
 2294              		.thumb
 2295              		.thumb_func
 2296              		.fpu fpv4-sp-d16
 2297              		.type	obqPostFullBufferS, %function
 2298              	obqPostFullBufferS:
 2299              	.LVL108:
 2300              	.LFB379:
 2301              		.loc 1 626 68 is_stmt 1 view -0
 2302              		.cfi_startproc
 2303              		@ args = 0, pretend = 0, frame = 0
 2304              		@ frame_needed = 0, uses_anonymous_args = 0
 2305              		@ link register save eliminated.
 2306              		.loc 1 628 23 view .LVU703
 2307              		.loc 1 629 3 view .LVU704
 2308              		.loc 1 629 3 view .LVU705
 2309              		.loc 1 630 3 view .LVU706
 2310              		.loc 1 630 3 view .LVU707
 2311              		.loc 1 633 3 view .LVU708
 2312              		.loc 1 633 19 is_stmt 0 view .LVU709
 2313 03f0 0369     		ldr	r3, [r0, #16]
 2314              		.loc 1 626 68 view .LVU710
 2315 03f2 10B4     		push	{r4}
 2316              		.cfi_def_cfa_offset 4
 2317              		.cfi_offset 4, -4
ARM GAS  /tmp/ccDQUTww.s 			page 42


 2318              		.loc 1 638 6 view .LVU711
 2319 03f4 8469     		ldr	r4, [r0, #24]
 2320              		.loc 1 633 29 view .LVU712
 2321 03f6 1960     		str	r1, [r3]
 2322              		.loc 1 636 3 is_stmt 1 view .LVU713
 2323              		.loc 1 637 16 is_stmt 0 view .LVU714
 2324 03f8 C169     		ldr	r1, [r0, #28]
 2325              	.LVL109:
 2326              		.loc 1 636 7 view .LVU715
 2327 03fa C268     		ldr	r2, [r0, #12]
 2328              		.loc 1 637 16 view .LVU716
 2329 03fc 0B44     		add	r3, r3, r1
 2330              	.LVL110:
 2331              		.loc 1 636 17 view .LVU717
 2332 03fe 013A     		subs	r2, r2, #1
 2333              		.loc 1 638 6 view .LVU718
 2334 0400 A342     		cmp	r3, r4
 2335              		.loc 1 637 16 view .LVU719
 2336 0402 0361     		str	r3, [r0, #16]
 2337              	.LVL111:
 2338              		.loc 1 636 17 view .LVU720
 2339 0404 C260     		str	r2, [r0, #12]
 2340              		.loc 1 637 3 is_stmt 1 view .LVU721
 2341              		.loc 1 638 3 view .LVU722
 2342              		.loc 1 638 6 is_stmt 0 view .LVU723
 2343 0406 01D3     		bcc	.L96
 2344              		.loc 1 639 5 is_stmt 1 view .LVU724
 2345              		.loc 1 639 18 is_stmt 0 view .LVU725
 2346 0408 436A     		ldr	r3, [r0, #36]
 2347 040a 0361     		str	r3, [r0, #16]
 2348              	.L96:
 2349              		.loc 1 643 3 is_stmt 1 view .LVU726
 2350              		.loc 1 643 13 is_stmt 0 view .LVU727
 2351 040c 0022     		movs	r2, #0
 2352              		.loc 1 646 11 view .LVU728
 2353 040e 036B     		ldr	r3, [r0, #48]
 2354              		.loc 1 643 13 view .LVU729
 2355 0410 8262     		str	r2, [r0, #40]
 2356              		.loc 1 646 3 is_stmt 1 view .LVU730
 2357              		.loc 1 646 6 is_stmt 0 view .LVU731
 2358 0412 13B1     		cbz	r3, .L95
 2359              		.loc 1 647 5 is_stmt 1 view .LVU732
 2360              		.loc 1 649 1 is_stmt 0 view .LVU733
 2361 0414 5DF8044B 		ldr	r4, [sp], #4
 2362              		.cfi_remember_state
 2363              		.cfi_restore 4
 2364              		.cfi_def_cfa_offset 0
 2365              		.loc 1 647 5 view .LVU734
 2366 0418 1847     		bx	r3	@ indirect register sibling call
 2367              	.LVL112:
 2368              	.L95:
 2369              		.cfi_restore_state
 2370              		.loc 1 649 1 view .LVU735
 2371 041a 5DF8044B 		ldr	r4, [sp], #4
 2372              		.cfi_restore 4
 2373              		.cfi_def_cfa_offset 0
 2374 041e 7047     		bx	lr
ARM GAS  /tmp/ccDQUTww.s 			page 43


 2375              		.cfi_endproc
 2376              	.LFE379:
 2377              		.size	obqPostFullBufferS, .-obqPostFullBufferS
 2378              		.align	1
 2379              		.p2align 4,,15
 2380              		.global	obqPutTimeout
 2381              		.syntax unified
 2382              		.thumb
 2383              		.thumb_func
 2384              		.fpu fpv4-sp-d16
 2385              		.type	obqPutTimeout, %function
 2386              	obqPutTimeout:
 2387              	.LVL113:
 2388              	.LFB380:
 2389              		.loc 1 672 44 is_stmt 1 view -0
 2390              		.cfi_startproc
 2391              		@ args = 0, pretend = 0, frame = 0
 2392              		@ frame_needed = 0, uses_anonymous_args = 0
 2393              		.loc 1 673 3 view .LVU737
 2394              		.loc 1 675 3 view .LVU738
 2395              	.LBB525:
 2396              	.LBI525:
 2397              		.loc 3 509 20 view .LVU739
 2398              	.LBE525:
 2399              		.loc 3 511 3 view .LVU740
 2400              	.LBB541:
 2401              	.LBB526:
 2402              	.LBI526:
 2403              		.loc 4 353 20 view .LVU741
 2404              	.LBE526:
 2405              	.LBE541:
 2406              		.loc 4 355 3 view .LVU742
 2407              	.LBB542:
 2408              	.LBB537:
 2409              	.LBB527:
 2410              	.LBI527:
 2411              		.loc 5 669 27 view .LVU743
 2412              	.LBE527:
 2413              	.LBE537:
 2414              	.LBE542:
 2415              		.loc 5 677 3 view .LVU744
 2416              	.LBB543:
 2417              	.LBB538:
 2418              	.LBB534:
 2419              	.LBB528:
 2420              	.LBI528:
 2421              		.loc 6 491 27 view .LVU745
 2422              	.LBB529:
 2423              		.loc 6 493 3 view .LVU746
 2424              	.LBE529:
 2425              	.LBE528:
 2426              	.LBE534:
 2427              	.LBE538:
 2428              	.LBE543:
 2429              		.loc 1 672 44 is_stmt 0 view .LVU747
 2430 0420 70B5     		push	{r4, r5, r6, lr}
 2431              		.cfi_def_cfa_offset 16
ARM GAS  /tmp/ccDQUTww.s 			page 44


 2432              		.cfi_offset 4, -16
 2433              		.cfi_offset 5, -12
 2434              		.cfi_offset 6, -8
 2435              		.cfi_offset 14, -4
 2436              	.LBB544:
 2437              	.LBB539:
 2438              	.LBB535:
 2439              	.LBB532:
 2440              	.LBB530:
 2441              		.loc 6 493 3 view .LVU748
 2442 0422 2023     		movs	r3, #32
 2443              	.LBE530:
 2444              	.LBE532:
 2445              	.LBE535:
 2446              	.LBE539:
 2447              	.LBE544:
 2448              		.loc 1 672 44 view .LVU749
 2449 0424 0E46     		mov	r6, r1
 2450 0426 0446     		mov	r4, r0
 2451              	.LBB545:
 2452              	.LBB540:
 2453              	.LBB536:
 2454              	.LBB533:
 2455              	.LBB531:
 2456              		.loc 6 493 3 view .LVU750
 2457              		.syntax unified
 2458              	@ 493 "../../../external/ChibiOS/os/common/ext/ARM/CMSIS/Core/Include/cmsis_gcc.h" 1
 2459 0428 83F31188 		MSR basepri, r3
 2460              	@ 0 "" 2
 2461              	.LVL114:
 2462              		.loc 6 493 3 view .LVU751
 2463              		.thumb
 2464              		.syntax unified
 2465              	.LBE531:
 2466              	.LBE533:
 2467              	.LBE536:
 2468              	.LBE540:
 2469              	.LBE545:
 2470              		.loc 4 356 34 is_stmt 1 view .LVU752
 2471              		.loc 4 357 20 view .LVU753
 2472              		.loc 1 678 3 view .LVU754
 2473              		.loc 1 678 11 is_stmt 0 view .LVU755
 2474 042c 856A     		ldr	r5, [r0, #40]
 2475              		.loc 1 678 6 view .LVU756
 2476 042e FDB1     		cbz	r5, .L111
 2477              	.LVL115:
 2478              	.L100:
 2479              		.loc 1 687 3 is_stmt 1 view .LVU757
 2480              		.loc 1 687 14 is_stmt 0 view .LVU758
 2481 0430 2E70     		strb	r6, [r5]
 2482              		.loc 1 688 3 is_stmt 1 view .LVU759
 2483              		.loc 1 692 6 is_stmt 0 view .LVU760
 2484 0432 D4E90A32 		ldrd	r3, r2, [r4, #40]
 2485              		.loc 1 688 12 view .LVU761
 2486 0436 0133     		adds	r3, r3, #1
 2487              		.loc 1 692 6 view .LVU762
 2488 0438 9342     		cmp	r3, r2
ARM GAS  /tmp/ccDQUTww.s 			page 45


 2489              		.loc 1 688 12 view .LVU763
 2490 043a A362     		str	r3, [r4, #40]
 2491              		.loc 1 692 3 is_stmt 1 view .LVU764
 2492              		.loc 1 692 6 is_stmt 0 view .LVU765
 2493 043c 14D3     		bcc	.L104
 2494              		.loc 1 693 5 is_stmt 1 view .LVU766
 2495              	.LVL116:
 2496              	.LBB546:
 2497              	.LBI546:
 2498              		.loc 1 626 6 view .LVU767
 2499              	.LBB547:
 2500              		.loc 1 628 23 view .LVU768
 2501              		.loc 1 629 3 view .LVU769
 2502              		.loc 1 629 3 view .LVU770
 2503              		.loc 1 630 3 view .LVU771
 2504              		.loc 1 630 3 view .LVU772
 2505              		.loc 1 633 3 view .LVU773
 2506              	.LBE547:
 2507              	.LBE546:
 2508              		.loc 1 693 5 is_stmt 0 view .LVU774
 2509 043e E269     		ldr	r2, [r4, #28]
 2510              	.LBB550:
 2511              	.LBB548:
 2512              		.loc 1 633 19 view .LVU775
 2513 0440 2369     		ldr	r3, [r4, #16]
 2514              	.LBE548:
 2515              	.LBE550:
 2516              		.loc 1 693 5 view .LVU776
 2517 0442 043A     		subs	r2, r2, #4
 2518              	.LVL117:
 2519              	.LBB551:
 2520              	.LBB549:
 2521              		.loc 1 638 6 view .LVU777
 2522 0444 A169     		ldr	r1, [r4, #24]
 2523              		.loc 1 633 29 view .LVU778
 2524 0446 1A60     		str	r2, [r3]
 2525              		.loc 1 636 3 is_stmt 1 view .LVU779
 2526              		.loc 1 637 16 is_stmt 0 view .LVU780
 2527 0448 E069     		ldr	r0, [r4, #28]
 2528              		.loc 1 636 7 view .LVU781
 2529 044a E268     		ldr	r2, [r4, #12]
 2530              	.LVL118:
 2531              		.loc 1 637 16 view .LVU782
 2532 044c 0344     		add	r3, r3, r0
 2533              	.LVL119:
 2534              		.loc 1 636 17 view .LVU783
 2535 044e 013A     		subs	r2, r2, #1
 2536              		.loc 1 638 6 view .LVU784
 2537 0450 8B42     		cmp	r3, r1
 2538              		.loc 1 637 16 view .LVU785
 2539 0452 2361     		str	r3, [r4, #16]
 2540              	.LVL120:
 2541              		.loc 1 636 17 view .LVU786
 2542 0454 E260     		str	r2, [r4, #12]
 2543              		.loc 1 637 3 is_stmt 1 view .LVU787
 2544              		.loc 1 638 3 view .LVU788
 2545              		.loc 1 638 6 is_stmt 0 view .LVU789
ARM GAS  /tmp/ccDQUTww.s 			page 46


 2546 0456 01D3     		bcc	.L105
 2547              		.loc 1 639 5 is_stmt 1 view .LVU790
 2548              		.loc 1 639 18 is_stmt 0 view .LVU791
 2549 0458 636A     		ldr	r3, [r4, #36]
 2550 045a 2361     		str	r3, [r4, #16]
 2551              	.L105:
 2552              		.loc 1 643 3 is_stmt 1 view .LVU792
 2553              		.loc 1 643 13 is_stmt 0 view .LVU793
 2554 045c 0022     		movs	r2, #0
 2555              		.loc 1 646 11 view .LVU794
 2556 045e 236B     		ldr	r3, [r4, #48]
 2557              		.loc 1 643 13 view .LVU795
 2558 0460 A262     		str	r2, [r4, #40]
 2559              		.loc 1 646 3 is_stmt 1 view .LVU796
 2560              		.loc 1 646 6 is_stmt 0 view .LVU797
 2561 0462 0BB1     		cbz	r3, .L104
 2562              		.loc 1 647 5 is_stmt 1 view .LVU798
 2563 0464 2046     		mov	r0, r4
 2564 0466 9847     		blx	r3
 2565              	.LVL121:
 2566              	.L104:
 2567              		.loc 1 647 5 is_stmt 0 view .LVU799
 2568              	.LBE549:
 2569              	.LBE551:
 2570              		.loc 1 696 3 is_stmt 1 view .LVU800
 2571              	.LBB552:
 2572              	.LBI552:
 2573              		.loc 3 520 20 view .LVU801
 2574              	.LBE552:
 2575              		.loc 3 522 3 view .LVU802
 2576              	.LBB561:
 2577              	.LBB553:
 2578              	.LBI553:
 2579              		.loc 4 365 20 view .LVU803
 2580              	.LBB554:
 2581              		.loc 4 367 22 view .LVU804
 2582              		.loc 4 368 33 view .LVU805
 2583              		.loc 4 374 3 view .LVU806
 2584              		.loc 4 374 3 view .LVU807
 2585              		.loc 4 378 3 view .LVU808
 2586              	.LBB555:
 2587              	.LBI555:
 2588              		.loc 5 693 27 view .LVU809
 2589              	.LBE555:
 2590              	.LBE554:
 2591              	.LBE553:
 2592              	.LBE561:
 2593              		.loc 5 696 3 view .LVU810
 2594              	.LBB562:
 2595              	.LBB560:
 2596              	.LBB559:
 2597              	.LBB558:
 2598              	.LBB556:
 2599              	.LBI556:
 2600              		.loc 6 491 27 view .LVU811
 2601              	.LBB557:
 2602              		.loc 6 493 3 view .LVU812
ARM GAS  /tmp/ccDQUTww.s 			page 47


 2603 0468 0020     		movs	r0, #0
 2604              		.syntax unified
 2605              	@ 493 "../../../external/ChibiOS/os/common/ext/ARM/CMSIS/Core/Include/cmsis_gcc.h" 1
 2606 046a 80F31188 		MSR basepri, r0
 2607              	@ 0 "" 2
 2608              	.LVL122:
 2609              		.loc 6 493 3 is_stmt 0 view .LVU813
 2610              		.thumb
 2611              		.syntax unified
 2612              	.LBE557:
 2613              	.LBE556:
 2614              	.LBE558:
 2615              	.LBE559:
 2616              	.LBE560:
 2617              	.LBE562:
 2618              		.loc 1 697 3 is_stmt 1 view .LVU814
 2619              		.loc 1 698 1 is_stmt 0 view .LVU815
 2620 046e 70BD     		pop	{r4, r5, r6, pc}
 2621              	.LVL123:
 2622              	.L111:
 2623              		.loc 1 679 5 is_stmt 1 view .LVU816
 2624              		.loc 1 679 11 is_stmt 0 view .LVU817
 2625 0470 1146     		mov	r1, r2
 2626              	.LVL124:
 2627              		.loc 1 679 11 view .LVU818
 2628 0472 FFF7FEFF 		bl	obqGetEmptyBufferTimeoutS
 2629              	.LVL125:
 2630              		.loc 1 680 5 is_stmt 1 view .LVU819
 2631              		.loc 1 680 8 is_stmt 0 view .LVU820
 2632 0476 08B9     		cbnz	r0, .L101
 2633 0478 A56A     		ldr	r5, [r4, #40]
 2634 047a D9E7     		b	.L100
 2635              	.L101:
 2636              		.loc 1 681 7 is_stmt 1 view .LVU821
 2637              	.LBB563:
 2638              	.LBI563:
 2639              		.loc 3 520 20 view .LVU822
 2640              	.LBE563:
 2641              		.loc 3 522 3 view .LVU823
 2642              	.LBB572:
 2643              	.LBB564:
 2644              	.LBI564:
 2645              		.loc 4 365 20 view .LVU824
 2646              	.LBB565:
 2647              		.loc 4 367 22 view .LVU825
 2648              		.loc 4 368 33 view .LVU826
 2649              		.loc 4 374 3 view .LVU827
 2650              		.loc 4 374 3 view .LVU828
 2651              		.loc 4 378 3 view .LVU829
 2652              	.LBB566:
 2653              	.LBI566:
 2654              		.loc 5 693 27 view .LVU830
 2655              	.LBE566:
 2656              	.LBE565:
 2657              	.LBE564:
 2658              	.LBE572:
 2659              		.loc 5 696 3 view .LVU831
ARM GAS  /tmp/ccDQUTww.s 			page 48


 2660              	.LVL126:
 2661              	.LBB573:
 2662              	.LBB571:
 2663              	.LBB570:
 2664              	.LBB569:
 2665              	.LBB567:
 2666              	.LBI567:
 2667              		.loc 6 491 27 view .LVU832
 2668              	.LBB568:
 2669              		.loc 6 493 3 view .LVU833
 2670              		.syntax unified
 2671              	@ 493 "../../../external/ChibiOS/os/common/ext/ARM/CMSIS/Core/Include/cmsis_gcc.h" 1
 2672 047c 85F31188 		MSR basepri, r5
 2673              	@ 0 "" 2
 2674              	.LVL127:
 2675              		.loc 6 493 3 is_stmt 0 view .LVU834
 2676              		.thumb
 2677              		.syntax unified
 2678              	.LBE568:
 2679              	.LBE567:
 2680              	.LBE569:
 2681              	.LBE570:
 2682              	.LBE571:
 2683              	.LBE573:
 2684              		.loc 1 682 7 is_stmt 1 view .LVU835
 2685              		.loc 1 698 1 is_stmt 0 view .LVU836
 2686 0480 70BD     		pop	{r4, r5, r6, pc}
 2687              		.loc 1 698 1 view .LVU837
 2688              		.cfi_endproc
 2689              	.LFE380:
 2690              		.size	obqPutTimeout, .-obqPutTimeout
 2691              		.align	1
 2692 0482 00BFAFF3 		.p2align 4,,15
 2692      0080AFF3 
 2692      0080AFF3 
 2692      0080
 2693              		.global	obqWriteTimeout
 2694              		.syntax unified
 2695              		.thumb
 2696              		.thumb_func
 2697              		.fpu fpv4-sp-d16
 2698              		.type	obqWriteTimeout, %function
 2699              	obqWriteTimeout:
 2700              	.LVL128:
 2701              	.LFB381:
 2702              		.loc 1 722 57 is_stmt 1 view -0
 2703              		.cfi_startproc
 2704              		@ args = 0, pretend = 0, frame = 8
 2705              		@ frame_needed = 0, uses_anonymous_args = 0
 2706              		.loc 1 723 3 view .LVU839
 2707              		.loc 1 725 3 view .LVU840
 2708              		.loc 1 725 3 view .LVU841
 2709              		.loc 1 727 3 view .LVU842
 2710              	.LBB574:
 2711              	.LBI574:
 2712              		.loc 3 509 20 view .LVU843
 2713              	.LBE574:
ARM GAS  /tmp/ccDQUTww.s 			page 49


 2714              		.loc 3 511 3 view .LVU844
 2715              	.LBB586:
 2716              	.LBB575:
 2717              	.LBI575:
 2718              		.loc 4 353 20 view .LVU845
 2719              	.LBE575:
 2720              	.LBE586:
 2721              		.loc 4 355 3 view .LVU846
 2722              	.LBB587:
 2723              	.LBB583:
 2724              	.LBB576:
 2725              	.LBI576:
 2726              		.loc 5 669 27 view .LVU847
 2727              	.LBE576:
 2728              	.LBE583:
 2729              	.LBE587:
 2730              		.loc 5 677 3 view .LVU848
 2731              	.LBB588:
 2732              	.LBB584:
 2733              	.LBB581:
 2734              	.LBB577:
 2735              	.LBI577:
 2736              		.loc 6 491 27 view .LVU849
 2737              	.LBB578:
 2738              		.loc 6 493 3 view .LVU850
 2739              	.LBE578:
 2740              	.LBE577:
 2741              	.LBE581:
 2742              	.LBE584:
 2743              	.LBE588:
 2744              		.loc 1 722 57 is_stmt 0 view .LVU851
 2745 0490 2DE9F04F 		push	{r4, r5, r6, r7, r8, r9, r10, fp, lr}
 2746              		.cfi_def_cfa_offset 36
 2747              		.cfi_offset 4, -36
 2748              		.cfi_offset 5, -32
 2749              		.cfi_offset 6, -28
 2750              		.cfi_offset 7, -24
 2751              		.cfi_offset 8, -20
 2752              		.cfi_offset 9, -16
 2753              		.cfi_offset 10, -12
 2754              		.cfi_offset 11, -8
 2755              		.cfi_offset 14, -4
 2756 0494 0546     		mov	r5, r0
 2757 0496 83B0     		sub	sp, sp, #12
 2758              		.cfi_def_cfa_offset 48
 2759              		.loc 1 722 57 view .LVU852
 2760 0498 0C46     		mov	r4, r1
 2761 049a 1646     		mov	r6, r2
 2762 049c 9946     		mov	r9, r3
 2763              	.LBB589:
 2764              	.LBB585:
 2765              	.LBB582:
 2766              	.LBB580:
 2767              	.LBB579:
 2768              		.loc 6 493 3 view .LVU853
 2769 049e 4FF02008 		mov	r8, #32
 2770              		.syntax unified
ARM GAS  /tmp/ccDQUTww.s 			page 50


 2771              	@ 493 "../../../external/ChibiOS/os/common/ext/ARM/CMSIS/Core/Include/cmsis_gcc.h" 1
 2772 04a2 88F31188 		MSR basepri, r8
 2773              	@ 0 "" 2
 2774              	.LVL129:
 2775              		.loc 6 493 3 view .LVU854
 2776              		.thumb
 2777              		.syntax unified
 2778              	.LBE579:
 2779              	.LBE580:
 2780              	.LBE582:
 2781              	.LBE585:
 2782              	.LBE589:
 2783              		.loc 4 356 34 is_stmt 1 view .LVU855
 2784              		.loc 4 357 20 view .LVU856
 2785              		.loc 1 723 10 is_stmt 0 view .LVU857
 2786 04a6 4FF0000A 		mov	r10, #0
 2787              	.LVL130:
 2788              		.loc 1 729 3 is_stmt 1 view .LVU858
 2789              	.LBB590:
 2790              		.loc 1 730 5 view .LVU859
 2791              		.loc 1 733 5 view .LVU860
 2792              		.loc 1 733 13 is_stmt 0 view .LVU861
 2793 04aa AB6A     		ldr	r3, [r5, #40]
 2794              	.LVL131:
 2795              	.LBB591:
 2796              	.LBB592:
 2797              		.loc 1 643 13 view .LVU862
 2798 04ac 5746     		mov	r7, r10
 2799              	.LBE592:
 2800              	.LBE591:
 2801              		.loc 1 733 8 view .LVU863
 2802 04ae 002B     		cmp	r3, #0
 2803 04b0 47D0     		beq	.L129
 2804              	.LVL132:
 2805              	.L113:
 2806              		.loc 1 747 5 is_stmt 1 view .LVU864
 2807              		.loc 1 747 10 is_stmt 0 view .LVU865
 2808 04b2 EA6A     		ldr	r2, [r5, #44]
 2809              		.loc 1 748 19 view .LVU866
 2810 04b4 A6EB0A0B 		sub	fp, r6, r10
 2811              		.loc 1 747 10 view .LVU867
 2812 04b8 D21A     		subs	r2, r2, r3
 2813              	.LVL133:
 2814              		.loc 1 748 5 is_stmt 1 view .LVU868
 2815 04ba 9345     		cmp	fp, r2
 2816 04bc 28BF     		it	cs
 2817 04be 9346     		movcs	fp, r2
 2818              	.LVL134:
 2819              		.loc 1 754 5 view .LVU869
 2820              		.loc 1 754 8 is_stmt 0 view .LVU870
 2821 04c0 BBF1400F 		cmp	fp, #64
 2822 04c4 46D9     		bls	.L116
 2823              		.loc 1 756 7 is_stmt 1 view .LVU871
 2824 04c6 2146     		mov	r1, r4
 2825 04c8 1846     		mov	r0, r3
 2826 04ca 04F1400E 		add	lr, r4, #64
 2827              	.LVL135:
ARM GAS  /tmp/ccDQUTww.s 			page 51


 2828              	.L117:
 2829              		.loc 1 756 7 is_stmt 0 view .LVU872
 2830 04ce D1F800C0 		ldr	ip, [r1]	@ unaligned
 2831 04d2 1031     		adds	r1, r1, #16
 2832 04d4 51F80C4C 		ldr	r4, [r1, #-12]	@ unaligned
 2833 04d8 1030     		adds	r0, r0, #16
 2834 04da 51F8082C 		ldr	r2, [r1, #-8]	@ unaligned
 2835 04de 51F8043C 		ldr	r3, [r1, #-4]	@ unaligned
 2836 04e2 7145     		cmp	r1, lr
 2837 04e4 40F810CC 		str	ip, [r0, #-16]	@ unaligned
 2838 04e8 40F80C4C 		str	r4, [r0, #-12]	@ unaligned
 2839 04ec 40F8082C 		str	r2, [r0, #-8]	@ unaligned
 2840 04f0 40F8043C 		str	r3, [r0, #-4]	@ unaligned
 2841 04f4 EBD1     		bne	.L117
 2842              		.loc 1 757 7 is_stmt 1 view .LVU873
 2843              		.loc 1 758 17 is_stmt 0 view .LVU874
 2844 04f6 AB6A     		ldr	r3, [r5, #40]
 2845              		.loc 1 757 17 view .LVU875
 2846 04f8 0C46     		mov	r4, r1
 2847              	.LVL136:
 2848              		.loc 1 758 7 is_stmt 1 view .LVU876
 2849              		.loc 1 759 17 is_stmt 0 view .LVU877
 2850 04fa 0AF1400A 		add	r10, r10, #64
 2851              	.LVL137:
 2852              		.loc 1 758 17 view .LVU878
 2853 04fe 4033     		adds	r3, r3, #64
 2854 0500 AB62     		str	r3, [r5, #40]
 2855              		.loc 1 759 7 is_stmt 1 view .LVU879
 2856              	.LVL138:
 2857              	.L118:
 2858              		.loc 1 769 5 view .LVU880
 2859              		.loc 1 769 8 is_stmt 0 view .LVU881
 2860 0502 EA6A     		ldr	r2, [r5, #44]
 2861 0504 9A42     		cmp	r2, r3
 2862 0506 13D8     		bhi	.L120
 2863              		.loc 1 770 7 is_stmt 1 view .LVU882
 2864              	.LVL139:
 2865              	.LBB596:
 2866              	.LBI591:
 2867              		.loc 1 626 6 view .LVU883
 2868              	.LBB593:
 2869              		.loc 1 628 23 view .LVU884
 2870              		.loc 1 629 3 view .LVU885
 2871              		.loc 1 629 3 view .LVU886
 2872              		.loc 1 630 3 view .LVU887
 2873              		.loc 1 630 3 view .LVU888
 2874              		.loc 1 633 3 view .LVU889
 2875              	.LBE593:
 2876              	.LBE596:
 2877              		.loc 1 770 7 is_stmt 0 view .LVU890
 2878 0508 EA69     		ldr	r2, [r5, #28]
 2879              	.LBB597:
 2880              	.LBB594:
 2881              		.loc 1 633 19 view .LVU891
 2882 050a 2B69     		ldr	r3, [r5, #16]
 2883              	.LBE594:
 2884              	.LBE597:
ARM GAS  /tmp/ccDQUTww.s 			page 52


 2885              		.loc 1 770 7 view .LVU892
 2886 050c 043A     		subs	r2, r2, #4
 2887              	.LVL140:
 2888              	.LBB598:
 2889              	.LBB595:
 2890              		.loc 1 638 6 view .LVU893
 2891 050e A869     		ldr	r0, [r5, #24]
 2892              		.loc 1 633 29 view .LVU894
 2893 0510 1A60     		str	r2, [r3]
 2894              		.loc 1 636 3 is_stmt 1 view .LVU895
 2895              		.loc 1 637 16 is_stmt 0 view .LVU896
 2896 0512 E969     		ldr	r1, [r5, #28]
 2897              		.loc 1 636 7 view .LVU897
 2898 0514 EA68     		ldr	r2, [r5, #12]
 2899              	.LVL141:
 2900              		.loc 1 637 16 view .LVU898
 2901 0516 0B44     		add	r3, r3, r1
 2902              	.LVL142:
 2903              		.loc 1 636 17 view .LVU899
 2904 0518 013A     		subs	r2, r2, #1
 2905              		.loc 1 638 6 view .LVU900
 2906 051a 8342     		cmp	r3, r0
 2907              		.loc 1 637 16 view .LVU901
 2908 051c 2B61     		str	r3, [r5, #16]
 2909              	.LVL143:
 2910              		.loc 1 636 17 view .LVU902
 2911 051e EA60     		str	r2, [r5, #12]
 2912              		.loc 1 637 3 is_stmt 1 view .LVU903
 2913              		.loc 1 638 3 view .LVU904
 2914              		.loc 1 638 6 is_stmt 0 view .LVU905
 2915 0520 01D3     		bcc	.L121
 2916              		.loc 1 639 5 is_stmt 1 view .LVU906
 2917              		.loc 1 639 18 is_stmt 0 view .LVU907
 2918 0522 6B6A     		ldr	r3, [r5, #36]
 2919 0524 2B61     		str	r3, [r5, #16]
 2920              	.L121:
 2921              		.loc 1 643 3 is_stmt 1 view .LVU908
 2922              		.loc 1 646 11 is_stmt 0 view .LVU909
 2923 0526 2B6B     		ldr	r3, [r5, #48]
 2924              		.loc 1 643 13 view .LVU910
 2925 0528 AF62     		str	r7, [r5, #40]
 2926              		.loc 1 646 3 is_stmt 1 view .LVU911
 2927              		.loc 1 646 6 is_stmt 0 view .LVU912
 2928 052a 0BB1     		cbz	r3, .L120
 2929              		.loc 1 647 5 is_stmt 1 view .LVU913
 2930 052c 2846     		mov	r0, r5
 2931 052e 9847     		blx	r3
 2932              	.LVL144:
 2933              	.L120:
 2934              		.loc 1 647 5 is_stmt 0 view .LVU914
 2935              	.LBE595:
 2936              	.LBE598:
 2937              		.loc 1 774 5 is_stmt 1 view .LVU915
 2938              	.LBB599:
 2939              	.LBI599:
 2940              		.loc 3 520 20 view .LVU916
 2941              	.LBE599:
ARM GAS  /tmp/ccDQUTww.s 			page 53


 2942              	.LBE590:
 2943              		.loc 3 522 3 view .LVU917
 2944              	.LBB636:
 2945              	.LBB608:
 2946              	.LBB600:
 2947              	.LBI600:
 2948              		.loc 4 365 20 view .LVU918
 2949              	.LBB601:
 2950              		.loc 4 367 22 view .LVU919
 2951              		.loc 4 368 33 view .LVU920
 2952              		.loc 4 374 3 view .LVU921
 2953              		.loc 4 374 3 view .LVU922
 2954              		.loc 4 378 3 view .LVU923
 2955              	.LBB602:
 2956              	.LBI602:
 2957              		.loc 5 693 27 view .LVU924
 2958              	.LBE602:
 2959              	.LBE601:
 2960              	.LBE600:
 2961              	.LBE608:
 2962              	.LBE636:
 2963              		.loc 5 696 3 view .LVU925
 2964              	.LBB637:
 2965              	.LBB609:
 2966              	.LBB607:
 2967              	.LBB606:
 2968              	.LBB605:
 2969              	.LBB603:
 2970              	.LBI603:
 2971              		.loc 6 491 27 view .LVU926
 2972              	.LBB604:
 2973              		.loc 6 493 3 view .LVU927
 2974              		.syntax unified
 2975              	@ 493 "../../../external/ChibiOS/os/common/ext/ARM/CMSIS/Core/Include/cmsis_gcc.h" 1
 2976 0530 87F31188 		MSR basepri, r7
 2977              	@ 0 "" 2
 2978              	.LVL145:
 2979              		.loc 6 493 3 is_stmt 0 view .LVU928
 2980              		.thumb
 2981              		.syntax unified
 2982              	.LBE604:
 2983              	.LBE603:
 2984              	.LBE605:
 2985              	.LBE606:
 2986              	.LBE607:
 2987              	.LBE609:
 2988              		.loc 1 775 5 is_stmt 1 view .LVU929
 2989              		.loc 1 775 8 is_stmt 0 view .LVU930
 2990 0534 B245     		cmp	r10, r6
 2991 0536 1AD2     		bcs	.L112
 2992              		.loc 1 778 5 is_stmt 1 view .LVU931
 2993              	.LBB610:
 2994              	.LBI610:
 2995              		.loc 3 509 20 view .LVU932
 2996              	.LBE610:
 2997              	.LBE637:
 2998              		.loc 3 511 3 view .LVU933
ARM GAS  /tmp/ccDQUTww.s 			page 54


 2999              	.LBB638:
 3000              	.LBB618:
 3001              	.LBB611:
 3002              	.LBI611:
 3003              		.loc 4 353 20 view .LVU934
 3004              	.LBE611:
 3005              	.LBE618:
 3006              	.LBE638:
 3007              		.loc 4 355 3 view .LVU935
 3008              	.LBB639:
 3009              	.LBB619:
 3010              	.LBB616:
 3011              	.LBB612:
 3012              	.LBI612:
 3013              		.loc 5 669 27 view .LVU936
 3014              	.LBE612:
 3015              	.LBE616:
 3016              	.LBE619:
 3017              	.LBE639:
 3018              		.loc 5 677 3 view .LVU937
 3019              	.LVL146:
 3020              	.LBB640:
 3021              	.LBB620:
 3022              	.LBB617:
 3023              	.LBB615:
 3024              	.LBB613:
 3025              	.LBI613:
 3026              		.loc 6 491 27 view .LVU938
 3027              	.LBB614:
 3028              		.loc 6 493 3 view .LVU939
 3029              		.syntax unified
 3030              	@ 493 "../../../external/ChibiOS/os/common/ext/ARM/CMSIS/Core/Include/cmsis_gcc.h" 1
 3031 0538 88F31188 		MSR basepri, r8
 3032              	@ 0 "" 2
 3033              	.LVL147:
 3034              		.loc 6 493 3 is_stmt 0 view .LVU940
 3035              		.thumb
 3036              		.syntax unified
 3037              	.LBE614:
 3038              	.LBE613:
 3039              	.LBE615:
 3040              	.LBE617:
 3041              	.LBE620:
 3042              	.LBE640:
 3043              		.loc 4 356 34 is_stmt 1 view .LVU941
 3044              		.loc 4 357 20 view .LVU942
 3045              		.loc 1 729 3 view .LVU943
 3046              	.LBB641:
 3047              		.loc 1 730 5 view .LVU944
 3048              		.loc 1 733 5 view .LVU945
 3049              		.loc 1 733 13 is_stmt 0 view .LVU946
 3050 053c AB6A     		ldr	r3, [r5, #40]
 3051              		.loc 1 733 8 view .LVU947
 3052 053e 002B     		cmp	r3, #0
 3053 0540 B7D1     		bne	.L113
 3054              	.LVL148:
 3055              	.L129:
ARM GAS  /tmp/ccDQUTww.s 			page 55


 3056              	.LBB621:
 3057              		.loc 1 734 7 is_stmt 1 view .LVU948
 3058              		.loc 1 737 7 view .LVU949
 3059              		.loc 1 737 13 is_stmt 0 view .LVU950
 3060 0542 4946     		mov	r1, r9
 3061 0544 2846     		mov	r0, r5
 3062 0546 0193     		str	r3, [sp, #4]
 3063 0548 FFF7FEFF 		bl	obqGetEmptyBufferTimeoutS
 3064              	.LVL149:
 3065              		.loc 1 740 7 is_stmt 1 view .LVU951
 3066              		.loc 1 740 10 is_stmt 0 view .LVU952
 3067 054c 019B     		ldr	r3, [sp, #4]
 3068 054e 60B9     		cbnz	r0, .L114
 3069 0550 AB6A     		ldr	r3, [r5, #40]
 3070 0552 AEE7     		b	.L113
 3071              	.LVL150:
 3072              	.L116:
 3073              		.loc 1 740 10 view .LVU953
 3074              	.LBE621:
 3075              		.loc 1 762 7 is_stmt 1 view .LVU954
 3076 0554 1846     		mov	r0, r3
 3077 0556 2146     		mov	r1, r4
 3078 0558 5A46     		mov	r2, fp
 3079              		.loc 1 765 17 is_stmt 0 view .LVU955
 3080 055a DA44     		add	r10, r10, fp
 3081              	.LVL151:
 3082              		.loc 1 762 7 view .LVU956
 3083 055c FFF7FEFF 		bl	memcpy
 3084              	.LVL152:
 3085              		.loc 1 763 7 is_stmt 1 view .LVU957
 3086              		.loc 1 764 17 is_stmt 0 view .LVU958
 3087 0560 AB6A     		ldr	r3, [r5, #40]
 3088              		.loc 1 763 17 view .LVU959
 3089 0562 5C44     		add	r4, r4, fp
 3090              	.LVL153:
 3091              		.loc 1 764 7 is_stmt 1 view .LVU960
 3092              		.loc 1 764 17 is_stmt 0 view .LVU961
 3093 0564 5B44     		add	r3, r3, fp
 3094 0566 AB62     		str	r3, [r5, #40]
 3095              		.loc 1 765 7 is_stmt 1 view .LVU962
 3096              	.LVL154:
 3097              		.loc 1 765 7 is_stmt 0 view .LVU963
 3098 0568 CBE7     		b	.L118
 3099              	.LVL155:
 3100              	.L114:
 3101              	.LBB633:
 3102              		.loc 1 741 9 is_stmt 1 view .LVU964
 3103              	.LBB622:
 3104              	.LBI622:
 3105              		.loc 3 520 20 view .LVU965
 3106              	.LBE622:
 3107              	.LBE633:
 3108              	.LBE641:
 3109              		.loc 3 522 3 view .LVU966
 3110              	.LBB642:
 3111              	.LBB634:
 3112              	.LBB631:
ARM GAS  /tmp/ccDQUTww.s 			page 56


 3113              	.LBB623:
 3114              	.LBI623:
 3115              		.loc 4 365 20 view .LVU967
 3116              	.LBB624:
 3117              		.loc 4 367 22 view .LVU968
 3118              		.loc 4 368 33 view .LVU969
 3119              		.loc 4 374 3 view .LVU970
 3120              		.loc 4 374 3 view .LVU971
 3121              		.loc 4 378 3 view .LVU972
 3122              	.LBB625:
 3123              	.LBI625:
 3124              		.loc 5 693 27 view .LVU973
 3125              	.LBE625:
 3126              	.LBE624:
 3127              	.LBE623:
 3128              	.LBE631:
 3129              	.LBE634:
 3130              	.LBE642:
 3131              		.loc 5 696 3 view .LVU974
 3132              	.LBB643:
 3133              	.LBB635:
 3134              	.LBB632:
 3135              	.LBB630:
 3136              	.LBB629:
 3137              	.LBB628:
 3138              	.LBB626:
 3139              	.LBI626:
 3140              		.loc 6 491 27 view .LVU975
 3141              	.LBB627:
 3142              		.loc 6 493 3 view .LVU976
 3143              		.syntax unified
 3144              	@ 493 "../../../external/ChibiOS/os/common/ext/ARM/CMSIS/Core/Include/cmsis_gcc.h" 1
 3145 056a 83F31188 		MSR basepri, r3
 3146              	@ 0 "" 2
 3147              	.LVL156:
 3148              		.loc 6 493 3 is_stmt 0 view .LVU977
 3149              		.thumb
 3150              		.syntax unified
 3151              	.LBE627:
 3152              	.LBE626:
 3153              	.LBE628:
 3154              	.LBE629:
 3155              	.LBE630:
 3156              	.LBE632:
 3157              		.loc 1 742 9 is_stmt 1 view .LVU978
 3158              	.L112:
 3159              		.loc 1 742 9 is_stmt 0 view .LVU979
 3160              	.LBE635:
 3161              	.LBE643:
 3162              		.loc 1 780 1 view .LVU980
 3163 056e 5046     		mov	r0, r10
 3164 0570 03B0     		add	sp, sp, #12
 3165              		.cfi_def_cfa_offset 36
 3166              		@ sp needed
 3167 0572 BDE8F08F 		pop	{r4, r5, r6, r7, r8, r9, r10, fp, pc}
 3168              		.loc 1 780 1 view .LVU981
 3169              		.cfi_endproc
ARM GAS  /tmp/ccDQUTww.s 			page 57


 3170              	.LFE381:
 3171              		.size	obqWriteTimeout, .-obqWriteTimeout
 3172              		.align	1
 3173 0576 00BFAFF3 		.p2align 4,,15
 3173      0080AFF3 
 3173      0080
 3174              		.global	obqTryFlushI
 3175              		.syntax unified
 3176              		.thumb
 3177              		.thumb_func
 3178              		.fpu fpv4-sp-d16
 3179              		.type	obqTryFlushI, %function
 3180              	obqTryFlushI:
 3181              	.LVL157:
 3182              	.LFB382:
 3183              		.loc 1 795 49 is_stmt 1 view -0
 3184              		.cfi_startproc
 3185              		@ args = 0, pretend = 0, frame = 0
 3186              		@ frame_needed = 0, uses_anonymous_args = 0
 3187              		@ link register save eliminated.
 3188              		.loc 1 797 23 view .LVU983
 3189              		.loc 1 801 3 view .LVU984
 3190              		.loc 1 801 7 is_stmt 0 view .LVU985
 3191 0580 D0E90413 		ldrd	r1, r3, [r0, #16]
 3192 0584 9942     		cmp	r1, r3
 3193 0586 01D0     		beq	.L142
 3194              		.loc 1 822 10 view .LVU986
 3195 0588 0020     		movs	r0, #0
 3196              	.LVL158:
 3197              		.loc 1 822 10 view .LVU987
 3198 058a 7047     		bx	lr
 3199              	.LVL159:
 3200              	.L142:
 3201              		.loc 1 822 10 view .LVU988
 3202 058c 0246     		mov	r2, r0
 3203              		.loc 1 801 7 discriminator 1 view .LVU989
 3204 058e C068     		ldr	r0, [r0, #12]
 3205              	.LVL160:
 3206              		.loc 1 801 7 discriminator 1 view .LVU990
 3207 0590 28B1     		cbz	r0, .L143
 3208              		.loc 1 801 33 view .LVU991
 3209 0592 906A     		ldr	r0, [r2, #40]
 3210              		.loc 1 801 25 view .LVU992
 3211 0594 20B1     		cbz	r0, .L144
 3212              	.LBB644:
 3213              		.loc 1 802 5 is_stmt 1 view .LVU993
 3214              		.loc 1 802 12 is_stmt 0 view .LVU994
 3215 0596 031F     		subs	r3, r0, #4
 3216              	.LVL161:
 3217              		.loc 1 804 5 is_stmt 1 view .LVU995
 3218              		.loc 1 804 8 is_stmt 0 view .LVU996
 3219 0598 581A     		subs	r0, r3, r1
 3220              	.LVL162:
 3221              		.loc 1 804 8 view .LVU997
 3222 059a 02D1     		bne	.L145
 3223              	.LBE644:
 3224              		.loc 1 823 1 view .LVU998
ARM GAS  /tmp/ccDQUTww.s 			page 58


 3225 059c 7047     		bx	lr
 3226              	.LVL163:
 3227              	.L143:
 3228              		.loc 1 823 1 view .LVU999
 3229 059e 7047     		bx	lr
 3230              	.L144:
 3231              	.LBB645:
 3232 05a0 7047     		bx	lr
 3233              	.LVL164:
 3234              	.L145:
 3235              		.loc 1 807 7 is_stmt 1 view .LVU1000
 3236              	.LBE645:
 3237              		.loc 1 795 49 is_stmt 0 view .LVU1001
 3238 05a2 10B4     		push	{r4}
 3239              		.cfi_def_cfa_offset 4
 3240              		.cfi_offset 4, -4
 3241              	.LBB646:
 3242              		.loc 1 807 33 view .LVU1002
 3243 05a4 0860     		str	r0, [r1]
 3244              		.loc 1 810 7 is_stmt 1 view .LVU1003
 3245              		.loc 1 811 20 is_stmt 0 view .LVU1004
 3246 05a6 D469     		ldr	r4, [r2, #28]
 3247              		.loc 1 810 11 view .LVU1005
 3248 05a8 D368     		ldr	r3, [r2, #12]
 3249              		.loc 1 811 20 view .LVU1006
 3250 05aa 2144     		add	r1, r1, r4
 3251              		.loc 1 812 10 view .LVU1007
 3252 05ac 9069     		ldr	r0, [r2, #24]
 3253              	.LVL165:
 3254              		.loc 1 810 21 view .LVU1008
 3255 05ae 013B     		subs	r3, r3, #1
 3256              		.loc 1 812 10 view .LVU1009
 3257 05b0 8142     		cmp	r1, r0
 3258              		.loc 1 811 20 view .LVU1010
 3259 05b2 1161     		str	r1, [r2, #16]
 3260              	.LVL166:
 3261              		.loc 1 810 21 view .LVU1011
 3262 05b4 D360     		str	r3, [r2, #12]
 3263              		.loc 1 811 7 is_stmt 1 view .LVU1012
 3264              		.loc 1 812 7 view .LVU1013
 3265              		.loc 1 812 10 is_stmt 0 view .LVU1014
 3266 05b6 01D3     		bcc	.L133
 3267              		.loc 1 813 9 is_stmt 1 view .LVU1015
 3268              		.loc 1 813 22 is_stmt 0 view .LVU1016
 3269 05b8 536A     		ldr	r3, [r2, #36]
 3270 05ba 1361     		str	r3, [r2, #16]
 3271              	.L133:
 3272              		.loc 1 817 7 is_stmt 1 view .LVU1017
 3273              		.loc 1 817 17 is_stmt 0 view .LVU1018
 3274 05bc 0023     		movs	r3, #0
 3275              		.loc 1 819 14 view .LVU1019
 3276 05be 0120     		movs	r0, #1
 3277              	.LBE646:
 3278              		.loc 1 823 1 view .LVU1020
 3279 05c0 5DF8044B 		ldr	r4, [sp], #4
 3280              		.cfi_restore 4
 3281              		.cfi_def_cfa_offset 0
ARM GAS  /tmp/ccDQUTww.s 			page 59


 3282              	.LBB647:
 3283              		.loc 1 817 17 view .LVU1021
 3284 05c4 9362     		str	r3, [r2, #40]
 3285              		.loc 1 819 7 is_stmt 1 view .LVU1022
 3286              	.LBE647:
 3287              		.loc 1 823 1 is_stmt 0 view .LVU1023
 3288 05c6 7047     		bx	lr
 3289              		.cfi_endproc
 3290              	.LFE382:
 3291              		.size	obqTryFlushI, .-obqTryFlushI
 3292              		.align	1
 3293 05c8 AFF30080 		.p2align 4,,15
 3293      AFF30080 
 3294              		.global	obqFlush
 3295              		.syntax unified
 3296              		.thumb
 3297              		.thumb_func
 3298              		.fpu fpv4-sp-d16
 3299              		.type	obqFlush, %function
 3300              	obqFlush:
 3301              	.LVL167:
 3302              	.LFB383:
 3303              		.loc 1 832 45 is_stmt 1 view -0
 3304              		.cfi_startproc
 3305              		@ args = 0, pretend = 0, frame = 0
 3306              		@ frame_needed = 0, uses_anonymous_args = 0
 3307              		.loc 1 834 3 view .LVU1025
 3308              	.LBB648:
 3309              	.LBI648:
 3310              		.loc 3 509 20 view .LVU1026
 3311              	.LBE648:
 3312              		.loc 3 511 3 view .LVU1027
 3313              	.LBB656:
 3314              	.LBB649:
 3315              	.LBI649:
 3316              		.loc 4 353 20 view .LVU1028
 3317              	.LBE649:
 3318              	.LBE656:
 3319              		.loc 4 355 3 view .LVU1029
 3320              	.LBB657:
 3321              	.LBB654:
 3322              	.LBB650:
 3323              	.LBI650:
 3324              		.loc 5 669 27 view .LVU1030
 3325              	.LBE650:
 3326              	.LBE654:
 3327              	.LBE657:
 3328              		.loc 5 677 3 view .LVU1031
 3329              	.LBB658:
 3330              	.LBB655:
 3331              	.LBB653:
 3332              	.LBB651:
 3333              	.LBI651:
 3334              		.loc 6 491 27 view .LVU1032
 3335              	.LBB652:
 3336              		.loc 6 493 3 view .LVU1033
 3337 05d0 2023     		movs	r3, #32
ARM GAS  /tmp/ccDQUTww.s 			page 60


 3338              		.syntax unified
 3339              	@ 493 "../../../external/ChibiOS/os/common/ext/ARM/CMSIS/Core/Include/cmsis_gcc.h" 1
 3340 05d2 83F31188 		MSR basepri, r3
 3341              	@ 0 "" 2
 3342              	.LVL168:
 3343              		.loc 6 493 3 is_stmt 0 view .LVU1034
 3344              		.thumb
 3345              		.syntax unified
 3346              	.LBE652:
 3347              	.LBE651:
 3348              	.LBE653:
 3349              	.LBE655:
 3350              	.LBE658:
 3351              		.loc 4 356 34 is_stmt 1 view .LVU1035
 3352              		.loc 4 357 20 view .LVU1036
 3353              		.loc 1 837 3 view .LVU1037
 3354              		.loc 1 837 11 is_stmt 0 view .LVU1038
 3355 05d6 836A     		ldr	r3, [r0, #40]
 3356              		.loc 1 837 6 view .LVU1039
 3357 05d8 BBB1     		cbz	r3, .L158
 3358              	.LBB659:
 3359              		.loc 1 838 5 is_stmt 1 view .LVU1040
 3360              		.loc 1 838 12 is_stmt 0 view .LVU1041
 3361 05da 043B     		subs	r3, r3, #4
 3362              		.loc 1 838 52 view .LVU1042
 3363 05dc 0269     		ldr	r2, [r0, #16]
 3364              	.LVL169:
 3365              		.loc 1 840 5 is_stmt 1 view .LVU1043
 3366              		.loc 1 840 8 is_stmt 0 view .LVU1044
 3367 05de 9B1A     		subs	r3, r3, r2
 3368              	.LVL170:
 3369              		.loc 1 840 8 view .LVU1045
 3370 05e0 13D0     		beq	.L158
 3371              		.loc 1 841 7 is_stmt 1 view .LVU1046
 3372              	.LVL171:
 3373              	.LBB660:
 3374              	.LBI660:
 3375              		.loc 1 626 6 view .LVU1047
 3376              	.LBB661:
 3377              		.loc 1 628 23 view .LVU1048
 3378              		.loc 1 629 3 view .LVU1049
 3379              		.loc 1 629 3 view .LVU1050
 3380              		.loc 1 630 3 view .LVU1051
 3381              		.loc 1 630 3 view .LVU1052
 3382              		.loc 1 633 3 view .LVU1053
 3383              		.loc 1 638 6 is_stmt 0 view .LVU1054
 3384 05e2 8169     		ldr	r1, [r0, #24]
 3385              	.LBE661:
 3386              	.LBE660:
 3387              	.LBE659:
 3388              		.loc 1 832 45 view .LVU1055
 3389 05e4 10B5     		push	{r4, lr}
 3390              		.cfi_def_cfa_offset 8
 3391              		.cfi_offset 4, -8
 3392              		.cfi_offset 14, -4
 3393              	.LBB666:
 3394              	.LBB664:
ARM GAS  /tmp/ccDQUTww.s 			page 61


 3395              	.LBB662:
 3396              		.loc 1 633 29 view .LVU1056
 3397 05e6 1360     		str	r3, [r2]
 3398              		.loc 1 636 3 is_stmt 1 view .LVU1057
 3399              		.loc 1 637 16 is_stmt 0 view .LVU1058
 3400 05e8 C469     		ldr	r4, [r0, #28]
 3401              		.loc 1 636 7 view .LVU1059
 3402 05ea C368     		ldr	r3, [r0, #12]
 3403              	.LVL172:
 3404              		.loc 1 637 16 view .LVU1060
 3405 05ec 2244     		add	r2, r2, r4
 3406              	.LVL173:
 3407              		.loc 1 636 17 view .LVU1061
 3408 05ee 013B     		subs	r3, r3, #1
 3409              		.loc 1 638 6 view .LVU1062
 3410 05f0 8A42     		cmp	r2, r1
 3411              		.loc 1 637 16 view .LVU1063
 3412 05f2 0261     		str	r2, [r0, #16]
 3413              	.LVL174:
 3414              		.loc 1 636 17 view .LVU1064
 3415 05f4 C360     		str	r3, [r0, #12]
 3416              		.loc 1 637 3 is_stmt 1 view .LVU1065
 3417              		.loc 1 638 3 view .LVU1066
 3418              		.loc 1 638 6 is_stmt 0 view .LVU1067
 3419 05f6 0CD2     		bcs	.L161
 3420              	.L150:
 3421              		.loc 1 643 3 is_stmt 1 view .LVU1068
 3422              		.loc 1 643 13 is_stmt 0 view .LVU1069
 3423 05f8 0022     		movs	r2, #0
 3424              		.loc 1 646 11 view .LVU1070
 3425 05fa 036B     		ldr	r3, [r0, #48]
 3426              		.loc 1 643 13 view .LVU1071
 3427 05fc 8262     		str	r2, [r0, #40]
 3428              		.loc 1 646 3 is_stmt 1 view .LVU1072
 3429              		.loc 1 646 6 is_stmt 0 view .LVU1073
 3430 05fe 03B1     		cbz	r3, .L148
 3431              		.loc 1 647 5 is_stmt 1 view .LVU1074
 3432 0600 9847     		blx	r3
 3433              	.LVL175:
 3434              	.L148:
 3435              		.loc 1 647 5 is_stmt 0 view .LVU1075
 3436              	.LBE662:
 3437              	.LBE664:
 3438              	.LBE666:
 3439              		.loc 1 845 3 is_stmt 1 view .LVU1076
 3440              	.LBB667:
 3441              	.LBI667:
 3442              		.loc 3 520 20 view .LVU1077
 3443              	.LBE667:
 3444              		.loc 3 522 3 view .LVU1078
 3445              	.LBB684:
 3446              	.LBB668:
 3447              	.LBI668:
 3448              		.loc 4 365 20 view .LVU1079
 3449              	.LBB669:
 3450              		.loc 4 367 22 view .LVU1080
 3451              		.loc 4 368 33 view .LVU1081
ARM GAS  /tmp/ccDQUTww.s 			page 62


 3452              		.loc 4 374 3 view .LVU1082
 3453              		.loc 4 374 3 view .LVU1083
 3454              		.loc 4 378 3 view .LVU1084
 3455              	.LBB670:
 3456              	.LBI670:
 3457              		.loc 5 693 27 view .LVU1085
 3458              	.LBE670:
 3459              	.LBE669:
 3460              	.LBE668:
 3461              	.LBE684:
 3462              		.loc 5 696 3 view .LVU1086
 3463              	.LBB685:
 3464              	.LBB681:
 3465              	.LBB678:
 3466              	.LBB675:
 3467              	.LBB671:
 3468              	.LBI671:
 3469              		.loc 6 491 27 view .LVU1087
 3470              	.LBB672:
 3471              		.loc 6 493 3 view .LVU1088
 3472 0602 0023     		movs	r3, #0
 3473              		.syntax unified
 3474              	@ 493 "../../../external/ChibiOS/os/common/ext/ARM/CMSIS/Core/Include/cmsis_gcc.h" 1
 3475 0604 83F31188 		MSR basepri, r3
 3476              	@ 0 "" 2
 3477              	.LVL176:
 3478              		.loc 6 493 3 is_stmt 0 view .LVU1089
 3479              		.thumb
 3480              		.syntax unified
 3481              	.LBE672:
 3482              	.LBE671:
 3483              	.LBE675:
 3484              	.LBE678:
 3485              	.LBE681:
 3486              	.LBE685:
 3487              		.loc 1 846 1 view .LVU1090
 3488 0608 10BD     		pop	{r4, pc}
 3489              	.LVL177:
 3490              	.L158:
 3491              		.cfi_def_cfa_offset 0
 3492              		.cfi_restore 4
 3493              		.cfi_restore 14
 3494              		.loc 1 845 3 is_stmt 1 view .LVU1091
 3495              	.LBB686:
 3496              		.loc 3 520 20 view .LVU1092
 3497              	.LBE686:
 3498              		.loc 3 522 3 view .LVU1093
 3499              	.LBB687:
 3500              	.LBB682:
 3501              		.loc 4 365 20 view .LVU1094
 3502              	.LBB679:
 3503              		.loc 4 367 22 view .LVU1095
 3504              		.loc 4 368 33 view .LVU1096
 3505              		.loc 4 374 3 view .LVU1097
 3506              		.loc 4 374 3 view .LVU1098
 3507              		.loc 4 378 3 view .LVU1099
 3508              	.LBB676:
ARM GAS  /tmp/ccDQUTww.s 			page 63


 3509              		.loc 5 693 27 view .LVU1100
 3510              	.LBE676:
 3511              	.LBE679:
 3512              	.LBE682:
 3513              	.LBE687:
 3514              		.loc 5 696 3 view .LVU1101
 3515              	.LBB688:
 3516              	.LBB683:
 3517              	.LBB680:
 3518              	.LBB677:
 3519              	.LBB674:
 3520              		.loc 6 491 27 view .LVU1102
 3521              	.LBB673:
 3522              		.loc 6 493 3 view .LVU1103
 3523 060a 0023     		movs	r3, #0
 3524              		.syntax unified
 3525              	@ 493 "../../../external/ChibiOS/os/common/ext/ARM/CMSIS/Core/Include/cmsis_gcc.h" 1
 3526 060c 83F31188 		MSR basepri, r3
 3527              	@ 0 "" 2
 3528              	.LVL178:
 3529              		.loc 6 493 3 is_stmt 0 view .LVU1104
 3530              		.thumb
 3531              		.syntax unified
 3532 0610 7047     		bx	lr
 3533              	.LVL179:
 3534              	.L161:
 3535              		.cfi_def_cfa_offset 8
 3536              		.cfi_offset 4, -8
 3537              		.cfi_offset 14, -4
 3538              		.loc 6 493 3 view .LVU1105
 3539              	.LBE673:
 3540              	.LBE674:
 3541              	.LBE677:
 3542              	.LBE680:
 3543              	.LBE683:
 3544              	.LBE688:
 3545              	.LBB689:
 3546              	.LBB665:
 3547              	.LBB663:
 3548              		.loc 1 639 5 is_stmt 1 view .LVU1106
 3549              		.loc 1 639 18 is_stmt 0 view .LVU1107
 3550 0612 436A     		ldr	r3, [r0, #36]
 3551 0614 0361     		str	r3, [r0, #16]
 3552 0616 EFE7     		b	.L150
 3553              	.LBE663:
 3554              	.LBE665:
 3555              	.LBE689:
 3556              		.cfi_endproc
 3557              	.LFE383:
 3558              		.size	obqFlush, .-obqFlush
 3559              	.Letext0:
 3560              		.file 7 "/home/nicolas/arm/gcc-arm-none-eabi-8-2019-q3-update/lib/gcc/arm-none-eabi/8.3.1/include/
 3561              		.file 8 "/home/nicolas/arm/gcc-arm-none-eabi-8-2019-q3-update/arm-none-eabi/include/machine/_defau
 3562              		.file 9 "/home/nicolas/arm/gcc-arm-none-eabi-8-2019-q3-update/arm-none-eabi/include/sys/_types.h"
 3563              		.file 10 "/home/nicolas/arm/gcc-arm-none-eabi-8-2019-q3-update/arm-none-eabi/include/sys/reent.h"
 3564              		.file 11 "/home/nicolas/arm/gcc-arm-none-eabi-8-2019-q3-update/arm-none-eabi/include/sys/lock.h"
 3565              		.file 12 "/home/nicolas/arm/gcc-arm-none-eabi-8-2019-q3-update/arm-none-eabi/include/sys/_stdint.h
ARM GAS  /tmp/ccDQUTww.s 			page 64


 3566              		.file 13 "/home/nicolas/arm/gcc-arm-none-eabi-8-2019-q3-update/arm-none-eabi/include/stdint.h"
 3567              		.file 14 "../../../external/ChibiOS/os/common/ports/ARMCMx/compilers/GCC/chtypes.h"
 3568              		.file 15 "../../../external/ChibiOS/os/rt/include/chsystypes.h"
 3569              		.file 16 "../../../external/ChibiOS/os/rt/include/chtime.h"
 3570              		.file 17 "../../../external/ChibiOS/os/common/ext/ARM/CMSIS/Core/Include/core_cm7.h"
 3571              		.file 18 "../../../external/ChibiOS/os/common/ext/ST/STM32H7xx/system_stm32h7xx.h"
 3572              		.file 19 "../../../external/ChibiOS/os/common/ext/ST/STM32H7xx/stm32h753xx.h"
 3573              		.file 20 "../../../external/ChibiOS/os/common/ports/ARMCMx/chcore.h"
 3574              		.file 21 "../../../external/ChibiOS/os/rt/include/chtrace.h"
 3575              		.file 22 "../../../external/ChibiOS/os/rt/include/chtm.h"
 3576              		.file 23 "../../../external/ChibiOS/os/rt/include/chsem.h"
 3577              		.file 24 "../../../external/ChibiOS/os/rt/include/chmtx.h"
 3578              		.file 25 "../../../external/ChibiOS/os/rt/include/chregistry.h"
 3579              		.file 26 "../../../external/ChibiOS/os/rt/include/chevents.h"
 3580              		.file 27 "../../../external/ChibiOS/os/oslib/include/chmemcore.h"
 3581              		.file 28 "../../../external/ChibiOS/os/oslib/include/chmempools.h"
 3582              		.file 29 "../../../external/ChibiOS/os/oslib/include/chfactory.h"
 3583              		.file 30 "../../../external/ChibiOS/os/hal/ports/STM32/LLD/DMAv2/stm32_dma.h"
 3584              		.file 31 "../../../external/ChibiOS/os/hal/ports/STM32/LLD/BDMAv1/stm32_bdma.h"
 3585              		.file 32 "../../../external/ChibiOS/os/hal/ports/STM32/LLD/TIMv1/stm32_tim.h"
 3586              		.file 33 "../../../external/ChibiOS/os/hal/include/hal_ioblock.h"
 3587              		.file 34 "../../../external/ChibiOS/os/hal/include/hal_buffers.h"
 3588              		.file 35 "../../../external/ChibiOS/os/hal/include/hal_queues.h"
 3589              		.file 36 "../../../external/ChibiOS/os/hal/ports/STM32/LLD/GPIOv2/stm32_gpio.h"
 3590              		.file 37 "../../../external/ChibiOS/os/hal/ports/STM32/LLD/GPIOv2/hal_pal_lld.h"
 3591              		.file 38 "../../../external/ChibiOS/os/hal/include/hal_adc.h"
 3592              		.file 39 "../../../external/ChibiOS/os/hal/ports/STM32/LLD/ADCv4/hal_adc_lld.h"
 3593              		.file 40 "../../../external/ChibiOS/os/hal/include/hal_i2c.h"
 3594              		.file 41 "../../../external/ChibiOS/os/hal/ports/STM32/LLD/I2Cv3/hal_i2c_lld.h"
 3595              		.file 42 "../../../external/ChibiOS/os/hal/include/hal_pwm.h"
 3596              		.file 43 "../../../external/ChibiOS/os/hal/ports/STM32/LLD/TIMv1/hal_pwm_lld.h"
 3597              		.file 44 "../../../external/ChibiOS/os/hal/include/hal_serial.h"
 3598              		.file 45 "../../../external/ChibiOS/os/hal/ports/STM32/LLD/USARTv2/hal_serial_lld.h"
 3599              		.file 46 "../../../external/ChibiOS/os/hal/include/hal_sdc.h"
 3600              		.file 47 "../../../external/ChibiOS/os/hal/ports/STM32/LLD/SDMMCv2/hal_sdc_lld.h"
 3601              		.file 48 "../../../external/ChibiOS/os/hal/include/hal_spi.h"
 3602              		.file 49 "../../../external/ChibiOS/os/hal/ports/STM32/LLD/SPIv3/hal_spi_lld.h"
 3603              		.file 50 "../../../external/ChibiOS/os/hal/include/hal_trng.h"
 3604              		.file 51 "../../../external/ChibiOS/os/hal/ports/STM32/LLD/RNGv1/hal_trng_lld.h"
 3605              		.file 52 "../../../external/ChibiOS/os/hal/include/hal_usb.h"
 3606              		.file 53 "../../../external/ChibiOS/os/hal/ports/STM32/LLD/OTGv1/hal_usb_lld.h"
 3607              		.file 54 "../../../external/ChibiOS/os/hal/ports/STM32/LLD/OTGv1/stm32_otg.h"
 3608              		.file 55 "../../../external/ChibiOS-Contrib/os/hal/include/hal_fsmc.h"
 3609              		.file 56 "../../../external/ChibiOS-Contrib/os/hal/include/hal_sdram.h"
 3610              		.file 57 "../../../external/ChibiOS/os/rt/include/chthreads.h"
 3611              		.file 58 "<built-in>"