ARM GAS  /tmp/cco8b79F.s 			page 1


   1              		.cpu cortex-m7
   2              		.eabi_attribute 27, 1
   3              		.eabi_attribute 28, 1
   4              		.eabi_attribute 20, 1
   5              		.eabi_attribute 21, 1
   6              		.eabi_attribute 23, 3
   7              		.eabi_attribute 24, 1
   8              		.eabi_attribute 25, 1
   9              		.eabi_attribute 26, 1
  10              		.eabi_attribute 30, 2
  11              		.eabi_attribute 34, 1
  12              		.eabi_attribute 18, 4
  13              		.file	"hal_queues.c"
  14              		.text
  15              	.Ltext0:
  16              		.cfi_sections	.debug_frame
  17              		.align	1
  18              		.p2align 4,,15
  19              		.arch armv7e-m
  20              		.syntax unified
  21              		.thumb
  22              		.thumb_func
  23              		.fpu fpv4-sp-d16
  24              		.type	iq_read, %function
  25              	iq_read:
  26              	.LVL0:
  27              	.LFB362:
  28              		.file 1 "../../../external/ChibiOS/os/hal/src/hal_queues.c"
  29              		.loc 1 60 66 view -0
  30              		.cfi_startproc
  31              		@ args = 0, pretend = 0, frame = 0
  32              		@ frame_needed = 0, uses_anonymous_args = 0
  33              		.loc 1 61 3 view .LVU1
  34              		.loc 1 63 3 view .LVU2
  35              		.loc 1 63 3 view .LVU3
  36              		.loc 1 66 3 view .LVU4
  37              		.loc 1 60 66 is_stmt 0 view .LVU5
  38 0000 F8B5     		push	{r3, r4, r5, r6, r7, lr}
  39              		.cfi_def_cfa_offset 24
  40              		.cfi_offset 3, -24
  41              		.cfi_offset 4, -20
  42              		.cfi_offset 5, -16
  43              		.cfi_offset 6, -12
  44              		.cfi_offset 7, -8
  45              		.cfi_offset 14, -4
  46              		.loc 1 60 66 view .LVU6
  47 0002 1546     		mov	r5, r2
  48              		.loc 1 66 11 view .LVU7
  49 0004 8268     		ldr	r2, [r0, #8]
  50              	.LVL1:
  51              		.loc 1 60 66 view .LVU8
  52 0006 0446     		mov	r4, r0
  53 0008 0B46     		mov	r3, r1
  54              		.loc 1 66 6 view .LVU9
  55 000a AA42     		cmp	r2, r5
  56 000c 00D2     		bcs	.L2
  57              		.loc 1 67 5 is_stmt 1 view .LVU10
ARM GAS  /tmp/cco8b79F.s 			page 2


  58              		.loc 1 67 7 is_stmt 0 view .LVU11
  59 000e 8568     		ldr	r5, [r0, #8]
  60              	.LVL2:
  61              	.L2:
  62              		.loc 1 72 3 is_stmt 1 view .LVU12
  63              		.loc 1 72 33 is_stmt 0 view .LVU13
  64 0010 A169     		ldr	r1, [r4, #24]
  65              	.LVL3:
  66              		.loc 1 72 28 view .LVU14
  67 0012 2669     		ldr	r6, [r4, #16]
  68 0014 761A     		subs	r6, r6, r1
  69              	.LVL4:
  70              		.loc 1 74 3 is_stmt 1 view .LVU15
  71              		.loc 1 74 6 is_stmt 0 view .LVU16
  72 0016 B542     		cmp	r5, r6
  73 0018 1DD3     		bcc	.L8
  74              		.loc 1 78 8 is_stmt 1 view .LVU17
  75              		.loc 1 78 11 is_stmt 0 view .LVU18
  76 001a 0AD8     		bhi	.L9
  77              		.loc 1 86 5 is_stmt 1 view .LVU19
  78 001c 2A46     		mov	r2, r5
  79 001e 1846     		mov	r0, r3
  80              	.LVL5:
  81              		.loc 1 86 5 is_stmt 0 view .LVU20
  82 0020 FFF7FEFF 		bl	memcpy
  83              	.LVL6:
  84              		.loc 1 87 5 is_stmt 1 view .LVU21
  85              		.loc 1 87 18 is_stmt 0 view .LVU22
  86 0024 E368     		ldr	r3, [r4, #12]
  87              		.loc 1 92 1 view .LVU23
  88 0026 2846     		mov	r0, r5
  89              		.loc 1 87 18 view .LVU24
  90 0028 A361     		str	r3, [r4, #24]
  91              		.loc 1 90 3 is_stmt 1 view .LVU25
  92              		.loc 1 90 18 is_stmt 0 view .LVU26
  93 002a A368     		ldr	r3, [r4, #8]
  94 002c 5D1B     		subs	r5, r3, r5
  95              	.LVL7:
  96              		.loc 1 90 18 view .LVU27
  97 002e A560     		str	r5, [r4, #8]
  98              		.loc 1 91 3 is_stmt 1 view .LVU28
  99              		.loc 1 92 1 is_stmt 0 view .LVU29
 100 0030 F8BD     		pop	{r3, r4, r5, r6, r7, pc}
 101              	.LVL8:
 102              	.L9:
 103              		.loc 1 79 5 is_stmt 1 view .LVU30
 104              		.loc 1 81 8 is_stmt 0 view .LVU31
 105 0032 AF1B     		subs	r7, r5, r6
 106              		.loc 1 79 5 view .LVU32
 107 0034 3246     		mov	r2, r6
 108 0036 1846     		mov	r0, r3
 109              	.LVL9:
 110              		.loc 1 79 5 view .LVU33
 111 0038 FFF7FEFF 		bl	memcpy
 112              	.LVL10:
 113              		.loc 1 80 5 is_stmt 1 view .LVU34
 114              		.loc 1 81 5 view .LVU35
ARM GAS  /tmp/cco8b79F.s 			page 3


 115              		.loc 1 82 5 view .LVU36
 116 003c 3A46     		mov	r2, r7
 117 003e 3044     		add	r0, r0, r6
 118              	.LVL11:
 119              		.loc 1 82 5 is_stmt 0 view .LVU37
 120 0040 E168     		ldr	r1, [r4, #12]
 121 0042 FFF7FEFF 		bl	memcpy
 122              	.LVL12:
 123              		.loc 1 83 5 is_stmt 1 view .LVU38
 124              		.loc 1 90 18 is_stmt 0 view .LVU39
 125 0046 A368     		ldr	r3, [r4, #8]
 126              		.loc 1 83 34 view .LVU40
 127 0048 E268     		ldr	r2, [r4, #12]
 128              		.loc 1 92 1 view .LVU41
 129 004a 2846     		mov	r0, r5
 130              		.loc 1 90 18 view .LVU42
 131 004c 5D1B     		subs	r5, r3, r5
 132              	.LVL13:
 133              		.loc 1 83 34 view .LVU43
 134 004e 3A44     		add	r2, r2, r7
 135              		.loc 1 90 18 view .LVU44
 136 0050 A560     		str	r5, [r4, #8]
 137              		.loc 1 83 18 view .LVU45
 138 0052 A261     		str	r2, [r4, #24]
 139              		.loc 1 90 3 is_stmt 1 view .LVU46
 140              		.loc 1 91 3 view .LVU47
 141              		.loc 1 92 1 is_stmt 0 view .LVU48
 142 0054 F8BD     		pop	{r3, r4, r5, r6, r7, pc}
 143              	.LVL14:
 144              	.L8:
 145              		.loc 1 75 5 is_stmt 1 view .LVU49
 146 0056 2A46     		mov	r2, r5
 147 0058 1846     		mov	r0, r3
 148              	.LVL15:
 149              		.loc 1 75 5 is_stmt 0 view .LVU50
 150 005a FFF7FEFF 		bl	memcpy
 151              	.LVL16:
 152              		.loc 1 76 5 is_stmt 1 view .LVU51
 153              		.loc 1 76 18 is_stmt 0 view .LVU52
 154 005e A369     		ldr	r3, [r4, #24]
 155              		.loc 1 92 1 view .LVU53
 156 0060 2846     		mov	r0, r5
 157              		.loc 1 76 18 view .LVU54
 158 0062 2B44     		add	r3, r3, r5
 159 0064 A361     		str	r3, [r4, #24]
 160              		.loc 1 90 3 is_stmt 1 view .LVU55
 161              		.loc 1 90 18 is_stmt 0 view .LVU56
 162 0066 A368     		ldr	r3, [r4, #8]
 163 0068 5D1B     		subs	r5, r3, r5
 164              	.LVL17:
 165              		.loc 1 90 18 view .LVU57
 166 006a A560     		str	r5, [r4, #8]
 167              		.loc 1 91 3 is_stmt 1 view .LVU58
 168              		.loc 1 92 1 is_stmt 0 view .LVU59
 169 006c F8BD     		pop	{r3, r4, r5, r6, r7, pc}
 170              		.loc 1 92 1 view .LVU60
 171              		.cfi_endproc
ARM GAS  /tmp/cco8b79F.s 			page 4


 172              	.LFE362:
 173              		.size	iq_read, .-iq_read
 174              		.align	1
 175 006e 00BF     		.p2align 4,,15
 176              		.syntax unified
 177              		.thumb
 178              		.thumb_func
 179              		.fpu fpv4-sp-d16
 180              		.type	oq_write, %function
 181              	oq_write:
 182              	.LVL18:
 183              	.LFB363:
 184              		.loc 1 108 74 is_stmt 1 view -0
 185              		.cfi_startproc
 186              		@ args = 0, pretend = 0, frame = 0
 187              		@ frame_needed = 0, uses_anonymous_args = 0
 188              		.loc 1 109 3 view .LVU62
 189              		.loc 1 111 3 view .LVU63
 190              		.loc 1 111 3 view .LVU64
 191              		.loc 1 114 3 view .LVU65
 192              		.loc 1 114 11 is_stmt 0 view .LVU66
 193 0070 8368     		ldr	r3, [r0, #8]
 194              		.loc 1 114 6 view .LVU67
 195 0072 9342     		cmp	r3, r2
 196              		.loc 1 108 74 view .LVU68
 197 0074 2DE9F041 		push	{r4, r5, r6, r7, r8, lr}
 198              		.cfi_def_cfa_offset 24
 199              		.cfi_offset 4, -24
 200              		.cfi_offset 5, -20
 201              		.cfi_offset 6, -16
 202              		.cfi_offset 7, -12
 203              		.cfi_offset 8, -8
 204              		.cfi_offset 14, -4
 205              		.loc 1 108 74 view .LVU69
 206 0078 0446     		mov	r4, r0
 207 007a 0F46     		mov	r7, r1
 208              		.loc 1 114 6 view .LVU70
 209 007c 12D2     		bcs	.L15
 210              		.loc 1 115 5 is_stmt 1 view .LVU71
 211              		.loc 1 115 7 is_stmt 0 view .LVU72
 212 007e 8568     		ldr	r5, [r0, #8]
 213              	.LVL19:
 214              		.loc 1 120 3 is_stmt 1 view .LVU73
 215              		.loc 1 120 28 is_stmt 0 view .LVU74
 216 0080 D4E90460 		ldrd	r6, r0, [r4, #16]
 217              	.LVL20:
 218              		.loc 1 120 28 view .LVU75
 219 0084 361A     		subs	r6, r6, r0
 220              	.LVL21:
 221              		.loc 1 122 3 is_stmt 1 view .LVU76
 222              		.loc 1 122 6 is_stmt 0 view .LVU77
 223 0086 B542     		cmp	r5, r6
 224 0088 12D3     		bcc	.L17
 225              	.L12:
 226              		.loc 1 126 8 is_stmt 1 view .LVU78
 227              		.loc 1 126 11 is_stmt 0 view .LVU79
 228 008a 19D8     		bhi	.L18
ARM GAS  /tmp/cco8b79F.s 			page 5


 229              		.loc 1 134 5 is_stmt 1 view .LVU80
 230 008c 3946     		mov	r1, r7
 231              	.LVL22:
 232              		.loc 1 134 5 is_stmt 0 view .LVU81
 233 008e 2A46     		mov	r2, r5
 234 0090 FFF7FEFF 		bl	memcpy
 235              	.LVL23:
 236              		.loc 1 135 5 is_stmt 1 view .LVU82
 237              		.loc 1 135 18 is_stmt 0 view .LVU83
 238 0094 E368     		ldr	r3, [r4, #12]
 239 0096 6361     		str	r3, [r4, #20]
 240              	.LVL24:
 241              	.L13:
 242              		.loc 1 138 3 is_stmt 1 view .LVU84
 243              		.loc 1 138 18 is_stmt 0 view .LVU85
 244 0098 A368     		ldr	r3, [r4, #8]
 245              		.loc 1 140 1 view .LVU86
 246 009a 2846     		mov	r0, r5
 247              		.loc 1 138 18 view .LVU87
 248 009c 5D1B     		subs	r5, r3, r5
 249              	.LVL25:
 250              		.loc 1 138 18 view .LVU88
 251 009e A560     		str	r5, [r4, #8]
 252              		.loc 1 139 3 is_stmt 1 view .LVU89
 253              		.loc 1 140 1 is_stmt 0 view .LVU90
 254 00a0 BDE8F081 		pop	{r4, r5, r6, r7, r8, pc}
 255              	.LVL26:
 256              	.L15:
 257              		.loc 1 120 28 view .LVU91
 258 00a4 D4E90460 		ldrd	r6, r0, [r4, #16]
 259              	.LVL27:
 260              		.loc 1 120 28 view .LVU92
 261 00a8 1546     		mov	r5, r2
 262              	.LVL28:
 263              		.loc 1 120 3 is_stmt 1 view .LVU93
 264              		.loc 1 120 28 is_stmt 0 view .LVU94
 265 00aa 361A     		subs	r6, r6, r0
 266              	.LVL29:
 267              		.loc 1 122 3 is_stmt 1 view .LVU95
 268              		.loc 1 122 6 is_stmt 0 view .LVU96
 269 00ac B542     		cmp	r5, r6
 270 00ae ECD2     		bcs	.L12
 271              	.L17:
 272              		.loc 1 123 5 is_stmt 1 view .LVU97
 273 00b0 3946     		mov	r1, r7
 274              	.LVL30:
 275              		.loc 1 123 5 is_stmt 0 view .LVU98
 276 00b2 2A46     		mov	r2, r5
 277 00b4 FFF7FEFF 		bl	memcpy
 278              	.LVL31:
 279              		.loc 1 124 5 is_stmt 1 view .LVU99
 280              		.loc 1 124 18 is_stmt 0 view .LVU100
 281 00b8 6369     		ldr	r3, [r4, #20]
 282 00ba 2B44     		add	r3, r3, r5
 283 00bc 6361     		str	r3, [r4, #20]
 284 00be EBE7     		b	.L13
 285              	.LVL32:
ARM GAS  /tmp/cco8b79F.s 			page 6


 286              	.L18:
 287              		.loc 1 127 5 is_stmt 1 view .LVU101
 288              		.loc 1 129 8 is_stmt 0 view .LVU102
 289 00c0 A5EB0608 		sub	r8, r5, r6
 290              		.loc 1 127 5 view .LVU103
 291 00c4 3246     		mov	r2, r6
 292 00c6 3946     		mov	r1, r7
 293              	.LVL33:
 294              		.loc 1 127 5 view .LVU104
 295 00c8 FFF7FEFF 		bl	memcpy
 296              	.LVL34:
 297              		.loc 1 128 5 is_stmt 1 view .LVU105
 298              		.loc 1 129 5 view .LVU106
 299              		.loc 1 130 5 view .LVU107
 300 00cc 4246     		mov	r2, r8
 301 00ce B919     		adds	r1, r7, r6
 302              	.LVL35:
 303              		.loc 1 130 5 is_stmt 0 view .LVU108
 304 00d0 E068     		ldr	r0, [r4, #12]
 305 00d2 FFF7FEFF 		bl	memcpy
 306              	.LVL36:
 307              		.loc 1 131 5 is_stmt 1 view .LVU109
 308              		.loc 1 131 34 is_stmt 0 view .LVU110
 309 00d6 E268     		ldr	r2, [r4, #12]
 310 00d8 4244     		add	r2, r2, r8
 311              		.loc 1 131 18 view .LVU111
 312 00da 6261     		str	r2, [r4, #20]
 313 00dc DCE7     		b	.L13
 314              		.cfi_endproc
 315              	.LFE363:
 316              		.size	oq_write, .-oq_write
 317              		.align	1
 318 00de 00BF     		.p2align 4,,15
 319              		.global	iqObjectInit
 320              		.syntax unified
 321              		.thumb
 322              		.thumb_func
 323              		.fpu fpv4-sp-d16
 324              		.type	iqObjectInit, %function
 325              	iqObjectInit:
 326              	.LVL37:
 327              	.LFB364:
 328              		.loc 1 178 47 is_stmt 1 view -0
 329              		.cfi_startproc
 330              		@ args = 4, pretend = 0, frame = 0
 331              		@ frame_needed = 0, uses_anonymous_args = 0
 332              		@ link register save eliminated.
 333              		.loc 1 180 3 view .LVU113
 334              	.LBB155:
 335              	.LBI155:
 336              		.file 2 "../../../external/ChibiOS/os/hal/osal/rt-nil/osal.h"
 337              		.loc 2 800 20 view .LVU114
 338              	.LBE155:
 339              		.loc 2 802 3 view .LVU115
 340              	.LBB163:
 341              	.LBB156:
 342              	.LBI156:
ARM GAS  /tmp/cco8b79F.s 			page 7


 343              		.file 3 "../../../external/ChibiOS/os/rt/include/chthreads.h"
 344              		.loc 3 392 20 view .LVU116
 345              	.LBE156:
 346              	.LBE163:
 347              		.loc 3 394 3 view .LVU117
 348              	.LBB164:
 349              	.LBB161:
 350              	.LBB157:
 351              	.LBI157:
 352              		.file 4 "../../../external/ChibiOS/os/rt/include/chschd.h"
 353              		.loc 4 537 20 view .LVU118
 354              	.LBB158:
 355              		.loc 4 539 3 view .LVU119
 356              	.LBE158:
 357              	.LBE157:
 358              	.LBE161:
 359              	.LBE164:
 360              		.loc 1 178 47 is_stmt 0 view .LVU120
 361 00e0 30B4     		push	{r4, r5}
 362              		.cfi_def_cfa_offset 8
 363              		.cfi_offset 4, -8
 364              		.cfi_offset 5, -4
 365              		.loc 1 178 47 view .LVU121
 366 00e2 029C     		ldr	r4, [sp, #8]
 367              		.loc 1 181 18 view .LVU122
 368 00e4 0025     		movs	r5, #0
 369              		.loc 1 185 23 view .LVU123
 370 00e6 0A44     		add	r2, r2, r1
 371              	.LVL38:
 372              		.loc 1 186 18 view .LVU124
 373 00e8 C361     		str	r3, [r0, #28]
 374              		.loc 1 181 18 view .LVU125
 375 00ea 8560     		str	r5, [r0, #8]
 376              		.loc 1 187 18 view .LVU126
 377 00ec 0462     		str	r4, [r0, #32]
 378              	.LBB165:
 379              	.LBB162:
 380              	.LBB160:
 381              	.LBB159:
 382              		.loc 4 540 13 view .LVU127
 383 00ee C0E90000 		strd	r0, r0, [r0]
 384              	.LVL39:
 385              		.loc 4 540 13 view .LVU128
 386              	.LBE159:
 387              	.LBE160:
 388              	.LBE162:
 389              	.LBE165:
 390              		.loc 1 181 3 is_stmt 1 view .LVU129
 391              		.loc 1 182 3 view .LVU130
 392              		.loc 1 183 3 view .LVU131
 393              		.loc 1 184 3 view .LVU132
 394              		.loc 1 185 3 view .LVU133
 395              		.loc 1 186 3 view .LVU134
 396              		.loc 1 187 3 view .LVU135
 397              		.loc 1 182 18 is_stmt 0 view .LVU136
 398 00f2 C0E90312 		strd	r1, r2, [r0, #12]
 399              		.loc 1 184 18 view .LVU137
ARM GAS  /tmp/cco8b79F.s 			page 8


 400 00f6 C0E90511 		strd	r1, r1, [r0, #20]
 401              		.loc 1 188 1 view .LVU138
 402 00fa 30BC     		pop	{r4, r5}
 403              		.cfi_restore 5
 404              		.cfi_restore 4
 405              		.cfi_def_cfa_offset 0
 406              	.LVL40:
 407              		.loc 1 188 1 view .LVU139
 408 00fc 7047     		bx	lr
 409              		.cfi_endproc
 410              	.LFE364:
 411              		.size	iqObjectInit, .-iqObjectInit
 412              		.align	1
 413 00fe 00BF     		.p2align 4,,15
 414              		.global	iqResetI
 415              		.syntax unified
 416              		.thumb
 417              		.thumb_func
 418              		.fpu fpv4-sp-d16
 419              		.type	iqResetI, %function
 420              	iqResetI:
 421              	.LVL41:
 422              	.LFB365:
 423              		.loc 1 201 35 is_stmt 1 view -0
 424              		.cfi_startproc
 425              		@ args = 0, pretend = 0, frame = 0
 426              		@ frame_needed = 0, uses_anonymous_args = 0
 427              		@ link register save eliminated.
 428              		.loc 1 203 23 view .LVU141
 429              		.loc 1 205 3 view .LVU142
 430              		.loc 1 201 35 is_stmt 0 view .LVU143
 431 0100 10B4     		push	{r4}
 432              		.cfi_def_cfa_offset 4
 433              		.cfi_offset 4, -4
 434              		.loc 1 205 21 view .LVU144
 435 0102 C268     		ldr	r2, [r0, #12]
 436              		.loc 1 207 18 view .LVU145
 437 0104 0024     		movs	r4, #0
 438              	.LBB166:
 439              	.LBB167:
 440              		.loc 2 857 3 view .LVU146
 441 0106 6FF00101 		mvn	r1, #1
 442              	.LBE167:
 443              	.LBE166:
 444              		.loc 1 207 18 view .LVU147
 445 010a 8460     		str	r4, [r0, #8]
 446              		.loc 1 209 1 view .LVU148
 447 010c 5DF8044B 		ldr	r4, [sp], #4
 448              		.cfi_restore 4
 449              		.cfi_def_cfa_offset 0
 450              		.loc 1 206 16 view .LVU149
 451 0110 C0E90522 		strd	r2, r2, [r0, #20]
 452              		.loc 1 207 3 is_stmt 1 view .LVU150
 453              		.loc 1 208 3 view .LVU151
 454              	.LVL42:
 455              	.LBB169:
 456              	.LBI166:
ARM GAS  /tmp/cco8b79F.s 			page 9


 457              		.loc 2 855 20 view .LVU152
 458              	.LBB168:
 459              		.loc 2 857 3 view .LVU153
 460 0114 FFF7FEBF 		b	chThdDequeueAllI
 461              	.LVL43:
 462              		.loc 2 857 3 is_stmt 0 view .LVU154
 463              	.LBE168:
 464              	.LBE169:
 465              		.cfi_endproc
 466              	.LFE365:
 467              		.size	iqResetI, .-iqResetI
 468              		.align	1
 469 0118 AFF30080 		.p2align 4,,15
 469      AFF30080 
 470              		.global	iqPutI
 471              		.syntax unified
 472              		.thumb
 473              		.thumb_func
 474              		.fpu fpv4-sp-d16
 475              		.type	iqPutI, %function
 476              	iqPutI:
 477              	.LVL44:
 478              	.LFB366:
 479              		.loc 1 224 45 is_stmt 1 view -0
 480              		.cfi_startproc
 481              		@ args = 0, pretend = 0, frame = 0
 482              		@ frame_needed = 0, uses_anonymous_args = 0
 483              		.loc 1 226 23 view .LVU156
 484              		.loc 1 229 3 view .LVU157
 485              		.loc 1 229 8 is_stmt 0 view .LVU158
 486 0120 D0E90532 		ldrd	r3, r2, [r0, #20]
 487 0124 9342     		cmp	r3, r2
 488 0126 11D0     		beq	.L32
 489              	.L24:
 490              		.loc 1 230 5 is_stmt 1 view .LVU159
 491              		.loc 1 230 8 is_stmt 0 view .LVU160
 492 0128 8268     		ldr	r2, [r0, #8]
 493              		.loc 1 224 45 view .LVU161
 494 012a 10B5     		push	{r4, lr}
 495              		.cfi_def_cfa_offset 8
 496              		.cfi_offset 4, -8
 497              		.cfi_offset 14, -4
 498              		.loc 1 230 19 view .LVU162
 499 012c 0132     		adds	r2, r2, #1
 500              		.loc 1 231 18 view .LVU163
 501 012e 5C1C     		adds	r4, r3, #1
 502              		.loc 1 230 19 view .LVU164
 503 0130 8260     		str	r2, [r0, #8]
 504              		.loc 1 231 5 is_stmt 1 view .LVU165
 505              		.loc 1 231 18 is_stmt 0 view .LVU166
 506 0132 4461     		str	r4, [r0, #20]
 507              		.loc 1 231 21 view .LVU167
 508 0134 1970     		strb	r1, [r3]
 509              		.loc 1 232 5 is_stmt 1 view .LVU168
 510              		.loc 1 232 8 is_stmt 0 view .LVU169
 511 0136 D0E90432 		ldrd	r3, r2, [r0, #16]
 512 013a 9A42     		cmp	r2, r3
ARM GAS  /tmp/cco8b79F.s 			page 10


 513 013c 01D3     		bcc	.L27
 514              		.loc 1 233 7 is_stmt 1 view .LVU170
 515              		.loc 1 233 20 is_stmt 0 view .LVU171
 516 013e C368     		ldr	r3, [r0, #12]
 517 0140 4361     		str	r3, [r0, #20]
 518              	.L27:
 519              		.loc 1 236 5 is_stmt 1 view .LVU172
 520              	.LVL45:
 521              	.LBB170:
 522              	.LBI170:
 523              		.loc 2 842 20 view .LVU173
 524              	.LBB171:
 525              		.loc 2 844 3 view .LVU174
 526 0142 0021     		movs	r1, #0
 527              	.LVL46:
 528              		.loc 2 844 3 is_stmt 0 view .LVU175
 529 0144 FFF7FEFF 		bl	chThdDequeueNextI
 530              	.LVL47:
 531              		.loc 2 844 3 view .LVU176
 532              	.LBE171:
 533              	.LBE170:
 534              		.loc 1 238 5 is_stmt 1 view .LVU177
 535              		.loc 1 238 12 is_stmt 0 view .LVU178
 536 0148 0020     		movs	r0, #0
 537              		.loc 1 242 1 view .LVU179
 538 014a 10BD     		pop	{r4, pc}
 539              	.LVL48:
 540              	.L32:
 541              		.cfi_def_cfa_offset 0
 542              		.cfi_restore 4
 543              		.cfi_restore 14
 544              		.loc 1 229 8 discriminator 1 view .LVU180
 545 014c 8268     		ldr	r2, [r0, #8]
 546 014e 002A     		cmp	r2, #0
 547 0150 EAD0     		beq	.L24
 548              		.loc 1 241 10 view .LVU181
 549 0152 4FF0FF30 		mov	r0, #-1
 550              	.LVL49:
 551              		.loc 1 242 1 view .LVU182
 552 0156 7047     		bx	lr
 553              		.cfi_endproc
 554              	.LFE366:
 555              		.size	iqPutI, .-iqPutI
 556              		.align	1
 557 0158 AFF30080 		.p2align 4,,15
 557      AFF30080 
 558              		.global	iqGetI
 559              		.syntax unified
 560              		.thumb
 561              		.thumb_func
 562              		.fpu fpv4-sp-d16
 563              		.type	iqGetI, %function
 564              	iqGetI:
 565              	.LVL50:
 566              	.LFB367:
 567              		.loc 1 258 34 is_stmt 1 view -0
 568              		.cfi_startproc
ARM GAS  /tmp/cco8b79F.s 			page 11


 569              		@ args = 0, pretend = 0, frame = 0
 570              		@ frame_needed = 0, uses_anonymous_args = 0
 571              		.loc 1 260 23 view .LVU184
 572              		.loc 1 263 3 view .LVU185
 573              		.loc 1 258 34 is_stmt 0 view .LVU186
 574 0160 38B5     		push	{r3, r4, r5, lr}
 575              		.cfi_def_cfa_offset 16
 576              		.cfi_offset 3, -16
 577              		.cfi_offset 4, -12
 578              		.cfi_offset 5, -8
 579              		.cfi_offset 14, -4
 580              		.loc 1 263 8 view .LVU187
 581 0162 8368     		ldr	r3, [r0, #8]
 582              		.loc 1 263 6 view .LVU188
 583 0164 8BB1     		cbz	r3, .L37
 584              	.LBB172:
 585              		.loc 1 264 5 is_stmt 1 view .LVU189
 586              		.loc 1 267 5 view .LVU190
 587              		.loc 1 268 13 is_stmt 0 view .LVU191
 588 0166 8169     		ldr	r1, [r0, #24]
 589              		.loc 1 267 8 view .LVU192
 590 0168 8368     		ldr	r3, [r0, #8]
 591              		.loc 1 268 22 view .LVU193
 592 016a 4A1C     		adds	r2, r1, #1
 593              		.loc 1 269 8 view .LVU194
 594 016c 0569     		ldr	r5, [r0, #16]
 595              		.loc 1 267 19 view .LVU195
 596 016e 013B     		subs	r3, r3, #1
 597              		.loc 1 269 8 view .LVU196
 598 0170 AA42     		cmp	r2, r5
 599              		.loc 1 268 22 view .LVU197
 600 0172 8261     		str	r2, [r0, #24]
 601              		.loc 1 267 19 view .LVU198
 602 0174 8360     		str	r3, [r0, #8]
 603              		.loc 1 268 5 is_stmt 1 view .LVU199
 604              		.loc 1 268 7 is_stmt 0 view .LVU200
 605 0176 0C78     		ldrb	r4, [r1]	@ zero_extendqisi2
 606              	.LVL51:
 607              		.loc 1 269 5 is_stmt 1 view .LVU201
 608              		.loc 1 269 8 is_stmt 0 view .LVU202
 609 0178 04D2     		bcs	.L42
 610              	.L35:
 611              		.loc 1 274 5 is_stmt 1 view .LVU203
 612              		.loc 1 274 12 is_stmt 0 view .LVU204
 613 017a C369     		ldr	r3, [r0, #28]
 614              		.loc 1 274 8 view .LVU205
 615 017c 03B1     		cbz	r3, .L36
 616              		.loc 1 275 7 is_stmt 1 view .LVU206
 617 017e 9847     		blx	r3
 618              	.LVL52:
 619              	.L36:
 620              		.loc 1 278 5 view .LVU207
 621              		.loc 1 278 12 is_stmt 0 view .LVU208
 622 0180 2046     		mov	r0, r4
 623              	.LBE172:
 624              		.loc 1 282 1 view .LVU209
 625 0182 38BD     		pop	{r3, r4, r5, pc}
ARM GAS  /tmp/cco8b79F.s 			page 12


 626              	.LVL53:
 627              	.L42:
 628              	.LBB173:
 629              		.loc 1 270 7 is_stmt 1 view .LVU210
 630              		.loc 1 270 20 is_stmt 0 view .LVU211
 631 0184 C368     		ldr	r3, [r0, #12]
 632 0186 8361     		str	r3, [r0, #24]
 633 0188 F7E7     		b	.L35
 634              	.LVL54:
 635              	.L37:
 636              		.loc 1 270 20 view .LVU212
 637              	.LBE173:
 638              		.loc 1 281 10 view .LVU213
 639 018a 4FF0FF30 		mov	r0, #-1
 640              	.LVL55:
 641              		.loc 1 282 1 view .LVU214
 642 018e 38BD     		pop	{r3, r4, r5, pc}
 643              		.cfi_endproc
 644              	.LFE367:
 645              		.size	iqGetI, .-iqGetI
 646              		.align	1
 647              		.p2align 4,,15
 648              		.global	iqGetTimeout
 649              		.syntax unified
 650              		.thumb
 651              		.thumb_func
 652              		.fpu fpv4-sp-d16
 653              		.type	iqGetTimeout, %function
 654              	iqGetTimeout:
 655              	.LVL56:
 656              	.LFB368:
 657              		.loc 1 304 63 is_stmt 1 view -0
 658              		.cfi_startproc
 659              		@ args = 0, pretend = 0, frame = 0
 660              		@ frame_needed = 0, uses_anonymous_args = 0
 661              		.loc 1 305 3 view .LVU216
 662              		.loc 1 307 3 view .LVU217
 663              	.LBB174:
 664              	.LBI174:
 665              		.loc 2 509 20 view .LVU218
 666              	.LBE174:
 667              		.loc 2 511 3 view .LVU219
 668              	.LBB190:
 669              	.LBB175:
 670              	.LBI175:
 671              		.file 5 "../../../external/ChibiOS/os/rt/include/chsys.h"
 672              		.loc 5 353 20 view .LVU220
 673              	.LBE175:
 674              	.LBE190:
 675              		.loc 5 355 3 view .LVU221
 676              	.LBB191:
 677              	.LBB186:
 678              	.LBB176:
 679              	.LBI176:
 680              		.file 6 "../../../external/ChibiOS/os/common/ports/ARMCMx/chcore_v7m.h"
 681              		.loc 6 669 27 view .LVU222
 682              	.LBE176:
ARM GAS  /tmp/cco8b79F.s 			page 13


 683              	.LBE186:
 684              	.LBE191:
 685              		.loc 6 677 3 view .LVU223
 686              	.LBB192:
 687              	.LBB187:
 688              	.LBB183:
 689              	.LBB177:
 690              	.LBI177:
 691              		.file 7 "../../../external/ChibiOS/os/common/ext/ARM/CMSIS/Core/Include/cmsis_gcc.h"
 692              		.loc 7 491 27 view .LVU224
 693              	.LBB178:
 694              		.loc 7 493 3 view .LVU225
 695              	.LBE178:
 696              	.LBE177:
 697              	.LBE183:
 698              	.LBE187:
 699              	.LBE192:
 700              		.loc 1 304 63 is_stmt 0 view .LVU226
 701 0190 70B5     		push	{r4, r5, r6, lr}
 702              		.cfi_def_cfa_offset 16
 703              		.cfi_offset 4, -16
 704              		.cfi_offset 5, -12
 705              		.cfi_offset 6, -8
 706              		.cfi_offset 14, -4
 707              	.LBB193:
 708              	.LBB188:
 709              	.LBB184:
 710              	.LBB181:
 711              	.LBB179:
 712              		.loc 7 493 3 view .LVU227
 713 0192 2023     		movs	r3, #32
 714              	.LBE179:
 715              	.LBE181:
 716              	.LBE184:
 717              	.LBE188:
 718              	.LBE193:
 719              		.loc 1 304 63 view .LVU228
 720 0194 0446     		mov	r4, r0
 721 0196 0E46     		mov	r6, r1
 722              	.LBB194:
 723              	.LBB189:
 724              	.LBB185:
 725              	.LBB182:
 726              	.LBB180:
 727              		.loc 7 493 3 view .LVU229
 728              		.syntax unified
 729              	@ 493 "../../../external/ChibiOS/os/common/ext/ARM/CMSIS/Core/Include/cmsis_gcc.h" 1
 730 0198 83F31188 		MSR basepri, r3
 731              	@ 0 "" 2
 732              	.LVL57:
 733              		.loc 7 493 3 view .LVU230
 734              		.thumb
 735              		.syntax unified
 736              	.LBE180:
 737              	.LBE182:
 738              	.LBE185:
 739              	.LBE189:
ARM GAS  /tmp/cco8b79F.s 			page 14


 740              	.LBE194:
 741              		.loc 5 356 34 is_stmt 1 view .LVU231
 742              		.loc 5 357 20 view .LVU232
 743 019c 03E0     		b	.L44
 744              	.LVL58:
 745              	.L46:
 746              	.LBB195:
 747              	.LBB196:
 748              	.LBB197:
 749              		.loc 2 831 10 is_stmt 0 view .LVU233
 750 019e FFF7FEFF 		bl	chThdEnqueueTimeoutS
 751              	.LVL59:
 752              		.loc 2 831 10 view .LVU234
 753              	.LBE197:
 754              	.LBE196:
 755              		.loc 1 312 5 is_stmt 1 view .LVU235
 756              		.loc 1 312 8 is_stmt 0 view .LVU236
 757 01a2 0028     		cmp	r0, #0
 758              		.loc 1 312 8 view .LVU237
 759 01a4 19DB     		blt	.L54
 760              	.LVL60:
 761              	.L44:
 762              		.loc 1 311 5 is_stmt 1 view .LVU238
 763              	.LBB200:
 764              	.LBI196:
 765              		.loc 2 828 21 view .LVU239
 766              	.LBB198:
 767              		.loc 2 831 3 view .LVU240
 768              	.LBE198:
 769              	.LBE200:
 770              	.LBE195:
 771              		.loc 1 310 10 is_stmt 0 view .LVU241
 772 01a6 A568     		ldr	r5, [r4, #8]
 773              	.LBB213:
 774              	.LBB201:
 775              	.LBB199:
 776              		.loc 2 831 10 view .LVU242
 777 01a8 3146     		mov	r1, r6
 778 01aa 2046     		mov	r0, r4
 779              	.LBE199:
 780              	.LBE201:
 781              	.LBE213:
 782              		.loc 1 310 9 view .LVU243
 783 01ac 002D     		cmp	r5, #0
 784 01ae F6D0     		beq	.L46
 785              	.LVL61:
 786              		.loc 1 319 3 is_stmt 1 view .LVU244
 787              		.loc 1 320 11 is_stmt 0 view .LVU245
 788 01b0 A169     		ldr	r1, [r4, #24]
 789              	.LVL62:
 790              		.loc 1 319 6 view .LVU246
 791 01b2 A368     		ldr	r3, [r4, #8]
 792              		.loc 1 320 20 view .LVU247
 793 01b4 4A1C     		adds	r2, r1, #1
 794              		.loc 1 321 6 view .LVU248
 795 01b6 2069     		ldr	r0, [r4, #16]
 796              	.LVL63:
ARM GAS  /tmp/cco8b79F.s 			page 15


 797              		.loc 1 319 17 view .LVU249
 798 01b8 013B     		subs	r3, r3, #1
 799              		.loc 1 321 6 view .LVU250
 800 01ba 8242     		cmp	r2, r0
 801              		.loc 1 320 20 view .LVU251
 802 01bc A261     		str	r2, [r4, #24]
 803              		.loc 1 319 17 view .LVU252
 804 01be A360     		str	r3, [r4, #8]
 805              		.loc 1 320 3 is_stmt 1 view .LVU253
 806              		.loc 1 320 5 is_stmt 0 view .LVU254
 807 01c0 0D78     		ldrb	r5, [r1]	@ zero_extendqisi2
 808              	.LVL64:
 809              		.loc 1 321 3 is_stmt 1 view .LVU255
 810              		.loc 1 321 6 is_stmt 0 view .LVU256
 811 01c2 01D3     		bcc	.L47
 812              		.loc 1 322 5 is_stmt 1 view .LVU257
 813              		.loc 1 322 18 is_stmt 0 view .LVU258
 814 01c4 E368     		ldr	r3, [r4, #12]
 815 01c6 A361     		str	r3, [r4, #24]
 816              	.L47:
 817              		.loc 1 326 3 is_stmt 1 view .LVU259
 818              		.loc 1 326 10 is_stmt 0 view .LVU260
 819 01c8 E369     		ldr	r3, [r4, #28]
 820              		.loc 1 326 6 view .LVU261
 821 01ca 0BB1     		cbz	r3, .L48
 822              		.loc 1 327 5 is_stmt 1 view .LVU262
 823 01cc 2046     		mov	r0, r4
 824 01ce 9847     		blx	r3
 825              	.LVL65:
 826              	.L48:
 827              		.loc 1 330 3 view .LVU263
 828              	.LBB214:
 829              	.LBI214:
 830              		.loc 2 520 20 view .LVU264
 831              	.LBE214:
 832              		.loc 2 522 3 view .LVU265
 833              	.LBB223:
 834              	.LBB215:
 835              	.LBI215:
 836              		.loc 5 365 20 view .LVU266
 837              	.LBB216:
 838              		.loc 5 367 22 view .LVU267
 839              		.loc 5 368 33 view .LVU268
 840              		.loc 5 374 3 view .LVU269
 841              		.loc 5 374 3 view .LVU270
 842              		.loc 5 378 3 view .LVU271
 843              	.LBB217:
 844              	.LBI217:
 845              		.loc 6 693 27 view .LVU272
 846              	.LBE217:
 847              	.LBE216:
 848              	.LBE215:
 849              	.LBE223:
 850              		.loc 6 696 3 view .LVU273
 851              	.LBB224:
 852              	.LBB222:
 853              	.LBB221:
ARM GAS  /tmp/cco8b79F.s 			page 16


 854              	.LBB220:
 855              	.LBB218:
 856              	.LBI218:
 857              		.loc 7 491 27 view .LVU274
 858              	.LBB219:
 859              		.loc 7 493 3 view .LVU275
 860 01d0 0023     		movs	r3, #0
 861              		.syntax unified
 862              	@ 493 "../../../external/ChibiOS/os/common/ext/ARM/CMSIS/Core/Include/cmsis_gcc.h" 1
 863 01d2 83F31188 		MSR basepri, r3
 864              	@ 0 "" 2
 865              	.LVL66:
 866              		.loc 7 493 3 is_stmt 0 view .LVU276
 867              		.thumb
 868              		.syntax unified
 869              	.LBE219:
 870              	.LBE218:
 871              	.LBE220:
 872              	.LBE221:
 873              	.LBE222:
 874              	.LBE224:
 875              		.loc 1 332 3 is_stmt 1 view .LVU277
 876              		.loc 1 332 10 is_stmt 0 view .LVU278
 877 01d6 2846     		mov	r0, r5
 878              		.loc 1 333 1 view .LVU279
 879 01d8 70BD     		pop	{r4, r5, r6, pc}
 880              	.LVL67:
 881              	.L54:
 882              	.LBB225:
 883              		.loc 1 313 7 is_stmt 1 view .LVU280
 884              	.LBB202:
 885              	.LBI202:
 886              		.loc 2 520 20 view .LVU281
 887              	.LBE202:
 888              	.LBE225:
 889              		.loc 2 522 3 view .LVU282
 890              	.LBB226:
 891              	.LBB211:
 892              	.LBB203:
 893              	.LBI203:
 894              		.loc 5 365 20 view .LVU283
 895              	.LBB204:
 896              		.loc 5 367 22 view .LVU284
 897              		.loc 5 368 33 view .LVU285
 898              		.loc 5 374 3 view .LVU286
 899              		.loc 5 374 3 view .LVU287
 900              		.loc 5 378 3 view .LVU288
 901              	.LBB205:
 902              	.LBI205:
 903              		.loc 6 693 27 view .LVU289
 904              	.LBE205:
 905              	.LBE204:
 906              	.LBE203:
 907              	.LBE211:
 908              	.LBE226:
 909              		.loc 6 696 3 view .LVU290
 910              	.LBB227:
ARM GAS  /tmp/cco8b79F.s 			page 17


 911              	.LBB212:
 912              	.LBB210:
 913              	.LBB209:
 914              	.LBB208:
 915              	.LBB206:
 916              	.LBI206:
 917              		.loc 7 491 27 view .LVU291
 918              	.LBB207:
 919              		.loc 7 493 3 view .LVU292
 920              		.syntax unified
 921              	@ 493 "../../../external/ChibiOS/os/common/ext/ARM/CMSIS/Core/Include/cmsis_gcc.h" 1
 922 01da 85F31188 		MSR basepri, r5
 923              	@ 0 "" 2
 924              	.LVL68:
 925              		.loc 7 493 3 is_stmt 0 view .LVU293
 926              		.thumb
 927              		.syntax unified
 928              	.LBE207:
 929              	.LBE206:
 930              	.LBE208:
 931              	.LBE209:
 932              	.LBE210:
 933              	.LBE212:
 934              		.loc 1 314 7 is_stmt 1 view .LVU294
 935              	.LBE227:
 936              		.loc 1 333 1 is_stmt 0 view .LVU295
 937 01de 70BD     		pop	{r4, r5, r6, pc}
 938              		.loc 1 333 1 view .LVU296
 939              		.cfi_endproc
 940              	.LFE368:
 941              		.size	iqGetTimeout, .-iqGetTimeout
 942              		.align	1
 943              		.p2align 4,,15
 944              		.global	iqReadI
 945              		.syntax unified
 946              		.thumb
 947              		.thumb_func
 948              		.fpu fpv4-sp-d16
 949              		.type	iqReadI, %function
 950              	iqReadI:
 951              	.LVL69:
 952              	.LFB369:
 953              		.loc 1 348 59 is_stmt 1 view -0
 954              		.cfi_startproc
 955              		@ args = 0, pretend = 0, frame = 0
 956              		@ frame_needed = 0, uses_anonymous_args = 0
 957              		.loc 1 349 3 view .LVU298
 958              		.loc 1 348 59 is_stmt 0 view .LVU299
 959 01e0 70B5     		push	{r4, r5, r6, lr}
 960              		.cfi_def_cfa_offset 16
 961              		.cfi_offset 4, -16
 962              		.cfi_offset 5, -12
 963              		.cfi_offset 6, -8
 964              		.cfi_offset 14, -4
 965              		.loc 1 348 59 view .LVU300
 966 01e2 0546     		mov	r5, r0
 967              		.loc 1 349 13 view .LVU301
ARM GAS  /tmp/cco8b79F.s 			page 18


 968 01e4 C669     		ldr	r6, [r0, #28]
 969              	.LVL70:
 970              		.loc 1 350 3 is_stmt 1 view .LVU302
 971              		.loc 1 352 23 view .LVU303
 972              		.loc 1 354 3 view .LVU304
 973              		.loc 1 354 8 is_stmt 0 view .LVU305
 974 01e6 FFF70BFF 		bl	iq_read
 975              	.LVL71:
 976              		.loc 1 358 3 is_stmt 1 view .LVU306
 977              		.loc 1 358 11 is_stmt 0 view .LVU307
 978 01ea 0446     		mov	r4, r0
 979              		.loc 1 358 6 view .LVU308
 980 01ec 10B1     		cbz	r0, .L55
 981 01ee 0EB1     		cbz	r6, .L55
 982              		.loc 1 359 5 is_stmt 1 view .LVU309
 983 01f0 2846     		mov	r0, r5
 984              	.LVL72:
 985              		.loc 1 359 5 is_stmt 0 view .LVU310
 986 01f2 B047     		blx	r6
 987              	.LVL73:
 988              		.loc 1 362 3 is_stmt 1 view .LVU311
 989              	.L55:
 990              		.loc 1 363 1 is_stmt 0 view .LVU312
 991 01f4 2046     		mov	r0, r4
 992 01f6 70BD     		pop	{r4, r5, r6, pc}
 993              		.loc 1 363 1 view .LVU313
 994              		.cfi_endproc
 995              	.LFE369:
 996              		.size	iqReadI, .-iqReadI
 997              		.align	1
 998 01f8 AFF30080 		.p2align 4,,15
 998      AFF30080 
 999              		.global	iqReadTimeout
 1000              		.syntax unified
 1001              		.thumb
 1002              		.thumb_func
 1003              		.fpu fpv4-sp-d16
 1004              		.type	iqReadTimeout, %function
 1005              	iqReadTimeout:
 1006              	.LVL74:
 1007              	.LFB370:
 1008              		.loc 1 390 55 is_stmt 1 view -0
 1009              		.cfi_startproc
 1010              		@ args = 0, pretend = 0, frame = 8
 1011              		@ frame_needed = 0, uses_anonymous_args = 0
 1012              		.loc 1 391 3 view .LVU315
 1013              		.loc 1 390 55 is_stmt 0 view .LVU316
 1014 0200 2DE9F04F 		push	{r4, r5, r6, r7, r8, r9, r10, fp, lr}
 1015              		.cfi_def_cfa_offset 36
 1016              		.cfi_offset 4, -36
 1017              		.cfi_offset 5, -32
 1018              		.cfi_offset 6, -28
 1019              		.cfi_offset 7, -24
 1020              		.cfi_offset 8, -20
 1021              		.cfi_offset 9, -16
 1022              		.cfi_offset 10, -12
 1023              		.cfi_offset 11, -8
ARM GAS  /tmp/cco8b79F.s 			page 19


 1024              		.cfi_offset 14, -4
 1025 0204 83B0     		sub	sp, sp, #12
 1026              		.cfi_def_cfa_offset 48
 1027              		.loc 1 390 55 view .LVU317
 1028 0206 9B46     		mov	fp, r3
 1029              		.loc 1 391 13 view .LVU318
 1030 0208 C769     		ldr	r7, [r0, #28]
 1031              	.LVL75:
 1032              		.loc 1 392 3 is_stmt 1 view .LVU319
 1033              		.loc 1 394 3 view .LVU320
 1034              		.loc 1 394 3 view .LVU321
 1035              		.loc 1 396 3 view .LVU322
 1036              	.LBB228:
 1037              	.LBI228:
 1038              		.loc 2 509 20 view .LVU323
 1039              	.LBE228:
 1040              		.loc 2 511 3 view .LVU324
 1041              	.LBB240:
 1042              	.LBB229:
 1043              	.LBI229:
 1044              		.loc 5 353 20 view .LVU325
 1045              	.LBE229:
 1046              	.LBE240:
 1047              		.loc 5 355 3 view .LVU326
 1048              	.LBB241:
 1049              	.LBB237:
 1050              	.LBB230:
 1051              	.LBI230:
 1052              		.loc 6 669 27 view .LVU327
 1053              	.LBE230:
 1054              	.LBE237:
 1055              	.LBE241:
 1056              		.loc 6 677 3 view .LVU328
 1057              	.LBB242:
 1058              	.LBB238:
 1059              	.LBB235:
 1060              	.LBB231:
 1061              	.LBI231:
 1062              		.loc 7 491 27 view .LVU329
 1063              	.LBB232:
 1064              		.loc 7 493 3 view .LVU330
 1065 020a 4FF02008 		mov	r8, #32
 1066              	.LBE232:
 1067              	.LBE231:
 1068              	.LBE235:
 1069              	.LBE238:
 1070              	.LBE242:
 1071              		.loc 1 390 55 is_stmt 0 view .LVU331
 1072 020e 0192     		str	r2, [sp, #4]
 1073              	.LBB243:
 1074              	.LBB239:
 1075              	.LBB236:
 1076              	.LBB234:
 1077              	.LBB233:
 1078              		.loc 7 493 3 view .LVU332
 1079              		.syntax unified
 1080              	@ 493 "../../../external/ChibiOS/os/common/ext/ARM/CMSIS/Core/Include/cmsis_gcc.h" 1
ARM GAS  /tmp/cco8b79F.s 			page 20


 1081 0210 88F31188 		MSR basepri, r8
 1082              	@ 0 "" 2
 1083              	.LVL76:
 1084              		.loc 7 493 3 view .LVU333
 1085              		.thumb
 1086              		.syntax unified
 1087              	.LBE233:
 1088              	.LBE234:
 1089              	.LBE236:
 1090              	.LBE239:
 1091              	.LBE243:
 1092              		.loc 5 356 34 is_stmt 1 view .LVU334
 1093              		.loc 5 357 20 view .LVU335
 1094              		.loc 1 398 9 is_stmt 0 view .LVU336
 1095 0214 BAB1     		cbz	r2, .L70
 1096 0216 0646     		mov	r6, r0
 1097 0218 0D46     		mov	r5, r1
 1098 021a 019C     		ldr	r4, [sp, #4]
 1099              	.LBB244:
 1100              	.LBB245:
 1101              	.LBB246:
 1102              	.LBB247:
 1103              	.LBB248:
 1104              	.LBB249:
 1105              	.LBB250:
 1106              		.loc 7 493 3 view .LVU337
 1107 021c 4FF00009 		mov	r9, #0
 1108              	.LVL77:
 1109              	.L65:
 1110              		.loc 7 493 3 view .LVU338
 1111              	.LBE250:
 1112              	.LBE249:
 1113              	.LBE248:
 1114              	.LBE247:
 1115              	.LBE246:
 1116              	.LBE245:
 1117              		.loc 1 399 5 is_stmt 1 view .LVU339
 1118              		.loc 1 401 5 view .LVU340
 1119              		.loc 1 401 12 is_stmt 0 view .LVU341
 1120 0220 2246     		mov	r2, r4
 1121 0222 2946     		mov	r1, r5
 1122 0224 3046     		mov	r0, r6
 1123 0226 FFF7EBFE 		bl	iq_read
 1124              	.LVL78:
 1125              		.loc 1 402 5 is_stmt 1 view .LVU342
 1126              		.loc 1 413 7 view .LVU343
 1127              		.loc 1 414 9 view .LVU344
 1128              		.loc 1 402 8 is_stmt 0 view .LVU345
 1129 022a 8246     		mov	r10, r0
 1130 022c 90B1     		cbz	r0, .L82
 1131              		.loc 1 414 9 view .LVU346
 1132 022e 3046     		mov	r0, r6
 1133              	.LVL79:
 1134              		.loc 1 413 10 view .LVU347
 1135 0230 07B1     		cbz	r7, .L69
 1136              	.LVL80:
 1137              		.loc 1 414 9 view .LVU348
ARM GAS  /tmp/cco8b79F.s 			page 21


 1138 0232 B847     		blx	r7
 1139              	.LVL81:
 1140              	.L69:
 1141              		.loc 1 418 7 is_stmt 1 view .LVU349
 1142              	.LBB259:
 1143              	.LBI245:
 1144              		.loc 2 520 20 view .LVU350
 1145              	.LBE259:
 1146              	.LBE244:
 1147              		.loc 2 522 3 view .LVU351
 1148              	.LBB276:
 1149              	.LBB260:
 1150              	.LBB257:
 1151              	.LBI246:
 1152              		.loc 5 365 20 view .LVU352
 1153              	.LBB255:
 1154              		.loc 5 367 22 view .LVU353
 1155              		.loc 5 368 33 view .LVU354
 1156              		.loc 5 374 3 view .LVU355
 1157              		.loc 5 374 3 view .LVU356
 1158              		.loc 5 378 3 view .LVU357
 1159              	.LBB253:
 1160              	.LBI248:
 1161              		.loc 6 693 27 view .LVU358
 1162              	.LBE253:
 1163              	.LBE255:
 1164              	.LBE257:
 1165              	.LBE260:
 1166              	.LBE276:
 1167              		.loc 6 696 3 view .LVU359
 1168              	.LBB277:
 1169              	.LBB261:
 1170              	.LBB258:
 1171              	.LBB256:
 1172              	.LBB254:
 1173              	.LBB252:
 1174              	.LBI249:
 1175              		.loc 7 491 27 view .LVU360
 1176              	.LBB251:
 1177              		.loc 7 493 3 view .LVU361
 1178              		.syntax unified
 1179              	@ 493 "../../../external/ChibiOS/os/common/ext/ARM/CMSIS/Core/Include/cmsis_gcc.h" 1
 1180 0234 89F31188 		MSR basepri, r9
 1181              	@ 0 "" 2
 1182              	.LVL82:
 1183              		.loc 7 493 3 is_stmt 0 view .LVU362
 1184              		.thumb
 1185              		.syntax unified
 1186              	.LBE251:
 1187              	.LBE252:
 1188              	.LBE254:
 1189              	.LBE256:
 1190              	.LBE258:
 1191              	.LBE261:
 1192              		.loc 1 420 7 is_stmt 1 view .LVU363
 1193              		.loc 1 420 10 is_stmt 0 view .LVU364
 1194 0238 A4EB0A04 		sub	r4, r4, r10
ARM GAS  /tmp/cco8b79F.s 			page 22


 1195              	.LVL83:
 1196              		.loc 1 421 7 is_stmt 1 view .LVU365
 1197              		.loc 1 421 10 is_stmt 0 view .LVU366
 1198 023c 5544     		add	r5, r5, r10
 1199              	.LVL84:
 1200              		.loc 1 423 7 is_stmt 1 view .LVU367
 1201              	.LBB262:
 1202              	.LBI262:
 1203              		.loc 2 509 20 view .LVU368
 1204              	.LBE262:
 1205              	.LBE277:
 1206              		.loc 2 511 3 view .LVU369
 1207              	.LBB278:
 1208              	.LBB270:
 1209              	.LBB263:
 1210              	.LBI263:
 1211              		.loc 5 353 20 view .LVU370
 1212              	.LBE263:
 1213              	.LBE270:
 1214              	.LBE278:
 1215              		.loc 5 355 3 view .LVU371
 1216              	.LBB279:
 1217              	.LBB271:
 1218              	.LBB268:
 1219              	.LBB264:
 1220              	.LBI264:
 1221              		.loc 6 669 27 view .LVU372
 1222              	.LBE264:
 1223              	.LBE268:
 1224              	.LBE271:
 1225              	.LBE279:
 1226              		.loc 6 677 3 view .LVU373
 1227              	.LBB280:
 1228              	.LBB272:
 1229              	.LBB269:
 1230              	.LBB267:
 1231              	.LBB265:
 1232              	.LBI265:
 1233              		.loc 7 491 27 view .LVU374
 1234              	.LBB266:
 1235              		.loc 7 493 3 view .LVU375
 1236              		.syntax unified
 1237              	@ 493 "../../../external/ChibiOS/os/common/ext/ARM/CMSIS/Core/Include/cmsis_gcc.h" 1
 1238 023e 88F31188 		MSR basepri, r8
 1239              	@ 0 "" 2
 1240              	.LVL85:
 1241              		.loc 7 493 3 is_stmt 0 view .LVU376
 1242              		.thumb
 1243              		.syntax unified
 1244              	.LBE266:
 1245              	.LBE265:
 1246              	.LBE267:
 1247              	.LBE269:
 1248              	.LBE272:
 1249              	.LBE280:
 1250              		.loc 5 356 34 is_stmt 1 view .LVU377
 1251              		.loc 5 357 20 view .LVU378
ARM GAS  /tmp/cco8b79F.s 			page 23


 1252              		.loc 1 398 9 is_stmt 0 view .LVU379
 1253 0242 002C     		cmp	r4, #0
 1254 0244 ECD1     		bne	.L65
 1255              	.LVL86:
 1256              	.L70:
 1257              		.loc 1 398 9 view .LVU380
 1258 0246 0198     		ldr	r0, [sp, #4]
 1259              		.loc 1 427 3 is_stmt 1 view .LVU381
 1260              	.LBB281:
 1261              	.LBI281:
 1262              		.loc 2 520 20 view .LVU382
 1263              	.LBE281:
 1264              		.loc 2 522 3 view .LVU383
 1265              	.LBB298:
 1266              	.LBB282:
 1267              	.LBI282:
 1268              		.loc 5 365 20 view .LVU384
 1269              	.LBB283:
 1270              		.loc 5 367 22 view .LVU385
 1271              		.loc 5 368 33 view .LVU386
 1272              		.loc 5 374 3 view .LVU387
 1273              		.loc 5 374 3 view .LVU388
 1274              		.loc 5 378 3 view .LVU389
 1275              	.LBB284:
 1276              	.LBI284:
 1277              		.loc 6 693 27 view .LVU390
 1278              	.LBE284:
 1279              	.LBE283:
 1280              	.LBE282:
 1281              	.LBE298:
 1282              		.loc 6 696 3 view .LVU391
 1283              	.LVL87:
 1284              	.LBB299:
 1285              	.LBB295:
 1286              	.LBB292:
 1287              	.LBB289:
 1288              	.LBB285:
 1289              	.LBI285:
 1290              		.loc 7 491 27 view .LVU392
 1291              	.LBB286:
 1292              		.loc 7 493 3 view .LVU393
 1293 0248 0023     		movs	r3, #0
 1294              		.syntax unified
 1295              	@ 493 "../../../external/ChibiOS/os/common/ext/ARM/CMSIS/Core/Include/cmsis_gcc.h" 1
 1296 024a 83F31188 		MSR basepri, r3
 1297              	@ 0 "" 2
 1298              	.LVL88:
 1299              		.loc 7 493 3 is_stmt 0 view .LVU394
 1300              		.thumb
 1301              		.syntax unified
 1302              	.LBE286:
 1303              	.LBE285:
 1304              	.LBE289:
 1305              	.LBE292:
 1306              	.LBE295:
 1307              	.LBE299:
 1308              		.loc 1 428 3 is_stmt 1 view .LVU395
ARM GAS  /tmp/cco8b79F.s 			page 24


 1309              		.loc 1 429 1 is_stmt 0 view .LVU396
 1310 024e 03B0     		add	sp, sp, #12
 1311              		.cfi_remember_state
 1312              		.cfi_def_cfa_offset 36
 1313              		@ sp needed
 1314 0250 BDE8F08F 		pop	{r4, r5, r6, r7, r8, r9, r10, fp, pc}
 1315              	.LVL89:
 1316              	.L82:
 1317              		.cfi_restore_state
 1318              	.LBB300:
 1319              	.LBB273:
 1320              		.loc 1 403 7 is_stmt 1 view .LVU397
 1321              	.LBB274:
 1322              	.LBI274:
 1323              		.loc 2 828 21 view .LVU398
 1324              	.LBB275:
 1325              		.loc 2 831 3 view .LVU399
 1326              		.loc 2 831 10 is_stmt 0 view .LVU400
 1327 0254 5946     		mov	r1, fp
 1328 0256 3046     		mov	r0, r6
 1329              	.LVL90:
 1330              		.loc 2 831 10 view .LVU401
 1331 0258 FFF7FEFF 		bl	chThdEnqueueTimeoutS
 1332              	.LVL91:
 1333              		.loc 2 831 10 view .LVU402
 1334              	.LBE275:
 1335              	.LBE274:
 1336              		.loc 1 406 7 is_stmt 1 view .LVU403
 1337              		.loc 1 406 10 is_stmt 0 view .LVU404
 1338 025c 0028     		cmp	r0, #0
 1339 025e DFD0     		beq	.L65
 1340 0260 019B     		ldr	r3, [sp, #4]
 1341 0262 181B     		subs	r0, r3, r4
 1342              	.LVL92:
 1343              		.loc 1 406 10 view .LVU405
 1344              	.LBE273:
 1345              	.LBE300:
 1346              		.loc 1 427 3 is_stmt 1 view .LVU406
 1347              	.LBB301:
 1348              		.loc 2 520 20 view .LVU407
 1349              	.LBE301:
 1350              		.loc 2 522 3 view .LVU408
 1351              	.LBB302:
 1352              	.LBB296:
 1353              		.loc 5 365 20 view .LVU409
 1354              	.LBB293:
 1355              		.loc 5 367 22 view .LVU410
 1356              		.loc 5 368 33 view .LVU411
 1357              		.loc 5 374 3 view .LVU412
 1358              		.loc 5 374 3 view .LVU413
 1359              		.loc 5 378 3 view .LVU414
 1360              	.LBB290:
 1361              		.loc 6 693 27 view .LVU415
 1362              	.LBE290:
 1363              	.LBE293:
 1364              	.LBE296:
 1365              	.LBE302:
ARM GAS  /tmp/cco8b79F.s 			page 25


 1366              		.loc 6 696 3 view .LVU416
 1367              	.LBB303:
 1368              	.LBB297:
 1369              	.LBB294:
 1370              	.LBB291:
 1371              	.LBB288:
 1372              		.loc 7 491 27 view .LVU417
 1373              	.LBB287:
 1374              		.loc 7 493 3 view .LVU418
 1375 0264 0023     		movs	r3, #0
 1376              		.syntax unified
 1377              	@ 493 "../../../external/ChibiOS/os/common/ext/ARM/CMSIS/Core/Include/cmsis_gcc.h" 1
 1378 0266 83F31188 		MSR basepri, r3
 1379              	@ 0 "" 2
 1380              	.LVL93:
 1381              		.loc 7 493 3 is_stmt 0 view .LVU419
 1382              		.thumb
 1383              		.syntax unified
 1384              	.LBE287:
 1385              	.LBE288:
 1386              	.LBE291:
 1387              	.LBE294:
 1388              	.LBE297:
 1389              	.LBE303:
 1390              		.loc 1 428 3 is_stmt 1 view .LVU420
 1391              		.loc 1 429 1 is_stmt 0 view .LVU421
 1392 026a 03B0     		add	sp, sp, #12
 1393              		.cfi_def_cfa_offset 36
 1394              		@ sp needed
 1395 026c BDE8F08F 		pop	{r4, r5, r6, r7, r8, r9, r10, fp, pc}
 1396              		.loc 1 429 1 view .LVU422
 1397              		.cfi_endproc
 1398              	.LFE370:
 1399              		.size	iqReadTimeout, .-iqReadTimeout
 1400              		.align	1
 1401              		.p2align 4,,15
 1402              		.global	oqObjectInit
 1403              		.syntax unified
 1404              		.thumb
 1405              		.thumb_func
 1406              		.fpu fpv4-sp-d16
 1407              		.type	oqObjectInit, %function
 1408              	oqObjectInit:
 1409              	.LVL94:
 1410              	.LFB371:
 1411              		.loc 1 447 47 is_stmt 1 view -0
 1412              		.cfi_startproc
 1413              		@ args = 4, pretend = 0, frame = 0
 1414              		@ frame_needed = 0, uses_anonymous_args = 0
 1415              		@ link register save eliminated.
 1416              		.loc 1 449 3 view .LVU424
 1417              	.LBB304:
 1418              	.LBI304:
 1419              		.loc 2 800 20 view .LVU425
 1420              	.LBE304:
 1421              		.loc 2 802 3 view .LVU426
 1422              	.LBB312:
ARM GAS  /tmp/cco8b79F.s 			page 26


 1423              	.LBB305:
 1424              	.LBI305:
 1425              		.loc 3 392 20 view .LVU427
 1426              	.LBE305:
 1427              	.LBE312:
 1428              		.loc 3 394 3 view .LVU428
 1429              	.LBB313:
 1430              	.LBB310:
 1431              	.LBB306:
 1432              	.LBI306:
 1433              		.loc 4 537 20 view .LVU429
 1434              	.LBB307:
 1435              		.loc 4 539 3 view .LVU430
 1436              	.LBE307:
 1437              	.LBE306:
 1438              	.LBE310:
 1439              	.LBE313:
 1440              		.loc 1 447 47 is_stmt 0 view .LVU431
 1441 0270 30B4     		push	{r4, r5}
 1442              		.cfi_def_cfa_offset 8
 1443              		.cfi_offset 4, -8
 1444              		.cfi_offset 5, -4
 1445              		.loc 1 447 47 view .LVU432
 1446 0272 029C     		ldr	r4, [sp, #8]
 1447              		.loc 1 454 23 view .LVU433
 1448 0274 8D18     		adds	r5, r1, r2
 1449              		.loc 1 450 18 view .LVU434
 1450 0276 8260     		str	r2, [r0, #8]
 1451              		.loc 1 451 18 view .LVU435
 1452 0278 C0E90315 		strd	r1, r5, [r0, #12]
 1453              		.loc 1 456 18 view .LVU436
 1454 027c C0E90734 		strd	r3, r4, [r0, #28]
 1455              	.LBB314:
 1456              	.LBB311:
 1457              	.LBB309:
 1458              	.LBB308:
 1459              		.loc 4 540 13 view .LVU437
 1460 0280 C0E90000 		strd	r0, r0, [r0]
 1461              	.LVL95:
 1462              		.loc 4 540 13 view .LVU438
 1463              	.LBE308:
 1464              	.LBE309:
 1465              	.LBE311:
 1466              	.LBE314:
 1467              		.loc 1 450 3 is_stmt 1 view .LVU439
 1468              		.loc 1 451 3 view .LVU440
 1469              		.loc 1 452 3 view .LVU441
 1470              		.loc 1 453 18 is_stmt 0 view .LVU442
 1471 0284 C0E90511 		strd	r1, r1, [r0, #20]
 1472              		.loc 1 454 3 is_stmt 1 view .LVU443
 1473              		.loc 1 455 3 view .LVU444
 1474              		.loc 1 457 1 is_stmt 0 view .LVU445
 1475 0288 30BC     		pop	{r4, r5}
 1476              		.cfi_restore 5
 1477              		.cfi_restore 4
 1478              		.cfi_def_cfa_offset 0
 1479              	.LVL96:
ARM GAS  /tmp/cco8b79F.s 			page 27


 1480              		.loc 1 457 1 view .LVU446
 1481 028a 7047     		bx	lr
 1482              		.cfi_endproc
 1483              	.LFE371:
 1484              		.size	oqObjectInit, .-oqObjectInit
 1485              		.align	1
 1486 028c AFF30080 		.p2align 4,,15
 1487              		.global	oqResetI
 1488              		.syntax unified
 1489              		.thumb
 1490              		.thumb_func
 1491              		.fpu fpv4-sp-d16
 1492              		.type	oqResetI, %function
 1493              	oqResetI:
 1494              	.LVL97:
 1495              	.LFB372:
 1496              		.loc 1 470 36 is_stmt 1 view -0
 1497              		.cfi_startproc
 1498              		@ args = 0, pretend = 0, frame = 0
 1499              		@ frame_needed = 0, uses_anonymous_args = 0
 1500              		@ link register save eliminated.
 1501              		.loc 1 472 23 view .LVU448
 1502              		.loc 1 474 3 view .LVU449
 1503              		.loc 1 470 36 is_stmt 0 view .LVU450
 1504 0290 10B4     		push	{r4}
 1505              		.cfi_def_cfa_offset 4
 1506              		.cfi_offset 4, -4
 1507              		.loc 1 476 20 view .LVU451
 1508 0292 D0E90342 		ldrd	r4, r2, [r0, #12]
 1509              	.LBB315:
 1510              	.LBB316:
 1511              		.loc 2 857 3 view .LVU452
 1512 0296 6FF00101 		mvn	r1, #1
 1513              	.LBE316:
 1514              	.LBE315:
 1515              		.loc 1 476 20 view .LVU453
 1516 029a 121B     		subs	r2, r2, r4
 1517              		.loc 1 474 16 view .LVU454
 1518 029c 8461     		str	r4, [r0, #24]
 1519              		.loc 1 475 3 is_stmt 1 view .LVU455
 1520              		.loc 1 475 16 is_stmt 0 view .LVU456
 1521 029e 4461     		str	r4, [r0, #20]
 1522              		.loc 1 476 3 is_stmt 1 view .LVU457
 1523              		.loc 1 476 18 is_stmt 0 view .LVU458
 1524 02a0 8260     		str	r2, [r0, #8]
 1525              		.loc 1 477 3 is_stmt 1 view .LVU459
 1526              	.LVL98:
 1527              	.LBB319:
 1528              	.LBI315:
 1529              		.loc 2 855 20 view .LVU460
 1530              	.LBB317:
 1531              		.loc 2 857 3 view .LVU461
 1532              	.LBE317:
 1533              	.LBE319:
 1534              		.loc 1 478 1 is_stmt 0 view .LVU462
 1535 02a2 5DF8044B 		ldr	r4, [sp], #4
 1536              		.cfi_restore 4
ARM GAS  /tmp/cco8b79F.s 			page 28


 1537              		.cfi_def_cfa_offset 0
 1538              	.LBB320:
 1539              	.LBB318:
 1540              		.loc 2 857 3 view .LVU463
 1541 02a6 FFF7FEBF 		b	chThdDequeueAllI
 1542              	.LVL99:
 1543              		.loc 2 857 3 view .LVU464
 1544              	.LBE318:
 1545              	.LBE320:
 1546              		.cfi_endproc
 1547              	.LFE372:
 1548              		.size	oqResetI, .-oqResetI
 1549              		.align	1
 1550 02aa 00BFAFF3 		.p2align 4,,15
 1550      0080
 1551              		.global	oqPutI
 1552              		.syntax unified
 1553              		.thumb
 1554              		.thumb_func
 1555              		.fpu fpv4-sp-d16
 1556              		.type	oqPutI, %function
 1557              	oqPutI:
 1558              	.LVL100:
 1559              	.LFB373:
 1560              		.loc 1 494 46 is_stmt 1 view -0
 1561              		.cfi_startproc
 1562              		@ args = 0, pretend = 0, frame = 0
 1563              		@ frame_needed = 0, uses_anonymous_args = 0
 1564              		.loc 1 496 23 view .LVU466
 1565              		.loc 1 499 3 view .LVU467
 1566              		.loc 1 499 11 is_stmt 0 view .LVU468
 1567 02b0 8368     		ldr	r3, [r0, #8]
 1568              		.loc 1 499 9 view .LVU469
 1569 02b2 BBB1     		cbz	r3, .L90
 1570              		.loc 1 501 5 is_stmt 1 view .LVU470
 1571              		.loc 1 502 9 is_stmt 0 view .LVU471
 1572 02b4 4269     		ldr	r2, [r0, #20]
 1573              		.loc 1 501 8 view .LVU472
 1574 02b6 8368     		ldr	r3, [r0, #8]
 1575              		.loc 1 494 46 view .LVU473
 1576 02b8 10B5     		push	{r4, lr}
 1577              		.cfi_def_cfa_offset 8
 1578              		.cfi_offset 4, -8
 1579              		.cfi_offset 14, -4
 1580              		.loc 1 501 19 view .LVU474
 1581 02ba 013B     		subs	r3, r3, #1
 1582              		.loc 1 502 18 view .LVU475
 1583 02bc 541C     		adds	r4, r2, #1
 1584              		.loc 1 501 19 view .LVU476
 1585 02be 8360     		str	r3, [r0, #8]
 1586              		.loc 1 502 5 is_stmt 1 view .LVU477
 1587              		.loc 1 502 18 is_stmt 0 view .LVU478
 1588 02c0 4461     		str	r4, [r0, #20]
 1589              		.loc 1 502 21 view .LVU479
 1590 02c2 1170     		strb	r1, [r2]
 1591              		.loc 1 503 5 is_stmt 1 view .LVU480
 1592              		.loc 1 503 8 is_stmt 0 view .LVU481
ARM GAS  /tmp/cco8b79F.s 			page 29


 1593 02c4 D0E90432 		ldrd	r3, r2, [r0, #16]
 1594 02c8 9A42     		cmp	r2, r3
 1595 02ca 04D2     		bcs	.L96
 1596              		.loc 1 508 5 is_stmt 1 view .LVU482
 1597              		.loc 1 508 12 is_stmt 0 view .LVU483
 1598 02cc C369     		ldr	r3, [r0, #28]
 1599              		.loc 1 508 8 view .LVU484
 1600 02ce 3BB1     		cbz	r3, .L91
 1601              	.L97:
 1602              		.loc 1 509 7 is_stmt 1 view .LVU485
 1603 02d0 9847     		blx	r3
 1604              	.LVL101:
 1605              		.loc 1 512 12 is_stmt 0 view .LVU486
 1606 02d2 0020     		movs	r0, #0
 1607              		.loc 1 516 1 view .LVU487
 1608 02d4 10BD     		pop	{r4, pc}
 1609              	.LVL102:
 1610              	.L96:
 1611              		.loc 1 504 7 is_stmt 1 view .LVU488
 1612              		.loc 1 504 20 is_stmt 0 view .LVU489
 1613 02d6 C368     		ldr	r3, [r0, #12]
 1614 02d8 4361     		str	r3, [r0, #20]
 1615              		.loc 1 508 5 is_stmt 1 view .LVU490
 1616              		.loc 1 508 12 is_stmt 0 view .LVU491
 1617 02da C369     		ldr	r3, [r0, #28]
 1618              		.loc 1 508 8 view .LVU492
 1619 02dc 002B     		cmp	r3, #0
 1620 02de F7D1     		bne	.L97
 1621              	.L91:
 1622              		.loc 1 512 12 view .LVU493
 1623 02e0 1846     		mov	r0, r3
 1624              	.LVL103:
 1625              		.loc 1 516 1 view .LVU494
 1626 02e2 10BD     		pop	{r4, pc}
 1627              	.LVL104:
 1628              	.L90:
 1629              		.cfi_def_cfa_offset 0
 1630              		.cfi_restore 4
 1631              		.cfi_restore 14
 1632              		.loc 1 515 10 view .LVU495
 1633 02e4 4FF0FF30 		mov	r0, #-1
 1634              	.LVL105:
 1635              		.loc 1 516 1 view .LVU496
 1636 02e8 7047     		bx	lr
 1637              		.cfi_endproc
 1638              	.LFE373:
 1639              		.size	oqPutI, .-oqPutI
 1640              		.align	1
 1641 02ea 00BFAFF3 		.p2align 4,,15
 1641      0080
 1642              		.global	oqPutTimeout
 1643              		.syntax unified
 1644              		.thumb
 1645              		.thumb_func
 1646              		.fpu fpv4-sp-d16
 1647              		.type	oqPutTimeout, %function
 1648              	oqPutTimeout:
ARM GAS  /tmp/cco8b79F.s 			page 30


 1649              	.LVL106:
 1650              	.LFB374:
 1651              		.loc 1 540 75 is_stmt 1 view -0
 1652              		.cfi_startproc
 1653              		@ args = 0, pretend = 0, frame = 0
 1654              		@ frame_needed = 0, uses_anonymous_args = 0
 1655              		.loc 1 542 3 view .LVU498
 1656              	.LBB321:
 1657              	.LBI321:
 1658              		.loc 2 509 20 view .LVU499
 1659              	.LBE321:
 1660              		.loc 2 511 3 view .LVU500
 1661              	.LBB333:
 1662              	.LBB322:
 1663              	.LBI322:
 1664              		.loc 5 353 20 view .LVU501
 1665              	.LBE322:
 1666              	.LBE333:
 1667              		.loc 5 355 3 view .LVU502
 1668              	.LBB334:
 1669              	.LBB330:
 1670              	.LBB323:
 1671              	.LBI323:
 1672              		.loc 6 669 27 view .LVU503
 1673              	.LBE323:
 1674              	.LBE330:
 1675              	.LBE334:
 1676              		.loc 6 677 3 view .LVU504
 1677              	.LBB335:
 1678              	.LBB331:
 1679              	.LBB328:
 1680              	.LBB324:
 1681              	.LBI324:
 1682              		.loc 7 491 27 view .LVU505
 1683              	.LBB325:
 1684              		.loc 7 493 3 view .LVU506
 1685              	.LBE325:
 1686              	.LBE324:
 1687              	.LBE328:
 1688              	.LBE331:
 1689              	.LBE335:
 1690              		.loc 1 540 75 is_stmt 0 view .LVU507
 1691 02f0 F8B5     		push	{r3, r4, r5, r6, r7, lr}
 1692              		.cfi_def_cfa_offset 24
 1693              		.cfi_offset 3, -24
 1694              		.cfi_offset 4, -20
 1695              		.cfi_offset 5, -16
 1696              		.cfi_offset 6, -12
 1697              		.cfi_offset 7, -8
 1698              		.cfi_offset 14, -4
 1699              		.loc 1 540 75 view .LVU508
 1700 02f2 0446     		mov	r4, r0
 1701 02f4 0F46     		mov	r7, r1
 1702 02f6 1646     		mov	r6, r2
 1703              	.LBB336:
 1704              	.LBB332:
 1705              	.LBB329:
ARM GAS  /tmp/cco8b79F.s 			page 31


 1706              	.LBB327:
 1707              	.LBB326:
 1708              		.loc 7 493 3 view .LVU509
 1709 02f8 2023     		movs	r3, #32
 1710              		.syntax unified
 1711              	@ 493 "../../../external/ChibiOS/os/common/ext/ARM/CMSIS/Core/Include/cmsis_gcc.h" 1
 1712 02fa 83F31188 		MSR basepri, r3
 1713              	@ 0 "" 2
 1714              	.LVL107:
 1715              		.loc 7 493 3 view .LVU510
 1716              		.thumb
 1717              		.syntax unified
 1718              	.LBE326:
 1719              	.LBE327:
 1720              	.LBE329:
 1721              	.LBE332:
 1722              	.LBE336:
 1723              		.loc 5 356 34 is_stmt 1 view .LVU511
 1724              		.loc 5 357 20 view .LVU512
 1725 02fe 03E0     		b	.L99
 1726              	.LVL108:
 1727              	.L101:
 1728              	.LBB337:
 1729              	.LBB338:
 1730              	.LBB339:
 1731              		.loc 2 831 10 is_stmt 0 view .LVU513
 1732 0300 FFF7FEFF 		bl	chThdEnqueueTimeoutS
 1733              	.LVL109:
 1734              		.loc 2 831 10 view .LVU514
 1735              	.LBE339:
 1736              	.LBE338:
 1737              		.loc 1 547 5 is_stmt 1 view .LVU515
 1738              		.loc 1 547 8 is_stmt 0 view .LVU516
 1739 0304 0028     		cmp	r0, #0
 1740              		.loc 1 547 8 view .LVU517
 1741 0306 19DB     		blt	.L109
 1742              	.LVL110:
 1743              	.L99:
 1744              		.loc 1 546 5 is_stmt 1 view .LVU518
 1745              	.LBB342:
 1746              	.LBI338:
 1747              		.loc 2 828 21 view .LVU519
 1748              	.LBB340:
 1749              		.loc 2 831 3 view .LVU520
 1750              	.LBE340:
 1751              	.LBE342:
 1752              	.LBE337:
 1753              		.loc 1 545 10 is_stmt 0 view .LVU521
 1754 0308 A568     		ldr	r5, [r4, #8]
 1755              	.LBB355:
 1756              	.LBB343:
 1757              	.LBB341:
 1758              		.loc 2 831 10 view .LVU522
 1759 030a 3146     		mov	r1, r6
 1760 030c 2046     		mov	r0, r4
 1761              	.LBE341:
 1762              	.LBE343:
ARM GAS  /tmp/cco8b79F.s 			page 32


 1763              	.LBE355:
 1764              		.loc 1 545 9 view .LVU523
 1765 030e 002D     		cmp	r5, #0
 1766 0310 F6D0     		beq	.L101
 1767              	.LVL111:
 1768              		.loc 1 554 3 is_stmt 1 view .LVU524
 1769              		.loc 1 555 7 is_stmt 0 view .LVU525
 1770 0312 6269     		ldr	r2, [r4, #20]
 1771              		.loc 1 554 6 view .LVU526
 1772 0314 A368     		ldr	r3, [r4, #8]
 1773              		.loc 1 555 16 view .LVU527
 1774 0316 511C     		adds	r1, r2, #1
 1775              	.LVL112:
 1776              		.loc 1 554 17 view .LVU528
 1777 0318 013B     		subs	r3, r3, #1
 1778              		.loc 1 555 16 view .LVU529
 1779 031a 6161     		str	r1, [r4, #20]
 1780              		.loc 1 554 17 view .LVU530
 1781 031c A360     		str	r3, [r4, #8]
 1782              		.loc 1 555 3 is_stmt 1 view .LVU531
 1783              		.loc 1 555 19 is_stmt 0 view .LVU532
 1784 031e 1770     		strb	r7, [r2]
 1785              		.loc 1 556 3 is_stmt 1 view .LVU533
 1786              		.loc 1 556 6 is_stmt 0 view .LVU534
 1787 0320 D4E90432 		ldrd	r3, r2, [r4, #16]
 1788 0324 9A42     		cmp	r2, r3
 1789 0326 01D3     		bcc	.L102
 1790              		.loc 1 557 5 is_stmt 1 view .LVU535
 1791              		.loc 1 557 18 is_stmt 0 view .LVU536
 1792 0328 E368     		ldr	r3, [r4, #12]
 1793 032a 6361     		str	r3, [r4, #20]
 1794              	.L102:
 1795              		.loc 1 561 3 is_stmt 1 view .LVU537
 1796              		.loc 1 561 10 is_stmt 0 view .LVU538
 1797 032c E369     		ldr	r3, [r4, #28]
 1798              		.loc 1 561 6 view .LVU539
 1799 032e 0BB1     		cbz	r3, .L103
 1800              		.loc 1 562 5 is_stmt 1 view .LVU540
 1801 0330 2046     		mov	r0, r4
 1802              	.LVL113:
 1803              		.loc 1 562 5 is_stmt 0 view .LVU541
 1804 0332 9847     		blx	r3
 1805              	.LVL114:
 1806              	.L103:
 1807              		.loc 1 565 3 is_stmt 1 view .LVU542
 1808              	.LBB356:
 1809              	.LBI356:
 1810              		.loc 2 520 20 view .LVU543
 1811              	.LBE356:
 1812              		.loc 2 522 3 view .LVU544
 1813              	.LBB365:
 1814              	.LBB357:
 1815              	.LBI357:
 1816              		.loc 5 365 20 view .LVU545
 1817              	.LBB358:
 1818              		.loc 5 367 22 view .LVU546
 1819              		.loc 5 368 33 view .LVU547
ARM GAS  /tmp/cco8b79F.s 			page 33


 1820              		.loc 5 374 3 view .LVU548
 1821              		.loc 5 374 3 view .LVU549
 1822              		.loc 5 378 3 view .LVU550
 1823              	.LBB359:
 1824              	.LBI359:
 1825              		.loc 6 693 27 view .LVU551
 1826              	.LBE359:
 1827              	.LBE358:
 1828              	.LBE357:
 1829              	.LBE365:
 1830              		.loc 6 696 3 view .LVU552
 1831              	.LBB366:
 1832              	.LBB364:
 1833              	.LBB363:
 1834              	.LBB362:
 1835              	.LBB360:
 1836              	.LBI360:
 1837              		.loc 7 491 27 view .LVU553
 1838              	.LBB361:
 1839              		.loc 7 493 3 view .LVU554
 1840 0334 0020     		movs	r0, #0
 1841              		.syntax unified
 1842              	@ 493 "../../../external/ChibiOS/os/common/ext/ARM/CMSIS/Core/Include/cmsis_gcc.h" 1
 1843 0336 80F31188 		MSR basepri, r0
 1844              	@ 0 "" 2
 1845              	.LVL115:
 1846              		.loc 7 493 3 is_stmt 0 view .LVU555
 1847              		.thumb
 1848              		.syntax unified
 1849              	.LBE361:
 1850              	.LBE360:
 1851              	.LBE362:
 1852              	.LBE363:
 1853              	.LBE364:
 1854              	.LBE366:
 1855              		.loc 1 567 3 is_stmt 1 view .LVU556
 1856              		.loc 1 568 1 is_stmt 0 view .LVU557
 1857 033a F8BD     		pop	{r3, r4, r5, r6, r7, pc}
 1858              	.LVL116:
 1859              	.L109:
 1860              	.LBB367:
 1861              		.loc 1 548 7 is_stmt 1 view .LVU558
 1862              	.LBB344:
 1863              	.LBI344:
 1864              		.loc 2 520 20 view .LVU559
 1865              	.LBE344:
 1866              	.LBE367:
 1867              		.loc 2 522 3 view .LVU560
 1868              	.LBB368:
 1869              	.LBB353:
 1870              	.LBB345:
 1871              	.LBI345:
 1872              		.loc 5 365 20 view .LVU561
 1873              	.LBB346:
 1874              		.loc 5 367 22 view .LVU562
 1875              		.loc 5 368 33 view .LVU563
 1876              		.loc 5 374 3 view .LVU564
ARM GAS  /tmp/cco8b79F.s 			page 34


 1877              		.loc 5 374 3 view .LVU565
 1878              		.loc 5 378 3 view .LVU566
 1879              	.LBB347:
 1880              	.LBI347:
 1881              		.loc 6 693 27 view .LVU567
 1882              	.LBE347:
 1883              	.LBE346:
 1884              	.LBE345:
 1885              	.LBE353:
 1886              	.LBE368:
 1887              		.loc 6 696 3 view .LVU568
 1888              	.LBB369:
 1889              	.LBB354:
 1890              	.LBB352:
 1891              	.LBB351:
 1892              	.LBB350:
 1893              	.LBB348:
 1894              	.LBI348:
 1895              		.loc 7 491 27 view .LVU569
 1896              	.LBB349:
 1897              		.loc 7 493 3 view .LVU570
 1898              		.syntax unified
 1899              	@ 493 "../../../external/ChibiOS/os/common/ext/ARM/CMSIS/Core/Include/cmsis_gcc.h" 1
 1900 033c 85F31188 		MSR basepri, r5
 1901              	@ 0 "" 2
 1902              	.LVL117:
 1903              		.loc 7 493 3 is_stmt 0 view .LVU571
 1904              		.thumb
 1905              		.syntax unified
 1906              	.LBE349:
 1907              	.LBE348:
 1908              	.LBE350:
 1909              	.LBE351:
 1910              	.LBE352:
 1911              	.LBE354:
 1912              		.loc 1 549 7 is_stmt 1 view .LVU572
 1913              	.LBE369:
 1914              		.loc 1 568 1 is_stmt 0 view .LVU573
 1915 0340 F8BD     		pop	{r3, r4, r5, r6, r7, pc}
 1916              		.loc 1 568 1 view .LVU574
 1917              		.cfi_endproc
 1918              	.LFE374:
 1919              		.size	oqPutTimeout, .-oqPutTimeout
 1920              		.align	1
 1921 0342 00BFAFF3 		.p2align 4,,15
 1921      0080AFF3 
 1921      0080AFF3 
 1921      0080
 1922              		.global	oqGetI
 1923              		.syntax unified
 1924              		.thumb
 1925              		.thumb_func
 1926              		.fpu fpv4-sp-d16
 1927              		.type	oqGetI, %function
 1928              	oqGetI:
 1929              	.LVL118:
 1930              	.LFB375:
ARM GAS  /tmp/cco8b79F.s 			page 35


 1931              		.loc 1 581 35 is_stmt 1 view -0
 1932              		.cfi_startproc
 1933              		@ args = 0, pretend = 0, frame = 0
 1934              		@ frame_needed = 0, uses_anonymous_args = 0
 1935              		.loc 1 583 23 view .LVU576
 1936              		.loc 1 586 3 view .LVU577
 1937              		.loc 1 581 35 is_stmt 0 view .LVU578
 1938 0350 38B5     		push	{r3, r4, r5, lr}
 1939              		.cfi_def_cfa_offset 16
 1940              		.cfi_offset 3, -16
 1941              		.cfi_offset 4, -12
 1942              		.cfi_offset 5, -8
 1943              		.cfi_offset 14, -4
 1944              		.loc 1 586 8 view .LVU579
 1945 0352 D0E90523 		ldrd	r2, r3, [r0, #20]
 1946 0356 9A42     		cmp	r2, r3
 1947 0358 0FD0     		beq	.L117
 1948              	.L111:
 1949              	.LBB370:
 1950              		.loc 1 587 5 is_stmt 1 view .LVU580
 1951              		.loc 1 589 5 view .LVU581
 1952              		.loc 1 589 8 is_stmt 0 view .LVU582
 1953 035a 8268     		ldr	r2, [r0, #8]
 1954              		.loc 1 590 22 view .LVU583
 1955 035c 591C     		adds	r1, r3, #1
 1956              		.loc 1 591 8 view .LVU584
 1957 035e 0569     		ldr	r5, [r0, #16]
 1958              		.loc 1 589 19 view .LVU585
 1959 0360 0132     		adds	r2, r2, #1
 1960              		.loc 1 590 22 view .LVU586
 1961 0362 8161     		str	r1, [r0, #24]
 1962              		.loc 1 591 8 view .LVU587
 1963 0364 A942     		cmp	r1, r5
 1964              		.loc 1 589 19 view .LVU588
 1965 0366 8260     		str	r2, [r0, #8]
 1966              		.loc 1 590 5 is_stmt 1 view .LVU589
 1967              		.loc 1 590 7 is_stmt 0 view .LVU590
 1968 0368 1C78     		ldrb	r4, [r3]	@ zero_extendqisi2
 1969              	.LVL119:
 1970              		.loc 1 591 5 is_stmt 1 view .LVU591
 1971              		.loc 1 591 8 is_stmt 0 view .LVU592
 1972 036a 01D3     		bcc	.L114
 1973              		.loc 1 592 7 is_stmt 1 view .LVU593
 1974              		.loc 1 592 20 is_stmt 0 view .LVU594
 1975 036c C368     		ldr	r3, [r0, #12]
 1976 036e 8361     		str	r3, [r0, #24]
 1977              	.L114:
 1978              		.loc 1 595 5 is_stmt 1 view .LVU595
 1979              	.LVL120:
 1980              	.LBB371:
 1981              	.LBI371:
 1982              		.loc 2 842 20 view .LVU596
 1983              	.LBB372:
 1984              		.loc 2 844 3 view .LVU597
 1985 0370 0021     		movs	r1, #0
 1986 0372 FFF7FEFF 		bl	chThdDequeueNextI
 1987              	.LVL121:
ARM GAS  /tmp/cco8b79F.s 			page 36


 1988              		.loc 2 844 3 is_stmt 0 view .LVU598
 1989              	.LBE372:
 1990              	.LBE371:
 1991              		.loc 1 597 5 is_stmt 1 view .LVU599
 1992              		.loc 1 597 12 is_stmt 0 view .LVU600
 1993 0376 2046     		mov	r0, r4
 1994              	.LBE370:
 1995              		.loc 1 601 1 view .LVU601
 1996 0378 38BD     		pop	{r3, r4, r5, pc}
 1997              	.LVL122:
 1998              	.L117:
 1999              		.loc 1 586 8 discriminator 1 view .LVU602
 2000 037a 8268     		ldr	r2, [r0, #8]
 2001 037c 002A     		cmp	r2, #0
 2002 037e ECD0     		beq	.L111
 2003              		.loc 1 600 10 view .LVU603
 2004 0380 4FF0FF30 		mov	r0, #-1
 2005              	.LVL123:
 2006              		.loc 1 601 1 view .LVU604
 2007 0384 38BD     		pop	{r3, r4, r5, pc}
 2008              		.cfi_endproc
 2009              	.LFE375:
 2010              		.size	oqGetI, .-oqGetI
 2011              		.align	1
 2012 0386 00BFAFF3 		.p2align 4,,15
 2012      0080AFF3 
 2012      0080
 2013              		.global	oqWriteI
 2014              		.syntax unified
 2015              		.thumb
 2016              		.thumb_func
 2017              		.fpu fpv4-sp-d16
 2018              		.type	oqWriteI, %function
 2019              	oqWriteI:
 2020              	.LVL124:
 2021              	.LFB376:
 2022              		.loc 1 616 67 is_stmt 1 view -0
 2023              		.cfi_startproc
 2024              		@ args = 0, pretend = 0, frame = 0
 2025              		@ frame_needed = 0, uses_anonymous_args = 0
 2026              		.loc 1 617 3 view .LVU606
 2027              		.loc 1 616 67 is_stmt 0 view .LVU607
 2028 0390 70B5     		push	{r4, r5, r6, lr}
 2029              		.cfi_def_cfa_offset 16
 2030              		.cfi_offset 4, -16
 2031              		.cfi_offset 5, -12
 2032              		.cfi_offset 6, -8
 2033              		.cfi_offset 14, -4
 2034              		.loc 1 616 67 view .LVU608
 2035 0392 0546     		mov	r5, r0
 2036              		.loc 1 617 13 view .LVU609
 2037 0394 C669     		ldr	r6, [r0, #28]
 2038              	.LVL125:
 2039              		.loc 1 618 3 is_stmt 1 view .LVU610
 2040              		.loc 1 620 23 view .LVU611
 2041              		.loc 1 622 3 view .LVU612
 2042              		.loc 1 622 8 is_stmt 0 view .LVU613
ARM GAS  /tmp/cco8b79F.s 			page 37


 2043 0396 FFF76BFE 		bl	oq_write
 2044              	.LVL126:
 2045              		.loc 1 626 3 is_stmt 1 view .LVU614
 2046              		.loc 1 626 11 is_stmt 0 view .LVU615
 2047 039a 0446     		mov	r4, r0
 2048              		.loc 1 626 6 view .LVU616
 2049 039c 10B1     		cbz	r0, .L118
 2050 039e 0EB1     		cbz	r6, .L118
 2051              		.loc 1 627 5 is_stmt 1 view .LVU617
 2052 03a0 2846     		mov	r0, r5
 2053              	.LVL127:
 2054              		.loc 1 627 5 is_stmt 0 view .LVU618
 2055 03a2 B047     		blx	r6
 2056              	.LVL128:
 2057              		.loc 1 630 3 is_stmt 1 view .LVU619
 2058              	.L118:
 2059              		.loc 1 631 1 is_stmt 0 view .LVU620
 2060 03a4 2046     		mov	r0, r4
 2061 03a6 70BD     		pop	{r4, r5, r6, pc}
 2062              		.loc 1 631 1 view .LVU621
 2063              		.cfi_endproc
 2064              	.LFE376:
 2065              		.size	oqWriteI, .-oqWriteI
 2066              		.align	1
 2067 03a8 AFF30080 		.p2align 4,,15
 2067      AFF30080 
 2068              		.global	oqWriteTimeout
 2069              		.syntax unified
 2070              		.thumb
 2071              		.thumb_func
 2072              		.fpu fpv4-sp-d16
 2073              		.type	oqWriteTimeout, %function
 2074              	oqWriteTimeout:
 2075              	.LVL129:
 2076              	.LFB377:
 2077              		.loc 1 658 56 is_stmt 1 view -0
 2078              		.cfi_startproc
 2079              		@ args = 0, pretend = 0, frame = 8
 2080              		@ frame_needed = 0, uses_anonymous_args = 0
 2081              		.loc 1 659 3 view .LVU623
 2082              		.loc 1 658 56 is_stmt 0 view .LVU624
 2083 03b0 2DE9F04F 		push	{r4, r5, r6, r7, r8, r9, r10, fp, lr}
 2084              		.cfi_def_cfa_offset 36
 2085              		.cfi_offset 4, -36
 2086              		.cfi_offset 5, -32
 2087              		.cfi_offset 6, -28
 2088              		.cfi_offset 7, -24
 2089              		.cfi_offset 8, -20
 2090              		.cfi_offset 9, -16
 2091              		.cfi_offset 10, -12
 2092              		.cfi_offset 11, -8
 2093              		.cfi_offset 14, -4
 2094 03b4 83B0     		sub	sp, sp, #12
 2095              		.cfi_def_cfa_offset 48
 2096              		.loc 1 658 56 view .LVU625
 2097 03b6 9B46     		mov	fp, r3
 2098              		.loc 1 659 13 view .LVU626
ARM GAS  /tmp/cco8b79F.s 			page 38


 2099 03b8 C769     		ldr	r7, [r0, #28]
 2100              	.LVL130:
 2101              		.loc 1 660 3 is_stmt 1 view .LVU627
 2102              		.loc 1 662 3 view .LVU628
 2103              		.loc 1 662 3 view .LVU629
 2104              		.loc 1 664 3 view .LVU630
 2105              	.LBB373:
 2106              	.LBI373:
 2107              		.loc 2 509 20 view .LVU631
 2108              	.LBE373:
 2109              		.loc 2 511 3 view .LVU632
 2110              	.LBB385:
 2111              	.LBB374:
 2112              	.LBI374:
 2113              		.loc 5 353 20 view .LVU633
 2114              	.LBE374:
 2115              	.LBE385:
 2116              		.loc 5 355 3 view .LVU634
 2117              	.LBB386:
 2118              	.LBB382:
 2119              	.LBB375:
 2120              	.LBI375:
 2121              		.loc 6 669 27 view .LVU635
 2122              	.LBE375:
 2123              	.LBE382:
 2124              	.LBE386:
 2125              		.loc 6 677 3 view .LVU636
 2126              	.LBB387:
 2127              	.LBB383:
 2128              	.LBB380:
 2129              	.LBB376:
 2130              	.LBI376:
 2131              		.loc 7 491 27 view .LVU637
 2132              	.LBB377:
 2133              		.loc 7 493 3 view .LVU638
 2134 03ba 4FF02008 		mov	r8, #32
 2135              	.LBE377:
 2136              	.LBE376:
 2137              	.LBE380:
 2138              	.LBE383:
 2139              	.LBE387:
 2140              		.loc 1 658 56 is_stmt 0 view .LVU639
 2141 03be 0192     		str	r2, [sp, #4]
 2142              	.LBB388:
 2143              	.LBB384:
 2144              	.LBB381:
 2145              	.LBB379:
 2146              	.LBB378:
 2147              		.loc 7 493 3 view .LVU640
 2148              		.syntax unified
 2149              	@ 493 "../../../external/ChibiOS/os/common/ext/ARM/CMSIS/Core/Include/cmsis_gcc.h" 1
 2150 03c0 88F31188 		MSR basepri, r8
 2151              	@ 0 "" 2
 2152              	.LVL131:
 2153              		.loc 7 493 3 view .LVU641
 2154              		.thumb
 2155              		.syntax unified
ARM GAS  /tmp/cco8b79F.s 			page 39


 2156              	.LBE378:
 2157              	.LBE379:
 2158              	.LBE381:
 2159              	.LBE384:
 2160              	.LBE388:
 2161              		.loc 5 356 34 is_stmt 1 view .LVU642
 2162              		.loc 5 357 20 view .LVU643
 2163              		.loc 1 666 9 is_stmt 0 view .LVU644
 2164 03c4 BAB1     		cbz	r2, .L133
 2165 03c6 0646     		mov	r6, r0
 2166 03c8 0D46     		mov	r5, r1
 2167 03ca 019C     		ldr	r4, [sp, #4]
 2168              	.LBB389:
 2169              	.LBB390:
 2170              	.LBB391:
 2171              	.LBB392:
 2172              	.LBB393:
 2173              	.LBB394:
 2174              	.LBB395:
 2175              		.loc 7 493 3 view .LVU645
 2176 03cc 4FF00009 		mov	r9, #0
 2177              	.LVL132:
 2178              	.L128:
 2179              		.loc 7 493 3 view .LVU646
 2180              	.LBE395:
 2181              	.LBE394:
 2182              	.LBE393:
 2183              	.LBE392:
 2184              	.LBE391:
 2185              	.LBE390:
 2186              		.loc 1 667 5 is_stmt 1 view .LVU647
 2187              		.loc 1 669 5 view .LVU648
 2188              		.loc 1 669 12 is_stmt 0 view .LVU649
 2189 03d0 2246     		mov	r2, r4
 2190 03d2 2946     		mov	r1, r5
 2191 03d4 3046     		mov	r0, r6
 2192 03d6 FFF74BFE 		bl	oq_write
 2193              	.LVL133:
 2194              		.loc 1 670 5 is_stmt 1 view .LVU650
 2195              		.loc 1 681 7 view .LVU651
 2196              		.loc 1 682 9 view .LVU652
 2197              		.loc 1 670 8 is_stmt 0 view .LVU653
 2198 03da 8246     		mov	r10, r0
 2199 03dc 90B1     		cbz	r0, .L145
 2200              		.loc 1 682 9 view .LVU654
 2201 03de 3046     		mov	r0, r6
 2202              	.LVL134:
 2203              		.loc 1 681 10 view .LVU655
 2204 03e0 07B1     		cbz	r7, .L132
 2205              	.LVL135:
 2206              		.loc 1 682 9 view .LVU656
 2207 03e2 B847     		blx	r7
 2208              	.LVL136:
 2209              	.L132:
 2210              		.loc 1 686 7 is_stmt 1 view .LVU657
 2211              	.LBB404:
 2212              	.LBI390:
ARM GAS  /tmp/cco8b79F.s 			page 40


 2213              		.loc 2 520 20 view .LVU658
 2214              	.LBE404:
 2215              	.LBE389:
 2216              		.loc 2 522 3 view .LVU659
 2217              	.LBB421:
 2218              	.LBB405:
 2219              	.LBB402:
 2220              	.LBI391:
 2221              		.loc 5 365 20 view .LVU660
 2222              	.LBB400:
 2223              		.loc 5 367 22 view .LVU661
 2224              		.loc 5 368 33 view .LVU662
 2225              		.loc 5 374 3 view .LVU663
 2226              		.loc 5 374 3 view .LVU664
 2227              		.loc 5 378 3 view .LVU665
 2228              	.LBB398:
 2229              	.LBI393:
 2230              		.loc 6 693 27 view .LVU666
 2231              	.LBE398:
 2232              	.LBE400:
 2233              	.LBE402:
 2234              	.LBE405:
 2235              	.LBE421:
 2236              		.loc 6 696 3 view .LVU667
 2237              	.LBB422:
 2238              	.LBB406:
 2239              	.LBB403:
 2240              	.LBB401:
 2241              	.LBB399:
 2242              	.LBB397:
 2243              	.LBI394:
 2244              		.loc 7 491 27 view .LVU668
 2245              	.LBB396:
 2246              		.loc 7 493 3 view .LVU669
 2247              		.syntax unified
 2248              	@ 493 "../../../external/ChibiOS/os/common/ext/ARM/CMSIS/Core/Include/cmsis_gcc.h" 1
 2249 03e4 89F31188 		MSR basepri, r9
 2250              	@ 0 "" 2
 2251              	.LVL137:
 2252              		.loc 7 493 3 is_stmt 0 view .LVU670
 2253              		.thumb
 2254              		.syntax unified
 2255              	.LBE396:
 2256              	.LBE397:
 2257              	.LBE399:
 2258              	.LBE401:
 2259              	.LBE403:
 2260              	.LBE406:
 2261              		.loc 1 688 7 is_stmt 1 view .LVU671
 2262              		.loc 1 688 10 is_stmt 0 view .LVU672
 2263 03e8 A4EB0A04 		sub	r4, r4, r10
 2264              	.LVL138:
 2265              		.loc 1 689 7 is_stmt 1 view .LVU673
 2266              		.loc 1 689 10 is_stmt 0 view .LVU674
 2267 03ec 5544     		add	r5, r5, r10
 2268              	.LVL139:
 2269              		.loc 1 691 7 is_stmt 1 view .LVU675
ARM GAS  /tmp/cco8b79F.s 			page 41


 2270              	.LBB407:
 2271              	.LBI407:
 2272              		.loc 2 509 20 view .LVU676
 2273              	.LBE407:
 2274              	.LBE422:
 2275              		.loc 2 511 3 view .LVU677
 2276              	.LBB423:
 2277              	.LBB415:
 2278              	.LBB408:
 2279              	.LBI408:
 2280              		.loc 5 353 20 view .LVU678
 2281              	.LBE408:
 2282              	.LBE415:
 2283              	.LBE423:
 2284              		.loc 5 355 3 view .LVU679
 2285              	.LBB424:
 2286              	.LBB416:
 2287              	.LBB413:
 2288              	.LBB409:
 2289              	.LBI409:
 2290              		.loc 6 669 27 view .LVU680
 2291              	.LBE409:
 2292              	.LBE413:
 2293              	.LBE416:
 2294              	.LBE424:
 2295              		.loc 6 677 3 view .LVU681
 2296              	.LBB425:
 2297              	.LBB417:
 2298              	.LBB414:
 2299              	.LBB412:
 2300              	.LBB410:
 2301              	.LBI410:
 2302              		.loc 7 491 27 view .LVU682
 2303              	.LBB411:
 2304              		.loc 7 493 3 view .LVU683
 2305              		.syntax unified
 2306              	@ 493 "../../../external/ChibiOS/os/common/ext/ARM/CMSIS/Core/Include/cmsis_gcc.h" 1
 2307 03ee 88F31188 		MSR basepri, r8
 2308              	@ 0 "" 2
 2309              	.LVL140:
 2310              		.loc 7 493 3 is_stmt 0 view .LVU684
 2311              		.thumb
 2312              		.syntax unified
 2313              	.LBE411:
 2314              	.LBE410:
 2315              	.LBE412:
 2316              	.LBE414:
 2317              	.LBE417:
 2318              	.LBE425:
 2319              		.loc 5 356 34 is_stmt 1 view .LVU685
 2320              		.loc 5 357 20 view .LVU686
 2321              		.loc 1 666 9 is_stmt 0 view .LVU687
 2322 03f2 002C     		cmp	r4, #0
 2323 03f4 ECD1     		bne	.L128
 2324              	.LVL141:
 2325              	.L133:
 2326              		.loc 1 666 9 view .LVU688
ARM GAS  /tmp/cco8b79F.s 			page 42


 2327 03f6 0198     		ldr	r0, [sp, #4]
 2328              		.loc 1 695 3 is_stmt 1 view .LVU689
 2329              	.LBB426:
 2330              	.LBI426:
 2331              		.loc 2 520 20 view .LVU690
 2332              	.LBE426:
 2333              		.loc 2 522 3 view .LVU691
 2334              	.LBB443:
 2335              	.LBB427:
 2336              	.LBI427:
 2337              		.loc 5 365 20 view .LVU692
 2338              	.LBB428:
 2339              		.loc 5 367 22 view .LVU693
 2340              		.loc 5 368 33 view .LVU694
 2341              		.loc 5 374 3 view .LVU695
 2342              		.loc 5 374 3 view .LVU696
 2343              		.loc 5 378 3 view .LVU697
 2344              	.LBB429:
 2345              	.LBI429:
 2346              		.loc 6 693 27 view .LVU698
 2347              	.LBE429:
 2348              	.LBE428:
 2349              	.LBE427:
 2350              	.LBE443:
 2351              		.loc 6 696 3 view .LVU699
 2352              	.LVL142:
 2353              	.LBB444:
 2354              	.LBB440:
 2355              	.LBB437:
 2356              	.LBB434:
 2357              	.LBB430:
 2358              	.LBI430:
 2359              		.loc 7 491 27 view .LVU700
 2360              	.LBB431:
 2361              		.loc 7 493 3 view .LVU701
 2362 03f8 0023     		movs	r3, #0
 2363              		.syntax unified
 2364              	@ 493 "../../../external/ChibiOS/os/common/ext/ARM/CMSIS/Core/Include/cmsis_gcc.h" 1
 2365 03fa 83F31188 		MSR basepri, r3
 2366              	@ 0 "" 2
 2367              	.LVL143:
 2368              		.loc 7 493 3 is_stmt 0 view .LVU702
 2369              		.thumb
 2370              		.syntax unified
 2371              	.LBE431:
 2372              	.LBE430:
 2373              	.LBE434:
 2374              	.LBE437:
 2375              	.LBE440:
 2376              	.LBE444:
 2377              		.loc 1 696 3 is_stmt 1 view .LVU703
 2378              		.loc 1 697 1 is_stmt 0 view .LVU704
 2379 03fe 03B0     		add	sp, sp, #12
 2380              		.cfi_remember_state
 2381              		.cfi_def_cfa_offset 36
 2382              		@ sp needed
 2383 0400 BDE8F08F 		pop	{r4, r5, r6, r7, r8, r9, r10, fp, pc}
ARM GAS  /tmp/cco8b79F.s 			page 43


 2384              	.LVL144:
 2385              	.L145:
 2386              		.cfi_restore_state
 2387              	.LBB445:
 2388              	.LBB418:
 2389              		.loc 1 671 7 is_stmt 1 view .LVU705
 2390              	.LBB419:
 2391              	.LBI419:
 2392              		.loc 2 828 21 view .LVU706
 2393              	.LBB420:
 2394              		.loc 2 831 3 view .LVU707
 2395              		.loc 2 831 10 is_stmt 0 view .LVU708
 2396 0404 5946     		mov	r1, fp
 2397 0406 3046     		mov	r0, r6
 2398              	.LVL145:
 2399              		.loc 2 831 10 view .LVU709
 2400 0408 FFF7FEFF 		bl	chThdEnqueueTimeoutS
 2401              	.LVL146:
 2402              		.loc 2 831 10 view .LVU710
 2403              	.LBE420:
 2404              	.LBE419:
 2405              		.loc 1 674 7 is_stmt 1 view .LVU711
 2406              		.loc 1 674 10 is_stmt 0 view .LVU712
 2407 040c 0028     		cmp	r0, #0
 2408 040e DFD0     		beq	.L128
 2409 0410 019B     		ldr	r3, [sp, #4]
 2410 0412 181B     		subs	r0, r3, r4
 2411              	.LVL147:
 2412              		.loc 1 674 10 view .LVU713
 2413              	.LBE418:
 2414              	.LBE445:
 2415              		.loc 1 695 3 is_stmt 1 view .LVU714
 2416              	.LBB446:
 2417              		.loc 2 520 20 view .LVU715
 2418              	.LBE446:
 2419              		.loc 2 522 3 view .LVU716
 2420              	.LBB447:
 2421              	.LBB441:
 2422              		.loc 5 365 20 view .LVU717
 2423              	.LBB438:
 2424              		.loc 5 367 22 view .LVU718
 2425              		.loc 5 368 33 view .LVU719
 2426              		.loc 5 374 3 view .LVU720
 2427              		.loc 5 374 3 view .LVU721
 2428              		.loc 5 378 3 view .LVU722
 2429              	.LBB435:
 2430              		.loc 6 693 27 view .LVU723
 2431              	.LBE435:
 2432              	.LBE438:
 2433              	.LBE441:
 2434              	.LBE447:
 2435              		.loc 6 696 3 view .LVU724
 2436              	.LBB448:
 2437              	.LBB442:
 2438              	.LBB439:
 2439              	.LBB436:
 2440              	.LBB433:
ARM GAS  /tmp/cco8b79F.s 			page 44


 2441              		.loc 7 491 27 view .LVU725
 2442              	.LBB432:
 2443              		.loc 7 493 3 view .LVU726
 2444 0414 0023     		movs	r3, #0
 2445              		.syntax unified
 2446              	@ 493 "../../../external/ChibiOS/os/common/ext/ARM/CMSIS/Core/Include/cmsis_gcc.h" 1
 2447 0416 83F31188 		MSR basepri, r3
 2448              	@ 0 "" 2
 2449              	.LVL148:
 2450              		.loc 7 493 3 is_stmt 0 view .LVU727
 2451              		.thumb
 2452              		.syntax unified
 2453              	.LBE432:
 2454              	.LBE433:
 2455              	.LBE436:
 2456              	.LBE439:
 2457              	.LBE442:
 2458              	.LBE448:
 2459              		.loc 1 696 3 is_stmt 1 view .LVU728
 2460              		.loc 1 697 1 is_stmt 0 view .LVU729
 2461 041a 03B0     		add	sp, sp, #12
 2462              		.cfi_def_cfa_offset 36
 2463              		@ sp needed
 2464 041c BDE8F08F 		pop	{r4, r5, r6, r7, r8, r9, r10, fp, pc}
 2465              		.loc 1 697 1 view .LVU730
 2466              		.cfi_endproc
 2467              	.LFE377:
 2468              		.size	oqWriteTimeout, .-oqWriteTimeout
 2469              	.Letext0:
 2470              		.file 8 "/home/nicolas/arm/gcc-arm-none-eabi-8-2019-q3-update/lib/gcc/arm-none-eabi/8.3.1/include/
 2471              		.file 9 "/home/nicolas/arm/gcc-arm-none-eabi-8-2019-q3-update/arm-none-eabi/include/machine/_defau
 2472              		.file 10 "/home/nicolas/arm/gcc-arm-none-eabi-8-2019-q3-update/arm-none-eabi/include/sys/_types.h"
 2473              		.file 11 "/home/nicolas/arm/gcc-arm-none-eabi-8-2019-q3-update/arm-none-eabi/include/sys/reent.h"
 2474              		.file 12 "/home/nicolas/arm/gcc-arm-none-eabi-8-2019-q3-update/arm-none-eabi/include/sys/lock.h"
 2475              		.file 13 "/home/nicolas/arm/gcc-arm-none-eabi-8-2019-q3-update/arm-none-eabi/include/sys/_stdint.h
 2476              		.file 14 "/home/nicolas/arm/gcc-arm-none-eabi-8-2019-q3-update/arm-none-eabi/include/stdint.h"
 2477              		.file 15 "../../../external/ChibiOS/os/common/ports/ARMCMx/compilers/GCC/chtypes.h"
 2478              		.file 16 "../../../external/ChibiOS/os/rt/include/chsystypes.h"
 2479              		.file 17 "../../../external/ChibiOS/os/rt/include/chtime.h"
 2480              		.file 18 "../../../external/ChibiOS/os/common/ext/ARM/CMSIS/Core/Include/core_cm7.h"
 2481              		.file 19 "../../../external/ChibiOS/os/common/ext/ST/STM32H7xx/system_stm32h7xx.h"
 2482              		.file 20 "../../../external/ChibiOS/os/common/ext/ST/STM32H7xx/stm32h753xx.h"
 2483              		.file 21 "../../../external/ChibiOS/os/common/ports/ARMCMx/chcore.h"
 2484              		.file 22 "../../../external/ChibiOS/os/rt/include/chtrace.h"
 2485              		.file 23 "../../../external/ChibiOS/os/rt/include/chtm.h"
 2486              		.file 24 "../../../external/ChibiOS/os/rt/include/chsem.h"
 2487              		.file 25 "../../../external/ChibiOS/os/rt/include/chmtx.h"
 2488              		.file 26 "../../../external/ChibiOS/os/rt/include/chregistry.h"
 2489              		.file 27 "../../../external/ChibiOS/os/rt/include/chevents.h"
 2490              		.file 28 "../../../external/ChibiOS/os/oslib/include/chmemcore.h"
 2491              		.file 29 "../../../external/ChibiOS/os/oslib/include/chmempools.h"
 2492              		.file 30 "../../../external/ChibiOS/os/oslib/include/chfactory.h"
 2493              		.file 31 "../../../external/ChibiOS/os/hal/ports/STM32/LLD/DMAv2/stm32_dma.h"
 2494              		.file 32 "../../../external/ChibiOS/os/hal/ports/STM32/LLD/BDMAv1/stm32_bdma.h"
 2495              		.file 33 "../../../external/ChibiOS/os/hal/ports/STM32/LLD/TIMv1/stm32_tim.h"
 2496              		.file 34 "../../../external/ChibiOS/os/hal/include/hal_ioblock.h"
 2497              		.file 35 "../../../external/ChibiOS/os/hal/include/hal_queues.h"
ARM GAS  /tmp/cco8b79F.s 			page 45


 2498              		.file 36 "../../../external/ChibiOS/os/hal/ports/STM32/LLD/GPIOv2/stm32_gpio.h"
 2499              		.file 37 "../../../external/ChibiOS/os/hal/ports/STM32/LLD/GPIOv2/hal_pal_lld.h"
 2500              		.file 38 "../../../external/ChibiOS/os/hal/include/hal_adc.h"
 2501              		.file 39 "../../../external/ChibiOS/os/hal/ports/STM32/LLD/ADCv4/hal_adc_lld.h"
 2502              		.file 40 "../../../external/ChibiOS/os/hal/include/hal_i2c.h"
 2503              		.file 41 "../../../external/ChibiOS/os/hal/ports/STM32/LLD/I2Cv3/hal_i2c_lld.h"
 2504              		.file 42 "../../../external/ChibiOS/os/hal/include/hal_pwm.h"
 2505              		.file 43 "../../../external/ChibiOS/os/hal/ports/STM32/LLD/TIMv1/hal_pwm_lld.h"
 2506              		.file 44 "../../../external/ChibiOS/os/hal/include/hal_serial.h"
 2507              		.file 45 "../../../external/ChibiOS/os/hal/ports/STM32/LLD/USARTv2/hal_serial_lld.h"
 2508              		.file 46 "../../../external/ChibiOS/os/hal/include/hal_sdc.h"
 2509              		.file 47 "../../../external/ChibiOS/os/hal/ports/STM32/LLD/SDMMCv2/hal_sdc_lld.h"
 2510              		.file 48 "../../../external/ChibiOS/os/hal/include/hal_spi.h"
 2511              		.file 49 "../../../external/ChibiOS/os/hal/ports/STM32/LLD/SPIv3/hal_spi_lld.h"
 2512              		.file 50 "../../../external/ChibiOS/os/hal/include/hal_trng.h"
 2513              		.file 51 "../../../external/ChibiOS/os/hal/ports/STM32/LLD/RNGv1/hal_trng_lld.h"
 2514              		.file 52 "../../../external/ChibiOS/os/hal/include/hal_usb.h"
 2515              		.file 53 "../../../external/ChibiOS/os/hal/ports/STM32/LLD/OTGv1/hal_usb_lld.h"
 2516              		.file 54 "../../../external/ChibiOS/os/hal/ports/STM32/LLD/OTGv1/stm32_otg.h"
 2517              		.file 55 "../../../external/ChibiOS-Contrib/os/hal/include/hal_fsmc.h"
 2518              		.file 56 "../../../external/ChibiOS-Contrib/os/hal/include/hal_sdram.h"
 2519              		.file 57 "<built-in>"