ARM GAS  /tmp/ccoASF4Y.s 			page 1


   1              		.cpu cortex-m7
   2              		.eabi_attribute 27, 1
   3              		.eabi_attribute 28, 1
   4              		.eabi_attribute 20, 1
   5              		.eabi_attribute 21, 1
   6              		.eabi_attribute 23, 3
   7              		.eabi_attribute 24, 1
   8              		.eabi_attribute 25, 1
   9              		.eabi_attribute 26, 1
  10              		.eabi_attribute 30, 2
  11              		.eabi_attribute 34, 1
  12              		.eabi_attribute 18, 4
  13              		.file	"hal_serial_lld.c"
  14              		.text
  15              	.Ltext0:
  16              		.cfi_sections	.debug_frame
  17              		.align	1
  18              		.p2align 4,,15
  19              		.arch armv7e-m
  20              		.syntax unified
  21              		.thumb
  22              		.thumb_func
  23              		.fpu fpv4-sp-d16
  24              		.type	notify1, %function
  25              	notify1:
  26              	.LVL0:
  27              	.LFB365:
  28              		.file 1 "../../../external/ChibiOS/os/hal/ports/STM32/LLD/USARTv2/hal_serial_lld.c"
  29              		.loc 1 325 37 view -0
  30              		.cfi_startproc
  31              		@ args = 0, pretend = 0, frame = 0
  32              		@ frame_needed = 0, uses_anonymous_args = 0
  33              		@ link register save eliminated.
  34              		.loc 1 327 3 view .LVU1
  35              		.loc 1 328 3 view .LVU2
  36              		.loc 1 328 15 is_stmt 0 view .LVU3
  37 0000 024A     		ldr	r2, .L3
  38 0002 1368     		ldr	r3, [r2]
  39 0004 43F0C003 		orr	r3, r3, #192
  40 0008 1360     		str	r3, [r2]
  41              		.loc 1 329 1 view .LVU4
  42 000a 7047     		bx	lr
  43              	.L4:
  44              		.align	2
  45              	.L3:
  46 000c 00100140 		.word	1073811456
  47              		.cfi_endproc
  48              	.LFE365:
  49              		.size	notify1, .-notify1
  50              		.align	1
  51              		.p2align 4,,15
  52              		.syntax unified
  53              		.thumb
  54              		.thumb_func
  55              		.fpu fpv4-sp-d16
  56              		.type	notify2, %function
  57              	notify2:
ARM GAS  /tmp/ccoASF4Y.s 			page 2


  58              	.LVL1:
  59              	.LFB366:
  60              		.loc 1 333 37 is_stmt 1 view -0
  61              		.cfi_startproc
  62              		@ args = 0, pretend = 0, frame = 0
  63              		@ frame_needed = 0, uses_anonymous_args = 0
  64              		@ link register save eliminated.
  65              		.loc 1 335 3 view .LVU6
  66              		.loc 1 336 3 view .LVU7
  67              		.loc 1 336 15 is_stmt 0 view .LVU8
  68 0010 024A     		ldr	r2, .L6
  69 0012 1368     		ldr	r3, [r2]
  70 0014 43F0C003 		orr	r3, r3, #192
  71 0018 1360     		str	r3, [r2]
  72              		.loc 1 337 1 view .LVU9
  73 001a 7047     		bx	lr
  74              	.L7:
  75              		.align	2
  76              	.L6:
  77 001c 00440040 		.word	1073759232
  78              		.cfi_endproc
  79              	.LFE366:
  80              		.size	notify2, .-notify2
  81              		.align	1
  82              		.p2align 4,,15
  83              		.syntax unified
  84              		.thumb
  85              		.thumb_func
  86              		.fpu fpv4-sp-d16
  87              		.type	notify3, %function
  88              	notify3:
  89              	.LVL2:
  90              	.LFB367:
  91              		.loc 1 341 37 is_stmt 1 view -0
  92              		.cfi_startproc
  93              		@ args = 0, pretend = 0, frame = 0
  94              		@ frame_needed = 0, uses_anonymous_args = 0
  95              		@ link register save eliminated.
  96              		.loc 1 343 3 view .LVU11
  97              		.loc 1 344 3 view .LVU12
  98              		.loc 1 344 15 is_stmt 0 view .LVU13
  99 0020 024A     		ldr	r2, .L9
 100 0022 1368     		ldr	r3, [r2]
 101 0024 43F0C003 		orr	r3, r3, #192
 102 0028 1360     		str	r3, [r2]
 103              		.loc 1 345 1 view .LVU14
 104 002a 7047     		bx	lr
 105              	.L10:
 106              		.align	2
 107              	.L9:
 108 002c 00480040 		.word	1073760256
 109              		.cfi_endproc
 110              	.LFE367:
 111              		.size	notify3, .-notify3
 112              		.align	1
 113              		.p2align 4,,15
 114              		.syntax unified
ARM GAS  /tmp/ccoASF4Y.s 			page 3


 115              		.thumb
 116              		.thumb_func
 117              		.fpu fpv4-sp-d16
 118              		.type	notify6, %function
 119              	notify6:
 120              	.LVL3:
 121              	.LFB368:
 122              		.loc 1 365 37 is_stmt 1 view -0
 123              		.cfi_startproc
 124              		@ args = 0, pretend = 0, frame = 0
 125              		@ frame_needed = 0, uses_anonymous_args = 0
 126              		@ link register save eliminated.
 127              		.loc 1 367 3 view .LVU16
 128              		.loc 1 368 3 view .LVU17
 129              		.loc 1 368 15 is_stmt 0 view .LVU18
 130 0030 024A     		ldr	r2, .L12
 131 0032 1368     		ldr	r3, [r2]
 132 0034 43F0C003 		orr	r3, r3, #192
 133 0038 1360     		str	r3, [r2]
 134              		.loc 1 369 1 view .LVU19
 135 003a 7047     		bx	lr
 136              	.L13:
 137              		.align	2
 138              	.L12:
 139 003c 00140140 		.word	1073812480
 140              		.cfi_endproc
 141              	.LFE368:
 142              		.size	notify6, .-notify6
 143              		.align	1
 144              		.p2align 4,,15
 145              		.global	sd_lld_init
 146              		.syntax unified
 147              		.thumb
 148              		.thumb_func
 149              		.fpu fpv4-sp-d16
 150              		.type	sd_lld_init, %function
 151              	sd_lld_init:
 152              	.LFB369:
 153              		.loc 1 598 24 is_stmt 1 view -0
 154              		.cfi_startproc
 155              		@ args = 0, pretend = 0, frame = 0
 156              		@ frame_needed = 0, uses_anonymous_args = 0
 157              		.loc 1 601 3 view .LVU21
 158              		.loc 1 598 24 is_stmt 0 view .LVU22
 159 0040 F0B5     		push	{r4, r5, r6, r7, lr}
 160              		.cfi_def_cfa_offset 20
 161              		.cfi_offset 4, -20
 162              		.cfi_offset 5, -16
 163              		.cfi_offset 6, -12
 164              		.cfi_offset 7, -8
 165              		.cfi_offset 14, -4
 166              		.loc 1 601 3 view .LVU23
 167 0042 344E     		ldr	r6, .L16
 168              		.loc 1 598 24 view .LVU24
 169 0044 83B0     		sub	sp, sp, #12
 170              		.cfi_def_cfa_offset 32
 171              		.loc 1 602 3 view .LVU25
ARM GAS  /tmp/ccoASF4Y.s 			page 4


 172 0046 344C     		ldr	r4, .L16+4
 173              		.loc 1 601 3 view .LVU26
 174 0048 3046     		mov	r0, r6
 175              		.loc 1 612 3 view .LVU27
 176 004a 344D     		ldr	r5, .L16+8
 177              		.loc 1 601 3 view .LVU28
 178 004c FFF7FEFF 		bl	sdObjectInit
 179              	.LVL4:
 180              		.loc 1 602 3 is_stmt 1 view .LVU29
 181 0050 0096     		str	r6, [sp]
 182 0052 06F10C00 		add	r0, r6, #12
 183 0056 2146     		mov	r1, r4
 184 0058 0023     		movs	r3, #0
 185 005a 1022     		movs	r2, #16
 186 005c FFF7FEFF 		bl	iqObjectInit
 187              	.LVL5:
 188              		.loc 1 603 3 view .LVU30
 189 0060 04F11001 		add	r1, r4, #16
 190 0064 0096     		str	r6, [sp]
 191 0066 06F13000 		add	r0, r6, #48
 192 006a 1022     		movs	r2, #16
 193 006c 2C4B     		ldr	r3, .L16+12
 194 006e FFF7FEFF 		bl	oqObjectInit
 195              	.LVL6:
 196              		.loc 1 604 3 view .LVU31
 197              		.loc 1 605 13 is_stmt 0 view .LVU32
 198 0072 2C4F     		ldr	r7, .L16+16
 199              		.loc 1 604 13 view .LVU33
 200 0074 2C4B     		ldr	r3, .L16+20
 201              		.loc 1 612 3 view .LVU34
 202 0076 2846     		mov	r0, r5
 203              		.loc 1 604 13 view .LVU35
 204 0078 C6E91537 		strd	r3, r7, [r6, #84]
 205              		.loc 1 605 3 is_stmt 1 view .LVU36
 206              		.loc 1 612 3 view .LVU37
 207 007c FFF7FEFF 		bl	sdObjectInit
 208              	.LVL7:
 209              		.loc 1 613 3 view .LVU38
 210 0080 0095     		str	r5, [sp]
 211 0082 04F12001 		add	r1, r4, #32
 212 0086 05F10C00 		add	r0, r5, #12
 213 008a 0023     		movs	r3, #0
 214 008c 1022     		movs	r2, #16
 215              		.loc 1 623 3 is_stmt 0 view .LVU39
 216 008e 274E     		ldr	r6, .L16+24
 217              		.loc 1 613 3 view .LVU40
 218 0090 FFF7FEFF 		bl	iqObjectInit
 219              	.LVL8:
 220              		.loc 1 614 3 is_stmt 1 view .LVU41
 221 0094 04F13001 		add	r1, r4, #48
 222 0098 0095     		str	r5, [sp]
 223 009a 05F13000 		add	r0, r5, #48
 224 009e 1022     		movs	r2, #16
 225 00a0 234B     		ldr	r3, .L16+28
 226 00a2 FFF7FEFF 		bl	oqObjectInit
 227              	.LVL9:
 228              		.loc 1 615 3 view .LVU42
ARM GAS  /tmp/ccoASF4Y.s 			page 5


 229              		.loc 1 615 13 is_stmt 0 view .LVU43
 230 00a6 234B     		ldr	r3, .L16+32
 231              		.loc 1 623 3 view .LVU44
 232 00a8 3046     		mov	r0, r6
 233              		.loc 1 615 13 view .LVU45
 234 00aa C5E91537 		strd	r3, r7, [r5, #84]
 235              		.loc 1 616 3 is_stmt 1 view .LVU46
 236              		.loc 1 623 3 view .LVU47
 237 00ae FFF7FEFF 		bl	sdObjectInit
 238              	.LVL10:
 239              		.loc 1 624 3 view .LVU48
 240 00b2 04F14001 		add	r1, r4, #64
 241 00b6 06F10C00 		add	r0, r6, #12
 242 00ba 0096     		str	r6, [sp]
 243 00bc 0023     		movs	r3, #0
 244 00be 1022     		movs	r2, #16
 245              		.loc 1 656 3 is_stmt 0 view .LVU49
 246 00c0 1D4D     		ldr	r5, .L16+36
 247              		.loc 1 624 3 view .LVU50
 248 00c2 FFF7FEFF 		bl	iqObjectInit
 249              	.LVL11:
 250              		.loc 1 625 3 is_stmt 1 view .LVU51
 251 00c6 04F15001 		add	r1, r4, #80
 252 00ca 06F13000 		add	r0, r6, #48
 253 00ce 1022     		movs	r2, #16
 254 00d0 0096     		str	r6, [sp]
 255 00d2 1A4B     		ldr	r3, .L16+40
 256 00d4 FFF7FEFF 		bl	oqObjectInit
 257              	.LVL12:
 258              		.loc 1 626 3 view .LVU52
 259              		.loc 1 626 13 is_stmt 0 view .LVU53
 260 00d8 194B     		ldr	r3, .L16+44
 261              		.loc 1 656 3 view .LVU54
 262 00da 2846     		mov	r0, r5
 263              		.loc 1 626 13 view .LVU55
 264 00dc C6E91537 		strd	r3, r7, [r6, #84]
 265              		.loc 1 627 3 is_stmt 1 view .LVU56
 266              		.loc 1 656 3 view .LVU57
 267 00e0 FFF7FEFF 		bl	sdObjectInit
 268              	.LVL13:
 269              		.loc 1 657 3 view .LVU58
 270 00e4 04F16001 		add	r1, r4, #96
 271 00e8 05F10C00 		add	r0, r5, #12
 272 00ec 0095     		str	r5, [sp]
 273 00ee 0023     		movs	r3, #0
 274 00f0 1022     		movs	r2, #16
 275 00f2 FFF7FEFF 		bl	iqObjectInit
 276              	.LVL14:
 277              		.loc 1 658 3 view .LVU59
 278 00f6 0095     		str	r5, [sp]
 279 00f8 04F17001 		add	r1, r4, #112
 280 00fc 05F13000 		add	r0, r5, #48
 281 0100 104B     		ldr	r3, .L16+48
 282 0102 1022     		movs	r2, #16
 283 0104 FFF7FEFF 		bl	oqObjectInit
 284              	.LVL15:
 285              		.loc 1 659 3 view .LVU60
ARM GAS  /tmp/ccoASF4Y.s 			page 6


 286              		.loc 1 659 13 is_stmt 0 view .LVU61
 287 0108 0F4B     		ldr	r3, .L16+52
 288 010a C5E91537 		strd	r3, r7, [r5, #84]
 289              		.loc 1 660 3 is_stmt 1 view .LVU62
 290              		.loc 1 698 1 is_stmt 0 view .LVU63
 291 010e 03B0     		add	sp, sp, #12
 292              		.cfi_def_cfa_offset 20
 293              		@ sp needed
 294 0110 F0BD     		pop	{r4, r5, r6, r7, pc}
 295              	.L17:
 296 0112 00BF     		.align	2
 297              	.L16:
 298 0114 00000000 		.word	SD1
 299 0118 00000000 		.word	.LANCHOR0
 300 011c 00000000 		.word	SD2
 301 0120 00000000 		.word	notify1
 302 0124 000E2707 		.word	120000000
 303 0128 00100140 		.word	1073811456
 304 012c 00000000 		.word	SD3
 305 0130 00000000 		.word	notify2
 306 0134 00440040 		.word	1073759232
 307 0138 00000000 		.word	SD6
 308 013c 00000000 		.word	notify3
 309 0140 00480040 		.word	1073760256
 310 0144 00000000 		.word	notify6
 311 0148 00140140 		.word	1073812480
 312              		.cfi_endproc
 313              	.LFE369:
 314              		.size	sd_lld_init, .-sd_lld_init
 315              		.align	1
 316 014c AFF30080 		.p2align 4,,15
 317              		.global	sd_lld_start
 318              		.syntax unified
 319              		.thumb
 320              		.thumb_func
 321              		.fpu fpv4-sp-d16
 322              		.type	sd_lld_start, %function
 323              	sd_lld_start:
 324              	.LVL16:
 325              	.LFB370:
 326              		.loc 1 710 66 is_stmt 1 view -0
 327              		.cfi_startproc
 328              		@ args = 0, pretend = 0, frame = 0
 329              		@ frame_needed = 0, uses_anonymous_args = 0
 330              		.loc 1 712 3 view .LVU65
 331              		.loc 1 710 66 is_stmt 0 view .LVU66
 332 0150 2DE9F041 		push	{r4, r5, r6, r7, r8, lr}
 333              		.cfi_def_cfa_offset 24
 334              		.cfi_offset 4, -24
 335              		.cfi_offset 5, -20
 336              		.cfi_offset 6, -16
 337              		.cfi_offset 7, -12
 338              		.cfi_offset 8, -8
 339              		.cfi_offset 14, -4
 340 0154 90F808C0 		ldrb	ip, [r0, #8]	@ zero_extendqisi2
 341 0158 D0E91553 		ldrd	r5, r3, [r0, #84]
 342              		.loc 1 712 6 view .LVU67
ARM GAS  /tmp/ccoASF4Y.s 			page 7


 343 015c 81B3     		cbz	r1, .L19
 344              		.loc 1 715 3 is_stmt 1 view .LVU68
 345 015e 0A68     		ldr	r2, [r1]
 346 0160 40F22D17 		movw	r7, #301
 347              		.loc 1 715 6 is_stmt 0 view .LVU69
 348 0164 BCF1010F 		cmp	ip, #1
 349 0168 D1E90164 		ldrd	r6, r4, [r1, #4]
 350 016c C968     		ldr	r1, [r1, #12]
 351              	.LVL17:
 352              		.loc 1 715 6 view .LVU70
 353 016e 44F0400E 		orr	lr, r4, #64
 354 0172 06F40048 		and	r8, r6, #32768
 355 0176 41F00104 		orr	r4, r1, #1
 356 017a 47EA0607 		orr	r7, r7, r6
 357 017e 06F48061 		and	r1, r6, #1024
 358 0182 B3FBF2F3 		udiv	r3, r3, r2
 359 0186 3AD0     		beq	.L30
 360              	.LVL18:
 361              	.L20:
 362              		.loc 1 743 28 is_stmt 1 discriminator 5 view .LVU71
 363              		.loc 1 762 3 discriminator 5 view .LVU72
 364              	.LBB126:
 365              	.LBI126:
 366              		.loc 1 232 13 discriminator 5 view .LVU73
 367              	.LBB127:
 368              		.loc 1 233 3 discriminator 5 view .LVU74
 369              		.loc 1 234 3 discriminator 5 view .LVU75
 370              		.loc 1 250 5 discriminator 5 view .LVU76
 371              		.loc 1 255 5 discriminator 5 view .LVU77
 372              		.loc 1 255 8 is_stmt 0 discriminator 5 view .LVU78
 373 0188 B8F1000F 		cmp	r8, #0
 374 018c 05D0     		beq	.L24
 375              	.LVL19:
 376              	.L46:
 377              		.loc 1 256 7 is_stmt 1 view .LVU79
 378              		.loc 1 256 19 is_stmt 0 view .LVU80
 379 018e 23F00702 		bic	r2, r3, #7
 380              		.loc 1 256 37 view .LVU81
 381 0192 03F00703 		and	r3, r3, #7
 382              		.loc 1 256 11 view .LVU82
 383 0196 43EA4203 		orr	r3, r3, r2, lsl #1
 384              	.LVL20:
 385              	.L24:
 386              		.loc 1 258 5 is_stmt 1 view .LVU83
 387              		.loc 1 258 5 view .LVU84
 388              		.loc 1 260 3 view .LVU85
 389              		.loc 1 268 10 is_stmt 0 view .LVU86
 390 019a 4FF0FF32 		mov	r2, #-1
 391              		.loc 1 260 10 view .LVU87
 392 019e EB60     		str	r3, [r5, #12]
 393              		.loc 1 263 3 is_stmt 1 view .LVU88
 394              		.loc 1 263 10 is_stmt 0 view .LVU89
 395 01a0 C5F804E0 		str	lr, [r5, #4]
 396              		.loc 1 264 3 is_stmt 1 view .LVU90
 397              		.loc 1 264 10 is_stmt 0 view .LVU91
 398 01a4 AC60     		str	r4, [r5, #8]
 399              		.loc 1 265 3 is_stmt 1 view .LVU92
ARM GAS  /tmp/ccoASF4Y.s 			page 8


 400              		.loc 1 265 10 is_stmt 0 view .LVU93
 401 01a6 2F60     		str	r7, [r5]
 402              		.loc 1 268 3 is_stmt 1 view .LVU94
 403              		.loc 1 268 10 is_stmt 0 view .LVU95
 404 01a8 2A62     		str	r2, [r5, #32]
 405              		.loc 1 272 3 is_stmt 1 view .LVU96
 406              		.loc 1 272 6 is_stmt 0 view .LVU97
 407 01aa E1B1     		cbz	r1, .L25
 408              		.loc 1 273 5 is_stmt 1 view .LVU98
 409 01ac 16F01023 		ands	r3, r6, #268439552
 410              	.LVL21:
 411              		.loc 1 273 5 is_stmt 0 view .LVU99
 412 01b0 44D0     		beq	.L26
 413 01b2 B3F1805F 		cmp	r3, #268435456
 414 01b6 46D0     		beq	.L27
 415              		.loc 1 281 7 is_stmt 1 view .LVU100
 416              		.loc 1 281 19 is_stmt 0 view .LVU101
 417 01b8 80F85C20 		strb	r2, [r0, #92]
 418              	.LBE127:
 419              	.LBE126:
 420              		.loc 1 763 1 view .LVU102
 421 01bc BDE8F081 		pop	{r4, r5, r6, r7, r8, pc}
 422              	.LVL22:
 423              	.L19:
 424              		.loc 1 713 5 is_stmt 1 view .LVU103
 425              		.loc 1 715 3 view .LVU104
 426 01c0 3B4A     		ldr	r2, .L47
 427              		.loc 1 715 6 is_stmt 0 view .LVU105
 428 01c2 BCF1010F 		cmp	ip, #1
 429 01c6 A2FB0323 		umull	r2, r3, r2, r3
 430 01ca 4FEA1333 		lsr	r3, r3, #12
 431 01ce 0FD0     		beq	.L42
 432              		.loc 1 743 28 is_stmt 1 view .LVU106
 433              		.loc 1 762 3 view .LVU107
 434              	.LVL23:
 435              	.LBB131:
 436              		.loc 1 232 13 view .LVU108
 437              	.LBB128:
 438              		.loc 1 233 3 view .LVU109
 439              		.loc 1 234 3 view .LVU110
 440              		.loc 1 250 5 view .LVU111
 441              		.loc 1 255 5 view .LVU112
 442              		.loc 1 258 5 view .LVU113
 443              		.loc 1 258 5 view .LVU114
 444              		.loc 1 260 3 view .LVU115
 445              		.loc 1 260 10 is_stmt 0 view .LVU116
 446 01d0 EB60     		str	r3, [r5, #12]
 447              		.loc 1 263 3 is_stmt 1 view .LVU117
 448              		.loc 1 263 10 is_stmt 0 view .LVU118
 449 01d2 4024     		movs	r4, #64
 450              		.loc 1 264 10 view .LVU119
 451 01d4 0121     		movs	r1, #1
 452              		.loc 1 265 10 view .LVU120
 453 01d6 40F22D12 		movw	r2, #301
 454              		.loc 1 268 10 view .LVU121
 455 01da 4FF0FF33 		mov	r3, #-1
 456              		.loc 1 263 10 view .LVU122
ARM GAS  /tmp/ccoASF4Y.s 			page 9


 457 01de 6C60     		str	r4, [r5, #4]
 458              		.loc 1 264 3 is_stmt 1 view .LVU123
 459              		.loc 1 264 10 is_stmt 0 view .LVU124
 460 01e0 A960     		str	r1, [r5, #8]
 461              		.loc 1 265 3 is_stmt 1 view .LVU125
 462              		.loc 1 265 10 is_stmt 0 view .LVU126
 463 01e2 2A60     		str	r2, [r5]
 464              		.loc 1 268 3 is_stmt 1 view .LVU127
 465              		.loc 1 268 10 is_stmt 0 view .LVU128
 466 01e4 2B62     		str	r3, [r5, #32]
 467              		.loc 1 272 3 is_stmt 1 view .LVU129
 468              	.LVL24:
 469              	.L25:
 470              		.loc 1 285 5 view .LVU130
 471              		.loc 1 285 17 is_stmt 0 view .LVU131
 472 01e6 FF23     		movs	r3, #255
 473 01e8 80F85C30 		strb	r3, [r0, #92]
 474              	.LVL25:
 475              		.loc 1 285 17 view .LVU132
 476              	.LBE128:
 477              	.LBE131:
 478              		.loc 1 763 1 view .LVU133
 479 01ec BDE8F081 		pop	{r4, r5, r6, r7, r8, pc}
 480              	.LVL26:
 481              	.L42:
 482              		.loc 1 715 6 view .LVU134
 483 01f0 6446     		mov	r4, ip
 484 01f2 40F22D17 		movw	r7, #301
 485 01f6 4FF0400E 		mov	lr, #64
 486 01fa 8846     		mov	r8, r1
 487 01fc 0E46     		mov	r6, r1
 488              	.LVL27:
 489              	.L30:
 490              		.loc 1 717 5 is_stmt 1 view .LVU135
 491              		.loc 1 717 8 is_stmt 0 view .LVU136
 492 01fe 2D4A     		ldr	r2, .L47+4
 493 0200 9042     		cmp	r0, r2
 494 0202 45D0     		beq	.L43
 495              	.L21:
 496              		.loc 1 718 28 is_stmt 1 discriminator 5 view .LVU137
 497              		.loc 1 722 5 discriminator 5 view .LVU138
 498              		.loc 1 722 8 is_stmt 0 discriminator 5 view .LVU139
 499 0204 2C4A     		ldr	r2, .L47+8
 500 0206 9042     		cmp	r0, r2
 501 0208 32D0     		beq	.L44
 502              	.L22:
 503              		.loc 1 723 28 is_stmt 1 discriminator 5 view .LVU140
 504              		.loc 1 727 5 discriminator 5 view .LVU141
 505              		.loc 1 727 8 is_stmt 0 discriminator 5 view .LVU142
 506 020a 2C4A     		ldr	r2, .L47+12
 507 020c 9042     		cmp	r0, r2
 508 020e 1FD0     		beq	.L45
 509              	.L23:
 510              		.loc 1 728 28 is_stmt 1 discriminator 5 view .LVU143
 511              		.loc 1 742 5 discriminator 5 view .LVU144
 512              		.loc 1 742 8 is_stmt 0 discriminator 5 view .LVU145
 513 0210 2B4A     		ldr	r2, .L47+16
ARM GAS  /tmp/ccoASF4Y.s 			page 10


 514 0212 9042     		cmp	r0, r2
 515 0214 B8D1     		bne	.L20
 516              		.loc 1 743 7 is_stmt 1 view .LVU146
 517 0216 2B4A     		ldr	r2, .L47+20
 518 0218 D2F8F0C0 		ldr	ip, [r2, #240]
 519 021c 4CF0200C 		orr	ip, ip, #32
 520 0220 C2F8F0C0 		str	ip, [r2, #240]
 521              		.loc 1 743 7 view .LVU147
 522              		.loc 1 743 7 view .LVU148
 523 0224 D2F818C1 		ldr	ip, [r2, #280]
 524 0228 4CF0200C 		orr	ip, ip, #32
 525 022c C2F818C1 		str	ip, [r2, #280]
 526              		.loc 1 743 7 view .LVU149
 527 0230 D2F81821 		ldr	r2, [r2, #280]
 528              		.loc 1 743 28 view .LVU150
 529              		.loc 1 762 3 view .LVU151
 530              	.LVL28:
 531              	.LBB132:
 532              		.loc 1 232 13 view .LVU152
 533              	.LBB129:
 534              		.loc 1 233 3 view .LVU153
 535              		.loc 1 234 3 view .LVU154
 536              		.loc 1 250 5 view .LVU155
 537              		.loc 1 255 5 view .LVU156
 538              		.loc 1 255 8 is_stmt 0 view .LVU157
 539 0234 B8F1000F 		cmp	r8, #0
 540 0238 A9D1     		bne	.L46
 541 023a AEE7     		b	.L24
 542              	.LVL29:
 543              	.L26:
 544              		.loc 1 275 7 is_stmt 1 view .LVU158
 545              		.loc 1 275 19 is_stmt 0 view .LVU159
 546 023c 7F23     		movs	r3, #127
 547 023e 80F85C30 		strb	r3, [r0, #92]
 548              		.loc 1 276 7 is_stmt 1 view .LVU160
 549              	.LBE129:
 550              	.LBE132:
 551              		.loc 1 763 1 is_stmt 0 view .LVU161
 552 0242 BDE8F081 		pop	{r4, r5, r6, r7, r8, pc}
 553              	.L27:
 554              	.LBB133:
 555              	.LBB130:
 556              		.loc 1 278 7 is_stmt 1 view .LVU162
 557              		.loc 1 278 19 is_stmt 0 view .LVU163
 558 0246 3F23     		movs	r3, #63
 559 0248 80F85C30 		strb	r3, [r0, #92]
 560              		.loc 1 279 7 is_stmt 1 view .LVU164
 561              	.LBE130:
 562              	.LBE133:
 563              		.loc 1 763 1 is_stmt 0 view .LVU165
 564 024c BDE8F081 		pop	{r4, r5, r6, r7, r8, pc}
 565              	.LVL30:
 566              	.L45:
 567              		.loc 1 728 7 is_stmt 1 view .LVU166
 568 0250 1C4A     		ldr	r2, .L47+20
 569 0252 D2F8E8C0 		ldr	ip, [r2, #232]
 570 0256 4CF4802C 		orr	ip, ip, #262144
ARM GAS  /tmp/ccoASF4Y.s 			page 11


 571 025a C2F8E8C0 		str	ip, [r2, #232]
 572              		.loc 1 728 7 view .LVU167
 573              		.loc 1 728 7 view .LVU168
 574 025e D2F810C1 		ldr	ip, [r2, #272]
 575 0262 4CF4802C 		orr	ip, ip, #262144
 576 0266 C2F810C1 		str	ip, [r2, #272]
 577              		.loc 1 728 7 view .LVU169
 578 026a D2F81021 		ldr	r2, [r2, #272]
 579 026e CFE7     		b	.L23
 580              	.L44:
 581              		.loc 1 723 7 view .LVU170
 582 0270 144A     		ldr	r2, .L47+20
 583 0272 D2F8E8C0 		ldr	ip, [r2, #232]
 584 0276 4CF4003C 		orr	ip, ip, #131072
 585 027a C2F8E8C0 		str	ip, [r2, #232]
 586              		.loc 1 723 7 view .LVU171
 587              		.loc 1 723 7 view .LVU172
 588 027e D2F810C1 		ldr	ip, [r2, #272]
 589 0282 4CF4003C 		orr	ip, ip, #131072
 590 0286 C2F810C1 		str	ip, [r2, #272]
 591              		.loc 1 723 7 view .LVU173
 592 028a D2F81021 		ldr	r2, [r2, #272]
 593 028e BCE7     		b	.L22
 594              	.L43:
 595              		.loc 1 718 7 view .LVU174
 596 0290 0C4A     		ldr	r2, .L47+20
 597 0292 D2F8F0C0 		ldr	ip, [r2, #240]
 598 0296 4CF0100C 		orr	ip, ip, #16
 599 029a C2F8F0C0 		str	ip, [r2, #240]
 600              		.loc 1 718 7 view .LVU175
 601              		.loc 1 718 7 view .LVU176
 602 029e D2F818C1 		ldr	ip, [r2, #280]
 603 02a2 4CF0100C 		orr	ip, ip, #16
 604 02a6 C2F818C1 		str	ip, [r2, #280]
 605              		.loc 1 718 7 view .LVU177
 606 02aa D2F81821 		ldr	r2, [r2, #280]
 607 02ae A9E7     		b	.L21
 608              	.L48:
 609              		.align	2
 610              	.L47:
 611 02b0 B5814E1B 		.word	458129845
 612 02b4 00000000 		.word	SD1
 613 02b8 00000000 		.word	SD2
 614 02bc 00000000 		.word	SD3
 615 02c0 00000000 		.word	SD6
 616 02c4 00440258 		.word	1476543488
 617              		.cfi_endproc
 618              	.LFE370:
 619              		.size	sd_lld_start, .-sd_lld_start
 620              		.align	1
 621 02c8 AFF30080 		.p2align 4,,15
 621      AFF30080 
 622              		.global	sd_lld_stop
 623              		.syntax unified
 624              		.thumb
 625              		.thumb_func
 626              		.fpu fpv4-sp-d16
ARM GAS  /tmp/ccoASF4Y.s 			page 12


 627              		.type	sd_lld_stop, %function
 628              	sd_lld_stop:
 629              	.LVL31:
 630              	.LFB371:
 631              		.loc 1 774 37 view -0
 632              		.cfi_startproc
 633              		@ args = 0, pretend = 0, frame = 0
 634              		@ frame_needed = 0, uses_anonymous_args = 0
 635              		@ link register save eliminated.
 636              		.loc 1 776 3 view .LVU179
 637              		.loc 1 776 6 is_stmt 0 view .LVU180
 638 02d0 037A     		ldrb	r3, [r0, #8]	@ zero_extendqisi2
 639 02d2 022B     		cmp	r3, #2
 640 02d4 00D0     		beq	.L56
 641              	.L49:
 642              		.loc 1 835 1 view .LVU181
 643 02d6 7047     		bx	lr
 644              	.L56:
 645              		.loc 1 778 5 is_stmt 1 view .LVU182
 646              		.loc 1 781 8 is_stmt 0 view .LVU183
 647 02d8 2849     		ldr	r1, .L60
 648              	.LBB134:
 649              	.LBB135:
 650              		.loc 1 297 10 view .LVU184
 651 02da 0022     		movs	r2, #0
 652              	.LBE135:
 653              	.LBE134:
 654              		.loc 1 778 5 view .LVU185
 655 02dc 436D     		ldr	r3, [r0, #84]
 656              	.LVL32:
 657              	.LBB138:
 658              	.LBI134:
 659              		.loc 1 295 13 is_stmt 1 view .LVU186
 660              	.LBB136:
 661              		.loc 1 297 3 view .LVU187
 662              	.LBE136:
 663              	.LBE138:
 664              		.loc 1 781 8 is_stmt 0 view .LVU188
 665 02de 8842     		cmp	r0, r1
 666              	.LBB139:
 667              	.LBB137:
 668              		.loc 1 297 10 view .LVU189
 669 02e0 1A60     		str	r2, [r3]
 670              		.loc 1 298 3 is_stmt 1 view .LVU190
 671              		.loc 1 298 10 is_stmt 0 view .LVU191
 672 02e2 5A60     		str	r2, [r3, #4]
 673              		.loc 1 299 3 is_stmt 1 view .LVU192
 674              		.loc 1 299 10 is_stmt 0 view .LVU193
 675 02e4 9A60     		str	r2, [r3, #8]
 676              	.LVL33:
 677              		.loc 1 299 10 view .LVU194
 678              	.LBE137:
 679              	.LBE139:
 680              		.loc 1 781 5 is_stmt 1 view .LVU195
 681              		.loc 1 781 8 is_stmt 0 view .LVU196
 682 02e6 18D0     		beq	.L57
 683              		.loc 1 787 5 is_stmt 1 view .LVU197
ARM GAS  /tmp/ccoASF4Y.s 			page 13


 684              		.loc 1 787 8 is_stmt 0 view .LVU198
 685 02e8 254B     		ldr	r3, .L60+4
 686 02ea 9842     		cmp	r0, r3
 687 02ec 25D0     		beq	.L58
 688              		.loc 1 793 5 is_stmt 1 view .LVU199
 689              		.loc 1 793 8 is_stmt 0 view .LVU200
 690 02ee 254B     		ldr	r3, .L60+8
 691 02f0 9842     		cmp	r0, r3
 692 02f2 32D0     		beq	.L59
 693              		.loc 1 811 5 is_stmt 1 view .LVU201
 694              		.loc 1 811 8 is_stmt 0 view .LVU202
 695 02f4 244B     		ldr	r3, .L60+12
 696 02f6 9842     		cmp	r0, r3
 697 02f8 EDD1     		bne	.L49
 698              		.loc 1 812 7 is_stmt 1 view .LVU203
 699 02fa 244B     		ldr	r3, .L60+16
 700 02fc D3F8F020 		ldr	r2, [r3, #240]
 701 0300 22F02002 		bic	r2, r2, #32
 702 0304 C3F8F020 		str	r2, [r3, #240]
 703              		.loc 1 812 7 view .LVU204
 704 0308 D3F81821 		ldr	r2, [r3, #280]
 705 030c 22F02002 		bic	r2, r2, #32
 706 0310 C3F81821 		str	r2, [r3, #280]
 707              		.loc 1 812 7 view .LVU205
 708 0314 D3F81831 		ldr	r3, [r3, #280]
 709              		.loc 1 812 25 view .LVU206
 710              		.loc 1 813 7 view .LVU207
 711 0318 DDE7     		b	.L49
 712              	.L57:
 713              		.loc 1 782 7 view .LVU208
 714 031a 1C4B     		ldr	r3, .L60+16
 715 031c D3F8F020 		ldr	r2, [r3, #240]
 716 0320 22F01002 		bic	r2, r2, #16
 717 0324 C3F8F020 		str	r2, [r3, #240]
 718              		.loc 1 782 7 view .LVU209
 719 0328 D3F81821 		ldr	r2, [r3, #280]
 720 032c 22F01002 		bic	r2, r2, #16
 721 0330 C3F81821 		str	r2, [r3, #280]
 722              		.loc 1 782 7 view .LVU210
 723 0334 D3F81831 		ldr	r3, [r3, #280]
 724              		.loc 1 782 25 view .LVU211
 725              		.loc 1 783 7 view .LVU212
 726 0338 7047     		bx	lr
 727              	.L58:
 728              		.loc 1 788 7 view .LVU213
 729 033a 144B     		ldr	r3, .L60+16
 730 033c D3F8E820 		ldr	r2, [r3, #232]
 731 0340 22F40032 		bic	r2, r2, #131072
 732 0344 C3F8E820 		str	r2, [r3, #232]
 733              		.loc 1 788 7 view .LVU214
 734 0348 D3F81021 		ldr	r2, [r3, #272]
 735 034c 22F40032 		bic	r2, r2, #131072
 736 0350 C3F81021 		str	r2, [r3, #272]
 737              		.loc 1 788 7 view .LVU215
 738 0354 D3F81031 		ldr	r3, [r3, #272]
 739              		.loc 1 788 25 view .LVU216
 740              		.loc 1 789 7 view .LVU217
ARM GAS  /tmp/ccoASF4Y.s 			page 14


 741 0358 7047     		bx	lr
 742              	.L59:
 743              		.loc 1 794 7 view .LVU218
 744 035a 0C4B     		ldr	r3, .L60+16
 745 035c D3F8E820 		ldr	r2, [r3, #232]
 746 0360 22F48022 		bic	r2, r2, #262144
 747 0364 C3F8E820 		str	r2, [r3, #232]
 748              		.loc 1 794 7 view .LVU219
 749 0368 D3F81021 		ldr	r2, [r3, #272]
 750 036c 22F48022 		bic	r2, r2, #262144
 751 0370 C3F81021 		str	r2, [r3, #272]
 752              		.loc 1 794 7 view .LVU220
 753 0374 D3F81031 		ldr	r3, [r3, #272]
 754              		.loc 1 794 25 view .LVU221
 755              		.loc 1 795 7 view .LVU222
 756 0378 7047     		bx	lr
 757              	.L61:
 758 037a 00BF     		.align	2
 759              	.L60:
 760 037c 00000000 		.word	SD1
 761 0380 00000000 		.word	SD2
 762 0384 00000000 		.word	SD3
 763 0388 00000000 		.word	SD6
 764 038c 00440258 		.word	1476543488
 765              		.cfi_endproc
 766              	.LFE371:
 767              		.size	sd_lld_stop, .-sd_lld_stop
 768              		.align	1
 769              		.p2align 4,,15
 770              		.global	sd_lld_serve_interrupt
 771              		.syntax unified
 772              		.thumb
 773              		.thumb_func
 774              		.fpu fpv4-sp-d16
 775              		.type	sd_lld_serve_interrupt, %function
 776              	sd_lld_serve_interrupt:
 777              	.LVL34:
 778              	.LFB372:
 779              		.loc 1 842 48 view -0
 780              		.cfi_startproc
 781              		@ args = 0, pretend = 0, frame = 0
 782              		@ frame_needed = 0, uses_anonymous_args = 0
 783              		.loc 1 843 3 view .LVU224
 784              		.loc 1 842 48 is_stmt 0 view .LVU225
 785 0390 2DE9F047 		push	{r4, r5, r6, r7, r8, r9, r10, lr}
 786              		.cfi_def_cfa_offset 32
 787              		.cfi_offset 4, -32
 788              		.cfi_offset 5, -28
 789              		.cfi_offset 6, -24
 790              		.cfi_offset 7, -20
 791              		.cfi_offset 8, -16
 792              		.cfi_offset 9, -12
 793              		.cfi_offset 10, -8
 794              		.cfi_offset 14, -4
 795              		.loc 1 843 18 view .LVU226
 796 0394 456D     		ldr	r5, [r0, #84]
 797              	.LVL35:
ARM GAS  /tmp/ccoASF4Y.s 			page 15


 798              		.loc 1 844 3 is_stmt 1 view .LVU227
 799              		.loc 1 842 48 is_stmt 0 view .LVU228
 800 0396 0646     		mov	r6, r0
 801              		.loc 1 844 12 view .LVU229
 802 0398 D5F80090 		ldr	r9, [r5]
 803              	.LVL36:
 804              		.loc 1 845 3 is_stmt 1 view .LVU230
 805              		.loc 1 848 3 view .LVU231
 806              		.loc 1 848 7 is_stmt 0 view .LVU232
 807 039c EC69     		ldr	r4, [r5, #28]
 808              	.LVL37:
 809              		.loc 1 849 3 is_stmt 1 view .LVU233
 810              		.loc 1 852 6 is_stmt 0 view .LVU234
 811 039e 2307     		lsls	r3, r4, #28
 812              		.loc 1 849 10 view .LVU235
 813 03a0 2C62     		str	r4, [r5, #32]
 814              		.loc 1 852 3 is_stmt 1 view .LVU236
 815              		.loc 1 852 6 is_stmt 0 view .LVU237
 816 03a2 53D1     		bne	.L112
 817              	.LVL38:
 818              	.L63:
 819              		.loc 1 856 3 is_stmt 1 view .LVU238
 820              		.loc 1 856 6 is_stmt 0 view .LVU239
 821 03a4 E305     		lsls	r3, r4, #23
 822 03a6 45D4     		bmi	.L113
 823              	.L68:
 824              		.loc 1 867 9 view .LVU240
 825 03a8 A706     		lsls	r7, r4, #26
 826 03aa 10D5     		bpl	.L69
 827              	.LBB217:
 828              	.LBB218:
 829              	.LBB219:
 830              	.LBB220:
 831              	.LBB221:
 832              	.LBB222:
 833              		.file 2 "../../../external/ChibiOS/os/common/ext/ARM/CMSIS/Core/Include/cmsis_gcc.h"
 834              		.loc 2 493 3 view .LVU241
 835 03ac 4FF02008 		mov	r8, #32
 836              	.LBE222:
 837              	.LBE221:
 838              	.LBE220:
 839              	.LBE219:
 840              	.LBE218:
 841              	.LBE217:
 842              	.LBB234:
 843              	.LBB235:
 844              	.LBB236:
 845              	.LBB237:
 846              	.LBB238:
 847              	.LBB239:
 848 03b0 0027     		movs	r7, #0
 849              	.L70:
 850              		.loc 2 493 3 view .LVU242
 851              	.LBE239:
 852              	.LBE238:
 853              	.LBE237:
 854              	.LBE236:
ARM GAS  /tmp/ccoASF4Y.s 			page 16


 855              	.LBE235:
 856              	.LBE234:
 857              		.loc 1 868 5 is_stmt 1 view .LVU243
 858              	.LBB251:
 859              	.LBI217:
 860              		.file 3 "../../../external/ChibiOS/os/hal/osal/rt-nil/osal.h"
 861              		.loc 3 531 20 view .LVU244
 862              	.LBE251:
 863              		.loc 3 533 3 view .LVU245
 864              	.LBB252:
 865              	.LBB230:
 866              	.LBI218:
 867              		.file 4 "../../../external/ChibiOS/os/rt/include/chsys.h"
 868              		.loc 4 393 20 view .LVU246
 869              	.LBE230:
 870              	.LBE252:
 871              		.loc 4 395 3 view .LVU247
 872              	.LBB253:
 873              	.LBB231:
 874              	.LBB227:
 875              	.LBI219:
 876              		.file 5 "../../../external/ChibiOS/os/common/ports/ARMCMx/chcore_v7m.h"
 877              		.loc 5 708 27 view .LVU248
 878              	.LBE227:
 879              	.LBE231:
 880              	.LBE253:
 881              		.loc 5 710 3 view .LVU249
 882              	.LBB254:
 883              	.LBB232:
 884              	.LBB228:
 885              	.LBB225:
 886              	.LBI220:
 887              		.loc 5 669 27 view .LVU250
 888              	.LBE225:
 889              	.LBE228:
 890              	.LBE232:
 891              	.LBE254:
 892              		.loc 5 677 3 view .LVU251
 893              	.LVL39:
 894              	.LBB255:
 895              	.LBB233:
 896              	.LBB229:
 897              	.LBB226:
 898              	.LBB224:
 899              	.LBI221:
 900              		.loc 2 491 27 view .LVU252
 901              	.LBB223:
 902              		.loc 2 493 3 view .LVU253
 903              		.syntax unified
 904              	@ 493 "../../../external/ChibiOS/os/common/ext/ARM/CMSIS/Core/Include/cmsis_gcc.h" 1
 905 03b2 88F31188 		MSR basepri, r8
 906              	@ 0 "" 2
 907              	.LVL40:
 908              		.loc 2 493 3 is_stmt 0 view .LVU254
 909              		.thumb
 910              		.syntax unified
 911              	.LBE223:
ARM GAS  /tmp/ccoASF4Y.s 			page 17


 912              	.LBE224:
 913              	.LBE226:
 914              	.LBE229:
 915              	.LBE233:
 916              	.LBE255:
 917              		.loc 4 396 34 is_stmt 1 view .LVU255
 918              		.loc 4 397 29 view .LVU256
 919              		.loc 1 869 5 view .LVU257
 920              		.loc 1 869 36 is_stmt 0 view .LVU258
 921 03b6 6B6A     		ldr	r3, [r5, #36]
 922              		.loc 1 869 5 view .LVU259
 923 03b8 3046     		mov	r0, r6
 924 03ba 96F85C10 		ldrb	r1, [r6, #92]	@ zero_extendqisi2
 925 03be 1940     		ands	r1, r1, r3
 926 03c0 FFF7FEFF 		bl	sdIncomingDataI
 927              	.LVL41:
 928              		.loc 1 870 5 is_stmt 1 view .LVU260
 929              	.LBB256:
 930              	.LBI234:
 931              		.loc 3 542 20 view .LVU261
 932              	.LBE256:
 933              		.loc 3 544 3 view .LVU262
 934              	.LBB257:
 935              	.LBB247:
 936              	.LBI235:
 937              		.loc 4 413 20 view .LVU263
 938              	.LBE247:
 939              	.LBE257:
 940              		.loc 4 415 31 view .LVU264
 941              		.loc 4 416 33 view .LVU265
 942              		.loc 4 417 3 view .LVU266
 943              	.LBB258:
 944              	.LBB248:
 945              	.LBB244:
 946              	.LBI236:
 947              		.loc 5 719 27 view .LVU267
 948              	.LBE244:
 949              	.LBE248:
 950              	.LBE258:
 951              		.loc 5 721 3 view .LVU268
 952              	.LBB259:
 953              	.LBB249:
 954              	.LBB245:
 955              	.LBB242:
 956              	.LBI237:
 957              		.loc 5 693 27 view .LVU269
 958              	.LBE242:
 959              	.LBE245:
 960              	.LBE249:
 961              	.LBE259:
 962              		.loc 5 696 3 view .LVU270
 963              	.LBB260:
 964              	.LBB250:
 965              	.LBB246:
 966              	.LBB243:
 967              	.LBB241:
 968              	.LBI238:
ARM GAS  /tmp/ccoASF4Y.s 			page 18


 969              		.loc 2 491 27 view .LVU271
 970              	.LBB240:
 971              		.loc 2 493 3 view .LVU272
 972              		.syntax unified
 973              	@ 493 "../../../external/ChibiOS/os/common/ext/ARM/CMSIS/Core/Include/cmsis_gcc.h" 1
 974 03c4 87F31188 		MSR basepri, r7
 975              	@ 0 "" 2
 976              	.LVL42:
 977              		.loc 2 493 3 is_stmt 0 view .LVU273
 978              		.thumb
 979              		.syntax unified
 980              	.LBE240:
 981              	.LBE241:
 982              	.LBE243:
 983              	.LBE246:
 984              	.LBE250:
 985              	.LBE260:
 986              		.loc 1 872 5 is_stmt 1 view .LVU274
 987              		.loc 1 872 9 is_stmt 0 view .LVU275
 988 03c8 EC69     		ldr	r4, [r5, #28]
 989              		.loc 1 867 9 view .LVU276
 990 03ca A006     		lsls	r0, r4, #26
 991 03cc F1D4     		bmi	.L70
 992              	.L69:
 993              		.loc 1 881 3 is_stmt 1 view .LVU277
 994              		.loc 1 881 6 is_stmt 0 view .LVU278
 995 03ce 19F0800F 		tst	r9, #128
 996 03d2 1ED0     		beq	.L71
 997              		.loc 1 882 11 view .LVU279
 998 03d4 2106     		lsls	r1, r4, #24
 999 03d6 1CD5     		bpl	.L71
 1000 03d8 06F13008 		add	r8, r6, #48
 1001              	.LBB261:
 1002              	.LBB262:
 1003              	.LBB263:
 1004              	.LBB264:
 1005              	.LBB265:
 1006              	.LBB266:
 1007              	.LBB267:
 1008              		.loc 2 493 3 view .LVU280
 1009 03dc 2027     		movs	r7, #32
 1010              	.LBE267:
 1011              	.LBE266:
 1012              	.LBE265:
 1013              	.LBE264:
 1014              	.LBE263:
 1015              	.LBE262:
 1016              	.LBB279:
 1017              	.LBB280:
 1018              	.LBB281:
 1019              	.LBB282:
 1020              	.LBB283:
 1021              	.LBB284:
 1022 03de 4FF0000A 		mov	r10, #0
 1023 03e2 05E0     		b	.L73
 1024              	.LVL43:
 1025              	.L72:
ARM GAS  /tmp/ccoASF4Y.s 			page 19


 1026              		.loc 2 493 3 view .LVU281
 1027              	.LBE284:
 1028              	.LBE283:
 1029              	.LBE282:
 1030              	.LBE281:
 1031              	.LBE280:
 1032              	.LBE279:
 1033              		.loc 1 893 14 view .LVU282
 1034 03e4 A862     		str	r0, [r5, #40]
 1035              		.loc 1 894 7 is_stmt 1 view .LVU283
 1036              	.LBB296:
 1037              	.LBI279:
 1038              		.loc 3 542 20 view .LVU284
 1039              	.LBE296:
 1040              	.LBE261:
 1041              		.loc 3 544 3 view .LVU285
 1042              	.LBB330:
 1043              	.LBB297:
 1044              	.LBB292:
 1045              	.LBI280:
 1046              		.loc 4 413 20 view .LVU286
 1047              	.LBE292:
 1048              	.LBE297:
 1049              	.LBE330:
 1050              		.loc 4 415 31 view .LVU287
 1051              		.loc 4 416 33 view .LVU288
 1052              		.loc 4 417 3 view .LVU289
 1053              	.LBB331:
 1054              	.LBB298:
 1055              	.LBB293:
 1056              	.LBB289:
 1057              	.LBI281:
 1058              		.loc 5 719 27 view .LVU290
 1059              	.LBE289:
 1060              	.LBE293:
 1061              	.LBE298:
 1062              	.LBE331:
 1063              		.loc 5 721 3 view .LVU291
 1064              	.LBB332:
 1065              	.LBB299:
 1066              	.LBB294:
 1067              	.LBB290:
 1068              	.LBB287:
 1069              	.LBI282:
 1070              		.loc 5 693 27 view .LVU292
 1071              	.LBE287:
 1072              	.LBE290:
 1073              	.LBE294:
 1074              	.LBE299:
 1075              	.LBE332:
 1076              		.loc 5 696 3 view .LVU293
 1077              	.LVL44:
 1078              	.LBB333:
 1079              	.LBB300:
 1080              	.LBB295:
 1081              	.LBB291:
 1082              	.LBB288:
ARM GAS  /tmp/ccoASF4Y.s 			page 20


 1083              	.LBB286:
 1084              	.LBI283:
 1085              		.loc 2 491 27 view .LVU294
 1086              	.LBB285:
 1087              		.loc 2 493 3 view .LVU295
 1088              		.syntax unified
 1089              	@ 493 "../../../external/ChibiOS/os/common/ext/ARM/CMSIS/Core/Include/cmsis_gcc.h" 1
 1090 03e6 8AF31188 		MSR basepri, r10
 1091              	@ 0 "" 2
 1092              	.LVL45:
 1093              		.loc 2 493 3 is_stmt 0 view .LVU296
 1094              		.thumb
 1095              		.syntax unified
 1096              	.LBE285:
 1097              	.LBE286:
 1098              	.LBE288:
 1099              	.LBE291:
 1100              	.LBE295:
 1101              	.LBE300:
 1102              		.loc 1 896 7 is_stmt 1 view .LVU297
 1103              		.loc 1 896 11 is_stmt 0 view .LVU298
 1104 03ea EC69     		ldr	r4, [r5, #28]
 1105              		.loc 1 896 11 view .LVU299
 1106              	.LBE333:
 1107              		.loc 1 882 11 view .LVU300
 1108 03ec 2206     		lsls	r2, r4, #24
 1109 03ee 10D5     		bpl	.L71
 1110              	.LVL46:
 1111              	.L73:
 1112              	.LBB334:
 1113              		.loc 1 883 7 is_stmt 1 view .LVU301
 1114              		.loc 1 885 7 view .LVU302
 1115              	.LBB301:
 1116              	.LBI262:
 1117              		.loc 3 531 20 view .LVU303
 1118              	.LBE301:
 1119              	.LBE334:
 1120              		.loc 3 533 3 view .LVU304
 1121              	.LBB335:
 1122              	.LBB302:
 1123              	.LBB275:
 1124              	.LBI263:
 1125              		.loc 4 393 20 view .LVU305
 1126              	.LBE275:
 1127              	.LBE302:
 1128              	.LBE335:
 1129              		.loc 4 395 3 view .LVU306
 1130              	.LBB336:
 1131              	.LBB303:
 1132              	.LBB276:
 1133              	.LBB272:
 1134              	.LBI264:
 1135              		.loc 5 708 27 view .LVU307
 1136              	.LBE272:
 1137              	.LBE276:
 1138              	.LBE303:
 1139              	.LBE336:
ARM GAS  /tmp/ccoASF4Y.s 			page 21


 1140              		.loc 5 710 3 view .LVU308
 1141              	.LBB337:
 1142              	.LBB304:
 1143              	.LBB277:
 1144              	.LBB273:
 1145              	.LBB270:
 1146              	.LBI265:
 1147              		.loc 5 669 27 view .LVU309
 1148              	.LBE270:
 1149              	.LBE273:
 1150              	.LBE277:
 1151              	.LBE304:
 1152              	.LBE337:
 1153              		.loc 5 677 3 view .LVU310
 1154              	.LBB338:
 1155              	.LBB305:
 1156              	.LBB278:
 1157              	.LBB274:
 1158              	.LBB271:
 1159              	.LBB269:
 1160              	.LBI266:
 1161              		.loc 2 491 27 view .LVU311
 1162              	.LBB268:
 1163              		.loc 2 493 3 view .LVU312
 1164              		.syntax unified
 1165              	@ 493 "../../../external/ChibiOS/os/common/ext/ARM/CMSIS/Core/Include/cmsis_gcc.h" 1
 1166 03f0 87F31188 		MSR basepri, r7
 1167              	@ 0 "" 2
 1168              	.LVL47:
 1169              		.loc 2 493 3 is_stmt 0 view .LVU313
 1170              		.thumb
 1171              		.syntax unified
 1172              	.LBE268:
 1173              	.LBE269:
 1174              	.LBE271:
 1175              	.LBE274:
 1176              	.LBE278:
 1177              	.LBE305:
 1178              	.LBE338:
 1179              		.loc 4 396 34 is_stmt 1 view .LVU314
 1180              		.loc 4 397 29 view .LVU315
 1181              	.LBB339:
 1182              		.loc 1 886 7 view .LVU316
 1183              		.loc 1 886 11 is_stmt 0 view .LVU317
 1184 03f4 4046     		mov	r0, r8
 1185 03f6 FFF7FEFF 		bl	oqGetI
 1186              	.LVL48:
 1187              		.loc 1 887 7 is_stmt 1 view .LVU318
 1188              		.loc 1 893 7 view .LVU319
 1189              		.loc 1 887 10 is_stmt 0 view .LVU320
 1190 03fa 0028     		cmp	r0, #0
 1191              		.loc 1 887 10 view .LVU321
 1192 03fc F2DA     		bge	.L72
 1193              		.loc 1 888 9 is_stmt 1 view .LVU322
 1194              	.LVL49:
 1195              	.LBB306:
 1196              	.LBI306:
ARM GAS  /tmp/ccoASF4Y.s 			page 22


 1197              		.loc 3 892 20 view .LVU323
 1198              	.LBB307:
 1199              		.loc 3 895 3 view .LVU324
 1200 03fe 0821     		movs	r1, #8
 1201 0400 301D     		adds	r0, r6, #4
 1202              	.LVL50:
 1203              		.loc 3 895 3 is_stmt 0 view .LVU325
 1204 0402 FFF7FEFF 		bl	chEvtBroadcastFlagsI
 1205              	.LVL51:
 1206              		.loc 3 895 3 view .LVU326
 1207              	.LBE307:
 1208              	.LBE306:
 1209              		.loc 1 888 44 is_stmt 1 view .LVU327
 1210              		.loc 1 889 9 view .LVU328
 1211              		.loc 1 889 22 is_stmt 0 view .LVU329
 1212 0406 29F08003 		bic	r3, r9, #128
 1213              	.LBB308:
 1214              	.LBB309:
 1215              	.LBB310:
 1216              	.LBB311:
 1217              	.LBB312:
 1218              	.LBB313:
 1219              		.loc 2 493 3 view .LVU330
 1220 040a 0022     		movs	r2, #0
 1221              	.LBE313:
 1222              	.LBE312:
 1223              	.LBE311:
 1224              	.LBE310:
 1225              	.LBE309:
 1226              	.LBE308:
 1227              		.loc 1 889 16 view .LVU331
 1228 040c 2B60     		str	r3, [r5]
 1229              		.loc 1 890 9 is_stmt 1 view .LVU332
 1230              	.LBB325:
 1231              	.LBI308:
 1232              		.loc 3 542 20 view .LVU333
 1233              	.LBE325:
 1234              	.LBE339:
 1235              		.loc 3 544 3 view .LVU334
 1236              	.LBB340:
 1237              	.LBB326:
 1238              	.LBB321:
 1239              	.LBI309:
 1240              		.loc 4 413 20 view .LVU335
 1241              	.LBE321:
 1242              	.LBE326:
 1243              	.LBE340:
 1244              		.loc 4 415 31 view .LVU336
 1245              		.loc 4 416 33 view .LVU337
 1246              		.loc 4 417 3 view .LVU338
 1247              	.LBB341:
 1248              	.LBB327:
 1249              	.LBB322:
 1250              	.LBB318:
 1251              	.LBI310:
 1252              		.loc 5 719 27 view .LVU339
 1253              	.LBE318:
ARM GAS  /tmp/ccoASF4Y.s 			page 23


 1254              	.LBE322:
 1255              	.LBE327:
 1256              	.LBE341:
 1257              		.loc 5 721 3 view .LVU340
 1258              	.LBB342:
 1259              	.LBB328:
 1260              	.LBB323:
 1261              	.LBB319:
 1262              	.LBB316:
 1263              	.LBI311:
 1264              		.loc 5 693 27 view .LVU341
 1265              	.LBE316:
 1266              	.LBE319:
 1267              	.LBE323:
 1268              	.LBE328:
 1269              	.LBE342:
 1270              		.loc 5 696 3 view .LVU342
 1271              	.LVL52:
 1272              	.LBB343:
 1273              	.LBB329:
 1274              	.LBB324:
 1275              	.LBB320:
 1276              	.LBB317:
 1277              	.LBB315:
 1278              	.LBI312:
 1279              		.loc 2 491 27 view .LVU343
 1280              	.LBB314:
 1281              		.loc 2 493 3 view .LVU344
 1282              		.syntax unified
 1283              	@ 493 "../../../external/ChibiOS/os/common/ext/ARM/CMSIS/Core/Include/cmsis_gcc.h" 1
 1284 040e 82F31188 		MSR basepri, r2
 1285              	@ 0 "" 2
 1286              	.LVL53:
 1287              		.thumb
 1288              		.syntax unified
 1289              	.L71:
 1290              		.loc 2 493 3 is_stmt 0 view .LVU345
 1291              	.LBE314:
 1292              	.LBE315:
 1293              	.LBE317:
 1294              	.LBE320:
 1295              	.LBE324:
 1296              	.LBE329:
 1297              	.LBE343:
 1298              		.loc 1 901 3 is_stmt 1 view .LVU346
 1299              		.loc 1 901 6 is_stmt 0 view .LVU347
 1300 0412 19F0400F 		tst	r9, #64
 1301 0416 0BD0     		beq	.L62
 1302              		.loc 1 901 30 discriminator 1 view .LVU348
 1303 0418 6306     		lsls	r3, r4, #25
 1304 041a 09D5     		bpl	.L62
 1305              		.loc 1 902 5 is_stmt 1 view .LVU349
 1306              	.LBB344:
 1307              	.LBI344:
 1308              		.loc 3 531 20 view .LVU350
 1309              	.LBE344:
 1310              		.loc 3 533 3 view .LVU351
ARM GAS  /tmp/ccoASF4Y.s 			page 24


 1311              	.LBB356:
 1312              	.LBB345:
 1313              	.LBI345:
 1314              		.loc 4 393 20 view .LVU352
 1315              	.LBE345:
 1316              	.LBE356:
 1317              		.loc 4 395 3 view .LVU353
 1318              	.LBB357:
 1319              	.LBB353:
 1320              	.LBB346:
 1321              	.LBI346:
 1322              		.loc 5 708 27 view .LVU354
 1323              	.LBE346:
 1324              	.LBE353:
 1325              	.LBE357:
 1326              		.loc 5 710 3 view .LVU355
 1327              	.LBB358:
 1328              	.LBB354:
 1329              	.LBB351:
 1330              	.LBB347:
 1331              	.LBI347:
 1332              		.loc 5 669 27 view .LVU356
 1333              	.LBE347:
 1334              	.LBE351:
 1335              	.LBE354:
 1336              	.LBE358:
 1337              		.loc 5 677 3 view .LVU357
 1338              	.LVL54:
 1339              	.LBB359:
 1340              	.LBB355:
 1341              	.LBB352:
 1342              	.LBB350:
 1343              	.LBB348:
 1344              	.LBI348:
 1345              		.loc 2 491 27 view .LVU358
 1346              	.LBB349:
 1347              		.loc 2 493 3 view .LVU359
 1348 041c 2023     		movs	r3, #32
 1349              		.syntax unified
 1350              	@ 493 "../../../external/ChibiOS/os/common/ext/ARM/CMSIS/Core/Include/cmsis_gcc.h" 1
 1351 041e 83F31188 		MSR basepri, r3
 1352              	@ 0 "" 2
 1353              	.LVL55:
 1354              		.loc 2 493 3 is_stmt 0 view .LVU360
 1355              		.thumb
 1356              		.syntax unified
 1357              	.LBE349:
 1358              	.LBE348:
 1359              	.LBE350:
 1360              	.LBE352:
 1361              	.LBE355:
 1362              	.LBE359:
 1363              		.loc 4 396 34 is_stmt 1 view .LVU361
 1364              		.loc 4 397 29 view .LVU362
 1365              		.loc 1 903 5 view .LVU363
 1366              		.loc 1 903 9 is_stmt 0 view .LVU364
 1367 0422 D6E91123 		ldrd	r2, r3, [r6, #68]
ARM GAS  /tmp/ccoASF4Y.s 			page 25


 1368 0426 9A42     		cmp	r2, r3
 1369 0428 2BD0     		beq	.L114
 1370              	.L75:
 1371              		.loc 1 907 5 is_stmt 1 view .LVU365
 1372              	.LBB360:
 1373              	.LBI360:
 1374              		.loc 3 542 20 view .LVU366
 1375              	.LBE360:
 1376              		.loc 3 544 3 view .LVU367
 1377              	.LBB372:
 1378              	.LBB361:
 1379              	.LBI361:
 1380              		.loc 4 413 20 view .LVU368
 1381              	.LBE361:
 1382              	.LBE372:
 1383              		.loc 4 415 31 view .LVU369
 1384              		.loc 4 416 33 view .LVU370
 1385              		.loc 4 417 3 view .LVU371
 1386              	.LBB373:
 1387              	.LBB369:
 1388              	.LBB362:
 1389              	.LBI362:
 1390              		.loc 5 719 27 view .LVU372
 1391              	.LBE362:
 1392              	.LBE369:
 1393              	.LBE373:
 1394              		.loc 5 721 3 view .LVU373
 1395              	.LBB374:
 1396              	.LBB370:
 1397              	.LBB367:
 1398              	.LBB363:
 1399              	.LBI363:
 1400              		.loc 5 693 27 view .LVU374
 1401              	.LBE363:
 1402              	.LBE367:
 1403              	.LBE370:
 1404              	.LBE374:
 1405              		.loc 5 696 3 view .LVU375
 1406              	.LVL56:
 1407              	.LBB375:
 1408              	.LBB371:
 1409              	.LBB368:
 1410              	.LBB366:
 1411              	.LBB364:
 1412              	.LBI364:
 1413              		.loc 2 491 27 view .LVU376
 1414              	.LBB365:
 1415              		.loc 2 493 3 view .LVU377
 1416 042a 0023     		movs	r3, #0
 1417              		.syntax unified
 1418              	@ 493 "../../../external/ChibiOS/os/common/ext/ARM/CMSIS/Core/Include/cmsis_gcc.h" 1
 1419 042c 83F31188 		MSR basepri, r3
 1420              	@ 0 "" 2
 1421              	.LVL57:
 1422              		.thumb
 1423              		.syntax unified
 1424              	.L62:
ARM GAS  /tmp/ccoASF4Y.s 			page 26


 1425              		.loc 2 493 3 is_stmt 0 view .LVU378
 1426              	.LBE365:
 1427              	.LBE364:
 1428              	.LBE366:
 1429              	.LBE368:
 1430              	.LBE371:
 1431              	.LBE375:
 1432              		.loc 1 909 1 view .LVU379
 1433 0430 BDE8F087 		pop	{r4, r5, r6, r7, r8, r9, r10, pc}
 1434              	.LVL58:
 1435              	.L113:
 1436              		.loc 1 857 5 is_stmt 1 view .LVU380
 1437              	.LBB376:
 1438              	.LBI376:
 1439              		.loc 3 531 20 view .LVU381
 1440              	.LBE376:
 1441              		.loc 3 533 3 view .LVU382
 1442              	.LBB388:
 1443              	.LBB377:
 1444              	.LBI377:
 1445              		.loc 4 393 20 view .LVU383
 1446              	.LBE377:
 1447              	.LBE388:
 1448              		.loc 4 395 3 view .LVU384
 1449              	.LBB389:
 1450              	.LBB385:
 1451              	.LBB378:
 1452              	.LBI378:
 1453              		.loc 5 708 27 view .LVU385
 1454              	.LBE378:
 1455              	.LBE385:
 1456              	.LBE389:
 1457              		.loc 5 710 3 view .LVU386
 1458              	.LBB390:
 1459              	.LBB386:
 1460              	.LBB383:
 1461              	.LBB379:
 1462              	.LBI379:
 1463              		.loc 5 669 27 view .LVU387
 1464              	.LBE379:
 1465              	.LBE383:
 1466              	.LBE386:
 1467              	.LBE390:
 1468              		.loc 5 677 3 view .LVU388
 1469              	.LBB391:
 1470              	.LBB387:
 1471              	.LBB384:
 1472              	.LBB382:
 1473              	.LBB380:
 1474              	.LBI380:
 1475              		.loc 2 491 27 view .LVU389
 1476              	.LBB381:
 1477              		.loc 2 493 3 view .LVU390
 1478 0434 2023     		movs	r3, #32
 1479              		.syntax unified
 1480              	@ 493 "../../../external/ChibiOS/os/common/ext/ARM/CMSIS/Core/Include/cmsis_gcc.h" 1
 1481 0436 83F31188 		MSR basepri, r3
ARM GAS  /tmp/ccoASF4Y.s 			page 27


 1482              	@ 0 "" 2
 1483              	.LVL59:
 1484              		.loc 2 493 3 is_stmt 0 view .LVU391
 1485              		.thumb
 1486              		.syntax unified
 1487              	.LBE381:
 1488              	.LBE380:
 1489              	.LBE382:
 1490              	.LBE384:
 1491              	.LBE387:
 1492              	.LBE391:
 1493              		.loc 4 396 34 is_stmt 1 view .LVU392
 1494              		.loc 4 397 29 view .LVU393
 1495              		.loc 1 858 5 view .LVU394
 1496              	.LBB392:
 1497              	.LBI392:
 1498              		.loc 3 892 20 view .LVU395
 1499              	.LBB393:
 1500              		.loc 3 895 3 view .LVU396
 1501 043a 4FF40071 		mov	r1, #512
 1502 043e 301D     		adds	r0, r6, #4
 1503              	.LVL60:
 1504              		.loc 3 895 3 is_stmt 0 view .LVU397
 1505 0440 FFF7FEFF 		bl	chEvtBroadcastFlagsI
 1506              	.LVL61:
 1507              		.loc 3 895 3 view .LVU398
 1508              	.LBE393:
 1509              	.LBE392:
 1510              		.loc 1 858 41 is_stmt 1 view .LVU399
 1511              		.loc 1 859 5 view .LVU400
 1512              	.LBB394:
 1513              	.LBI394:
 1514              		.loc 3 542 20 view .LVU401
 1515              	.LBE394:
 1516              		.loc 3 544 3 view .LVU402
 1517              	.LBB406:
 1518              	.LBB395:
 1519              	.LBI395:
 1520              		.loc 4 413 20 view .LVU403
 1521              	.LBE395:
 1522              	.LBE406:
 1523              		.loc 4 415 31 view .LVU404
 1524              		.loc 4 416 33 view .LVU405
 1525              		.loc 4 417 3 view .LVU406
 1526              	.LBB407:
 1527              	.LBB403:
 1528              	.LBB396:
 1529              	.LBI396:
 1530              		.loc 5 719 27 view .LVU407
 1531              	.LBE396:
 1532              	.LBE403:
 1533              	.LBE407:
 1534              		.loc 5 721 3 view .LVU408
 1535              	.LBB408:
 1536              	.LBB404:
 1537              	.LBB401:
 1538              	.LBB397:
ARM GAS  /tmp/ccoASF4Y.s 			page 28


 1539              	.LBI397:
 1540              		.loc 5 693 27 view .LVU409
 1541              	.LBE397:
 1542              	.LBE401:
 1543              	.LBE404:
 1544              	.LBE408:
 1545              		.loc 5 696 3 view .LVU410
 1546              	.LBB409:
 1547              	.LBB405:
 1548              	.LBB402:
 1549              	.LBB400:
 1550              	.LBB398:
 1551              	.LBI398:
 1552              		.loc 2 491 27 view .LVU411
 1553              	.LBB399:
 1554              		.loc 2 493 3 view .LVU412
 1555 0444 0023     		movs	r3, #0
 1556              		.syntax unified
 1557              	@ 493 "../../../external/ChibiOS/os/common/ext/ARM/CMSIS/Core/Include/cmsis_gcc.h" 1
 1558 0446 83F31188 		MSR basepri, r3
 1559              	@ 0 "" 2
 1560              	.LVL62:
 1561              		.loc 2 493 3 is_stmt 0 view .LVU413
 1562              		.thumb
 1563              		.syntax unified
 1564 044a ADE7     		b	.L68
 1565              	.LVL63:
 1566              	.L112:
 1567              		.loc 2 493 3 view .LVU414
 1568              	.LBE399:
 1569              	.LBE398:
 1570              	.LBE400:
 1571              	.LBE402:
 1572              	.LBE405:
 1573              	.LBE409:
 1574              		.loc 1 853 5 is_stmt 1 view .LVU415
 1575              	.LBB410:
 1576              	.LBI410:
 1577              		.loc 1 308 13 view .LVU416
 1578              	.LBB411:
 1579              		.loc 1 309 3 view .LVU417
 1580              		.loc 1 311 3 view .LVU418
 1581              		.loc 1 312 9 is_stmt 0 view .LVU419
 1582 044c 14F00801 		ands	r1, r4, #8
 1583              	.LBB412:
 1584              	.LBB413:
 1585              	.LBB414:
 1586              	.LBB415:
 1587              	.LBB416:
 1588              	.LBB417:
 1589              		.loc 2 493 3 view .LVU420
 1590 0450 4FF02003 		mov	r3, #32
 1591              	.LBE417:
 1592              	.LBE416:
 1593              	.LBE415:
 1594              	.LBE414:
 1595              	.LBE413:
ARM GAS  /tmp/ccoASF4Y.s 			page 29


 1596              	.LBE412:
 1597              		.loc 1 312 9 view .LVU421
 1598 0454 18BF     		it	ne
 1599 0456 8021     		movne	r1, #128
 1600              	.LVL64:
 1601              		.loc 1 313 3 is_stmt 1 view .LVU422
 1602              		.loc 1 313 6 is_stmt 0 view .LVU423
 1603 0458 E707     		lsls	r7, r4, #31
 1604              		.loc 1 314 5 is_stmt 1 view .LVU424
 1605              		.loc 1 314 9 is_stmt 0 view .LVU425
 1606 045a 48BF     		it	mi
 1607 045c 41F02001 		orrmi	r1, r1, #32
 1608              	.LVL65:
 1609              		.loc 1 315 3 is_stmt 1 view .LVU426
 1610              		.loc 1 315 6 is_stmt 0 view .LVU427
 1611 0460 A007     		lsls	r0, r4, #30
 1612              	.LVL66:
 1613              		.loc 1 316 5 is_stmt 1 view .LVU428
 1614              		.loc 1 316 9 is_stmt 0 view .LVU429
 1615 0462 48BF     		it	mi
 1616 0464 41F04001 		orrmi	r1, r1, #64
 1617              	.LVL67:
 1618              		.loc 1 317 3 is_stmt 1 view .LVU430
 1619              		.loc 1 317 6 is_stmt 0 view .LVU431
 1620 0468 6207     		lsls	r2, r4, #29
 1621              		.loc 1 318 5 is_stmt 1 view .LVU432
 1622              		.loc 1 318 9 is_stmt 0 view .LVU433
 1623 046a 48BF     		it	mi
 1624 046c 41F48071 		orrmi	r1, r1, #256
 1625              	.LVL68:
 1626              		.loc 1 319 3 is_stmt 1 view .LVU434
 1627              	.LBB429:
 1628              	.LBI412:
 1629              		.loc 3 531 20 view .LVU435
 1630              	.LBE429:
 1631              	.LBE411:
 1632              	.LBE410:
 1633              		.loc 3 533 3 view .LVU436
 1634              	.LBB461:
 1635              	.LBB452:
 1636              	.LBB430:
 1637              	.LBB425:
 1638              	.LBI413:
 1639              		.loc 4 393 20 view .LVU437
 1640              	.LBE425:
 1641              	.LBE430:
 1642              	.LBE452:
 1643              	.LBE461:
 1644              		.loc 4 395 3 view .LVU438
 1645              	.LBB462:
 1646              	.LBB453:
 1647              	.LBB431:
 1648              	.LBB426:
 1649              	.LBB422:
 1650              	.LBI414:
 1651              		.loc 5 708 27 view .LVU439
 1652              	.LBE422:
ARM GAS  /tmp/ccoASF4Y.s 			page 30


 1653              	.LBE426:
 1654              	.LBE431:
 1655              	.LBE453:
 1656              	.LBE462:
 1657              		.loc 5 710 3 view .LVU440
 1658              	.LBB463:
 1659              	.LBB454:
 1660              	.LBB432:
 1661              	.LBB427:
 1662              	.LBB423:
 1663              	.LBB420:
 1664              	.LBI415:
 1665              		.loc 5 669 27 view .LVU441
 1666              	.LBE420:
 1667              	.LBE423:
 1668              	.LBE427:
 1669              	.LBE432:
 1670              	.LBE454:
 1671              	.LBE463:
 1672              		.loc 5 677 3 view .LVU442
 1673              	.LBB464:
 1674              	.LBB455:
 1675              	.LBB433:
 1676              	.LBB428:
 1677              	.LBB424:
 1678              	.LBB421:
 1679              	.LBB419:
 1680              	.LBI416:
 1681              		.loc 2 491 27 view .LVU443
 1682              	.LBB418:
 1683              		.loc 2 493 3 view .LVU444
 1684              		.syntax unified
 1685              	@ 493 "../../../external/ChibiOS/os/common/ext/ARM/CMSIS/Core/Include/cmsis_gcc.h" 1
 1686 0470 83F31188 		MSR basepri, r3
 1687              	@ 0 "" 2
 1688              	.LVL69:
 1689              		.loc 2 493 3 is_stmt 0 view .LVU445
 1690              		.thumb
 1691              		.syntax unified
 1692              	.LBE418:
 1693              	.LBE419:
 1694              	.LBE421:
 1695              	.LBE424:
 1696              	.LBE428:
 1697              	.LBE433:
 1698              	.LBE455:
 1699              	.LBE464:
 1700              		.loc 4 396 34 is_stmt 1 view .LVU446
 1701              		.loc 4 397 29 view .LVU447
 1702              	.LBB465:
 1703              	.LBB456:
 1704              		.loc 1 320 3 view .LVU448
 1705              	.LBB434:
 1706              	.LBI434:
 1707              		.loc 3 892 20 view .LVU449
 1708              	.LBB435:
 1709              		.loc 3 895 3 view .LVU450
ARM GAS  /tmp/ccoASF4Y.s 			page 31


 1710 0474 301D     		adds	r0, r6, #4
 1711              	.LVL70:
 1712              		.loc 3 895 3 is_stmt 0 view .LVU451
 1713 0476 FFF7FEFF 		bl	chEvtBroadcastFlagsI
 1714              	.LVL71:
 1715              		.loc 3 895 3 view .LVU452
 1716              	.LBE435:
 1717              	.LBE434:
 1718              		.loc 1 320 25 is_stmt 1 view .LVU453
 1719              		.loc 1 321 3 view .LVU454
 1720              	.LBB436:
 1721              	.LBI436:
 1722              		.loc 3 542 20 view .LVU455
 1723              	.LBE436:
 1724              	.LBE456:
 1725              	.LBE465:
 1726              		.loc 3 544 3 view .LVU456
 1727              	.LBB466:
 1728              	.LBB457:
 1729              	.LBB448:
 1730              	.LBB437:
 1731              	.LBI437:
 1732              		.loc 4 413 20 view .LVU457
 1733              	.LBE437:
 1734              	.LBE448:
 1735              	.LBE457:
 1736              	.LBE466:
 1737              		.loc 4 415 31 view .LVU458
 1738              		.loc 4 416 33 view .LVU459
 1739              		.loc 4 417 3 view .LVU460
 1740              	.LBB467:
 1741              	.LBB458:
 1742              	.LBB449:
 1743              	.LBB445:
 1744              	.LBB438:
 1745              	.LBI438:
 1746              		.loc 5 719 27 view .LVU461
 1747              	.LBE438:
 1748              	.LBE445:
 1749              	.LBE449:
 1750              	.LBE458:
 1751              	.LBE467:
 1752              		.loc 5 721 3 view .LVU462
 1753              	.LBB468:
 1754              	.LBB459:
 1755              	.LBB450:
 1756              	.LBB446:
 1757              	.LBB443:
 1758              	.LBB439:
 1759              	.LBI439:
 1760              		.loc 5 693 27 view .LVU463
 1761              	.LBE439:
 1762              	.LBE443:
 1763              	.LBE446:
 1764              	.LBE450:
 1765              	.LBE459:
 1766              	.LBE468:
ARM GAS  /tmp/ccoASF4Y.s 			page 32


 1767              		.loc 5 696 3 view .LVU464
 1768              	.LBB469:
 1769              	.LBB460:
 1770              	.LBB451:
 1771              	.LBB447:
 1772              	.LBB444:
 1773              	.LBB442:
 1774              	.LBB440:
 1775              	.LBI440:
 1776              		.loc 2 491 27 view .LVU465
 1777              	.LBB441:
 1778              		.loc 2 493 3 view .LVU466
 1779 047a 0023     		movs	r3, #0
 1780              		.syntax unified
 1781              	@ 493 "../../../external/ChibiOS/os/common/ext/ARM/CMSIS/Core/Include/cmsis_gcc.h" 1
 1782 047c 83F31188 		MSR basepri, r3
 1783              	@ 0 "" 2
 1784              	.LVL72:
 1785              		.loc 2 493 3 is_stmt 0 view .LVU467
 1786              		.thumb
 1787              		.syntax unified
 1788 0480 90E7     		b	.L63
 1789              	.LVL73:
 1790              	.L114:
 1791              		.loc 2 493 3 view .LVU468
 1792              	.LBE441:
 1793              	.LBE440:
 1794              	.LBE442:
 1795              	.LBE444:
 1796              	.LBE447:
 1797              	.LBE451:
 1798              	.LBE460:
 1799              	.LBE469:
 1800              		.loc 1 903 9 discriminator 1 view .LVU469
 1801 0482 B36B     		ldr	r3, [r6, #56]
 1802 0484 002B     		cmp	r3, #0
 1803 0486 D0D0     		beq	.L75
 1804              		.loc 1 904 7 is_stmt 1 view .LVU470
 1805              	.LVL74:
 1806              	.LBB470:
 1807              	.LBI470:
 1808              		.loc 3 892 20 view .LVU471
 1809              	.LBB471:
 1810              		.loc 3 895 3 view .LVU472
 1811 0488 301D     		adds	r0, r6, #4
 1812              	.LVL75:
 1813              		.loc 3 895 3 is_stmt 0 view .LVU473
 1814 048a 1021     		movs	r1, #16
 1815 048c FFF7FEFF 		bl	chEvtBroadcastFlagsI
 1816              	.LVL76:
 1817              		.loc 3 895 3 view .LVU474
 1818              	.LBE471:
 1819              	.LBE470:
 1820              		.loc 1 904 46 is_stmt 1 view .LVU475
 1821              		.loc 1 905 7 view .LVU476
 1822              		.loc 1 905 20 is_stmt 0 view .LVU477
 1823 0490 29F04003 		bic	r3, r9, #64
ARM GAS  /tmp/ccoASF4Y.s 			page 33


 1824              		.loc 1 905 14 view .LVU478
 1825 0494 2B60     		str	r3, [r5]
 1826 0496 C8E7     		b	.L75
 1827              		.cfi_endproc
 1828              	.LFE372:
 1829              		.size	sd_lld_serve_interrupt, .-sd_lld_serve_interrupt
 1830              		.comm	SD6,96,4
 1831              		.comm	SD3,96,4
 1832              		.comm	SD2,96,4
 1833              		.comm	SD1,96,4
 1834              		.bss
 1835              		.align	2
 1836              		.set	.LANCHOR0,. + 0
 1837              		.type	sd_in_buf1, %object
 1838              		.size	sd_in_buf1, 16
 1839              	sd_in_buf1:
 1840 0000 00000000 		.space	16
 1840      00000000 
 1840      00000000 
 1840      00000000 
 1841              		.type	sd_out_buf1, %object
 1842              		.size	sd_out_buf1, 16
 1843              	sd_out_buf1:
 1844 0010 00000000 		.space	16
 1844      00000000 
 1844      00000000 
 1844      00000000 
 1845              		.type	sd_in_buf2, %object
 1846              		.size	sd_in_buf2, 16
 1847              	sd_in_buf2:
 1848 0020 00000000 		.space	16
 1848      00000000 
 1848      00000000 
 1848      00000000 
 1849              		.type	sd_out_buf2, %object
 1850              		.size	sd_out_buf2, 16
 1851              	sd_out_buf2:
 1852 0030 00000000 		.space	16
 1852      00000000 
 1852      00000000 
 1852      00000000 
 1853              		.type	sd_in_buf3, %object
 1854              		.size	sd_in_buf3, 16
 1855              	sd_in_buf3:
 1856 0040 00000000 		.space	16
 1856      00000000 
 1856      00000000 
 1856      00000000 
 1857              		.type	sd_out_buf3, %object
 1858              		.size	sd_out_buf3, 16
 1859              	sd_out_buf3:
 1860 0050 00000000 		.space	16
 1860      00000000 
 1860      00000000 
 1860      00000000 
 1861              		.type	sd_in_buf6, %object
 1862              		.size	sd_in_buf6, 16
ARM GAS  /tmp/ccoASF4Y.s 			page 34


 1863              	sd_in_buf6:
 1864 0060 00000000 		.space	16
 1864      00000000 
 1864      00000000 
 1864      00000000 
 1865              		.type	sd_out_buf6, %object
 1866              		.size	sd_out_buf6, 16
 1867              	sd_out_buf6:
 1868 0070 00000000 		.space	16
 1868      00000000 
 1868      00000000 
 1868      00000000 
 1869              		.text
 1870              	.Letext0:
 1871              		.file 6 "/home/nicolas/arm/gcc-arm-none-eabi-8-2019-q3-update/lib/gcc/arm-none-eabi/8.3.1/include/
 1872              		.file 7 "/home/nicolas/arm/gcc-arm-none-eabi-8-2019-q3-update/arm-none-eabi/include/machine/_defau
 1873              		.file 8 "/home/nicolas/arm/gcc-arm-none-eabi-8-2019-q3-update/arm-none-eabi/include/sys/_stdint.h"
 1874              		.file 9 "/home/nicolas/arm/gcc-arm-none-eabi-8-2019-q3-update/arm-none-eabi/include/stdint.h"
 1875              		.file 10 "../../../external/ChibiOS/os/common/ports/ARMCMx/compilers/GCC/chtypes.h"
 1876              		.file 11 "../../../external/ChibiOS/os/rt/include/chsystypes.h"
 1877              		.file 12 "../../../external/ChibiOS/os/rt/include/chschd.h"
 1878              		.file 13 "../../../external/ChibiOS/os/rt/include/chtime.h"
 1879              		.file 14 "../../../external/ChibiOS/os/common/ext/ARM/CMSIS/Core/Include/core_cm7.h"
 1880              		.file 15 "../../../external/ChibiOS/os/common/ext/ST/STM32H7xx/system_stm32h7xx.h"
 1881              		.file 16 "../../../external/ChibiOS/os/common/ext/ST/STM32H7xx/stm32h753xx.h"
 1882              		.file 17 "../../../external/ChibiOS/os/common/ports/ARMCMx/chcore.h"
 1883              		.file 18 "../../../external/ChibiOS/os/rt/include/chtrace.h"
 1884              		.file 19 "../../../external/ChibiOS/os/rt/include/chtm.h"
 1885              		.file 20 "../../../external/ChibiOS/os/rt/include/chsem.h"
 1886              		.file 21 "../../../external/ChibiOS/os/rt/include/chmtx.h"
 1887              		.file 22 "../../../external/ChibiOS/os/rt/include/chregistry.h"
 1888              		.file 23 "../../../external/ChibiOS/os/rt/include/chevents.h"
 1889              		.file 24 "../../../external/ChibiOS/os/oslib/include/chmemcore.h"
 1890              		.file 25 "../../../external/ChibiOS/os/oslib/include/chmempools.h"
 1891              		.file 26 "../../../external/ChibiOS/os/oslib/include/chfactory.h"
 1892              		.file 27 "../../../external/ChibiOS/os/hal/ports/STM32/LLD/DMAv2/stm32_dma.h"
 1893              		.file 28 "../../../external/ChibiOS/os/hal/ports/STM32/LLD/BDMAv1/stm32_bdma.h"
 1894              		.file 29 "../../../external/ChibiOS/os/hal/ports/STM32/LLD/TIMv1/stm32_tim.h"
 1895              		.file 30 "../../../external/ChibiOS/os/hal/include/hal_ioblock.h"
 1896              		.file 31 "../../../external/ChibiOS/os/hal/include/hal_queues.h"
 1897              		.file 32 "../../../external/ChibiOS/os/hal/ports/STM32/LLD/GPIOv2/stm32_gpio.h"
 1898              		.file 33 "../../../external/ChibiOS/os/hal/ports/STM32/LLD/GPIOv2/hal_pal_lld.h"
 1899              		.file 34 "../../../external/ChibiOS/os/hal/include/hal_adc.h"
 1900              		.file 35 "../../../external/ChibiOS/os/hal/ports/STM32/LLD/ADCv4/hal_adc_lld.h"
 1901              		.file 36 "../../../external/ChibiOS/os/hal/include/hal_i2c.h"
 1902              		.file 37 "../../../external/ChibiOS/os/hal/ports/STM32/LLD/I2Cv3/hal_i2c_lld.h"
 1903              		.file 38 "../../../external/ChibiOS/os/hal/include/hal_pwm.h"
 1904              		.file 39 "../../../external/ChibiOS/os/hal/ports/STM32/LLD/TIMv1/hal_pwm_lld.h"
 1905              		.file 40 "../../../external/ChibiOS/os/hal/include/hal_serial.h"
 1906              		.file 41 "../../../external/ChibiOS/os/hal/ports/STM32/LLD/USARTv2/hal_serial_lld.h"
 1907              		.file 42 "../../../external/ChibiOS/os/hal/include/hal_sdc.h"
 1908              		.file 43 "../../../external/ChibiOS/os/hal/ports/STM32/LLD/SDMMCv2/hal_sdc_lld.h"
 1909              		.file 44 "../../../external/ChibiOS/os/hal/include/hal_spi.h"
 1910              		.file 45 "../../../external/ChibiOS/os/hal/ports/STM32/LLD/SPIv3/hal_spi_lld.h"
 1911              		.file 46 "../../../external/ChibiOS/os/hal/include/hal_trng.h"
 1912              		.file 47 "../../../external/ChibiOS/os/hal/ports/STM32/LLD/RNGv1/hal_trng_lld.h"
 1913              		.file 48 "../../../external/ChibiOS/os/hal/include/hal_usb.h"
ARM GAS  /tmp/ccoASF4Y.s 			page 35


 1914              		.file 49 "../../../external/ChibiOS/os/hal/ports/STM32/LLD/OTGv1/hal_usb_lld.h"
 1915              		.file 50 "../../../external/ChibiOS/os/hal/ports/STM32/LLD/OTGv1/stm32_otg.h"
 1916              		.file 51 "../../../external/ChibiOS-Contrib/os/hal/include/hal_fsmc.h"
 1917              		.file 52 "../../../external/ChibiOS-Contrib/os/hal/include/hal_sdram.h"