ARM GAS  /tmp/ccK6FvxW.s 			page 1


   1              		.cpu cortex-m7
   2              		.eabi_attribute 27, 1
   3              		.eabi_attribute 28, 1
   4              		.eabi_attribute 20, 1
   5              		.eabi_attribute 21, 1
   6              		.eabi_attribute 23, 3
   7              		.eabi_attribute 24, 1
   8              		.eabi_attribute 25, 1
   9              		.eabi_attribute 26, 1
  10              		.eabi_attribute 30, 2
  11              		.eabi_attribute 34, 1
  12              		.eabi_attribute 18, 4
  13              		.file	"hal_flash.c"
  14              		.text
  15              	.Ltext0:
  16              		.cfi_sections	.debug_frame
  17              		.global	__aeabi_uldivmod
  18              		.global	__aeabi_ldivmod
  19              		.align	1
  20              		.p2align 4,,15
  21              		.global	flashWaitErase
  22              		.arch armv7e-m
  23              		.syntax unified
  24              		.thumb
  25              		.thumb_func
  26              		.fpu fpv4-sp-d16
  27              		.type	flashWaitErase, %function
  28              	flashWaitErase:
  29              	.LVL0:
  30              	.LFB362:
  31              		.file 1 "../../../external/ChibiOS/os/hal/src/hal_flash.c"
  32              		.loc 1 59 47 view -0
  33              		.cfi_startproc
  34              		@ args = 0, pretend = 0, frame = 8
  35              		@ frame_needed = 0, uses_anonymous_args = 0
  36              		.loc 1 59 47 is_stmt 0 view .LVU1
  37 0000 2DE9F048 		push	{r4, r5, r6, r7, fp, lr}
  38              		.cfi_def_cfa_offset 24
  39              		.cfi_offset 4, -24
  40              		.cfi_offset 5, -20
  41              		.cfi_offset 6, -16
  42              		.cfi_offset 7, -12
  43              		.cfi_offset 11, -8
  44              		.cfi_offset 14, -4
  45 0004 0446     		mov	r4, r0
  46 0006 82B0     		sub	sp, sp, #8
  47              		.cfi_def_cfa_offset 32
  48              	.LBB5:
  49              		.loc 1 72 5 view .LVU2
  50 0008 42F21075 		movw	r5, #10000
  51 000c 40F2E736 		movw	r6, #999
  52 0010 0027     		movs	r7, #0
  53 0012 0AE0     		b	.L3
  54              	.LVL1:
  55              	.L7:
  56              		.loc 1 72 5 view .LVU3
  57 0014 0199     		ldr	r1, [sp, #4]
ARM GAS  /tmp/ccK6FvxW.s 			page 2


  58 0016 B346     		mov	fp, r6
  59 0018 BC46     		mov	ip, r7
  60 001a E5FB01BC 		umlal	fp, ip, r5, r1
  61 001e 6146     		mov	r1, ip
  62 0020 5846     		mov	r0, fp
  63              	.LVL2:
  64              		.loc 1 72 5 view .LVU4
  65 0022 FFF7FEFF 		bl	__aeabi_uldivmod
  66              	.LVL3:
  67              	.LBB6:
  68              	.LBB7:
  69              		.file 2 "../../../external/ChibiOS/os/hal/osal/rt-nil/osal.h"
  70              		.loc 2 720 3 view .LVU5
  71 0026 FFF7FEFF 		bl	chThdSleep
  72              	.LVL4:
  73              	.L3:
  74              		.loc 2 720 3 view .LVU6
  75              	.LBE7:
  76              	.LBE6:
  77              	.LBE5:
  78              		.loc 1 61 3 is_stmt 1 view .LVU7
  79              	.LBB10:
  80              		.loc 1 62 5 view .LVU8
  81              		.loc 1 63 5 view .LVU9
  82              		.loc 1 66 5 view .LVU10
  83              		.loc 1 66 11 is_stmt 0 view .LVU11
  84 002a 2368     		ldr	r3, [r4]
  85 002c 01A9     		add	r1, sp, #4
  86 002e 2046     		mov	r0, r4
  87 0030 9B69     		ldr	r3, [r3, #24]
  88 0032 9847     		blx	r3
  89              	.LVL5:
  90              		.loc 1 67 5 is_stmt 1 view .LVU12
  91              		.loc 1 72 5 view .LVU13
  92              	.LBB9:
  93              	.LBI6:
  94              		.loc 2 718 20 view .LVU14
  95              	.LBB8:
  96              		.loc 2 720 3 view .LVU15
  97              	.LBE8:
  98              	.LBE9:
  99              		.loc 1 67 8 is_stmt 0 view .LVU16
 100 0034 0128     		cmp	r0, #1
 101              		.loc 1 72 5 view .LVU17
 102 0036 4FF47A72 		mov	r2, #1000
 103 003a 4FF00003 		mov	r3, #0
 104              		.loc 1 67 8 view .LVU18
 105 003e E9D0     		beq	.L7
 106              	.LBE10:
 107              		.loc 1 74 1 view .LVU19
 108 0040 02B0     		add	sp, sp, #8
 109              		.cfi_def_cfa_offset 24
 110              		@ sp needed
 111 0042 BDE8F088 		pop	{r4, r5, r6, r7, fp, pc}
 112              		.loc 1 74 1 view .LVU20
 113              		.cfi_endproc
 114              	.LFE362:
ARM GAS  /tmp/ccK6FvxW.s 			page 3


 115              		.size	flashWaitErase, .-flashWaitErase
 116              		.align	1
 117 0046 00BFAFF3 		.p2align 4,,15
 117      0080AFF3 
 117      0080
 118              		.global	flashGetSectorOffset
 119              		.syntax unified
 120              		.thumb
 121              		.thumb_func
 122              		.fpu fpv4-sp-d16
 123              		.type	flashGetSectorOffset, %function
 124              	flashGetSectorOffset:
 125              	.LVL6:
 126              	.LFB363:
 127              		.loc 1 85 60 is_stmt 1 view -0
 128              		.cfi_startproc
 129              		@ args = 0, pretend = 0, frame = 0
 130              		@ frame_needed = 0, uses_anonymous_args = 0
 131              		.loc 1 86 3 view .LVU22
 132              		.loc 1 87 3 view .LVU23
 133              		.loc 1 87 42 is_stmt 0 view .LVU24
 134 0050 0368     		ldr	r3, [r0]
 135              		.loc 1 85 60 view .LVU25
 136 0052 10B5     		push	{r4, lr}
 137              		.cfi_def_cfa_offset 8
 138              		.cfi_offset 4, -8
 139              		.cfi_offset 14, -4
 140              		.loc 1 87 42 view .LVU26
 141 0054 5B68     		ldr	r3, [r3, #4]
 142              		.loc 1 85 60 view .LVU27
 143 0056 0C46     		mov	r4, r1
 144              		.loc 1 87 42 view .LVU28
 145 0058 9847     		blx	r3
 146              	.LVL7:
 147              		.loc 1 89 3 is_stmt 1 view .LVU29
 148              		.loc 1 89 3 view .LVU30
 149              		.loc 1 91 3 view .LVU31
 150              		.loc 1 91 17 is_stmt 0 view .LVU32
 151 005a C368     		ldr	r3, [r0, #12]
 152              		.loc 1 91 6 view .LVU33
 153 005c 13B1     		cbz	r3, .L9
 154              		.loc 1 92 5 is_stmt 1 view .LVU34
 155              		.loc 1 92 12 is_stmt 0 view .LVU35
 156 005e 53F83400 		ldr	r0, [r3, r4, lsl #3]
 157              	.LVL8:
 158              		.loc 1 99 1 view .LVU36
 159 0062 10BD     		pop	{r4, pc}
 160              	.LVL9:
 161              	.L9:
 162              		.loc 1 95 5 is_stmt 1 view .LVU37
 163              		.loc 1 95 12 is_stmt 0 view .LVU38
 164 0064 0069     		ldr	r0, [r0, #16]
 165              	.LVL10:
 166              		.loc 1 95 12 view .LVU39
 167 0066 00FB04F0 		mul	r0, r0, r4
 168              	.LVL11:
 169              		.loc 1 98 3 is_stmt 1 view .LVU40
ARM GAS  /tmp/ccK6FvxW.s 			page 4


 170              		.loc 1 99 1 is_stmt 0 view .LVU41
 171 006a 10BD     		pop	{r4, pc}
 172              		.loc 1 99 1 view .LVU42
 173              		.cfi_endproc
 174              	.LFE363:
 175              		.size	flashGetSectorOffset, .-flashGetSectorOffset
 176              		.align	1
 177 006c AFF30080 		.p2align 4,,15
 178              		.global	flashGetSectorSize
 179              		.syntax unified
 180              		.thumb
 181              		.thumb_func
 182              		.fpu fpv4-sp-d16
 183              		.type	flashGetSectorSize, %function
 184              	flashGetSectorSize:
 185              	.LVL12:
 186              	.LFB364:
 187              		.loc 1 110 52 is_stmt 1 view -0
 188              		.cfi_startproc
 189              		@ args = 0, pretend = 0, frame = 0
 190              		@ frame_needed = 0, uses_anonymous_args = 0
 191              		.loc 1 111 3 view .LVU44
 192              		.loc 1 112 3 view .LVU45
 193              		.loc 1 112 42 is_stmt 0 view .LVU46
 194 0070 0368     		ldr	r3, [r0]
 195              		.loc 1 110 52 view .LVU47
 196 0072 10B5     		push	{r4, lr}
 197              		.cfi_def_cfa_offset 8
 198              		.cfi_offset 4, -8
 199              		.cfi_offset 14, -4
 200              		.loc 1 112 42 view .LVU48
 201 0074 5B68     		ldr	r3, [r3, #4]
 202              		.loc 1 110 52 view .LVU49
 203 0076 0C46     		mov	r4, r1
 204              		.loc 1 112 42 view .LVU50
 205 0078 9847     		blx	r3
 206              	.LVL13:
 207              		.loc 1 114 3 is_stmt 1 view .LVU51
 208              		.loc 1 114 3 view .LVU52
 209              		.loc 1 116 3 view .LVU53
 210              		.loc 1 116 17 is_stmt 0 view .LVU54
 211 007a C368     		ldr	r3, [r0, #12]
 212              		.loc 1 116 6 view .LVU55
 213 007c 1BB1     		cbz	r3, .L13
 214              		.loc 1 117 5 is_stmt 1 view .LVU56
 215              		.loc 1 117 10 is_stmt 0 view .LVU57
 216 007e 03EBC403 		add	r3, r3, r4, lsl #3
 217 0082 5868     		ldr	r0, [r3, #4]
 218              	.LVL14:
 219              		.loc 1 124 1 view .LVU58
 220 0084 10BD     		pop	{r4, pc}
 221              	.LVL15:
 222              	.L13:
 223              		.loc 1 120 5 is_stmt 1 view .LVU59
 224              		.loc 1 120 10 is_stmt 0 view .LVU60
 225 0086 0069     		ldr	r0, [r0, #16]
 226              	.LVL16:
ARM GAS  /tmp/ccK6FvxW.s 			page 5


 227              		.loc 1 123 3 is_stmt 1 view .LVU61
 228              		.loc 1 124 1 is_stmt 0 view .LVU62
 229 0088 10BD     		pop	{r4, pc}
 230              		.loc 1 124 1 view .LVU63
 231              		.cfi_endproc
 232              	.LFE364:
 233              		.size	flashGetSectorSize, .-flashGetSectorSize
 234              	.Letext0:
 235              		.file 3 "/home/nicolas/arm/gcc-arm-none-eabi-8-2019-q3-update/lib/gcc/arm-none-eabi/8.3.1/include/
 236              		.file 4 "/home/nicolas/arm/gcc-arm-none-eabi-8-2019-q3-update/arm-none-eabi/include/machine/_defau
 237              		.file 5 "/home/nicolas/arm/gcc-arm-none-eabi-8-2019-q3-update/arm-none-eabi/include/sys/_stdint.h"
 238              		.file 6 "/home/nicolas/arm/gcc-arm-none-eabi-8-2019-q3-update/arm-none-eabi/include/stdint.h"
 239              		.file 7 "../../../external/ChibiOS/os/common/ports/ARMCMx/compilers/GCC/chtypes.h"
 240              		.file 8 "../../../external/ChibiOS/os/rt/include/chsystypes.h"
 241              		.file 9 "../../../external/ChibiOS/os/rt/include/chschd.h"
 242              		.file 10 "../../../external/ChibiOS/os/rt/include/chtime.h"
 243              		.file 11 "../../../external/ChibiOS/os/common/ext/ARM/CMSIS/Core/Include/core_cm7.h"
 244              		.file 12 "../../../external/ChibiOS/os/common/ext/ST/STM32H7xx/system_stm32h7xx.h"
 245              		.file 13 "../../../external/ChibiOS/os/common/ext/ST/STM32H7xx/stm32h753xx.h"
 246              		.file 14 "../../../external/ChibiOS/os/common/ports/ARMCMx/chcore.h"
 247              		.file 15 "../../../external/ChibiOS/os/common/ports/ARMCMx/chcore_v7m.h"
 248              		.file 16 "../../../external/ChibiOS/os/rt/include/chtrace.h"
 249              		.file 17 "../../../external/ChibiOS/os/rt/include/chtm.h"
 250              		.file 18 "../../../external/ChibiOS/os/rt/include/chsem.h"
 251              		.file 19 "../../../external/ChibiOS/os/rt/include/chmtx.h"
 252              		.file 20 "../../../external/ChibiOS/os/rt/include/chsys.h"
 253              		.file 21 "../../../external/ChibiOS/os/rt/include/chregistry.h"
 254              		.file 22 "../../../external/ChibiOS/os/rt/include/chevents.h"
 255              		.file 23 "../../../external/ChibiOS/os/oslib/include/chmemcore.h"
 256              		.file 24 "../../../external/ChibiOS/os/oslib/include/chmempools.h"
 257              		.file 25 "../../../external/ChibiOS/os/oslib/include/chfactory.h"
 258              		.file 26 "../../../external/ChibiOS/os/hal/ports/STM32/LLD/DMAv2/stm32_dma.h"
 259              		.file 27 "../../../external/ChibiOS/os/hal/ports/STM32/LLD/BDMAv1/stm32_bdma.h"
 260              		.file 28 "../../../external/ChibiOS/os/hal/ports/STM32/LLD/TIMv1/stm32_tim.h"
 261              		.file 29 "../../../external/ChibiOS/os/hal/include/hal_ioblock.h"
 262              		.file 30 "../../../external/ChibiOS/os/hal/include/hal_flash.h"
 263              		.file 31 "../../../external/ChibiOS/os/hal/include/hal_queues.h"
 264              		.file 32 "../../../external/ChibiOS/os/hal/ports/STM32/LLD/GPIOv2/stm32_gpio.h"
 265              		.file 33 "../../../external/ChibiOS/os/hal/ports/STM32/LLD/GPIOv2/hal_pal_lld.h"
 266              		.file 34 "../../../external/ChibiOS/os/hal/include/hal_adc.h"
 267              		.file 35 "../../../external/ChibiOS/os/hal/ports/STM32/LLD/ADCv4/hal_adc_lld.h"
 268              		.file 36 "../../../external/ChibiOS/os/hal/include/hal_i2c.h"
 269              		.file 37 "../../../external/ChibiOS/os/hal/ports/STM32/LLD/I2Cv3/hal_i2c_lld.h"
 270              		.file 38 "../../../external/ChibiOS/os/hal/include/hal_pwm.h"
 271              		.file 39 "../../../external/ChibiOS/os/hal/ports/STM32/LLD/TIMv1/hal_pwm_lld.h"
 272              		.file 40 "../../../external/ChibiOS/os/hal/include/hal_serial.h"
 273              		.file 41 "../../../external/ChibiOS/os/hal/ports/STM32/LLD/USARTv2/hal_serial_lld.h"
 274              		.file 42 "../../../external/ChibiOS/os/hal/include/hal_sdc.h"
 275              		.file 43 "../../../external/ChibiOS/os/hal/ports/STM32/LLD/SDMMCv2/hal_sdc_lld.h"
 276              		.file 44 "../../../external/ChibiOS/os/hal/include/hal_spi.h"
 277              		.file 45 "../../../external/ChibiOS/os/hal/ports/STM32/LLD/SPIv3/hal_spi_lld.h"
 278              		.file 46 "../../../external/ChibiOS/os/hal/include/hal_trng.h"
 279              		.file 47 "../../../external/ChibiOS/os/hal/ports/STM32/LLD/RNGv1/hal_trng_lld.h"
 280              		.file 48 "../../../external/ChibiOS/os/hal/include/hal_usb.h"
 281              		.file 49 "../../../external/ChibiOS/os/hal/ports/STM32/LLD/OTGv1/hal_usb_lld.h"
 282              		.file 50 "../../../external/ChibiOS/os/hal/ports/STM32/LLD/OTGv1/stm32_otg.h"
 283              		.file 51 "../../../external/ChibiOS-Contrib/os/hal/include/hal_fsmc.h"
ARM GAS  /tmp/ccK6FvxW.s 			page 6


 284              		.file 52 "../../../external/ChibiOS-Contrib/os/hal/include/hal_sdram.h"
 285              		.file 53 "../../../external/ChibiOS/os/rt/include/chthreads.h"