ARM GAS  /tmp/ccCKiVwu.s 			page 1


   1              		.cpu cortex-m7
   2              		.eabi_attribute 27, 1
   3              		.eabi_attribute 28, 1
   4              		.eabi_attribute 20, 1
   5              		.eabi_attribute 21, 1
   6              		.eabi_attribute 23, 3
   7              		.eabi_attribute 24, 1
   8              		.eabi_attribute 25, 1
   9              		.eabi_attribute 26, 1
  10              		.eabi_attribute 30, 2
  11              		.eabi_attribute 34, 1
  12              		.eabi_attribute 18, 4
  13              		.file	"hal_pwm.c"
  14              		.text
  15              	.Ltext0:
  16              		.cfi_sections	.debug_frame
  17              		.align	1
  18              		.p2align 4,,15
  19              		.global	pwmInit
  20              		.arch armv7e-m
  21              		.syntax unified
  22              		.thumb
  23              		.thumb_func
  24              		.fpu fpv4-sp-d16
  25              		.type	pwmInit, %function
  26              	pwmInit:
  27              	.LFB362:
  28              		.file 1 "../../../external/ChibiOS/os/hal/src/hal_pwm.c"
  29              		.loc 1 56 20 view -0
  30              		.cfi_startproc
  31              		@ args = 0, pretend = 0, frame = 0
  32              		@ frame_needed = 0, uses_anonymous_args = 0
  33              		@ link register save eliminated.
  34              		.loc 1 58 3 view .LVU1
  35 0000 FFF7FEBF 		b	pwm_lld_init
  36              	.LVL0:
  37              		.cfi_endproc
  38              	.LFE362:
  39              		.size	pwmInit, .-pwmInit
  40              		.align	1
  41 0004 AFF30080 		.p2align 4,,15
  41      AFF30080 
  41      AFF30080 
  42              		.global	pwmObjectInit
  43              		.syntax unified
  44              		.thumb
  45              		.thumb_func
  46              		.fpu fpv4-sp-d16
  47              		.type	pwmObjectInit, %function
  48              	pwmObjectInit:
  49              	.LVL1:
  50              	.LFB363:
  51              		.loc 1 68 37 view -0
  52              		.cfi_startproc
  53              		@ args = 0, pretend = 0, frame = 0
  54              		@ frame_needed = 0, uses_anonymous_args = 0
  55              		@ link register save eliminated.
ARM GAS  /tmp/ccCKiVwu.s 			page 2


  56              		.loc 1 70 3 view .LVU3
  57              		.loc 1 71 18 is_stmt 0 view .LVU4
  58 0010 0023     		movs	r3, #0
  59              		.loc 1 70 18 view .LVU5
  60 0012 0122     		movs	r2, #1
  61              		.loc 1 71 18 view .LVU6
  62 0014 4360     		str	r3, [r0, #4]
  63              		.loc 1 70 18 view .LVU7
  64 0016 0270     		strb	r2, [r0]
  65              		.loc 1 71 3 is_stmt 1 view .LVU8
  66              		.loc 1 72 3 view .LVU9
  67              		.loc 1 72 18 is_stmt 0 view .LVU10
  68 0018 C360     		str	r3, [r0, #12]
  69              		.loc 1 73 3 is_stmt 1 view .LVU11
  70              		.loc 1 73 18 is_stmt 0 view .LVU12
  71 001a 0374     		strb	r3, [r0, #16]
  72              		.loc 1 77 1 view .LVU13
  73 001c 7047     		bx	lr
  74              		.cfi_endproc
  75              	.LFE363:
  76              		.size	pwmObjectInit, .-pwmObjectInit
  77              		.align	1
  78 001e 00BF     		.p2align 4,,15
  79              		.global	pwmStart
  80              		.syntax unified
  81              		.thumb
  82              		.thumb_func
  83              		.fpu fpv4-sp-d16
  84              		.type	pwmStart, %function
  85              	pwmStart:
  86              	.LVL2:
  87              	.LFB364:
  88              		.loc 1 89 57 is_stmt 1 view -0
  89              		.cfi_startproc
  90              		@ args = 0, pretend = 0, frame = 0
  91              		@ frame_needed = 0, uses_anonymous_args = 0
  92              		.loc 1 91 3 view .LVU15
  93              		.loc 1 91 3 view .LVU16
  94              		.loc 1 93 3 view .LVU17
  95              	.LBB141:
  96              	.LBI141:
  97              		.file 2 "../../../external/ChibiOS/os/hal/osal/rt-nil/osal.h"
  98              		.loc 2 509 20 view .LVU18
  99              	.LBE141:
 100              		.loc 2 511 3 view .LVU19
 101              	.LBB157:
 102              	.LBB142:
 103              	.LBI142:
 104              		.file 3 "../../../external/ChibiOS/os/rt/include/chsys.h"
 105              		.loc 3 353 20 view .LVU20
 106              	.LBE142:
 107              	.LBE157:
 108              		.loc 3 355 3 view .LVU21
 109              	.LBB158:
 110              	.LBB153:
 111              	.LBB143:
 112              	.LBI143:
ARM GAS  /tmp/ccCKiVwu.s 			page 3


 113              		.file 4 "../../../external/ChibiOS/os/common/ports/ARMCMx/chcore_v7m.h"
 114              		.loc 4 669 27 view .LVU22
 115              	.LBE143:
 116              	.LBE153:
 117              	.LBE158:
 118              		.loc 4 677 3 view .LVU23
 119              	.LBB159:
 120              	.LBB154:
 121              	.LBB150:
 122              	.LBB144:
 123              	.LBI144:
 124              		.file 5 "../../../external/ChibiOS/os/common/ext/ARM/CMSIS/Core/Include/cmsis_gcc.h"
 125              		.loc 5 491 27 view .LVU24
 126              	.LBB145:
 127              		.loc 5 493 3 view .LVU25
 128              	.LBE145:
 129              	.LBE144:
 130              	.LBE150:
 131              	.LBE154:
 132              	.LBE159:
 133              		.loc 1 89 57 is_stmt 0 view .LVU26
 134 0020 10B5     		push	{r4, lr}
 135              		.cfi_def_cfa_offset 8
 136              		.cfi_offset 4, -8
 137              		.cfi_offset 14, -4
 138              	.LBB160:
 139              	.LBB155:
 140              	.LBB151:
 141              	.LBB148:
 142              	.LBB146:
 143              		.loc 5 493 3 view .LVU27
 144 0022 2023     		movs	r3, #32
 145              	.LBE146:
 146              	.LBE148:
 147              	.LBE151:
 148              	.LBE155:
 149              	.LBE160:
 150              		.loc 1 89 57 view .LVU28
 151 0024 0446     		mov	r4, r0
 152              	.LBB161:
 153              	.LBB156:
 154              	.LBB152:
 155              	.LBB149:
 156              	.LBB147:
 157              		.loc 5 493 3 view .LVU29
 158              		.syntax unified
 159              	@ 493 "../../../external/ChibiOS/os/common/ext/ARM/CMSIS/Core/Include/cmsis_gcc.h" 1
 160 0026 83F31188 		MSR basepri, r3
 161              	@ 0 "" 2
 162              	.LVL3:
 163              		.loc 5 493 3 view .LVU30
 164              		.thumb
 165              		.syntax unified
 166              	.LBE147:
 167              	.LBE149:
 168              	.LBE152:
 169              	.LBE156:
ARM GAS  /tmp/ccCKiVwu.s 			page 4


 170              	.LBE161:
 171              		.loc 3 356 34 is_stmt 1 view .LVU31
 172              		.loc 3 357 20 view .LVU32
 173              		.loc 1 94 3 view .LVU33
 174              		.loc 1 94 3 view .LVU34
 175              		.loc 1 96 3 view .LVU35
 176              		.loc 1 97 16 is_stmt 0 view .LVU36
 177 002a 4B68     		ldr	r3, [r1, #4]
 178 002c C0E90113 		strd	r1, r3, [r0, #4]
 179              		.loc 1 98 3 is_stmt 1 view .LVU37
 180 0030 FFF7FEFF 		bl	pwm_lld_start
 181              	.LVL4:
 182              		.loc 1 99 3 view .LVU38
 183              		.loc 1 100 15 is_stmt 0 view .LVU39
 184 0034 0222     		movs	r2, #2
 185              		.loc 1 99 17 view .LVU40
 186 0036 0023     		movs	r3, #0
 187              		.loc 1 100 15 view .LVU41
 188 0038 2270     		strb	r2, [r4]
 189              		.loc 1 99 17 view .LVU42
 190 003a E360     		str	r3, [r4, #12]
 191              		.loc 1 100 3 is_stmt 1 view .LVU43
 192              		.loc 1 101 3 view .LVU44
 193              	.LBB162:
 194              	.LBI162:
 195              		.loc 2 520 20 view .LVU45
 196              	.LBE162:
 197              		.loc 2 522 3 view .LVU46
 198              	.LBB171:
 199              	.LBB163:
 200              	.LBI163:
 201              		.loc 3 365 20 view .LVU47
 202              	.LBB164:
 203              		.loc 3 367 22 view .LVU48
 204              		.loc 3 368 33 view .LVU49
 205              		.loc 3 374 3 view .LVU50
 206              		.loc 3 374 3 view .LVU51
 207              		.loc 3 378 3 view .LVU52
 208              	.LBB165:
 209              	.LBI165:
 210              		.loc 4 693 27 view .LVU53
 211              	.LBE165:
 212              	.LBE164:
 213              	.LBE163:
 214              	.LBE171:
 215              		.loc 4 696 3 view .LVU54
 216              	.LVL5:
 217              	.LBB172:
 218              	.LBB170:
 219              	.LBB169:
 220              	.LBB168:
 221              	.LBB166:
 222              	.LBI166:
 223              		.loc 5 491 27 view .LVU55
 224              	.LBB167:
 225              		.loc 5 493 3 view .LVU56
 226              		.syntax unified
ARM GAS  /tmp/ccCKiVwu.s 			page 5


 227              	@ 493 "../../../external/ChibiOS/os/common/ext/ARM/CMSIS/Core/Include/cmsis_gcc.h" 1
 228 003c 83F31188 		MSR basepri, r3
 229              	@ 0 "" 2
 230              	.LVL6:
 231              		.loc 5 493 3 is_stmt 0 view .LVU57
 232              		.thumb
 233              		.syntax unified
 234              	.LBE167:
 235              	.LBE166:
 236              	.LBE168:
 237              	.LBE169:
 238              	.LBE170:
 239              	.LBE172:
 240              		.loc 1 102 1 view .LVU58
 241 0040 10BD     		pop	{r4, pc}
 242              		.loc 1 102 1 view .LVU59
 243              		.cfi_endproc
 244              	.LFE364:
 245              		.size	pwmStart, .-pwmStart
 246              		.align	1
 247 0042 00BFAFF3 		.p2align 4,,15
 247      0080AFF3 
 247      0080AFF3 
 247      0080
 248              		.global	pwmStop
 249              		.syntax unified
 250              		.thumb
 251              		.thumb_func
 252              		.fpu fpv4-sp-d16
 253              		.type	pwmStop, %function
 254              	pwmStop:
 255              	.LVL7:
 256              	.LFB365:
 257              		.loc 1 111 31 is_stmt 1 view -0
 258              		.cfi_startproc
 259              		@ args = 0, pretend = 0, frame = 0
 260              		@ frame_needed = 0, uses_anonymous_args = 0
 261              		.loc 1 113 3 view .LVU61
 262              		.loc 1 113 3 view .LVU62
 263              		.loc 1 115 3 view .LVU63
 264              	.LBB173:
 265              	.LBI173:
 266              		.loc 2 509 20 view .LVU64
 267              	.LBE173:
 268              		.loc 2 511 3 view .LVU65
 269              	.LBB189:
 270              	.LBB174:
 271              	.LBI174:
 272              		.loc 3 353 20 view .LVU66
 273              	.LBE174:
 274              	.LBE189:
 275              		.loc 3 355 3 view .LVU67
 276              	.LBB190:
 277              	.LBB185:
 278              	.LBB175:
 279              	.LBI175:
 280              		.loc 4 669 27 view .LVU68
ARM GAS  /tmp/ccCKiVwu.s 			page 6


 281              	.LBE175:
 282              	.LBE185:
 283              	.LBE190:
 284              		.loc 4 677 3 view .LVU69
 285              	.LBB191:
 286              	.LBB186:
 287              	.LBB182:
 288              	.LBB176:
 289              	.LBI176:
 290              		.loc 5 491 27 view .LVU70
 291              	.LBB177:
 292              		.loc 5 493 3 view .LVU71
 293              	.LBE177:
 294              	.LBE176:
 295              	.LBE182:
 296              	.LBE186:
 297              	.LBE191:
 298              		.loc 1 111 31 is_stmt 0 view .LVU72
 299 0050 10B5     		push	{r4, lr}
 300              		.cfi_def_cfa_offset 8
 301              		.cfi_offset 4, -8
 302              		.cfi_offset 14, -4
 303              	.LBB192:
 304              	.LBB187:
 305              	.LBB183:
 306              	.LBB180:
 307              	.LBB178:
 308              		.loc 5 493 3 view .LVU73
 309 0052 2023     		movs	r3, #32
 310              	.LBE178:
 311              	.LBE180:
 312              	.LBE183:
 313              	.LBE187:
 314              	.LBE192:
 315              		.loc 1 111 31 view .LVU74
 316 0054 0446     		mov	r4, r0
 317              	.LBB193:
 318              	.LBB188:
 319              	.LBB184:
 320              	.LBB181:
 321              	.LBB179:
 322              		.loc 5 493 3 view .LVU75
 323              		.syntax unified
 324              	@ 493 "../../../external/ChibiOS/os/common/ext/ARM/CMSIS/Core/Include/cmsis_gcc.h" 1
 325 0056 83F31188 		MSR basepri, r3
 326              	@ 0 "" 2
 327              	.LVL8:
 328              		.loc 5 493 3 view .LVU76
 329              		.thumb
 330              		.syntax unified
 331              	.LBE179:
 332              	.LBE181:
 333              	.LBE184:
 334              	.LBE188:
 335              	.LBE193:
 336              		.loc 3 356 34 is_stmt 1 view .LVU77
 337              		.loc 3 357 20 view .LVU78
ARM GAS  /tmp/ccCKiVwu.s 			page 7


 338              		.loc 1 117 3 view .LVU79
 339              		.loc 1 117 3 view .LVU80
 340              		.loc 1 120 3 view .LVU81
 341 005a FFF7FEFF 		bl	pwm_lld_stop
 342              	.LVL9:
 343              		.loc 1 121 3 view .LVU82
 344              		.loc 1 121 17 is_stmt 0 view .LVU83
 345 005e 0023     		movs	r3, #0
 346              		.loc 1 123 17 view .LVU84
 347 0060 0122     		movs	r2, #1
 348              		.loc 1 121 17 view .LVU85
 349 0062 E360     		str	r3, [r4, #12]
 350              		.loc 1 122 3 is_stmt 1 view .LVU86
 351              		.loc 1 123 17 is_stmt 0 view .LVU87
 352 0064 2270     		strb	r2, [r4]
 353              		.loc 1 122 17 view .LVU88
 354 0066 6360     		str	r3, [r4, #4]
 355              		.loc 1 123 3 is_stmt 1 view .LVU89
 356              		.loc 1 125 3 view .LVU90
 357              	.LBB194:
 358              	.LBI194:
 359              		.loc 2 520 20 view .LVU91
 360              	.LBE194:
 361              		.loc 2 522 3 view .LVU92
 362              	.LBB203:
 363              	.LBB195:
 364              	.LBI195:
 365              		.loc 3 365 20 view .LVU93
 366              	.LBB196:
 367              		.loc 3 367 22 view .LVU94
 368              		.loc 3 368 33 view .LVU95
 369              		.loc 3 374 3 view .LVU96
 370              		.loc 3 374 3 view .LVU97
 371              		.loc 3 378 3 view .LVU98
 372              	.LBB197:
 373              	.LBI197:
 374              		.loc 4 693 27 view .LVU99
 375              	.LBE197:
 376              	.LBE196:
 377              	.LBE195:
 378              	.LBE203:
 379              		.loc 4 696 3 view .LVU100
 380              	.LVL10:
 381              	.LBB204:
 382              	.LBB202:
 383              	.LBB201:
 384              	.LBB200:
 385              	.LBB198:
 386              	.LBI198:
 387              		.loc 5 491 27 view .LVU101
 388              	.LBB199:
 389              		.loc 5 493 3 view .LVU102
 390              		.syntax unified
 391              	@ 493 "../../../external/ChibiOS/os/common/ext/ARM/CMSIS/Core/Include/cmsis_gcc.h" 1
 392 0068 83F31188 		MSR basepri, r3
 393              	@ 0 "" 2
 394              	.LVL11:
ARM GAS  /tmp/ccCKiVwu.s 			page 8


 395              		.loc 5 493 3 is_stmt 0 view .LVU103
 396              		.thumb
 397              		.syntax unified
 398              	.LBE199:
 399              	.LBE198:
 400              	.LBE200:
 401              	.LBE201:
 402              	.LBE202:
 403              	.LBE204:
 404              		.loc 1 126 1 view .LVU104
 405 006c 10BD     		pop	{r4, pc}
 406              		.loc 1 126 1 view .LVU105
 407              		.cfi_endproc
 408              	.LFE365:
 409              		.size	pwmStop, .-pwmStop
 410              		.align	1
 411 006e 00BF     		.p2align 4,,15
 412              		.global	pwmChangePeriod
 413              		.syntax unified
 414              		.thumb
 415              		.thumb_func
 416              		.fpu fpv4-sp-d16
 417              		.type	pwmChangePeriod, %function
 418              	pwmChangePeriod:
 419              	.LVL12:
 420              	.LFB366:
 421              		.loc 1 143 56 is_stmt 1 view -0
 422              		.cfi_startproc
 423              		@ args = 0, pretend = 0, frame = 0
 424              		@ frame_needed = 0, uses_anonymous_args = 0
 425              		@ link register save eliminated.
 426              		.loc 1 145 3 view .LVU107
 427              		.loc 1 145 3 view .LVU108
 428              		.loc 1 147 3 view .LVU109
 429              	.LBB205:
 430              	.LBI205:
 431              		.loc 2 509 20 view .LVU110
 432              	.LBE205:
 433              		.loc 2 511 3 view .LVU111
 434              	.LBB217:
 435              	.LBB206:
 436              	.LBI206:
 437              		.loc 3 353 20 view .LVU112
 438              	.LBE206:
 439              	.LBE217:
 440              		.loc 3 355 3 view .LVU113
 441              	.LBB218:
 442              	.LBB214:
 443              	.LBB207:
 444              	.LBI207:
 445              		.loc 4 669 27 view .LVU114
 446              	.LBE207:
 447              	.LBE214:
 448              	.LBE218:
 449              		.loc 4 677 3 view .LVU115
 450              	.LBB219:
 451              	.LBB215:
ARM GAS  /tmp/ccCKiVwu.s 			page 9


 452              	.LBB212:
 453              	.LBB208:
 454              	.LBI208:
 455              		.loc 5 491 27 view .LVU116
 456              	.LBB209:
 457              		.loc 5 493 3 view .LVU117
 458              	.LBE209:
 459              	.LBE208:
 460              	.LBE212:
 461              	.LBE215:
 462              	.LBE219:
 463              		.loc 1 143 56 is_stmt 0 view .LVU118
 464 0070 10B4     		push	{r4}
 465              		.cfi_def_cfa_offset 4
 466              		.cfi_offset 4, -4
 467              	.LBB220:
 468              	.LBB216:
 469              	.LBB213:
 470              	.LBB211:
 471              	.LBB210:
 472              		.loc 5 493 3 view .LVU119
 473 0072 2023     		movs	r3, #32
 474              		.syntax unified
 475              	@ 493 "../../../external/ChibiOS/os/common/ext/ARM/CMSIS/Core/Include/cmsis_gcc.h" 1
 476 0074 83F31188 		MSR basepri, r3
 477              	@ 0 "" 2
 478              	.LVL13:
 479              		.loc 5 493 3 view .LVU120
 480              		.thumb
 481              		.syntax unified
 482              	.LBE210:
 483              	.LBE211:
 484              	.LBE213:
 485              	.LBE216:
 486              	.LBE220:
 487              		.loc 3 356 34 is_stmt 1 view .LVU121
 488              		.loc 3 357 20 view .LVU122
 489              		.loc 1 148 3 view .LVU123
 490              		.loc 1 148 3 view .LVU124
 491              		.loc 1 149 3 view .LVU125
 492 0078 8269     		ldr	r2, [r0, #24]
 493 007a 4C1E     		subs	r4, r1, #1
 494 007c 8160     		str	r1, [r0, #8]
 495              		.loc 1 149 3 view .LVU126
 496              	.LBB221:
 497              	.LBB222:
 498              	.LBB223:
 499              	.LBB224:
 500              	.LBB225:
 501              	.LBB226:
 502              		.loc 5 493 3 is_stmt 0 view .LVU127
 503 007e 0023     		movs	r3, #0
 504              	.LBE226:
 505              	.LBE225:
 506              	.LBE224:
 507              	.LBE223:
 508              	.LBE222:
ARM GAS  /tmp/ccCKiVwu.s 			page 10


 509              	.LBE221:
 510              		.loc 1 149 3 view .LVU128
 511 0080 D462     		str	r4, [r2, #44]
 512              		.loc 1 149 33 is_stmt 1 view .LVU129
 513              		.loc 1 150 3 view .LVU130
 514              	.LBB235:
 515              	.LBI221:
 516              		.loc 2 520 20 view .LVU131
 517              	.LBE235:
 518              		.loc 2 522 3 view .LVU132
 519              	.LBB236:
 520              	.LBB233:
 521              	.LBI222:
 522              		.loc 3 365 20 view .LVU133
 523              	.LBB231:
 524              		.loc 3 367 22 view .LVU134
 525              		.loc 3 368 33 view .LVU135
 526              		.loc 3 374 3 view .LVU136
 527              		.loc 3 374 3 view .LVU137
 528              		.loc 3 378 3 view .LVU138
 529              	.LBB229:
 530              	.LBI224:
 531              		.loc 4 693 27 view .LVU139
 532              	.LBE229:
 533              	.LBE231:
 534              	.LBE233:
 535              	.LBE236:
 536              		.loc 4 696 3 view .LVU140
 537              	.LVL14:
 538              	.LBB237:
 539              	.LBB234:
 540              	.LBB232:
 541              	.LBB230:
 542              	.LBB228:
 543              	.LBI225:
 544              		.loc 5 491 27 view .LVU141
 545              	.LBB227:
 546              		.loc 5 493 3 view .LVU142
 547              		.syntax unified
 548              	@ 493 "../../../external/ChibiOS/os/common/ext/ARM/CMSIS/Core/Include/cmsis_gcc.h" 1
 549 0082 83F31188 		MSR basepri, r3
 550              	@ 0 "" 2
 551              	.LVL15:
 552              		.loc 5 493 3 is_stmt 0 view .LVU143
 553              		.thumb
 554              		.syntax unified
 555              	.LBE227:
 556              	.LBE228:
 557              	.LBE230:
 558              	.LBE232:
 559              	.LBE234:
 560              	.LBE237:
 561              		.loc 1 151 1 view .LVU144
 562 0086 5DF8044B 		ldr	r4, [sp], #4
 563              		.cfi_restore 4
 564              		.cfi_def_cfa_offset 0
 565 008a 7047     		bx	lr
ARM GAS  /tmp/ccCKiVwu.s 			page 11


 566              		.cfi_endproc
 567              	.LFE366:
 568              		.size	pwmChangePeriod, .-pwmChangePeriod
 569              		.align	1
 570 008c AFF30080 		.p2align 4,,15
 571              		.global	pwmEnableChannel
 572              		.syntax unified
 573              		.thumb
 574              		.thumb_func
 575              		.fpu fpv4-sp-d16
 576              		.type	pwmEnableChannel, %function
 577              	pwmEnableChannel:
 578              	.LVL16:
 579              	.LFB367:
 580              		.loc 1 169 39 is_stmt 1 view -0
 581              		.cfi_startproc
 582              		@ args = 0, pretend = 0, frame = 0
 583              		@ frame_needed = 0, uses_anonymous_args = 0
 584              		.loc 1 171 3 view .LVU146
 585              		.loc 1 171 3 view .LVU147
 586              		.loc 1 173 3 view .LVU148
 587              	.LBB238:
 588              	.LBI238:
 589              		.loc 2 509 20 view .LVU149
 590              	.LBE238:
 591              		.loc 2 511 3 view .LVU150
 592              	.LBB250:
 593              	.LBB239:
 594              	.LBI239:
 595              		.loc 3 353 20 view .LVU151
 596              	.LBE239:
 597              	.LBE250:
 598              		.loc 3 355 3 view .LVU152
 599              	.LBB251:
 600              	.LBB247:
 601              	.LBB240:
 602              	.LBI240:
 603              		.loc 4 669 27 view .LVU153
 604              	.LBE240:
 605              	.LBE247:
 606              	.LBE251:
 607              		.loc 4 677 3 view .LVU154
 608              	.LBB252:
 609              	.LBB248:
 610              	.LBB245:
 611              	.LBB241:
 612              	.LBI241:
 613              		.loc 5 491 27 view .LVU155
 614              	.LBB242:
 615              		.loc 5 493 3 view .LVU156
 616              	.LBE242:
 617              	.LBE241:
 618              	.LBE245:
 619              	.LBE248:
 620              	.LBE252:
 621              		.loc 1 169 39 is_stmt 0 view .LVU157
 622 0090 70B5     		push	{r4, r5, r6, lr}
ARM GAS  /tmp/ccCKiVwu.s 			page 12


 623              		.cfi_def_cfa_offset 16
 624              		.cfi_offset 4, -16
 625              		.cfi_offset 5, -12
 626              		.cfi_offset 6, -8
 627              		.cfi_offset 14, -4
 628              	.LBB253:
 629              	.LBB249:
 630              	.LBB246:
 631              	.LBB244:
 632              	.LBB243:
 633              		.loc 5 493 3 view .LVU158
 634 0092 2023     		movs	r3, #32
 635              		.syntax unified
 636              	@ 493 "../../../external/ChibiOS/os/common/ext/ARM/CMSIS/Core/Include/cmsis_gcc.h" 1
 637 0094 83F31188 		MSR basepri, r3
 638              	@ 0 "" 2
 639              	.LVL17:
 640              		.loc 5 493 3 view .LVU159
 641              		.thumb
 642              		.syntax unified
 643              	.LBE243:
 644              	.LBE244:
 645              	.LBE246:
 646              	.LBE249:
 647              	.LBE253:
 648              		.loc 3 356 34 is_stmt 1 view .LVU160
 649              		.loc 3 357 20 view .LVU161
 650              		.loc 1 175 3 view .LVU162
 651              		.loc 1 175 3 view .LVU163
 652              		.loc 1 177 3 view .LVU164
 653              		.loc 1 177 3 view .LVU165
 654 0098 0124     		movs	r4, #1
 655 009a C368     		ldr	r3, [r0, #12]
 656 009c 8C40     		lsls	r4, r4, r1
 657 009e 2343     		orrs	r3, r3, r4
 658 00a0 C360     		str	r3, [r0, #12]
 659              		.loc 1 177 3 view .LVU166
 660 00a2 FFF7FEFF 		bl	pwm_lld_enable_channel
 661              	.LVL18:
 662              		.loc 1 179 3 view .LVU167
 663              	.LBB254:
 664              	.LBI254:
 665              		.loc 2 520 20 view .LVU168
 666              	.LBE254:
 667              		.loc 2 522 3 view .LVU169
 668              	.LBB263:
 669              	.LBB255:
 670              	.LBI255:
 671              		.loc 3 365 20 view .LVU170
 672              	.LBB256:
 673              		.loc 3 367 22 view .LVU171
 674              		.loc 3 368 33 view .LVU172
 675              		.loc 3 374 3 view .LVU173
 676              		.loc 3 374 3 view .LVU174
 677              		.loc 3 378 3 view .LVU175
 678              	.LBB257:
 679              	.LBI257:
ARM GAS  /tmp/ccCKiVwu.s 			page 13


 680              		.loc 4 693 27 view .LVU176
 681              	.LBE257:
 682              	.LBE256:
 683              	.LBE255:
 684              	.LBE263:
 685              		.loc 4 696 3 view .LVU177
 686              	.LBB264:
 687              	.LBB262:
 688              	.LBB261:
 689              	.LBB260:
 690              	.LBB258:
 691              	.LBI258:
 692              		.loc 5 491 27 view .LVU178
 693              	.LBB259:
 694              		.loc 5 493 3 view .LVU179
 695 00a6 0023     		movs	r3, #0
 696              		.syntax unified
 697              	@ 493 "../../../external/ChibiOS/os/common/ext/ARM/CMSIS/Core/Include/cmsis_gcc.h" 1
 698 00a8 83F31188 		MSR basepri, r3
 699              	@ 0 "" 2
 700              	.LVL19:
 701              		.loc 5 493 3 is_stmt 0 view .LVU180
 702              		.thumb
 703              		.syntax unified
 704              	.LBE259:
 705              	.LBE258:
 706              	.LBE260:
 707              	.LBE261:
 708              	.LBE262:
 709              	.LBE264:
 710              		.loc 1 180 1 view .LVU181
 711 00ac 70BD     		pop	{r4, r5, r6, pc}
 712              		.cfi_endproc
 713              	.LFE367:
 714              		.size	pwmEnableChannel, .-pwmEnableChannel
 715              		.align	1
 716 00ae 00BF     		.p2align 4,,15
 717              		.global	pwmDisableChannel
 718              		.syntax unified
 719              		.thumb
 720              		.thumb_func
 721              		.fpu fpv4-sp-d16
 722              		.type	pwmDisableChannel, %function
 723              	pwmDisableChannel:
 724              	.LVL20:
 725              	.LFB368:
 726              		.loc 1 196 63 is_stmt 1 view -0
 727              		.cfi_startproc
 728              		@ args = 0, pretend = 0, frame = 0
 729              		@ frame_needed = 0, uses_anonymous_args = 0
 730              		.loc 1 198 3 view .LVU183
 731              		.loc 1 198 3 view .LVU184
 732              		.loc 1 200 3 view .LVU185
 733              	.LBB265:
 734              	.LBI265:
 735              		.loc 2 509 20 view .LVU186
 736              	.LBE265:
ARM GAS  /tmp/ccCKiVwu.s 			page 14


 737              		.loc 2 511 3 view .LVU187
 738              	.LBB277:
 739              	.LBB266:
 740              	.LBI266:
 741              		.loc 3 353 20 view .LVU188
 742              	.LBE266:
 743              	.LBE277:
 744              		.loc 3 355 3 view .LVU189
 745              	.LBB278:
 746              	.LBB274:
 747              	.LBB267:
 748              	.LBI267:
 749              		.loc 4 669 27 view .LVU190
 750              	.LBE267:
 751              	.LBE274:
 752              	.LBE278:
 753              		.loc 4 677 3 view .LVU191
 754              	.LBB279:
 755              	.LBB275:
 756              	.LBB272:
 757              	.LBB268:
 758              	.LBI268:
 759              		.loc 5 491 27 view .LVU192
 760              	.LBB269:
 761              		.loc 5 493 3 view .LVU193
 762              	.LBE269:
 763              	.LBE268:
 764              	.LBE272:
 765              	.LBE275:
 766              	.LBE279:
 767              		.loc 1 196 63 is_stmt 0 view .LVU194
 768 00b0 38B5     		push	{r3, r4, r5, lr}
 769              		.cfi_def_cfa_offset 16
 770              		.cfi_offset 3, -16
 771              		.cfi_offset 4, -12
 772              		.cfi_offset 5, -8
 773              		.cfi_offset 14, -4
 774              	.LBB280:
 775              	.LBB276:
 776              	.LBB273:
 777              	.LBB271:
 778              	.LBB270:
 779              		.loc 5 493 3 view .LVU195
 780 00b2 2023     		movs	r3, #32
 781              		.syntax unified
 782              	@ 493 "../../../external/ChibiOS/os/common/ext/ARM/CMSIS/Core/Include/cmsis_gcc.h" 1
 783 00b4 83F31188 		MSR basepri, r3
 784              	@ 0 "" 2
 785              	.LVL21:
 786              		.loc 5 493 3 view .LVU196
 787              		.thumb
 788              		.syntax unified
 789              	.LBE270:
 790              	.LBE271:
 791              	.LBE273:
 792              	.LBE276:
 793              	.LBE280:
ARM GAS  /tmp/ccCKiVwu.s 			page 15


 794              		.loc 3 356 34 is_stmt 1 view .LVU197
 795              		.loc 3 357 20 view .LVU198
 796              		.loc 1 202 3 view .LVU199
 797              		.loc 1 202 3 view .LVU200
 798              		.loc 1 204 3 view .LVU201
 799              		.loc 1 204 3 view .LVU202
 800 00b8 0122     		movs	r2, #1
 801 00ba C368     		ldr	r3, [r0, #12]
 802 00bc 8A40     		lsls	r2, r2, r1
 803 00be 23EA0203 		bic	r3, r3, r2
 804 00c2 C360     		str	r3, [r0, #12]
 805              		.loc 1 204 3 view .LVU203
 806 00c4 FFF7FEFF 		bl	pwm_lld_disable_channel
 807              	.LVL22:
 808              		.loc 1 206 3 view .LVU204
 809              	.LBB281:
 810              	.LBI281:
 811              		.loc 2 520 20 view .LVU205
 812              	.LBE281:
 813              		.loc 2 522 3 view .LVU206
 814              	.LBB290:
 815              	.LBB282:
 816              	.LBI282:
 817              		.loc 3 365 20 view .LVU207
 818              	.LBB283:
 819              		.loc 3 367 22 view .LVU208
 820              		.loc 3 368 33 view .LVU209
 821              		.loc 3 374 3 view .LVU210
 822              		.loc 3 374 3 view .LVU211
 823              		.loc 3 378 3 view .LVU212
 824              	.LBB284:
 825              	.LBI284:
 826              		.loc 4 693 27 view .LVU213
 827              	.LBE284:
 828              	.LBE283:
 829              	.LBE282:
 830              	.LBE290:
 831              		.loc 4 696 3 view .LVU214
 832              	.LBB291:
 833              	.LBB289:
 834              	.LBB288:
 835              	.LBB287:
 836              	.LBB285:
 837              	.LBI285:
 838              		.loc 5 491 27 view .LVU215
 839              	.LBB286:
 840              		.loc 5 493 3 view .LVU216
 841 00c8 0023     		movs	r3, #0
 842              		.syntax unified
 843              	@ 493 "../../../external/ChibiOS/os/common/ext/ARM/CMSIS/Core/Include/cmsis_gcc.h" 1
 844 00ca 83F31188 		MSR basepri, r3
 845              	@ 0 "" 2
 846              	.LVL23:
 847              		.loc 5 493 3 is_stmt 0 view .LVU217
 848              		.thumb
 849              		.syntax unified
 850              	.LBE286:
ARM GAS  /tmp/ccCKiVwu.s 			page 16


 851              	.LBE285:
 852              	.LBE287:
 853              	.LBE288:
 854              	.LBE289:
 855              	.LBE291:
 856              		.loc 1 207 1 view .LVU218
 857 00ce 38BD     		pop	{r3, r4, r5, pc}
 858              		.cfi_endproc
 859              	.LFE368:
 860              		.size	pwmDisableChannel, .-pwmDisableChannel
 861              		.align	1
 862              		.p2align 4,,15
 863              		.global	pwmEnablePeriodicNotification
 864              		.syntax unified
 865              		.thumb
 866              		.thumb_func
 867              		.fpu fpv4-sp-d16
 868              		.type	pwmEnablePeriodicNotification, %function
 869              	pwmEnablePeriodicNotification:
 870              	.LVL24:
 871              	.LFB369:
 872              		.loc 1 218 53 is_stmt 1 view -0
 873              		.cfi_startproc
 874              		@ args = 0, pretend = 0, frame = 0
 875              		@ frame_needed = 0, uses_anonymous_args = 0
 876              		.loc 1 220 3 view .LVU220
 877              		.loc 1 220 3 view .LVU221
 878              		.loc 1 222 3 view .LVU222
 879              	.LBB292:
 880              	.LBI292:
 881              		.loc 2 509 20 view .LVU223
 882              	.LBE292:
 883              		.loc 2 511 3 view .LVU224
 884              	.LBB304:
 885              	.LBB293:
 886              	.LBI293:
 887              		.loc 3 353 20 view .LVU225
 888              	.LBE293:
 889              	.LBE304:
 890              		.loc 3 355 3 view .LVU226
 891              	.LBB305:
 892              	.LBB301:
 893              	.LBB294:
 894              	.LBI294:
 895              		.loc 4 669 27 view .LVU227
 896              	.LBE294:
 897              	.LBE301:
 898              	.LBE305:
 899              		.loc 4 677 3 view .LVU228
 900              	.LBB306:
 901              	.LBB302:
 902              	.LBB299:
 903              	.LBB295:
 904              	.LBI295:
 905              		.loc 5 491 27 view .LVU229
 906              	.LBB296:
 907              		.loc 5 493 3 view .LVU230
ARM GAS  /tmp/ccCKiVwu.s 			page 17


 908              	.LBE296:
 909              	.LBE295:
 910              	.LBE299:
 911              	.LBE302:
 912              	.LBE306:
 913              		.loc 1 218 53 is_stmt 0 view .LVU231
 914 00d0 08B5     		push	{r3, lr}
 915              		.cfi_def_cfa_offset 8
 916              		.cfi_offset 3, -8
 917              		.cfi_offset 14, -4
 918              	.LBB307:
 919              	.LBB303:
 920              	.LBB300:
 921              	.LBB298:
 922              	.LBB297:
 923              		.loc 5 493 3 view .LVU232
 924 00d2 2023     		movs	r3, #32
 925              		.syntax unified
 926              	@ 493 "../../../external/ChibiOS/os/common/ext/ARM/CMSIS/Core/Include/cmsis_gcc.h" 1
 927 00d4 83F31188 		MSR basepri, r3
 928              	@ 0 "" 2
 929              	.LVL25:
 930              		.loc 5 493 3 view .LVU233
 931              		.thumb
 932              		.syntax unified
 933              	.LBE297:
 934              	.LBE298:
 935              	.LBE300:
 936              	.LBE303:
 937              	.LBE307:
 938              		.loc 3 356 34 is_stmt 1 view .LVU234
 939              		.loc 3 357 20 view .LVU235
 940              		.loc 1 224 3 view .LVU236
 941              		.loc 1 224 3 view .LVU237
 942              		.loc 1 225 3 view .LVU238
 943              		.loc 1 225 3 view .LVU239
 944              		.loc 1 227 3 view .LVU240
 945 00d8 FFF7FEFF 		bl	pwm_lld_enable_periodic_notification
 946              	.LVL26:
 947              		.loc 1 229 3 view .LVU241
 948              	.LBB308:
 949              	.LBI308:
 950              		.loc 2 520 20 view .LVU242
 951              	.LBE308:
 952              		.loc 2 522 3 view .LVU243
 953              	.LBB317:
 954              	.LBB309:
 955              	.LBI309:
 956              		.loc 3 365 20 view .LVU244
 957              	.LBB310:
 958              		.loc 3 367 22 view .LVU245
 959              		.loc 3 368 33 view .LVU246
 960              		.loc 3 374 3 view .LVU247
 961              		.loc 3 374 3 view .LVU248
 962              		.loc 3 378 3 view .LVU249
 963              	.LBB311:
 964              	.LBI311:
ARM GAS  /tmp/ccCKiVwu.s 			page 18


 965              		.loc 4 693 27 view .LVU250
 966              	.LBE311:
 967              	.LBE310:
 968              	.LBE309:
 969              	.LBE317:
 970              		.loc 4 696 3 view .LVU251
 971              	.LBB318:
 972              	.LBB316:
 973              	.LBB315:
 974              	.LBB314:
 975              	.LBB312:
 976              	.LBI312:
 977              		.loc 5 491 27 view .LVU252
 978              	.LBB313:
 979              		.loc 5 493 3 view .LVU253
 980 00dc 0023     		movs	r3, #0
 981              		.syntax unified
 982              	@ 493 "../../../external/ChibiOS/os/common/ext/ARM/CMSIS/Core/Include/cmsis_gcc.h" 1
 983 00de 83F31188 		MSR basepri, r3
 984              	@ 0 "" 2
 985              	.LVL27:
 986              		.loc 5 493 3 is_stmt 0 view .LVU254
 987              		.thumb
 988              		.syntax unified
 989              	.LBE313:
 990              	.LBE312:
 991              	.LBE314:
 992              	.LBE315:
 993              	.LBE316:
 994              	.LBE318:
 995              		.loc 1 230 1 view .LVU255
 996 00e2 08BD     		pop	{r3, pc}
 997              		.cfi_endproc
 998              	.LFE369:
 999              		.size	pwmEnablePeriodicNotification, .-pwmEnablePeriodicNotification
 1000              		.align	1
 1001 00e4 AFF30080 		.p2align 4,,15
 1001      AFF30080 
 1001      AFF30080 
 1002              		.global	pwmDisablePeriodicNotification
 1003              		.syntax unified
 1004              		.thumb
 1005              		.thumb_func
 1006              		.fpu fpv4-sp-d16
 1007              		.type	pwmDisablePeriodicNotification, %function
 1008              	pwmDisablePeriodicNotification:
 1009              	.LVL28:
 1010              	.LFB370:
 1011              		.loc 1 241 54 is_stmt 1 view -0
 1012              		.cfi_startproc
 1013              		@ args = 0, pretend = 0, frame = 0
 1014              		@ frame_needed = 0, uses_anonymous_args = 0
 1015              		.loc 1 243 3 view .LVU257
 1016              		.loc 1 243 3 view .LVU258
 1017              		.loc 1 245 3 view .LVU259
 1018              	.LBB319:
 1019              	.LBI319:
ARM GAS  /tmp/ccCKiVwu.s 			page 19


 1020              		.loc 2 509 20 view .LVU260
 1021              	.LBE319:
 1022              		.loc 2 511 3 view .LVU261
 1023              	.LBB331:
 1024              	.LBB320:
 1025              	.LBI320:
 1026              		.loc 3 353 20 view .LVU262
 1027              	.LBE320:
 1028              	.LBE331:
 1029              		.loc 3 355 3 view .LVU263
 1030              	.LBB332:
 1031              	.LBB328:
 1032              	.LBB321:
 1033              	.LBI321:
 1034              		.loc 4 669 27 view .LVU264
 1035              	.LBE321:
 1036              	.LBE328:
 1037              	.LBE332:
 1038              		.loc 4 677 3 view .LVU265
 1039              	.LBB333:
 1040              	.LBB329:
 1041              	.LBB326:
 1042              	.LBB322:
 1043              	.LBI322:
 1044              		.loc 5 491 27 view .LVU266
 1045              	.LBB323:
 1046              		.loc 5 493 3 view .LVU267
 1047              	.LBE323:
 1048              	.LBE322:
 1049              	.LBE326:
 1050              	.LBE329:
 1051              	.LBE333:
 1052              		.loc 1 241 54 is_stmt 0 view .LVU268
 1053 00f0 08B5     		push	{r3, lr}
 1054              		.cfi_def_cfa_offset 8
 1055              		.cfi_offset 3, -8
 1056              		.cfi_offset 14, -4
 1057              	.LBB334:
 1058              	.LBB330:
 1059              	.LBB327:
 1060              	.LBB325:
 1061              	.LBB324:
 1062              		.loc 5 493 3 view .LVU269
 1063 00f2 2023     		movs	r3, #32
 1064              		.syntax unified
 1065              	@ 493 "../../../external/ChibiOS/os/common/ext/ARM/CMSIS/Core/Include/cmsis_gcc.h" 1
 1066 00f4 83F31188 		MSR basepri, r3
 1067              	@ 0 "" 2
 1068              	.LVL29:
 1069              		.loc 5 493 3 view .LVU270
 1070              		.thumb
 1071              		.syntax unified
 1072              	.LBE324:
 1073              	.LBE325:
 1074              	.LBE327:
 1075              	.LBE330:
 1076              	.LBE334:
ARM GAS  /tmp/ccCKiVwu.s 			page 20


 1077              		.loc 3 356 34 is_stmt 1 view .LVU271
 1078              		.loc 3 357 20 view .LVU272
 1079              		.loc 1 247 3 view .LVU273
 1080              		.loc 1 247 3 view .LVU274
 1081              		.loc 1 248 3 view .LVU275
 1082              		.loc 1 248 3 view .LVU276
 1083              		.loc 1 250 3 view .LVU277
 1084 00f8 FFF7FEFF 		bl	pwm_lld_disable_periodic_notification
 1085              	.LVL30:
 1086              		.loc 1 252 3 view .LVU278
 1087              	.LBB335:
 1088              	.LBI335:
 1089              		.loc 2 520 20 view .LVU279
 1090              	.LBE335:
 1091              		.loc 2 522 3 view .LVU280
 1092              	.LBB344:
 1093              	.LBB336:
 1094              	.LBI336:
 1095              		.loc 3 365 20 view .LVU281
 1096              	.LBB337:
 1097              		.loc 3 367 22 view .LVU282
 1098              		.loc 3 368 33 view .LVU283
 1099              		.loc 3 374 3 view .LVU284
 1100              		.loc 3 374 3 view .LVU285
 1101              		.loc 3 378 3 view .LVU286
 1102              	.LBB338:
 1103              	.LBI338:
 1104              		.loc 4 693 27 view .LVU287
 1105              	.LBE338:
 1106              	.LBE337:
 1107              	.LBE336:
 1108              	.LBE344:
 1109              		.loc 4 696 3 view .LVU288
 1110              	.LBB345:
 1111              	.LBB343:
 1112              	.LBB342:
 1113              	.LBB341:
 1114              	.LBB339:
 1115              	.LBI339:
 1116              		.loc 5 491 27 view .LVU289
 1117              	.LBB340:
 1118              		.loc 5 493 3 view .LVU290
 1119 00fc 0023     		movs	r3, #0
 1120              		.syntax unified
 1121              	@ 493 "../../../external/ChibiOS/os/common/ext/ARM/CMSIS/Core/Include/cmsis_gcc.h" 1
 1122 00fe 83F31188 		MSR basepri, r3
 1123              	@ 0 "" 2
 1124              	.LVL31:
 1125              		.loc 5 493 3 is_stmt 0 view .LVU291
 1126              		.thumb
 1127              		.syntax unified
 1128              	.LBE340:
 1129              	.LBE339:
 1130              	.LBE341:
 1131              	.LBE342:
 1132              	.LBE343:
 1133              	.LBE345:
ARM GAS  /tmp/ccCKiVwu.s 			page 21


 1134              		.loc 1 253 1 view .LVU292
 1135 0102 08BD     		pop	{r3, pc}
 1136              		.cfi_endproc
 1137              	.LFE370:
 1138              		.size	pwmDisablePeriodicNotification, .-pwmDisablePeriodicNotification
 1139              		.align	1
 1140 0104 AFF30080 		.p2align 4,,15
 1140      AFF30080 
 1140      AFF30080 
 1141              		.global	pwmEnableChannelNotification
 1142              		.syntax unified
 1143              		.thumb
 1144              		.thumb_func
 1145              		.fpu fpv4-sp-d16
 1146              		.type	pwmEnableChannelNotification, %function
 1147              	pwmEnableChannelNotification:
 1148              	.LVL32:
 1149              	.LFB371:
 1150              		.loc 1 266 74 is_stmt 1 view -0
 1151              		.cfi_startproc
 1152              		@ args = 0, pretend = 0, frame = 0
 1153              		@ frame_needed = 0, uses_anonymous_args = 0
 1154              		.loc 1 268 3 view .LVU294
 1155              		.loc 1 268 3 view .LVU295
 1156              		.loc 1 270 3 view .LVU296
 1157              	.LBB346:
 1158              	.LBI346:
 1159              		.loc 2 509 20 view .LVU297
 1160              	.LBE346:
 1161              		.loc 2 511 3 view .LVU298
 1162              	.LBB358:
 1163              	.LBB347:
 1164              	.LBI347:
 1165              		.loc 3 353 20 view .LVU299
 1166              	.LBE347:
 1167              	.LBE358:
 1168              		.loc 3 355 3 view .LVU300
 1169              	.LBB359:
 1170              	.LBB355:
 1171              	.LBB348:
 1172              	.LBI348:
 1173              		.loc 4 669 27 view .LVU301
 1174              	.LBE348:
 1175              	.LBE355:
 1176              	.LBE359:
 1177              		.loc 4 677 3 view .LVU302
 1178              	.LBB360:
 1179              	.LBB356:
 1180              	.LBB353:
 1181              	.LBB349:
 1182              	.LBI349:
 1183              		.loc 5 491 27 view .LVU303
 1184              	.LBB350:
 1185              		.loc 5 493 3 view .LVU304
 1186              	.LBE350:
 1187              	.LBE349:
 1188              	.LBE353:
ARM GAS  /tmp/ccCKiVwu.s 			page 22


 1189              	.LBE356:
 1190              	.LBE360:
 1191              		.loc 1 266 74 is_stmt 0 view .LVU305
 1192 0110 08B5     		push	{r3, lr}
 1193              		.cfi_def_cfa_offset 8
 1194              		.cfi_offset 3, -8
 1195              		.cfi_offset 14, -4
 1196              	.LBB361:
 1197              	.LBB357:
 1198              	.LBB354:
 1199              	.LBB352:
 1200              	.LBB351:
 1201              		.loc 5 493 3 view .LVU306
 1202 0112 2023     		movs	r3, #32
 1203              		.syntax unified
 1204              	@ 493 "../../../external/ChibiOS/os/common/ext/ARM/CMSIS/Core/Include/cmsis_gcc.h" 1
 1205 0114 83F31188 		MSR basepri, r3
 1206              	@ 0 "" 2
 1207              	.LVL33:
 1208              		.loc 5 493 3 view .LVU307
 1209              		.thumb
 1210              		.syntax unified
 1211              	.LBE351:
 1212              	.LBE352:
 1213              	.LBE354:
 1214              	.LBE357:
 1215              	.LBE361:
 1216              		.loc 3 356 34 is_stmt 1 view .LVU308
 1217              		.loc 3 357 20 view .LVU309
 1218              		.loc 1 272 3 view .LVU310
 1219              		.loc 1 272 3 view .LVU311
 1220              		.loc 1 273 3 view .LVU312
 1221              		.loc 1 273 3 view .LVU313
 1222              		.loc 1 275 3 view .LVU314
 1223              		.loc 1 275 3 view .LVU315
 1224              		.loc 1 278 3 view .LVU316
 1225 0118 FFF7FEFF 		bl	pwm_lld_enable_channel_notification
 1226              	.LVL34:
 1227              		.loc 1 280 3 view .LVU317
 1228              	.LBB362:
 1229              	.LBI362:
 1230              		.loc 2 520 20 view .LVU318
 1231              	.LBE362:
 1232              		.loc 2 522 3 view .LVU319
 1233              	.LBB371:
 1234              	.LBB363:
 1235              	.LBI363:
 1236              		.loc 3 365 20 view .LVU320
 1237              	.LBB364:
 1238              		.loc 3 367 22 view .LVU321
 1239              		.loc 3 368 33 view .LVU322
 1240              		.loc 3 374 3 view .LVU323
 1241              		.loc 3 374 3 view .LVU324
 1242              		.loc 3 378 3 view .LVU325
 1243              	.LBB365:
 1244              	.LBI365:
 1245              		.loc 4 693 27 view .LVU326
ARM GAS  /tmp/ccCKiVwu.s 			page 23


 1246              	.LBE365:
 1247              	.LBE364:
 1248              	.LBE363:
 1249              	.LBE371:
 1250              		.loc 4 696 3 view .LVU327
 1251              	.LBB372:
 1252              	.LBB370:
 1253              	.LBB369:
 1254              	.LBB368:
 1255              	.LBB366:
 1256              	.LBI366:
 1257              		.loc 5 491 27 view .LVU328
 1258              	.LBB367:
 1259              		.loc 5 493 3 view .LVU329
 1260 011c 0023     		movs	r3, #0
 1261              		.syntax unified
 1262              	@ 493 "../../../external/ChibiOS/os/common/ext/ARM/CMSIS/Core/Include/cmsis_gcc.h" 1
 1263 011e 83F31188 		MSR basepri, r3
 1264              	@ 0 "" 2
 1265              	.LVL35:
 1266              		.loc 5 493 3 is_stmt 0 view .LVU330
 1267              		.thumb
 1268              		.syntax unified
 1269              	.LBE367:
 1270              	.LBE366:
 1271              	.LBE368:
 1272              	.LBE369:
 1273              	.LBE370:
 1274              	.LBE372:
 1275              		.loc 1 281 1 view .LVU331
 1276 0122 08BD     		pop	{r3, pc}
 1277              		.cfi_endproc
 1278              	.LFE371:
 1279              		.size	pwmEnableChannelNotification, .-pwmEnableChannelNotification
 1280              		.align	1
 1281 0124 AFF30080 		.p2align 4,,15
 1281      AFF30080 
 1281      AFF30080 
 1282              		.global	pwmDisableChannelNotification
 1283              		.syntax unified
 1284              		.thumb
 1285              		.thumb_func
 1286              		.fpu fpv4-sp-d16
 1287              		.type	pwmDisableChannelNotification, %function
 1288              	pwmDisableChannelNotification:
 1289              	.LVL36:
 1290              	.LFB372:
 1291              		.loc 1 294 75 is_stmt 1 view -0
 1292              		.cfi_startproc
 1293              		@ args = 0, pretend = 0, frame = 0
 1294              		@ frame_needed = 0, uses_anonymous_args = 0
 1295              		.loc 1 296 3 view .LVU333
 1296              		.loc 1 296 3 view .LVU334
 1297              		.loc 1 298 3 view .LVU335
 1298              	.LBB373:
 1299              	.LBI373:
 1300              		.loc 2 509 20 view .LVU336
ARM GAS  /tmp/ccCKiVwu.s 			page 24


 1301              	.LBE373:
 1302              		.loc 2 511 3 view .LVU337
 1303              	.LBB385:
 1304              	.LBB374:
 1305              	.LBI374:
 1306              		.loc 3 353 20 view .LVU338
 1307              	.LBE374:
 1308              	.LBE385:
 1309              		.loc 3 355 3 view .LVU339
 1310              	.LBB386:
 1311              	.LBB382:
 1312              	.LBB375:
 1313              	.LBI375:
 1314              		.loc 4 669 27 view .LVU340
 1315              	.LBE375:
 1316              	.LBE382:
 1317              	.LBE386:
 1318              		.loc 4 677 3 view .LVU341
 1319              	.LBB387:
 1320              	.LBB383:
 1321              	.LBB380:
 1322              	.LBB376:
 1323              	.LBI376:
 1324              		.loc 5 491 27 view .LVU342
 1325              	.LBB377:
 1326              		.loc 5 493 3 view .LVU343
 1327              	.LBE377:
 1328              	.LBE376:
 1329              	.LBE380:
 1330              	.LBE383:
 1331              	.LBE387:
 1332              		.loc 1 294 75 is_stmt 0 view .LVU344
 1333 0130 08B5     		push	{r3, lr}
 1334              		.cfi_def_cfa_offset 8
 1335              		.cfi_offset 3, -8
 1336              		.cfi_offset 14, -4
 1337              	.LBB388:
 1338              	.LBB384:
 1339              	.LBB381:
 1340              	.LBB379:
 1341              	.LBB378:
 1342              		.loc 5 493 3 view .LVU345
 1343 0132 2023     		movs	r3, #32
 1344              		.syntax unified
 1345              	@ 493 "../../../external/ChibiOS/os/common/ext/ARM/CMSIS/Core/Include/cmsis_gcc.h" 1
 1346 0134 83F31188 		MSR basepri, r3
 1347              	@ 0 "" 2
 1348              	.LVL37:
 1349              		.loc 5 493 3 view .LVU346
 1350              		.thumb
 1351              		.syntax unified
 1352              	.LBE378:
 1353              	.LBE379:
 1354              	.LBE381:
 1355              	.LBE384:
 1356              	.LBE388:
 1357              		.loc 3 356 34 is_stmt 1 view .LVU347
ARM GAS  /tmp/ccCKiVwu.s 			page 25


 1358              		.loc 3 357 20 view .LVU348
 1359              		.loc 1 300 3 view .LVU349
 1360              		.loc 1 300 3 view .LVU350
 1361              		.loc 1 301 3 view .LVU351
 1362              		.loc 1 301 3 view .LVU352
 1363              		.loc 1 303 3 view .LVU353
 1364              		.loc 1 303 3 view .LVU354
 1365              		.loc 1 306 3 view .LVU355
 1366 0138 FFF7FEFF 		bl	pwm_lld_disable_channel_notification
 1367              	.LVL38:
 1368              		.loc 1 308 3 view .LVU356
 1369              	.LBB389:
 1370              	.LBI389:
 1371              		.loc 2 520 20 view .LVU357
 1372              	.LBE389:
 1373              		.loc 2 522 3 view .LVU358
 1374              	.LBB398:
 1375              	.LBB390:
 1376              	.LBI390:
 1377              		.loc 3 365 20 view .LVU359
 1378              	.LBB391:
 1379              		.loc 3 367 22 view .LVU360
 1380              		.loc 3 368 33 view .LVU361
 1381              		.loc 3 374 3 view .LVU362
 1382              		.loc 3 374 3 view .LVU363
 1383              		.loc 3 378 3 view .LVU364
 1384              	.LBB392:
 1385              	.LBI392:
 1386              		.loc 4 693 27 view .LVU365
 1387              	.LBE392:
 1388              	.LBE391:
 1389              	.LBE390:
 1390              	.LBE398:
 1391              		.loc 4 696 3 view .LVU366
 1392              	.LBB399:
 1393              	.LBB397:
 1394              	.LBB396:
 1395              	.LBB395:
 1396              	.LBB393:
 1397              	.LBI393:
 1398              		.loc 5 491 27 view .LVU367
 1399              	.LBB394:
 1400              		.loc 5 493 3 view .LVU368
 1401 013c 0023     		movs	r3, #0
 1402              		.syntax unified
 1403              	@ 493 "../../../external/ChibiOS/os/common/ext/ARM/CMSIS/Core/Include/cmsis_gcc.h" 1
 1404 013e 83F31188 		MSR basepri, r3
 1405              	@ 0 "" 2
 1406              	.LVL39:
 1407              		.loc 5 493 3 is_stmt 0 view .LVU369
 1408              		.thumb
 1409              		.syntax unified
 1410              	.LBE394:
 1411              	.LBE393:
 1412              	.LBE395:
 1413              	.LBE396:
 1414              	.LBE397:
ARM GAS  /tmp/ccCKiVwu.s 			page 26


 1415              	.LBE399:
 1416              		.loc 1 309 1 view .LVU370
 1417 0142 08BD     		pop	{r3, pc}
 1418              		.cfi_endproc
 1419              	.LFE372:
 1420              		.size	pwmDisableChannelNotification, .-pwmDisableChannelNotification
 1421              	.Letext0:
 1422              		.file 6 "/home/nicolas/arm/gcc-arm-none-eabi-8-2019-q3-update/lib/gcc/arm-none-eabi/8.3.1/include/
 1423              		.file 7 "/home/nicolas/arm/gcc-arm-none-eabi-8-2019-q3-update/arm-none-eabi/include/machine/_defau
 1424              		.file 8 "/home/nicolas/arm/gcc-arm-none-eabi-8-2019-q3-update/arm-none-eabi/include/sys/_stdint.h"
 1425              		.file 9 "/home/nicolas/arm/gcc-arm-none-eabi-8-2019-q3-update/arm-none-eabi/include/stdint.h"
 1426              		.file 10 "../../../external/ChibiOS/os/common/ports/ARMCMx/compilers/GCC/chtypes.h"
 1427              		.file 11 "../../../external/ChibiOS/os/rt/include/chsystypes.h"
 1428              		.file 12 "../../../external/ChibiOS/os/rt/include/chschd.h"
 1429              		.file 13 "../../../external/ChibiOS/os/rt/include/chtime.h"
 1430              		.file 14 "../../../external/ChibiOS/os/common/ext/ARM/CMSIS/Core/Include/core_cm7.h"
 1431              		.file 15 "../../../external/ChibiOS/os/common/ext/ST/STM32H7xx/system_stm32h7xx.h"
 1432              		.file 16 "../../../external/ChibiOS/os/common/ext/ST/STM32H7xx/stm32h753xx.h"
 1433              		.file 17 "../../../external/ChibiOS/os/common/ports/ARMCMx/chcore.h"
 1434              		.file 18 "../../../external/ChibiOS/os/rt/include/chtrace.h"
 1435              		.file 19 "../../../external/ChibiOS/os/rt/include/chtm.h"
 1436              		.file 20 "../../../external/ChibiOS/os/rt/include/chsem.h"
 1437              		.file 21 "../../../external/ChibiOS/os/rt/include/chmtx.h"
 1438              		.file 22 "../../../external/ChibiOS/os/rt/include/chregistry.h"
 1439              		.file 23 "../../../external/ChibiOS/os/rt/include/chevents.h"
 1440              		.file 24 "../../../external/ChibiOS/os/oslib/include/chmemcore.h"
 1441              		.file 25 "../../../external/ChibiOS/os/oslib/include/chmempools.h"
 1442              		.file 26 "../../../external/ChibiOS/os/oslib/include/chfactory.h"
 1443              		.file 27 "../../../external/ChibiOS/os/hal/ports/STM32/LLD/DMAv2/stm32_dma.h"
 1444              		.file 28 "../../../external/ChibiOS/os/hal/ports/STM32/LLD/BDMAv1/stm32_bdma.h"
 1445              		.file 29 "../../../external/ChibiOS/os/hal/ports/STM32/LLD/TIMv1/stm32_tim.h"
 1446              		.file 30 "../../../external/ChibiOS/os/hal/include/hal_ioblock.h"
 1447              		.file 31 "../../../external/ChibiOS/os/hal/include/hal_queues.h"
 1448              		.file 32 "../../../external/ChibiOS/os/hal/ports/STM32/LLD/GPIOv2/stm32_gpio.h"
 1449              		.file 33 "../../../external/ChibiOS/os/hal/ports/STM32/LLD/GPIOv2/hal_pal_lld.h"
 1450              		.file 34 "../../../external/ChibiOS/os/hal/include/hal_adc.h"
 1451              		.file 35 "../../../external/ChibiOS/os/hal/ports/STM32/LLD/ADCv4/hal_adc_lld.h"
 1452              		.file 36 "../../../external/ChibiOS/os/hal/include/hal_i2c.h"
 1453              		.file 37 "../../../external/ChibiOS/os/hal/ports/STM32/LLD/I2Cv3/hal_i2c_lld.h"
 1454              		.file 38 "../../../external/ChibiOS/os/hal/include/hal_pwm.h"
 1455              		.file 39 "../../../external/ChibiOS/os/hal/ports/STM32/LLD/TIMv1/hal_pwm_lld.h"
 1456              		.file 40 "../../../external/ChibiOS/os/hal/include/hal_serial.h"
 1457              		.file 41 "../../../external/ChibiOS/os/hal/ports/STM32/LLD/USARTv2/hal_serial_lld.h"
 1458              		.file 42 "../../../external/ChibiOS/os/hal/include/hal_sdc.h"
 1459              		.file 43 "../../../external/ChibiOS/os/hal/ports/STM32/LLD/SDMMCv2/hal_sdc_lld.h"
 1460              		.file 44 "../../../external/ChibiOS/os/hal/include/hal_spi.h"
 1461              		.file 45 "../../../external/ChibiOS/os/hal/ports/STM32/LLD/SPIv3/hal_spi_lld.h"
 1462              		.file 46 "../../../external/ChibiOS/os/hal/include/hal_trng.h"
 1463              		.file 47 "../../../external/ChibiOS/os/hal/ports/STM32/LLD/RNGv1/hal_trng_lld.h"
 1464              		.file 48 "../../../external/ChibiOS/os/hal/include/hal_usb.h"
 1465              		.file 49 "../../../external/ChibiOS/os/hal/ports/STM32/LLD/OTGv1/hal_usb_lld.h"
 1466              		.file 50 "../../../external/ChibiOS/os/hal/ports/STM32/LLD/OTGv1/stm32_otg.h"
 1467              		.file 51 "../../../external/ChibiOS-Contrib/os/hal/include/hal_fsmc.h"
 1468              		.file 52 "../../../external/ChibiOS-Contrib/os/hal/include/hal_sdram.h"