ARM GAS  /tmp/ccpnbTSa.s 			page 1


   1              		.cpu cortex-m7
   2              		.eabi_attribute 27, 1
   3              		.eabi_attribute 28, 1
   4              		.eabi_attribute 20, 1
   5              		.eabi_attribute 21, 1
   6              		.eabi_attribute 23, 3
   7              		.eabi_attribute 24, 1
   8              		.eabi_attribute 25, 1
   9              		.eabi_attribute 26, 1
  10              		.eabi_attribute 30, 2
  11              		.eabi_attribute 34, 1
  12              		.eabi_attribute 18, 4
  13              		.file	"hal_usb.c"
  14              		.text
  15              	.Ltext0:
  16              		.cfi_sections	.debug_frame
  17              		.align	1
  18              		.p2align 4,,15
  19              		.global	usbInit
  20              		.arch armv7e-m
  21              		.syntax unified
  22              		.thumb
  23              		.thumb_func
  24              		.fpu fpv4-sp-d16
  25              		.type	usbInit, %function
  26              	usbInit:
  27              	.LFB365:
  28              		.file 1 "../../../external/ChibiOS/os/hal/src/hal_usb.c"
  29              		.loc 1 270 20 view -0
  30              		.cfi_startproc
  31              		@ args = 0, pretend = 0, frame = 0
  32              		@ frame_needed = 0, uses_anonymous_args = 0
  33              		@ link register save eliminated.
  34              		.loc 1 272 3 view .LVU1
  35 0000 FFF7FEBF 		b	usb_lld_init
  36              	.LVL0:
  37              		.cfi_endproc
  38              	.LFE365:
  39              		.size	usbInit, .-usbInit
  40              		.align	1
  41 0004 AFF30080 		.p2align 4,,15
  41      AFF30080 
  41      AFF30080 
  42              		.global	usbObjectInit
  43              		.syntax unified
  44              		.thumb
  45              		.thumb_func
  46              		.fpu fpv4-sp-d16
  47              		.type	usbObjectInit, %function
  48              	usbObjectInit:
  49              	.LVL1:
  50              	.LFB366:
  51              		.loc 1 282 37 view -0
  52              		.cfi_startproc
  53              		@ args = 0, pretend = 0, frame = 0
  54              		@ frame_needed = 0, uses_anonymous_args = 0
  55              		@ link register save eliminated.
ARM GAS  /tmp/ccpnbTSa.s 			page 2


  56              		.loc 1 283 3 view .LVU3
  57              		.loc 1 285 3 view .LVU4
  58              		.loc 1 282 37 is_stmt 0 view .LVU5
  59 0010 30B4     		push	{r4, r5}
  60              		.cfi_def_cfa_offset 8
  61              		.cfi_offset 4, -8
  62              		.cfi_offset 5, -4
  63              		.loc 1 286 22 view .LVU6
  64 0012 0024     		movs	r4, #0
  65              		.loc 1 285 22 view .LVU7
  66 0014 0125     		movs	r5, #1
  67 0016 00F13003 		add	r3, r0, #48
  68 001a 00F15001 		add	r1, r0, #80
  69              		.loc 1 288 25 view .LVU8
  70 001e 2246     		mov	r2, r4
  71              		.loc 1 285 22 view .LVU9
  72 0020 0570     		strb	r5, [r0]
  73              		.loc 1 286 3 is_stmt 1 view .LVU10
  74              		.loc 1 286 22 is_stmt 0 view .LVU11
  75 0022 4460     		str	r4, [r0, #4]
  76              		.loc 1 287 3 is_stmt 1 view .LVU12
  77              	.LVL2:
  78              	.L4:
  79              		.loc 1 288 5 discriminator 3 view .LVU13
  80              		.loc 1 288 25 is_stmt 0 discriminator 3 view .LVU14
  81 0024 43F8042B 		str	r2, [r3], #4
  82              		.loc 1 289 5 is_stmt 1 discriminator 3 view .LVU15
  83              		.loc 1 287 3 is_stmt 0 discriminator 3 view .LVU16
  84 0028 8B42     		cmp	r3, r1
  85              		.loc 1 289 25 discriminator 3 view .LVU17
  86 002a DA61     		str	r2, [r3, #28]
  87              		.loc 1 287 3 discriminator 3 view .LVU18
  88 002c FAD1     		bne	.L4
  89              		.loc 1 291 3 is_stmt 1 view .LVU19
  90              		.loc 1 292 3 view .LVU20
  91              		.loc 1 291 22 is_stmt 0 view .LVU21
  92 002e 8260     		str	r2, [r0, #8]
  93              		.loc 1 293 1 view .LVU22
  94 0030 30BC     		pop	{r4, r5}
  95              		.cfi_restore 5
  96              		.cfi_restore 4
  97              		.cfi_def_cfa_offset 0
  98 0032 7047     		bx	lr
  99              		.cfi_endproc
 100              	.LFE366:
 101              		.size	usbObjectInit, .-usbObjectInit
 102              		.align	1
 103 0034 AFF30080 		.p2align 4,,15
 103      AFF30080 
 103      AFF30080 
 104              		.global	usbStart
 105              		.syntax unified
 106              		.thumb
 107              		.thumb_func
 108              		.fpu fpv4-sp-d16
 109              		.type	usbStart, %function
 110              	usbStart:
ARM GAS  /tmp/ccpnbTSa.s 			page 3


 111              	.LVL3:
 112              	.LFB367:
 113              		.loc 1 303 57 is_stmt 1 view -0
 114              		.cfi_startproc
 115              		@ args = 0, pretend = 0, frame = 0
 116              		@ frame_needed = 0, uses_anonymous_args = 0
 117              		.loc 1 304 3 view .LVU24
 118              		.loc 1 306 3 view .LVU25
 119              		.loc 1 306 3 view .LVU26
 120              		.loc 1 308 3 view .LVU27
 121              	.LBB309:
 122              	.LBI309:
 123              		.file 2 "../../../external/ChibiOS/os/hal/osal/rt-nil/osal.h"
 124              		.loc 2 509 20 view .LVU28
 125              	.LBE309:
 126              		.loc 2 511 3 view .LVU29
 127              	.LBB321:
 128              	.LBB310:
 129              	.LBI310:
 130              		.file 3 "../../../external/ChibiOS/os/rt/include/chsys.h"
 131              		.loc 3 353 20 view .LVU30
 132              	.LBE310:
 133              	.LBE321:
 134              		.loc 3 355 3 view .LVU31
 135              	.LBB322:
 136              	.LBB318:
 137              	.LBB311:
 138              	.LBI311:
 139              		.file 4 "../../../external/ChibiOS/os/common/ports/ARMCMx/chcore_v7m.h"
 140              		.loc 4 669 27 view .LVU32
 141              	.LBE311:
 142              	.LBE318:
 143              	.LBE322:
 144              		.loc 4 677 3 view .LVU33
 145              	.LBB323:
 146              	.LBB319:
 147              	.LBB316:
 148              	.LBB312:
 149              	.LBI312:
 150              		.file 5 "../../../external/ChibiOS/os/common/ext/ARM/CMSIS/Core/Include/cmsis_gcc.h"
 151              		.loc 5 491 27 view .LVU34
 152              	.LBB313:
 153              		.loc 5 493 3 view .LVU35
 154              	.LBE313:
 155              	.LBE312:
 156              	.LBE316:
 157              	.LBE319:
 158              	.LBE323:
 159              		.loc 1 303 57 is_stmt 0 view .LVU36
 160 0040 38B5     		push	{r3, r4, r5, lr}
 161              		.cfi_def_cfa_offset 16
 162              		.cfi_offset 3, -16
 163              		.cfi_offset 4, -12
 164              		.cfi_offset 5, -8
 165              		.cfi_offset 14, -4
 166              		.loc 1 303 57 view .LVU37
 167 0042 0546     		mov	r5, r0
ARM GAS  /tmp/ccpnbTSa.s 			page 4


 168              	.LBB324:
 169              	.LBB320:
 170              	.LBB317:
 171              	.LBB315:
 172              	.LBB314:
 173              		.loc 5 493 3 view .LVU38
 174 0044 2023     		movs	r3, #32
 175              		.syntax unified
 176              	@ 493 "../../../external/ChibiOS/os/common/ext/ARM/CMSIS/Core/Include/cmsis_gcc.h" 1
 177 0046 83F31188 		MSR basepri, r3
 178              	@ 0 "" 2
 179              	.LVL4:
 180              		.loc 5 493 3 view .LVU39
 181              		.thumb
 182              		.syntax unified
 183              	.LBE314:
 184              	.LBE315:
 185              	.LBE317:
 186              	.LBE320:
 187              	.LBE324:
 188              		.loc 3 356 34 is_stmt 1 view .LVU40
 189              		.loc 3 357 20 view .LVU41
 190              		.loc 1 309 3 view .LVU42
 191              		.loc 1 309 3 view .LVU43
 192              		.loc 1 311 3 view .LVU44
 193              		.loc 1 313 18 is_stmt 0 view .LVU45
 194 004a 0024     		movs	r4, #0
 195 004c 00F10803 		add	r3, r0, #8
 196 0050 00F12C02 		add	r2, r0, #44
 197              		.loc 1 311 16 view .LVU46
 198 0054 4160     		str	r1, [r0, #4]
 199              		.loc 1 312 3 is_stmt 1 view .LVU47
 200              	.LVL5:
 201              	.L8:
 202              		.loc 1 313 5 discriminator 3 view .LVU48
 203              		.loc 1 313 18 is_stmt 0 discriminator 3 view .LVU49
 204 0056 43F8044F 		str	r4, [r3, #4]!
 205              		.loc 1 312 3 discriminator 3 view .LVU50
 206 005a 9342     		cmp	r3, r2
 207 005c FBD1     		bne	.L8
 208              		.loc 1 315 3 is_stmt 1 view .LVU51
 209 005e 2846     		mov	r0, r5
 210              	.LVL6:
 211              		.loc 1 315 3 is_stmt 0 view .LVU52
 212 0060 FFF7FEFF 		bl	usb_lld_start
 213              	.LVL7:
 214              		.loc 1 316 3 is_stmt 1 view .LVU53
 215              		.loc 1 316 15 is_stmt 0 view .LVU54
 216 0064 0223     		movs	r3, #2
 217 0066 2B70     		strb	r3, [r5]
 218              		.loc 1 317 3 is_stmt 1 view .LVU55
 219              	.LBB325:
 220              	.LBI325:
 221              		.loc 2 520 20 view .LVU56
 222              	.LBE325:
 223              		.loc 2 522 3 view .LVU57
 224              	.LBB334:
ARM GAS  /tmp/ccpnbTSa.s 			page 5


 225              	.LBB326:
 226              	.LBI326:
 227              		.loc 3 365 20 view .LVU58
 228              	.LBB327:
 229              		.loc 3 367 22 view .LVU59
 230              		.loc 3 368 33 view .LVU60
 231              		.loc 3 374 3 view .LVU61
 232              		.loc 3 374 3 view .LVU62
 233              		.loc 3 378 3 view .LVU63
 234              	.LBB328:
 235              	.LBI328:
 236              		.loc 4 693 27 view .LVU64
 237              	.LBE328:
 238              	.LBE327:
 239              	.LBE326:
 240              	.LBE334:
 241              		.loc 4 696 3 view .LVU65
 242              	.LVL8:
 243              	.LBB335:
 244              	.LBB333:
 245              	.LBB332:
 246              	.LBB331:
 247              	.LBB329:
 248              	.LBI329:
 249              		.loc 5 491 27 view .LVU66
 250              	.LBB330:
 251              		.loc 5 493 3 view .LVU67
 252              		.syntax unified
 253              	@ 493 "../../../external/ChibiOS/os/common/ext/ARM/CMSIS/Core/Include/cmsis_gcc.h" 1
 254 0068 84F31188 		MSR basepri, r4
 255              	@ 0 "" 2
 256              	.LVL9:
 257              		.loc 5 493 3 is_stmt 0 view .LVU68
 258              		.thumb
 259              		.syntax unified
 260              	.LBE330:
 261              	.LBE329:
 262              	.LBE331:
 263              	.LBE332:
 264              	.LBE333:
 265              	.LBE335:
 266              		.loc 1 318 1 view .LVU69
 267 006c 38BD     		pop	{r3, r4, r5, pc}
 268              		.loc 1 318 1 view .LVU70
 269              		.cfi_endproc
 270              	.LFE367:
 271              		.size	usbStart, .-usbStart
 272              		.align	1
 273 006e 00BF     		.p2align 4,,15
 274              		.global	usbStop
 275              		.syntax unified
 276              		.thumb
 277              		.thumb_func
 278              		.fpu fpv4-sp-d16
 279              		.type	usbStop, %function
 280              	usbStop:
 281              	.LVL10:
ARM GAS  /tmp/ccpnbTSa.s 			page 6


 282              	.LFB368:
 283              		.loc 1 327 31 is_stmt 1 view -0
 284              		.cfi_startproc
 285              		@ args = 0, pretend = 0, frame = 0
 286              		@ frame_needed = 0, uses_anonymous_args = 0
 287              		.loc 1 328 3 view .LVU72
 288              		.loc 1 330 3 view .LVU73
 289              		.loc 1 330 3 view .LVU74
 290              		.loc 1 332 3 view .LVU75
 291              	.LBB336:
 292              	.LBI336:
 293              		.loc 2 509 20 view .LVU76
 294              	.LBE336:
 295              		.loc 2 511 3 view .LVU77
 296              	.LBB348:
 297              	.LBB337:
 298              	.LBI337:
 299              		.loc 3 353 20 view .LVU78
 300              	.LBE337:
 301              	.LBE348:
 302              		.loc 3 355 3 view .LVU79
 303              	.LBB349:
 304              	.LBB345:
 305              	.LBB338:
 306              	.LBI338:
 307              		.loc 4 669 27 view .LVU80
 308              	.LBE338:
 309              	.LBE345:
 310              	.LBE349:
 311              		.loc 4 677 3 view .LVU81
 312              	.LBB350:
 313              	.LBB346:
 314              	.LBB343:
 315              	.LBB339:
 316              	.LBI339:
 317              		.loc 5 491 27 view .LVU82
 318              	.LBB340:
 319              		.loc 5 493 3 view .LVU83
 320              	.LBE340:
 321              	.LBE339:
 322              	.LBE343:
 323              	.LBE346:
 324              	.LBE350:
 325              		.loc 1 327 31 is_stmt 0 view .LVU84
 326 0070 F8B5     		push	{r3, r4, r5, r6, r7, lr}
 327              		.cfi_def_cfa_offset 24
 328              		.cfi_offset 3, -24
 329              		.cfi_offset 4, -20
 330              		.cfi_offset 5, -16
 331              		.cfi_offset 6, -12
 332              		.cfi_offset 7, -8
 333              		.cfi_offset 14, -4
 334              		.loc 1 327 31 view .LVU85
 335 0072 0746     		mov	r7, r0
 336              	.LBB351:
 337              	.LBB347:
 338              	.LBB344:
ARM GAS  /tmp/ccpnbTSa.s 			page 7


 339              	.LBB342:
 340              	.LBB341:
 341              		.loc 5 493 3 view .LVU86
 342 0074 2023     		movs	r3, #32
 343              		.syntax unified
 344              	@ 493 "../../../external/ChibiOS/os/common/ext/ARM/CMSIS/Core/Include/cmsis_gcc.h" 1
 345 0076 83F31188 		MSR basepri, r3
 346              	@ 0 "" 2
 347              	.LVL11:
 348              		.loc 5 493 3 view .LVU87
 349              		.thumb
 350              		.syntax unified
 351              	.LBE341:
 352              	.LBE342:
 353              	.LBE344:
 354              	.LBE347:
 355              	.LBE351:
 356              		.loc 3 356 34 is_stmt 1 view .LVU88
 357              		.loc 3 357 20 view .LVU89
 358              		.loc 1 334 3 view .LVU90
 359              		.loc 1 334 3 view .LVU91
 360              		.loc 1 339 3 view .LVU92
 361 007a FFF7FEFF 		bl	usb_lld_stop
 362              	.LVL12:
 363              		.loc 1 340 3 view .LVU93
 364              		.loc 1 340 16 is_stmt 0 view .LVU94
 365 007e 0023     		movs	r3, #0
 366              		.loc 1 341 16 view .LVU95
 367 0080 3C46     		mov	r4, r7
 368 0082 0122     		movs	r2, #1
 369 0084 07F12C06 		add	r6, r7, #44
 370              		.loc 1 355 18 view .LVU96
 371 0088 1D46     		mov	r5, r3
 372              		.loc 1 340 16 view .LVU97
 373 008a 7B60     		str	r3, [r7, #4]
 374              		.loc 1 341 3 is_stmt 1 view .LVU98
 375              		.loc 1 341 16 is_stmt 0 view .LVU99
 376 008c 04F8082B 		strb	r2, [r4], #8
 377              		.loc 1 344 3 is_stmt 1 view .LVU100
 378              	.LVL13:
 379              	.L16:
 380              		.loc 1 346 5 view .LVU101
 381              		.loc 1 347 7 view .LVU102
 382              		.loc 1 346 18 is_stmt 0 view .LVU103
 383 0090 54F8043F 		ldr	r3, [r4, #4]!
 384              		.loc 1 346 8 view .LVU104
 385 0094 83B1     		cbz	r3, .L13
 386              		.loc 1 348 9 is_stmt 1 view .LVU105
 387              		.loc 1 347 23 is_stmt 0 view .LVU106
 388 0096 5A69     		ldr	r2, [r3, #20]
 389              	.LVL14:
 390              	.LBB352:
 391              	.LBI352:
 392              		.loc 2 773 20 is_stmt 1 view .LVU107
 393              	.LBB353:
 394              		.loc 2 775 3 view .LVU108
 395 0098 6FF00101 		mvn	r1, #1
ARM GAS  /tmp/ccpnbTSa.s 			page 8


 396 009c 02F10C00 		add	r0, r2, #12
 397              	.LVL15:
 398              		.loc 2 775 3 is_stmt 0 view .LVU109
 399              	.LBE353:
 400              	.LBE352:
 401              		.loc 1 347 10 view .LVU110
 402 00a0 12B1     		cbz	r2, .L14
 403              	.LBB355:
 404              	.LBB354:
 405              		.loc 2 775 3 view .LVU111
 406 00a2 FFF7FEFF 		bl	chThdResumeI
 407              	.LVL16:
 408              		.loc 2 775 3 view .LVU112
 409 00a6 2368     		ldr	r3, [r4]
 410              	.L14:
 411              	.LBE354:
 412              	.LBE355:
 413              		.loc 1 350 7 is_stmt 1 view .LVU113
 414              		.loc 1 351 9 view .LVU114
 415              		.loc 1 350 23 is_stmt 0 view .LVU115
 416 00a8 9B69     		ldr	r3, [r3, #24]
 417              	.LVL17:
 418              	.LBB356:
 419              	.LBI356:
 420              		.loc 2 773 20 is_stmt 1 view .LVU116
 421              	.LBB357:
 422              		.loc 2 775 3 view .LVU117
 423 00aa 6FF00101 		mvn	r1, #1
 424 00ae 03F10C00 		add	r0, r3, #12
 425              	.LVL18:
 426              		.loc 2 775 3 is_stmt 0 view .LVU118
 427              	.LBE357:
 428              	.LBE356:
 429              		.loc 1 350 10 view .LVU119
 430 00b2 0BB1     		cbz	r3, .L13
 431              	.LBB359:
 432              	.LBB358:
 433              		.loc 2 775 3 view .LVU120
 434 00b4 FFF7FEFF 		bl	chThdResumeI
 435              	.LVL19:
 436              	.L13:
 437              		.loc 2 775 3 view .LVU121
 438              	.LBE358:
 439              	.LBE359:
 440              		.loc 1 355 5 is_stmt 1 discriminator 2 view .LVU122
 441              		.loc 1 344 3 is_stmt 0 discriminator 2 view .LVU123
 442 00b8 B442     		cmp	r4, r6
 443              		.loc 1 355 18 discriminator 2 view .LVU124
 444 00ba 2560     		str	r5, [r4]
 445              		.loc 1 344 3 discriminator 2 view .LVU125
 446 00bc E8D1     		bne	.L16
 447              		.loc 1 357 3 is_stmt 1 view .LVU126
 448              	.LBB360:
 449              	.LBI360:
 450              		.loc 2 616 20 view .LVU127
 451              	.LBB361:
 452              		.loc 2 618 3 view .LVU128
ARM GAS  /tmp/ccpnbTSa.s 			page 9


 453 00be FFF7FEFF 		bl	chSchRescheduleS
 454              	.LVL20:
 455              	.LBE361:
 456              	.LBE360:
 457              		.loc 1 359 3 view .LVU129
 458              	.LBB362:
 459              	.LBI362:
 460              		.loc 2 520 20 view .LVU130
 461              	.LBE362:
 462              		.loc 2 522 3 view .LVU131
 463              	.LBB371:
 464              	.LBB363:
 465              	.LBI363:
 466              		.loc 3 365 20 view .LVU132
 467              	.LBB364:
 468              		.loc 3 367 22 view .LVU133
 469              		.loc 3 368 33 view .LVU134
 470              		.loc 3 374 3 view .LVU135
 471              		.loc 3 374 3 view .LVU136
 472              		.loc 3 378 3 view .LVU137
 473              	.LBB365:
 474              	.LBI365:
 475              		.loc 4 693 27 view .LVU138
 476              	.LBE365:
 477              	.LBE364:
 478              	.LBE363:
 479              	.LBE371:
 480              		.loc 4 696 3 view .LVU139
 481              	.LBB372:
 482              	.LBB370:
 483              	.LBB369:
 484              	.LBB368:
 485              	.LBB366:
 486              	.LBI366:
 487              		.loc 5 491 27 view .LVU140
 488              	.LBB367:
 489              		.loc 5 493 3 view .LVU141
 490              		.syntax unified
 491              	@ 493 "../../../external/ChibiOS/os/common/ext/ARM/CMSIS/Core/Include/cmsis_gcc.h" 1
 492 00c2 85F31188 		MSR basepri, r5
 493              	@ 0 "" 2
 494              	.LVL21:
 495              		.loc 5 493 3 is_stmt 0 view .LVU142
 496              		.thumb
 497              		.syntax unified
 498              	.LBE367:
 499              	.LBE366:
 500              	.LBE368:
 501              	.LBE369:
 502              	.LBE370:
 503              	.LBE372:
 504              		.loc 1 360 1 view .LVU143
 505 00c6 F8BD     		pop	{r3, r4, r5, r6, r7, pc}
 506              		.loc 1 360 1 view .LVU144
 507              		.cfi_endproc
 508              	.LFE368:
 509              		.size	usbStop, .-usbStop
ARM GAS  /tmp/ccpnbTSa.s 			page 10


 510              		.align	1
 511 00c8 AFF30080 		.p2align 4,,15
 511      AFF30080 
 512              		.global	usbInitEndpointI
 513              		.syntax unified
 514              		.thumb
 515              		.thumb_func
 516              		.fpu fpv4-sp-d16
 517              		.type	usbInitEndpointI, %function
 518              	usbInitEndpointI:
 519              	.LVL22:
 520              	.LFB369:
 521              		.loc 1 376 54 is_stmt 1 view -0
 522              		.cfi_startproc
 523              		@ args = 0, pretend = 0, frame = 0
 524              		@ frame_needed = 0, uses_anonymous_args = 0
 525              		@ link register save eliminated.
 526              		.loc 1 378 23 view .LVU146
 527              		.loc 1 379 3 view .LVU147
 528              		.loc 1 379 3 view .LVU148
 529              		.loc 1 380 3 view .LVU149
 530              		.loc 1 380 3 view .LVU150
 531              		.loc 1 382 3 view .LVU151
 532              		.loc 1 382 3 view .LVU152
 533              		.loc 1 385 3 view .LVU153
 534              		.loc 1 376 54 is_stmt 0 view .LVU154
 535 00d0 10B4     		push	{r4}
 536              		.cfi_def_cfa_offset 4
 537              		.cfi_offset 4, -4
 538              		.loc 1 388 11 view .LVU155
 539 00d2 5369     		ldr	r3, [r2, #20]
 540              		.loc 1 385 17 view .LVU156
 541 00d4 00EB8104 		add	r4, r0, r1, lsl #2
 542 00d8 E260     		str	r2, [r4, #12]
 543              		.loc 1 388 3 is_stmt 1 view .LVU157
 544              		.loc 1 388 6 is_stmt 0 view .LVU158
 545 00da 2BB1     		cbz	r3, .L26
 546              		.loc 1 389 5 is_stmt 1 view .LVU159
 547 00dc 0024     		movs	r4, #0
 548 00de 1C60     		str	r4, [r3]	@ unaligned
 549 00e0 5C60     		str	r4, [r3, #4]	@ unaligned
 550 00e2 9C60     		str	r4, [r3, #8]	@ unaligned
 551 00e4 DC60     		str	r4, [r3, #12]	@ unaligned
 552 00e6 1C61     		str	r4, [r3, #16]	@ unaligned
 553              	.L26:
 554              		.loc 1 391 3 view .LVU160
 555              		.loc 1 391 11 is_stmt 0 view .LVU161
 556 00e8 9369     		ldr	r3, [r2, #24]
 557              		.loc 1 391 6 view .LVU162
 558 00ea 2BB1     		cbz	r3, .L27
 559              		.loc 1 392 5 is_stmt 1 view .LVU163
 560 00ec 0022     		movs	r2, #0
 561              	.LVL23:
 562              		.loc 1 392 5 is_stmt 0 view .LVU164
 563 00ee 1A60     		str	r2, [r3]	@ unaligned
 564 00f0 5A60     		str	r2, [r3, #4]	@ unaligned
 565 00f2 9A60     		str	r2, [r3, #8]	@ unaligned
ARM GAS  /tmp/ccpnbTSa.s 			page 11


 566 00f4 DA60     		str	r2, [r3, #12]	@ unaligned
 567 00f6 1A61     		str	r2, [r3, #16]	@ unaligned
 568              	.L27:
 569              		.loc 1 396 3 is_stmt 1 view .LVU165
 570              		.loc 1 397 1 is_stmt 0 view .LVU166
 571 00f8 5DF8044B 		ldr	r4, [sp], #4
 572              		.cfi_restore 4
 573              		.cfi_def_cfa_offset 0
 574              		.loc 1 396 3 view .LVU167
 575 00fc FFF7FEBF 		b	usb_lld_init_endpoint
 576              	.LVL24:
 577              		.loc 1 396 3 view .LVU168
 578              		.cfi_endproc
 579              	.LFE369:
 580              		.size	usbInitEndpointI, .-usbInitEndpointI
 581              		.align	1
 582              		.p2align 4,,15
 583              		.global	usbDisableEndpointsI
 584              		.syntax unified
 585              		.thumb
 586              		.thumb_func
 587              		.fpu fpv4-sp-d16
 588              		.type	usbDisableEndpointsI, %function
 589              	usbDisableEndpointsI:
 590              	.LVL25:
 591              	.LFB370:
 592              		.loc 1 410 44 is_stmt 1 view -0
 593              		.cfi_startproc
 594              		@ args = 0, pretend = 0, frame = 0
 595              		@ frame_needed = 0, uses_anonymous_args = 0
 596              		.loc 1 411 3 view .LVU170
 597              		.loc 1 413 23 view .LVU171
 598              		.loc 1 414 3 view .LVU172
 599              		.loc 1 414 3 view .LVU173
 600              		.loc 1 415 3 view .LVU174
 601              		.loc 1 415 3 view .LVU175
 602              		.loc 1 417 3 view .LVU176
 603              		.loc 1 418 3 view .LVU177
 604              		.loc 1 410 44 is_stmt 0 view .LVU178
 605 0100 F8B5     		push	{r3, r4, r5, r6, r7, lr}
 606              		.cfi_def_cfa_offset 24
 607              		.cfi_offset 3, -24
 608              		.cfi_offset 4, -20
 609              		.cfi_offset 5, -16
 610              		.cfi_offset 6, -12
 611              		.cfi_offset 7, -8
 612              		.cfi_offset 14, -4
 613              		.loc 1 417 22 view .LVU179
 614 0102 8368     		ldr	r3, [r0, #8]
 615              		.loc 1 410 44 view .LVU180
 616 0104 0746     		mov	r7, r0
 617              		.loc 1 432 18 view .LVU181
 618 0106 0026     		movs	r6, #0
 619 0108 00F11004 		add	r4, r0, #16
 620              		.loc 1 417 22 view .LVU182
 621 010c 03F00113 		and	r3, r3, #65537
 622 0110 00F13005 		add	r5, r0, #48
ARM GAS  /tmp/ccpnbTSa.s 			page 12


 623 0114 8360     		str	r3, [r0, #8]
 624              		.loc 1 420 3 is_stmt 1 view .LVU183
 625              	.LVL26:
 626              	.L40:
 627              		.loc 1 423 5 view .LVU184
 628              		.loc 1 424 7 view .LVU185
 629              		.loc 1 423 18 is_stmt 0 view .LVU186
 630 0116 54F8043B 		ldr	r3, [r4], #4
 631              		.loc 1 423 8 view .LVU187
 632 011a 8BB1     		cbz	r3, .L37
 633              		.loc 1 425 9 is_stmt 1 view .LVU188
 634              		.loc 1 424 23 is_stmt 0 view .LVU189
 635 011c 5A69     		ldr	r2, [r3, #20]
 636              	.LVL27:
 637              	.LBB373:
 638              	.LBI373:
 639              		.loc 2 773 20 is_stmt 1 view .LVU190
 640              	.LBB374:
 641              		.loc 2 775 3 view .LVU191
 642 011e 6FF00101 		mvn	r1, #1
 643 0122 02F10C00 		add	r0, r2, #12
 644              	.LVL28:
 645              		.loc 2 775 3 is_stmt 0 view .LVU192
 646              	.LBE374:
 647              	.LBE373:
 648              		.loc 1 424 10 view .LVU193
 649 0126 1AB1     		cbz	r2, .L38
 650              	.LBB376:
 651              	.LBB375:
 652              		.loc 2 775 3 view .LVU194
 653 0128 FFF7FEFF 		bl	chThdResumeI
 654              	.LVL29:
 655              		.loc 2 775 3 view .LVU195
 656 012c 54F8043C 		ldr	r3, [r4, #-4]
 657              	.L38:
 658              	.LBE375:
 659              	.LBE376:
 660              		.loc 1 427 7 is_stmt 1 view .LVU196
 661              		.loc 1 428 9 view .LVU197
 662              		.loc 1 427 23 is_stmt 0 view .LVU198
 663 0130 9B69     		ldr	r3, [r3, #24]
 664              	.LVL30:
 665              	.LBB377:
 666              	.LBI377:
 667              		.loc 2 773 20 is_stmt 1 view .LVU199
 668              	.LBB378:
 669              		.loc 2 775 3 view .LVU200
 670 0132 6FF00101 		mvn	r1, #1
 671 0136 03F10C00 		add	r0, r3, #12
 672              	.LVL31:
 673              		.loc 2 775 3 is_stmt 0 view .LVU201
 674              	.LBE378:
 675              	.LBE377:
 676              		.loc 1 427 10 view .LVU202
 677 013a 0BB1     		cbz	r3, .L37
 678              	.LBB380:
 679              	.LBB379:
ARM GAS  /tmp/ccpnbTSa.s 			page 13


 680              		.loc 2 775 3 view .LVU203
 681 013c FFF7FEFF 		bl	chThdResumeI
 682              	.LVL32:
 683              	.L37:
 684              		.loc 2 775 3 view .LVU204
 685              	.LBE379:
 686              	.LBE380:
 687              		.loc 1 432 5 is_stmt 1 discriminator 2 view .LVU205
 688              		.loc 1 420 3 is_stmt 0 discriminator 2 view .LVU206
 689 0140 AC42     		cmp	r4, r5
 690              		.loc 1 432 18 discriminator 2 view .LVU207
 691 0142 44F8046C 		str	r6, [r4, #-4]
 692              		.loc 1 420 3 discriminator 2 view .LVU208
 693 0146 E6D1     		bne	.L40
 694              		.loc 1 436 3 is_stmt 1 view .LVU209
 695 0148 3846     		mov	r0, r7
 696              		.loc 1 437 1 is_stmt 0 view .LVU210
 697 014a BDE8F840 		pop	{r3, r4, r5, r6, r7, lr}
 698              		.cfi_restore 14
 699              		.cfi_restore 7
 700              		.cfi_restore 6
 701              		.cfi_restore 5
 702              		.cfi_restore 4
 703              		.cfi_restore 3
 704              		.cfi_def_cfa_offset 0
 705              	.LVL33:
 706              		.loc 1 436 3 view .LVU211
 707 014e FFF7FEBF 		b	usb_lld_disable_endpoints
 708              	.LVL34:
 709              		.loc 1 436 3 view .LVU212
 710              		.cfi_endproc
 711              	.LFE370:
 712              		.size	usbDisableEndpointsI, .-usbDisableEndpointsI
 713              		.align	1
 714 0152 00BFAFF3 		.p2align 4,,15
 714      0080AFF3 
 714      0080AFF3 
 714      0080
 715              		.global	usbStartReceiveI
 716              		.syntax unified
 717              		.thumb
 718              		.thumb_func
 719              		.fpu fpv4-sp-d16
 720              		.type	usbStartReceiveI, %function
 721              	usbStartReceiveI:
 722              	.LVL35:
 723              	.LFB371:
 724              		.loc 1 454 47 is_stmt 1 view -0
 725              		.cfi_startproc
 726              		@ args = 0, pretend = 0, frame = 0
 727              		@ frame_needed = 0, uses_anonymous_args = 0
 728              		.loc 1 455 3 view .LVU214
 729              		.loc 1 457 23 view .LVU215
 730              		.loc 1 458 3 view .LVU216
 731              		.loc 1 458 3 view .LVU217
 732              		.loc 1 459 3 view .LVU218
 733              		.loc 1 459 3 view .LVU219
ARM GAS  /tmp/ccpnbTSa.s 			page 14


 734              		.loc 1 462 3 view .LVU220
 735              		.loc 1 454 47 is_stmt 0 view .LVU221
 736 0160 F0B5     		push	{r4, r5, r6, r7, lr}
 737              		.cfi_def_cfa_offset 20
 738              		.cfi_offset 4, -20
 739              		.cfi_offset 5, -16
 740              		.cfi_offset 6, -12
 741              		.cfi_offset 7, -8
 742              		.cfi_offset 14, -4
 743              		.loc 1 466 18 view .LVU222
 744 0162 00EB810E 		add	lr, r0, r1, lsl #2
 745              		.loc 1 462 46 view .LVU223
 746 0166 0124     		movs	r4, #1
 747              		.loc 1 462 19 view .LVU224
 748 0168 B0F80AC0 		ldrh	ip, [r0, #10]
 749              		.loc 1 470 15 view .LVU225
 750 016c 0027     		movs	r7, #0
 751              		.loc 1 466 7 view .LVU226
 752 016e DEF80C50 		ldr	r5, [lr, #12]
 753              		.loc 1 462 46 view .LVU227
 754 0172 8C40     		lsls	r4, r4, r1
 755              		.loc 1 466 7 view .LVU228
 756 0174 AD69     		ldr	r5, [r5, #24]
 757              		.loc 1 462 19 view .LVU229
 758 0176 44EA0C04 		orr	r4, r4, ip
 759 017a 4481     		strh	r4, [r0, #10]	@ movhi
 760              		.loc 1 466 3 is_stmt 1 view .LVU230
 761              	.LVL36:
 762              		.loc 1 468 3 view .LVU231
 763              		.loc 1 468 15 is_stmt 0 view .LVU232
 764 017c AA60     		str	r2, [r5, #8]
 765              		.loc 1 469 3 is_stmt 1 view .LVU233
 766              		.loc 1 472 15 is_stmt 0 view .LVU234
 767 017e EF60     		str	r7, [r5, #12]
 768              		.loc 1 470 15 view .LVU235
 769 0180 C5E90037 		strd	r3, r7, [r5]
 770              		.loc 1 472 3 is_stmt 1 view .LVU236
 771              		.loc 1 476 3 view .LVU237
 772              		.loc 1 477 1 is_stmt 0 view .LVU238
 773 0184 BDE8F040 		pop	{r4, r5, r6, r7, lr}
 774              		.cfi_restore 14
 775              		.cfi_restore 7
 776              		.cfi_restore 6
 777              		.cfi_restore 5
 778              		.cfi_restore 4
 779              		.cfi_def_cfa_offset 0
 780              	.LVL37:
 781              		.loc 1 476 3 view .LVU239
 782 0188 FFF7FEBF 		b	usb_lld_start_out
 783              	.LVL38:
 784              		.loc 1 476 3 view .LVU240
 785              		.cfi_endproc
 786              	.LFE371:
 787              		.size	usbStartReceiveI, .-usbStartReceiveI
 788              		.align	1
 789 018c AFF30080 		.p2align 4,,15
 790              		.global	usbStartTransmitI
ARM GAS  /tmp/ccpnbTSa.s 			page 15


 791              		.syntax unified
 792              		.thumb
 793              		.thumb_func
 794              		.fpu fpv4-sp-d16
 795              		.type	usbStartTransmitI, %function
 796              	usbStartTransmitI:
 797              	.LVL39:
 798              	.LFB372:
 799              		.loc 1 493 54 is_stmt 1 view -0
 800              		.cfi_startproc
 801              		@ args = 0, pretend = 0, frame = 0
 802              		@ frame_needed = 0, uses_anonymous_args = 0
 803              		.loc 1 494 3 view .LVU242
 804              		.loc 1 496 23 view .LVU243
 805              		.loc 1 497 3 view .LVU244
 806              		.loc 1 497 3 view .LVU245
 807              		.loc 1 498 3 view .LVU246
 808              		.loc 1 498 3 view .LVU247
 809              		.loc 1 501 3 view .LVU248
 810              		.loc 1 493 54 is_stmt 0 view .LVU249
 811 0190 F0B5     		push	{r4, r5, r6, r7, lr}
 812              		.cfi_def_cfa_offset 20
 813              		.cfi_offset 4, -20
 814              		.cfi_offset 5, -16
 815              		.cfi_offset 6, -12
 816              		.cfi_offset 7, -8
 817              		.cfi_offset 14, -4
 818              		.loc 1 505 18 view .LVU250
 819 0192 00EB810E 		add	lr, r0, r1, lsl #2
 820              		.loc 1 501 49 view .LVU251
 821 0196 0124     		movs	r4, #1
 822              		.loc 1 501 22 view .LVU252
 823 0198 B0F808C0 		ldrh	ip, [r0, #8]
 824              		.loc 1 509 15 view .LVU253
 825 019c 0027     		movs	r7, #0
 826              		.loc 1 505 7 view .LVU254
 827 019e DEF80C50 		ldr	r5, [lr, #12]
 828              		.loc 1 501 49 view .LVU255
 829 01a2 8C40     		lsls	r4, r4, r1
 830              		.loc 1 505 7 view .LVU256
 831 01a4 6D69     		ldr	r5, [r5, #20]
 832              		.loc 1 501 22 view .LVU257
 833 01a6 44EA0C04 		orr	r4, r4, ip
 834 01aa 0481     		strh	r4, [r0, #8]	@ movhi
 835              		.loc 1 505 3 is_stmt 1 view .LVU258
 836              	.LVL40:
 837              		.loc 1 507 3 view .LVU259
 838              		.loc 1 507 15 is_stmt 0 view .LVU260
 839 01ac AA60     		str	r2, [r5, #8]
 840              		.loc 1 508 3 is_stmt 1 view .LVU261
 841              		.loc 1 511 15 is_stmt 0 view .LVU262
 842 01ae EF60     		str	r7, [r5, #12]
 843              		.loc 1 509 15 view .LVU263
 844 01b0 C5E90037 		strd	r3, r7, [r5]
 845              		.loc 1 511 3 is_stmt 1 view .LVU264
 846              		.loc 1 515 3 view .LVU265
 847              		.loc 1 516 1 is_stmt 0 view .LVU266
ARM GAS  /tmp/ccpnbTSa.s 			page 16


 848 01b4 BDE8F040 		pop	{r4, r5, r6, r7, lr}
 849              		.cfi_restore 14
 850              		.cfi_restore 7
 851              		.cfi_restore 6
 852              		.cfi_restore 5
 853              		.cfi_restore 4
 854              		.cfi_def_cfa_offset 0
 855              	.LVL41:
 856              		.loc 1 515 3 view .LVU267
 857 01b8 FFF7FEBF 		b	usb_lld_start_in
 858              	.LVL42:
 859              		.loc 1 515 3 view .LVU268
 860              		.cfi_endproc
 861              	.LFE372:
 862              		.size	usbStartTransmitI, .-usbStartTransmitI
 863              		.align	1
 864 01bc AFF30080 		.p2align 4,,15
 865              		.global	usbReceive
 866              		.syntax unified
 867              		.thumb
 868              		.thumb_func
 869              		.fpu fpv4-sp-d16
 870              		.type	usbReceive, %function
 871              	usbReceive:
 872              	.LVL43:
 873              	.LFB373:
 874              		.loc 1 536 71 is_stmt 1 view -0
 875              		.cfi_startproc
 876              		@ args = 0, pretend = 0, frame = 0
 877              		@ frame_needed = 0, uses_anonymous_args = 0
 878              		.loc 1 537 3 view .LVU270
 879              		.loc 1 539 3 view .LVU271
 880              	.LBB381:
 881              	.LBI381:
 882              		.loc 2 509 20 view .LVU272
 883              	.LBE381:
 884              		.loc 2 511 3 view .LVU273
 885              	.LBB393:
 886              	.LBB382:
 887              	.LBI382:
 888              		.loc 3 353 20 view .LVU274
 889              	.LBE382:
 890              	.LBE393:
 891              		.loc 3 355 3 view .LVU275
 892              	.LBB394:
 893              	.LBB390:
 894              	.LBB383:
 895              	.LBI383:
 896              		.loc 4 669 27 view .LVU276
 897              	.LBE383:
 898              	.LBE390:
 899              	.LBE394:
 900              		.loc 4 677 3 view .LVU277
 901              	.LBB395:
 902              	.LBB391:
 903              	.LBB388:
 904              	.LBB384:
ARM GAS  /tmp/ccpnbTSa.s 			page 17


 905              	.LBI384:
 906              		.loc 5 491 27 view .LVU278
 907              	.LBB385:
 908              		.loc 5 493 3 view .LVU279
 909              	.LBE385:
 910              	.LBE384:
 911              	.LBE388:
 912              	.LBE391:
 913              	.LBE395:
 914              		.loc 1 536 71 is_stmt 0 view .LVU280
 915 01c0 F8B5     		push	{r3, r4, r5, r6, r7, lr}
 916              		.cfi_def_cfa_offset 24
 917              		.cfi_offset 3, -24
 918              		.cfi_offset 4, -20
 919              		.cfi_offset 5, -16
 920              		.cfi_offset 6, -12
 921              		.cfi_offset 7, -8
 922              		.cfi_offset 14, -4
 923              	.LBB396:
 924              	.LBB392:
 925              	.LBB389:
 926              	.LBB387:
 927              	.LBB386:
 928              		.loc 5 493 3 view .LVU281
 929 01c2 2026     		movs	r6, #32
 930              		.syntax unified
 931              	@ 493 "../../../external/ChibiOS/os/common/ext/ARM/CMSIS/Core/Include/cmsis_gcc.h" 1
 932 01c4 86F31188 		MSR basepri, r6
 933              	@ 0 "" 2
 934              	.LVL44:
 935              		.loc 5 493 3 view .LVU282
 936              		.thumb
 937              		.syntax unified
 938              	.LBE386:
 939              	.LBE387:
 940              	.LBE389:
 941              	.LBE392:
 942              	.LBE396:
 943              		.loc 3 356 34 is_stmt 1 view .LVU283
 944              		.loc 3 357 20 view .LVU284
 945              		.loc 1 541 3 view .LVU285
 946              		.loc 1 541 6 is_stmt 0 view .LVU286
 947 01c8 0678     		ldrb	r6, [r0]	@ zero_extendqisi2
 948 01ca 042E     		cmp	r6, #4
 949 01cc 1BD1     		bne	.L57
 950              		.loc 1 546 3 is_stmt 1 view .LVU287
 951              	.LVL45:
 952              	.LBB397:
 953              	.LBI397:
 954              		.loc 1 453 6 view .LVU288
 955              	.LBB398:
 956              		.loc 1 455 3 view .LVU289
 957              		.loc 1 457 23 view .LVU290
 958              		.loc 1 458 3 view .LVU291
 959              		.loc 1 458 3 view .LVU292
 960              		.loc 1 459 3 view .LVU293
 961              		.loc 1 459 3 view .LVU294
ARM GAS  /tmp/ccpnbTSa.s 			page 18


 962              		.loc 1 462 3 view .LVU295
 963              		.loc 1 462 46 is_stmt 0 view .LVU296
 964 01ce 0125     		movs	r5, #1
 965              		.loc 1 462 19 view .LVU297
 966 01d0 B0F80AC0 		ldrh	ip, [r0, #10]
 967 01d4 00EB8107 		add	r7, r0, r1, lsl #2
 968              		.loc 1 470 15 view .LVU298
 969 01d8 0026     		movs	r6, #0
 970              		.loc 1 462 46 view .LVU299
 971 01da 8D40     		lsls	r5, r5, r1
 972              		.loc 1 462 19 view .LVU300
 973 01dc 45EA0C05 		orr	r5, r5, ip
 974 01e0 4581     		strh	r5, [r0, #10]	@ movhi
 975              		.loc 1 466 3 is_stmt 1 view .LVU301
 976              		.loc 1 466 7 is_stmt 0 view .LVU302
 977 01e2 FC68     		ldr	r4, [r7, #12]
 978 01e4 A469     		ldr	r4, [r4, #24]
 979              	.LVL46:
 980              		.loc 1 468 3 is_stmt 1 view .LVU303
 981              		.loc 1 468 15 is_stmt 0 view .LVU304
 982 01e6 A260     		str	r2, [r4, #8]
 983              		.loc 1 469 3 is_stmt 1 view .LVU305
 984              		.loc 1 472 15 is_stmt 0 view .LVU306
 985 01e8 E660     		str	r6, [r4, #12]
 986              		.loc 1 470 15 view .LVU307
 987 01ea C4E90036 		strd	r3, r6, [r4]
 988              		.loc 1 472 3 is_stmt 1 view .LVU308
 989              		.loc 1 476 3 view .LVU309
 990 01ee FFF7FEFF 		bl	usb_lld_start_out
 991              	.LVL47:
 992              		.loc 1 476 3 is_stmt 0 view .LVU310
 993              	.LBE398:
 994              	.LBE397:
 995              		.loc 1 547 3 is_stmt 1 view .LVU311
 996              	.LBB399:
 997              	.LBI399:
 998              		.loc 2 733 21 view .LVU312
 999              	.LBB400:
 1000              		.loc 2 735 3 view .LVU313
 1001              	.LBE400:
 1002              	.LBE399:
 1003              		.loc 1 547 42 is_stmt 0 view .LVU314
 1004 01f2 FB68     		ldr	r3, [r7, #12]
 1005              	.LBB403:
 1006              	.LBB401:
 1007              		.loc 2 735 10 view .LVU315
 1008 01f4 4FF0FF31 		mov	r1, #-1
 1009              	.LBE401:
 1010              	.LBE403:
 1011              		.loc 1 547 9 view .LVU316
 1012 01f8 9869     		ldr	r0, [r3, #24]
 1013              	.LBB404:
 1014              	.LBB402:
 1015              		.loc 2 735 10 view .LVU317
 1016 01fa 0C30     		adds	r0, r0, #12
 1017 01fc FFF7FEFF 		bl	chThdSuspendTimeoutS
 1018              	.LVL48:
ARM GAS  /tmp/ccpnbTSa.s 			page 19


 1019              		.loc 2 735 10 view .LVU318
 1020              	.LBE402:
 1021              	.LBE404:
 1022              		.loc 1 548 3 is_stmt 1 view .LVU319
 1023              	.LBB405:
 1024              	.LBI405:
 1025              		.loc 2 520 20 view .LVU320
 1026              	.LBE405:
 1027              		.loc 2 522 3 view .LVU321
 1028              	.LBB414:
 1029              	.LBB406:
 1030              	.LBI406:
 1031              		.loc 3 365 20 view .LVU322
 1032              	.LBB407:
 1033              		.loc 3 367 22 view .LVU323
 1034              		.loc 3 368 33 view .LVU324
 1035              		.loc 3 374 3 view .LVU325
 1036              		.loc 3 374 3 view .LVU326
 1037              		.loc 3 378 3 view .LVU327
 1038              	.LBB408:
 1039              	.LBI408:
 1040              		.loc 4 693 27 view .LVU328
 1041              	.LBE408:
 1042              	.LBE407:
 1043              	.LBE406:
 1044              	.LBE414:
 1045              		.loc 4 696 3 view .LVU329
 1046              	.LBB415:
 1047              	.LBB413:
 1048              	.LBB412:
 1049              	.LBB411:
 1050              	.LBB409:
 1051              	.LBI409:
 1052              		.loc 5 491 27 view .LVU330
 1053              	.LBB410:
 1054              		.loc 5 493 3 view .LVU331
 1055              		.syntax unified
 1056              	@ 493 "../../../external/ChibiOS/os/common/ext/ARM/CMSIS/Core/Include/cmsis_gcc.h" 1
 1057 0200 86F31188 		MSR basepri, r6
 1058              	@ 0 "" 2
 1059              	.LVL49:
 1060              		.loc 5 493 3 is_stmt 0 view .LVU332
 1061              		.thumb
 1062              		.syntax unified
 1063              	.LBE410:
 1064              	.LBE409:
 1065              	.LBE411:
 1066              	.LBE412:
 1067              	.LBE413:
 1068              	.LBE415:
 1069              		.loc 1 550 3 is_stmt 1 view .LVU333
 1070              		.loc 1 551 1 is_stmt 0 view .LVU334
 1071 0204 F8BD     		pop	{r3, r4, r5, r6, r7, pc}
 1072              	.LVL50:
 1073              	.L57:
 1074              		.loc 1 542 5 is_stmt 1 view .LVU335
 1075              	.LBB416:
ARM GAS  /tmp/ccpnbTSa.s 			page 20


 1076              	.LBI416:
 1077              		.loc 2 520 20 view .LVU336
 1078              	.LBE416:
 1079              		.loc 2 522 3 view .LVU337
 1080              	.LBB425:
 1081              	.LBB417:
 1082              	.LBI417:
 1083              		.loc 3 365 20 view .LVU338
 1084              	.LBB418:
 1085              		.loc 3 367 22 view .LVU339
 1086              		.loc 3 368 33 view .LVU340
 1087              		.loc 3 374 3 view .LVU341
 1088              		.loc 3 374 3 view .LVU342
 1089              		.loc 3 378 3 view .LVU343
 1090              	.LBB419:
 1091              	.LBI419:
 1092              		.loc 4 693 27 view .LVU344
 1093              	.LBE419:
 1094              	.LBE418:
 1095              	.LBE417:
 1096              	.LBE425:
 1097              		.loc 4 696 3 view .LVU345
 1098              	.LBB426:
 1099              	.LBB424:
 1100              	.LBB423:
 1101              	.LBB422:
 1102              	.LBB420:
 1103              	.LBI420:
 1104              		.loc 5 491 27 view .LVU346
 1105              	.LBB421:
 1106              		.loc 5 493 3 view .LVU347
 1107 0206 0023     		movs	r3, #0
 1108              	.LVL51:
 1109              		.loc 5 493 3 is_stmt 0 view .LVU348
 1110              		.syntax unified
 1111              	@ 493 "../../../external/ChibiOS/os/common/ext/ARM/CMSIS/Core/Include/cmsis_gcc.h" 1
 1112 0208 83F31188 		MSR basepri, r3
 1113              	@ 0 "" 2
 1114              	.LVL52:
 1115              		.loc 5 493 3 view .LVU349
 1116              		.thumb
 1117              		.syntax unified
 1118              	.LBE421:
 1119              	.LBE420:
 1120              	.LBE422:
 1121              	.LBE423:
 1122              	.LBE424:
 1123              	.LBE426:
 1124              		.loc 1 543 5 is_stmt 1 view .LVU350
 1125              		.loc 1 543 12 is_stmt 0 view .LVU351
 1126 020c 6FF00100 		mvn	r0, #1
 1127              	.LVL53:
 1128              		.loc 1 551 1 view .LVU352
 1129 0210 F8BD     		pop	{r3, r4, r5, r6, r7, pc}
 1130              		.cfi_endproc
 1131              	.LFE373:
 1132              		.size	usbReceive, .-usbReceive
ARM GAS  /tmp/ccpnbTSa.s 			page 21


 1133              		.align	1
 1134 0212 00BFAFF3 		.p2align 4,,15
 1134      0080AFF3 
 1134      0080AFF3 
 1134      0080
 1135              		.global	usbTransmit
 1136              		.syntax unified
 1137              		.thumb
 1138              		.thumb_func
 1139              		.fpu fpv4-sp-d16
 1140              		.type	usbTransmit, %function
 1141              	usbTransmit:
 1142              	.LVL54:
 1143              	.LFB374:
 1144              		.loc 1 569 78 is_stmt 1 view -0
 1145              		.cfi_startproc
 1146              		@ args = 0, pretend = 0, frame = 0
 1147              		@ frame_needed = 0, uses_anonymous_args = 0
 1148              		.loc 1 570 3 view .LVU354
 1149              		.loc 1 572 3 view .LVU355
 1150              	.LBB427:
 1151              	.LBI427:
 1152              		.loc 2 509 20 view .LVU356
 1153              	.LBE427:
 1154              		.loc 2 511 3 view .LVU357
 1155              	.LBB439:
 1156              	.LBB428:
 1157              	.LBI428:
 1158              		.loc 3 353 20 view .LVU358
 1159              	.LBE428:
 1160              	.LBE439:
 1161              		.loc 3 355 3 view .LVU359
 1162              	.LBB440:
 1163              	.LBB436:
 1164              	.LBB429:
 1165              	.LBI429:
 1166              		.loc 4 669 27 view .LVU360
 1167              	.LBE429:
 1168              	.LBE436:
 1169              	.LBE440:
 1170              		.loc 4 677 3 view .LVU361
 1171              	.LBB441:
 1172              	.LBB437:
 1173              	.LBB434:
 1174              	.LBB430:
 1175              	.LBI430:
 1176              		.loc 5 491 27 view .LVU362
 1177              	.LBB431:
 1178              		.loc 5 493 3 view .LVU363
 1179              	.LBE431:
 1180              	.LBE430:
 1181              	.LBE434:
 1182              	.LBE437:
 1183              	.LBE441:
 1184              		.loc 1 569 78 is_stmt 0 view .LVU364
 1185 0220 F8B5     		push	{r3, r4, r5, r6, r7, lr}
 1186              		.cfi_def_cfa_offset 24
ARM GAS  /tmp/ccpnbTSa.s 			page 22


 1187              		.cfi_offset 3, -24
 1188              		.cfi_offset 4, -20
 1189              		.cfi_offset 5, -16
 1190              		.cfi_offset 6, -12
 1191              		.cfi_offset 7, -8
 1192              		.cfi_offset 14, -4
 1193              	.LBB442:
 1194              	.LBB438:
 1195              	.LBB435:
 1196              	.LBB433:
 1197              	.LBB432:
 1198              		.loc 5 493 3 view .LVU365
 1199 0222 2026     		movs	r6, #32
 1200              		.syntax unified
 1201              	@ 493 "../../../external/ChibiOS/os/common/ext/ARM/CMSIS/Core/Include/cmsis_gcc.h" 1
 1202 0224 86F31188 		MSR basepri, r6
 1203              	@ 0 "" 2
 1204              	.LVL55:
 1205              		.loc 5 493 3 view .LVU366
 1206              		.thumb
 1207              		.syntax unified
 1208              	.LBE432:
 1209              	.LBE433:
 1210              	.LBE435:
 1211              	.LBE438:
 1212              	.LBE442:
 1213              		.loc 3 356 34 is_stmt 1 view .LVU367
 1214              		.loc 3 357 20 view .LVU368
 1215              		.loc 1 574 3 view .LVU369
 1216              		.loc 1 574 6 is_stmt 0 view .LVU370
 1217 0228 0678     		ldrb	r6, [r0]	@ zero_extendqisi2
 1218 022a 042E     		cmp	r6, #4
 1219 022c 1BD1     		bne	.L62
 1220              		.loc 1 579 3 is_stmt 1 view .LVU371
 1221              	.LVL56:
 1222              	.LBB443:
 1223              	.LBI443:
 1224              		.loc 1 492 6 view .LVU372
 1225              	.LBB444:
 1226              		.loc 1 494 3 view .LVU373
 1227              		.loc 1 496 23 view .LVU374
 1228              		.loc 1 497 3 view .LVU375
 1229              		.loc 1 497 3 view .LVU376
 1230              		.loc 1 498 3 view .LVU377
 1231              		.loc 1 498 3 view .LVU378
 1232              		.loc 1 501 3 view .LVU379
 1233              		.loc 1 501 49 is_stmt 0 view .LVU380
 1234 022e 0125     		movs	r5, #1
 1235              		.loc 1 501 22 view .LVU381
 1236 0230 B0F808C0 		ldrh	ip, [r0, #8]
 1237 0234 00EB8107 		add	r7, r0, r1, lsl #2
 1238              		.loc 1 509 15 view .LVU382
 1239 0238 0026     		movs	r6, #0
 1240              		.loc 1 501 49 view .LVU383
 1241 023a 8D40     		lsls	r5, r5, r1
 1242              		.loc 1 501 22 view .LVU384
 1243 023c 45EA0C05 		orr	r5, r5, ip
ARM GAS  /tmp/ccpnbTSa.s 			page 23


 1244 0240 0581     		strh	r5, [r0, #8]	@ movhi
 1245              		.loc 1 505 3 is_stmt 1 view .LVU385
 1246              		.loc 1 505 7 is_stmt 0 view .LVU386
 1247 0242 FC68     		ldr	r4, [r7, #12]
 1248 0244 6469     		ldr	r4, [r4, #20]
 1249              	.LVL57:
 1250              		.loc 1 507 3 is_stmt 1 view .LVU387
 1251              		.loc 1 507 15 is_stmt 0 view .LVU388
 1252 0246 A260     		str	r2, [r4, #8]
 1253              		.loc 1 508 3 is_stmt 1 view .LVU389
 1254              		.loc 1 511 15 is_stmt 0 view .LVU390
 1255 0248 E660     		str	r6, [r4, #12]
 1256              		.loc 1 509 15 view .LVU391
 1257 024a C4E90036 		strd	r3, r6, [r4]
 1258              		.loc 1 511 3 is_stmt 1 view .LVU392
 1259              		.loc 1 515 3 view .LVU393
 1260 024e FFF7FEFF 		bl	usb_lld_start_in
 1261              	.LVL58:
 1262              		.loc 1 515 3 is_stmt 0 view .LVU394
 1263              	.LBE444:
 1264              	.LBE443:
 1265              		.loc 1 580 3 is_stmt 1 view .LVU395
 1266              	.LBB445:
 1267              	.LBI445:
 1268              		.loc 2 733 21 view .LVU396
 1269              	.LBB446:
 1270              		.loc 2 735 3 view .LVU397
 1271              	.LBE446:
 1272              	.LBE445:
 1273              		.loc 1 580 42 is_stmt 0 view .LVU398
 1274 0252 FB68     		ldr	r3, [r7, #12]
 1275              	.LBB449:
 1276              	.LBB447:
 1277              		.loc 2 735 10 view .LVU399
 1278 0254 4FF0FF31 		mov	r1, #-1
 1279              	.LBE447:
 1280              	.LBE449:
 1281              		.loc 1 580 9 view .LVU400
 1282 0258 5869     		ldr	r0, [r3, #20]
 1283              	.LBB450:
 1284              	.LBB448:
 1285              		.loc 2 735 10 view .LVU401
 1286 025a 0C30     		adds	r0, r0, #12
 1287 025c FFF7FEFF 		bl	chThdSuspendTimeoutS
 1288              	.LVL59:
 1289              		.loc 2 735 10 view .LVU402
 1290              	.LBE448:
 1291              	.LBE450:
 1292              		.loc 1 581 3 is_stmt 1 view .LVU403
 1293              	.LBB451:
 1294              	.LBI451:
 1295              		.loc 2 520 20 view .LVU404
 1296              	.LBE451:
 1297              		.loc 2 522 3 view .LVU405
 1298              	.LBB460:
 1299              	.LBB452:
 1300              	.LBI452:
ARM GAS  /tmp/ccpnbTSa.s 			page 24


 1301              		.loc 3 365 20 view .LVU406
 1302              	.LBB453:
 1303              		.loc 3 367 22 view .LVU407
 1304              		.loc 3 368 33 view .LVU408
 1305              		.loc 3 374 3 view .LVU409
 1306              		.loc 3 374 3 view .LVU410
 1307              		.loc 3 378 3 view .LVU411
 1308              	.LBB454:
 1309              	.LBI454:
 1310              		.loc 4 693 27 view .LVU412
 1311              	.LBE454:
 1312              	.LBE453:
 1313              	.LBE452:
 1314              	.LBE460:
 1315              		.loc 4 696 3 view .LVU413
 1316              	.LBB461:
 1317              	.LBB459:
 1318              	.LBB458:
 1319              	.LBB457:
 1320              	.LBB455:
 1321              	.LBI455:
 1322              		.loc 5 491 27 view .LVU414
 1323              	.LBB456:
 1324              		.loc 5 493 3 view .LVU415
 1325              		.syntax unified
 1326              	@ 493 "../../../external/ChibiOS/os/common/ext/ARM/CMSIS/Core/Include/cmsis_gcc.h" 1
 1327 0260 86F31188 		MSR basepri, r6
 1328              	@ 0 "" 2
 1329              	.LVL60:
 1330              		.loc 5 493 3 is_stmt 0 view .LVU416
 1331              		.thumb
 1332              		.syntax unified
 1333              	.LBE456:
 1334              	.LBE455:
 1335              	.LBE457:
 1336              	.LBE458:
 1337              	.LBE459:
 1338              	.LBE461:
 1339              		.loc 1 583 3 is_stmt 1 view .LVU417
 1340              		.loc 1 584 1 is_stmt 0 view .LVU418
 1341 0264 F8BD     		pop	{r3, r4, r5, r6, r7, pc}
 1342              	.LVL61:
 1343              	.L62:
 1344              		.loc 1 575 5 is_stmt 1 view .LVU419
 1345              	.LBB462:
 1346              	.LBI462:
 1347              		.loc 2 520 20 view .LVU420
 1348              	.LBE462:
 1349              		.loc 2 522 3 view .LVU421
 1350              	.LBB471:
 1351              	.LBB463:
 1352              	.LBI463:
 1353              		.loc 3 365 20 view .LVU422
 1354              	.LBB464:
 1355              		.loc 3 367 22 view .LVU423
 1356              		.loc 3 368 33 view .LVU424
 1357              		.loc 3 374 3 view .LVU425
ARM GAS  /tmp/ccpnbTSa.s 			page 25


 1358              		.loc 3 374 3 view .LVU426
 1359              		.loc 3 378 3 view .LVU427
 1360              	.LBB465:
 1361              	.LBI465:
 1362              		.loc 4 693 27 view .LVU428
 1363              	.LBE465:
 1364              	.LBE464:
 1365              	.LBE463:
 1366              	.LBE471:
 1367              		.loc 4 696 3 view .LVU429
 1368              	.LBB472:
 1369              	.LBB470:
 1370              	.LBB469:
 1371              	.LBB468:
 1372              	.LBB466:
 1373              	.LBI466:
 1374              		.loc 5 491 27 view .LVU430
 1375              	.LBB467:
 1376              		.loc 5 493 3 view .LVU431
 1377 0266 0023     		movs	r3, #0
 1378              	.LVL62:
 1379              		.loc 5 493 3 is_stmt 0 view .LVU432
 1380              		.syntax unified
 1381              	@ 493 "../../../external/ChibiOS/os/common/ext/ARM/CMSIS/Core/Include/cmsis_gcc.h" 1
 1382 0268 83F31188 		MSR basepri, r3
 1383              	@ 0 "" 2
 1384              	.LVL63:
 1385              		.loc 5 493 3 view .LVU433
 1386              		.thumb
 1387              		.syntax unified
 1388              	.LBE467:
 1389              	.LBE466:
 1390              	.LBE468:
 1391              	.LBE469:
 1392              	.LBE470:
 1393              	.LBE472:
 1394              		.loc 1 576 5 is_stmt 1 view .LVU434
 1395              		.loc 1 576 12 is_stmt 0 view .LVU435
 1396 026c 6FF00100 		mvn	r0, #1
 1397              	.LVL64:
 1398              		.loc 1 584 1 view .LVU436
 1399 0270 F8BD     		pop	{r3, r4, r5, r6, r7, pc}
 1400              		.cfi_endproc
 1401              	.LFE374:
 1402              		.size	usbTransmit, .-usbTransmit
 1403              		.align	1
 1404 0272 00BFAFF3 		.p2align 4,,15
 1404      0080AFF3 
 1404      0080AFF3 
 1404      0080
 1405              		.global	usbStallReceiveI
 1406              		.syntax unified
 1407              		.thumb
 1408              		.thumb_func
 1409              		.fpu fpv4-sp-d16
 1410              		.type	usbStallReceiveI, %function
 1411              	usbStallReceiveI:
ARM GAS  /tmp/ccpnbTSa.s 			page 26


 1412              	.LVL65:
 1413              	.LFB375:
 1414              		.loc 1 599 52 is_stmt 1 view -0
 1415              		.cfi_startproc
 1416              		@ args = 0, pretend = 0, frame = 0
 1417              		@ frame_needed = 0, uses_anonymous_args = 0
 1418              		.loc 1 601 23 view .LVU438
 1419              		.loc 1 602 3 view .LVU439
 1420              		.loc 1 602 3 view .LVU440
 1421              		.loc 1 604 3 view .LVU441
 1422              		.loc 1 604 7 is_stmt 0 view .LVU442
 1423 0280 0123     		movs	r3, #1
 1424              		.loc 1 599 52 view .LVU443
 1425 0282 10B5     		push	{r4, lr}
 1426              		.cfi_def_cfa_offset 8
 1427              		.cfi_offset 4, -8
 1428              		.cfi_offset 14, -4
 1429              		.loc 1 604 7 view .LVU444
 1430 0284 03FA01F2 		lsl	r2, r3, r1
 1431 0288 4489     		ldrh	r4, [r0, #10]
 1432              		.loc 1 604 6 view .LVU445
 1433 028a 1440     		ands	r4, r2, r4
 1434 028c 01D0     		beq	.L67
 1435              		.loc 1 605 12 view .LVU446
 1436 028e 1846     		mov	r0, r3
 1437              	.LVL66:
 1438              		.loc 1 610 1 view .LVU447
 1439 0290 10BD     		pop	{r4, pc}
 1440              	.LVL67:
 1441              	.L67:
 1442              		.loc 1 608 3 is_stmt 1 view .LVU448
 1443 0292 FFF7FEFF 		bl	usb_lld_stall_out
 1444              	.LVL68:
 1445              		.loc 1 609 3 view .LVU449
 1446              		.loc 1 609 10 is_stmt 0 view .LVU450
 1447 0296 2046     		mov	r0, r4
 1448              		.loc 1 610 1 view .LVU451
 1449 0298 10BD     		pop	{r4, pc}
 1450              		.cfi_endproc
 1451              	.LFE375:
 1452              		.size	usbStallReceiveI, .-usbStallReceiveI
 1453              		.align	1
 1454 029a 00BFAFF3 		.p2align 4,,15
 1454      0080
 1455              		.global	usbStallTransmitI
 1456              		.syntax unified
 1457              		.thumb
 1458              		.thumb_func
 1459              		.fpu fpv4-sp-d16
 1460              		.type	usbStallTransmitI, %function
 1461              	usbStallTransmitI:
 1462              	.LVL69:
 1463              	.LFB376:
 1464              		.loc 1 624 53 is_stmt 1 view -0
 1465              		.cfi_startproc
 1466              		@ args = 0, pretend = 0, frame = 0
 1467              		@ frame_needed = 0, uses_anonymous_args = 0
ARM GAS  /tmp/ccpnbTSa.s 			page 27


 1468              		.loc 1 626 23 view .LVU453
 1469              		.loc 1 627 3 view .LVU454
 1470              		.loc 1 627 3 view .LVU455
 1471              		.loc 1 629 3 view .LVU456
 1472              		.loc 1 629 7 is_stmt 0 view .LVU457
 1473 02a0 0123     		movs	r3, #1
 1474              		.loc 1 624 53 view .LVU458
 1475 02a2 10B5     		push	{r4, lr}
 1476              		.cfi_def_cfa_offset 8
 1477              		.cfi_offset 4, -8
 1478              		.cfi_offset 14, -4
 1479              		.loc 1 629 7 view .LVU459
 1480 02a4 03FA01F2 		lsl	r2, r3, r1
 1481 02a8 0489     		ldrh	r4, [r0, #8]
 1482              		.loc 1 629 6 view .LVU460
 1483 02aa 1440     		ands	r4, r2, r4
 1484 02ac 01D0     		beq	.L72
 1485              		.loc 1 630 12 view .LVU461
 1486 02ae 1846     		mov	r0, r3
 1487              	.LVL70:
 1488              		.loc 1 635 1 view .LVU462
 1489 02b0 10BD     		pop	{r4, pc}
 1490              	.LVL71:
 1491              	.L72:
 1492              		.loc 1 633 3 is_stmt 1 view .LVU463
 1493 02b2 FFF7FEFF 		bl	usb_lld_stall_in
 1494              	.LVL72:
 1495              		.loc 1 634 3 view .LVU464
 1496              		.loc 1 634 10 is_stmt 0 view .LVU465
 1497 02b6 2046     		mov	r0, r4
 1498              		.loc 1 635 1 view .LVU466
 1499 02b8 10BD     		pop	{r4, pc}
 1500              		.cfi_endproc
 1501              	.LFE376:
 1502              		.size	usbStallTransmitI, .-usbStallTransmitI
 1503              		.align	1
 1504 02ba 00BFAFF3 		.p2align 4,,15
 1504      0080
 1505              		.global	usbWakeupHost
 1506              		.syntax unified
 1507              		.thumb
 1508              		.thumb_func
 1509              		.fpu fpv4-sp-d16
 1510              		.type	usbWakeupHost, %function
 1511              	usbWakeupHost:
 1512              	.LVL73:
 1513              	.LFB377:
 1514              		.loc 1 646 37 is_stmt 1 view -0
 1515              		.cfi_startproc
 1516              		@ args = 0, pretend = 0, frame = 0
 1517              		@ frame_needed = 0, uses_anonymous_args = 0
 1518              		.loc 1 648 3 view .LVU468
 1519              		.loc 1 648 6 is_stmt 0 view .LVU469
 1520 02c0 0378     		ldrb	r3, [r0]	@ zero_extendqisi2
 1521 02c2 052B     		cmp	r3, #5
 1522 02c4 00D0     		beq	.L79
 1523 02c6 7047     		bx	lr
ARM GAS  /tmp/ccpnbTSa.s 			page 28


 1524              	.L79:
 1525              		.loc 1 650 5 view .LVU470
 1526 02c8 D0F89020 		ldr	r2, [r0, #144]
 1527 02cc D2F80438 		ldr	r3, [r2, #2052]
 1528 02d0 43F00103 		orr	r3, r3, #1
 1529              		.loc 1 646 37 view .LVU471
 1530 02d4 10B5     		push	{r4, lr}
 1531              		.cfi_def_cfa_offset 8
 1532              		.cfi_offset 4, -8
 1533              		.cfi_offset 14, -4
 1534 02d6 0446     		mov	r4, r0
 1535              		.loc 1 650 5 is_stmt 1 view .LVU472
 1536              		.loc 1 650 5 view .LVU473
 1537 02d8 C2F80438 		str	r3, [r2, #2052]
 1538              		.loc 1 650 5 view .LVU474
 1539              	.LVL74:
 1540              	.LBB473:
 1541              	.LBI473:
 1542              		.loc 2 718 20 view .LVU475
 1543              	.LBB474:
 1544              		.loc 2 720 3 view .LVU476
 1545 02dc 1420     		movs	r0, #20
 1546              	.LVL75:
 1547              		.loc 2 720 3 is_stmt 0 view .LVU477
 1548 02de FFF7FEFF 		bl	chThdSleep
 1549              	.LVL76:
 1550              		.loc 2 720 3 view .LVU478
 1551              	.LBE474:
 1552              	.LBE473:
 1553              		.loc 1 650 5 is_stmt 1 view .LVU479
 1554 02e2 D4F89020 		ldr	r2, [r4, #144]
 1555 02e6 D2F80438 		ldr	r3, [r2, #2052]
 1556 02ea 23F00103 		bic	r3, r3, #1
 1557 02ee C2F80438 		str	r3, [r2, #2052]
 1558              		.loc 1 652 1 is_stmt 0 view .LVU480
 1559 02f2 10BD     		pop	{r4, pc}
 1560              		.loc 1 652 1 view .LVU481
 1561              		.cfi_endproc
 1562              	.LFE377:
 1563              		.size	usbWakeupHost, .-usbWakeupHost
 1564              		.align	1
 1565 02f4 AFF30080 		.p2align 4,,15
 1565      AFF30080 
 1565      AFF30080 
 1566              		.global	_usb_reset
 1567              		.syntax unified
 1568              		.thumb
 1569              		.thumb_func
 1570              		.fpu fpv4-sp-d16
 1571              		.type	_usb_reset, %function
 1572              	_usb_reset:
 1573              	.LVL77:
 1574              	.LFB378:
 1575              		.loc 1 663 34 is_stmt 1 view -0
 1576              		.cfi_startproc
 1577              		@ args = 0, pretend = 0, frame = 0
 1578              		@ frame_needed = 0, uses_anonymous_args = 0
ARM GAS  /tmp/ccpnbTSa.s 			page 29


 1579              		.loc 1 664 3 view .LVU483
 1580              		.loc 1 667 3 view .LVU484
 1581              		.loc 1 670 23 is_stmt 0 view .LVU485
 1582 0300 0023     		movs	r3, #0
 1583              		.loc 1 667 23 view .LVU486
 1584 0302 0222     		movs	r2, #2
 1585              		.loc 1 663 34 view .LVU487
 1586 0304 2DE9F041 		push	{r4, r5, r6, r7, r8, lr}
 1587              		.cfi_def_cfa_offset 24
 1588              		.cfi_offset 4, -24
 1589              		.cfi_offset 5, -20
 1590              		.cfi_offset 6, -16
 1591              		.cfi_offset 7, -12
 1592              		.cfi_offset 8, -8
 1593              		.cfi_offset 14, -4
 1594              		.loc 1 673 23 view .LVU488
 1595 0308 0446     		mov	r4, r0
 1596              		.loc 1 663 34 view .LVU489
 1597 030a 0646     		mov	r6, r0
 1598              	.LBB475:
 1599              	.LBB476:
 1600              	.LBB477:
 1601              	.LBB478:
 1602              	.LBB479:
 1603              	.LBB480:
 1604              		.loc 5 493 3 view .LVU490
 1605 030c 2027     		movs	r7, #32
 1606              	.LBE480:
 1607              	.LBE479:
 1608              	.LBE478:
 1609              	.LBE477:
 1610              	.LBE476:
 1611              	.LBE475:
 1612              	.LBB497:
 1613              	.LBB498:
 1614              	.LBB499:
 1615              	.LBB500:
 1616              	.LBB501:
 1617              	.LBB502:
 1618 030e 9846     		mov	r8, r3
 1619 0310 00F12C05 		add	r5, r0, #44
 1620              	.LBE502:
 1621              	.LBE501:
 1622              	.LBE500:
 1623              	.LBE499:
 1624              	.LBE498:
 1625              	.LBE497:
 1626              		.loc 1 667 23 view .LVU491
 1627 0314 0270     		strb	r2, [r0]
 1628              		.loc 1 670 3 is_stmt 1 view .LVU492
 1629              		.loc 1 671 3 view .LVU493
 1630              		.loc 1 672 3 view .LVU494
 1631              		.loc 1 670 23 is_stmt 0 view .LVU495
 1632 0316 C0F88830 		str	r3, [r0, #136]
 1633              		.loc 1 673 3 is_stmt 1 view .LVU496
 1634              		.loc 1 674 3 view .LVU497
 1635              		.loc 1 673 23 is_stmt 0 view .LVU498
ARM GAS  /tmp/ccpnbTSa.s 			page 30


 1636 031a 44F8083F 		str	r3, [r4, #8]!
 1637              		.loc 1 677 3 is_stmt 1 view .LVU499
 1638              	.LVL78:
 1639              	.L84:
 1640              		.loc 1 680 5 view .LVU500
 1641              		.loc 1 681 7 view .LVU501
 1642              	.LBB514:
 1643              	.LBI475:
 1644              		.loc 2 531 20 view .LVU502
 1645              	.LBE514:
 1646              		.loc 2 533 3 view .LVU503
 1647              	.LBB515:
 1648              	.LBB492:
 1649              	.LBI476:
 1650              		.loc 3 393 20 view .LVU504
 1651              	.LBE492:
 1652              	.LBE515:
 1653              		.loc 3 395 3 view .LVU505
 1654              	.LBB516:
 1655              	.LBB493:
 1656              	.LBB488:
 1657              	.LBI477:
 1658              		.loc 4 708 27 view .LVU506
 1659              	.LBE488:
 1660              	.LBE493:
 1661              	.LBE516:
 1662              		.loc 4 710 3 view .LVU507
 1663              	.LBB517:
 1664              	.LBB494:
 1665              	.LBB489:
 1666              	.LBB485:
 1667              	.LBI478:
 1668              		.loc 4 669 27 view .LVU508
 1669              	.LBE485:
 1670              	.LBE489:
 1671              	.LBE494:
 1672              	.LBE517:
 1673              		.loc 4 677 3 view .LVU509
 1674              	.LBB518:
 1675              	.LBB495:
 1676              	.LBB490:
 1677              	.LBB486:
 1678              	.LBB483:
 1679              	.LBI479:
 1680              		.loc 5 491 27 view .LVU510
 1681              	.LBB481:
 1682              		.loc 5 493 3 view .LVU511
 1683              	.LBE481:
 1684              	.LBE483:
 1685              	.LBE486:
 1686              	.LBE490:
 1687              	.LBE495:
 1688              	.LBE518:
 1689              		.loc 1 680 8 is_stmt 0 view .LVU512
 1690 031e 54F8043F 		ldr	r3, [r4, #4]!
 1691 0322 ABB1     		cbz	r3, .L81
 1692              	.LBB519:
ARM GAS  /tmp/ccpnbTSa.s 			page 31


 1693              	.LBB496:
 1694              	.LBB491:
 1695              	.LBB487:
 1696              	.LBB484:
 1697              	.LBB482:
 1698              		.loc 5 493 3 view .LVU513
 1699              		.syntax unified
 1700              	@ 493 "../../../external/ChibiOS/os/common/ext/ARM/CMSIS/Core/Include/cmsis_gcc.h" 1
 1701 0324 87F31188 		MSR basepri, r7
 1702              	@ 0 "" 2
 1703              	.LVL79:
 1704              		.loc 5 493 3 view .LVU514
 1705              		.thumb
 1706              		.syntax unified
 1707              	.LBE482:
 1708              	.LBE484:
 1709              	.LBE487:
 1710              	.LBE491:
 1711              	.LBE496:
 1712              	.LBE519:
 1713              		.loc 3 396 34 is_stmt 1 view .LVU515
 1714              		.loc 3 397 29 view .LVU516
 1715              		.loc 1 682 7 view .LVU517
 1716              		.loc 1 683 9 view .LVU518
 1717              		.loc 1 682 20 is_stmt 0 view .LVU519
 1718 0328 2368     		ldr	r3, [r4]
 1719              	.LBB520:
 1720              	.LBB521:
 1721              		.loc 2 775 3 view .LVU520
 1722 032a 6FF00101 		mvn	r1, #1
 1723              	.LBE521:
 1724              	.LBE520:
 1725              		.loc 1 682 23 view .LVU521
 1726 032e 5A69     		ldr	r2, [r3, #20]
 1727              	.LVL80:
 1728              	.LBB524:
 1729              	.LBI520:
 1730              		.loc 2 773 20 is_stmt 1 view .LVU522
 1731              	.LBB522:
 1732              		.loc 2 775 3 view .LVU523
 1733 0330 02F10C00 		add	r0, r2, #12
 1734              	.LVL81:
 1735              		.loc 2 775 3 is_stmt 0 view .LVU524
 1736              	.LBE522:
 1737              	.LBE524:
 1738              		.loc 1 682 10 view .LVU525
 1739 0334 12B1     		cbz	r2, .L82
 1740              	.LBB525:
 1741              	.LBB523:
 1742              		.loc 2 775 3 view .LVU526
 1743 0336 FFF7FEFF 		bl	chThdResumeI
 1744              	.LVL82:
 1745              		.loc 2 775 3 view .LVU527
 1746 033a 2368     		ldr	r3, [r4]
 1747              	.L82:
 1748              	.LBE523:
 1749              	.LBE525:
ARM GAS  /tmp/ccpnbTSa.s 			page 32


 1750              		.loc 1 685 7 is_stmt 1 view .LVU528
 1751              		.loc 1 686 9 view .LVU529
 1752              		.loc 1 685 23 is_stmt 0 view .LVU530
 1753 033c 9B69     		ldr	r3, [r3, #24]
 1754              	.LVL83:
 1755              	.LBB526:
 1756              	.LBI526:
 1757              		.loc 2 773 20 is_stmt 1 view .LVU531
 1758              	.LBB527:
 1759              		.loc 2 775 3 view .LVU532
 1760 033e 6FF00101 		mvn	r1, #1
 1761 0342 03F10C00 		add	r0, r3, #12
 1762              	.LVL84:
 1763              		.loc 2 775 3 is_stmt 0 view .LVU533
 1764              	.LBE527:
 1765              	.LBE526:
 1766              		.loc 1 685 10 view .LVU534
 1767 0346 0BB1     		cbz	r3, .L83
 1768              	.LBB529:
 1769              	.LBB528:
 1770              		.loc 2 775 3 view .LVU535
 1771 0348 FFF7FEFF 		bl	chThdResumeI
 1772              	.LVL85:
 1773              	.L83:
 1774              		.loc 2 775 3 view .LVU536
 1775              	.LBE528:
 1776              	.LBE529:
 1777              		.loc 1 688 7 is_stmt 1 view .LVU537
 1778              	.LBB530:
 1779              	.LBI497:
 1780              		.loc 2 542 20 view .LVU538
 1781              	.LBE530:
 1782              		.loc 2 544 3 view .LVU539
 1783              	.LBB531:
 1784              	.LBB510:
 1785              	.LBI498:
 1786              		.loc 3 413 20 view .LVU540
 1787              	.LBE510:
 1788              	.LBE531:
 1789              		.loc 3 415 31 view .LVU541
 1790              		.loc 3 416 33 view .LVU542
 1791              		.loc 3 417 3 view .LVU543
 1792              	.LBB532:
 1793              	.LBB511:
 1794              	.LBB507:
 1795              	.LBI499:
 1796              		.loc 4 719 27 view .LVU544
 1797              	.LBE507:
 1798              	.LBE511:
 1799              	.LBE532:
 1800              		.loc 4 721 3 view .LVU545
 1801              	.LBB533:
 1802              	.LBB512:
 1803              	.LBB508:
 1804              	.LBB505:
 1805              	.LBI500:
 1806              		.loc 4 693 27 view .LVU546
ARM GAS  /tmp/ccpnbTSa.s 			page 33


 1807              	.LBE505:
 1808              	.LBE508:
 1809              	.LBE512:
 1810              	.LBE533:
 1811              		.loc 4 696 3 view .LVU547
 1812              	.LBB534:
 1813              	.LBB513:
 1814              	.LBB509:
 1815              	.LBB506:
 1816              	.LBB504:
 1817              	.LBI501:
 1818              		.loc 5 491 27 view .LVU548
 1819              	.LBB503:
 1820              		.loc 5 493 3 view .LVU549
 1821              		.syntax unified
 1822              	@ 493 "../../../external/ChibiOS/os/common/ext/ARM/CMSIS/Core/Include/cmsis_gcc.h" 1
 1823 034c 88F31188 		MSR basepri, r8
 1824              	@ 0 "" 2
 1825              	.LVL86:
 1826              		.thumb
 1827              		.syntax unified
 1828              	.L81:
 1829              		.loc 5 493 3 is_stmt 0 view .LVU550
 1830              	.LBE503:
 1831              	.LBE504:
 1832              	.LBE506:
 1833              	.LBE509:
 1834              	.LBE513:
 1835              	.LBE534:
 1836              		.loc 1 691 5 is_stmt 1 discriminator 2 view .LVU551
 1837              		.loc 1 677 3 is_stmt 0 discriminator 2 view .LVU552
 1838 0350 AC42     		cmp	r4, r5
 1839              		.loc 1 691 18 discriminator 2 view .LVU553
 1840 0352 C4F80080 		str	r8, [r4]
 1841              		.loc 1 677 3 discriminator 2 view .LVU554
 1842 0356 E2D1     		bne	.L84
 1843              		.loc 1 695 3 is_stmt 1 view .LVU555
 1844              		.loc 1 695 18 is_stmt 0 view .LVU556
 1845 0358 86F87080 		strb	r8, [r6, #112]
 1846              		.loc 1 698 3 is_stmt 1 view .LVU557
 1847 035c 3046     		mov	r0, r6
 1848 035e FFF7FEFF 		bl	usb_lld_reset
 1849              	.LVL87:
 1850              		.loc 1 701 3 view .LVU558
 1851 0362 7368     		ldr	r3, [r6, #4]
 1852 0364 1B68     		ldr	r3, [r3]
 1853 0366 23B1     		cbz	r3, .L80
 1854              		.loc 1 701 3 discriminator 1 view .LVU559
 1855 0368 3046     		mov	r0, r6
 1856 036a 0021     		movs	r1, #0
 1857              		.loc 1 702 1 is_stmt 0 discriminator 1 view .LVU560
 1858 036c BDE8F041 		pop	{r4, r5, r6, r7, r8, lr}
 1859              		.cfi_remember_state
 1860              		.cfi_restore 14
 1861              		.cfi_restore 8
 1862              		.cfi_restore 7
 1863              		.cfi_restore 6
ARM GAS  /tmp/ccpnbTSa.s 			page 34


 1864              		.cfi_restore 5
 1865              		.cfi_restore 4
 1866              		.cfi_def_cfa_offset 0
 1867              	.LVL88:
 1868              		.loc 1 701 3 discriminator 1 view .LVU561
 1869 0370 1847     		bx	r3	@ indirect register sibling call
 1870              	.LVL89:
 1871              	.L80:
 1872              		.cfi_restore_state
 1873              		.loc 1 702 1 view .LVU562
 1874 0372 BDE8F081 		pop	{r4, r5, r6, r7, r8, pc}
 1875              		.loc 1 702 1 view .LVU563
 1876              		.cfi_endproc
 1877              	.LFE378:
 1878              		.size	_usb_reset, .-_usb_reset
 1879              		.align	1
 1880 0376 00BFAFF3 		.p2align 4,,15
 1880      0080AFF3 
 1880      0080
 1881              		.global	_usb_suspend
 1882              		.syntax unified
 1883              		.thumb
 1884              		.thumb_func
 1885              		.fpu fpv4-sp-d16
 1886              		.type	_usb_suspend, %function
 1887              	_usb_suspend:
 1888              	.LVL90:
 1889              	.LFB379:
 1890              		.loc 1 713 36 is_stmt 1 view -0
 1891              		.cfi_startproc
 1892              		@ args = 0, pretend = 0, frame = 0
 1893              		@ frame_needed = 0, uses_anonymous_args = 0
 1894              		.loc 1 717 3 view .LVU565
 1895              		.loc 1 713 36 is_stmt 0 view .LVU566
 1896 0380 F8B5     		push	{r3, r4, r5, r6, r7, lr}
 1897              		.cfi_def_cfa_offset 24
 1898              		.cfi_offset 3, -24
 1899              		.cfi_offset 4, -20
 1900              		.cfi_offset 5, -16
 1901              		.cfi_offset 6, -12
 1902              		.cfi_offset 7, -8
 1903              		.cfi_offset 14, -4
 1904              		.loc 1 721 3 view .LVU567
 1905 0382 4368     		ldr	r3, [r0, #4]
 1906              		.loc 1 718 21 view .LVU568
 1907 0384 0522     		movs	r2, #5
 1908              		.loc 1 717 21 view .LVU569
 1909 0386 0178     		ldrb	r1, [r0]	@ zero_extendqisi2
 1910              		.loc 1 713 36 view .LVU570
 1911 0388 0446     		mov	r4, r0
 1912              		.loc 1 721 3 view .LVU571
 1913 038a 1B68     		ldr	r3, [r3]
 1914              		.loc 1 717 21 view .LVU572
 1915 038c 80F88C10 		strb	r1, [r0, #140]
 1916              		.loc 1 718 3 is_stmt 1 view .LVU573
 1917              		.loc 1 718 21 is_stmt 0 view .LVU574
 1918 0390 0270     		strb	r2, [r0]
ARM GAS  /tmp/ccpnbTSa.s 			page 35


 1919              		.loc 1 721 3 is_stmt 1 view .LVU575
 1920 0392 0BB1     		cbz	r3, .L98
 1921              		.loc 1 721 3 discriminator 1 view .LVU576
 1922 0394 0421     		movs	r1, #4
 1923 0396 9847     		blx	r3
 1924              	.LVL91:
 1925              	.L98:
 1926              		.loc 1 721 52 discriminator 3 view .LVU577
 1927              		.loc 1 724 3 discriminator 3 view .LVU578
 1928              		.loc 1 725 3 discriminator 3 view .LVU579
 1929              		.loc 1 724 23 is_stmt 0 discriminator 3 view .LVU580
 1930 0398 0023     		movs	r3, #0
 1931              	.LBB535:
 1932              	.LBB536:
 1933              	.LBB537:
 1934              	.LBB538:
 1935              	.LBB539:
 1936              	.LBB540:
 1937              	.LBB541:
 1938              		.loc 5 493 3 discriminator 3 view .LVU581
 1939 039a 2027     		movs	r7, #32
 1940 039c 04F12C05 		add	r5, r4, #44
 1941              	.LBE541:
 1942              	.LBE540:
 1943              	.LBE539:
 1944              	.LBE538:
 1945              	.LBE537:
 1946              	.LBE536:
 1947              	.LBB558:
 1948              	.LBB559:
 1949              	.LBB560:
 1950              	.LBB561:
 1951              	.LBB562:
 1952              	.LBB563:
 1953 03a0 1E46     		mov	r6, r3
 1954              	.LBE563:
 1955              	.LBE562:
 1956              	.LBE561:
 1957              	.LBE560:
 1958              	.LBE559:
 1959              	.LBE558:
 1960              	.LBE535:
 1961              		.loc 1 724 23 discriminator 3 view .LVU582
 1962 03a2 44F8083F 		str	r3, [r4, #8]!
 1963              	.LVL92:
 1964              	.LBB596:
 1965              		.loc 1 730 5 is_stmt 1 discriminator 3 view .LVU583
 1966              		.loc 1 732 5 discriminator 3 view .LVU584
 1967              	.L102:
 1968              		.loc 1 733 7 view .LVU585
 1969              		.loc 1 734 9 view .LVU586
 1970              	.LBB575:
 1971              	.LBI536:
 1972              		.loc 2 531 20 view .LVU587
 1973              	.LBE575:
 1974              	.LBE596:
 1975              		.loc 2 533 3 view .LVU588
ARM GAS  /tmp/ccpnbTSa.s 			page 36


 1976              	.LBB597:
 1977              	.LBB576:
 1978              	.LBB553:
 1979              	.LBI537:
 1980              		.loc 3 393 20 view .LVU589
 1981              	.LBE553:
 1982              	.LBE576:
 1983              	.LBE597:
 1984              		.loc 3 395 3 view .LVU590
 1985              	.LBB598:
 1986              	.LBB577:
 1987              	.LBB554:
 1988              	.LBB549:
 1989              	.LBI538:
 1990              		.loc 4 708 27 view .LVU591
 1991              	.LBE549:
 1992              	.LBE554:
 1993              	.LBE577:
 1994              	.LBE598:
 1995              		.loc 4 710 3 view .LVU592
 1996              	.LBB599:
 1997              	.LBB578:
 1998              	.LBB555:
 1999              	.LBB550:
 2000              	.LBB546:
 2001              	.LBI539:
 2002              		.loc 4 669 27 view .LVU593
 2003              	.LBE546:
 2004              	.LBE550:
 2005              	.LBE555:
 2006              	.LBE578:
 2007              	.LBE599:
 2008              		.loc 4 677 3 view .LVU594
 2009              	.LBB600:
 2010              	.LBB579:
 2011              	.LBB556:
 2012              	.LBB551:
 2013              	.LBB547:
 2014              	.LBB544:
 2015              	.LBI540:
 2016              		.loc 5 491 27 view .LVU595
 2017              	.LBB542:
 2018              		.loc 5 493 3 view .LVU596
 2019              	.LBE542:
 2020              	.LBE544:
 2021              	.LBE547:
 2022              	.LBE551:
 2023              	.LBE556:
 2024              	.LBE579:
 2025              		.loc 1 733 10 is_stmt 0 view .LVU597
 2026 03a6 54F8043F 		ldr	r3, [r4, #4]!
 2027 03aa ABB1     		cbz	r3, .L99
 2028              	.LBB580:
 2029              	.LBB557:
 2030              	.LBB552:
 2031              	.LBB548:
 2032              	.LBB545:
ARM GAS  /tmp/ccpnbTSa.s 			page 37


 2033              	.LBB543:
 2034              		.loc 5 493 3 view .LVU598
 2035              		.syntax unified
 2036              	@ 493 "../../../external/ChibiOS/os/common/ext/ARM/CMSIS/Core/Include/cmsis_gcc.h" 1
 2037 03ac 87F31188 		MSR basepri, r7
 2038              	@ 0 "" 2
 2039              	.LVL93:
 2040              		.loc 5 493 3 view .LVU599
 2041              		.thumb
 2042              		.syntax unified
 2043              	.LBE543:
 2044              	.LBE545:
 2045              	.LBE548:
 2046              	.LBE552:
 2047              	.LBE557:
 2048              	.LBE580:
 2049              	.LBE600:
 2050              		.loc 3 396 34 is_stmt 1 view .LVU600
 2051              		.loc 3 397 29 view .LVU601
 2052              	.LBB601:
 2053              		.loc 1 735 9 view .LVU602
 2054              		.loc 1 736 11 view .LVU603
 2055              		.loc 1 735 22 is_stmt 0 view .LVU604
 2056 03b0 2368     		ldr	r3, [r4]
 2057              	.LBB581:
 2058              	.LBB582:
 2059              		.loc 2 775 3 view .LVU605
 2060 03b2 6FF00101 		mvn	r1, #1
 2061              	.LBE582:
 2062              	.LBE581:
 2063              		.loc 1 735 25 view .LVU606
 2064 03b6 5A69     		ldr	r2, [r3, #20]
 2065              	.LVL94:
 2066              	.LBB585:
 2067              	.LBI581:
 2068              		.loc 2 773 20 is_stmt 1 view .LVU607
 2069              	.LBB583:
 2070              		.loc 2 775 3 view .LVU608
 2071 03b8 02F10C00 		add	r0, r2, #12
 2072              	.LVL95:
 2073              		.loc 2 775 3 is_stmt 0 view .LVU609
 2074              	.LBE583:
 2075              	.LBE585:
 2076              		.loc 1 735 12 view .LVU610
 2077 03bc 12B1     		cbz	r2, .L100
 2078              	.LBB586:
 2079              	.LBB584:
 2080              		.loc 2 775 3 view .LVU611
 2081 03be FFF7FEFF 		bl	chThdResumeI
 2082              	.LVL96:
 2083              		.loc 2 775 3 view .LVU612
 2084 03c2 2368     		ldr	r3, [r4]
 2085              	.L100:
 2086              	.LBE584:
 2087              	.LBE586:
 2088              		.loc 1 738 9 is_stmt 1 view .LVU613
 2089              		.loc 1 739 11 view .LVU614
ARM GAS  /tmp/ccpnbTSa.s 			page 38


 2090              		.loc 1 738 25 is_stmt 0 view .LVU615
 2091 03c4 9B69     		ldr	r3, [r3, #24]
 2092              	.LVL97:
 2093              	.LBB587:
 2094              	.LBI587:
 2095              		.loc 2 773 20 is_stmt 1 view .LVU616
 2096              	.LBB588:
 2097              		.loc 2 775 3 view .LVU617
 2098 03c6 6FF00101 		mvn	r1, #1
 2099 03ca 03F10C00 		add	r0, r3, #12
 2100              	.LVL98:
 2101              		.loc 2 775 3 is_stmt 0 view .LVU618
 2102              	.LBE588:
 2103              	.LBE587:
 2104              		.loc 1 738 12 view .LVU619
 2105 03ce 0BB1     		cbz	r3, .L101
 2106              	.LBB590:
 2107              	.LBB589:
 2108              		.loc 2 775 3 view .LVU620
 2109 03d0 FFF7FEFF 		bl	chThdResumeI
 2110              	.LVL99:
 2111              	.L101:
 2112              		.loc 2 775 3 view .LVU621
 2113              	.LBE589:
 2114              	.LBE590:
 2115              		.loc 1 741 9 is_stmt 1 view .LVU622
 2116              	.LBB591:
 2117              	.LBI558:
 2118              		.loc 2 542 20 view .LVU623
 2119              	.LBE591:
 2120              	.LBE601:
 2121              		.loc 2 544 3 view .LVU624
 2122              	.LBB602:
 2123              	.LBB592:
 2124              	.LBB571:
 2125              	.LBI559:
 2126              		.loc 3 413 20 view .LVU625
 2127              	.LBE571:
 2128              	.LBE592:
 2129              	.LBE602:
 2130              		.loc 3 415 31 view .LVU626
 2131              		.loc 3 416 33 view .LVU627
 2132              		.loc 3 417 3 view .LVU628
 2133              	.LBB603:
 2134              	.LBB593:
 2135              	.LBB572:
 2136              	.LBB568:
 2137              	.LBI560:
 2138              		.loc 4 719 27 view .LVU629
 2139              	.LBE568:
 2140              	.LBE572:
 2141              	.LBE593:
 2142              	.LBE603:
 2143              		.loc 4 721 3 view .LVU630
 2144              	.LBB604:
 2145              	.LBB594:
 2146              	.LBB573:
ARM GAS  /tmp/ccpnbTSa.s 			page 39


 2147              	.LBB569:
 2148              	.LBB566:
 2149              	.LBI561:
 2150              		.loc 4 693 27 view .LVU631
 2151              	.LBE566:
 2152              	.LBE569:
 2153              	.LBE573:
 2154              	.LBE594:
 2155              	.LBE604:
 2156              		.loc 4 696 3 view .LVU632
 2157              	.LBB605:
 2158              	.LBB595:
 2159              	.LBB574:
 2160              	.LBB570:
 2161              	.LBB567:
 2162              	.LBB565:
 2163              	.LBI562:
 2164              		.loc 5 491 27 view .LVU633
 2165              	.LBB564:
 2166              		.loc 5 493 3 view .LVU634
 2167              		.syntax unified
 2168              	@ 493 "../../../external/ChibiOS/os/common/ext/ARM/CMSIS/Core/Include/cmsis_gcc.h" 1
 2169 03d4 86F31188 		MSR basepri, r6
 2170              	@ 0 "" 2
 2171              	.LVL100:
 2172              		.thumb
 2173              		.syntax unified
 2174              	.L99:
 2175              		.loc 5 493 3 is_stmt 0 view .LVU635
 2176              	.LBE564:
 2177              	.LBE565:
 2178              	.LBE567:
 2179              	.LBE570:
 2180              	.LBE574:
 2181              	.LBE595:
 2182              		.loc 1 732 5 discriminator 2 view .LVU636
 2183 03d8 AC42     		cmp	r4, r5
 2184 03da E4D1     		bne	.L102
 2185              	.LBE605:
 2186              		.loc 1 746 1 view .LVU637
 2187 03dc F8BD     		pop	{r3, r4, r5, r6, r7, pc}
 2188              		.loc 1 746 1 view .LVU638
 2189              		.cfi_endproc
 2190              	.LFE379:
 2191              		.size	_usb_suspend, .-_usb_suspend
 2192              		.align	1
 2193 03de 00BF     		.p2align 4,,15
 2194              		.global	_usb_wakeup
 2195              		.syntax unified
 2196              		.thumb
 2197              		.thumb_func
 2198              		.fpu fpv4-sp-d16
 2199              		.type	_usb_wakeup, %function
 2200              	_usb_wakeup:
 2201              	.LVL101:
 2202              	.LFB380:
 2203              		.loc 1 757 35 is_stmt 1 view -0
ARM GAS  /tmp/ccpnbTSa.s 			page 40


 2204              		.cfi_startproc
 2205              		@ args = 0, pretend = 0, frame = 0
 2206              		@ frame_needed = 0, uses_anonymous_args = 0
 2207              		@ link register save eliminated.
 2208              		.loc 1 760 3 view .LVU640
 2209              		.loc 1 763 3 is_stmt 0 view .LVU641
 2210 03e0 4268     		ldr	r2, [r0, #4]
 2211              		.loc 1 760 15 view .LVU642
 2212 03e2 90F88C10 		ldrb	r1, [r0, #140]	@ zero_extendqisi2
 2213              		.loc 1 763 3 view .LVU643
 2214 03e6 1268     		ldr	r2, [r2]
 2215              		.loc 1 760 15 view .LVU644
 2216 03e8 0170     		strb	r1, [r0]
 2217              		.loc 1 763 3 is_stmt 1 view .LVU645
 2218 03ea 0AB1     		cbz	r2, .L117
 2219              		.loc 1 763 3 discriminator 1 view .LVU646
 2220 03ec 0521     		movs	r1, #5
 2221 03ee 1047     		bx	r2	@ indirect register sibling call
 2222              	.LVL102:
 2223              	.L117:
 2224              		.loc 1 764 1 is_stmt 0 view .LVU647
 2225 03f0 7047     		bx	lr
 2226              		.cfi_endproc
 2227              	.LFE380:
 2228              		.size	_usb_wakeup, .-_usb_wakeup
 2229              		.align	1
 2230 03f2 00BFAFF3 		.p2align 4,,15
 2230      0080AFF3 
 2230      0080AFF3 
 2230      0080
 2231              		.global	_usb_ep0setup
 2232              		.syntax unified
 2233              		.thumb
 2234              		.thumb_func
 2235              		.fpu fpv4-sp-d16
 2236              		.type	_usb_ep0setup, %function
 2237              	_usb_ep0setup:
 2238              	.LVL103:
 2239              	.LFB381:
 2240              		.loc 1 776 49 is_stmt 1 view -0
 2241              		.cfi_startproc
 2242              		@ args = 0, pretend = 0, frame = 0
 2243              		@ frame_needed = 0, uses_anonymous_args = 0
 2244              		.loc 1 777 3 view .LVU649
 2245              		.loc 1 781 3 view .LVU650
 2246              		.loc 1 781 6 is_stmt 0 view .LVU651
 2247 0400 90F87030 		ldrb	r3, [r0, #112]	@ zero_extendqisi2
 2248              		.loc 1 776 49 view .LVU652
 2249 0404 70B5     		push	{r4, r5, r6, lr}
 2250              		.cfi_def_cfa_offset 16
 2251              		.cfi_offset 4, -16
 2252              		.cfi_offset 5, -12
 2253              		.cfi_offset 6, -8
 2254              		.cfi_offset 14, -4
 2255              		.loc 1 776 49 view .LVU653
 2256 0406 0446     		mov	r4, r0
 2257              		.loc 1 781 6 view .LVU654
ARM GAS  /tmp/ccpnbTSa.s 			page 41


 2258 0408 13B1     		cbz	r3, .L120
 2259              		.loc 1 786 5 is_stmt 1 view .LVU655
 2260              		.loc 1 786 20 is_stmt 0 view .LVU656
 2261 040a 0023     		movs	r3, #0
 2262 040c 80F87030 		strb	r3, [r0, #112]
 2263              	.L120:
 2264              		.loc 1 790 3 is_stmt 1 view .LVU657
 2265 0410 04F18002 		add	r2, r4, #128
 2266 0414 2046     		mov	r0, r4
 2267              	.LVL104:
 2268              		.loc 1 790 3 is_stmt 0 view .LVU658
 2269 0416 FFF7FEFF 		bl	usb_lld_read_setup
 2270              	.LVL105:
 2271              		.loc 1 795 3 is_stmt 1 view .LVU659
 2272              		.loc 1 795 20 is_stmt 0 view .LVU660
 2273 041a 6368     		ldr	r3, [r4, #4]
 2274 041c 9B68     		ldr	r3, [r3, #8]
 2275              		.loc 1 795 6 view .LVU661
 2276 041e 73B3     		cbz	r3, .L125
 2277              		.loc 1 796 9 discriminator 1 view .LVU662
 2278 0420 2046     		mov	r0, r4
 2279 0422 9847     		blx	r3
 2280              	.LVL106:
 2281              		.loc 1 795 48 discriminator 1 view .LVU663
 2282 0424 58B3     		cbz	r0, .L125
 2283 0426 A56F     		ldr	r5, [r4, #120]
 2284 0428 94F88020 		ldrb	r2, [r4, #128]	@ zero_extendqisi2
 2285              	.L142:
 2286              		.loc 1 823 3 is_stmt 1 view .LVU664
 2287              	.LVL107:
 2288              	.LBB682:
 2289              	.LBI682:
 2290              		.loc 1 51 17 view .LVU665
 2291              	.LBB683:
 2292              		.loc 1 52 3 view .LVU666
 2293              		.loc 1 54 3 view .LVU667
 2294              		.loc 1 55 3 view .LVU668
 2295              		.loc 1 56 3 view .LVU669
 2296              		.loc 1 55 9 is_stmt 0 view .LVU670
 2297 042c 94F88710 		ldrb	r1, [r4, #135]	@ zero_extendqisi2
 2298              		.loc 1 55 6 view .LVU671
 2299 0430 94F88630 		ldrb	r3, [r4, #134]	@ zero_extendqisi2
 2300              	.LBE683:
 2301              	.LBE682:
 2302              		.loc 1 823 7 view .LVU672
 2303 0434 43EA0123 		orr	r3, r3, r1, lsl #8
 2304              	.LVL108:
 2305              		.loc 1 825 3 is_stmt 1 view .LVU673
 2306              		.loc 1 825 6 is_stmt 0 view .LVU674
 2307 0438 AB42     		cmp	r3, r5
 2308 043a 01D2     		bcs	.L163
 2309              		.loc 1 826 5 is_stmt 1 view .LVU675
 2310              		.loc 1 826 16 is_stmt 0 view .LVU676
 2311 043c 1D46     		mov	r5, r3
 2312 043e A367     		str	r3, [r4, #120]
 2313              	.L163:
 2314              		.loc 1 828 3 is_stmt 1 view .LVU677
ARM GAS  /tmp/ccpnbTSa.s 			page 42


 2315              		.loc 1 828 6 is_stmt 0 view .LVU678
 2316 0440 1206     		lsls	r2, r2, #24
 2317 0442 00F1A380 		bmi	.L204
 2318              		.loc 1 852 5 is_stmt 1 view .LVU679
 2319              		.loc 1 852 8 is_stmt 0 view .LVU680
 2320 0446 002D     		cmp	r5, #0
 2321 0448 00F08880 		beq	.L166
 2322              		.loc 1 854 7 is_stmt 1 view .LVU681
 2323              		.loc 1 854 22 is_stmt 0 view .LVU682
 2324 044c 1522     		movs	r2, #21
 2325              	.LBB685:
 2326              	.LBB686:
 2327              	.LBB687:
 2328              	.LBB688:
 2329              	.LBB689:
 2330              	.LBB690:
 2331              		.loc 5 493 3 view .LVU683
 2332 044e 2023     		movs	r3, #32
 2333              	.LVL109:
 2334              		.loc 5 493 3 view .LVU684
 2335              	.LBE690:
 2336              	.LBE689:
 2337              	.LBE688:
 2338              	.LBE687:
 2339              	.LBE686:
 2340              	.LBE685:
 2341              		.loc 1 854 22 view .LVU685
 2342 0450 84F87020 		strb	r2, [r4, #112]
 2343              		.loc 1 855 7 is_stmt 1 view .LVU686
 2344              	.LBB702:
 2345              	.LBI685:
 2346              		.loc 2 531 20 view .LVU687
 2347              	.LBE702:
 2348              		.loc 2 533 3 view .LVU688
 2349              	.LBB703:
 2350              	.LBB698:
 2351              	.LBI686:
 2352              		.loc 3 393 20 view .LVU689
 2353              	.LBE698:
 2354              	.LBE703:
 2355              		.loc 3 395 3 view .LVU690
 2356              	.LBB704:
 2357              	.LBB699:
 2358              	.LBB695:
 2359              	.LBI687:
 2360              		.loc 4 708 27 view .LVU691
 2361              	.LBE695:
 2362              	.LBE699:
 2363              	.LBE704:
 2364              		.loc 4 710 3 view .LVU692
 2365              	.LBB705:
 2366              	.LBB700:
 2367              	.LBB696:
 2368              	.LBB693:
 2369              	.LBI688:
 2370              		.loc 4 669 27 view .LVU693
 2371              	.LBE693:
ARM GAS  /tmp/ccpnbTSa.s 			page 43


 2372              	.LBE696:
 2373              	.LBE700:
 2374              	.LBE705:
 2375              		.loc 4 677 3 view .LVU694
 2376              	.LVL110:
 2377              	.LBB706:
 2378              	.LBB701:
 2379              	.LBB697:
 2380              	.LBB694:
 2381              	.LBB692:
 2382              	.LBI689:
 2383              		.loc 5 491 27 view .LVU695
 2384              	.LBB691:
 2385              		.loc 5 493 3 view .LVU696
 2386              		.syntax unified
 2387              	@ 493 "../../../external/ChibiOS/os/common/ext/ARM/CMSIS/Core/Include/cmsis_gcc.h" 1
 2388 0454 83F31188 		MSR basepri, r3
 2389              	@ 0 "" 2
 2390              	.LVL111:
 2391              		.loc 5 493 3 is_stmt 0 view .LVU697
 2392              		.thumb
 2393              		.syntax unified
 2394              	.LBE691:
 2395              	.LBE692:
 2396              	.LBE694:
 2397              	.LBE697:
 2398              	.LBE701:
 2399              	.LBE706:
 2400              		.loc 3 396 34 is_stmt 1 view .LVU698
 2401              		.loc 3 397 29 view .LVU699
 2402              		.loc 1 856 7 view .LVU700
 2403              	.LBB707:
 2404              	.LBB708:
 2405              		.loc 1 462 19 is_stmt 0 view .LVU701
 2406 0458 6289     		ldrh	r2, [r4, #10]
 2407              		.loc 1 470 15 view .LVU702
 2408 045a 0025     		movs	r5, #0
 2409              		.loc 1 466 7 view .LVU703
 2410 045c E368     		ldr	r3, [r4, #12]
 2411              		.loc 1 476 3 view .LVU704
 2412 045e 2046     		mov	r0, r4
 2413              		.loc 1 462 19 view .LVU705
 2414 0460 42F00102 		orr	r2, r2, #1
 2415              	.LBE708:
 2416              	.LBE707:
 2417              		.loc 1 856 7 view .LVU706
 2418 0464 666F     		ldr	r6, [r4, #116]
 2419              	.LBB711:
 2420              	.LBB709:
 2421              		.loc 1 466 7 view .LVU707
 2422 0466 9B69     		ldr	r3, [r3, #24]
 2423              		.loc 1 476 3 view .LVU708
 2424 0468 2946     		mov	r1, r5
 2425              	.LVL112:
 2426              		.loc 1 462 19 view .LVU709
 2427 046a 6281     		strh	r2, [r4, #10]	@ movhi
 2428              	.LBE709:
ARM GAS  /tmp/ccpnbTSa.s 			page 44


 2429              	.LBE711:
 2430              		.loc 1 856 7 view .LVU710
 2431 046c A26F     		ldr	r2, [r4, #120]
 2432              	.LVL113:
 2433              	.LBB712:
 2434              	.LBI707:
 2435              		.loc 1 453 6 is_stmt 1 view .LVU711
 2436              	.LBB710:
 2437              		.loc 1 455 3 view .LVU712
 2438              		.loc 1 457 23 view .LVU713
 2439              		.loc 1 458 3 view .LVU714
 2440              		.loc 1 458 3 view .LVU715
 2441              		.loc 1 459 3 view .LVU716
 2442              		.loc 1 459 3 view .LVU717
 2443              		.loc 1 462 3 view .LVU718
 2444              		.loc 1 466 3 view .LVU719
 2445              		.loc 1 468 3 view .LVU720
 2446              		.loc 1 472 15 is_stmt 0 view .LVU721
 2447 046e DD60     		str	r5, [r3, #12]
 2448              	.LVL114:
 2449              		.loc 1 470 15 view .LVU722
 2450 0470 83E86400 		stm	r3, {r2, r5, r6}
 2451              		.loc 1 472 3 is_stmt 1 view .LVU723
 2452              		.loc 1 476 3 view .LVU724
 2453 0474 FFF7FEFF 		bl	usb_lld_start_out
 2454              	.LVL115:
 2455              		.loc 1 476 3 is_stmt 0 view .LVU725
 2456              	.LBE710:
 2457              	.LBE712:
 2458              		.loc 1 857 7 is_stmt 1 view .LVU726
 2459              	.LBB713:
 2460              	.LBI713:
 2461              		.loc 2 542 20 view .LVU727
 2462              	.LBE713:
 2463              		.loc 2 544 3 view .LVU728
 2464              	.LBB725:
 2465              	.LBB714:
 2466              	.LBI714:
 2467              		.loc 3 413 20 view .LVU729
 2468              	.LBE714:
 2469              	.LBE725:
 2470              		.loc 3 415 31 view .LVU730
 2471              		.loc 3 416 33 view .LVU731
 2472              		.loc 3 417 3 view .LVU732
 2473              	.LBB726:
 2474              	.LBB722:
 2475              	.LBB715:
 2476              	.LBI715:
 2477              		.loc 4 719 27 view .LVU733
 2478              	.LBE715:
 2479              	.LBE722:
 2480              	.LBE726:
 2481              		.loc 4 721 3 view .LVU734
 2482              	.LBB727:
 2483              	.LBB723:
 2484              	.LBB720:
 2485              	.LBB716:
ARM GAS  /tmp/ccpnbTSa.s 			page 45


 2486              	.LBI716:
 2487              		.loc 4 693 27 view .LVU735
 2488              	.LBE716:
 2489              	.LBE720:
 2490              	.LBE723:
 2491              	.LBE727:
 2492              		.loc 4 696 3 view .LVU736
 2493              	.LBB728:
 2494              	.LBB724:
 2495              	.LBB721:
 2496              	.LBB719:
 2497              	.LBB717:
 2498              	.LBI717:
 2499              		.loc 5 491 27 view .LVU737
 2500              	.LBB718:
 2501              		.loc 5 493 3 view .LVU738
 2502              		.syntax unified
 2503              	@ 493 "../../../external/ChibiOS/os/common/ext/ARM/CMSIS/Core/Include/cmsis_gcc.h" 1
 2504 0478 85F31188 		MSR basepri, r5
 2505              	@ 0 "" 2
 2506              	.LVL116:
 2507              		.loc 5 493 3 is_stmt 0 view .LVU739
 2508              		.thumb
 2509              		.syntax unified
 2510              	.LBE718:
 2511              	.LBE717:
 2512              	.LBE719:
 2513              	.LBE721:
 2514              	.LBE724:
 2515              	.LBE728:
 2516              		.loc 1 872 1 view .LVU740
 2517 047c 70BD     		pop	{r4, r5, r6, pc}
 2518              	.LVL117:
 2519              	.L125:
 2520              		.loc 1 801 5 is_stmt 1 view .LVU741
 2521              		.loc 1 801 22 is_stmt 0 view .LVU742
 2522 047e 94F88020 		ldrb	r2, [r4, #128]	@ zero_extendqisi2
 2523              		.loc 1 801 8 view .LVU743
 2524 0482 12F06006 		ands	r6, r2, #96
 2525 0486 1BD1     		bne	.L141
 2526              	.LVL118:
 2527              	.LBB729:
 2528              	.LBI729:
 2529              		.loc 1 84 13 is_stmt 1 view .LVU744
 2530              	.LBB730:
 2531              		.loc 1 85 3 view .LVU745
 2532              		.loc 1 88 3 view .LVU746
 2533              		.loc 1 90 13 is_stmt 0 view .LVU747
 2534 0488 94F88110 		ldrb	r1, [r4, #129]	@ zero_extendqisi2
 2535              		.loc 1 88 38 view .LVU748
 2536 048c 02F07F05 		and	r5, r2, #127
 2537              		.loc 1 88 3 view .LVU749
 2538 0490 40F20233 		movw	r3, #770
 2539              		.loc 1 89 63 view .LVU750
 2540 0494 45EA0125 		orr	r5, r5, r1, lsl #8
 2541              		.loc 1 88 3 view .LVU751
 2542 0498 9D42     		cmp	r5, r3
ARM GAS  /tmp/ccpnbTSa.s 			page 46


 2543 049a 00F0BB80 		beq	.L126
 2544 049e 2AD8     		bhi	.L127
 2545 04a0 022D     		cmp	r5, #2
 2546 04a2 00F0CA80 		beq	.L128
 2547 04a6 1DD9     		bls	.L205
 2548 04a8 B5F5817F 		cmp	r5, #258
 2549 04ac 00F0DA80 		beq	.L133
 2550 04b0 B5F5407F 		cmp	r5, #768
 2551 04b4 00F0E980 		beq	.L134
 2552 04b8 B5F5807F 		cmp	r5, #256
 2553 04bc 00F0F480 		beq	.L206
 2554              	.LVL119:
 2555              	.L141:
 2556              		.loc 1 88 3 view .LVU752
 2557              	.LBE730:
 2558              	.LBE729:
 2559              		.loc 1 807 7 is_stmt 1 view .LVU753
 2560 04c0 0021     		movs	r1, #0
 2561 04c2 2046     		mov	r0, r4
 2562 04c4 FFF7FEFF 		bl	usb_lld_stall_in
 2563              	.LVL120:
 2564              		.loc 1 808 7 view .LVU754
 2565 04c8 0021     		movs	r1, #0
 2566 04ca 2046     		mov	r0, r4
 2567 04cc FFF7FEFF 		bl	usb_lld_stall_out
 2568              	.LVL121:
 2569              		.loc 1 809 7 view .LVU755
 2570 04d0 6368     		ldr	r3, [r4, #4]
 2571 04d2 1B68     		ldr	r3, [r3]
 2572 04d4 13B1     		cbz	r3, .L161
 2573              		.loc 1 809 7 discriminator 1 view .LVU756
 2574 04d6 0621     		movs	r1, #6
 2575 04d8 2046     		mov	r0, r4
 2576 04da 9847     		blx	r3
 2577              	.LVL122:
 2578              	.L161:
 2579              		.loc 1 809 56 discriminator 3 view .LVU757
 2580              		.loc 1 810 7 discriminator 3 view .LVU758
 2581              		.loc 1 810 22 is_stmt 0 discriminator 3 view .LVU759
 2582 04dc 0623     		movs	r3, #6
 2583 04de 84F87030 		strb	r3, [r4, #112]
 2584              		.loc 1 811 7 is_stmt 1 discriminator 3 view .LVU760
 2585              		.loc 1 872 1 is_stmt 0 discriminator 3 view .LVU761
 2586 04e2 70BD     		pop	{r4, r5, r6, pc}
 2587              	.LVL123:
 2588              	.L205:
 2589              	.LBB780:
 2590              	.LBB769:
 2591              		.loc 1 88 3 view .LVU762
 2592 04e4 F5B9     		cbnz	r5, .L207
 2593              		.loc 1 93 5 is_stmt 1 view .LVU763
 2594 04e6 0223     		movs	r3, #2
 2595 04e8 04F18801 		add	r1, r4, #136
 2596 04ec E567     		str	r5, [r4, #124]
 2597 04ee 6167     		str	r1, [r4, #116]
 2598              		.loc 1 93 5 view .LVU764
 2599 04f0 1D46     		mov	r5, r3
ARM GAS  /tmp/ccpnbTSa.s 			page 47


 2600 04f2 A367     		str	r3, [r4, #120]
 2601              		.loc 1 93 5 view .LVU765
 2602              		.loc 1 93 62 view .LVU766
 2603              		.loc 1 94 5 view .LVU767
 2604              	.LVL124:
 2605              		.loc 1 94 5 is_stmt 0 view .LVU768
 2606 04f4 9AE7     		b	.L142
 2607              	.LVL125:
 2608              	.L127:
 2609              		.loc 1 88 3 view .LVU769
 2610 04f6 40F20163 		movw	r3, #1537
 2611 04fa 9D42     		cmp	r5, r3
 2612 04fc 1CD9     		bls	.L208
 2613 04fe B5F5106F 		cmp	r5, #2304
 2614 0502 00F0F980 		beq	.L139
 2615 0506 40F60243 		movw	r3, #3074
 2616 050a 9D42     		cmp	r5, r3
 2617 050c 0CD0     		beq	.L131
 2618 050e B5F5006F 		cmp	r5, #2048
 2619 0512 D5D1     		bne	.L141
 2620              		.loc 1 142 5 is_stmt 1 view .LVU770
 2621 0514 0123     		movs	r3, #1
 2622 0516 04F18B01 		add	r1, r4, #139
 2623 051a E667     		str	r6, [r4, #124]
 2624 051c 6167     		str	r1, [r4, #116]
 2625              		.loc 1 142 5 view .LVU771
 2626 051e 1D46     		mov	r5, r3
 2627 0520 A367     		str	r3, [r4, #120]
 2628              		.loc 1 142 5 view .LVU772
 2629              		.loc 1 142 58 view .LVU773
 2630              		.loc 1 143 5 view .LVU774
 2631              	.LVL126:
 2632              		.loc 1 143 5 is_stmt 0 view .LVU775
 2633 0522 83E7     		b	.L142
 2634              	.LVL127:
 2635              	.L207:
 2636              		.loc 1 88 3 view .LVU776
 2637 0524 012D     		cmp	r5, #1
 2638 0526 CBD1     		bne	.L141
 2639              	.L131:
 2640              		.loc 1 176 5 is_stmt 1 view .LVU777
 2641 0528 0223     		movs	r3, #2
 2642 052a 9348     		ldr	r0, .L214
 2643 052c 0021     		movs	r1, #0
 2644 052e 6067     		str	r0, [r4, #116]
 2645              		.loc 1 176 5 view .LVU778
 2646 0530 1D46     		mov	r5, r3
 2647 0532 C4E91E31 		strd	r3, r1, [r4, #120]
 2648              		.loc 1 176 60 view .LVU779
 2649              		.loc 1 178 5 view .LVU780
 2650              	.LVL128:
 2651              		.loc 1 178 5 is_stmt 0 view .LVU781
 2652 0536 79E7     		b	.L142
 2653              	.LVL129:
 2654              	.L208:
 2655              		.loc 1 88 3 view .LVU782
 2656 0538 B5F5C06F 		cmp	r5, #1536
ARM GAS  /tmp/ccpnbTSa.s 			page 48


 2657 053c 80F0C380 		bcs	.L137
 2658 0540 B5F5A06F 		cmp	r5, #1280
 2659 0544 BCD1     		bne	.L141
 2660              		.loc 1 118 5 is_stmt 1 view .LVU783
 2661              		.loc 1 118 8 is_stmt 0 view .LVU784
 2662 0546 B4F88030 		ldrh	r3, [r4, #128]
 2663 054a B3F5A06F 		cmp	r3, #1280
 2664 054e 4FD0     		beq	.L209
 2665              	.L159:
 2666              		.loc 1 245 5 is_stmt 1 view .LVU785
 2667 0550 0023     		movs	r3, #0
 2668 0552 C4E91D33 		strd	r3, r3, [r4, #116]
 2669              		.loc 1 245 5 view .LVU786
 2670 0556 E367     		str	r3, [r4, #124]
 2671              		.loc 1 245 42 view .LVU787
 2672              		.loc 1 246 5 view .LVU788
 2673              	.LVL130:
 2674              	.L143:
 2675              		.loc 1 246 5 is_stmt 0 view .LVU789
 2676              	.LBE769:
 2677              	.LBE780:
 2678              		.loc 1 823 3 is_stmt 1 view .LVU790
 2679              	.LBB781:
 2680              		.loc 1 51 17 view .LVU791
 2681              	.LBB684:
 2682              		.loc 1 52 3 view .LVU792
 2683              		.loc 1 54 3 view .LVU793
 2684              		.loc 1 55 3 view .LVU794
 2685              		.loc 1 56 3 view .LVU795
 2686              		.loc 1 56 3 is_stmt 0 view .LVU796
 2687              	.LBE684:
 2688              	.LBE781:
 2689              		.loc 1 825 3 is_stmt 1 view .LVU797
 2690              		.loc 1 828 3 view .LVU798
 2691              		.loc 1 828 6 is_stmt 0 view .LVU799
 2692 0558 1306     		lsls	r3, r2, #24
 2693 055a 31D4     		bmi	.L165
 2694              	.LVL131:
 2695              	.L166:
 2696              		.loc 1 862 7 is_stmt 1 view .LVU800
 2697              		.loc 1 862 22 is_stmt 0 view .LVU801
 2698 055c 0B22     		movs	r2, #11
 2699              	.LBB782:
 2700              	.LBB783:
 2701              	.LBB784:
 2702              	.LBB785:
 2703              	.LBB786:
 2704              	.LBB787:
 2705              		.loc 5 493 3 view .LVU802
 2706 055e 2023     		movs	r3, #32
 2707              	.LBE787:
 2708              	.LBE786:
 2709              	.LBE785:
 2710              	.LBE784:
 2711              	.LBE783:
 2712              	.LBE782:
 2713              		.loc 1 862 22 view .LVU803
ARM GAS  /tmp/ccpnbTSa.s 			page 49


 2714 0560 84F87020 		strb	r2, [r4, #112]
 2715              		.loc 1 864 7 is_stmt 1 view .LVU804
 2716              	.LBB799:
 2717              	.LBI782:
 2718              		.loc 2 531 20 view .LVU805
 2719              	.LBE799:
 2720              		.loc 2 533 3 view .LVU806
 2721              	.LBB800:
 2722              	.LBB795:
 2723              	.LBI783:
 2724              		.loc 3 393 20 view .LVU807
 2725              	.LBE795:
 2726              	.LBE800:
 2727              		.loc 3 395 3 view .LVU808
 2728              	.LBB801:
 2729              	.LBB796:
 2730              	.LBB792:
 2731              	.LBI784:
 2732              		.loc 4 708 27 view .LVU809
 2733              	.LBE792:
 2734              	.LBE796:
 2735              	.LBE801:
 2736              		.loc 4 710 3 view .LVU810
 2737              	.LBB802:
 2738              	.LBB797:
 2739              	.LBB793:
 2740              	.LBB790:
 2741              	.LBI785:
 2742              		.loc 4 669 27 view .LVU811
 2743              	.LBE790:
 2744              	.LBE793:
 2745              	.LBE797:
 2746              	.LBE802:
 2747              		.loc 4 677 3 view .LVU812
 2748              	.LVL132:
 2749              	.LBB803:
 2750              	.LBB798:
 2751              	.LBB794:
 2752              	.LBB791:
 2753              	.LBB789:
 2754              	.LBI786:
 2755              		.loc 5 491 27 view .LVU813
 2756              	.LBB788:
 2757              		.loc 5 493 3 view .LVU814
 2758              		.syntax unified
 2759              	@ 493 "../../../external/ChibiOS/os/common/ext/ARM/CMSIS/Core/Include/cmsis_gcc.h" 1
 2760 0564 83F31188 		MSR basepri, r3
 2761              	@ 0 "" 2
 2762              	.LVL133:
 2763              		.loc 5 493 3 is_stmt 0 view .LVU815
 2764              		.thumb
 2765              		.syntax unified
 2766              	.LBE788:
 2767              	.LBE789:
 2768              	.LBE791:
 2769              	.LBE794:
 2770              	.LBE798:
ARM GAS  /tmp/ccpnbTSa.s 			page 50


 2771              	.LBE803:
 2772              		.loc 3 396 34 is_stmt 1 view .LVU816
 2773              		.loc 3 397 29 view .LVU817
 2774              		.loc 1 865 7 view .LVU818
 2775              	.LBB804:
 2776              	.LBI804:
 2777              		.loc 1 492 6 view .LVU819
 2778              	.LBB805:
 2779              		.loc 1 494 3 view .LVU820
 2780              		.loc 1 496 23 view .LVU821
 2781              		.loc 1 497 3 view .LVU822
 2782              		.loc 1 497 3 view .LVU823
 2783              		.loc 1 498 3 view .LVU824
 2784              		.loc 1 498 3 view .LVU825
 2785              		.loc 1 501 3 view .LVU826
 2786              		.loc 1 501 22 is_stmt 0 view .LVU827
 2787 0568 2289     		ldrh	r2, [r4, #8]
 2788              		.loc 1 507 15 view .LVU828
 2789 056a 0025     		movs	r5, #0
 2790              		.loc 1 505 7 view .LVU829
 2791 056c E368     		ldr	r3, [r4, #12]
 2792              		.loc 1 515 3 view .LVU830
 2793 056e 2046     		mov	r0, r4
 2794              		.loc 1 501 22 view .LVU831
 2795 0570 42F00102 		orr	r2, r2, #1
 2796              		.loc 1 515 3 view .LVU832
 2797 0574 2946     		mov	r1, r5
 2798              		.loc 1 505 7 view .LVU833
 2799 0576 5B69     		ldr	r3, [r3, #20]
 2800              		.loc 1 501 22 view .LVU834
 2801 0578 2281     		strh	r2, [r4, #8]	@ movhi
 2802              		.loc 1 505 3 is_stmt 1 view .LVU835
 2803              	.LVL134:
 2804              		.loc 1 507 3 view .LVU836
 2805              		.loc 1 507 15 is_stmt 0 view .LVU837
 2806 057a 9D60     		str	r5, [r3, #8]
 2807              		.loc 1 508 3 is_stmt 1 view .LVU838
 2808              		.loc 1 511 15 is_stmt 0 view .LVU839
 2809 057c DD60     		str	r5, [r3, #12]
 2810              		.loc 1 509 15 view .LVU840
 2811 057e C3E90055 		strd	r5, r5, [r3]
 2812              		.loc 1 511 3 is_stmt 1 view .LVU841
 2813              		.loc 1 515 3 view .LVU842
 2814 0582 FFF7FEFF 		bl	usb_lld_start_in
 2815              	.LVL135:
 2816              		.loc 1 515 3 is_stmt 0 view .LVU843
 2817              	.LBE805:
 2818              	.LBE804:
 2819              		.loc 1 866 7 is_stmt 1 view .LVU844
 2820              	.LBB806:
 2821              	.LBI806:
 2822              		.loc 2 542 20 view .LVU845
 2823              	.LBE806:
 2824              		.loc 2 544 3 view .LVU846
 2825              	.LBB818:
 2826              	.LBB807:
 2827              	.LBI807:
ARM GAS  /tmp/ccpnbTSa.s 			page 51


 2828              		.loc 3 413 20 view .LVU847
 2829              	.LBE807:
 2830              	.LBE818:
 2831              		.loc 3 415 31 view .LVU848
 2832              		.loc 3 416 33 view .LVU849
 2833              		.loc 3 417 3 view .LVU850
 2834              	.LBB819:
 2835              	.LBB815:
 2836              	.LBB808:
 2837              	.LBI808:
 2838              		.loc 4 719 27 view .LVU851
 2839              	.LBE808:
 2840              	.LBE815:
 2841              	.LBE819:
 2842              		.loc 4 721 3 view .LVU852
 2843              	.LBB820:
 2844              	.LBB816:
 2845              	.LBB813:
 2846              	.LBB809:
 2847              	.LBI809:
 2848              		.loc 4 693 27 view .LVU853
 2849              	.LBE809:
 2850              	.LBE813:
 2851              	.LBE816:
 2852              	.LBE820:
 2853              		.loc 4 696 3 view .LVU854
 2854              	.LBB821:
 2855              	.LBB817:
 2856              	.LBB814:
 2857              	.LBB812:
 2858              	.LBB810:
 2859              	.LBI810:
 2860              		.loc 5 491 27 view .LVU855
 2861              	.LBB811:
 2862              		.loc 5 493 3 view .LVU856
 2863              		.syntax unified
 2864              	@ 493 "../../../external/ChibiOS/os/common/ext/ARM/CMSIS/Core/Include/cmsis_gcc.h" 1
 2865 0586 85F31188 		MSR basepri, r5
 2866              	@ 0 "" 2
 2867              	.LVL136:
 2868              		.loc 5 493 3 is_stmt 0 view .LVU857
 2869              		.thumb
 2870              		.syntax unified
 2871              	.LBE811:
 2872              	.LBE810:
 2873              	.LBE812:
 2874              	.LBE814:
 2875              	.LBE817:
 2876              	.LBE821:
 2877              		.loc 1 872 1 view .LVU858
 2878 058a 70BD     		pop	{r4, r5, r6, pc}
 2879              	.LVL137:
 2880              	.L204:
 2881              		.loc 1 830 5 is_stmt 1 view .LVU859
 2882              		.loc 1 830 8 is_stmt 0 view .LVU860
 2883 058c C5B1     		cbz	r5, .L165
 2884              		.loc 1 832 7 is_stmt 1 view .LVU861
ARM GAS  /tmp/ccpnbTSa.s 			page 52


 2885              		.loc 1 832 22 is_stmt 0 view .LVU862
 2886 058e 0922     		movs	r2, #9
 2887              	.LBB822:
 2888              	.LBB823:
 2889              	.LBB824:
 2890              	.LBB825:
 2891              	.LBB826:
 2892              	.LBB827:
 2893              		.loc 5 493 3 view .LVU863
 2894 0590 2023     		movs	r3, #32
 2895              	.LVL138:
 2896              		.loc 5 493 3 view .LVU864
 2897              	.LBE827:
 2898              	.LBE826:
 2899              	.LBE825:
 2900              	.LBE824:
 2901              	.LBE823:
 2902              	.LBE822:
 2903              		.loc 1 832 22 view .LVU865
 2904 0592 84F87020 		strb	r2, [r4, #112]
 2905              		.loc 1 833 7 is_stmt 1 view .LVU866
 2906              	.LBB839:
 2907              	.LBI822:
 2908              		.loc 2 531 20 view .LVU867
 2909              	.LBE839:
 2910              		.loc 2 533 3 view .LVU868
 2911              	.LBB840:
 2912              	.LBB835:
 2913              	.LBI823:
 2914              		.loc 3 393 20 view .LVU869
 2915              	.LBE835:
 2916              	.LBE840:
 2917              		.loc 3 395 3 view .LVU870
 2918              	.LBB841:
 2919              	.LBB836:
 2920              	.LBB832:
 2921              	.LBI824:
 2922              		.loc 4 708 27 view .LVU871
 2923              	.LBE832:
 2924              	.LBE836:
 2925              	.LBE841:
 2926              		.loc 4 710 3 view .LVU872
 2927              	.LBB842:
 2928              	.LBB837:
 2929              	.LBB833:
 2930              	.LBB830:
 2931              	.LBI825:
 2932              		.loc 4 669 27 view .LVU873
 2933              	.LBE830:
 2934              	.LBE833:
 2935              	.LBE837:
 2936              	.LBE842:
 2937              		.loc 4 677 3 view .LVU874
 2938              	.LVL139:
 2939              	.LBB843:
 2940              	.LBB838:
 2941              	.LBB834:
ARM GAS  /tmp/ccpnbTSa.s 			page 53


 2942              	.LBB831:
 2943              	.LBB829:
 2944              	.LBI826:
 2945              		.loc 5 491 27 view .LVU875
 2946              	.LBB828:
 2947              		.loc 5 493 3 view .LVU876
 2948              		.syntax unified
 2949              	@ 493 "../../../external/ChibiOS/os/common/ext/ARM/CMSIS/Core/Include/cmsis_gcc.h" 1
 2950 0596 83F31188 		MSR basepri, r3
 2951              	@ 0 "" 2
 2952              	.LVL140:
 2953              		.loc 5 493 3 is_stmt 0 view .LVU877
 2954              		.thumb
 2955              		.syntax unified
 2956              	.LBE828:
 2957              	.LBE829:
 2958              	.LBE831:
 2959              	.LBE834:
 2960              	.LBE838:
 2961              	.LBE843:
 2962              		.loc 3 396 34 is_stmt 1 view .LVU878
 2963              		.loc 3 397 29 view .LVU879
 2964              		.loc 1 834 7 view .LVU880
 2965              	.LBB844:
 2966              	.LBB845:
 2967              		.loc 1 501 22 is_stmt 0 view .LVU881
 2968 059a 2289     		ldrh	r2, [r4, #8]
 2969              		.loc 1 509 15 view .LVU882
 2970 059c 0025     		movs	r5, #0
 2971              		.loc 1 505 7 view .LVU883
 2972 059e E368     		ldr	r3, [r4, #12]
 2973              		.loc 1 515 3 view .LVU884
 2974 05a0 2046     		mov	r0, r4
 2975              		.loc 1 501 22 view .LVU885
 2976 05a2 42F00102 		orr	r2, r2, #1
 2977              	.LBE845:
 2978              	.LBE844:
 2979              		.loc 1 834 38 view .LVU886
 2980 05a6 666F     		ldr	r6, [r4, #116]
 2981              	.LBB848:
 2982              	.LBB846:
 2983              		.loc 1 505 7 view .LVU887
 2984 05a8 5B69     		ldr	r3, [r3, #20]
 2985              		.loc 1 515 3 view .LVU888
 2986 05aa 2946     		mov	r1, r5
 2987              	.LVL141:
 2988              		.loc 1 501 22 view .LVU889
 2989 05ac 2281     		strh	r2, [r4, #8]	@ movhi
 2990              	.LBE846:
 2991              	.LBE848:
 2992              		.loc 1 834 7 view .LVU890
 2993 05ae A26F     		ldr	r2, [r4, #120]
 2994              	.LVL142:
 2995              	.LBB849:
 2996              	.LBI844:
 2997              		.loc 1 492 6 is_stmt 1 view .LVU891
 2998              	.LBB847:
ARM GAS  /tmp/ccpnbTSa.s 			page 54


 2999              		.loc 1 494 3 view .LVU892
 3000              		.loc 1 496 23 view .LVU893
 3001              		.loc 1 497 3 view .LVU894
 3002              		.loc 1 497 3 view .LVU895
 3003              		.loc 1 498 3 view .LVU896
 3004              		.loc 1 498 3 view .LVU897
 3005              		.loc 1 501 3 view .LVU898
 3006              		.loc 1 505 3 view .LVU899
 3007              		.loc 1 507 3 view .LVU900
 3008              		.loc 1 511 15 is_stmt 0 view .LVU901
 3009 05b0 DD60     		str	r5, [r3, #12]
 3010              	.LVL143:
 3011              		.loc 1 509 15 view .LVU902
 3012 05b2 83E86400 		stm	r3, {r2, r5, r6}
 3013              		.loc 1 511 3 is_stmt 1 view .LVU903
 3014              		.loc 1 515 3 view .LVU904
 3015 05b6 FFF7FEFF 		bl	usb_lld_start_in
 3016              	.LVL144:
 3017              		.loc 1 515 3 is_stmt 0 view .LVU905
 3018              	.LBE847:
 3019              	.LBE849:
 3020              		.loc 1 835 7 is_stmt 1 view .LVU906
 3021              	.LBB850:
 3022              	.LBI850:
 3023              		.loc 2 542 20 view .LVU907
 3024              	.LBE850:
 3025              		.loc 2 544 3 view .LVU908
 3026              	.LBB862:
 3027              	.LBB851:
 3028              	.LBI851:
 3029              		.loc 3 413 20 view .LVU909
 3030              	.LBE851:
 3031              	.LBE862:
 3032              		.loc 3 415 31 view .LVU910
 3033              		.loc 3 416 33 view .LVU911
 3034              		.loc 3 417 3 view .LVU912
 3035              	.LBB863:
 3036              	.LBB859:
 3037              	.LBB852:
 3038              	.LBI852:
 3039              		.loc 4 719 27 view .LVU913
 3040              	.LBE852:
 3041              	.LBE859:
 3042              	.LBE863:
 3043              		.loc 4 721 3 view .LVU914
 3044              	.LBB864:
 3045              	.LBB860:
 3046              	.LBB857:
 3047              	.LBB853:
 3048              	.LBI853:
 3049              		.loc 4 693 27 view .LVU915
 3050              	.LBE853:
 3051              	.LBE857:
 3052              	.LBE860:
 3053              	.LBE864:
 3054              		.loc 4 696 3 view .LVU916
 3055              	.LBB865:
ARM GAS  /tmp/ccpnbTSa.s 			page 55


 3056              	.LBB861:
 3057              	.LBB858:
 3058              	.LBB856:
 3059              	.LBB854:
 3060              	.LBI854:
 3061              		.loc 5 491 27 view .LVU917
 3062              	.LBB855:
 3063              		.loc 5 493 3 view .LVU918
 3064              		.syntax unified
 3065              	@ 493 "../../../external/ChibiOS/os/common/ext/ARM/CMSIS/Core/Include/cmsis_gcc.h" 1
 3066 05ba 85F31188 		MSR basepri, r5
 3067              	@ 0 "" 2
 3068              	.LVL145:
 3069              		.loc 5 493 3 is_stmt 0 view .LVU919
 3070              		.thumb
 3071              		.syntax unified
 3072              	.LBE855:
 3073              	.LBE854:
 3074              	.LBE856:
 3075              	.LBE858:
 3076              	.LBE861:
 3077              	.LBE865:
 3078              		.loc 1 872 1 view .LVU920
 3079 05be 70BD     		pop	{r4, r5, r6, pc}
 3080              	.LVL146:
 3081              	.L165:
 3082              		.loc 1 840 7 is_stmt 1 view .LVU921
 3083              		.loc 1 840 22 is_stmt 0 view .LVU922
 3084 05c0 1422     		movs	r2, #20
 3085              	.LBB866:
 3086              	.LBB867:
 3087              	.LBB868:
 3088              	.LBB869:
 3089              	.LBB870:
 3090              	.LBB871:
 3091              		.loc 5 493 3 view .LVU923
 3092 05c2 2023     		movs	r3, #32
 3093              	.LBE871:
 3094              	.LBE870:
 3095              	.LBE869:
 3096              	.LBE868:
 3097              	.LBE867:
 3098              	.LBE866:
 3099              		.loc 1 840 22 view .LVU924
 3100 05c4 84F87020 		strb	r2, [r4, #112]
 3101              		.loc 1 842 7 is_stmt 1 view .LVU925
 3102              	.LBB883:
 3103              	.LBI866:
 3104              		.loc 2 531 20 view .LVU926
 3105              	.LBE883:
 3106              		.loc 2 533 3 view .LVU927
 3107              	.LBB884:
 3108              	.LBB879:
 3109              	.LBI867:
 3110              		.loc 3 393 20 view .LVU928
 3111              	.LBE879:
 3112              	.LBE884:
ARM GAS  /tmp/ccpnbTSa.s 			page 56


 3113              		.loc 3 395 3 view .LVU929
 3114              	.LBB885:
 3115              	.LBB880:
 3116              	.LBB876:
 3117              	.LBI868:
 3118              		.loc 4 708 27 view .LVU930
 3119              	.LBE876:
 3120              	.LBE880:
 3121              	.LBE885:
 3122              		.loc 4 710 3 view .LVU931
 3123              	.LBB886:
 3124              	.LBB881:
 3125              	.LBB877:
 3126              	.LBB874:
 3127              	.LBI869:
 3128              		.loc 4 669 27 view .LVU932
 3129              	.LBE874:
 3130              	.LBE877:
 3131              	.LBE881:
 3132              	.LBE886:
 3133              		.loc 4 677 3 view .LVU933
 3134              	.LVL147:
 3135              	.LBB887:
 3136              	.LBB882:
 3137              	.LBB878:
 3138              	.LBB875:
 3139              	.LBB873:
 3140              	.LBI870:
 3141              		.loc 5 491 27 view .LVU934
 3142              	.LBB872:
 3143              		.loc 5 493 3 view .LVU935
 3144              		.syntax unified
 3145              	@ 493 "../../../external/ChibiOS/os/common/ext/ARM/CMSIS/Core/Include/cmsis_gcc.h" 1
 3146 05c8 83F31188 		MSR basepri, r3
 3147              	@ 0 "" 2
 3148              	.LVL148:
 3149              		.loc 5 493 3 is_stmt 0 view .LVU936
 3150              		.thumb
 3151              		.syntax unified
 3152              	.LBE872:
 3153              	.LBE873:
 3154              	.LBE875:
 3155              	.LBE878:
 3156              	.LBE882:
 3157              	.LBE887:
 3158              		.loc 3 396 34 is_stmt 1 view .LVU937
 3159              		.loc 3 397 29 view .LVU938
 3160              		.loc 1 843 7 view .LVU939
 3161              	.LBB888:
 3162              	.LBI888:
 3163              		.loc 1 453 6 view .LVU940
 3164              	.LBB889:
 3165              		.loc 1 455 3 view .LVU941
 3166              		.loc 1 457 23 view .LVU942
 3167              		.loc 1 458 3 view .LVU943
 3168              		.loc 1 458 3 view .LVU944
 3169              		.loc 1 459 3 view .LVU945
ARM GAS  /tmp/ccpnbTSa.s 			page 57


 3170              		.loc 1 459 3 view .LVU946
 3171              		.loc 1 462 3 view .LVU947
 3172              		.loc 1 462 19 is_stmt 0 view .LVU948
 3173 05cc 6289     		ldrh	r2, [r4, #10]
 3174              		.loc 1 468 15 view .LVU949
 3175 05ce 0025     		movs	r5, #0
 3176              		.loc 1 466 7 view .LVU950
 3177 05d0 E368     		ldr	r3, [r4, #12]
 3178              		.loc 1 476 3 view .LVU951
 3179 05d2 2046     		mov	r0, r4
 3180              		.loc 1 462 19 view .LVU952
 3181 05d4 42F00102 		orr	r2, r2, #1
 3182              		.loc 1 476 3 view .LVU953
 3183 05d8 2946     		mov	r1, r5
 3184              		.loc 1 466 7 view .LVU954
 3185 05da 9B69     		ldr	r3, [r3, #24]
 3186              		.loc 1 462 19 view .LVU955
 3187 05dc 6281     		strh	r2, [r4, #10]	@ movhi
 3188              		.loc 1 466 3 is_stmt 1 view .LVU956
 3189              	.LVL149:
 3190              		.loc 1 468 3 view .LVU957
 3191              		.loc 1 468 15 is_stmt 0 view .LVU958
 3192 05de 9D60     		str	r5, [r3, #8]
 3193              		.loc 1 469 3 is_stmt 1 view .LVU959
 3194              		.loc 1 472 15 is_stmt 0 view .LVU960
 3195 05e0 DD60     		str	r5, [r3, #12]
 3196              		.loc 1 470 15 view .LVU961
 3197 05e2 C3E90055 		strd	r5, r5, [r3]
 3198              		.loc 1 472 3 is_stmt 1 view .LVU962
 3199              		.loc 1 476 3 view .LVU963
 3200 05e6 FFF7FEFF 		bl	usb_lld_start_out
 3201              	.LVL150:
 3202              		.loc 1 476 3 is_stmt 0 view .LVU964
 3203              	.LBE889:
 3204              	.LBE888:
 3205              		.loc 1 844 7 is_stmt 1 view .LVU965
 3206              	.LBB890:
 3207              	.LBI890:
 3208              		.loc 2 542 20 view .LVU966
 3209              	.LBE890:
 3210              		.loc 2 544 3 view .LVU967
 3211              	.LBB902:
 3212              	.LBB891:
 3213              	.LBI891:
 3214              		.loc 3 413 20 view .LVU968
 3215              	.LBE891:
 3216              	.LBE902:
 3217              		.loc 3 415 31 view .LVU969
 3218              		.loc 3 416 33 view .LVU970
 3219              		.loc 3 417 3 view .LVU971
 3220              	.LBB903:
 3221              	.LBB899:
 3222              	.LBB892:
 3223              	.LBI892:
 3224              		.loc 4 719 27 view .LVU972
 3225              	.LBE892:
 3226              	.LBE899:
ARM GAS  /tmp/ccpnbTSa.s 			page 58


 3227              	.LBE903:
 3228              		.loc 4 721 3 view .LVU973
 3229              	.LBB904:
 3230              	.LBB900:
 3231              	.LBB897:
 3232              	.LBB893:
 3233              	.LBI893:
 3234              		.loc 4 693 27 view .LVU974
 3235              	.LBE893:
 3236              	.LBE897:
 3237              	.LBE900:
 3238              	.LBE904:
 3239              		.loc 4 696 3 view .LVU975
 3240              	.LBB905:
 3241              	.LBB901:
 3242              	.LBB898:
 3243              	.LBB896:
 3244              	.LBB894:
 3245              	.LBI894:
 3246              		.loc 5 491 27 view .LVU976
 3247              	.LBB895:
 3248              		.loc 5 493 3 view .LVU977
 3249              		.syntax unified
 3250              	@ 493 "../../../external/ChibiOS/os/common/ext/ARM/CMSIS/Core/Include/cmsis_gcc.h" 1
 3251 05ea 85F31188 		MSR basepri, r5
 3252              	@ 0 "" 2
 3253              	.LVL151:
 3254              		.loc 5 493 3 is_stmt 0 view .LVU978
 3255              		.thumb
 3256              		.syntax unified
 3257              	.LBE895:
 3258              	.LBE894:
 3259              	.LBE896:
 3260              	.LBE898:
 3261              	.LBE901:
 3262              	.LBE905:
 3263              		.loc 1 872 1 view .LVU979
 3264 05ee 70BD     		pop	{r4, r5, r6, pc}
 3265              	.LVL152:
 3266              	.L209:
 3267              	.LBB906:
 3268              	.LBB770:
 3269              		.loc 1 120 7 is_stmt 1 view .LVU980
 3270              	.LBB731:
 3271              	.LBI731:
 3272              		.loc 1 64 13 view .LVU981
 3273              	.LBB732:
 3274              		.loc 1 66 3 view .LVU982
 3275              		.loc 1 66 17 is_stmt 0 view .LVU983
 3276 05f0 94F88230 		ldrb	r3, [r4, #130]	@ zero_extendqisi2
 3277              		.loc 1 67 3 view .LVU984
 3278 05f4 2046     		mov	r0, r4
 3279              		.loc 1 66 17 view .LVU985
 3280 05f6 84F88A30 		strb	r3, [r4, #138]
 3281              		.loc 1 67 3 is_stmt 1 view .LVU986
 3282 05fa FFF7FEFF 		bl	usb_lld_set_address
 3283              	.LVL153:
ARM GAS  /tmp/ccpnbTSa.s 			page 59


 3284              		.loc 1 68 3 view .LVU987
 3285 05fe 6368     		ldr	r3, [r4, #4]
 3286 0600 1B68     		ldr	r3, [r3]
 3287 0602 13B1     		cbz	r3, .L145
 3288              		.loc 1 68 3 view .LVU988
 3289 0604 0121     		movs	r1, #1
 3290 0606 2046     		mov	r0, r4
 3291 0608 9847     		blx	r3
 3292              	.LVL154:
 3293              	.L145:
 3294              		.loc 1 68 52 view .LVU989
 3295              		.loc 1 69 3 view .LVU990
 3296              		.loc 1 69 15 is_stmt 0 view .LVU991
 3297 060a 0323     		movs	r3, #3
 3298 060c 94F88020 		ldrb	r2, [r4, #128]	@ zero_extendqisi2
 3299 0610 2370     		strb	r3, [r4]
 3300              	.LBE732:
 3301              	.LBE731:
 3302              		.loc 1 122 5 is_stmt 1 view .LVU992
 3303 0612 9DE7     		b	.L159
 3304              	.LVL155:
 3305              	.L126:
 3306              		.loc 1 233 5 view .LVU993
 3307              		.loc 1 233 8 is_stmt 0 view .LVU994
 3308 0614 94F88230 		ldrb	r3, [r4, #130]	@ zero_extendqisi2
 3309 0618 002B     		cmp	r3, #0
 3310 061a 7FF451AF 		bne	.L141
 3311              		.loc 1 237 5 is_stmt 1 view .LVU995
 3312              		.loc 1 237 21 is_stmt 0 view .LVU996
 3313 061e 94F88430 		ldrb	r3, [r4, #132]	@ zero_extendqisi2
 3314              		.loc 1 237 8 view .LVU997
 3315 0622 13F00F01 		ands	r1, r3, #15
 3316 0626 93D0     		beq	.L159
 3317              		.loc 1 238 7 is_stmt 1 view .LVU998
 3318              		.loc 1 238 10 is_stmt 0 view .LVU999
 3319 0628 1D06     		lsls	r5, r3, #24
 3320              		.loc 1 239 9 view .LVU1000
 3321 062a 2046     		mov	r0, r4
 3322              		.loc 1 238 10 view .LVU1001
 3323 062c 00F19980 		bmi	.L210
 3324              	.LVL156:
 3325              		.loc 1 242 9 is_stmt 1 view .LVU1002
 3326 0630 FFF7FEFF 		bl	usb_lld_stall_out
 3327              	.LVL157:
 3328              		.loc 1 242 9 is_stmt 0 view .LVU1003
 3329 0634 94F88020 		ldrb	r2, [r4, #128]	@ zero_extendqisi2
 3330 0638 8AE7     		b	.L159
 3331              	.L128:
 3332              		.loc 1 181 5 is_stmt 1 view .LVU1004
 3333              		.loc 1 181 21 is_stmt 0 view .LVU1005
 3334 063a 94F88430 		ldrb	r3, [r4, #132]	@ zero_extendqisi2
 3335              		.loc 1 182 15 view .LVU1006
 3336 063e 2046     		mov	r0, r4
 3337 0640 03F00F01 		and	r1, r3, #15
 3338              		.loc 1 181 8 view .LVU1007
 3339 0644 1B06     		lsls	r3, r3, #24
 3340 0646 6ED4     		bmi	.L211
ARM GAS  /tmp/ccpnbTSa.s 			page 60


 3341              	.LVL158:
 3342              		.loc 1 199 7 is_stmt 1 view .LVU1008
 3343              		.loc 1 199 15 is_stmt 0 view .LVU1009
 3344 0648 FFF7FEFF 		bl	usb_lld_get_status_out
 3345              	.LVL159:
 3346              		.loc 1 199 7 view .LVU1010
 3347 064c 0128     		cmp	r0, #1
 3348 064e 6ED0     		beq	.L155
 3349              	.L203:
 3350              		.loc 1 199 7 view .LVU1011
 3351 0650 0228     		cmp	r0, #2
 3352 0652 7FF435AF 		bne	.L141
 3353              		.loc 1 207 9 is_stmt 1 view .LVU1012
 3354 0656 494B     		ldr	r3, .L214+4
 3355 0658 94F88020 		ldrb	r2, [r4, #128]	@ zero_extendqisi2
 3356 065c 6367     		str	r3, [r4, #116]
 3357              		.loc 1 207 9 view .LVU1013
 3358              		.loc 1 207 9 view .LVU1014
 3359              		.loc 1 207 66 view .LVU1015
 3360              		.loc 1 209 9 view .LVU1016
 3361              	.LVL160:
 3362              		.loc 1 207 9 is_stmt 0 view .LVU1017
 3363 065e C4E91E56 		strd	r5, r6, [r4, #120]
 3364 0662 E3E6     		b	.L142
 3365              	.LVL161:
 3366              	.L133:
 3367              		.loc 1 217 5 is_stmt 1 view .LVU1018
 3368              		.loc 1 217 8 is_stmt 0 view .LVU1019
 3369 0664 94F88230 		ldrb	r3, [r4, #130]	@ zero_extendqisi2
 3370 0668 002B     		cmp	r3, #0
 3371 066a 7FF429AF 		bne	.L141
 3372              		.loc 1 221 5 is_stmt 1 view .LVU1020
 3373              		.loc 1 221 21 is_stmt 0 view .LVU1021
 3374 066e 94F88430 		ldrb	r3, [r4, #132]	@ zero_extendqisi2
 3375              		.loc 1 221 8 view .LVU1022
 3376 0672 13F00F01 		ands	r1, r3, #15
 3377 0676 3FF46BAF 		beq	.L159
 3378              		.loc 1 222 7 is_stmt 1 view .LVU1023
 3379              		.loc 1 222 10 is_stmt 0 view .LVU1024
 3380 067a 1E06     		lsls	r6, r3, #24
 3381              		.loc 1 223 9 view .LVU1025
 3382 067c 2046     		mov	r0, r4
 3383              		.loc 1 222 10 view .LVU1026
 3384 067e 75D4     		bmi	.L212
 3385              	.LVL162:
 3386              		.loc 1 226 9 is_stmt 1 view .LVU1027
 3387 0680 FFF7FEFF 		bl	usb_lld_clear_out
 3388              	.LVL163:
 3389              		.loc 1 226 9 is_stmt 0 view .LVU1028
 3390 0684 94F88020 		ldrb	r2, [r4, #128]	@ zero_extendqisi2
 3391              		.loc 1 229 5 is_stmt 1 view .LVU1029
 3392 0688 62E7     		b	.L159
 3393              	.L134:
 3394              		.loc 1 107 5 view .LVU1030
 3395              		.loc 1 107 8 is_stmt 0 view .LVU1031
 3396 068a 94F88230 		ldrb	r3, [r4, #130]	@ zero_extendqisi2
 3397 068e 012B     		cmp	r3, #1
ARM GAS  /tmp/ccpnbTSa.s 			page 61


 3398 0690 7FF416AF 		bne	.L141
 3399              		.loc 1 108 7 is_stmt 1 view .LVU1032
 3400              		.loc 1 108 20 is_stmt 0 view .LVU1033
 3401 0694 B4F88830 		ldrh	r3, [r4, #136]
 3402              		.loc 1 109 7 view .LVU1034
 3403 0698 6667     		str	r6, [r4, #116]
 3404              		.loc 1 108 20 view .LVU1035
 3405 069a 43F00203 		orr	r3, r3, #2
 3406              		.loc 1 109 7 view .LVU1036
 3407 069e C4E91E66 		strd	r6, r6, [r4, #120]
 3408              		.loc 1 108 20 view .LVU1037
 3409 06a2 A4F88830 		strh	r3, [r4, #136]	@ movhi
 3410              		.loc 1 109 7 is_stmt 1 view .LVU1038
 3411              		.loc 1 109 7 view .LVU1039
 3412              		.loc 1 109 7 view .LVU1040
 3413              		.loc 1 109 44 view .LVU1041
 3414              		.loc 1 110 7 view .LVU1042
 3415              	.LVL164:
 3416              		.loc 1 110 7 is_stmt 0 view .LVU1043
 3417 06a6 57E7     		b	.L143
 3418              	.LVL165:
 3419              	.L206:
 3420              		.loc 1 98 5 is_stmt 1 view .LVU1044
 3421              		.loc 1 98 8 is_stmt 0 view .LVU1045
 3422 06a8 94F88230 		ldrb	r3, [r4, #130]	@ zero_extendqisi2
 3423 06ac 012B     		cmp	r3, #1
 3424 06ae 7FF407AF 		bne	.L141
 3425              		.loc 1 99 7 is_stmt 1 view .LVU1046
 3426              		.loc 1 99 20 is_stmt 0 view .LVU1047
 3427 06b2 B4F88830 		ldrh	r3, [r4, #136]
 3428              		.loc 1 100 7 view .LVU1048
 3429 06b6 6667     		str	r6, [r4, #116]
 3430              		.loc 1 99 20 view .LVU1049
 3431 06b8 23F00203 		bic	r3, r3, #2
 3432              		.loc 1 100 7 view .LVU1050
 3433 06bc C4E91E66 		strd	r6, r6, [r4, #120]
 3434              		.loc 1 99 20 view .LVU1051
 3435 06c0 A4F88830 		strh	r3, [r4, #136]	@ movhi
 3436              		.loc 1 100 7 is_stmt 1 view .LVU1052
 3437              		.loc 1 100 7 view .LVU1053
 3438              		.loc 1 100 7 view .LVU1054
 3439              		.loc 1 100 44 view .LVU1055
 3440              		.loc 1 101 7 view .LVU1056
 3441              	.LVL166:
 3442              		.loc 1 101 7 is_stmt 0 view .LVU1057
 3443 06c4 48E7     		b	.L143
 3444              	.LVL167:
 3445              	.L137:
 3446              		.loc 1 130 5 is_stmt 1 view .LVU1058
 3447              	.LBB733:
 3448              	.LBI733:
 3449              		.loc 1 51 17 view .LVU1059
 3450              	.LBB734:
 3451              		.loc 1 52 3 view .LVU1060
 3452              		.loc 1 54 3 view .LVU1061
 3453              		.loc 1 55 3 view .LVU1062
 3454              		.loc 1 56 3 view .LVU1063
ARM GAS  /tmp/ccpnbTSa.s 			page 62


 3455              		.loc 1 55 9 is_stmt 0 view .LVU1064
 3456 06c6 94F88520 		ldrb	r2, [r4, #133]	@ zero_extendqisi2
 3457              	.LBE734:
 3458              	.LBE733:
 3459              		.loc 1 130 10 view .LVU1065
 3460 06ca 2046     		mov	r0, r4
 3461              		.loc 1 130 22 view .LVU1066
 3462 06cc 6168     		ldr	r1, [r4, #4]
 3463              	.LBB736:
 3464              	.LBB735:
 3465              		.loc 1 55 6 view .LVU1067
 3466 06ce 94F88430 		ldrb	r3, [r4, #132]	@ zero_extendqisi2
 3467              	.LBE735:
 3468              	.LBE736:
 3469              		.loc 1 130 10 view .LVU1068
 3470 06d2 4D68     		ldr	r5, [r1, #4]
 3471 06d4 43EA0223 		orr	r3, r3, r2, lsl #8
 3472 06d8 94F88310 		ldrb	r1, [r4, #131]	@ zero_extendqisi2
 3473 06dc 94F88220 		ldrb	r2, [r4, #130]	@ zero_extendqisi2
 3474 06e0 A847     		blx	r5
 3475              	.LVL168:
 3476              		.loc 1 133 5 is_stmt 1 view .LVU1069
 3477              		.loc 1 133 8 is_stmt 0 view .LVU1070
 3478 06e2 0028     		cmp	r0, #0
 3479 06e4 3FF4ECAE 		beq	.L141
 3480              		.loc 1 137 5 is_stmt 1 view .LVU1071
 3481 06e8 94F88020 		ldrb	r2, [r4, #128]	@ zero_extendqisi2
 3482 06ec D0E90053 		ldrd	r5, r3, [r0]
 3483 06f0 E667     		str	r6, [r4, #124]
 3484 06f2 C4E91D35 		strd	r3, r5, [r4, #116]
 3485              		.loc 1 137 5 view .LVU1072
 3486              		.loc 1 137 72 view .LVU1073
 3487              		.loc 1 139 5 view .LVU1074
 3488              	.LVL169:
 3489              		.loc 1 139 5 is_stmt 0 view .LVU1075
 3490 06f6 99E6     		b	.L142
 3491              	.LVL170:
 3492              	.L139:
 3493              		.loc 1 153 7 is_stmt 1 view .LVU1076
 3494              		.loc 1 153 10 is_stmt 0 view .LVU1077
 3495 06f8 2378     		ldrb	r3, [r4]	@ zero_extendqisi2
 3496 06fa 042B     		cmp	r3, #4
 3497 06fc 1ED0     		beq	.L213
 3498              	.L147:
 3499              		.loc 1 160 63 is_stmt 1 view .LVU1078
 3500              		.loc 1 162 7 view .LVU1079
 3501              		.loc 1 162 22 is_stmt 0 view .LVU1080
 3502 06fe 94F88230 		ldrb	r3, [r4, #130]	@ zero_extendqisi2
 3503              		.loc 1 162 10 view .LVU1081
 3504 0702 4BB1     		cbz	r3, .L150
 3505              		.loc 1 164 9 is_stmt 1 view .LVU1082
 3506              		.loc 1 166 9 is_stmt 0 view .LVU1083
 3507 0704 6168     		ldr	r1, [r4, #4]
 3508              		.loc 1 165 21 view .LVU1084
 3509 0706 0422     		movs	r2, #4
 3510              		.loc 1 164 29 view .LVU1085
 3511 0708 84F88B30 		strb	r3, [r4, #139]
ARM GAS  /tmp/ccpnbTSa.s 			page 63


 3512              		.loc 1 165 9 is_stmt 1 view .LVU1086
 3513              		.loc 1 166 9 is_stmt 0 view .LVU1087
 3514 070c 0B68     		ldr	r3, [r1]
 3515              		.loc 1 165 21 view .LVU1088
 3516 070e 2270     		strb	r2, [r4]
 3517              		.loc 1 166 9 is_stmt 1 view .LVU1089
 3518 0710 13B1     		cbz	r3, .L150
 3519              		.loc 1 166 9 view .LVU1090
 3520 0712 0221     		movs	r1, #2
 3521 0714 2046     		mov	r0, r4
 3522 0716 9847     		blx	r3
 3523              	.LVL171:
 3524              	.L150:
 3525              		.loc 1 166 61 view .LVU1091
 3526              		.loc 1 169 5 view .LVU1092
 3527 0718 0023     		movs	r3, #0
 3528 071a 94F88020 		ldrb	r2, [r4, #128]	@ zero_extendqisi2
 3529 071e C4E91D33 		strd	r3, r3, [r4, #116]
 3530              		.loc 1 169 5 view .LVU1093
 3531 0722 E367     		str	r3, [r4, #124]
 3532              		.loc 1 169 42 view .LVU1094
 3533              		.loc 1 170 5 view .LVU1095
 3534              	.LVL172:
 3535              		.loc 1 170 5 is_stmt 0 view .LVU1096
 3536 0724 18E7     		b	.L143
 3537              	.LVL173:
 3538              	.L211:
 3539              		.loc 1 182 7 is_stmt 1 view .LVU1097
 3540              		.loc 1 182 15 is_stmt 0 view .LVU1098
 3541 0726 FFF7FEFF 		bl	usb_lld_get_status_in
 3542              	.LVL174:
 3543              		.loc 1 182 7 view .LVU1099
 3544 072a 0128     		cmp	r0, #1
 3545 072c 90D1     		bne	.L203
 3546              	.L155:
 3547              		.loc 1 202 9 is_stmt 1 view .LVU1100
 3548 072e 144B     		ldr	r3, .L214+8
 3549 0730 94F88020 		ldrb	r2, [r4, #128]	@ zero_extendqisi2
 3550 0734 6367     		str	r3, [r4, #116]
 3551              		.loc 1 202 9 view .LVU1101
 3552              		.loc 1 202 9 view .LVU1102
 3553              		.loc 1 202 66 view .LVU1103
 3554              		.loc 1 204 9 view .LVU1104
 3555              	.LVL175:
 3556              		.loc 1 202 9 is_stmt 0 view .LVU1105
 3557 0736 C4E91E56 		strd	r5, r6, [r4, #120]
 3558 073a 77E6     		b	.L142
 3559              	.LVL176:
 3560              	.L213:
 3561              		.loc 1 155 9 is_stmt 1 view .LVU1106
 3562              	.LBB737:
 3563              	.LBI737:
 3564              		.loc 2 531 20 view .LVU1107
 3565              	.LBE737:
 3566              	.LBE770:
 3567              	.LBE906:
 3568              		.loc 2 533 3 view .LVU1108
ARM GAS  /tmp/ccpnbTSa.s 			page 64


 3569              	.LBB907:
 3570              	.LBB771:
 3571              	.LBB749:
 3572              	.LBB738:
 3573              	.LBI738:
 3574              		.loc 3 393 20 view .LVU1109
 3575              	.LBE738:
 3576              	.LBE749:
 3577              	.LBE771:
 3578              	.LBE907:
 3579              		.loc 3 395 3 view .LVU1110
 3580              	.LBB908:
 3581              	.LBB772:
 3582              	.LBB750:
 3583              	.LBB746:
 3584              	.LBB739:
 3585              	.LBI739:
 3586              		.loc 4 708 27 view .LVU1111
 3587              	.LBE739:
 3588              	.LBE746:
 3589              	.LBE750:
 3590              	.LBE772:
 3591              	.LBE908:
 3592              		.loc 4 710 3 view .LVU1112
 3593              	.LBB909:
 3594              	.LBB773:
 3595              	.LBB751:
 3596              	.LBB747:
 3597              	.LBB744:
 3598              	.LBB740:
 3599              	.LBI740:
 3600              		.loc 4 669 27 view .LVU1113
 3601              	.LBE740:
 3602              	.LBE744:
 3603              	.LBE747:
 3604              	.LBE751:
 3605              	.LBE773:
 3606              	.LBE909:
 3607              		.loc 4 677 3 view .LVU1114
 3608              	.LBB910:
 3609              	.LBB774:
 3610              	.LBB752:
 3611              	.LBB748:
 3612              	.LBB745:
 3613              	.LBB743:
 3614              	.LBB741:
 3615              	.LBI741:
 3616              		.loc 5 491 27 view .LVU1115
 3617              	.LBB742:
 3618              		.loc 5 493 3 view .LVU1116
 3619 073c 2023     		movs	r3, #32
 3620              		.syntax unified
 3621              	@ 493 "../../../external/ChibiOS/os/common/ext/ARM/CMSIS/Core/Include/cmsis_gcc.h" 1
 3622 073e 83F31188 		MSR basepri, r3
 3623              	@ 0 "" 2
 3624              	.LVL177:
 3625              		.loc 5 493 3 is_stmt 0 view .LVU1117
ARM GAS  /tmp/ccpnbTSa.s 			page 65


 3626              		.thumb
 3627              		.syntax unified
 3628              	.LBE742:
 3629              	.LBE741:
 3630              	.LBE743:
 3631              	.LBE745:
 3632              	.LBE748:
 3633              	.LBE752:
 3634              	.LBE774:
 3635              	.LBE910:
 3636              		.loc 3 396 34 is_stmt 1 view .LVU1118
 3637              		.loc 3 397 29 view .LVU1119
 3638              	.LBB911:
 3639              	.LBB775:
 3640              		.loc 1 156 9 view .LVU1120
 3641 0742 2046     		mov	r0, r4
 3642 0744 FFF7FEFF 		bl	usbDisableEndpointsI
 3643              	.LVL178:
 3644              		.loc 1 157 9 view .LVU1121
 3645              	.LBB753:
 3646              	.LBI753:
 3647              		.loc 2 542 20 view .LVU1122
 3648              	.LBE753:
 3649              	.LBE775:
 3650              	.LBE911:
 3651              		.loc 2 544 3 view .LVU1123
 3652              	.LBB912:
 3653              	.LBB776:
 3654              	.LBB765:
 3655              	.LBB754:
 3656              	.LBI754:
 3657              		.loc 3 413 20 view .LVU1124
 3658              	.LBE754:
 3659              	.LBE765:
 3660              	.LBE776:
 3661              	.LBE912:
 3662              		.loc 3 415 31 view .LVU1125
 3663              		.loc 3 416 33 view .LVU1126
 3664              		.loc 3 417 3 view .LVU1127
 3665              	.LBB913:
 3666              	.LBB777:
 3667              	.LBB766:
 3668              	.LBB762:
 3669              	.LBB755:
 3670              	.LBI755:
 3671              		.loc 4 719 27 view .LVU1128
 3672              	.LBE755:
 3673              	.LBE762:
 3674              	.LBE766:
 3675              	.LBE777:
 3676              	.LBE913:
 3677              		.loc 4 721 3 view .LVU1129
 3678              	.LBB914:
 3679              	.LBB778:
 3680              	.LBB767:
 3681              	.LBB763:
 3682              	.LBB760:
ARM GAS  /tmp/ccpnbTSa.s 			page 66


 3683              	.LBB756:
 3684              	.LBI756:
 3685              		.loc 4 693 27 view .LVU1130
 3686              	.LBE756:
 3687              	.LBE760:
 3688              	.LBE763:
 3689              	.LBE767:
 3690              	.LBE778:
 3691              	.LBE914:
 3692              		.loc 4 696 3 view .LVU1131
 3693              	.LBB915:
 3694              	.LBB779:
 3695              	.LBB768:
 3696              	.LBB764:
 3697              	.LBB761:
 3698              	.LBB759:
 3699              	.LBB757:
 3700              	.LBI757:
 3701              		.loc 5 491 27 view .LVU1132
 3702              	.LBB758:
 3703              		.loc 5 493 3 view .LVU1133
 3704              		.syntax unified
 3705              	@ 493 "../../../external/ChibiOS/os/common/ext/ARM/CMSIS/Core/Include/cmsis_gcc.h" 1
 3706 0748 86F31188 		MSR basepri, r6
 3707              	@ 0 "" 2
 3708              	.LVL179:
 3709              		.loc 5 493 3 is_stmt 0 view .LVU1134
 3710              		.thumb
 3711              		.syntax unified
 3712              	.LBE758:
 3713              	.LBE757:
 3714              	.LBE759:
 3715              	.LBE761:
 3716              	.LBE764:
 3717              	.LBE768:
 3718              		.loc 1 158 9 is_stmt 1 view .LVU1135
 3719              		.loc 1 160 9 is_stmt 0 view .LVU1136
 3720 074c 6368     		ldr	r3, [r4, #4]
 3721              		.loc 1 159 21 view .LVU1137
 3722 074e 0321     		movs	r1, #3
 3723              		.loc 1 158 29 view .LVU1138
 3724 0750 84F88B60 		strb	r6, [r4, #139]
 3725              		.loc 1 159 9 is_stmt 1 view .LVU1139
 3726              		.loc 1 160 9 is_stmt 0 view .LVU1140
 3727 0754 1B68     		ldr	r3, [r3]
 3728              		.loc 1 159 21 view .LVU1141
 3729 0756 2170     		strb	r1, [r4]
 3730              		.loc 1 160 9 is_stmt 1 view .LVU1142
 3731 0758 002B     		cmp	r3, #0
 3732 075a D0D0     		beq	.L147
 3733              		.loc 1 160 9 view .LVU1143
 3734 075c 2046     		mov	r0, r4
 3735 075e 9847     		blx	r3
 3736              	.LVL180:
 3737 0760 CDE7     		b	.L147
 3738              	.LVL181:
 3739              	.L210:
ARM GAS  /tmp/ccpnbTSa.s 			page 67


 3740              		.loc 1 239 9 view .LVU1144
 3741 0762 FFF7FEFF 		bl	usb_lld_stall_in
 3742              	.LVL182:
 3743              		.loc 1 239 9 is_stmt 0 view .LVU1145
 3744 0766 94F88020 		ldrb	r2, [r4, #128]	@ zero_extendqisi2
 3745 076a F1E6     		b	.L159
 3746              	.LVL183:
 3747              	.L212:
 3748              		.loc 1 223 9 is_stmt 1 view .LVU1146
 3749 076c FFF7FEFF 		bl	usb_lld_clear_in
 3750              	.LVL184:
 3751              		.loc 1 223 9 is_stmt 0 view .LVU1147
 3752 0770 94F88020 		ldrb	r2, [r4, #128]	@ zero_extendqisi2
 3753 0774 ECE6     		b	.L159
 3754              	.L215:
 3755 0776 00BF     		.align	2
 3756              	.L214:
 3757 0778 00000000 		.word	.LANCHOR0
 3758 077c 08000000 		.word	.LANCHOR0+8
 3759 0780 04000000 		.word	.LANCHOR0+4
 3760              	.LBE779:
 3761              	.LBE915:
 3762              		.cfi_endproc
 3763              	.LFE381:
 3764              		.size	_usb_ep0setup, .-_usb_ep0setup
 3765              		.align	1
 3766 0784 AFF30080 		.p2align 4,,15
 3766      AFF30080 
 3766      AFF30080 
 3767              		.global	_usb_ep0in
 3768              		.syntax unified
 3769              		.thumb
 3770              		.thumb_func
 3771              		.fpu fpv4-sp-d16
 3772              		.type	_usb_ep0in, %function
 3773              	_usb_ep0in:
 3774              	.LVL185:
 3775              	.LFB382:
 3776              		.loc 1 884 46 is_stmt 1 view -0
 3777              		.cfi_startproc
 3778              		@ args = 0, pretend = 0, frame = 0
 3779              		@ frame_needed = 0, uses_anonymous_args = 0
 3780              		.loc 1 885 3 view .LVU1149
 3781              		.loc 1 887 3 view .LVU1150
 3782              		.loc 1 888 3 view .LVU1151
 3783              		.loc 1 884 46 is_stmt 0 view .LVU1152
 3784 0790 38B5     		push	{r3, r4, r5, lr}
 3785              		.cfi_def_cfa_offset 16
 3786              		.cfi_offset 3, -16
 3787              		.cfi_offset 4, -12
 3788              		.cfi_offset 5, -8
 3789              		.cfi_offset 14, -4
 3790              		.loc 1 888 3 view .LVU1153
 3791 0792 90F87030 		ldrb	r3, [r0, #112]	@ zero_extendqisi2
 3792              		.loc 1 884 46 view .LVU1154
 3793 0796 0446     		mov	r4, r0
 3794              		.loc 1 888 3 view .LVU1155
ARM GAS  /tmp/ccpnbTSa.s 			page 68


 3795 0798 152B     		cmp	r3, #21
 3796 079a 1CD8     		bhi	.L216
 3797 079c DFE803F0 		tbb	[pc, r3]
 3798              	.L219:
 3799 07a0 0B       		.byte	(.L218-.L219)/2
 3800 07a1 1B       		.byte	(.L216-.L219)/2
 3801 07a2 1B       		.byte	(.L216-.L219)/2
 3802 07a3 1B       		.byte	(.L216-.L219)/2
 3803 07a4 1B       		.byte	(.L216-.L219)/2
 3804 07a5 1B       		.byte	(.L216-.L219)/2
 3805 07a6 0B       		.byte	(.L218-.L219)/2
 3806 07a7 1B       		.byte	(.L216-.L219)/2
 3807 07a8 1B       		.byte	(.L216-.L219)/2
 3808 07a9 1C       		.byte	(.L222-.L219)/2
 3809 07aa 2C       		.byte	(.L221-.L219)/2
 3810 07ab 44       		.byte	(.L220-.L219)/2
 3811 07ac 1B       		.byte	(.L216-.L219)/2
 3812 07ad 1B       		.byte	(.L216-.L219)/2
 3813 07ae 1B       		.byte	(.L216-.L219)/2
 3814 07af 1B       		.byte	(.L216-.L219)/2
 3815 07b0 1B       		.byte	(.L216-.L219)/2
 3816 07b1 1B       		.byte	(.L216-.L219)/2
 3817 07b2 1B       		.byte	(.L216-.L219)/2
 3818 07b3 1B       		.byte	(.L216-.L219)/2
 3819 07b4 0B       		.byte	(.L218-.L219)/2
 3820 07b5 0B       		.byte	(.L218-.L219)/2
 3821              		.p2align 1
 3822              	.L218:
 3823              		.loc 1 931 5 is_stmt 1 view .LVU1156
 3824 07b6 0021     		movs	r1, #0
 3825              	.LVL186:
 3826              		.loc 1 931 5 is_stmt 0 view .LVU1157
 3827 07b8 FFF7FEFF 		bl	usb_lld_stall_in
 3828              	.LVL187:
 3829              		.loc 1 932 5 is_stmt 1 view .LVU1158
 3830 07bc 0021     		movs	r1, #0
 3831 07be 2046     		mov	r0, r4
 3832 07c0 FFF7FEFF 		bl	usb_lld_stall_out
 3833              	.LVL188:
 3834              		.loc 1 933 5 view .LVU1159
 3835 07c4 6368     		ldr	r3, [r4, #4]
 3836 07c6 1B68     		ldr	r3, [r3]
 3837 07c8 13B1     		cbz	r3, .L224
 3838              		.loc 1 933 5 discriminator 1 view .LVU1160
 3839 07ca 0621     		movs	r1, #6
 3840 07cc 2046     		mov	r0, r4
 3841 07ce 9847     		blx	r3
 3842              	.LVL189:
 3843              	.L224:
 3844              		.loc 1 933 54 discriminator 3 view .LVU1161
 3845              		.loc 1 934 5 discriminator 3 view .LVU1162
 3846              		.loc 1 934 20 is_stmt 0 discriminator 3 view .LVU1163
 3847 07d0 0623     		movs	r3, #6
 3848 07d2 84F87030 		strb	r3, [r4, #112]
 3849              		.loc 1 935 5 is_stmt 1 discriminator 3 view .LVU1164
 3850              	.L216:
 3851              		.loc 1 939 1 is_stmt 0 view .LVU1165
ARM GAS  /tmp/ccpnbTSa.s 			page 69


 3852 07d6 38BD     		pop	{r3, r4, r5, pc}
 3853              	.LVL190:
 3854              	.L222:
 3855              		.loc 1 890 5 is_stmt 1 view .LVU1166
 3856              	.LBB916:
 3857              	.LBI916:
 3858              		.loc 1 51 17 view .LVU1167
 3859              	.LBB917:
 3860              		.loc 1 52 3 view .LVU1168
 3861              		.loc 1 54 3 view .LVU1169
 3862              		.loc 1 55 3 view .LVU1170
 3863              		.loc 1 56 3 view .LVU1171
 3864              		.loc 1 56 3 is_stmt 0 view .LVU1172
 3865              	.LBE917:
 3866              	.LBE916:
 3867              		.loc 1 894 5 is_stmt 1 view .LVU1173
 3868              	.LBB919:
 3869              	.LBB918:
 3870              		.loc 1 55 9 is_stmt 0 view .LVU1174
 3871 07d8 90F88710 		ldrb	r1, [r0, #135]	@ zero_extendqisi2
 3872              	.LVL191:
 3873              		.loc 1 55 6 view .LVU1175
 3874 07dc 90F88630 		ldrb	r3, [r0, #134]	@ zero_extendqisi2
 3875              	.LBE918:
 3876              	.LBE919:
 3877              		.loc 1 894 14 view .LVU1176
 3878 07e0 826F     		ldr	r2, [r0, #120]
 3879              		.loc 1 890 9 view .LVU1177
 3880 07e2 43EA0123 		orr	r3, r3, r1, lsl #8
 3881              		.loc 1 894 8 view .LVU1178
 3882 07e6 9A42     		cmp	r2, r3
 3883 07e8 06D2     		bcs	.L221
 3884              		.loc 1 895 36 discriminator 1 view .LVU1179
 3885 07ea C368     		ldr	r3, [r0, #12]
 3886 07ec 1B8A     		ldrh	r3, [r3, #16]
 3887              		.loc 1 895 22 discriminator 1 view .LVU1180
 3888 07ee B2FBF3F5 		udiv	r5, r2, r3
 3889 07f2 03FB1525 		mls	r5, r3, r5, r2
 3890              		.loc 1 894 28 discriminator 1 view .LVU1181
 3891 07f6 F5B1     		cbz	r5, .L232
 3892              	.LVL192:
 3893              	.L221:
 3894              		.loc 1 905 5 is_stmt 1 view .LVU1182
 3895              		.loc 1 905 20 is_stmt 0 view .LVU1183
 3896 07f8 1422     		movs	r2, #20
 3897              	.LBB920:
 3898              	.LBB921:
 3899              	.LBB922:
 3900              	.LBB923:
 3901              	.LBB924:
 3902              	.LBB925:
 3903              		.loc 5 493 3 view .LVU1184
 3904 07fa 2023     		movs	r3, #32
 3905              	.LBE925:
 3906              	.LBE924:
 3907              	.LBE923:
 3908              	.LBE922:
ARM GAS  /tmp/ccpnbTSa.s 			page 70


 3909              	.LBE921:
 3910              	.LBE920:
 3911              		.loc 1 905 20 view .LVU1185
 3912 07fc 84F87020 		strb	r2, [r4, #112]
 3913              		.loc 1 907 5 is_stmt 1 view .LVU1186
 3914              	.LBB937:
 3915              	.LBI920:
 3916              		.loc 2 531 20 view .LVU1187
 3917              	.LBE937:
 3918              		.loc 2 533 3 view .LVU1188
 3919              	.LBB938:
 3920              	.LBB933:
 3921              	.LBI921:
 3922              		.loc 3 393 20 view .LVU1189
 3923              	.LBE933:
 3924              	.LBE938:
 3925              		.loc 3 395 3 view .LVU1190
 3926              	.LBB939:
 3927              	.LBB934:
 3928              	.LBB930:
 3929              	.LBI922:
 3930              		.loc 4 708 27 view .LVU1191
 3931              	.LBE930:
 3932              	.LBE934:
 3933              	.LBE939:
 3934              		.loc 4 710 3 view .LVU1192
 3935              	.LBB940:
 3936              	.LBB935:
 3937              	.LBB931:
 3938              	.LBB928:
 3939              	.LBI923:
 3940              		.loc 4 669 27 view .LVU1193
 3941              	.LBE928:
 3942              	.LBE931:
 3943              	.LBE935:
 3944              	.LBE940:
 3945              		.loc 4 677 3 view .LVU1194
 3946              	.LVL193:
 3947              	.LBB941:
 3948              	.LBB936:
 3949              	.LBB932:
 3950              	.LBB929:
 3951              	.LBB927:
 3952              	.LBI924:
 3953              		.loc 5 491 27 view .LVU1195
 3954              	.LBB926:
 3955              		.loc 5 493 3 view .LVU1196
 3956              		.syntax unified
 3957              	@ 493 "../../../external/ChibiOS/os/common/ext/ARM/CMSIS/Core/Include/cmsis_gcc.h" 1
 3958 0800 83F31188 		MSR basepri, r3
 3959              	@ 0 "" 2
 3960              	.LVL194:
 3961              		.loc 5 493 3 is_stmt 0 view .LVU1197
 3962              		.thumb
 3963              		.syntax unified
 3964              	.LBE926:
 3965              	.LBE927:
ARM GAS  /tmp/ccpnbTSa.s 			page 71


 3966              	.LBE929:
 3967              	.LBE932:
 3968              	.LBE936:
 3969              	.LBE941:
 3970              		.loc 3 396 34 is_stmt 1 view .LVU1198
 3971              		.loc 3 397 29 view .LVU1199
 3972              		.loc 1 908 5 view .LVU1200
 3973              	.LBB942:
 3974              	.LBI942:
 3975              		.loc 1 453 6 view .LVU1201
 3976              	.LBB943:
 3977              		.loc 1 455 3 view .LVU1202
 3978              		.loc 1 457 23 view .LVU1203
 3979              		.loc 1 458 3 view .LVU1204
 3980              		.loc 1 458 3 view .LVU1205
 3981              		.loc 1 459 3 view .LVU1206
 3982              		.loc 1 459 3 view .LVU1207
 3983              		.loc 1 462 3 view .LVU1208
 3984              		.loc 1 462 19 is_stmt 0 view .LVU1209
 3985 0804 6289     		ldrh	r2, [r4, #10]
 3986              		.loc 1 468 15 view .LVU1210
 3987 0806 0025     		movs	r5, #0
 3988              		.loc 1 466 7 view .LVU1211
 3989 0808 E368     		ldr	r3, [r4, #12]
 3990              		.loc 1 476 3 view .LVU1212
 3991 080a 2046     		mov	r0, r4
 3992              	.LVL195:
 3993              		.loc 1 462 19 view .LVU1213
 3994 080c 42F00102 		orr	r2, r2, #1
 3995              		.loc 1 476 3 view .LVU1214
 3996 0810 2946     		mov	r1, r5
 3997              		.loc 1 466 7 view .LVU1215
 3998 0812 9B69     		ldr	r3, [r3, #24]
 3999              		.loc 1 462 19 view .LVU1216
 4000 0814 6281     		strh	r2, [r4, #10]	@ movhi
 4001              		.loc 1 466 3 is_stmt 1 view .LVU1217
 4002              	.LVL196:
 4003              		.loc 1 468 3 view .LVU1218
 4004              		.loc 1 468 15 is_stmt 0 view .LVU1219
 4005 0816 9D60     		str	r5, [r3, #8]
 4006              		.loc 1 469 3 is_stmt 1 view .LVU1220
 4007              		.loc 1 472 15 is_stmt 0 view .LVU1221
 4008 0818 DD60     		str	r5, [r3, #12]
 4009              		.loc 1 470 15 view .LVU1222
 4010 081a C3E90055 		strd	r5, r5, [r3]
 4011              		.loc 1 472 3 is_stmt 1 view .LVU1223
 4012              		.loc 1 476 3 view .LVU1224
 4013 081e FFF7FEFF 		bl	usb_lld_start_out
 4014              	.LVL197:
 4015              		.loc 1 476 3 is_stmt 0 view .LVU1225
 4016              	.LBE943:
 4017              	.LBE942:
 4018              		.loc 1 909 5 is_stmt 1 view .LVU1226
 4019              	.LBB944:
 4020              	.LBI944:
 4021              		.loc 2 542 20 view .LVU1227
 4022              	.LBE944:
ARM GAS  /tmp/ccpnbTSa.s 			page 72


 4023              		.loc 2 544 3 view .LVU1228
 4024              	.LBB956:
 4025              	.LBB945:
 4026              	.LBI945:
 4027              		.loc 3 413 20 view .LVU1229
 4028              	.LBE945:
 4029              	.LBE956:
 4030              		.loc 3 415 31 view .LVU1230
 4031              		.loc 3 416 33 view .LVU1231
 4032              		.loc 3 417 3 view .LVU1232
 4033              	.LBB957:
 4034              	.LBB953:
 4035              	.LBB946:
 4036              	.LBI946:
 4037              		.loc 4 719 27 view .LVU1233
 4038              	.LBE946:
 4039              	.LBE953:
 4040              	.LBE957:
 4041              		.loc 4 721 3 view .LVU1234
 4042              	.LBB958:
 4043              	.LBB954:
 4044              	.LBB951:
 4045              	.LBB947:
 4046              	.LBI947:
 4047              		.loc 4 693 27 view .LVU1235
 4048              	.LBE947:
 4049              	.LBE951:
 4050              	.LBE954:
 4051              	.LBE958:
 4052              		.loc 4 696 3 view .LVU1236
 4053              	.LBB959:
 4054              	.LBB955:
 4055              	.LBB952:
 4056              	.LBB950:
 4057              	.LBB948:
 4058              	.LBI948:
 4059              		.loc 5 491 27 view .LVU1237
 4060              	.LBB949:
 4061              		.loc 5 493 3 view .LVU1238
 4062              		.syntax unified
 4063              	@ 493 "../../../external/ChibiOS/os/common/ext/ARM/CMSIS/Core/Include/cmsis_gcc.h" 1
 4064 0822 85F31188 		MSR basepri, r5
 4065              	@ 0 "" 2
 4066              	.LVL198:
 4067              		.loc 5 493 3 is_stmt 0 view .LVU1239
 4068              		.thumb
 4069              		.syntax unified
 4070              	.LBE949:
 4071              	.LBE948:
 4072              	.LBE950:
 4073              	.LBE952:
 4074              	.LBE955:
 4075              	.LBE959:
 4076              		.loc 1 939 1 view .LVU1240
 4077 0826 38BD     		pop	{r3, r4, r5, pc}
 4078              	.LVL199:
 4079              	.L220:
ARM GAS  /tmp/ccpnbTSa.s 			page 73


 4080              		.loc 1 916 5 is_stmt 1 view .LVU1241
 4081              		.loc 1 916 13 is_stmt 0 view .LVU1242
 4082 0828 C36F     		ldr	r3, [r0, #124]
 4083              		.loc 1 916 8 view .LVU1243
 4084 082a 03B1     		cbz	r3, .L223
 4085              		.loc 1 917 7 is_stmt 1 view .LVU1244
 4086 082c 9847     		blx	r3
 4087              	.LVL200:
 4088              	.L223:
 4089              		.loc 1 919 5 view .LVU1245
 4090              		.loc 1 919 20 is_stmt 0 view .LVU1246
 4091 082e 0023     		movs	r3, #0
 4092 0830 84F87030 		strb	r3, [r4, #112]
 4093              		.loc 1 920 5 is_stmt 1 view .LVU1247
 4094              		.loc 1 939 1 is_stmt 0 view .LVU1248
 4095 0834 38BD     		pop	{r3, r4, r5, pc}
 4096              	.LVL201:
 4097              	.L232:
 4098              		.loc 1 896 7 is_stmt 1 view .LVU1249
 4099              	.LBB960:
 4100              	.LBI960:
 4101              		.loc 2 531 20 view .LVU1250
 4102              	.LBE960:
 4103              		.loc 2 533 3 view .LVU1251
 4104              	.LBB972:
 4105              	.LBB961:
 4106              	.LBI961:
 4107              		.loc 3 393 20 view .LVU1252
 4108              	.LBE961:
 4109              	.LBE972:
 4110              		.loc 3 395 3 view .LVU1253
 4111              	.LBB973:
 4112              	.LBB969:
 4113              	.LBB962:
 4114              	.LBI962:
 4115              		.loc 4 708 27 view .LVU1254
 4116              	.LBE962:
 4117              	.LBE969:
 4118              	.LBE973:
 4119              		.loc 4 710 3 view .LVU1255
 4120              	.LBB974:
 4121              	.LBB970:
 4122              	.LBB967:
 4123              	.LBB963:
 4124              	.LBI963:
 4125              		.loc 4 669 27 view .LVU1256
 4126              	.LBE963:
 4127              	.LBE967:
 4128              	.LBE970:
 4129              	.LBE974:
 4130              		.loc 4 677 3 view .LVU1257
 4131              	.LBB975:
 4132              	.LBB971:
 4133              	.LBB968:
 4134              	.LBB966:
 4135              	.LBB964:
 4136              	.LBI964:
ARM GAS  /tmp/ccpnbTSa.s 			page 74


 4137              		.loc 5 491 27 view .LVU1258
 4138              	.LBB965:
 4139              		.loc 5 493 3 view .LVU1259
 4140 0836 2023     		movs	r3, #32
 4141              		.syntax unified
 4142              	@ 493 "../../../external/ChibiOS/os/common/ext/ARM/CMSIS/Core/Include/cmsis_gcc.h" 1
 4143 0838 83F31188 		MSR basepri, r3
 4144              	@ 0 "" 2
 4145              	.LVL202:
 4146              		.loc 5 493 3 is_stmt 0 view .LVU1260
 4147              		.thumb
 4148              		.syntax unified
 4149              	.LBE965:
 4150              	.LBE964:
 4151              	.LBE966:
 4152              	.LBE968:
 4153              	.LBE971:
 4154              	.LBE975:
 4155              		.loc 3 396 34 is_stmt 1 view .LVU1261
 4156              		.loc 3 397 29 view .LVU1262
 4157              		.loc 1 897 7 view .LVU1263
 4158              	.LBB976:
 4159              	.LBI976:
 4160              		.loc 1 492 6 view .LVU1264
 4161              	.LBB977:
 4162              		.loc 1 494 3 view .LVU1265
 4163              		.loc 1 496 23 view .LVU1266
 4164              		.loc 1 497 3 view .LVU1267
 4165              		.loc 1 497 3 view .LVU1268
 4166              		.loc 1 498 3 view .LVU1269
 4167              		.loc 1 498 3 view .LVU1270
 4168              		.loc 1 501 3 view .LVU1271
 4169              		.loc 1 501 22 is_stmt 0 view .LVU1272
 4170 083c 0289     		ldrh	r2, [r0, #8]
 4171              		.loc 1 515 3 view .LVU1273
 4172 083e 2946     		mov	r1, r5
 4173              	.LVL203:
 4174              		.loc 1 505 7 view .LVU1274
 4175 0840 C368     		ldr	r3, [r0, #12]
 4176              		.loc 1 501 22 view .LVU1275
 4177 0842 42F00102 		orr	r2, r2, #1
 4178              		.loc 1 505 7 view .LVU1276
 4179 0846 5B69     		ldr	r3, [r3, #20]
 4180              		.loc 1 501 22 view .LVU1277
 4181 0848 0281     		strh	r2, [r0, #8]	@ movhi
 4182              	.LVL204:
 4183              		.loc 1 505 3 is_stmt 1 view .LVU1278
 4184              		.loc 1 507 3 view .LVU1279
 4185              		.loc 1 507 15 is_stmt 0 view .LVU1280
 4186 084a 9D60     		str	r5, [r3, #8]
 4187              		.loc 1 508 3 is_stmt 1 view .LVU1281
 4188              		.loc 1 511 15 is_stmt 0 view .LVU1282
 4189 084c DD60     		str	r5, [r3, #12]
 4190              		.loc 1 509 15 view .LVU1283
 4191 084e C3E90055 		strd	r5, r5, [r3]
 4192              		.loc 1 511 3 is_stmt 1 view .LVU1284
 4193              		.loc 1 515 3 view .LVU1285
ARM GAS  /tmp/ccpnbTSa.s 			page 75


 4194 0852 FFF7FEFF 		bl	usb_lld_start_in
 4195              	.LVL205:
 4196              		.loc 1 515 3 is_stmt 0 view .LVU1286
 4197              	.LBE977:
 4198              	.LBE976:
 4199              		.loc 1 898 7 is_stmt 1 view .LVU1287
 4200              	.LBB978:
 4201              	.LBI978:
 4202              		.loc 2 542 20 view .LVU1288
 4203              	.LBE978:
 4204              		.loc 2 544 3 view .LVU1289
 4205              	.LBB990:
 4206              	.LBB979:
 4207              	.LBI979:
 4208              		.loc 3 413 20 view .LVU1290
 4209              	.LBE979:
 4210              	.LBE990:
 4211              		.loc 3 415 31 view .LVU1291
 4212              		.loc 3 416 33 view .LVU1292
 4213              		.loc 3 417 3 view .LVU1293
 4214              	.LBB991:
 4215              	.LBB987:
 4216              	.LBB980:
 4217              	.LBI980:
 4218              		.loc 4 719 27 view .LVU1294
 4219              	.LBE980:
 4220              	.LBE987:
 4221              	.LBE991:
 4222              		.loc 4 721 3 view .LVU1295
 4223              	.LBB992:
 4224              	.LBB988:
 4225              	.LBB985:
 4226              	.LBB981:
 4227              	.LBI981:
 4228              		.loc 4 693 27 view .LVU1296
 4229              	.LBE981:
 4230              	.LBE985:
 4231              	.LBE988:
 4232              	.LBE992:
 4233              		.loc 4 696 3 view .LVU1297
 4234              	.LBB993:
 4235              	.LBB989:
 4236              	.LBB986:
 4237              	.LBB984:
 4238              	.LBB982:
 4239              	.LBI982:
 4240              		.loc 5 491 27 view .LVU1298
 4241              	.LBB983:
 4242              		.loc 5 493 3 view .LVU1299
 4243              		.syntax unified
 4244              	@ 493 "../../../external/ChibiOS/os/common/ext/ARM/CMSIS/Core/Include/cmsis_gcc.h" 1
 4245 0856 85F31188 		MSR basepri, r5
 4246              	@ 0 "" 2
 4247              	.LVL206:
 4248              		.loc 5 493 3 is_stmt 0 view .LVU1300
 4249              		.thumb
 4250              		.syntax unified
ARM GAS  /tmp/ccpnbTSa.s 			page 76


 4251              	.LBE983:
 4252              	.LBE982:
 4253              	.LBE984:
 4254              	.LBE986:
 4255              	.LBE989:
 4256              	.LBE993:
 4257              		.loc 1 899 7 is_stmt 1 view .LVU1301
 4258              		.loc 1 899 22 is_stmt 0 view .LVU1302
 4259 085a 0A23     		movs	r3, #10
 4260 085c 84F87030 		strb	r3, [r4, #112]
 4261              		.loc 1 900 7 is_stmt 1 view .LVU1303
 4262              		.loc 1 939 1 is_stmt 0 view .LVU1304
 4263 0860 38BD     		pop	{r3, r4, r5, pc}
 4264              		.loc 1 939 1 view .LVU1305
 4265              		.cfi_endproc
 4266              	.LFE382:
 4267              		.size	_usb_ep0in, .-_usb_ep0in
 4268              		.align	1
 4269 0862 00BFAFF3 		.p2align 4,,15
 4269      0080AFF3 
 4269      0080AFF3 
 4269      0080
 4270              		.global	_usb_ep0out
 4271              		.syntax unified
 4272              		.thumb
 4273              		.thumb_func
 4274              		.fpu fpv4-sp-d16
 4275              		.type	_usb_ep0out, %function
 4276              	_usb_ep0out:
 4277              	.LVL207:
 4278              	.LFB383:
 4279              		.loc 1 951 47 is_stmt 1 view -0
 4280              		.cfi_startproc
 4281              		@ args = 0, pretend = 0, frame = 0
 4282              		@ frame_needed = 0, uses_anonymous_args = 0
 4283              		.loc 1 953 3 view .LVU1307
 4284              		.loc 1 954 3 view .LVU1308
 4285              		.loc 1 954 15 is_stmt 0 view .LVU1309
 4286 0870 90F87020 		ldrb	r2, [r0, #112]	@ zero_extendqisi2
 4287 0874 152A     		cmp	r2, #21
 4288 0876 15D8     		bhi	.L249
 4289 0878 40F64161 		movw	r1, #3649
 4290              	.LVL208:
 4291              		.loc 1 951 47 view .LVU1310
 4292 087c 38B5     		push	{r3, r4, r5, lr}
 4293              		.cfi_def_cfa_offset 16
 4294              		.cfi_offset 3, -16
 4295              		.cfi_offset 4, -12
 4296              		.cfi_offset 5, -8
 4297              		.cfi_offset 14, -4
 4298 087e 0123     		movs	r3, #1
 4299 0880 0446     		mov	r4, r0
 4300 0882 9340     		lsls	r3, r3, r2
 4301 0884 0B42     		tst	r3, r1
 4302 0886 26D1     		bne	.L235
 4303 0888 13F48015 		ands	r5, r3, #1048576
 4304 088c 0BD0     		beq	.L252
ARM GAS  /tmp/ccpnbTSa.s 			page 77


 4305              		.loc 1 970 5 is_stmt 1 view .LVU1311
 4306              		.loc 1 970 9 is_stmt 0 view .LVU1312
 4307 088e C368     		ldr	r3, [r0, #12]
 4308 0890 9B69     		ldr	r3, [r3, #24]
 4309              		.loc 1 970 8 view .LVU1313
 4310 0892 5B68     		ldr	r3, [r3, #4]
 4311 0894 2BB9     		cbnz	r3, .L233
 4312              		.loc 1 974 5 is_stmt 1 view .LVU1314
 4313              		.loc 1 974 13 is_stmt 0 view .LVU1315
 4314 0896 C36F     		ldr	r3, [r0, #124]
 4315              		.loc 1 974 8 view .LVU1316
 4316 0898 03B1     		cbz	r3, .L237
 4317              		.loc 1 975 7 is_stmt 1 view .LVU1317
 4318 089a 9847     		blx	r3
 4319              	.LVL209:
 4320              	.L237:
 4321              		.loc 1 977 5 view .LVU1318
 4322              		.loc 1 977 20 is_stmt 0 view .LVU1319
 4323 089c 0023     		movs	r3, #0
 4324 089e 84F87030 		strb	r3, [r4, #112]
 4325              		.loc 1 978 5 is_stmt 1 view .LVU1320
 4326              	.L233:
 4327              		.loc 1 998 1 is_stmt 0 view .LVU1321
 4328 08a2 38BD     		pop	{r3, r4, r5, pc}
 4329              	.LVL210:
 4330              	.L249:
 4331              		.cfi_def_cfa_offset 0
 4332              		.cfi_restore 3
 4333              		.cfi_restore 4
 4334              		.cfi_restore 5
 4335              		.cfi_restore 14
 4336              		.loc 1 998 1 view .LVU1322
 4337 08a4 7047     		bx	lr
 4338              	.LVL211:
 4339              	.L252:
 4340              		.cfi_def_cfa_offset 16
 4341              		.cfi_offset 3, -16
 4342              		.cfi_offset 4, -12
 4343              		.cfi_offset 5, -8
 4344              		.cfi_offset 14, -4
 4345              		.loc 1 998 1 view .LVU1323
 4346 08a6 9B02     		lsls	r3, r3, #10
 4347 08a8 FBD5     		bpl	.L233
 4348              		.loc 1 957 5 is_stmt 1 view .LVU1324
 4349              		.loc 1 957 20 is_stmt 0 view .LVU1325
 4350 08aa 0B22     		movs	r2, #11
 4351              	.LBB994:
 4352              	.LBB995:
 4353              	.LBB996:
 4354              	.LBB997:
 4355              	.LBB998:
 4356              	.LBB999:
 4357              		.loc 5 493 3 view .LVU1326
 4358 08ac 2023     		movs	r3, #32
 4359              	.LBE999:
 4360              	.LBE998:
 4361              	.LBE997:
ARM GAS  /tmp/ccpnbTSa.s 			page 78


 4362              	.LBE996:
 4363              	.LBE995:
 4364              	.LBE994:
 4365              		.loc 1 957 20 view .LVU1327
 4366 08ae 80F87020 		strb	r2, [r0, #112]
 4367              		.loc 1 959 5 is_stmt 1 view .LVU1328
 4368              	.LBB1011:
 4369              	.LBI994:
 4370              		.loc 2 531 20 view .LVU1329
 4371              	.LBE1011:
 4372              		.loc 2 533 3 view .LVU1330
 4373              	.LBB1012:
 4374              	.LBB1007:
 4375              	.LBI995:
 4376              		.loc 3 393 20 view .LVU1331
 4377              	.LBE1007:
 4378              	.LBE1012:
 4379              		.loc 3 395 3 view .LVU1332
 4380              	.LBB1013:
 4381              	.LBB1008:
 4382              	.LBB1004:
 4383              	.LBI996:
 4384              		.loc 4 708 27 view .LVU1333
 4385              	.LBE1004:
 4386              	.LBE1008:
 4387              	.LBE1013:
 4388              		.loc 4 710 3 view .LVU1334
 4389              	.LBB1014:
 4390              	.LBB1009:
 4391              	.LBB1005:
 4392              	.LBB1002:
 4393              	.LBI997:
 4394              		.loc 4 669 27 view .LVU1335
 4395              	.LBE1002:
 4396              	.LBE1005:
 4397              	.LBE1009:
 4398              	.LBE1014:
 4399              		.loc 4 677 3 view .LVU1336
 4400              	.LVL212:
 4401              	.LBB1015:
 4402              	.LBB1010:
 4403              	.LBB1006:
 4404              	.LBB1003:
 4405              	.LBB1001:
 4406              	.LBI998:
 4407              		.loc 5 491 27 view .LVU1337
 4408              	.LBB1000:
 4409              		.loc 5 493 3 view .LVU1338
 4410              		.syntax unified
 4411              	@ 493 "../../../external/ChibiOS/os/common/ext/ARM/CMSIS/Core/Include/cmsis_gcc.h" 1
 4412 08b2 83F31188 		MSR basepri, r3
 4413              	@ 0 "" 2
 4414              	.LVL213:
 4415              		.loc 5 493 3 is_stmt 0 view .LVU1339
 4416              		.thumb
 4417              		.syntax unified
 4418              	.LBE1000:
ARM GAS  /tmp/ccpnbTSa.s 			page 79


 4419              	.LBE1001:
 4420              	.LBE1003:
 4421              	.LBE1006:
 4422              	.LBE1010:
 4423              	.LBE1015:
 4424              		.loc 3 396 34 is_stmt 1 view .LVU1340
 4425              		.loc 3 397 29 view .LVU1341
 4426              		.loc 1 960 5 view .LVU1342
 4427              	.LBB1016:
 4428              	.LBI1016:
 4429              		.loc 1 492 6 view .LVU1343
 4430              	.LBB1017:
 4431              		.loc 1 494 3 view .LVU1344
 4432              		.loc 1 496 23 view .LVU1345
 4433              		.loc 1 497 3 view .LVU1346
 4434              		.loc 1 497 3 view .LVU1347
 4435              		.loc 1 498 3 view .LVU1348
 4436              		.loc 1 498 3 view .LVU1349
 4437              		.loc 1 501 3 view .LVU1350
 4438              		.loc 1 501 22 is_stmt 0 view .LVU1351
 4439 08b6 0289     		ldrh	r2, [r0, #8]
 4440              		.loc 1 515 3 view .LVU1352
 4441 08b8 2946     		mov	r1, r5
 4442              		.loc 1 505 7 view .LVU1353
 4443 08ba C368     		ldr	r3, [r0, #12]
 4444              		.loc 1 501 22 view .LVU1354
 4445 08bc 42F00102 		orr	r2, r2, #1
 4446              		.loc 1 505 7 view .LVU1355
 4447 08c0 5B69     		ldr	r3, [r3, #20]
 4448              		.loc 1 501 22 view .LVU1356
 4449 08c2 0281     		strh	r2, [r0, #8]	@ movhi
 4450              		.loc 1 505 3 is_stmt 1 view .LVU1357
 4451              	.LVL214:
 4452              		.loc 1 507 3 view .LVU1358
 4453              		.loc 1 507 15 is_stmt 0 view .LVU1359
 4454 08c4 9D60     		str	r5, [r3, #8]
 4455              		.loc 1 508 3 is_stmt 1 view .LVU1360
 4456              		.loc 1 511 15 is_stmt 0 view .LVU1361
 4457 08c6 DD60     		str	r5, [r3, #12]
 4458              		.loc 1 509 15 view .LVU1362
 4459 08c8 C3E90055 		strd	r5, r5, [r3]
 4460              		.loc 1 511 3 is_stmt 1 view .LVU1363
 4461              		.loc 1 515 3 view .LVU1364
 4462 08cc FFF7FEFF 		bl	usb_lld_start_in
 4463              	.LVL215:
 4464              		.loc 1 515 3 is_stmt 0 view .LVU1365
 4465              	.LBE1017:
 4466              	.LBE1016:
 4467              		.loc 1 961 5 is_stmt 1 view .LVU1366
 4468              	.LBB1018:
 4469              	.LBI1018:
 4470              		.loc 2 542 20 view .LVU1367
 4471              	.LBE1018:
 4472              		.loc 2 544 3 view .LVU1368
 4473              	.LBB1030:
 4474              	.LBB1019:
 4475              	.LBI1019:
ARM GAS  /tmp/ccpnbTSa.s 			page 80


 4476              		.loc 3 413 20 view .LVU1369
 4477              	.LBE1019:
 4478              	.LBE1030:
 4479              		.loc 3 415 31 view .LVU1370
 4480              		.loc 3 416 33 view .LVU1371
 4481              		.loc 3 417 3 view .LVU1372
 4482              	.LBB1031:
 4483              	.LBB1027:
 4484              	.LBB1020:
 4485              	.LBI1020:
 4486              		.loc 4 719 27 view .LVU1373
 4487              	.LBE1020:
 4488              	.LBE1027:
 4489              	.LBE1031:
 4490              		.loc 4 721 3 view .LVU1374
 4491              	.LBB1032:
 4492              	.LBB1028:
 4493              	.LBB1025:
 4494              	.LBB1021:
 4495              	.LBI1021:
 4496              		.loc 4 693 27 view .LVU1375
 4497              	.LBE1021:
 4498              	.LBE1025:
 4499              	.LBE1028:
 4500              	.LBE1032:
 4501              		.loc 4 696 3 view .LVU1376
 4502              	.LBB1033:
 4503              	.LBB1029:
 4504              	.LBB1026:
 4505              	.LBB1024:
 4506              	.LBB1022:
 4507              	.LBI1022:
 4508              		.loc 5 491 27 view .LVU1377
 4509              	.LBB1023:
 4510              		.loc 5 493 3 view .LVU1378
 4511              		.syntax unified
 4512              	@ 493 "../../../external/ChibiOS/os/common/ext/ARM/CMSIS/Core/Include/cmsis_gcc.h" 1
 4513 08d0 85F31188 		MSR basepri, r5
 4514              	@ 0 "" 2
 4515              	.LVL216:
 4516              		.loc 5 493 3 is_stmt 0 view .LVU1379
 4517              		.thumb
 4518              		.syntax unified
 4519              	.LBE1023:
 4520              	.LBE1022:
 4521              	.LBE1024:
 4522              	.LBE1026:
 4523              	.LBE1029:
 4524              	.LBE1033:
 4525              		.loc 1 998 1 view .LVU1380
 4526 08d4 38BD     		pop	{r3, r4, r5, pc}
 4527              	.LVL217:
 4528              	.L235:
 4529              		.loc 1 990 5 is_stmt 1 view .LVU1381
 4530 08d6 0021     		movs	r1, #0
 4531 08d8 FFF7FEFF 		bl	usb_lld_stall_in
 4532              	.LVL218:
ARM GAS  /tmp/ccpnbTSa.s 			page 81


 4533              		.loc 1 991 5 view .LVU1382
 4534 08dc 0021     		movs	r1, #0
 4535 08de 2046     		mov	r0, r4
 4536 08e0 FFF7FEFF 		bl	usb_lld_stall_out
 4537              	.LVL219:
 4538              		.loc 1 992 5 view .LVU1383
 4539 08e4 6368     		ldr	r3, [r4, #4]
 4540 08e6 1B68     		ldr	r3, [r3]
 4541 08e8 13B1     		cbz	r3, .L238
 4542              		.loc 1 992 5 discriminator 1 view .LVU1384
 4543 08ea 0621     		movs	r1, #6
 4544 08ec 2046     		mov	r0, r4
 4545 08ee 9847     		blx	r3
 4546              	.LVL220:
 4547              	.L238:
 4548              		.loc 1 992 54 discriminator 3 view .LVU1385
 4549              		.loc 1 993 5 discriminator 3 view .LVU1386
 4550              		.loc 1 993 20 is_stmt 0 discriminator 3 view .LVU1387
 4551 08f0 0623     		movs	r3, #6
 4552 08f2 84F87030 		strb	r3, [r4, #112]
 4553              		.loc 1 994 5 is_stmt 1 discriminator 3 view .LVU1388
 4554              		.loc 1 998 1 is_stmt 0 discriminator 3 view .LVU1389
 4555 08f6 38BD     		pop	{r3, r4, r5, pc}
 4556              		.loc 1 998 1 discriminator 3 view .LVU1390
 4557              		.cfi_endproc
 4558              	.LFE383:
 4559              		.size	_usb_ep0out, .-_usb_ep0out
 4560              		.section	.rodata
 4561              		.align	2
 4562              		.set	.LANCHOR0,. + 0
 4563              		.type	zero_status, %object
 4564              		.size	zero_status, 2
 4565              	zero_status:
 4566 0000 0000     		.space	2
 4567 0002 0000     		.space	2
 4568              		.type	halted_status, %object
 4569              		.size	halted_status, 2
 4570              	halted_status:
 4571 0004 01       		.byte	1
 4572 0005 00       		.byte	0
 4573 0006 0000     		.space	2
 4574              		.type	active_status, %object
 4575              		.size	active_status, 2
 4576              	active_status:
 4577 0008 0000     		.space	2
 4578              		.text
 4579              	.Letext0:
 4580              		.file 6 "/home/nicolas/arm/gcc-arm-none-eabi-8-2019-q3-update/lib/gcc/arm-none-eabi/8.3.1/include/
 4581              		.file 7 "/home/nicolas/arm/gcc-arm-none-eabi-8-2019-q3-update/arm-none-eabi/include/machine/_defau
 4582              		.file 8 "/home/nicolas/arm/gcc-arm-none-eabi-8-2019-q3-update/arm-none-eabi/include/sys/_types.h"
 4583              		.file 9 "/home/nicolas/arm/gcc-arm-none-eabi-8-2019-q3-update/arm-none-eabi/include/sys/reent.h"
 4584              		.file 10 "/home/nicolas/arm/gcc-arm-none-eabi-8-2019-q3-update/arm-none-eabi/include/sys/lock.h"
 4585              		.file 11 "/home/nicolas/arm/gcc-arm-none-eabi-8-2019-q3-update/arm-none-eabi/include/sys/_stdint.h
 4586              		.file 12 "/home/nicolas/arm/gcc-arm-none-eabi-8-2019-q3-update/arm-none-eabi/include/stdint.h"
 4587              		.file 13 "../../../external/ChibiOS/os/common/ports/ARMCMx/compilers/GCC/chtypes.h"
 4588              		.file 14 "../../../external/ChibiOS/os/rt/include/chsystypes.h"
 4589              		.file 15 "../../../external/ChibiOS/os/rt/include/chschd.h"
ARM GAS  /tmp/ccpnbTSa.s 			page 82


 4590              		.file 16 "../../../external/ChibiOS/os/rt/include/chtime.h"
 4591              		.file 17 "../../../external/ChibiOS/os/common/ext/ARM/CMSIS/Core/Include/core_cm7.h"
 4592              		.file 18 "../../../external/ChibiOS/os/common/ext/ST/STM32H7xx/system_stm32h7xx.h"
 4593              		.file 19 "../../../external/ChibiOS/os/common/ext/ST/STM32H7xx/stm32h753xx.h"
 4594              		.file 20 "../../../external/ChibiOS/os/common/ports/ARMCMx/chcore.h"
 4595              		.file 21 "../../../external/ChibiOS/os/rt/include/chtrace.h"
 4596              		.file 22 "../../../external/ChibiOS/os/rt/include/chtm.h"
 4597              		.file 23 "../../../external/ChibiOS/os/rt/include/chsem.h"
 4598              		.file 24 "../../../external/ChibiOS/os/rt/include/chmtx.h"
 4599              		.file 25 "../../../external/ChibiOS/os/rt/include/chregistry.h"
 4600              		.file 26 "../../../external/ChibiOS/os/rt/include/chevents.h"
 4601              		.file 27 "../../../external/ChibiOS/os/oslib/include/chmemcore.h"
 4602              		.file 28 "../../../external/ChibiOS/os/oslib/include/chmempools.h"
 4603              		.file 29 "../../../external/ChibiOS/os/oslib/include/chfactory.h"
 4604              		.file 30 "../../../external/ChibiOS/os/hal/ports/STM32/LLD/DMAv2/stm32_dma.h"
 4605              		.file 31 "../../../external/ChibiOS/os/hal/ports/STM32/LLD/BDMAv1/stm32_bdma.h"
 4606              		.file 32 "../../../external/ChibiOS/os/hal/ports/STM32/LLD/TIMv1/stm32_tim.h"
 4607              		.file 33 "../../../external/ChibiOS/os/hal/include/hal_ioblock.h"
 4608              		.file 34 "../../../external/ChibiOS/os/hal/include/hal_queues.h"
 4609              		.file 35 "../../../external/ChibiOS/os/hal/ports/STM32/LLD/GPIOv2/stm32_gpio.h"
 4610              		.file 36 "../../../external/ChibiOS/os/hal/ports/STM32/LLD/GPIOv2/hal_pal_lld.h"
 4611              		.file 37 "../../../external/ChibiOS/os/hal/include/hal_adc.h"
 4612              		.file 38 "../../../external/ChibiOS/os/hal/ports/STM32/LLD/ADCv4/hal_adc_lld.h"
 4613              		.file 39 "../../../external/ChibiOS/os/hal/include/hal_i2c.h"
 4614              		.file 40 "../../../external/ChibiOS/os/hal/ports/STM32/LLD/I2Cv3/hal_i2c_lld.h"
 4615              		.file 41 "../../../external/ChibiOS/os/hal/include/hal_pwm.h"
 4616              		.file 42 "../../../external/ChibiOS/os/hal/ports/STM32/LLD/TIMv1/hal_pwm_lld.h"
 4617              		.file 43 "../../../external/ChibiOS/os/hal/include/hal_serial.h"
 4618              		.file 44 "../../../external/ChibiOS/os/hal/ports/STM32/LLD/USARTv2/hal_serial_lld.h"
 4619              		.file 45 "../../../external/ChibiOS/os/hal/include/hal_sdc.h"
 4620              		.file 46 "../../../external/ChibiOS/os/hal/ports/STM32/LLD/SDMMCv2/hal_sdc_lld.h"
 4621              		.file 47 "../../../external/ChibiOS/os/hal/include/hal_spi.h"
 4622              		.file 48 "../../../external/ChibiOS/os/hal/ports/STM32/LLD/SPIv3/hal_spi_lld.h"
 4623              		.file 49 "../../../external/ChibiOS/os/hal/include/hal_trng.h"
 4624              		.file 50 "../../../external/ChibiOS/os/hal/ports/STM32/LLD/RNGv1/hal_trng_lld.h"
 4625              		.file 51 "../../../external/ChibiOS/os/hal/include/hal_usb.h"
 4626              		.file 52 "../../../external/ChibiOS/os/hal/ports/STM32/LLD/OTGv1/hal_usb_lld.h"
 4627              		.file 53 "../../../external/ChibiOS/os/hal/ports/STM32/LLD/OTGv1/stm32_otg.h"
 4628              		.file 54 "../../../external/ChibiOS-Contrib/os/hal/include/hal_fsmc.h"
 4629              		.file 55 "../../../external/ChibiOS-Contrib/os/hal/include/hal_sdram.h"
 4630              		.file 56 "../../../external/ChibiOS/os/rt/include/chthreads.h"
 4631              		.section	.debug_info,"",%progbits
 4632              	.Ldebug_info0:
 4633 0000 F65E0000 		.4byte	0x5ef6
 4634 0004 0400     		.2byte	0x4
 4635 0006 00000000 		.4byte	.Ldebug_abbrev0
 4636 000a 04       		.byte	0x4
 4637 000b 01       		.uleb128 0x1
 4638 000c B51F0000 		.4byte	.LASF833
 4639 0010 0C       		.byte	0xc
 4640 0011 5D130000 		.4byte	.LASF834
 4641 0015 5A000000 		.4byte	.LASF835
 4642 0019 00000000 		.4byte	.Ltext0
 4643 001d F8080000 		.4byte	.Letext0-.Ltext0
 4644 0021 00000000 		.4byte	.Ldebug_line0
 4645 0025 02       		.uleb128 0x2
 4646 0026 04       		.byte	0x4
ARM GAS  /tmp/ccpnbTSa.s 			page 83


 4647 0027 05       		.byte	0x5
 4648 0028 696E7400 		.ascii	"int\000"
 4649 002c 03       		.uleb128 0x3
 4650 002d 9E0B0000 		.4byte	.LASF3
 4651 0031 06       		.byte	0x6
 4652 0032 D8       		.byte	0xd8
 4653 0033 17       		.byte	0x17
 4654 0034 3D000000 		.4byte	0x3d
 4655 0038 04       		.uleb128 0x4
 4656 0039 2C000000 		.4byte	0x2c
 4657 003d 05       		.uleb128 0x5
 4658 003e 04       		.byte	0x4
 4659 003f 07       		.byte	0x7
 4660 0040 00210000 		.4byte	.LASF0
 4661 0044 05       		.uleb128 0x5
 4662 0045 08       		.byte	0x8
 4663 0046 05       		.byte	0x5
 4664 0047 3F1E0000 		.4byte	.LASF1
 4665 004b 05       		.uleb128 0x5
 4666 004c 08       		.byte	0x8
 4667 004d 04       		.byte	0x4
 4668 004e 7A160000 		.4byte	.LASF2
 4669 0052 06       		.uleb128 0x6
 4670 0053 930D0000 		.4byte	.LASF4
 4671 0057 06       		.byte	0x6
 4672 0058 6501     		.2byte	0x165
 4673 005a 17       		.byte	0x17
 4674 005b 3D000000 		.4byte	0x3d
 4675 005f 05       		.uleb128 0x5
 4676 0060 01       		.byte	0x1
 4677 0061 06       		.byte	0x6
 4678 0062 AD120000 		.4byte	.LASF5
 4679 0066 03       		.uleb128 0x3
 4680 0067 37010000 		.4byte	.LASF6
 4681 006b 07       		.byte	0x7
 4682 006c 2B       		.byte	0x2b
 4683 006d 18       		.byte	0x18
 4684 006e 72000000 		.4byte	0x72
 4685 0072 05       		.uleb128 0x5
 4686 0073 01       		.byte	0x1
 4687 0074 08       		.byte	0x8
 4688 0075 92080000 		.4byte	.LASF7
 4689 0079 05       		.uleb128 0x5
 4690 007a 02       		.byte	0x2
 4691 007b 05       		.byte	0x5
 4692 007c 51210000 		.4byte	.LASF8
 4693 0080 03       		.uleb128 0x3
 4694 0081 57070000 		.4byte	.LASF9
 4695 0085 07       		.byte	0x7
 4696 0086 39       		.byte	0x39
 4697 0087 19       		.byte	0x19
 4698 0088 8C000000 		.4byte	0x8c
 4699 008c 05       		.uleb128 0x5
 4700 008d 02       		.byte	0x2
 4701 008e 07       		.byte	0x7
 4702 008f 9A120000 		.4byte	.LASF10
 4703 0093 03       		.uleb128 0x3
ARM GAS  /tmp/ccpnbTSa.s 			page 84


 4704 0094 781A0000 		.4byte	.LASF11
 4705 0098 07       		.byte	0x7
 4706 0099 4D       		.byte	0x4d
 4707 009a 18       		.byte	0x18
 4708 009b 9F000000 		.4byte	0x9f
 4709 009f 05       		.uleb128 0x5
 4710 00a0 04       		.byte	0x4
 4711 00a1 05       		.byte	0x5
 4712 00a2 10150000 		.4byte	.LASF12
 4713 00a6 03       		.uleb128 0x3
 4714 00a7 821A0000 		.4byte	.LASF13
 4715 00ab 07       		.byte	0x7
 4716 00ac 4F       		.byte	0x4f
 4717 00ad 19       		.byte	0x19
 4718 00ae B2000000 		.4byte	0xb2
 4719 00b2 05       		.uleb128 0x5
 4720 00b3 04       		.byte	0x4
 4721 00b4 07       		.byte	0x7
 4722 00b5 CE160000 		.4byte	.LASF14
 4723 00b9 03       		.uleb128 0x3
 4724 00ba A70E0000 		.4byte	.LASF15
 4725 00be 07       		.byte	0x7
 4726 00bf 69       		.byte	0x69
 4727 00c0 19       		.byte	0x19
 4728 00c1 C5000000 		.4byte	0xc5
 4729 00c5 05       		.uleb128 0x5
 4730 00c6 08       		.byte	0x8
 4731 00c7 07       		.byte	0x7
 4732 00c8 171C0000 		.4byte	.LASF16
 4733 00cc 03       		.uleb128 0x3
 4734 00cd 6F0B0000 		.4byte	.LASF17
 4735 00d1 08       		.byte	0x8
 4736 00d2 2E       		.byte	0x2e
 4737 00d3 0E       		.byte	0xe
 4738 00d4 9F000000 		.4byte	0x9f
 4739 00d8 03       		.uleb128 0x3
 4740 00d9 6A190000 		.4byte	.LASF18
 4741 00dd 08       		.byte	0x8
 4742 00de 74       		.byte	0x74
 4743 00df 0E       		.byte	0xe
 4744 00e0 9F000000 		.4byte	0x9f
 4745 00e4 07       		.uleb128 0x7
 4746 00e5 04       		.byte	0x4
 4747 00e6 08       		.byte	0x8
 4748 00e7 A5       		.byte	0xa5
 4749 00e8 03       		.byte	0x3
 4750 00e9 06010000 		.4byte	0x106
 4751 00ed 08       		.uleb128 0x8
 4752 00ee 3A140000 		.4byte	.LASF19
 4753 00f2 08       		.byte	0x8
 4754 00f3 A7       		.byte	0xa7
 4755 00f4 0C       		.byte	0xc
 4756 00f5 52000000 		.4byte	0x52
 4757 00f9 08       		.uleb128 0x8
 4758 00fa 1F0D0000 		.4byte	.LASF20
 4759 00fe 08       		.byte	0x8
 4760 00ff A8       		.byte	0xa8
ARM GAS  /tmp/ccpnbTSa.s 			page 85


 4761 0100 13       		.byte	0x13
 4762 0101 06010000 		.4byte	0x106
 4763 0105 00       		.byte	0
 4764 0106 09       		.uleb128 0x9
 4765 0107 72000000 		.4byte	0x72
 4766 010b 16010000 		.4byte	0x116
 4767 010f 0A       		.uleb128 0xa
 4768 0110 3D000000 		.4byte	0x3d
 4769 0114 03       		.byte	0x3
 4770 0115 00       		.byte	0
 4771 0116 0B       		.uleb128 0xb
 4772 0117 08       		.byte	0x8
 4773 0118 08       		.byte	0x8
 4774 0119 A2       		.byte	0xa2
 4775 011a 09       		.byte	0x9
 4776 011b 3A010000 		.4byte	0x13a
 4777 011f 0C       		.uleb128 0xc
 4778 0120 C90B0000 		.4byte	.LASF21
 4779 0124 08       		.byte	0x8
 4780 0125 A4       		.byte	0xa4
 4781 0126 07       		.byte	0x7
 4782 0127 25000000 		.4byte	0x25
 4783 012b 00       		.byte	0
 4784 012c 0C       		.uleb128 0xc
 4785 012d AB1A0000 		.4byte	.LASF22
 4786 0131 08       		.byte	0x8
 4787 0132 A9       		.byte	0xa9
 4788 0133 05       		.byte	0x5
 4789 0134 E4000000 		.4byte	0xe4
 4790 0138 04       		.byte	0x4
 4791 0139 00       		.byte	0
 4792 013a 03       		.uleb128 0x3
 4793 013b FC190000 		.4byte	.LASF23
 4794 013f 08       		.byte	0x8
 4795 0140 AA       		.byte	0xaa
 4796 0141 03       		.byte	0x3
 4797 0142 16010000 		.4byte	0x116
 4798 0146 0D       		.uleb128 0xd
 4799 0147 04       		.byte	0x4
 4800 0148 03       		.uleb128 0x3
 4801 0149 3D110000 		.4byte	.LASF24
 4802 014d 09       		.byte	0x9
 4803 014e 16       		.byte	0x16
 4804 014f 19       		.byte	0x19
 4805 0150 B2000000 		.4byte	0xb2
 4806 0154 03       		.uleb128 0x3
 4807 0155 3C070000 		.4byte	.LASF25
 4808 0159 0A       		.byte	0xa
 4809 015a 22       		.byte	0x22
 4810 015b 19       		.byte	0x19
 4811 015c 60010000 		.4byte	0x160
 4812 0160 0E       		.uleb128 0xe
 4813 0161 04       		.byte	0x4
 4814 0162 66010000 		.4byte	0x166
 4815 0166 0F       		.uleb128 0xf
 4816 0167 AA050000 		.4byte	.LASF121
 4817 016b 03       		.uleb128 0x3
ARM GAS  /tmp/ccpnbTSa.s 			page 86


 4818 016c 9D1D0000 		.4byte	.LASF26
 4819 0170 09       		.byte	0x9
 4820 0171 23       		.byte	0x23
 4821 0172 1B       		.byte	0x1b
 4822 0173 54010000 		.4byte	0x154
 4823 0177 10       		.uleb128 0x10
 4824 0178 B4170000 		.4byte	.LASF31
 4825 017c 18       		.byte	0x18
 4826 017d 09       		.byte	0x9
 4827 017e 34       		.byte	0x34
 4828 017f 08       		.byte	0x8
 4829 0180 D1010000 		.4byte	0x1d1
 4830 0184 0C       		.uleb128 0xc
 4831 0185 D70E0000 		.4byte	.LASF27
 4832 0189 09       		.byte	0x9
 4833 018a 36       		.byte	0x36
 4834 018b 13       		.byte	0x13
 4835 018c D1010000 		.4byte	0x1d1
 4836 0190 00       		.byte	0
 4837 0191 11       		.uleb128 0x11
 4838 0192 5F6B00   		.ascii	"_k\000"
 4839 0195 09       		.byte	0x9
 4840 0196 37       		.byte	0x37
 4841 0197 07       		.byte	0x7
 4842 0198 25000000 		.4byte	0x25
 4843 019c 04       		.byte	0x4
 4844 019d 0C       		.uleb128 0xc
 4845 019e 35160000 		.4byte	.LASF28
 4846 01a2 09       		.byte	0x9
 4847 01a3 37       		.byte	0x37
 4848 01a4 0B       		.byte	0xb
 4849 01a5 25000000 		.4byte	0x25
 4850 01a9 08       		.byte	0x8
 4851 01aa 0C       		.uleb128 0xc
 4852 01ab A8200000 		.4byte	.LASF29
 4853 01af 09       		.byte	0x9
 4854 01b0 37       		.byte	0x37
 4855 01b1 14       		.byte	0x14
 4856 01b2 25000000 		.4byte	0x25
 4857 01b6 0C       		.byte	0xc
 4858 01b7 0C       		.uleb128 0xc
 4859 01b8 09090000 		.4byte	.LASF30
 4860 01bc 09       		.byte	0x9
 4861 01bd 37       		.byte	0x37
 4862 01be 1B       		.byte	0x1b
 4863 01bf 25000000 		.4byte	0x25
 4864 01c3 10       		.byte	0x10
 4865 01c4 11       		.uleb128 0x11
 4866 01c5 5F7800   		.ascii	"_x\000"
 4867 01c8 09       		.byte	0x9
 4868 01c9 38       		.byte	0x38
 4869 01ca 0B       		.byte	0xb
 4870 01cb D7010000 		.4byte	0x1d7
 4871 01cf 14       		.byte	0x14
 4872 01d0 00       		.byte	0
 4873 01d1 0E       		.uleb128 0xe
 4874 01d2 04       		.byte	0x4
ARM GAS  /tmp/ccpnbTSa.s 			page 87


 4875 01d3 77010000 		.4byte	0x177
 4876 01d7 09       		.uleb128 0x9
 4877 01d8 48010000 		.4byte	0x148
 4878 01dc E7010000 		.4byte	0x1e7
 4879 01e0 0A       		.uleb128 0xa
 4880 01e1 3D000000 		.4byte	0x3d
 4881 01e5 00       		.byte	0
 4882 01e6 00       		.byte	0
 4883 01e7 10       		.uleb128 0x10
 4884 01e8 90060000 		.4byte	.LASF32
 4885 01ec 24       		.byte	0x24
 4886 01ed 09       		.byte	0x9
 4887 01ee 3C       		.byte	0x3c
 4888 01ef 08       		.byte	0x8
 4889 01f0 6A020000 		.4byte	0x26a
 4890 01f4 0C       		.uleb128 0xc
 4891 01f5 0B100000 		.4byte	.LASF33
 4892 01f9 09       		.byte	0x9
 4893 01fa 3E       		.byte	0x3e
 4894 01fb 09       		.byte	0x9
 4895 01fc 25000000 		.4byte	0x25
 4896 0200 00       		.byte	0
 4897 0201 0C       		.uleb128 0xc
 4898 0202 B7200000 		.4byte	.LASF34
 4899 0206 09       		.byte	0x9
 4900 0207 3F       		.byte	0x3f
 4901 0208 09       		.byte	0x9
 4902 0209 25000000 		.4byte	0x25
 4903 020d 04       		.byte	0x4
 4904 020e 0C       		.uleb128 0xc
 4905 020f 400D0000 		.4byte	.LASF35
 4906 0213 09       		.byte	0x9
 4907 0214 40       		.byte	0x40
 4908 0215 09       		.byte	0x9
 4909 0216 25000000 		.4byte	0x25
 4910 021a 08       		.byte	0x8
 4911 021b 0C       		.uleb128 0xc
 4912 021c 140E0000 		.4byte	.LASF36
 4913 0220 09       		.byte	0x9
 4914 0221 41       		.byte	0x41
 4915 0222 09       		.byte	0x9
 4916 0223 25000000 		.4byte	0x25
 4917 0227 0C       		.byte	0xc
 4918 0228 0C       		.uleb128 0xc
 4919 0229 F2010000 		.4byte	.LASF37
 4920 022d 09       		.byte	0x9
 4921 022e 42       		.byte	0x42
 4922 022f 09       		.byte	0x9
 4923 0230 25000000 		.4byte	0x25
 4924 0234 10       		.byte	0x10
 4925 0235 0C       		.uleb128 0xc
 4926 0236 F5090000 		.4byte	.LASF38
 4927 023a 09       		.byte	0x9
 4928 023b 43       		.byte	0x43
 4929 023c 09       		.byte	0x9
 4930 023d 25000000 		.4byte	0x25
 4931 0241 14       		.byte	0x14
ARM GAS  /tmp/ccpnbTSa.s 			page 88


 4932 0242 0C       		.uleb128 0xc
 4933 0243 4D080000 		.4byte	.LASF39
 4934 0247 09       		.byte	0x9
 4935 0248 44       		.byte	0x44
 4936 0249 09       		.byte	0x9
 4937 024a 25000000 		.4byte	0x25
 4938 024e 18       		.byte	0x18
 4939 024f 0C       		.uleb128 0xc
 4940 0250 15070000 		.4byte	.LASF40
 4941 0254 09       		.byte	0x9
 4942 0255 45       		.byte	0x45
 4943 0256 09       		.byte	0x9
 4944 0257 25000000 		.4byte	0x25
 4945 025b 1C       		.byte	0x1c
 4946 025c 0C       		.uleb128 0xc
 4947 025d 57080000 		.4byte	.LASF41
 4948 0261 09       		.byte	0x9
 4949 0262 46       		.byte	0x46
 4950 0263 09       		.byte	0x9
 4951 0264 25000000 		.4byte	0x25
 4952 0268 20       		.byte	0x20
 4953 0269 00       		.byte	0
 4954 026a 12       		.uleb128 0x12
 4955 026b 2C100000 		.4byte	.LASF42
 4956 026f 0801     		.2byte	0x108
 4957 0271 09       		.byte	0x9
 4958 0272 4F       		.byte	0x4f
 4959 0273 08       		.byte	0x8
 4960 0274 AF020000 		.4byte	0x2af
 4961 0278 0C       		.uleb128 0xc
 4962 0279 500E0000 		.4byte	.LASF43
 4963 027d 09       		.byte	0x9
 4964 027e 50       		.byte	0x50
 4965 027f 0A       		.byte	0xa
 4966 0280 AF020000 		.4byte	0x2af
 4967 0284 00       		.byte	0
 4968 0285 0C       		.uleb128 0xc
 4969 0286 29080000 		.4byte	.LASF44
 4970 028a 09       		.byte	0x9
 4971 028b 51       		.byte	0x51
 4972 028c 09       		.byte	0x9
 4973 028d AF020000 		.4byte	0x2af
 4974 0291 80       		.byte	0x80
 4975 0292 13       		.uleb128 0x13
 4976 0293 FB010000 		.4byte	.LASF45
 4977 0297 09       		.byte	0x9
 4978 0298 53       		.byte	0x53
 4979 0299 0A       		.byte	0xa
 4980 029a 48010000 		.4byte	0x148
 4981 029e 0001     		.2byte	0x100
 4982 02a0 13       		.uleb128 0x13
 4983 02a1 B31A0000 		.4byte	.LASF46
 4984 02a5 09       		.byte	0x9
 4985 02a6 56       		.byte	0x56
 4986 02a7 0A       		.byte	0xa
 4987 02a8 48010000 		.4byte	0x148
 4988 02ac 0401     		.2byte	0x104
ARM GAS  /tmp/ccpnbTSa.s 			page 89


 4989 02ae 00       		.byte	0
 4990 02af 09       		.uleb128 0x9
 4991 02b0 46010000 		.4byte	0x146
 4992 02b4 BF020000 		.4byte	0x2bf
 4993 02b8 0A       		.uleb128 0xa
 4994 02b9 3D000000 		.4byte	0x3d
 4995 02bd 1F       		.byte	0x1f
 4996 02be 00       		.byte	0
 4997 02bf 10       		.uleb128 0x10
 4998 02c0 6B010000 		.4byte	.LASF47
 4999 02c4 8C       		.byte	0x8c
 5000 02c5 09       		.byte	0x9
 5001 02c6 5A       		.byte	0x5a
 5002 02c7 08       		.byte	0x8
 5003 02c8 01030000 		.4byte	0x301
 5004 02cc 0C       		.uleb128 0xc
 5005 02cd D70E0000 		.4byte	.LASF27
 5006 02d1 09       		.byte	0x9
 5007 02d2 5B       		.byte	0x5b
 5008 02d3 12       		.byte	0x12
 5009 02d4 01030000 		.4byte	0x301
 5010 02d8 00       		.byte	0
 5011 02d9 0C       		.uleb128 0xc
 5012 02da 18020000 		.4byte	.LASF48
 5013 02de 09       		.byte	0x9
 5014 02df 5C       		.byte	0x5c
 5015 02e0 06       		.byte	0x6
 5016 02e1 25000000 		.4byte	0x25
 5017 02e5 04       		.byte	0x4
 5018 02e6 0C       		.uleb128 0xc
 5019 02e7 C8190000 		.4byte	.LASF49
 5020 02eb 09       		.byte	0x9
 5021 02ec 5D       		.byte	0x5d
 5022 02ed 09       		.byte	0x9
 5023 02ee 07030000 		.4byte	0x307
 5024 02f2 08       		.byte	0x8
 5025 02f3 0C       		.uleb128 0xc
 5026 02f4 00000000 		.4byte	.LASF50
 5027 02f8 09       		.byte	0x9
 5028 02f9 5E       		.byte	0x5e
 5029 02fa 20       		.byte	0x20
 5030 02fb 1E030000 		.4byte	0x31e
 5031 02ff 88       		.byte	0x88
 5032 0300 00       		.byte	0
 5033 0301 0E       		.uleb128 0xe
 5034 0302 04       		.byte	0x4
 5035 0303 BF020000 		.4byte	0x2bf
 5036 0307 09       		.uleb128 0x9
 5037 0308 17030000 		.4byte	0x317
 5038 030c 17030000 		.4byte	0x317
 5039 0310 0A       		.uleb128 0xa
 5040 0311 3D000000 		.4byte	0x3d
 5041 0315 1F       		.byte	0x1f
 5042 0316 00       		.byte	0
 5043 0317 0E       		.uleb128 0xe
 5044 0318 04       		.byte	0x4
 5045 0319 1D030000 		.4byte	0x31d
ARM GAS  /tmp/ccpnbTSa.s 			page 90


 5046 031d 14       		.uleb128 0x14
 5047 031e 0E       		.uleb128 0xe
 5048 031f 04       		.byte	0x4
 5049 0320 6A020000 		.4byte	0x26a
 5050 0324 10       		.uleb128 0x10
 5051 0325 D0130000 		.4byte	.LASF51
 5052 0329 08       		.byte	0x8
 5053 032a 09       		.byte	0x9
 5054 032b 7A       		.byte	0x7a
 5055 032c 08       		.byte	0x8
 5056 032d 4C030000 		.4byte	0x34c
 5057 0331 0C       		.uleb128 0xc
 5058 0332 DD050000 		.4byte	.LASF52
 5059 0336 09       		.byte	0x9
 5060 0337 7B       		.byte	0x7b
 5061 0338 11       		.byte	0x11
 5062 0339 4C030000 		.4byte	0x34c
 5063 033d 00       		.byte	0
 5064 033e 0C       		.uleb128 0xc
 5065 033f 24090000 		.4byte	.LASF53
 5066 0343 09       		.byte	0x9
 5067 0344 7C       		.byte	0x7c
 5068 0345 06       		.byte	0x6
 5069 0346 25000000 		.4byte	0x25
 5070 034a 04       		.byte	0x4
 5071 034b 00       		.byte	0
 5072 034c 0E       		.uleb128 0xe
 5073 034d 04       		.byte	0x4
 5074 034e 72000000 		.4byte	0x72
 5075 0352 10       		.uleb128 0x10
 5076 0353 21040000 		.4byte	.LASF54
 5077 0357 20       		.byte	0x20
 5078 0358 09       		.byte	0x9
 5079 0359 9E       		.byte	0x9e
 5080 035a 08       		.byte	0x8
 5081 035b C5030000 		.4byte	0x3c5
 5082 035f 11       		.uleb128 0x11
 5083 0360 5F7000   		.ascii	"_p\000"
 5084 0363 09       		.byte	0x9
 5085 0364 9F       		.byte	0x9f
 5086 0365 12       		.byte	0x12
 5087 0366 4C030000 		.4byte	0x34c
 5088 036a 00       		.byte	0
 5089 036b 11       		.uleb128 0x11
 5090 036c 5F7200   		.ascii	"_r\000"
 5091 036f 09       		.byte	0x9
 5092 0370 A0       		.byte	0xa0
 5093 0371 07       		.byte	0x7
 5094 0372 25000000 		.4byte	0x25
 5095 0376 04       		.byte	0x4
 5096 0377 11       		.uleb128 0x11
 5097 0378 5F7700   		.ascii	"_w\000"
 5098 037b 09       		.byte	0x9
 5099 037c A1       		.byte	0xa1
 5100 037d 07       		.byte	0x7
 5101 037e 25000000 		.4byte	0x25
 5102 0382 08       		.byte	0x8
ARM GAS  /tmp/ccpnbTSa.s 			page 91


 5103 0383 0C       		.uleb128 0xc
 5104 0384 84020000 		.4byte	.LASF55
 5105 0388 09       		.byte	0x9
 5106 0389 A2       		.byte	0xa2
 5107 038a 09       		.byte	0x9
 5108 038b 79000000 		.4byte	0x79
 5109 038f 0C       		.byte	0xc
 5110 0390 0C       		.uleb128 0xc
 5111 0391 72190000 		.4byte	.LASF56
 5112 0395 09       		.byte	0x9
 5113 0396 A3       		.byte	0xa3
 5114 0397 09       		.byte	0x9
 5115 0398 79000000 		.4byte	0x79
 5116 039c 0E       		.byte	0xe
 5117 039d 11       		.uleb128 0x11
 5118 039e 5F626600 		.ascii	"_bf\000"
 5119 03a2 09       		.byte	0x9
 5120 03a3 A4       		.byte	0xa4
 5121 03a4 11       		.byte	0x11
 5122 03a5 24030000 		.4byte	0x324
 5123 03a9 10       		.byte	0x10
 5124 03aa 0C       		.uleb128 0xc
 5125 03ab D2040000 		.4byte	.LASF57
 5126 03af 09       		.byte	0x9
 5127 03b0 A5       		.byte	0xa5
 5128 03b1 07       		.byte	0x7
 5129 03b2 25000000 		.4byte	0x25
 5130 03b6 18       		.byte	0x18
 5131 03b7 0C       		.uleb128 0xc
 5132 03b8 39050000 		.4byte	.LASF58
 5133 03bc 09       		.byte	0x9
 5134 03bd A7       		.byte	0xa7
 5135 03be 12       		.byte	0x12
 5136 03bf 0D050000 		.4byte	0x50d
 5137 03c3 1C       		.byte	0x1c
 5138 03c4 00       		.byte	0
 5139 03c5 15       		.uleb128 0x15
 5140 03c6 52030000 		.4byte	0x352
 5141 03ca 16       		.uleb128 0x16
 5142 03cb B1050000 		.4byte	.LASF59
 5143 03cf 60       		.byte	0x60
 5144 03d0 09       		.byte	0x9
 5145 03d1 7901     		.2byte	0x179
 5146 03d3 08       		.byte	0x8
 5147 03d4 0D050000 		.4byte	0x50d
 5148 03d8 17       		.uleb128 0x17
 5149 03d9 FD0D0000 		.4byte	.LASF60
 5150 03dd 09       		.byte	0x9
 5151 03de 7D01     		.2byte	0x17d
 5152 03e0 07       		.byte	0x7
 5153 03e1 25000000 		.4byte	0x25
 5154 03e5 00       		.byte	0
 5155 03e6 17       		.uleb128 0x17
 5156 03e7 CA0A0000 		.4byte	.LASF61
 5157 03eb 09       		.byte	0x9
 5158 03ec 8201     		.2byte	0x182
 5159 03ee 0B       		.byte	0xb
ARM GAS  /tmp/ccpnbTSa.s 			page 92


 5160 03ef 6A070000 		.4byte	0x76a
 5161 03f3 04       		.byte	0x4
 5162 03f4 17       		.uleb128 0x17
 5163 03f5 A0080000 		.4byte	.LASF62
 5164 03f9 09       		.byte	0x9
 5165 03fa 8201     		.2byte	0x182
 5166 03fc 14       		.byte	0x14
 5167 03fd 6A070000 		.4byte	0x76a
 5168 0401 08       		.byte	0x8
 5169 0402 17       		.uleb128 0x17
 5170 0403 19080000 		.4byte	.LASF63
 5171 0407 09       		.byte	0x9
 5172 0408 8201     		.2byte	0x182
 5173 040a 1E       		.byte	0x1e
 5174 040b 6A070000 		.4byte	0x76a
 5175 040f 0C       		.byte	0xc
 5176 0410 17       		.uleb128 0x17
 5177 0411 13020000 		.4byte	.LASF64
 5178 0415 09       		.byte	0x9
 5179 0416 8401     		.2byte	0x184
 5180 0418 08       		.byte	0x8
 5181 0419 25000000 		.4byte	0x25
 5182 041d 10       		.byte	0x10
 5183 041e 17       		.uleb128 0x17
 5184 041f 9D150000 		.4byte	.LASF65
 5185 0423 09       		.byte	0x9
 5186 0424 8601     		.2byte	0x186
 5187 0426 09       		.byte	0x9
 5188 0427 79060000 		.4byte	0x679
 5189 042b 14       		.byte	0x14
 5190 042c 17       		.uleb128 0x17
 5191 042d 451D0000 		.4byte	.LASF66
 5192 0431 09       		.byte	0x9
 5193 0432 8801     		.2byte	0x188
 5194 0434 07       		.byte	0x7
 5195 0435 25000000 		.4byte	0x25
 5196 0439 18       		.byte	0x18
 5197 043a 17       		.uleb128 0x17
 5198 043b E71C0000 		.4byte	.LASF67
 5199 043f 09       		.byte	0x9
 5200 0440 8A01     		.2byte	0x18a
 5201 0442 07       		.byte	0x7
 5202 0443 25000000 		.4byte	0x25
 5203 0447 1C       		.byte	0x1c
 5204 0448 17       		.uleb128 0x17
 5205 0449 B51E0000 		.4byte	.LASF68
 5206 044d 09       		.byte	0x9
 5207 044e 8B01     		.2byte	0x18b
 5208 0450 16       		.byte	0x16
 5209 0451 D2080000 		.4byte	0x8d2
 5210 0455 20       		.byte	0x20
 5211 0456 18       		.uleb128 0x18
 5212 0457 5F6D7000 		.ascii	"_mp\000"
 5213 045b 09       		.byte	0x9
 5214 045c 8D01     		.2byte	0x18d
 5215 045e 12       		.byte	0x12
 5216 045f D8080000 		.4byte	0x8d8
ARM GAS  /tmp/ccpnbTSa.s 			page 93


 5217 0463 24       		.byte	0x24
 5218 0464 17       		.uleb128 0x17
 5219 0465 3D190000 		.4byte	.LASF69
 5220 0469 09       		.byte	0x9
 5221 046a 8F01     		.2byte	0x18f
 5222 046c 0A       		.byte	0xa
 5223 046d E9080000 		.4byte	0x8e9
 5224 0471 28       		.byte	0x28
 5225 0472 17       		.uleb128 0x17
 5226 0473 521C0000 		.4byte	.LASF70
 5227 0477 09       		.byte	0x9
 5228 0478 9101     		.2byte	0x191
 5229 047a 07       		.byte	0x7
 5230 047b 25000000 		.4byte	0x25
 5231 047f 2C       		.byte	0x2c
 5232 0480 17       		.uleb128 0x17
 5233 0481 EE020000 		.4byte	.LASF71
 5234 0485 09       		.byte	0x9
 5235 0486 9401     		.2byte	0x194
 5236 0488 07       		.byte	0x7
 5237 0489 25000000 		.4byte	0x25
 5238 048d 30       		.byte	0x30
 5239 048e 17       		.uleb128 0x17
 5240 048f 700C0000 		.4byte	.LASF72
 5241 0493 09       		.byte	0x9
 5242 0494 9501     		.2byte	0x195
 5243 0496 09       		.byte	0x9
 5244 0497 79060000 		.4byte	0x679
 5245 049b 34       		.byte	0x34
 5246 049c 17       		.uleb128 0x17
 5247 049d 0D210000 		.4byte	.LASF73
 5248 04a1 09       		.byte	0x9
 5249 04a2 9701     		.2byte	0x197
 5250 04a4 13       		.byte	0x13
 5251 04a5 EF080000 		.4byte	0x8ef
 5252 04a9 38       		.byte	0x38
 5253 04aa 17       		.uleb128 0x17
 5254 04ab A50B0000 		.4byte	.LASF74
 5255 04af 09       		.byte	0x9
 5256 04b0 9801     		.2byte	0x198
 5257 04b2 10       		.byte	0x10
 5258 04b3 F5080000 		.4byte	0x8f5
 5259 04b7 3C       		.byte	0x3c
 5260 04b8 17       		.uleb128 0x17
 5261 04b9 1D140000 		.4byte	.LASF75
 5262 04bd 09       		.byte	0x9
 5263 04be 9901     		.2byte	0x199
 5264 04c0 09       		.byte	0x9
 5265 04c1 79060000 		.4byte	0x679
 5266 04c5 40       		.byte	0x40
 5267 04c6 17       		.uleb128 0x17
 5268 04c7 14030000 		.4byte	.LASF76
 5269 04cb 09       		.byte	0x9
 5270 04cc 9C01     		.2byte	0x19c
 5271 04ce 0C       		.byte	0xc
 5272 04cf 06090000 		.4byte	0x906
 5273 04d3 44       		.byte	0x44
ARM GAS  /tmp/ccpnbTSa.s 			page 94


 5274 04d4 17       		.uleb128 0x17
 5275 04d5 12190000 		.4byte	.LASF77
 5276 04d9 09       		.byte	0x9
 5277 04da A401     		.2byte	0x1a4
 5278 04dc 10       		.byte	0x10
 5279 04dd 2B070000 		.4byte	0x72b
 5280 04e1 48       		.byte	0x48
 5281 04e2 17       		.uleb128 0x17
 5282 04e3 CF050000 		.4byte	.LASF78
 5283 04e7 09       		.byte	0x9
 5284 04e8 A501     		.2byte	0x1a5
 5285 04ea 0B       		.byte	0xb
 5286 04eb 6A070000 		.4byte	0x76a
 5287 04ef 54       		.byte	0x54
 5288 04f0 17       		.uleb128 0x17
 5289 04f1 0E090000 		.4byte	.LASF79
 5290 04f5 09       		.byte	0x9
 5291 04f6 A601     		.2byte	0x1a6
 5292 04f8 17       		.byte	0x17
 5293 04f9 12090000 		.4byte	0x912
 5294 04fd 58       		.byte	0x58
 5295 04fe 17       		.uleb128 0x17
 5296 04ff FD0E0000 		.4byte	.LASF80
 5297 0503 09       		.byte	0x9
 5298 0504 A701     		.2byte	0x1a7
 5299 0506 09       		.byte	0x9
 5300 0507 79060000 		.4byte	0x679
 5301 050b 5C       		.byte	0x5c
 5302 050c 00       		.byte	0
 5303 050d 0E       		.uleb128 0xe
 5304 050e 04       		.byte	0x4
 5305 050f CA030000 		.4byte	0x3ca
 5306 0513 15       		.uleb128 0x15
 5307 0514 0D050000 		.4byte	0x50d
 5308 0518 10       		.uleb128 0x10
 5309 0519 C0190000 		.4byte	.LASF81
 5310 051d 68       		.byte	0x68
 5311 051e 09       		.byte	0x9
 5312 051f BA       		.byte	0xba
 5313 0520 08       		.byte	0x8
 5314 0521 5B060000 		.4byte	0x65b
 5315 0525 11       		.uleb128 0x11
 5316 0526 5F7000   		.ascii	"_p\000"
 5317 0529 09       		.byte	0x9
 5318 052a BB       		.byte	0xbb
 5319 052b 12       		.byte	0x12
 5320 052c 4C030000 		.4byte	0x34c
 5321 0530 00       		.byte	0
 5322 0531 11       		.uleb128 0x11
 5323 0532 5F7200   		.ascii	"_r\000"
 5324 0535 09       		.byte	0x9
 5325 0536 BC       		.byte	0xbc
 5326 0537 07       		.byte	0x7
 5327 0538 25000000 		.4byte	0x25
 5328 053c 04       		.byte	0x4
 5329 053d 11       		.uleb128 0x11
 5330 053e 5F7700   		.ascii	"_w\000"
ARM GAS  /tmp/ccpnbTSa.s 			page 95


 5331 0541 09       		.byte	0x9
 5332 0542 BD       		.byte	0xbd
 5333 0543 07       		.byte	0x7
 5334 0544 25000000 		.4byte	0x25
 5335 0548 08       		.byte	0x8
 5336 0549 0C       		.uleb128 0xc
 5337 054a 84020000 		.4byte	.LASF55
 5338 054e 09       		.byte	0x9
 5339 054f BE       		.byte	0xbe
 5340 0550 09       		.byte	0x9
 5341 0551 79000000 		.4byte	0x79
 5342 0555 0C       		.byte	0xc
 5343 0556 0C       		.uleb128 0xc
 5344 0557 72190000 		.4byte	.LASF56
 5345 055b 09       		.byte	0x9
 5346 055c BF       		.byte	0xbf
 5347 055d 09       		.byte	0x9
 5348 055e 79000000 		.4byte	0x79
 5349 0562 0E       		.byte	0xe
 5350 0563 11       		.uleb128 0x11
 5351 0564 5F626600 		.ascii	"_bf\000"
 5352 0568 09       		.byte	0x9
 5353 0569 C0       		.byte	0xc0
 5354 056a 11       		.byte	0x11
 5355 056b 24030000 		.4byte	0x324
 5356 056f 10       		.byte	0x10
 5357 0570 0C       		.uleb128 0xc
 5358 0571 D2040000 		.4byte	.LASF57
 5359 0575 09       		.byte	0x9
 5360 0576 C1       		.byte	0xc1
 5361 0577 07       		.byte	0x7
 5362 0578 25000000 		.4byte	0x25
 5363 057c 18       		.byte	0x18
 5364 057d 0C       		.uleb128 0xc
 5365 057e 39050000 		.4byte	.LASF58
 5366 0582 09       		.byte	0x9
 5367 0583 C4       		.byte	0xc4
 5368 0584 12       		.byte	0x12
 5369 0585 0D050000 		.4byte	0x50d
 5370 0589 1C       		.byte	0x1c
 5371 058a 0C       		.uleb128 0xc
 5372 058b 190F0000 		.4byte	.LASF82
 5373 058f 09       		.byte	0x9
 5374 0590 C8       		.byte	0xc8
 5375 0591 0A       		.byte	0xa
 5376 0592 46010000 		.4byte	0x146
 5377 0596 20       		.byte	0x20
 5378 0597 0C       		.uleb128 0xc
 5379 0598 77210000 		.4byte	.LASF83
 5380 059c 09       		.byte	0x9
 5381 059d CA       		.byte	0xca
 5382 059e 1D       		.byte	0x1d
 5383 059f 8B060000 		.4byte	0x68b
 5384 05a3 24       		.byte	0x24
 5385 05a4 0C       		.uleb128 0xc
 5386 05a5 69090000 		.4byte	.LASF84
 5387 05a9 09       		.byte	0x9
ARM GAS  /tmp/ccpnbTSa.s 			page 96


 5388 05aa CC       		.byte	0xcc
 5389 05ab 1D       		.byte	0x1d
 5390 05ac BA060000 		.4byte	0x6ba
 5391 05b0 28       		.byte	0x28
 5392 05b1 0C       		.uleb128 0xc
 5393 05b2 3E120000 		.4byte	.LASF85
 5394 05b6 09       		.byte	0x9
 5395 05b7 CF       		.byte	0xcf
 5396 05b8 0D       		.byte	0xd
 5397 05b9 DE060000 		.4byte	0x6de
 5398 05bd 2C       		.byte	0x2c
 5399 05be 0C       		.uleb128 0xc
 5400 05bf 2C170000 		.4byte	.LASF86
 5401 05c3 09       		.byte	0x9
 5402 05c4 D0       		.byte	0xd0
 5403 05c5 09       		.byte	0x9
 5404 05c6 F8060000 		.4byte	0x6f8
 5405 05ca 30       		.byte	0x30
 5406 05cb 11       		.uleb128 0x11
 5407 05cc 5F756200 		.ascii	"_ub\000"
 5408 05d0 09       		.byte	0x9
 5409 05d1 D3       		.byte	0xd3
 5410 05d2 11       		.byte	0x11
 5411 05d3 24030000 		.4byte	0x324
 5412 05d7 34       		.byte	0x34
 5413 05d8 11       		.uleb128 0x11
 5414 05d9 5F757000 		.ascii	"_up\000"
 5415 05dd 09       		.byte	0x9
 5416 05de D4       		.byte	0xd4
 5417 05df 12       		.byte	0x12
 5418 05e0 4C030000 		.4byte	0x34c
 5419 05e4 3C       		.byte	0x3c
 5420 05e5 11       		.uleb128 0x11
 5421 05e6 5F757200 		.ascii	"_ur\000"
 5422 05ea 09       		.byte	0x9
 5423 05eb D5       		.byte	0xd5
 5424 05ec 07       		.byte	0x7
 5425 05ed 25000000 		.4byte	0x25
 5426 05f1 40       		.byte	0x40
 5427 05f2 0C       		.uleb128 0xc
 5428 05f3 F8180000 		.4byte	.LASF87
 5429 05f7 09       		.byte	0x9
 5430 05f8 D8       		.byte	0xd8
 5431 05f9 11       		.byte	0x11
 5432 05fa FE060000 		.4byte	0x6fe
 5433 05fe 44       		.byte	0x44
 5434 05ff 0C       		.uleb128 0xc
 5435 0600 3B030000 		.4byte	.LASF88
 5436 0604 09       		.byte	0x9
 5437 0605 D9       		.byte	0xd9
 5438 0606 11       		.byte	0x11
 5439 0607 0E070000 		.4byte	0x70e
 5440 060b 47       		.byte	0x47
 5441 060c 11       		.uleb128 0x11
 5442 060d 5F6C6200 		.ascii	"_lb\000"
 5443 0611 09       		.byte	0x9
 5444 0612 DC       		.byte	0xdc
ARM GAS  /tmp/ccpnbTSa.s 			page 97


 5445 0613 11       		.byte	0x11
 5446 0614 24030000 		.4byte	0x324
 5447 0618 48       		.byte	0x48
 5448 0619 0C       		.uleb128 0xc
 5449 061a E6180000 		.4byte	.LASF89
 5450 061e 09       		.byte	0x9
 5451 061f DF       		.byte	0xdf
 5452 0620 07       		.byte	0x7
 5453 0621 25000000 		.4byte	0x25
 5454 0625 50       		.byte	0x50
 5455 0626 0C       		.uleb128 0xc
 5456 0627 8C130000 		.4byte	.LASF90
 5457 062b 09       		.byte	0x9
 5458 062c E0       		.byte	0xe0
 5459 062d 0A       		.byte	0xa
 5460 062e CC000000 		.4byte	0xcc
 5461 0632 54       		.byte	0x54
 5462 0633 0C       		.uleb128 0xc
 5463 0634 35030000 		.4byte	.LASF91
 5464 0638 09       		.byte	0x9
 5465 0639 E7       		.byte	0xe7
 5466 063a 0C       		.byte	0xc
 5467 063b 6B010000 		.4byte	0x16b
 5468 063f 58       		.byte	0x58
 5469 0640 0C       		.uleb128 0xc
 5470 0641 62010000 		.4byte	.LASF92
 5471 0645 09       		.byte	0x9
 5472 0646 E9       		.byte	0xe9
 5473 0647 0E       		.byte	0xe
 5474 0648 3A010000 		.4byte	0x13a
 5475 064c 5C       		.byte	0x5c
 5476 064d 0C       		.uleb128 0xc
 5477 064e 681E0000 		.4byte	.LASF93
 5478 0652 09       		.byte	0x9
 5479 0653 EA       		.byte	0xea
 5480 0654 09       		.byte	0x9
 5481 0655 25000000 		.4byte	0x25
 5482 0659 64       		.byte	0x64
 5483 065a 00       		.byte	0
 5484 065b 19       		.uleb128 0x19
 5485 065c 25000000 		.4byte	0x25
 5486 0660 79060000 		.4byte	0x679
 5487 0664 1A       		.uleb128 0x1a
 5488 0665 0D050000 		.4byte	0x50d
 5489 0669 1A       		.uleb128 0x1a
 5490 066a 46010000 		.4byte	0x146
 5491 066e 1A       		.uleb128 0x1a
 5492 066f 79060000 		.4byte	0x679
 5493 0673 1A       		.uleb128 0x1a
 5494 0674 25000000 		.4byte	0x25
 5495 0678 00       		.byte	0
 5496 0679 0E       		.uleb128 0xe
 5497 067a 04       		.byte	0x4
 5498 067b 7F060000 		.4byte	0x67f
 5499 067f 05       		.uleb128 0x5
 5500 0680 01       		.byte	0x1
 5501 0681 08       		.byte	0x8
ARM GAS  /tmp/ccpnbTSa.s 			page 98


 5502 0682 33170000 		.4byte	.LASF94
 5503 0686 15       		.uleb128 0x15
 5504 0687 7F060000 		.4byte	0x67f
 5505 068b 0E       		.uleb128 0xe
 5506 068c 04       		.byte	0x4
 5507 068d 5B060000 		.4byte	0x65b
 5508 0691 19       		.uleb128 0x19
 5509 0692 25000000 		.4byte	0x25
 5510 0696 AF060000 		.4byte	0x6af
 5511 069a 1A       		.uleb128 0x1a
 5512 069b 0D050000 		.4byte	0x50d
 5513 069f 1A       		.uleb128 0x1a
 5514 06a0 46010000 		.4byte	0x146
 5515 06a4 1A       		.uleb128 0x1a
 5516 06a5 AF060000 		.4byte	0x6af
 5517 06a9 1A       		.uleb128 0x1a
 5518 06aa 25000000 		.4byte	0x25
 5519 06ae 00       		.byte	0
 5520 06af 0E       		.uleb128 0xe
 5521 06b0 04       		.byte	0x4
 5522 06b1 86060000 		.4byte	0x686
 5523 06b5 04       		.uleb128 0x4
 5524 06b6 AF060000 		.4byte	0x6af
 5525 06ba 0E       		.uleb128 0xe
 5526 06bb 04       		.byte	0x4
 5527 06bc 91060000 		.4byte	0x691
 5528 06c0 19       		.uleb128 0x19
 5529 06c1 D8000000 		.4byte	0xd8
 5530 06c5 DE060000 		.4byte	0x6de
 5531 06c9 1A       		.uleb128 0x1a
 5532 06ca 0D050000 		.4byte	0x50d
 5533 06ce 1A       		.uleb128 0x1a
 5534 06cf 46010000 		.4byte	0x146
 5535 06d3 1A       		.uleb128 0x1a
 5536 06d4 D8000000 		.4byte	0xd8
 5537 06d8 1A       		.uleb128 0x1a
 5538 06d9 25000000 		.4byte	0x25
 5539 06dd 00       		.byte	0
 5540 06de 0E       		.uleb128 0xe
 5541 06df 04       		.byte	0x4
 5542 06e0 C0060000 		.4byte	0x6c0
 5543 06e4 19       		.uleb128 0x19
 5544 06e5 25000000 		.4byte	0x25
 5545 06e9 F8060000 		.4byte	0x6f8
 5546 06ed 1A       		.uleb128 0x1a
 5547 06ee 0D050000 		.4byte	0x50d
 5548 06f2 1A       		.uleb128 0x1a
 5549 06f3 46010000 		.4byte	0x146
 5550 06f7 00       		.byte	0
 5551 06f8 0E       		.uleb128 0xe
 5552 06f9 04       		.byte	0x4
 5553 06fa E4060000 		.4byte	0x6e4
 5554 06fe 09       		.uleb128 0x9
 5555 06ff 72000000 		.4byte	0x72
 5556 0703 0E070000 		.4byte	0x70e
 5557 0707 0A       		.uleb128 0xa
 5558 0708 3D000000 		.4byte	0x3d
ARM GAS  /tmp/ccpnbTSa.s 			page 99


 5559 070c 02       		.byte	0x2
 5560 070d 00       		.byte	0
 5561 070e 09       		.uleb128 0x9
 5562 070f 72000000 		.4byte	0x72
 5563 0713 1E070000 		.4byte	0x71e
 5564 0717 0A       		.uleb128 0xa
 5565 0718 3D000000 		.4byte	0x3d
 5566 071c 00       		.byte	0
 5567 071d 00       		.byte	0
 5568 071e 06       		.uleb128 0x6
 5569 071f 1A040000 		.4byte	.LASF95
 5570 0723 09       		.byte	0x9
 5571 0724 2401     		.2byte	0x124
 5572 0726 1A       		.byte	0x1a
 5573 0727 18050000 		.4byte	0x518
 5574 072b 16       		.uleb128 0x16
 5575 072c 38170000 		.4byte	.LASF96
 5576 0730 0C       		.byte	0xc
 5577 0731 09       		.byte	0x9
 5578 0732 2801     		.2byte	0x128
 5579 0734 08       		.byte	0x8
 5580 0735 64070000 		.4byte	0x764
 5581 0739 17       		.uleb128 0x17
 5582 073a D70E0000 		.4byte	.LASF27
 5583 073e 09       		.byte	0x9
 5584 073f 2A01     		.2byte	0x12a
 5585 0741 11       		.byte	0x11
 5586 0742 64070000 		.4byte	0x764
 5587 0746 00       		.byte	0
 5588 0747 17       		.uleb128 0x17
 5589 0748 CC0D0000 		.4byte	.LASF97
 5590 074c 09       		.byte	0x9
 5591 074d 2B01     		.2byte	0x12b
 5592 074f 07       		.byte	0x7
 5593 0750 25000000 		.4byte	0x25
 5594 0754 04       		.byte	0x4
 5595 0755 17       		.uleb128 0x17
 5596 0756 97150000 		.4byte	.LASF98
 5597 075a 09       		.byte	0x9
 5598 075b 2C01     		.2byte	0x12c
 5599 075d 0B       		.byte	0xb
 5600 075e 6A070000 		.4byte	0x76a
 5601 0762 08       		.byte	0x8
 5602 0763 00       		.byte	0
 5603 0764 0E       		.uleb128 0xe
 5604 0765 04       		.byte	0x4
 5605 0766 2B070000 		.4byte	0x72b
 5606 076a 0E       		.uleb128 0xe
 5607 076b 04       		.byte	0x4
 5608 076c 1E070000 		.4byte	0x71e
 5609 0770 16       		.uleb128 0x16
 5610 0771 99210000 		.4byte	.LASF99
 5611 0775 18       		.byte	0x18
 5612 0776 09       		.byte	0x9
 5613 0777 4401     		.2byte	0x144
 5614 0779 08       		.byte	0x8
 5615 077a B7070000 		.4byte	0x7b7
ARM GAS  /tmp/ccpnbTSa.s 			page 100


 5616 077e 17       		.uleb128 0x17
 5617 077f 38120000 		.4byte	.LASF100
 5618 0783 09       		.byte	0x9
 5619 0784 4501     		.2byte	0x145
 5620 0786 12       		.byte	0x12
 5621 0787 B7070000 		.4byte	0x7b7
 5622 078b 00       		.byte	0
 5623 078c 17       		.uleb128 0x17
 5624 078d 460A0000 		.4byte	.LASF101
 5625 0791 09       		.byte	0x9
 5626 0792 4601     		.2byte	0x146
 5627 0794 12       		.byte	0x12
 5628 0795 B7070000 		.4byte	0x7b7
 5629 0799 06       		.byte	0x6
 5630 079a 17       		.uleb128 0x17
 5631 079b EE130000 		.4byte	.LASF102
 5632 079f 09       		.byte	0x9
 5633 07a0 4701     		.2byte	0x147
 5634 07a2 12       		.byte	0x12
 5635 07a3 8C000000 		.4byte	0x8c
 5636 07a7 0C       		.byte	0xc
 5637 07a8 17       		.uleb128 0x17
 5638 07a9 D3150000 		.4byte	.LASF103
 5639 07ad 09       		.byte	0x9
 5640 07ae 4A01     		.2byte	0x14a
 5641 07b0 24       		.byte	0x24
 5642 07b1 C5000000 		.4byte	0xc5
 5643 07b5 10       		.byte	0x10
 5644 07b6 00       		.byte	0
 5645 07b7 09       		.uleb128 0x9
 5646 07b8 8C000000 		.4byte	0x8c
 5647 07bc C7070000 		.4byte	0x7c7
 5648 07c0 0A       		.uleb128 0xa
 5649 07c1 3D000000 		.4byte	0x3d
 5650 07c5 02       		.byte	0x2
 5651 07c6 00       		.byte	0
 5652 07c7 16       		.uleb128 0x16
 5653 07c8 C71A0000 		.4byte	.LASF104
 5654 07cc 10       		.byte	0x10
 5655 07cd 09       		.byte	0x9
 5656 07ce 5D01     		.2byte	0x15d
 5657 07d0 08       		.byte	0x8
 5658 07d1 0E080000 		.4byte	0x80e
 5659 07d5 17       		.uleb128 0x17
 5660 07d6 21080000 		.4byte	.LASF105
 5661 07da 09       		.byte	0x9
 5662 07db 6001     		.2byte	0x160
 5663 07dd 13       		.byte	0x13
 5664 07de D1010000 		.4byte	0x1d1
 5665 07e2 00       		.byte	0
 5666 07e3 17       		.uleb128 0x17
 5667 07e4 0A080000 		.4byte	.LASF106
 5668 07e8 09       		.byte	0x9
 5669 07e9 6101     		.2byte	0x161
 5670 07eb 07       		.byte	0x7
 5671 07ec 25000000 		.4byte	0x25
 5672 07f0 04       		.byte	0x4
ARM GAS  /tmp/ccpnbTSa.s 			page 101


 5673 07f1 17       		.uleb128 0x17
 5674 07f2 EC1A0000 		.4byte	.LASF107
 5675 07f6 09       		.byte	0x9
 5676 07f7 6201     		.2byte	0x162
 5677 07f9 13       		.byte	0x13
 5678 07fa D1010000 		.4byte	0x1d1
 5679 07fe 08       		.byte	0x8
 5680 07ff 17       		.uleb128 0x17
 5681 0800 34130000 		.4byte	.LASF108
 5682 0804 09       		.byte	0x9
 5683 0805 6301     		.2byte	0x163
 5684 0807 14       		.byte	0x14
 5685 0808 0E080000 		.4byte	0x80e
 5686 080c 0C       		.byte	0xc
 5687 080d 00       		.byte	0
 5688 080e 0E       		.uleb128 0xe
 5689 080f 04       		.byte	0x4
 5690 0810 D1010000 		.4byte	0x1d1
 5691 0814 16       		.uleb128 0x16
 5692 0815 BC170000 		.4byte	.LASF109
 5693 0819 50       		.byte	0x50
 5694 081a 09       		.byte	0x9
 5695 081b 6701     		.2byte	0x167
 5696 081d 08       		.byte	0x8
 5697 081e BD080000 		.4byte	0x8bd
 5698 0822 17       		.uleb128 0x17
 5699 0823 DD110000 		.4byte	.LASF110
 5700 0827 09       		.byte	0x9
 5701 0828 6A01     		.2byte	0x16a
 5702 082a 09       		.byte	0x9
 5703 082b 79060000 		.4byte	0x679
 5704 082f 00       		.byte	0
 5705 0830 17       		.uleb128 0x17
 5706 0831 05190000 		.4byte	.LASF111
 5707 0835 09       		.byte	0x9
 5708 0836 6B01     		.2byte	0x16b
 5709 0838 0E       		.byte	0xe
 5710 0839 3A010000 		.4byte	0x13a
 5711 083d 04       		.byte	0x4
 5712 083e 17       		.uleb128 0x17
 5713 083f 45150000 		.4byte	.LASF112
 5714 0843 09       		.byte	0x9
 5715 0844 6C01     		.2byte	0x16c
 5716 0846 0E       		.byte	0xe
 5717 0847 3A010000 		.4byte	0x13a
 5718 084b 0C       		.byte	0xc
 5719 084c 17       		.uleb128 0x17
 5720 084d FB050000 		.4byte	.LASF113
 5721 0851 09       		.byte	0x9
 5722 0852 6D01     		.2byte	0x16d
 5723 0854 0E       		.byte	0xe
 5724 0855 3A010000 		.4byte	0x13a
 5725 0859 14       		.byte	0x14
 5726 085a 17       		.uleb128 0x17
 5727 085b D7130000 		.4byte	.LASF114
 5728 085f 09       		.byte	0x9
 5729 0860 6E01     		.2byte	0x16e
ARM GAS  /tmp/ccpnbTSa.s 			page 102


 5730 0862 08       		.byte	0x8
 5731 0863 BD080000 		.4byte	0x8bd
 5732 0867 1C       		.byte	0x1c
 5733 0868 17       		.uleb128 0x17
 5734 0869 37180000 		.4byte	.LASF115
 5735 086d 09       		.byte	0x9
 5736 086e 6F01     		.2byte	0x16f
 5737 0870 07       		.byte	0x7
 5738 0871 25000000 		.4byte	0x25
 5739 0875 24       		.byte	0x24
 5740 0876 17       		.uleb128 0x17
 5741 0877 750A0000 		.4byte	.LASF116
 5742 087b 09       		.byte	0x9
 5743 087c 7001     		.2byte	0x170
 5744 087e 0E       		.byte	0xe
 5745 087f 3A010000 		.4byte	0x13a
 5746 0883 28       		.byte	0x28
 5747 0884 17       		.uleb128 0x17
 5748 0885 260D0000 		.4byte	.LASF117
 5749 0889 09       		.byte	0x9
 5750 088a 7101     		.2byte	0x171
 5751 088c 0E       		.byte	0xe
 5752 088d 3A010000 		.4byte	0x13a
 5753 0891 30       		.byte	0x30
 5754 0892 17       		.uleb128 0x17
 5755 0893 DE080000 		.4byte	.LASF118
 5756 0897 09       		.byte	0x9
 5757 0898 7201     		.2byte	0x172
 5758 089a 0E       		.byte	0xe
 5759 089b 3A010000 		.4byte	0x13a
 5760 089f 38       		.byte	0x38
 5761 08a0 17       		.uleb128 0x17
 5762 08a1 97100000 		.4byte	.LASF119
 5763 08a5 09       		.byte	0x9
 5764 08a6 7301     		.2byte	0x173
 5765 08a8 0E       		.byte	0xe
 5766 08a9 3A010000 		.4byte	0x13a
 5767 08ad 40       		.byte	0x40
 5768 08ae 17       		.uleb128 0x17
 5769 08af 52140000 		.4byte	.LASF120
 5770 08b3 09       		.byte	0x9
 5771 08b4 7401     		.2byte	0x174
 5772 08b6 0E       		.byte	0xe
 5773 08b7 3A010000 		.4byte	0x13a
 5774 08bb 48       		.byte	0x48
 5775 08bc 00       		.byte	0
 5776 08bd 09       		.uleb128 0x9
 5777 08be 7F060000 		.4byte	0x67f
 5778 08c2 CD080000 		.4byte	0x8cd
 5779 08c6 0A       		.uleb128 0xa
 5780 08c7 3D000000 		.4byte	0x3d
 5781 08cb 07       		.byte	0x7
 5782 08cc 00       		.byte	0
 5783 08cd 0F       		.uleb128 0xf
 5784 08ce 1A190000 		.4byte	.LASF122
 5785 08d2 0E       		.uleb128 0xe
 5786 08d3 04       		.byte	0x4
ARM GAS  /tmp/ccpnbTSa.s 			page 103


 5787 08d4 CD080000 		.4byte	0x8cd
 5788 08d8 0E       		.uleb128 0xe
 5789 08d9 04       		.byte	0x4
 5790 08da C7070000 		.4byte	0x7c7
 5791 08de 1B       		.uleb128 0x1b
 5792 08df E9080000 		.4byte	0x8e9
 5793 08e3 1A       		.uleb128 0x1a
 5794 08e4 0D050000 		.4byte	0x50d
 5795 08e8 00       		.byte	0
 5796 08e9 0E       		.uleb128 0xe
 5797 08ea 04       		.byte	0x4
 5798 08eb DE080000 		.4byte	0x8de
 5799 08ef 0E       		.uleb128 0xe
 5800 08f0 04       		.byte	0x4
 5801 08f1 70070000 		.4byte	0x770
 5802 08f5 0E       		.uleb128 0xe
 5803 08f6 04       		.byte	0x4
 5804 08f7 E7010000 		.4byte	0x1e7
 5805 08fb 1B       		.uleb128 0x1b
 5806 08fc 06090000 		.4byte	0x906
 5807 0900 1A       		.uleb128 0x1a
 5808 0901 25000000 		.4byte	0x25
 5809 0905 00       		.byte	0
 5810 0906 0E       		.uleb128 0xe
 5811 0907 04       		.byte	0x4
 5812 0908 0C090000 		.4byte	0x90c
 5813 090c 0E       		.uleb128 0xe
 5814 090d 04       		.byte	0x4
 5815 090e FB080000 		.4byte	0x8fb
 5816 0912 0E       		.uleb128 0xe
 5817 0913 04       		.byte	0x4
 5818 0914 14080000 		.4byte	0x814
 5819 0918 1C       		.uleb128 0x1c
 5820 0919 14090000 		.4byte	.LASF123
 5821 091d 09       		.byte	0x9
 5822 091e CF01     		.2byte	0x1cf
 5823 0920 22       		.byte	0x22
 5824 0921 C5030000 		.4byte	0x3c5
 5825 0925 1C       		.uleb128 0x1c
 5826 0926 BC1D0000 		.4byte	.LASF124
 5827 092a 09       		.byte	0x9
 5828 092b D001     		.2byte	0x1d0
 5829 092d 22       		.byte	0x22
 5830 092e C5030000 		.4byte	0x3c5
 5831 0932 1C       		.uleb128 0x1c
 5832 0933 001D0000 		.4byte	.LASF125
 5833 0937 09       		.byte	0x9
 5834 0938 D101     		.2byte	0x1d1
 5835 093a 22       		.byte	0x22
 5836 093b C5030000 		.4byte	0x3c5
 5837 093f 1C       		.uleb128 0x1c
 5838 0940 DA180000 		.4byte	.LASF126
 5839 0944 09       		.byte	0x9
 5840 0945 3303     		.2byte	0x333
 5841 0947 17       		.byte	0x17
 5842 0948 0D050000 		.4byte	0x50d
 5843 094c 1C       		.uleb128 0x1c
ARM GAS  /tmp/ccpnbTSa.s 			page 104


 5844 094d C41C0000 		.4byte	.LASF127
 5845 0951 09       		.byte	0x9
 5846 0952 3403     		.2byte	0x334
 5847 0954 1D       		.byte	0x1d
 5848 0955 13050000 		.4byte	0x513
 5849 0959 1C       		.uleb128 0x1c
 5850 095a 04020000 		.4byte	.LASF128
 5851 095e 09       		.byte	0x9
 5852 095f 4603     		.2byte	0x346
 5853 0961 18       		.byte	0x18
 5854 0962 01030000 		.4byte	0x301
 5855 0966 03       		.uleb128 0x3
 5856 0967 DC0B0000 		.4byte	.LASF129
 5857 096b 0B       		.byte	0xb
 5858 096c 18       		.byte	0x18
 5859 096d 13       		.byte	0x13
 5860 096e 66000000 		.4byte	0x66
 5861 0972 15       		.uleb128 0x15
 5862 0973 66090000 		.4byte	0x966
 5863 0977 03       		.uleb128 0x3
 5864 0978 3F020000 		.4byte	.LASF130
 5865 097c 0B       		.byte	0xb
 5866 097d 24       		.byte	0x24
 5867 097e 14       		.byte	0x14
 5868 097f 80000000 		.4byte	0x80
 5869 0983 03       		.uleb128 0x3
 5870 0984 F8030000 		.4byte	.LASF131
 5871 0988 0B       		.byte	0xb
 5872 0989 2C       		.byte	0x2c
 5873 098a 13       		.byte	0x13
 5874 098b 93000000 		.4byte	0x93
 5875 098f 04       		.uleb128 0x4
 5876 0990 83090000 		.4byte	0x983
 5877 0994 03       		.uleb128 0x3
 5878 0995 0A160000 		.4byte	.LASF132
 5879 0999 0B       		.byte	0xb
 5880 099a 30       		.byte	0x30
 5881 099b 14       		.byte	0x14
 5882 099c A6000000 		.4byte	0xa6
 5883 09a0 04       		.uleb128 0x4
 5884 09a1 94090000 		.4byte	0x994
 5885 09a5 15       		.uleb128 0x15
 5886 09a6 A0090000 		.4byte	0x9a0
 5887 09aa 03       		.uleb128 0x3
 5888 09ab BF090000 		.4byte	.LASF133
 5889 09af 0B       		.byte	0xb
 5890 09b0 3C       		.byte	0x3c
 5891 09b1 14       		.byte	0x14
 5892 09b2 B9000000 		.4byte	0xb9
 5893 09b6 03       		.uleb128 0x3
 5894 09b7 29210000 		.4byte	.LASF134
 5895 09bb 0C       		.byte	0xc
 5896 09bc 34       		.byte	0x34
 5897 09bd 1F       		.byte	0x1f
 5898 09be 3D000000 		.4byte	0x3d
 5899 09c2 03       		.uleb128 0x3
 5900 09c3 140B0000 		.4byte	.LASF135
ARM GAS  /tmp/ccpnbTSa.s 			page 105


 5901 09c7 0D       		.byte	0xd
 5902 09c8 27       		.byte	0x27
 5903 09c9 1D       		.byte	0x1d
 5904 09ca 94090000 		.4byte	0x994
 5905 09ce 03       		.uleb128 0x3
 5906 09cf 47100000 		.4byte	.LASF136
 5907 09d3 0D       		.byte	0xd
 5908 09d4 2A       		.byte	0x2a
 5909 09d5 1D       		.byte	0x1d
 5910 09d6 66090000 		.4byte	0x966
 5911 09da 03       		.uleb128 0x3
 5912 09db BB1C0000 		.4byte	.LASF137
 5913 09df 0D       		.byte	0xd
 5914 09e0 2B       		.byte	0x2b
 5915 09e1 1D       		.byte	0x1d
 5916 09e2 66090000 		.4byte	0x966
 5917 09e6 03       		.uleb128 0x3
 5918 09e7 E60F0000 		.4byte	.LASF138
 5919 09eb 0D       		.byte	0xd
 5920 09ec 2C       		.byte	0x2c
 5921 09ed 1D       		.byte	0x1d
 5922 09ee 66090000 		.4byte	0x966
 5923 09f2 03       		.uleb128 0x3
 5924 09f3 6C060000 		.4byte	.LASF139
 5925 09f7 0D       		.byte	0xd
 5926 09f8 2E       		.byte	0x2e
 5927 09f9 1D       		.byte	0x1d
 5928 09fa 94090000 		.4byte	0x994
 5929 09fe 03       		.uleb128 0x3
 5930 09ff 9A000000 		.4byte	.LASF140
 5931 0a03 0D       		.byte	0xd
 5932 0a04 2F       		.byte	0x2f
 5933 0a05 1D       		.byte	0x1d
 5934 0a06 83090000 		.4byte	0x983
 5935 0a0a 03       		.uleb128 0x3
 5936 0a0b 92160000 		.4byte	.LASF141
 5937 0a0f 0D       		.byte	0xd
 5938 0a10 31       		.byte	0x31
 5939 0a11 1D       		.byte	0x1d
 5940 0a12 94090000 		.4byte	0x994
 5941 0a16 03       		.uleb128 0x3
 5942 0a17 BD1E0000 		.4byte	.LASF142
 5943 0a1b 0D       		.byte	0xd
 5944 0a1c 32       		.byte	0x32
 5945 0a1d 1D       		.byte	0x1d
 5946 0a1e 94090000 		.4byte	0x994
 5947 0a22 03       		.uleb128 0x3
 5948 0a23 67180000 		.4byte	.LASF143
 5949 0a27 0D       		.byte	0xd
 5950 0a28 33       		.byte	0x33
 5951 0a29 1D       		.byte	0x1d
 5952 0a2a 83090000 		.4byte	0x983
 5953 0a2e 03       		.uleb128 0x3
 5954 0a2f C2120000 		.4byte	.LASF144
 5955 0a33 0D       		.byte	0xd
 5956 0a34 34       		.byte	0x34
 5957 0a35 1D       		.byte	0x1d
ARM GAS  /tmp/ccpnbTSa.s 			page 106


 5958 0a36 94090000 		.4byte	0x994
 5959 0a3a 03       		.uleb128 0x3
 5960 0a3b BE030000 		.4byte	.LASF145
 5961 0a3f 0E       		.byte	0xe
 5962 0a40 34       		.byte	0x34
 5963 0a41 1A       		.byte	0x1a
 5964 0a42 460A0000 		.4byte	0xa46
 5965 0a46 10       		.uleb128 0x10
 5966 0a47 BF080000 		.4byte	.LASF146
 5967 0a4b 44       		.byte	0x44
 5968 0a4c 0F       		.byte	0xf
 5969 0a4d 8E       		.byte	0x8e
 5970 0a4e 08       		.byte	0x8
 5971 0a4f 360B0000 		.4byte	0xb36
 5972 0a53 0C       		.uleb128 0xc
 5973 0a54 ED1B0000 		.4byte	.LASF147
 5974 0a58 0F       		.byte	0xf
 5975 0a59 8F       		.byte	0x8f
 5976 0a5a 19       		.byte	0x19
 5977 0a5b 6F0B0000 		.4byte	0xb6f
 5978 0a5f 00       		.byte	0
 5979 0a60 0C       		.uleb128 0xc
 5980 0a61 D7010000 		.4byte	.LASF148
 5981 0a65 0F       		.byte	0xf
 5982 0a66 90       		.byte	0x90
 5983 0a67 19       		.byte	0x19
 5984 0a68 F2090000 		.4byte	0x9f2
 5985 0a6c 08       		.byte	0x8
 5986 0a6d 11       		.uleb128 0x11
 5987 0a6e 63747800 		.ascii	"ctx\000"
 5988 0a72 0F       		.byte	0xf
 5989 0a73 91       		.byte	0x91
 5990 0a74 19       		.byte	0x19
 5991 0a75 13180000 		.4byte	0x1813
 5992 0a79 0C       		.byte	0xc
 5993 0a7a 0C       		.uleb128 0xc
 5994 0a7b D1070000 		.4byte	.LASF149
 5995 0a7f 0F       		.byte	0xf
 5996 0a80 93       		.byte	0x93
 5997 0a81 1A       		.byte	0x1a
 5998 0a82 420B0000 		.4byte	0xb42
 5999 0a86 10       		.byte	0x10
 6000 0a87 0C       		.uleb128 0xc
 6001 0a88 A1020000 		.4byte	.LASF150
 6002 0a8c 0F       		.byte	0xf
 6003 0a8d 94       		.byte	0x94
 6004 0a8e 1A       		.byte	0x1a
 6005 0a8f 420B0000 		.4byte	0xb42
 6006 0a93 14       		.byte	0x14
 6007 0a94 0C       		.uleb128 0xc
 6008 0a95 33110000 		.4byte	.LASF151
 6009 0a99 0F       		.byte	0xf
 6010 0a9a 9B       		.byte	0x9b
 6011 0a9b 1A       		.byte	0x1a
 6012 0a9c AF060000 		.4byte	0x6af
 6013 0aa0 18       		.byte	0x18
 6014 0aa1 0C       		.uleb128 0xc
ARM GAS  /tmp/ccpnbTSa.s 			page 107


 6015 0aa2 16140000 		.4byte	.LASF152
 6016 0aa6 0F       		.byte	0xf
 6017 0aa7 A4       		.byte	0xa4
 6018 0aa8 1A       		.byte	0x1a
 6019 0aa9 A01A0000 		.4byte	0x1aa0
 6020 0aad 1C       		.byte	0x1c
 6021 0aae 0C       		.uleb128 0xc
 6022 0aaf CA130000 		.4byte	.LASF153
 6023 0ab3 0F       		.byte	0xf
 6024 0ab4 A9       		.byte	0xa9
 6025 0ab5 19       		.byte	0x19
 6026 0ab6 DA090000 		.4byte	0x9da
 6027 0aba 20       		.byte	0x20
 6028 0abb 0C       		.uleb128 0xc
 6029 0abc DB210000 		.4byte	.LASF154
 6030 0ac0 0F       		.byte	0xf
 6031 0ac1 AD       		.byte	0xad
 6032 0ac2 19       		.byte	0x19
 6033 0ac3 CE090000 		.4byte	0x9ce
 6034 0ac7 21       		.byte	0x21
 6035 0ac8 0C       		.uleb128 0xc
 6036 0ac9 FD040000 		.4byte	.LASF155
 6037 0acd 0F       		.byte	0xf
 6038 0ace B2       		.byte	0xb2
 6039 0acf 19       		.byte	0x19
 6040 0ad0 E6090000 		.4byte	0x9e6
 6041 0ad4 22       		.byte	0x22
 6042 0ad5 18       		.uleb128 0x18
 6043 0ad6 7500     		.ascii	"u\000"
 6044 0ad8 0F       		.byte	0xf
 6045 0ad9 0301     		.2byte	0x103
 6046 0adb 19       		.byte	0x19
 6047 0adc C6190000 		.4byte	0x19c6
 6048 0ae0 24       		.byte	0x24
 6049 0ae1 17       		.uleb128 0x17
 6050 0ae2 5C1A0000 		.4byte	.LASF156
 6051 0ae6 0F       		.byte	0xf
 6052 0ae7 0801     		.2byte	0x108
 6053 0ae9 19       		.byte	0x19
 6054 0aea 480B0000 		.4byte	0xb48
 6055 0aee 28       		.byte	0x28
 6056 0aef 17       		.uleb128 0x17
 6057 0af0 4B130000 		.4byte	.LASF157
 6058 0af4 0F       		.byte	0xf
 6059 0af5 0E01     		.2byte	0x10e
 6060 0af7 19       		.byte	0x19
 6061 0af8 6F0B0000 		.4byte	0xb6f
 6062 0afc 2C       		.byte	0x2c
 6063 0afd 17       		.uleb128 0x17
 6064 0afe 59010000 		.4byte	.LASF158
 6065 0b02 0F       		.byte	0xf
 6066 0b03 1401     		.2byte	0x114
 6067 0b05 19       		.byte	0x19
 6068 0b06 0A0A0000 		.4byte	0xa0a
 6069 0b0a 34       		.byte	0x34
 6070 0b0b 17       		.uleb128 0x17
 6071 0b0c 19050000 		.4byte	.LASF159
ARM GAS  /tmp/ccpnbTSa.s 			page 108


 6072 0b10 0F       		.byte	0xf
 6073 0b11 1B01     		.2byte	0x11b
 6074 0b13 1A       		.byte	0x1a
 6075 0b14 9A1A0000 		.4byte	0x1a9a
 6076 0b18 38       		.byte	0x38
 6077 0b19 17       		.uleb128 0x17
 6078 0b1a C7210000 		.4byte	.LASF160
 6079 0b1e 0F       		.byte	0xf
 6080 0b1f 1F01     		.2byte	0x11f
 6081 0b21 19       		.byte	0x19
 6082 0b22 F2090000 		.4byte	0x9f2
 6083 0b26 3C       		.byte	0x3c
 6084 0b27 17       		.uleb128 0x17
 6085 0b28 9A140000 		.4byte	.LASF161
 6086 0b2c 0F       		.byte	0xf
 6087 0b2d 2601     		.2byte	0x126
 6088 0b2f 1A       		.byte	0x1a
 6089 0b30 46010000 		.4byte	0x146
 6090 0b34 40       		.byte	0x40
 6091 0b35 00       		.byte	0
 6092 0b36 03       		.uleb128 0x3
 6093 0b37 981F0000 		.4byte	.LASF162
 6094 0b3b 0E       		.byte	0xe
 6095 0b3c 39       		.byte	0x39
 6096 0b3d 14       		.byte	0x14
 6097 0b3e 420B0000 		.4byte	0xb42
 6098 0b42 0E       		.uleb128 0xe
 6099 0b43 04       		.byte	0x4
 6100 0b44 3A0A0000 		.4byte	0xa3a
 6101 0b48 03       		.uleb128 0x3
 6102 0b49 69050000 		.4byte	.LASF163
 6103 0b4d 0E       		.byte	0xe
 6104 0b4e 3E       		.byte	0x3e
 6105 0b4f 20       		.byte	0x20
 6106 0b50 540B0000 		.4byte	0xb54
 6107 0b54 10       		.uleb128 0x10
 6108 0b55 E8210000 		.4byte	.LASF164
 6109 0b59 04       		.byte	0x4
 6110 0b5a 0F       		.byte	0xf
 6111 0b5b 7C       		.byte	0x7c
 6112 0b5c 08       		.byte	0x8
 6113 0b5d 6F0B0000 		.4byte	0xb6f
 6114 0b61 0C       		.uleb128 0xc
 6115 0b62 9C020000 		.4byte	.LASF165
 6116 0b66 0F       		.byte	0xf
 6117 0b67 7D       		.byte	0x7d
 6118 0b68 1A       		.byte	0x1a
 6119 0b69 420B0000 		.4byte	0xb42
 6120 0b6d 00       		.byte	0
 6121 0b6e 00       		.byte	0
 6122 0b6f 03       		.uleb128 0x3
 6123 0b70 B7140000 		.4byte	.LASF166
 6124 0b74 0E       		.byte	0xe
 6125 0b75 45       		.byte	0x45
 6126 0b76 21       		.byte	0x21
 6127 0b77 7B0B0000 		.4byte	0xb7b
 6128 0b7b 10       		.uleb128 0x10
ARM GAS  /tmp/ccpnbTSa.s 			page 109


 6129 0b7c F6020000 		.4byte	.LASF167
 6130 0b80 08       		.byte	0x8
 6131 0b81 0F       		.byte	0xf
 6132 0b82 83       		.byte	0x83
 6133 0b83 08       		.byte	0x8
 6134 0b84 A30B0000 		.4byte	0xba3
 6135 0b88 0C       		.uleb128 0xc
 6136 0b89 9C020000 		.4byte	.LASF165
 6137 0b8d 0F       		.byte	0xf
 6138 0b8e 84       		.byte	0x84
 6139 0b8f 1A       		.byte	0x1a
 6140 0b90 420B0000 		.4byte	0xb42
 6141 0b94 00       		.byte	0
 6142 0b95 0C       		.uleb128 0xc
 6143 0b96 85210000 		.4byte	.LASF168
 6144 0b9a 0F       		.byte	0xf
 6145 0b9b 85       		.byte	0x85
 6146 0b9c 1A       		.byte	0x1a
 6147 0b9d 420B0000 		.4byte	0xb42
 6148 0ba1 04       		.byte	0x4
 6149 0ba2 00       		.byte	0
 6150 0ba3 03       		.uleb128 0x3
 6151 0ba4 B2080000 		.4byte	.LASF169
 6152 0ba8 0E       		.byte	0xe
 6153 0ba9 4C       		.byte	0x4c
 6154 0baa 1E       		.byte	0x1e
 6155 0bab AF0B0000 		.4byte	0xbaf
 6156 0baf 16       		.uleb128 0x16
 6157 0bb0 641A0000 		.4byte	.LASF170
 6158 0bb4 1C       		.byte	0x1c
 6159 0bb5 0F       		.byte	0xf
 6160 0bb6 5E01     		.2byte	0x15e
 6161 0bb8 08       		.byte	0x8
 6162 0bb9 120C0000 		.4byte	0xc12
 6163 0bbd 17       		.uleb128 0x17
 6164 0bbe ED1B0000 		.4byte	.LASF147
 6165 0bc2 0F       		.byte	0xf
 6166 0bc3 5F01     		.2byte	0x15f
 6167 0bc5 19       		.byte	0x19
 6168 0bc6 6F0B0000 		.4byte	0xb6f
 6169 0bca 00       		.byte	0
 6170 0bcb 17       		.uleb128 0x17
 6171 0bcc D7010000 		.4byte	.LASF148
 6172 0bd0 0F       		.byte	0xf
 6173 0bd1 6001     		.2byte	0x160
 6174 0bd3 19       		.byte	0x19
 6175 0bd4 F2090000 		.4byte	0x9f2
 6176 0bd8 08       		.byte	0x8
 6177 0bd9 18       		.uleb128 0x18
 6178 0bda 63747800 		.ascii	"ctx\000"
 6179 0bde 0F       		.byte	0xf
 6180 0bdf 6201     		.2byte	0x162
 6181 0be1 19       		.byte	0x19
 6182 0be2 13180000 		.4byte	0x1813
 6183 0be6 0C       		.byte	0xc
 6184 0be7 17       		.uleb128 0x17
 6185 0be8 D1070000 		.4byte	.LASF149
ARM GAS  /tmp/ccpnbTSa.s 			page 110


 6186 0bec 0F       		.byte	0xf
 6187 0bed 6501     		.2byte	0x165
 6188 0bef 1A       		.byte	0x1a
 6189 0bf0 420B0000 		.4byte	0xb42
 6190 0bf4 10       		.byte	0x10
 6191 0bf5 17       		.uleb128 0x17
 6192 0bf6 A1020000 		.4byte	.LASF150
 6193 0bfa 0F       		.byte	0xf
 6194 0bfb 6601     		.2byte	0x166
 6195 0bfd 1A       		.byte	0x1a
 6196 0bfe 420B0000 		.4byte	0xb42
 6197 0c02 14       		.byte	0x14
 6198 0c03 17       		.uleb128 0x17
 6199 0c04 DE120000 		.4byte	.LASF171
 6200 0c08 0F       		.byte	0xf
 6201 0c09 6901     		.2byte	0x169
 6202 0c0b 1A       		.byte	0x1a
 6203 0c0c 420B0000 		.4byte	0xb42
 6204 0c10 18       		.byte	0x18
 6205 0c11 00       		.byte	0
 6206 0c12 03       		.uleb128 0x3
 6207 0c13 5A190000 		.4byte	.LASF172
 6208 0c17 0E       		.byte	0xe
 6209 0c18 51       		.byte	0x51
 6210 0c19 10       		.byte	0x10
 6211 0c1a 1E0C0000 		.4byte	0xc1e
 6212 0c1e 0E       		.uleb128 0xe
 6213 0c1f 04       		.byte	0x4
 6214 0c20 240C0000 		.4byte	0xc24
 6215 0c24 1B       		.uleb128 0x1b
 6216 0c25 2F0C0000 		.4byte	0xc2f
 6217 0c29 1A       		.uleb128 0x1a
 6218 0c2a 46010000 		.4byte	0x146
 6219 0c2e 00       		.byte	0
 6220 0c2f 03       		.uleb128 0x3
 6221 0c30 F50A0000 		.4byte	.LASF173
 6222 0c34 0E       		.byte	0xe
 6223 0c35 56       		.byte	0x56
 6224 0c36 21       		.byte	0x21
 6225 0c37 3B0C0000 		.4byte	0xc3b
 6226 0c3b 16       		.uleb128 0x16
 6227 0c3c 961C0000 		.4byte	.LASF174
 6228 0c40 14       		.byte	0x14
 6229 0c41 0F       		.byte	0xf
 6230 0c42 3901     		.2byte	0x139
 6231 0c44 08       		.byte	0x8
 6232 0c45 900C0000 		.4byte	0xc90
 6233 0c49 17       		.uleb128 0x17
 6234 0c4a 9C020000 		.4byte	.LASF165
 6235 0c4e 0F       		.byte	0xf
 6236 0c4f 3A01     		.2byte	0x13a
 6237 0c51 1A       		.byte	0x1a
 6238 0c52 A61A0000 		.4byte	0x1aa6
 6239 0c56 00       		.byte	0
 6240 0c57 17       		.uleb128 0x17
 6241 0c58 85210000 		.4byte	.LASF168
 6242 0c5c 0F       		.byte	0xf
ARM GAS  /tmp/ccpnbTSa.s 			page 111


 6243 0c5d 3B01     		.2byte	0x13b
 6244 0c5f 1A       		.byte	0x1a
 6245 0c60 A61A0000 		.4byte	0x1aa6
 6246 0c64 04       		.byte	0x4
 6247 0c65 17       		.uleb128 0x17
 6248 0c66 5B090000 		.4byte	.LASF175
 6249 0c6a 0F       		.byte	0xf
 6250 0c6b 3C01     		.2byte	0x13c
 6251 0c6d 19       		.byte	0x19
 6252 0c6e 8A0D0000 		.4byte	0xd8a
 6253 0c72 08       		.byte	0x8
 6254 0c73 17       		.uleb128 0x17
 6255 0c74 2A140000 		.4byte	.LASF176
 6256 0c78 0F       		.byte	0xf
 6257 0c79 3D01     		.2byte	0x13d
 6258 0c7b 19       		.byte	0x19
 6259 0c7c 120C0000 		.4byte	0xc12
 6260 0c80 0C       		.byte	0xc
 6261 0c81 18       		.uleb128 0x18
 6262 0c82 70617200 		.ascii	"par\000"
 6263 0c86 0F       		.byte	0xf
 6264 0c87 3F01     		.2byte	0x13f
 6265 0c89 1A       		.byte	0x1a
 6266 0c8a 46010000 		.4byte	0x146
 6267 0c8e 10       		.byte	0x10
 6268 0c8f 00       		.byte	0
 6269 0c90 03       		.uleb128 0x3
 6270 0c91 A61D0000 		.4byte	.LASF177
 6271 0c95 0E       		.byte	0xe
 6272 0c96 5B       		.byte	0x5b
 6273 0c97 28       		.byte	0x28
 6274 0c98 9C0C0000 		.4byte	0xc9c
 6275 0c9c 16       		.uleb128 0x16
 6276 0c9d D2030000 		.4byte	.LASF178
 6277 0ca1 10       		.byte	0x10
 6278 0ca2 0F       		.byte	0xf
 6279 0ca3 4901     		.2byte	0x149
 6280 0ca5 08       		.byte	0x8
 6281 0ca6 E30C0000 		.4byte	0xce3
 6282 0caa 17       		.uleb128 0x17
 6283 0cab 9C020000 		.4byte	.LASF165
 6284 0caf 0F       		.byte	0xf
 6285 0cb0 4A01     		.2byte	0x14a
 6286 0cb2 1A       		.byte	0x1a
 6287 0cb3 A61A0000 		.4byte	0x1aa6
 6288 0cb7 00       		.byte	0
 6289 0cb8 17       		.uleb128 0x17
 6290 0cb9 85210000 		.4byte	.LASF168
 6291 0cbd 0F       		.byte	0xf
 6292 0cbe 4C01     		.2byte	0x14c
 6293 0cc0 1A       		.byte	0x1a
 6294 0cc1 A61A0000 		.4byte	0x1aa6
 6295 0cc5 04       		.byte	0x4
 6296 0cc6 17       		.uleb128 0x17
 6297 0cc7 5B090000 		.4byte	.LASF175
 6298 0ccb 0F       		.byte	0xf
 6299 0ccc 4E01     		.2byte	0x14e
ARM GAS  /tmp/ccpnbTSa.s 			page 112


 6300 0cce 19       		.byte	0x19
 6301 0ccf 8A0D0000 		.4byte	0xd8a
 6302 0cd3 08       		.byte	0x8
 6303 0cd4 17       		.uleb128 0x17
 6304 0cd5 2B130000 		.4byte	.LASF179
 6305 0cd9 0F       		.byte	0xf
 6306 0cda 5601     		.2byte	0x156
 6307 0cdc 19       		.byte	0x19
 6308 0cdd 7E0D0000 		.4byte	0xd7e
 6309 0ce1 0C       		.byte	0xc
 6310 0ce2 00       		.byte	0
 6311 0ce3 03       		.uleb128 0x3
 6312 0ce4 36090000 		.4byte	.LASF180
 6313 0ce8 0E       		.byte	0xe
 6314 0ce9 60       		.byte	0x60
 6315 0cea 20       		.byte	0x20
 6316 0ceb EF0C0000 		.4byte	0xcef
 6317 0cef 1D       		.uleb128 0x1d
 6318 0cf0 8D1A0000 		.4byte	.LASF181
 6319 0cf4 0C08     		.2byte	0x80c
 6320 0cf6 0F       		.byte	0xf
 6321 0cf7 7001     		.2byte	0x170
 6322 0cf9 08       		.byte	0x8
 6323 0cfa 1B0D0000 		.4byte	0xd1b
 6324 0cfe 17       		.uleb128 0x17
 6325 0cff 45110000 		.4byte	.LASF182
 6326 0d03 0F       		.byte	0xf
 6327 0d04 7801     		.2byte	0x178
 6328 0d06 24       		.byte	0x24
 6329 0d07 B5060000 		.4byte	0x6b5
 6330 0d0b 00       		.byte	0
 6331 0d0c 17       		.uleb128 0x17
 6332 0d0d C5180000 		.4byte	.LASF183
 6333 0d11 0F       		.byte	0xf
 6334 0d12 8701     		.2byte	0x187
 6335 0d14 19       		.byte	0x19
 6336 0d15 97190000 		.4byte	0x1997
 6337 0d19 04       		.byte	0x4
 6338 0d1a 00       		.byte	0
 6339 0d1b 03       		.uleb128 0x3
 6340 0d1c 2B010000 		.4byte	.LASF184
 6341 0d20 0E       		.byte	0xe
 6342 0d21 65       		.byte	0x65
 6343 0d22 1A       		.byte	0x1a
 6344 0d23 270D0000 		.4byte	0xd27
 6345 0d27 1D       		.uleb128 0x1d
 6346 0d28 06140000 		.4byte	.LASF185
 6347 0d2c 8008     		.2byte	0x880
 6348 0d2e 0F       		.byte	0xf
 6349 0d2f 9001     		.2byte	0x190
 6350 0d31 08       		.byte	0x8
 6351 0d32 7E0D0000 		.4byte	0xd7e
 6352 0d36 17       		.uleb128 0x17
 6353 0d37 63050000 		.4byte	.LASF186
 6354 0d3b 0F       		.byte	0xf
 6355 0d3c 9401     		.2byte	0x194
 6356 0d3e 19       		.byte	0x19
ARM GAS  /tmp/ccpnbTSa.s 			page 113


 6357 0d3f A30B0000 		.4byte	0xba3
 6358 0d43 00       		.byte	0
 6359 0d44 17       		.uleb128 0x17
 6360 0d45 3F050000 		.4byte	.LASF187
 6361 0d49 0F       		.byte	0xf
 6362 0d4a 9801     		.2byte	0x198
 6363 0d4c 19       		.byte	0x19
 6364 0d4d 900C0000 		.4byte	0xc90
 6365 0d51 1C       		.byte	0x1c
 6366 0d52 18       		.uleb128 0x18
 6367 0d53 64626700 		.ascii	"dbg\000"
 6368 0d57 0F       		.byte	0xf
 6369 0d58 9C01     		.2byte	0x19c
 6370 0d5a 19       		.byte	0x19
 6371 0d5b E30C0000 		.4byte	0xce3
 6372 0d5f 2C       		.byte	0x2c
 6373 0d60 1E       		.uleb128 0x1e
 6374 0d61 19150000 		.4byte	.LASF188
 6375 0d65 0F       		.byte	0xf
 6376 0d66 A001     		.2byte	0x1a0
 6377 0d68 19       		.byte	0x19
 6378 0d69 3A0A0000 		.4byte	0xa3a
 6379 0d6d 3808     		.2byte	0x838
 6380 0d6f 1F       		.uleb128 0x1f
 6381 0d70 746D00   		.ascii	"tm\000"
 6382 0d73 0F       		.byte	0xf
 6383 0d74 A501     		.2byte	0x1a5
 6384 0d76 19       		.byte	0x19
 6385 0d77 BA190000 		.4byte	0x19ba
 6386 0d7b 7C08     		.2byte	0x87c
 6387 0d7d 00       		.byte	0
 6388 0d7e 03       		.uleb128 0x3
 6389 0d7f 00040000 		.4byte	.LASF189
 6390 0d83 10       		.byte	0x10
 6391 0d84 6D       		.byte	0x6d
 6392 0d85 12       		.byte	0x12
 6393 0d86 94090000 		.4byte	0x994
 6394 0d8a 03       		.uleb128 0x3
 6395 0d8b 181A0000 		.4byte	.LASF190
 6396 0d8f 10       		.byte	0x10
 6397 0d90 79       		.byte	0x79
 6398 0d91 12       		.byte	0x12
 6399 0d92 94090000 		.4byte	0x994
 6400 0d96 03       		.uleb128 0x3
 6401 0d97 FF0F0000 		.4byte	.LASF191
 6402 0d9b 10       		.byte	0x10
 6403 0d9c 96       		.byte	0x96
 6404 0d9d 12       		.byte	0x12
 6405 0d9e AA090000 		.4byte	0x9aa
 6406 0da2 09       		.uleb128 0x9
 6407 0da3 94090000 		.4byte	0x994
 6408 0da7 B20D0000 		.4byte	0xdb2
 6409 0dab 0A       		.uleb128 0xa
 6410 0dac 3D000000 		.4byte	0x3d
 6411 0db0 01       		.byte	0x1
 6412 0db1 00       		.byte	0
 6413 0db2 09       		.uleb128 0x9
ARM GAS  /tmp/ccpnbTSa.s 			page 114


 6414 0db3 94090000 		.4byte	0x994
 6415 0db7 C20D0000 		.4byte	0xdc2
 6416 0dbb 0A       		.uleb128 0xa
 6417 0dbc 3D000000 		.4byte	0x3d
 6418 0dc0 07       		.byte	0x7
 6419 0dc1 00       		.byte	0
 6420 0dc2 1C       		.uleb128 0x1c
 6421 0dc3 FA1B0000 		.4byte	.LASF192
 6422 0dc7 11       		.byte	0x11
 6423 0dc8 220A     		.2byte	0xa22
 6424 0dca 19       		.byte	0x19
 6425 0dcb 8F090000 		.4byte	0x98f
 6426 0dcf 20       		.uleb128 0x20
 6427 0dd0 99130000 		.4byte	.LASF193
 6428 0dd4 12       		.byte	0x12
 6429 0dd5 3A       		.byte	0x3a
 6430 0dd6 11       		.byte	0x11
 6431 0dd7 94090000 		.4byte	0x994
 6432 0ddb 20       		.uleb128 0x20
 6433 0ddc FE060000 		.4byte	.LASF194
 6434 0de0 12       		.byte	0x12
 6435 0de1 3B       		.byte	0x3b
 6436 0de2 11       		.byte	0x11
 6437 0de3 94090000 		.4byte	0x994
 6438 0de7 09       		.uleb128 0x9
 6439 0de8 72090000 		.4byte	0x972
 6440 0dec F70D0000 		.4byte	0xdf7
 6441 0df0 0A       		.uleb128 0xa
 6442 0df1 3D000000 		.4byte	0x3d
 6443 0df5 0F       		.byte	0xf
 6444 0df6 00       		.byte	0
 6445 0df7 15       		.uleb128 0x15
 6446 0df8 E70D0000 		.4byte	0xde7
 6447 0dfc 20       		.uleb128 0x20
 6448 0dfd CD1D0000 		.4byte	.LASF195
 6449 0e01 12       		.byte	0x12
 6450 0e02 3C       		.byte	0x3c
 6451 0e03 17       		.byte	0x17
 6452 0e04 F70D0000 		.4byte	0xdf7
 6453 0e08 0B       		.uleb128 0xb
 6454 0e09 CC       		.byte	0xcc
 6455 0e0a 13       		.byte	0x13
 6456 0e0b F5       		.byte	0xf5
 6457 0e0c 09       		.byte	0x9
 6458 0e0d 53100000 		.4byte	0x1053
 6459 0e11 11       		.uleb128 0x11
 6460 0e12 49535200 		.ascii	"ISR\000"
 6461 0e16 13       		.byte	0x13
 6462 0e17 F7       		.byte	0xf7
 6463 0e18 11       		.byte	0x11
 6464 0e19 A0090000 		.4byte	0x9a0
 6465 0e1d 00       		.byte	0
 6466 0e1e 11       		.uleb128 0x11
 6467 0e1f 49455200 		.ascii	"IER\000"
 6468 0e23 13       		.byte	0x13
 6469 0e24 F8       		.byte	0xf8
 6470 0e25 11       		.byte	0x11
ARM GAS  /tmp/ccpnbTSa.s 			page 115


 6471 0e26 A0090000 		.4byte	0x9a0
 6472 0e2a 04       		.byte	0x4
 6473 0e2b 11       		.uleb128 0x11
 6474 0e2c 435200   		.ascii	"CR\000"
 6475 0e2f 13       		.byte	0x13
 6476 0e30 F9       		.byte	0xf9
 6477 0e31 11       		.byte	0x11
 6478 0e32 A0090000 		.4byte	0x9a0
 6479 0e36 08       		.byte	0x8
 6480 0e37 0C       		.uleb128 0xc
 6481 0e38 FF110000 		.4byte	.LASF196
 6482 0e3c 13       		.byte	0x13
 6483 0e3d FA       		.byte	0xfa
 6484 0e3e 11       		.byte	0x11
 6485 0e3f A0090000 		.4byte	0x9a0
 6486 0e43 0C       		.byte	0xc
 6487 0e44 0C       		.uleb128 0xc
 6488 0e45 E71B0000 		.4byte	.LASF197
 6489 0e49 13       		.byte	0x13
 6490 0e4a FB       		.byte	0xfb
 6491 0e4b 11       		.byte	0x11
 6492 0e4c A0090000 		.4byte	0x9a0
 6493 0e50 10       		.byte	0x10
 6494 0e51 0C       		.uleb128 0xc
 6495 0e52 29030000 		.4byte	.LASF198
 6496 0e56 13       		.byte	0x13
 6497 0e57 FC       		.byte	0xfc
 6498 0e58 11       		.byte	0x11
 6499 0e59 A0090000 		.4byte	0x9a0
 6500 0e5d 14       		.byte	0x14
 6501 0e5e 0C       		.uleb128 0xc
 6502 0e5f 2F030000 		.4byte	.LASF199
 6503 0e63 13       		.byte	0x13
 6504 0e64 FD       		.byte	0xfd
 6505 0e65 11       		.byte	0x11
 6506 0e66 A0090000 		.4byte	0x9a0
 6507 0e6a 18       		.byte	0x18
 6508 0e6b 0C       		.uleb128 0xc
 6509 0e6c 040E0000 		.4byte	.LASF200
 6510 0e70 13       		.byte	0x13
 6511 0e71 FE       		.byte	0xfe
 6512 0e72 11       		.byte	0x11
 6513 0e73 A0090000 		.4byte	0x9a0
 6514 0e77 1C       		.byte	0x1c
 6515 0e78 0C       		.uleb128 0xc
 6516 0e79 4A0D0000 		.4byte	.LASF201
 6517 0e7d 13       		.byte	0x13
 6518 0e7e FF       		.byte	0xff
 6519 0e7f 11       		.byte	0x11
 6520 0e80 A0090000 		.4byte	0x9a0
 6521 0e84 20       		.byte	0x20
 6522 0e85 17       		.uleb128 0x17
 6523 0e86 E10F0000 		.4byte	.LASF202
 6524 0e8a 13       		.byte	0x13
 6525 0e8b 0001     		.2byte	0x100
 6526 0e8d 11       		.byte	0x11
 6527 0e8e A0090000 		.4byte	0x9a0
ARM GAS  /tmp/ccpnbTSa.s 			page 116


 6528 0e92 24       		.byte	0x24
 6529 0e93 17       		.uleb128 0x17
 6530 0e94 4A1B0000 		.4byte	.LASF203
 6531 0e98 13       		.byte	0x13
 6532 0e99 0101     		.2byte	0x101
 6533 0e9b 11       		.byte	0x11
 6534 0e9c 94090000 		.4byte	0x994
 6535 0ea0 28       		.byte	0x28
 6536 0ea1 17       		.uleb128 0x17
 6537 0ea2 541B0000 		.4byte	.LASF204
 6538 0ea6 13       		.byte	0x13
 6539 0ea7 0201     		.2byte	0x102
 6540 0ea9 11       		.byte	0x11
 6541 0eaa 94090000 		.4byte	0x994
 6542 0eae 2C       		.byte	0x2c
 6543 0eaf 17       		.uleb128 0x17
 6544 0eb0 5A100000 		.4byte	.LASF205
 6545 0eb4 13       		.byte	0x13
 6546 0eb5 0301     		.2byte	0x103
 6547 0eb7 11       		.byte	0x11
 6548 0eb8 A0090000 		.4byte	0x9a0
 6549 0ebc 30       		.byte	0x30
 6550 0ebd 17       		.uleb128 0x17
 6551 0ebe 5F100000 		.4byte	.LASF206
 6552 0ec2 13       		.byte	0x13
 6553 0ec3 0401     		.2byte	0x104
 6554 0ec5 11       		.byte	0x11
 6555 0ec6 A0090000 		.4byte	0x9a0
 6556 0eca 34       		.byte	0x34
 6557 0ecb 17       		.uleb128 0x17
 6558 0ecc 64100000 		.4byte	.LASF207
 6559 0ed0 13       		.byte	0x13
 6560 0ed1 0501     		.2byte	0x105
 6561 0ed3 11       		.byte	0x11
 6562 0ed4 A0090000 		.4byte	0x9a0
 6563 0ed8 38       		.byte	0x38
 6564 0ed9 17       		.uleb128 0x17
 6565 0eda 69100000 		.4byte	.LASF208
 6566 0ede 13       		.byte	0x13
 6567 0edf 0601     		.2byte	0x106
 6568 0ee1 11       		.byte	0x11
 6569 0ee2 A0090000 		.4byte	0x9a0
 6570 0ee6 3C       		.byte	0x3c
 6571 0ee7 18       		.uleb128 0x18
 6572 0ee8 445200   		.ascii	"DR\000"
 6573 0eeb 13       		.byte	0x13
 6574 0eec 0701     		.2byte	0x107
 6575 0eee 11       		.byte	0x11
 6576 0eef A0090000 		.4byte	0x9a0
 6577 0ef3 40       		.byte	0x40
 6578 0ef4 17       		.uleb128 0x17
 6579 0ef5 5E1B0000 		.4byte	.LASF209
 6580 0ef9 13       		.byte	0x13
 6581 0efa 0801     		.2byte	0x108
 6582 0efc 11       		.byte	0x11
 6583 0efd 94090000 		.4byte	0x994
 6584 0f01 44       		.byte	0x44
ARM GAS  /tmp/ccpnbTSa.s 			page 117


 6585 0f02 17       		.uleb128 0x17
 6586 0f03 681B0000 		.4byte	.LASF210
 6587 0f07 13       		.byte	0x13
 6588 0f08 0901     		.2byte	0x109
 6589 0f0a 11       		.byte	0x11
 6590 0f0b 94090000 		.4byte	0x994
 6591 0f0f 48       		.byte	0x48
 6592 0f10 17       		.uleb128 0x17
 6593 0f11 B40A0000 		.4byte	.LASF211
 6594 0f15 13       		.byte	0x13
 6595 0f16 0A01     		.2byte	0x10a
 6596 0f18 11       		.byte	0x11
 6597 0f19 A0090000 		.4byte	0x9a0
 6598 0f1d 4C       		.byte	0x4c
 6599 0f1e 17       		.uleb128 0x17
 6600 0f1f 721B0000 		.4byte	.LASF212
 6601 0f23 13       		.byte	0x13
 6602 0f24 0B01     		.2byte	0x10b
 6603 0f26 11       		.byte	0x11
 6604 0f27 53100000 		.4byte	0x1053
 6605 0f2b 50       		.byte	0x50
 6606 0f2c 17       		.uleb128 0x17
 6607 0f2d B4100000 		.4byte	.LASF213
 6608 0f31 13       		.byte	0x13
 6609 0f32 0C01     		.2byte	0x10c
 6610 0f34 11       		.byte	0x11
 6611 0f35 A0090000 		.4byte	0x9a0
 6612 0f39 60       		.byte	0x60
 6613 0f3a 17       		.uleb128 0x17
 6614 0f3b B9100000 		.4byte	.LASF214
 6615 0f3f 13       		.byte	0x13
 6616 0f40 0D01     		.2byte	0x10d
 6617 0f42 11       		.byte	0x11
 6618 0f43 A0090000 		.4byte	0x9a0
 6619 0f47 64       		.byte	0x64
 6620 0f48 17       		.uleb128 0x17
 6621 0f49 BE100000 		.4byte	.LASF215
 6622 0f4d 13       		.byte	0x13
 6623 0f4e 0E01     		.2byte	0x10e
 6624 0f50 11       		.byte	0x11
 6625 0f51 A0090000 		.4byte	0x9a0
 6626 0f55 68       		.byte	0x68
 6627 0f56 17       		.uleb128 0x17
 6628 0f57 C3100000 		.4byte	.LASF216
 6629 0f5b 13       		.byte	0x13
 6630 0f5c 0F01     		.2byte	0x10f
 6631 0f5e 11       		.byte	0x11
 6632 0f5f A0090000 		.4byte	0x9a0
 6633 0f63 6C       		.byte	0x6c
 6634 0f64 17       		.uleb128 0x17
 6635 0f65 7C1B0000 		.4byte	.LASF217
 6636 0f69 13       		.byte	0x13
 6637 0f6a 1001     		.2byte	0x110
 6638 0f6c 11       		.byte	0x11
 6639 0f6d 53100000 		.4byte	0x1053
 6640 0f71 70       		.byte	0x70
 6641 0f72 17       		.uleb128 0x17
ARM GAS  /tmp/ccpnbTSa.s 			page 118


 6642 0f73 501D0000 		.4byte	.LASF218
 6643 0f77 13       		.byte	0x13
 6644 0f78 1101     		.2byte	0x111
 6645 0f7a 11       		.byte	0x11
 6646 0f7b A0090000 		.4byte	0x9a0
 6647 0f7f 80       		.byte	0x80
 6648 0f80 17       		.uleb128 0x17
 6649 0f81 551D0000 		.4byte	.LASF219
 6650 0f85 13       		.byte	0x13
 6651 0f86 1201     		.2byte	0x112
 6652 0f88 11       		.byte	0x11
 6653 0f89 A0090000 		.4byte	0x9a0
 6654 0f8d 84       		.byte	0x84
 6655 0f8e 17       		.uleb128 0x17
 6656 0f8f 5A1D0000 		.4byte	.LASF220
 6657 0f93 13       		.byte	0x13
 6658 0f94 1301     		.2byte	0x113
 6659 0f96 11       		.byte	0x11
 6660 0f97 A0090000 		.4byte	0x9a0
 6661 0f9b 88       		.byte	0x88
 6662 0f9c 17       		.uleb128 0x17
 6663 0f9d 5F1D0000 		.4byte	.LASF221
 6664 0fa1 13       		.byte	0x13
 6665 0fa2 1401     		.2byte	0x114
 6666 0fa4 11       		.byte	0x11
 6667 0fa5 A0090000 		.4byte	0x9a0
 6668 0fa9 8C       		.byte	0x8c
 6669 0faa 17       		.uleb128 0x17
 6670 0fab 861B0000 		.4byte	.LASF222
 6671 0faf 13       		.byte	0x13
 6672 0fb0 1501     		.2byte	0x115
 6673 0fb2 11       		.byte	0x11
 6674 0fb3 53100000 		.4byte	0x1053
 6675 0fb7 90       		.byte	0x90
 6676 0fb8 17       		.uleb128 0x17
 6677 0fb9 E1210000 		.4byte	.LASF223
 6678 0fbd 13       		.byte	0x13
 6679 0fbe 1601     		.2byte	0x116
 6680 0fc0 11       		.byte	0x11
 6681 0fc1 A0090000 		.4byte	0x9a0
 6682 0fc5 A0       		.byte	0xa0
 6683 0fc6 17       		.uleb128 0x17
 6684 0fc7 56030000 		.4byte	.LASF224
 6685 0fcb 13       		.byte	0x13
 6686 0fcc 1701     		.2byte	0x117
 6687 0fce 11       		.byte	0x11
 6688 0fcf A0090000 		.4byte	0x9a0
 6689 0fd3 A4       		.byte	0xa4
 6690 0fd4 17       		.uleb128 0x17
 6691 0fd5 901B0000 		.4byte	.LASF225
 6692 0fd9 13       		.byte	0x13
 6693 0fda 1801     		.2byte	0x118
 6694 0fdc 11       		.byte	0x11
 6695 0fdd 94090000 		.4byte	0x994
 6696 0fe1 A8       		.byte	0xa8
 6697 0fe2 17       		.uleb128 0x17
 6698 0fe3 9A1B0000 		.4byte	.LASF226
ARM GAS  /tmp/ccpnbTSa.s 			page 119


 6699 0fe7 13       		.byte	0x13
 6700 0fe8 1901     		.2byte	0x119
 6701 0fea 11       		.byte	0x11
 6702 0feb 94090000 		.4byte	0x994
 6703 0fef AC       		.byte	0xac
 6704 0ff0 17       		.uleb128 0x17
 6705 0ff1 4F0D0000 		.4byte	.LASF227
 6706 0ff5 13       		.byte	0x13
 6707 0ff6 1A01     		.2byte	0x11a
 6708 0ff8 11       		.byte	0x11
 6709 0ff9 A0090000 		.4byte	0x9a0
 6710 0ffd B0       		.byte	0xb0
 6711 0ffe 17       		.uleb128 0x17
 6712 0fff EB0E0000 		.4byte	.LASF228
 6713 1003 13       		.byte	0x13
 6714 1004 1B01     		.2byte	0x11b
 6715 1006 11       		.byte	0x11
 6716 1007 A0090000 		.4byte	0x9a0
 6717 100b B4       		.byte	0xb4
 6718 100c 17       		.uleb128 0x17
 6719 100d 540D0000 		.4byte	.LASF229
 6720 1011 13       		.byte	0x13
 6721 1012 1C01     		.2byte	0x11c
 6722 1014 11       		.byte	0x11
 6723 1015 A0090000 		.4byte	0x9a0
 6724 1019 B8       		.byte	0xb8
 6725 101a 17       		.uleb128 0x17
 6726 101b EE0F0000 		.4byte	.LASF230
 6727 101f 13       		.byte	0x13
 6728 1020 1D01     		.2byte	0x11d
 6729 1022 11       		.byte	0x11
 6730 1023 A0090000 		.4byte	0x9a0
 6731 1027 BC       		.byte	0xbc
 6732 1028 17       		.uleb128 0x17
 6733 1029 C7060000 		.4byte	.LASF231
 6734 102d 13       		.byte	0x13
 6735 102e 1E01     		.2byte	0x11e
 6736 1030 11       		.byte	0x11
 6737 1031 A0090000 		.4byte	0x9a0
 6738 1035 C0       		.byte	0xc0
 6739 1036 17       		.uleb128 0x17
 6740 1037 F1150000 		.4byte	.LASF232
 6741 103b 13       		.byte	0x13
 6742 103c 1F01     		.2byte	0x11f
 6743 103e 11       		.byte	0x11
 6744 103f A0090000 		.4byte	0x9a0
 6745 1043 C4       		.byte	0xc4
 6746 1044 17       		.uleb128 0x17
 6747 1045 7D120000 		.4byte	.LASF233
 6748 1049 13       		.byte	0x13
 6749 104a 2001     		.2byte	0x120
 6750 104c 11       		.byte	0x11
 6751 104d A0090000 		.4byte	0x9a0
 6752 1051 C8       		.byte	0xc8
 6753 1052 00       		.byte	0
 6754 1053 09       		.uleb128 0x9
 6755 1054 94090000 		.4byte	0x994
ARM GAS  /tmp/ccpnbTSa.s 			page 120


 6756 1058 63100000 		.4byte	0x1063
 6757 105c 0A       		.uleb128 0xa
 6758 105d 3D000000 		.4byte	0x3d
 6759 1061 03       		.byte	0x3
 6760 1062 00       		.byte	0
 6761 1063 06       		.uleb128 0x6
 6762 1064 86120000 		.4byte	.LASF234
 6763 1068 13       		.byte	0x13
 6764 1069 2101     		.2byte	0x121
 6765 106b 03       		.byte	0x3
 6766 106c 080E0000 		.4byte	0xe08
 6767 1070 21       		.uleb128 0x21
 6768 1071 14       		.byte	0x14
 6769 1072 13       		.byte	0x13
 6770 1073 2401     		.2byte	0x124
 6771 1075 09       		.byte	0x9
 6772 1076 C1100000 		.4byte	0x10c1
 6773 107a 18       		.uleb128 0x18
 6774 107b 43535200 		.ascii	"CSR\000"
 6775 107f 13       		.byte	0x13
 6776 1080 2601     		.2byte	0x126
 6777 1082 0F       		.byte	0xf
 6778 1083 A0090000 		.4byte	0x9a0
 6779 1087 00       		.byte	0
 6780 1088 17       		.uleb128 0x17
 6781 1089 8D1C0000 		.4byte	.LASF235
 6782 108d 13       		.byte	0x13
 6783 108e 2701     		.2byte	0x127
 6784 1090 0A       		.byte	0xa
 6785 1091 94090000 		.4byte	0x994
 6786 1095 04       		.byte	0x4
 6787 1096 18       		.uleb128 0x18
 6788 1097 43435200 		.ascii	"CCR\000"
 6789 109b 13       		.byte	0x13
 6790 109c 2801     		.2byte	0x128
 6791 109e 0F       		.byte	0xf
 6792 109f A0090000 		.4byte	0x9a0
 6793 10a3 08       		.byte	0x8
 6794 10a4 18       		.uleb128 0x18
 6795 10a5 43445200 		.ascii	"CDR\000"
 6796 10a9 13       		.byte	0x13
 6797 10aa 2901     		.2byte	0x129
 6798 10ac 0F       		.byte	0xf
 6799 10ad A0090000 		.4byte	0x9a0
 6800 10b1 0C       		.byte	0xc
 6801 10b2 17       		.uleb128 0x17
 6802 10b3 38110000 		.4byte	.LASF236
 6803 10b7 13       		.byte	0x13
 6804 10b8 2A01     		.2byte	0x12a
 6805 10ba 0F       		.byte	0xf
 6806 10bb A0090000 		.4byte	0x9a0
 6807 10bf 10       		.byte	0x10
 6808 10c0 00       		.byte	0
 6809 10c1 06       		.uleb128 0x6
 6810 10c2 24150000 		.4byte	.LASF237
 6811 10c6 13       		.byte	0x13
 6812 10c7 2C01     		.2byte	0x12c
ARM GAS  /tmp/ccpnbTSa.s 			page 121


 6813 10c9 03       		.byte	0x3
 6814 10ca 70100000 		.4byte	0x1070
 6815 10ce 09       		.uleb128 0x9
 6816 10cf A0090000 		.4byte	0x9a0
 6817 10d3 DE100000 		.4byte	0x10de
 6818 10d7 0A       		.uleb128 0xa
 6819 10d8 3D000000 		.4byte	0x3d
 6820 10dc 03       		.byte	0x3
 6821 10dd 00       		.byte	0
 6822 10de 04       		.uleb128 0x4
 6823 10df CE100000 		.4byte	0x10ce
 6824 10e3 09       		.uleb128 0x9
 6825 10e4 A0090000 		.4byte	0x9a0
 6826 10e8 F3100000 		.4byte	0x10f3
 6827 10ec 0A       		.uleb128 0xa
 6828 10ed 3D000000 		.4byte	0x3d
 6829 10f1 01       		.byte	0x1
 6830 10f2 00       		.byte	0
 6831 10f3 04       		.uleb128 0x4
 6832 10f4 E3100000 		.4byte	0x10e3
 6833 10f8 21       		.uleb128 0x21
 6834 10f9 18       		.byte	0x18
 6835 10fa 13       		.byte	0x13
 6836 10fb 3202     		.2byte	0x232
 6837 10fd 09       		.byte	0x9
 6838 10fe 56110000 		.4byte	0x1156
 6839 1102 18       		.uleb128 0x18
 6840 1103 435200   		.ascii	"CR\000"
 6841 1106 13       		.byte	0x13
 6842 1107 3402     		.2byte	0x234
 6843 1109 11       		.byte	0x11
 6844 110a A0090000 		.4byte	0x9a0
 6845 110e 00       		.byte	0
 6846 110f 17       		.uleb128 0x17
 6847 1110 4D1C0000 		.4byte	.LASF238
 6848 1114 13       		.byte	0x13
 6849 1115 3502     		.2byte	0x235
 6850 1117 11       		.byte	0x11
 6851 1118 A0090000 		.4byte	0x9a0
 6852 111c 04       		.byte	0x4
 6853 111d 18       		.uleb128 0x18
 6854 111e 50415200 		.ascii	"PAR\000"
 6855 1122 13       		.byte	0x13
 6856 1123 3602     		.2byte	0x236
 6857 1125 11       		.byte	0x11
 6858 1126 A0090000 		.4byte	0x9a0
 6859 112a 08       		.byte	0x8
 6860 112b 17       		.uleb128 0x17
 6861 112c 2E040000 		.4byte	.LASF239
 6862 1130 13       		.byte	0x13
 6863 1131 3702     		.2byte	0x237
 6864 1133 11       		.byte	0x11
 6865 1134 A0090000 		.4byte	0x9a0
 6866 1138 0C       		.byte	0xc
 6867 1139 17       		.uleb128 0x17
 6868 113a 9A070000 		.4byte	.LASF240
 6869 113e 13       		.byte	0x13
ARM GAS  /tmp/ccpnbTSa.s 			page 122


 6870 113f 3802     		.2byte	0x238
 6871 1141 11       		.byte	0x11
 6872 1142 A0090000 		.4byte	0x9a0
 6873 1146 10       		.byte	0x10
 6874 1147 18       		.uleb128 0x18
 6875 1148 46435200 		.ascii	"FCR\000"
 6876 114c 13       		.byte	0x13
 6877 114d 3902     		.2byte	0x239
 6878 114f 11       		.byte	0x11
 6879 1150 A0090000 		.4byte	0x9a0
 6880 1154 14       		.byte	0x14
 6881 1155 00       		.byte	0
 6882 1156 06       		.uleb128 0x6
 6883 1157 9F070000 		.4byte	.LASF241
 6884 115b 13       		.byte	0x13
 6885 115c 3A02     		.2byte	0x23a
 6886 115e 03       		.byte	0x3
 6887 115f F8100000 		.4byte	0x10f8
 6888 1163 21       		.uleb128 0x21
 6889 1164 14       		.byte	0x14
 6890 1165 13       		.byte	0x13
 6891 1166 4402     		.2byte	0x244
 6892 1168 09       		.byte	0x9
 6893 1169 B4110000 		.4byte	0x11b4
 6894 116d 18       		.uleb128 0x18
 6895 116e 43435200 		.ascii	"CCR\000"
 6896 1172 13       		.byte	0x13
 6897 1173 4602     		.2byte	0x246
 6898 1175 11       		.byte	0x11
 6899 1176 A0090000 		.4byte	0x9a0
 6900 117a 00       		.byte	0
 6901 117b 17       		.uleb128 0x17
 6902 117c 130F0000 		.4byte	.LASF242
 6903 1180 13       		.byte	0x13
 6904 1181 4702     		.2byte	0x247
 6905 1183 11       		.byte	0x11
 6906 1184 A0090000 		.4byte	0x9a0
 6907 1188 04       		.byte	0x4
 6908 1189 17       		.uleb128 0x17
 6909 118a 690D0000 		.4byte	.LASF243
 6910 118e 13       		.byte	0x13
 6911 118f 4802     		.2byte	0x248
 6912 1191 11       		.byte	0x11
 6913 1192 A0090000 		.4byte	0x9a0
 6914 1196 08       		.byte	0x8
 6915 1197 17       		.uleb128 0x17
 6916 1198 05180000 		.4byte	.LASF244
 6917 119c 13       		.byte	0x13
 6918 119d 4902     		.2byte	0x249
 6919 119f 11       		.byte	0x11
 6920 11a0 A0090000 		.4byte	0x9a0
 6921 11a4 0C       		.byte	0xc
 6922 11a5 17       		.uleb128 0x17
 6923 11a6 0A1B0000 		.4byte	.LASF245
 6924 11aa 13       		.byte	0x13
 6925 11ab 4A02     		.2byte	0x24a
 6926 11ad 11       		.byte	0x11
ARM GAS  /tmp/ccpnbTSa.s 			page 123


 6927 11ae A0090000 		.4byte	0x9a0
 6928 11b2 10       		.byte	0x10
 6929 11b3 00       		.byte	0
 6930 11b4 06       		.uleb128 0x6
 6931 11b5 70090000 		.4byte	.LASF246
 6932 11b9 13       		.byte	0x13
 6933 11ba 4B02     		.2byte	0x24b
 6934 11bc 03       		.byte	0x3
 6935 11bd 63110000 		.4byte	0x1163
 6936 11c1 21       		.uleb128 0x21
 6937 11c2 08       		.byte	0x8
 6938 11c3 13       		.byte	0x13
 6939 11c4 4D02     		.2byte	0x24d
 6940 11c6 09       		.byte	0x9
 6941 11c7 E8110000 		.4byte	0x11e8
 6942 11cb 18       		.uleb128 0x18
 6943 11cc 49535200 		.ascii	"ISR\000"
 6944 11d0 13       		.byte	0x13
 6945 11d1 4F02     		.2byte	0x24f
 6946 11d3 11       		.byte	0x11
 6947 11d4 A0090000 		.4byte	0x9a0
 6948 11d8 00       		.byte	0
 6949 11d9 17       		.uleb128 0x17
 6950 11da 920B0000 		.4byte	.LASF247
 6951 11de 13       		.byte	0x13
 6952 11df 5002     		.2byte	0x250
 6953 11e1 11       		.byte	0x11
 6954 11e2 A0090000 		.4byte	0x9a0
 6955 11e6 04       		.byte	0x4
 6956 11e7 00       		.byte	0
 6957 11e8 06       		.uleb128 0x6
 6958 11e9 F00E0000 		.4byte	.LASF248
 6959 11ed 13       		.byte	0x13
 6960 11ee 5102     		.2byte	0x251
 6961 11f0 03       		.byte	0x3
 6962 11f1 C1110000 		.4byte	0x11c1
 6963 11f5 21       		.uleb128 0x21
 6964 11f6 04       		.byte	0x4
 6965 11f7 13       		.byte	0x13
 6966 11f8 5302     		.2byte	0x253
 6967 11fa 09       		.byte	0x9
 6968 11fb 0E120000 		.4byte	0x120e
 6969 11ff 18       		.uleb128 0x18
 6970 1200 43435200 		.ascii	"CCR\000"
 6971 1204 13       		.byte	0x13
 6972 1205 5502     		.2byte	0x255
 6973 1207 12       		.byte	0x12
 6974 1208 A0090000 		.4byte	0x9a0
 6975 120c 00       		.byte	0
 6976 120d 00       		.byte	0
 6977 120e 06       		.uleb128 0x6
 6978 120f 73150000 		.4byte	.LASF249
 6979 1213 13       		.byte	0x13
 6980 1214 5602     		.2byte	0x256
 6981 1216 02       		.byte	0x2
 6982 1217 F5110000 		.4byte	0x11f5
 6983 121b 09       		.uleb128 0x9
ARM GAS  /tmp/ccpnbTSa.s 			page 124


 6984 121c 94090000 		.4byte	0x994
 6985 1220 2B120000 		.4byte	0x122b
 6986 1224 0A       		.uleb128 0xa
 6987 1225 3D000000 		.4byte	0x3d
 6988 1229 02       		.byte	0x2
 6989 122a 00       		.byte	0
 6990 122b 21       		.uleb128 0x21
 6991 122c 2C       		.byte	0x2c
 6992 122d 13       		.byte	0x13
 6993 122e 3E04     		.2byte	0x43e
 6994 1230 09       		.byte	0x9
 6995 1231 D0120000 		.4byte	0x12d0
 6996 1235 18       		.uleb128 0x18
 6997 1236 43523100 		.ascii	"CR1\000"
 6998 123a 13       		.byte	0x13
 6999 123b 4004     		.2byte	0x440
 7000 123d 11       		.byte	0x11
 7001 123e A0090000 		.4byte	0x9a0
 7002 1242 00       		.byte	0
 7003 1243 18       		.uleb128 0x18
 7004 1244 43523200 		.ascii	"CR2\000"
 7005 1248 13       		.byte	0x13
 7006 1249 4104     		.2byte	0x441
 7007 124b 11       		.byte	0x11
 7008 124c A0090000 		.4byte	0x9a0
 7009 1250 04       		.byte	0x4
 7010 1251 17       		.uleb128 0x17
 7011 1252 FF210000 		.4byte	.LASF250
 7012 1256 13       		.byte	0x13
 7013 1257 4204     		.2byte	0x442
 7014 1259 11       		.byte	0x11
 7015 125a A0090000 		.4byte	0x9a0
 7016 125e 08       		.byte	0x8
 7017 125f 17       		.uleb128 0x17
 7018 1260 04220000 		.4byte	.LASF251
 7019 1264 13       		.byte	0x13
 7020 1265 4304     		.2byte	0x443
 7021 1267 11       		.byte	0x11
 7022 1268 A0090000 		.4byte	0x9a0
 7023 126c 0C       		.byte	0xc
 7024 126d 17       		.uleb128 0x17
 7025 126e BF060000 		.4byte	.LASF252
 7026 1272 13       		.byte	0x13
 7027 1273 4404     		.2byte	0x444
 7028 1275 11       		.byte	0x11
 7029 1276 A0090000 		.4byte	0x9a0
 7030 127a 10       		.byte	0x10
 7031 127b 17       		.uleb128 0x17
 7032 127c A7030000 		.4byte	.LASF253
 7033 1280 13       		.byte	0x13
 7034 1281 4504     		.2byte	0x445
 7035 1283 11       		.byte	0x11
 7036 1284 A0090000 		.4byte	0x9a0
 7037 1288 14       		.byte	0x14
 7038 1289 18       		.uleb128 0x18
 7039 128a 49535200 		.ascii	"ISR\000"
 7040 128e 13       		.byte	0x13
ARM GAS  /tmp/ccpnbTSa.s 			page 125


 7041 128f 4604     		.2byte	0x446
 7042 1291 11       		.byte	0x11
 7043 1292 A0090000 		.4byte	0x9a0
 7044 1296 18       		.byte	0x18
 7045 1297 18       		.uleb128 0x18
 7046 1298 49435200 		.ascii	"ICR\000"
 7047 129c 13       		.byte	0x13
 7048 129d 4704     		.2byte	0x447
 7049 129f 11       		.byte	0x11
 7050 12a0 A0090000 		.4byte	0x9a0
 7051 12a4 1C       		.byte	0x1c
 7052 12a5 17       		.uleb128 0x17
 7053 12a6 B2150000 		.4byte	.LASF254
 7054 12aa 13       		.byte	0x13
 7055 12ab 4804     		.2byte	0x448
 7056 12ad 11       		.byte	0x11
 7057 12ae A0090000 		.4byte	0x9a0
 7058 12b2 20       		.byte	0x20
 7059 12b3 17       		.uleb128 0x17
 7060 12b4 7A0F0000 		.4byte	.LASF255
 7061 12b8 13       		.byte	0x13
 7062 12b9 4904     		.2byte	0x449
 7063 12bb 11       		.byte	0x11
 7064 12bc A0090000 		.4byte	0x9a0
 7065 12c0 24       		.byte	0x24
 7066 12c1 17       		.uleb128 0x17
 7067 12c2 370E0000 		.4byte	.LASF256
 7068 12c6 13       		.byte	0x13
 7069 12c7 4A04     		.2byte	0x44a
 7070 12c9 11       		.byte	0x11
 7071 12ca A0090000 		.4byte	0x9a0
 7072 12ce 28       		.byte	0x28
 7073 12cf 00       		.byte	0
 7074 12d0 06       		.uleb128 0x6
 7075 12d1 F30F0000 		.4byte	.LASF257
 7076 12d5 13       		.byte	0x13
 7077 12d6 4B04     		.2byte	0x44b
 7078 12d8 03       		.byte	0x3
 7079 12d9 2B120000 		.4byte	0x122b
 7080 12dd 09       		.uleb128 0x9
 7081 12de A0090000 		.4byte	0x9a0
 7082 12e2 ED120000 		.4byte	0x12ed
 7083 12e6 0A       		.uleb128 0xa
 7084 12e7 3D000000 		.4byte	0x3d
 7085 12eb 0F       		.byte	0xf
 7086 12ec 00       		.byte	0
 7087 12ed 04       		.uleb128 0x4
 7088 12ee DD120000 		.4byte	0x12dd
 7089 12f2 22       		.uleb128 0x22
 7090 12f3 0004     		.2byte	0x400
 7091 12f5 13       		.byte	0x13
 7092 12f6 7605     		.2byte	0x576
 7093 12f8 09       		.byte	0x9
 7094 12f9 6B140000 		.4byte	0x146b
 7095 12fd 17       		.uleb128 0x17
 7096 12fe 10140000 		.4byte	.LASF258
 7097 1302 13       		.byte	0x13
ARM GAS  /tmp/ccpnbTSa.s 			page 126


 7098 1303 7805     		.2byte	0x578
 7099 1305 11       		.byte	0x11
 7100 1306 A0090000 		.4byte	0x9a0
 7101 130a 00       		.byte	0
 7102 130b 17       		.uleb128 0x17
 7103 130c 281D0000 		.4byte	.LASF259
 7104 1310 13       		.byte	0x13
 7105 1311 7905     		.2byte	0x579
 7106 1313 11       		.byte	0x11
 7107 1314 A0090000 		.4byte	0x9a0
 7108 1318 04       		.byte	0x4
 7109 1319 18       		.uleb128 0x18
 7110 131a 41524700 		.ascii	"ARG\000"
 7111 131e 13       		.byte	0x13
 7112 131f 7A05     		.2byte	0x57a
 7113 1321 11       		.byte	0x11
 7114 1322 A0090000 		.4byte	0x9a0
 7115 1326 08       		.byte	0x8
 7116 1327 18       		.uleb128 0x18
 7117 1328 434D4400 		.ascii	"CMD\000"
 7118 132c 13       		.byte	0x13
 7119 132d 7B05     		.2byte	0x57b
 7120 132f 11       		.byte	0x11
 7121 1330 A0090000 		.4byte	0x9a0
 7122 1334 0C       		.byte	0xc
 7123 1335 17       		.uleb128 0x17
 7124 1336 09170000 		.4byte	.LASF260
 7125 133a 13       		.byte	0x13
 7126 133b 7C05     		.2byte	0x57c
 7127 133d 11       		.byte	0x11
 7128 133e A5090000 		.4byte	0x9a5
 7129 1342 10       		.byte	0x10
 7130 1343 17       		.uleb128 0x17
 7131 1344 E3050000 		.4byte	.LASF261
 7132 1348 13       		.byte	0x13
 7133 1349 7D05     		.2byte	0x57d
 7134 134b 11       		.byte	0x11
 7135 134c A5090000 		.4byte	0x9a5
 7136 1350 14       		.byte	0x14
 7137 1351 17       		.uleb128 0x17
 7138 1352 E9050000 		.4byte	.LASF262
 7139 1356 13       		.byte	0x13
 7140 1357 7E05     		.2byte	0x57e
 7141 1359 11       		.byte	0x11
 7142 135a A5090000 		.4byte	0x9a5
 7143 135e 18       		.byte	0x18
 7144 135f 17       		.uleb128 0x17
 7145 1360 EF050000 		.4byte	.LASF263
 7146 1364 13       		.byte	0x13
 7147 1365 7F05     		.2byte	0x57f
 7148 1367 11       		.byte	0x11
 7149 1368 A5090000 		.4byte	0x9a5
 7150 136c 1C       		.byte	0x1c
 7151 136d 17       		.uleb128 0x17
 7152 136e F5050000 		.4byte	.LASF264
 7153 1372 13       		.byte	0x13
 7154 1373 8005     		.2byte	0x580
ARM GAS  /tmp/ccpnbTSa.s 			page 127


 7155 1375 11       		.byte	0x11
 7156 1376 A5090000 		.4byte	0x9a5
 7157 137a 20       		.byte	0x20
 7158 137b 17       		.uleb128 0x17
 7159 137c 5C110000 		.4byte	.LASF265
 7160 1380 13       		.byte	0x13
 7161 1381 8105     		.2byte	0x581
 7162 1383 11       		.byte	0x11
 7163 1384 A0090000 		.4byte	0x9a0
 7164 1388 24       		.byte	0x24
 7165 1389 17       		.uleb128 0x17
 7166 138a 0A130000 		.4byte	.LASF266
 7167 138e 13       		.byte	0x13
 7168 138f 8205     		.2byte	0x582
 7169 1391 11       		.byte	0x11
 7170 1392 A0090000 		.4byte	0x9a0
 7171 1396 28       		.byte	0x28
 7172 1397 17       		.uleb128 0x17
 7173 1398 E1200000 		.4byte	.LASF267
 7174 139c 13       		.byte	0x13
 7175 139d 8305     		.2byte	0x583
 7176 139f 11       		.byte	0x11
 7177 13a0 A0090000 		.4byte	0x9a0
 7178 13a4 2C       		.byte	0x2c
 7179 13a5 17       		.uleb128 0x17
 7180 13a6 F8210000 		.4byte	.LASF268
 7181 13aa 13       		.byte	0x13
 7182 13ab 8405     		.2byte	0x584
 7183 13ad 11       		.byte	0x11
 7184 13ae A5090000 		.4byte	0x9a5
 7185 13b2 30       		.byte	0x30
 7186 13b3 18       		.uleb128 0x18
 7187 13b4 53544100 		.ascii	"STA\000"
 7188 13b8 13       		.byte	0x13
 7189 13b9 8505     		.2byte	0x585
 7190 13bb 11       		.byte	0x11
 7191 13bc A5090000 		.4byte	0x9a5
 7192 13c0 34       		.byte	0x34
 7193 13c1 18       		.uleb128 0x18
 7194 13c2 49435200 		.ascii	"ICR\000"
 7195 13c6 13       		.byte	0x13
 7196 13c7 8605     		.2byte	0x586
 7197 13c9 11       		.byte	0x11
 7198 13ca A0090000 		.4byte	0x9a0
 7199 13ce 38       		.byte	0x38
 7200 13cf 17       		.uleb128 0x17
 7201 13d0 1D020000 		.4byte	.LASF269
 7202 13d4 13       		.byte	0x13
 7203 13d5 8705     		.2byte	0x587
 7204 13d7 11       		.byte	0x11
 7205 13d8 A0090000 		.4byte	0x9a0
 7206 13dc 3C       		.byte	0x3c
 7207 13dd 17       		.uleb128 0x17
 7208 13de 62070000 		.4byte	.LASF270
 7209 13e2 13       		.byte	0x13
 7210 13e3 8805     		.2byte	0x588
 7211 13e5 11       		.byte	0x11
ARM GAS  /tmp/ccpnbTSa.s 			page 128


 7212 13e6 A0090000 		.4byte	0x9a0
 7213 13ea 40       		.byte	0x40
 7214 13eb 17       		.uleb128 0x17
 7215 13ec 401B0000 		.4byte	.LASF271
 7216 13f0 13       		.byte	0x13
 7217 13f1 8905     		.2byte	0x589
 7218 13f3 11       		.byte	0x11
 7219 13f4 1B120000 		.4byte	0x121b
 7220 13f8 44       		.byte	0x44
 7221 13f9 17       		.uleb128 0x17
 7222 13fa 25190000 		.4byte	.LASF272
 7223 13fe 13       		.byte	0x13
 7224 13ff 8A05     		.2byte	0x58a
 7225 1401 11       		.byte	0x11
 7226 1402 A0090000 		.4byte	0x9a0
 7227 1406 50       		.byte	0x50
 7228 1407 17       		.uleb128 0x17
 7229 1408 D30D0000 		.4byte	.LASF273
 7230 140c 13       		.byte	0x13
 7231 140d 8B05     		.2byte	0x58b
 7232 140f 11       		.byte	0x11
 7233 1410 A0090000 		.4byte	0x9a0
 7234 1414 54       		.byte	0x54
 7235 1415 17       		.uleb128 0x17
 7236 1416 390B0000 		.4byte	.LASF274
 7237 141a 13       		.byte	0x13
 7238 141b 8C05     		.2byte	0x58c
 7239 141d 11       		.byte	0x11
 7240 141e A0090000 		.4byte	0x9a0
 7241 1422 58       		.byte	0x58
 7242 1423 17       		.uleb128 0x17
 7243 1424 430B0000 		.4byte	.LASF275
 7244 1428 13       		.byte	0x13
 7245 1429 8D05     		.2byte	0x58d
 7246 142b 11       		.byte	0x11
 7247 142c A0090000 		.4byte	0x9a0
 7248 1430 5C       		.byte	0x5c
 7249 1431 17       		.uleb128 0x17
 7250 1432 4A1B0000 		.4byte	.LASF203
 7251 1436 13       		.byte	0x13
 7252 1437 8E05     		.2byte	0x58e
 7253 1439 11       		.byte	0x11
 7254 143a B20D0000 		.4byte	0xdb2
 7255 143e 60       		.byte	0x60
 7256 143f 17       		.uleb128 0x17
 7257 1440 AD080000 		.4byte	.LASF276
 7258 1444 13       		.byte	0x13
 7259 1445 8F05     		.2byte	0x58f
 7260 1447 11       		.byte	0x11
 7261 1448 A0090000 		.4byte	0x9a0
 7262 144c 80       		.byte	0x80
 7263 144d 17       		.uleb128 0x17
 7264 144e 541B0000 		.4byte	.LASF204
 7265 1452 13       		.byte	0x13
 7266 1453 9005     		.2byte	0x590
 7267 1455 11       		.byte	0x11
 7268 1456 6B140000 		.4byte	0x146b
ARM GAS  /tmp/ccpnbTSa.s 			page 129


 7269 145a 84       		.byte	0x84
 7270 145b 1E       		.uleb128 0x1e
 7271 145c AD150000 		.4byte	.LASF277
 7272 1460 13       		.byte	0x13
 7273 1461 9105     		.2byte	0x591
 7274 1463 11       		.byte	0x11
 7275 1464 A0090000 		.4byte	0x9a0
 7276 1468 FC03     		.2byte	0x3fc
 7277 146a 00       		.byte	0
 7278 146b 09       		.uleb128 0x9
 7279 146c 94090000 		.4byte	0x994
 7280 1470 7B140000 		.4byte	0x147b
 7281 1474 0A       		.uleb128 0xa
 7282 1475 3D000000 		.4byte	0x3d
 7283 1479 DD       		.byte	0xdd
 7284 147a 00       		.byte	0
 7285 147b 06       		.uleb128 0x6
 7286 147c BE1B0000 		.4byte	.LASF278
 7287 1480 13       		.byte	0x13
 7288 1481 9205     		.2byte	0x592
 7289 1483 03       		.byte	0x3
 7290 1484 F2120000 		.4byte	0x12f2
 7291 1488 21       		.uleb128 0x21
 7292 1489 54       		.byte	0x54
 7293 148a 13       		.byte	0x13
 7294 148b BD05     		.2byte	0x5bd
 7295 148d 09       		.byte	0x9
 7296 148e 80150000 		.4byte	0x1580
 7297 1492 18       		.uleb128 0x18
 7298 1493 43523100 		.ascii	"CR1\000"
 7299 1497 13       		.byte	0x13
 7300 1498 BF05     		.2byte	0x5bf
 7301 149a 11       		.byte	0x11
 7302 149b A0090000 		.4byte	0x9a0
 7303 149f 00       		.byte	0
 7304 14a0 18       		.uleb128 0x18
 7305 14a1 43523200 		.ascii	"CR2\000"
 7306 14a5 13       		.byte	0x13
 7307 14a6 C005     		.2byte	0x5c0
 7308 14a8 11       		.byte	0x11
 7309 14a9 A0090000 		.4byte	0x9a0
 7310 14ad 04       		.byte	0x4
 7311 14ae 17       		.uleb128 0x17
 7312 14af A8110000 		.4byte	.LASF279
 7313 14b3 13       		.byte	0x13
 7314 14b4 C105     		.2byte	0x5c1
 7315 14b6 11       		.byte	0x11
 7316 14b7 A0090000 		.4byte	0x9a0
 7317 14bb 08       		.byte	0x8
 7318 14bc 17       		.uleb128 0x17
 7319 14bd AD110000 		.4byte	.LASF280
 7320 14c1 13       		.byte	0x13
 7321 14c2 C205     		.2byte	0x5c2
 7322 14c4 11       		.byte	0x11
 7323 14c5 A0090000 		.4byte	0x9a0
 7324 14c9 0C       		.byte	0xc
 7325 14ca 18       		.uleb128 0x18
ARM GAS  /tmp/ccpnbTSa.s 			page 130


 7326 14cb 49455200 		.ascii	"IER\000"
 7327 14cf 13       		.byte	0x13
 7328 14d0 C305     		.2byte	0x5c3
 7329 14d2 11       		.byte	0x11
 7330 14d3 A0090000 		.4byte	0x9a0
 7331 14d7 10       		.byte	0x10
 7332 14d8 18       		.uleb128 0x18
 7333 14d9 535200   		.ascii	"SR\000"
 7334 14dc 13       		.byte	0x13
 7335 14dd C405     		.2byte	0x5c4
 7336 14df 11       		.byte	0x11
 7337 14e0 A0090000 		.4byte	0x9a0
 7338 14e4 14       		.byte	0x14
 7339 14e5 17       		.uleb128 0x17
 7340 14e6 920B0000 		.4byte	.LASF247
 7341 14ea 13       		.byte	0x13
 7342 14eb C505     		.2byte	0x5c5
 7343 14ed 11       		.byte	0x11
 7344 14ee A0090000 		.4byte	0x9a0
 7345 14f2 18       		.byte	0x18
 7346 14f3 17       		.uleb128 0x17
 7347 14f4 401B0000 		.4byte	.LASF271
 7348 14f8 13       		.byte	0x13
 7349 14f9 C605     		.2byte	0x5c6
 7350 14fb 11       		.byte	0x11
 7351 14fc 94090000 		.4byte	0x994
 7352 1500 1C       		.byte	0x1c
 7353 1501 17       		.uleb128 0x17
 7354 1502 370E0000 		.4byte	.LASF256
 7355 1506 13       		.byte	0x13
 7356 1507 C705     		.2byte	0x5c7
 7357 1509 11       		.byte	0x11
 7358 150a A0090000 		.4byte	0x9a0
 7359 150e 20       		.byte	0x20
 7360 150f 17       		.uleb128 0x17
 7361 1510 4A1B0000 		.4byte	.LASF203
 7362 1514 13       		.byte	0x13
 7363 1515 C805     		.2byte	0x5c8
 7364 1517 11       		.byte	0x11
 7365 1518 1B120000 		.4byte	0x121b
 7366 151c 24       		.byte	0x24
 7367 151d 17       		.uleb128 0x17
 7368 151e 7A0F0000 		.4byte	.LASF255
 7369 1522 13       		.byte	0x13
 7370 1523 C905     		.2byte	0x5c9
 7371 1525 11       		.byte	0x11
 7372 1526 A0090000 		.4byte	0x9a0
 7373 152a 30       		.byte	0x30
 7374 152b 17       		.uleb128 0x17
 7375 152c 541B0000 		.4byte	.LASF204
 7376 1530 13       		.byte	0x13
 7377 1531 CA05     		.2byte	0x5ca
 7378 1533 11       		.byte	0x11
 7379 1534 1B120000 		.4byte	0x121b
 7380 1538 34       		.byte	0x34
 7381 1539 17       		.uleb128 0x17
 7382 153a D2180000 		.4byte	.LASF281
ARM GAS  /tmp/ccpnbTSa.s 			page 131


 7383 153e 13       		.byte	0x13
 7384 153f CB05     		.2byte	0x5cb
 7385 1541 11       		.byte	0x11
 7386 1542 A0090000 		.4byte	0x9a0
 7387 1546 40       		.byte	0x40
 7388 1547 17       		.uleb128 0x17
 7389 1548 C20F0000 		.4byte	.LASF282
 7390 154c 13       		.byte	0x13
 7391 154d CC05     		.2byte	0x5cc
 7392 154f 11       		.byte	0x11
 7393 1550 A0090000 		.4byte	0x9a0
 7394 1554 44       		.byte	0x44
 7395 1555 17       		.uleb128 0x17
 7396 1556 E11B0000 		.4byte	.LASF283
 7397 155a 13       		.byte	0x13
 7398 155b CD05     		.2byte	0x5cd
 7399 155d 11       		.byte	0x11
 7400 155e A0090000 		.4byte	0x9a0
 7401 1562 48       		.byte	0x48
 7402 1563 17       		.uleb128 0x17
 7403 1564 690B0000 		.4byte	.LASF284
 7404 1568 13       		.byte	0x13
 7405 1569 CE05     		.2byte	0x5ce
 7406 156b 11       		.byte	0x11
 7407 156c A0090000 		.4byte	0x9a0
 7408 1570 4C       		.byte	0x4c
 7409 1571 17       		.uleb128 0x17
 7410 1572 251E0000 		.4byte	.LASF285
 7411 1576 13       		.byte	0x13
 7412 1577 CF05     		.2byte	0x5cf
 7413 1579 11       		.byte	0x11
 7414 157a A0090000 		.4byte	0x9a0
 7415 157e 50       		.byte	0x50
 7416 157f 00       		.byte	0
 7417 1580 06       		.uleb128 0x6
 7418 1581 691C0000 		.4byte	.LASF286
 7419 1585 13       		.byte	0x13
 7420 1586 D105     		.2byte	0x5d1
 7421 1588 03       		.byte	0x3
 7422 1589 88140000 		.4byte	0x1488
 7423 158d 21       		.uleb128 0x21
 7424 158e 30       		.byte	0x30
 7425 158f 13       		.byte	0x13
 7426 1590 3206     		.2byte	0x632
 7427 1592 09       		.byte	0x9
 7428 1593 40160000 		.4byte	0x1640
 7429 1597 18       		.uleb128 0x18
 7430 1598 43523100 		.ascii	"CR1\000"
 7431 159c 13       		.byte	0x13
 7432 159d 3406     		.2byte	0x634
 7433 159f 11       		.byte	0x11
 7434 15a0 A0090000 		.4byte	0x9a0
 7435 15a4 00       		.byte	0
 7436 15a5 18       		.uleb128 0x18
 7437 15a6 43523200 		.ascii	"CR2\000"
 7438 15aa 13       		.byte	0x13
 7439 15ab 3506     		.2byte	0x635
ARM GAS  /tmp/ccpnbTSa.s 			page 132


 7440 15ad 11       		.byte	0x11
 7441 15ae A0090000 		.4byte	0x9a0
 7442 15b2 04       		.byte	0x4
 7443 15b3 18       		.uleb128 0x18
 7444 15b4 43523300 		.ascii	"CR3\000"
 7445 15b8 13       		.byte	0x13
 7446 15b9 3606     		.2byte	0x636
 7447 15bb 11       		.byte	0x11
 7448 15bc A0090000 		.4byte	0x9a0
 7449 15c0 08       		.byte	0x8
 7450 15c1 18       		.uleb128 0x18
 7451 15c2 42525200 		.ascii	"BRR\000"
 7452 15c6 13       		.byte	0x13
 7453 15c7 3706     		.2byte	0x637
 7454 15c9 11       		.byte	0x11
 7455 15ca A0090000 		.4byte	0x9a0
 7456 15ce 0C       		.byte	0xc
 7457 15cf 17       		.uleb128 0x17
 7458 15d0 F50C0000 		.4byte	.LASF287
 7459 15d4 13       		.byte	0x13
 7460 15d5 3806     		.2byte	0x638
 7461 15d7 11       		.byte	0x11
 7462 15d8 A0090000 		.4byte	0x9a0
 7463 15dc 10       		.byte	0x10
 7464 15dd 17       		.uleb128 0x17
 7465 15de A8080000 		.4byte	.LASF288
 7466 15e2 13       		.byte	0x13
 7467 15e3 3906     		.2byte	0x639
 7468 15e5 11       		.byte	0x11
 7469 15e6 A0090000 		.4byte	0x9a0
 7470 15ea 14       		.byte	0x14
 7471 15eb 18       		.uleb128 0x18
 7472 15ec 52515200 		.ascii	"RQR\000"
 7473 15f0 13       		.byte	0x13
 7474 15f1 3A06     		.2byte	0x63a
 7475 15f3 11       		.byte	0x11
 7476 15f4 A0090000 		.4byte	0x9a0
 7477 15f8 18       		.byte	0x18
 7478 15f9 18       		.uleb128 0x18
 7479 15fa 49535200 		.ascii	"ISR\000"
 7480 15fe 13       		.byte	0x13
 7481 15ff 3B06     		.2byte	0x63b
 7482 1601 11       		.byte	0x11
 7483 1602 A0090000 		.4byte	0x9a0
 7484 1606 1C       		.byte	0x1c
 7485 1607 18       		.uleb128 0x18
 7486 1608 49435200 		.ascii	"ICR\000"
 7487 160c 13       		.byte	0x13
 7488 160d 3C06     		.2byte	0x63c
 7489 160f 11       		.byte	0x11
 7490 1610 A0090000 		.4byte	0x9a0
 7491 1614 20       		.byte	0x20
 7492 1615 18       		.uleb128 0x18
 7493 1616 52445200 		.ascii	"RDR\000"
 7494 161a 13       		.byte	0x13
 7495 161b 3D06     		.2byte	0x63d
 7496 161d 11       		.byte	0x11
ARM GAS  /tmp/ccpnbTSa.s 			page 133


 7497 161e A0090000 		.4byte	0x9a0
 7498 1622 24       		.byte	0x24
 7499 1623 18       		.uleb128 0x18
 7500 1624 54445200 		.ascii	"TDR\000"
 7501 1628 13       		.byte	0x13
 7502 1629 3E06     		.2byte	0x63e
 7503 162b 11       		.byte	0x11
 7504 162c A0090000 		.4byte	0x9a0
 7505 1630 28       		.byte	0x28
 7506 1631 17       		.uleb128 0x17
 7507 1632 D2110000 		.4byte	.LASF289
 7508 1636 13       		.byte	0x13
 7509 1637 3F06     		.2byte	0x63f
 7510 1639 11       		.byte	0x11
 7511 163a A0090000 		.4byte	0x9a0
 7512 163e 2C       		.byte	0x2c
 7513 163f 00       		.byte	0
 7514 1640 06       		.uleb128 0x6
 7515 1641 ED140000 		.4byte	.LASF290
 7516 1645 13       		.byte	0x13
 7517 1646 4006     		.2byte	0x640
 7518 1648 03       		.byte	0x3
 7519 1649 8D150000 		.4byte	0x158d
 7520 164d 21       		.uleb128 0x21
 7521 164e 0C       		.byte	0xc
 7522 164f 13       		.byte	0x13
 7523 1650 1E07     		.2byte	0x71e
 7524 1652 09       		.byte	0x9
 7525 1653 7F160000 		.4byte	0x167f
 7526 1657 18       		.uleb128 0x18
 7527 1658 435200   		.ascii	"CR\000"
 7528 165b 13       		.byte	0x13
 7529 165c 2007     		.2byte	0x720
 7530 165e 11       		.byte	0x11
 7531 165f A0090000 		.4byte	0x9a0
 7532 1663 00       		.byte	0
 7533 1664 18       		.uleb128 0x18
 7534 1665 535200   		.ascii	"SR\000"
 7535 1668 13       		.byte	0x13
 7536 1669 2107     		.2byte	0x721
 7537 166b 11       		.byte	0x11
 7538 166c A0090000 		.4byte	0x9a0
 7539 1670 04       		.byte	0x4
 7540 1671 18       		.uleb128 0x18
 7541 1672 445200   		.ascii	"DR\000"
 7542 1675 13       		.byte	0x13
 7543 1676 2207     		.2byte	0x722
 7544 1678 11       		.byte	0x11
 7545 1679 A0090000 		.4byte	0x9a0
 7546 167d 08       		.byte	0x8
 7547 167e 00       		.byte	0
 7548 167f 06       		.uleb128 0x6
 7549 1680 E1140000 		.4byte	.LASF291
 7550 1684 13       		.byte	0x13
 7551 1685 2307     		.2byte	0x723
 7552 1687 03       		.byte	0x3
 7553 1688 4D160000 		.4byte	0x164d
ARM GAS  /tmp/ccpnbTSa.s 			page 134


 7554 168c 09       		.uleb128 0x9
 7555 168d A0090000 		.4byte	0x9a0
 7556 1691 9C160000 		.4byte	0x169c
 7557 1695 0A       		.uleb128 0xa
 7558 1696 3D000000 		.4byte	0x3d
 7559 169a 0E       		.byte	0xe
 7560 169b 00       		.byte	0
 7561 169c 04       		.uleb128 0x4
 7562 169d 8C160000 		.4byte	0x168c
 7563 16a1 03       		.uleb128 0x3
 7564 16a2 6F080000 		.4byte	.LASF292
 7565 16a6 14       		.byte	0x14
 7566 16a7 68       		.byte	0x68
 7567 16a8 12       		.byte	0x12
 7568 16a9 AA090000 		.4byte	0x9aa
 7569 16ad 16       		.uleb128 0x16
 7570 16ae 25000000 		.4byte	.LASF293
 7571 16b2 64       		.byte	0x64
 7572 16b3 04       		.byte	0x4
 7573 16b4 8501     		.2byte	0x185
 7574 16b6 08       		.byte	0x8
 7575 16b7 13180000 		.4byte	0x1813
 7576 16bb 18       		.uleb128 0x18
 7577 16bc 73313600 		.ascii	"s16\000"
 7578 16c0 04       		.byte	0x4
 7579 16c1 8D01     		.2byte	0x18d
 7580 16c3 11       		.byte	0x11
 7581 16c4 94090000 		.4byte	0x994
 7582 16c8 00       		.byte	0
 7583 16c9 18       		.uleb128 0x18
 7584 16ca 73313700 		.ascii	"s17\000"
 7585 16ce 04       		.byte	0x4
 7586 16cf 8E01     		.2byte	0x18e
 7587 16d1 11       		.byte	0x11
 7588 16d2 94090000 		.4byte	0x994
 7589 16d6 04       		.byte	0x4
 7590 16d7 18       		.uleb128 0x18
 7591 16d8 73313800 		.ascii	"s18\000"
 7592 16dc 04       		.byte	0x4
 7593 16dd 8F01     		.2byte	0x18f
 7594 16df 11       		.byte	0x11
 7595 16e0 94090000 		.4byte	0x994
 7596 16e4 08       		.byte	0x8
 7597 16e5 18       		.uleb128 0x18
 7598 16e6 73313900 		.ascii	"s19\000"
 7599 16ea 04       		.byte	0x4
 7600 16eb 9001     		.2byte	0x190
 7601 16ed 11       		.byte	0x11
 7602 16ee 94090000 		.4byte	0x994
 7603 16f2 0C       		.byte	0xc
 7604 16f3 18       		.uleb128 0x18
 7605 16f4 73323000 		.ascii	"s20\000"
 7606 16f8 04       		.byte	0x4
 7607 16f9 9101     		.2byte	0x191
 7608 16fb 11       		.byte	0x11
 7609 16fc 94090000 		.4byte	0x994
 7610 1700 10       		.byte	0x10
ARM GAS  /tmp/ccpnbTSa.s 			page 135


 7611 1701 18       		.uleb128 0x18
 7612 1702 73323100 		.ascii	"s21\000"
 7613 1706 04       		.byte	0x4
 7614 1707 9201     		.2byte	0x192
 7615 1709 11       		.byte	0x11
 7616 170a 94090000 		.4byte	0x994
 7617 170e 14       		.byte	0x14
 7618 170f 18       		.uleb128 0x18
 7619 1710 73323200 		.ascii	"s22\000"
 7620 1714 04       		.byte	0x4
 7621 1715 9301     		.2byte	0x193
 7622 1717 11       		.byte	0x11
 7623 1718 94090000 		.4byte	0x994
 7624 171c 18       		.byte	0x18
 7625 171d 18       		.uleb128 0x18
 7626 171e 73323300 		.ascii	"s23\000"
 7627 1722 04       		.byte	0x4
 7628 1723 9401     		.2byte	0x194
 7629 1725 11       		.byte	0x11
 7630 1726 94090000 		.4byte	0x994
 7631 172a 1C       		.byte	0x1c
 7632 172b 18       		.uleb128 0x18
 7633 172c 73323400 		.ascii	"s24\000"
 7634 1730 04       		.byte	0x4
 7635 1731 9501     		.2byte	0x195
 7636 1733 11       		.byte	0x11
 7637 1734 94090000 		.4byte	0x994
 7638 1738 20       		.byte	0x20
 7639 1739 18       		.uleb128 0x18
 7640 173a 73323500 		.ascii	"s25\000"
 7641 173e 04       		.byte	0x4
 7642 173f 9601     		.2byte	0x196
 7643 1741 11       		.byte	0x11
 7644 1742 94090000 		.4byte	0x994
 7645 1746 24       		.byte	0x24
 7646 1747 18       		.uleb128 0x18
 7647 1748 73323600 		.ascii	"s26\000"
 7648 174c 04       		.byte	0x4
 7649 174d 9701     		.2byte	0x197
 7650 174f 11       		.byte	0x11
 7651 1750 94090000 		.4byte	0x994
 7652 1754 28       		.byte	0x28
 7653 1755 18       		.uleb128 0x18
 7654 1756 73323700 		.ascii	"s27\000"
 7655 175a 04       		.byte	0x4
 7656 175b 9801     		.2byte	0x198
 7657 175d 11       		.byte	0x11
 7658 175e 94090000 		.4byte	0x994
 7659 1762 2C       		.byte	0x2c
 7660 1763 18       		.uleb128 0x18
 7661 1764 73323800 		.ascii	"s28\000"
 7662 1768 04       		.byte	0x4
 7663 1769 9901     		.2byte	0x199
 7664 176b 11       		.byte	0x11
 7665 176c 94090000 		.4byte	0x994
 7666 1770 30       		.byte	0x30
 7667 1771 18       		.uleb128 0x18
ARM GAS  /tmp/ccpnbTSa.s 			page 136


 7668 1772 73323900 		.ascii	"s29\000"
 7669 1776 04       		.byte	0x4
 7670 1777 9A01     		.2byte	0x19a
 7671 1779 11       		.byte	0x11
 7672 177a 94090000 		.4byte	0x994
 7673 177e 34       		.byte	0x34
 7674 177f 18       		.uleb128 0x18
 7675 1780 73333000 		.ascii	"s30\000"
 7676 1784 04       		.byte	0x4
 7677 1785 9B01     		.2byte	0x19b
 7678 1787 11       		.byte	0x11
 7679 1788 94090000 		.4byte	0x994
 7680 178c 38       		.byte	0x38
 7681 178d 18       		.uleb128 0x18
 7682 178e 73333100 		.ascii	"s31\000"
 7683 1792 04       		.byte	0x4
 7684 1793 9C01     		.2byte	0x19c
 7685 1795 11       		.byte	0x11
 7686 1796 94090000 		.4byte	0x994
 7687 179a 3C       		.byte	0x3c
 7688 179b 18       		.uleb128 0x18
 7689 179c 723400   		.ascii	"r4\000"
 7690 179f 04       		.byte	0x4
 7691 17a0 9E01     		.2byte	0x19e
 7692 17a2 11       		.byte	0x11
 7693 17a3 94090000 		.4byte	0x994
 7694 17a7 40       		.byte	0x40
 7695 17a8 18       		.uleb128 0x18
 7696 17a9 723500   		.ascii	"r5\000"
 7697 17ac 04       		.byte	0x4
 7698 17ad 9F01     		.2byte	0x19f
 7699 17af 11       		.byte	0x11
 7700 17b0 94090000 		.4byte	0x994
 7701 17b4 44       		.byte	0x44
 7702 17b5 18       		.uleb128 0x18
 7703 17b6 723600   		.ascii	"r6\000"
 7704 17b9 04       		.byte	0x4
 7705 17ba A001     		.2byte	0x1a0
 7706 17bc 11       		.byte	0x11
 7707 17bd 94090000 		.4byte	0x994
 7708 17c1 48       		.byte	0x48
 7709 17c2 18       		.uleb128 0x18
 7710 17c3 723700   		.ascii	"r7\000"
 7711 17c6 04       		.byte	0x4
 7712 17c7 A101     		.2byte	0x1a1
 7713 17c9 11       		.byte	0x11
 7714 17ca 94090000 		.4byte	0x994
 7715 17ce 4C       		.byte	0x4c
 7716 17cf 18       		.uleb128 0x18
 7717 17d0 723800   		.ascii	"r8\000"
 7718 17d3 04       		.byte	0x4
 7719 17d4 A201     		.2byte	0x1a2
 7720 17d6 11       		.byte	0x11
 7721 17d7 94090000 		.4byte	0x994
 7722 17db 50       		.byte	0x50
 7723 17dc 18       		.uleb128 0x18
 7724 17dd 723900   		.ascii	"r9\000"
ARM GAS  /tmp/ccpnbTSa.s 			page 137


 7725 17e0 04       		.byte	0x4
 7726 17e1 A301     		.2byte	0x1a3
 7727 17e3 11       		.byte	0x11
 7728 17e4 94090000 		.4byte	0x994
 7729 17e8 54       		.byte	0x54
 7730 17e9 18       		.uleb128 0x18
 7731 17ea 72313000 		.ascii	"r10\000"
 7732 17ee 04       		.byte	0x4
 7733 17ef A401     		.2byte	0x1a4
 7734 17f1 11       		.byte	0x11
 7735 17f2 94090000 		.4byte	0x994
 7736 17f6 58       		.byte	0x58
 7737 17f7 18       		.uleb128 0x18
 7738 17f8 72313100 		.ascii	"r11\000"
 7739 17fc 04       		.byte	0x4
 7740 17fd A501     		.2byte	0x1a5
 7741 17ff 11       		.byte	0x11
 7742 1800 94090000 		.4byte	0x994
 7743 1804 5C       		.byte	0x5c
 7744 1805 18       		.uleb128 0x18
 7745 1806 6C7200   		.ascii	"lr\000"
 7746 1809 04       		.byte	0x4
 7747 180a A601     		.2byte	0x1a6
 7748 180c 11       		.byte	0x11
 7749 180d 94090000 		.4byte	0x994
 7750 1811 60       		.byte	0x60
 7751 1812 00       		.byte	0
 7752 1813 16       		.uleb128 0x16
 7753 1814 6D0F0000 		.4byte	.LASF294
 7754 1818 04       		.byte	0x4
 7755 1819 04       		.byte	0x4
 7756 181a A901     		.2byte	0x1a9
 7757 181c 08       		.byte	0x8
 7758 181d 2F180000 		.4byte	0x182f
 7759 1821 18       		.uleb128 0x18
 7760 1822 737000   		.ascii	"sp\000"
 7761 1825 04       		.byte	0x4
 7762 1826 AA01     		.2byte	0x1aa
 7763 1828 1A       		.byte	0x1a
 7764 1829 2F180000 		.4byte	0x182f
 7765 182d 00       		.byte	0
 7766 182e 00       		.byte	0
 7767 182f 0E       		.uleb128 0xe
 7768 1830 04       		.byte	0x4
 7769 1831 AD160000 		.4byte	0x16ad
 7770 1835 0B       		.uleb128 0xb
 7771 1836 08       		.byte	0x8
 7772 1837 15       		.byte	0x15
 7773 1838 7F       		.byte	0x7f
 7774 1839 05       		.byte	0x5
 7775 183a 59180000 		.4byte	0x1859
 7776 183e 11       		.uleb128 0x11
 7777 183f 6E747000 		.ascii	"ntp\000"
 7778 1843 15       		.byte	0x15
 7779 1844 83       		.byte	0x83
 7780 1845 1E       		.byte	0x1e
 7781 1846 420B0000 		.4byte	0xb42
ARM GAS  /tmp/ccpnbTSa.s 			page 138


 7782 184a 00       		.byte	0
 7783 184b 0C       		.uleb128 0xc
 7784 184c 63190000 		.4byte	.LASF295
 7785 1850 15       		.byte	0x15
 7786 1851 87       		.byte	0x87
 7787 1852 1E       		.byte	0x1e
 7788 1853 46010000 		.4byte	0x146
 7789 1857 04       		.byte	0x4
 7790 1858 00       		.byte	0
 7791 1859 0B       		.uleb128 0xb
 7792 185a 04       		.byte	0x4
 7793 185b 15       		.byte	0x15
 7794 185c 8C       		.byte	0x8c
 7795 185d 05       		.byte	0x5
 7796 185e 70180000 		.4byte	0x1870
 7797 1862 0C       		.uleb128 0xc
 7798 1863 33110000 		.4byte	.LASF151
 7799 1867 15       		.byte	0x15
 7800 1868 90       		.byte	0x90
 7801 1869 1E       		.byte	0x1e
 7802 186a AF060000 		.4byte	0x6af
 7803 186e 00       		.byte	0
 7804 186f 00       		.byte	0
 7805 1870 0B       		.uleb128 0xb
 7806 1871 04       		.byte	0x4
 7807 1872 15       		.byte	0x15
 7808 1873 95       		.byte	0x95
 7809 1874 05       		.byte	0x5
 7810 1875 87180000 		.4byte	0x1887
 7811 1879 0C       		.uleb128 0xc
 7812 187a F0160000 		.4byte	.LASF296
 7813 187e 15       		.byte	0x15
 7814 187f 99       		.byte	0x99
 7815 1880 1E       		.byte	0x1e
 7816 1881 AF060000 		.4byte	0x6af
 7817 1885 00       		.byte	0
 7818 1886 00       		.byte	0
 7819 1887 0B       		.uleb128 0xb
 7820 1888 08       		.byte	0x8
 7821 1889 15       		.byte	0x15
 7822 188a 9E       		.byte	0x9e
 7823 188b 05       		.byte	0x5
 7824 188c AB180000 		.4byte	0x18ab
 7825 1890 11       		.uleb128 0x11
 7826 1891 75703100 		.ascii	"up1\000"
 7827 1895 15       		.byte	0x15
 7828 1896 A2       		.byte	0xa2
 7829 1897 1E       		.byte	0x1e
 7830 1898 46010000 		.4byte	0x146
 7831 189c 00       		.byte	0
 7832 189d 11       		.uleb128 0x11
 7833 189e 75703200 		.ascii	"up2\000"
 7834 18a2 15       		.byte	0x15
 7835 18a3 A6       		.byte	0xa6
 7836 18a4 1E       		.byte	0x1e
 7837 18a5 46010000 		.4byte	0x146
 7838 18a9 04       		.byte	0x4
ARM GAS  /tmp/ccpnbTSa.s 			page 139


 7839 18aa 00       		.byte	0
 7840 18ab 07       		.uleb128 0x7
 7841 18ac 08       		.byte	0x8
 7842 18ad 15       		.byte	0x15
 7843 18ae 7B       		.byte	0x7b
 7844 18af 03       		.byte	0x3
 7845 18b0 E4180000 		.4byte	0x18e4
 7846 18b4 23       		.uleb128 0x23
 7847 18b5 737700   		.ascii	"sw\000"
 7848 18b8 15       		.byte	0x15
 7849 18b9 88       		.byte	0x88
 7850 18ba 07       		.byte	0x7
 7851 18bb 35180000 		.4byte	0x1835
 7852 18bf 23       		.uleb128 0x23
 7853 18c0 69737200 		.ascii	"isr\000"
 7854 18c4 15       		.byte	0x15
 7855 18c5 91       		.byte	0x91
 7856 18c6 07       		.byte	0x7
 7857 18c7 59180000 		.4byte	0x1859
 7858 18cb 08       		.uleb128 0x8
 7859 18cc 40140000 		.4byte	.LASF297
 7860 18d0 15       		.byte	0x15
 7861 18d1 9A       		.byte	0x9a
 7862 18d2 07       		.byte	0x7
 7863 18d3 70180000 		.4byte	0x1870
 7864 18d7 08       		.uleb128 0x8
 7865 18d8 141F0000 		.4byte	.LASF298
 7866 18dc 15       		.byte	0x15
 7867 18dd A7       		.byte	0xa7
 7868 18de 07       		.byte	0x7
 7869 18df 87180000 		.4byte	0x1887
 7870 18e3 00       		.byte	0
 7871 18e4 0B       		.uleb128 0xb
 7872 18e5 10       		.byte	0x10
 7873 18e6 15       		.byte	0x15
 7874 18e7 68       		.byte	0x68
 7875 18e8 09       		.byte	0x9
 7876 18e9 36190000 		.4byte	0x1936
 7877 18ed 24       		.uleb128 0x24
 7878 18ee 2F070000 		.4byte	.LASF299
 7879 18f2 15       		.byte	0x15
 7880 18f3 6C       		.byte	0x6c
 7881 18f4 19       		.byte	0x19
 7882 18f5 94090000 		.4byte	0x994
 7883 18f9 04       		.byte	0x4
 7884 18fa 03       		.byte	0x3
 7885 18fb 1D       		.byte	0x1d
 7886 18fc 00       		.byte	0
 7887 18fd 24       		.uleb128 0x24
 7888 18fe CA130000 		.4byte	.LASF153
 7889 1902 15       		.byte	0x15
 7890 1903 70       		.byte	0x70
 7891 1904 19       		.byte	0x19
 7892 1905 94090000 		.4byte	0x994
 7893 1909 04       		.byte	0x4
 7894 190a 05       		.byte	0x5
 7895 190b 18       		.byte	0x18
ARM GAS  /tmp/ccpnbTSa.s 			page 140


 7896 190c 00       		.byte	0
 7897 190d 24       		.uleb128 0x24
 7898 190e 7C020000 		.4byte	.LASF300
 7899 1912 15       		.byte	0x15
 7900 1913 76       		.byte	0x76
 7901 1914 19       		.byte	0x19
 7902 1915 94090000 		.4byte	0x994
 7903 1919 04       		.byte	0x4
 7904 191a 18       		.byte	0x18
 7905 191b 00       		.byte	0
 7906 191c 00       		.byte	0
 7907 191d 0C       		.uleb128 0xc
 7908 191e D2140000 		.4byte	.LASF301
 7909 1922 15       		.byte	0x15
 7910 1923 7A       		.byte	0x7a
 7911 1924 19       		.byte	0x19
 7912 1925 7E0D0000 		.4byte	0xd7e
 7913 1929 04       		.byte	0x4
 7914 192a 11       		.uleb128 0x11
 7915 192b 7500     		.ascii	"u\000"
 7916 192d 15       		.byte	0x15
 7917 192e A8       		.byte	0xa8
 7918 192f 05       		.byte	0x5
 7919 1930 AB180000 		.4byte	0x18ab
 7920 1934 08       		.byte	0x8
 7921 1935 00       		.byte	0
 7922 1936 03       		.uleb128 0x3
 7923 1937 48020000 		.4byte	.LASF302
 7924 193b 15       		.byte	0x15
 7925 193c A9       		.byte	0xa9
 7926 193d 03       		.byte	0x3
 7927 193e E4180000 		.4byte	0x18e4
 7928 1942 25       		.uleb128 0x25
 7929 1943 0808     		.2byte	0x808
 7930 1945 15       		.byte	0x15
 7931 1946 AF       		.byte	0xaf
 7932 1947 09       		.byte	0x9
 7933 1948 81190000 		.4byte	0x1981
 7934 194c 0C       		.uleb128 0xc
 7935 194d 1E1D0000 		.4byte	.LASF303
 7936 1951 15       		.byte	0x15
 7937 1952 B3       		.byte	0xb3
 7938 1953 19       		.byte	0x19
 7939 1954 77090000 		.4byte	0x977
 7940 1958 00       		.byte	0
 7941 1959 0C       		.uleb128 0xc
 7942 195a 220B0000 		.4byte	.LASF304
 7943 195e 15       		.byte	0x15
 7944 195f B7       		.byte	0xb7
 7945 1960 19       		.byte	0x19
 7946 1961 77090000 		.4byte	0x977
 7947 1965 02       		.byte	0x2
 7948 1966 11       		.uleb128 0x11
 7949 1967 70747200 		.ascii	"ptr\000"
 7950 196b 15       		.byte	0x15
 7951 196c BB       		.byte	0xbb
 7952 196d 1A       		.byte	0x1a
ARM GAS  /tmp/ccpnbTSa.s 			page 141


 7953 196e 81190000 		.4byte	0x1981
 7954 1972 04       		.byte	0x4
 7955 1973 0C       		.uleb128 0xc
 7956 1974 30180000 		.4byte	.LASF305
 7957 1978 15       		.byte	0x15
 7958 1979 BF       		.byte	0xbf
 7959 197a 19       		.byte	0x19
 7960 197b 87190000 		.4byte	0x1987
 7961 197f 08       		.byte	0x8
 7962 1980 00       		.byte	0
 7963 1981 0E       		.uleb128 0xe
 7964 1982 04       		.byte	0x4
 7965 1983 36190000 		.4byte	0x1936
 7966 1987 09       		.uleb128 0x9
 7967 1988 36190000 		.4byte	0x1936
 7968 198c 97190000 		.4byte	0x1997
 7969 1990 0A       		.uleb128 0xa
 7970 1991 3D000000 		.4byte	0x3d
 7971 1995 7F       		.byte	0x7f
 7972 1996 00       		.byte	0
 7973 1997 03       		.uleb128 0x3
 7974 1998 31000000 		.4byte	.LASF306
 7975 199c 15       		.byte	0x15
 7976 199d C0       		.byte	0xc0
 7977 199e 03       		.byte	0x3
 7978 199f 42190000 		.4byte	0x1942
 7979 19a3 0B       		.uleb128 0xb
 7980 19a4 04       		.byte	0x4
 7981 19a5 16       		.byte	0x16
 7982 19a6 38       		.byte	0x38
 7983 19a7 09       		.byte	0x9
 7984 19a8 BA190000 		.4byte	0x19ba
 7985 19ac 0C       		.uleb128 0xc
 7986 19ad 2E1C0000 		.4byte	.LASF307
 7987 19b1 16       		.byte	0x16
 7988 19b2 3C       		.byte	0x3c
 7989 19b3 19       		.byte	0x19
 7990 19b4 C2090000 		.4byte	0x9c2
 7991 19b8 00       		.byte	0
 7992 19b9 00       		.byte	0
 7993 19ba 03       		.uleb128 0x3
 7994 19bb 78050000 		.4byte	.LASF308
 7995 19bf 16       		.byte	0x16
 7996 19c0 3D       		.byte	0x3d
 7997 19c1 03       		.byte	0x3
 7998 19c2 A3190000 		.4byte	0x19a3
 7999 19c6 07       		.uleb128 0x7
 8000 19c7 04       		.byte	0x4
 8001 19c8 0F       		.byte	0xf
 8002 19c9 C6       		.byte	0xc6
 8003 19ca 03       		.byte	0x3
 8004 19cb 311A0000 		.4byte	0x1a31
 8005 19cf 08       		.uleb128 0x8
 8006 19d0 490E0000 		.4byte	.LASF309
 8007 19d4 0F       		.byte	0xf
 8008 19d5 CD       		.byte	0xcd
 8009 19d6 19       		.byte	0x19
ARM GAS  /tmp/ccpnbTSa.s 			page 142


 8010 19d7 FE090000 		.4byte	0x9fe
 8011 19db 08       		.uleb128 0x8
 8012 19dc 530C0000 		.4byte	.LASF310
 8013 19e0 0F       		.byte	0xf
 8014 19e1 D4       		.byte	0xd4
 8015 19e2 19       		.byte	0x19
 8016 19e3 FE090000 		.4byte	0x9fe
 8017 19e7 08       		.uleb128 0x8
 8018 19e8 63190000 		.4byte	.LASF295
 8019 19ec 0F       		.byte	0xf
 8020 19ed DB       		.byte	0xdb
 8021 19ee 1A       		.byte	0x1a
 8022 19ef 46010000 		.4byte	0x146
 8023 19f3 08       		.uleb128 0x8
 8024 19f4 B7150000 		.4byte	.LASF311
 8025 19f8 0F       		.byte	0xf
 8026 19f9 E2       		.byte	0xe2
 8027 19fa 1A       		.byte	0x1a
 8028 19fb 311A0000 		.4byte	0x1a31
 8029 19ff 08       		.uleb128 0x8
 8030 1a00 1D000000 		.4byte	.LASF312
 8031 1a04 0F       		.byte	0xf
 8032 1a05 E7       		.byte	0xe7
 8033 1a06 19       		.byte	0x19
 8034 1a07 FE090000 		.4byte	0x9fe
 8035 1a0b 08       		.uleb128 0x8
 8036 1a0c 41010000 		.4byte	.LASF313
 8037 1a10 0F       		.byte	0xf
 8038 1a11 F0       		.byte	0xf0
 8039 1a12 1A       		.byte	0x1a
 8040 1a13 5F1A0000 		.4byte	0x1a5f
 8041 1a17 08       		.uleb128 0x8
 8042 1a18 B9190000 		.4byte	.LASF314
 8043 1a1c 0F       		.byte	0xf
 8044 1a1d F9       		.byte	0xf9
 8045 1a1e 1A       		.byte	0x1a
 8046 1a1f 9A1A0000 		.4byte	0x1a9a
 8047 1a23 26       		.uleb128 0x26
 8048 1a24 A71C0000 		.4byte	.LASF315
 8049 1a28 0F       		.byte	0xf
 8050 1a29 0101     		.2byte	0x101
 8051 1a2b 19       		.byte	0x19
 8052 1a2c 0A0A0000 		.4byte	0xa0a
 8053 1a30 00       		.byte	0
 8054 1a31 0E       		.uleb128 0xe
 8055 1a32 04       		.byte	0x4
 8056 1a33 360B0000 		.4byte	0xb36
 8057 1a37 10       		.uleb128 0x10
 8058 1a38 45140000 		.4byte	.LASF316
 8059 1a3c 0C       		.byte	0xc
 8060 1a3d 17       		.byte	0x17
 8061 1a3e 34       		.byte	0x34
 8062 1a3f 10       		.byte	0x10
 8063 1a40 5F1A0000 		.4byte	0x1a5f
 8064 1a44 0C       		.uleb128 0xc
 8065 1a45 ED1B0000 		.4byte	.LASF147
 8066 1a49 17       		.byte	0x17
ARM GAS  /tmp/ccpnbTSa.s 			page 143


 8067 1a4a 35       		.byte	0x35
 8068 1a4b 19       		.byte	0x19
 8069 1a4c 6F0B0000 		.4byte	0xb6f
 8070 1a50 00       		.byte	0
 8071 1a51 11       		.uleb128 0x11
 8072 1a52 636E7400 		.ascii	"cnt\000"
 8073 1a56 17       		.byte	0x17
 8074 1a57 37       		.byte	0x37
 8075 1a58 19       		.byte	0x19
 8076 1a59 220A0000 		.4byte	0xa22
 8077 1a5d 08       		.byte	0x8
 8078 1a5e 00       		.byte	0
 8079 1a5f 0E       		.uleb128 0xe
 8080 1a60 04       		.byte	0x4
 8081 1a61 371A0000 		.4byte	0x1a37
 8082 1a65 10       		.uleb128 0x10
 8083 1a66 4C0A0000 		.4byte	.LASF317
 8084 1a6a 10       		.byte	0x10
 8085 1a6b 18       		.byte	0x18
 8086 1a6c 39       		.byte	0x39
 8087 1a6d 08       		.byte	0x8
 8088 1a6e 9A1A0000 		.4byte	0x1a9a
 8089 1a72 0C       		.uleb128 0xc
 8090 1a73 ED1B0000 		.4byte	.LASF147
 8091 1a77 18       		.byte	0x18
 8092 1a78 3A       		.byte	0x3a
 8093 1a79 19       		.byte	0x19
 8094 1a7a 6F0B0000 		.4byte	0xb6f
 8095 1a7e 00       		.byte	0
 8096 1a7f 0C       		.uleb128 0xc
 8097 1a80 530B0000 		.4byte	.LASF318
 8098 1a84 18       		.byte	0x18
 8099 1a85 3C       		.byte	0x3c
 8100 1a86 1A       		.byte	0x1a
 8101 1a87 420B0000 		.4byte	0xb42
 8102 1a8b 08       		.byte	0x8
 8103 1a8c 0C       		.uleb128 0xc
 8104 1a8d 9C020000 		.4byte	.LASF165
 8105 1a91 18       		.byte	0x18
 8106 1a92 3E       		.byte	0x3e
 8107 1a93 1A       		.byte	0x1a
 8108 1a94 FD1B0000 		.4byte	0x1bfd
 8109 1a98 0C       		.byte	0xc
 8110 1a99 00       		.byte	0
 8111 1a9a 0E       		.uleb128 0xe
 8112 1a9b 04       		.byte	0x4
 8113 1a9c 651A0000 		.4byte	0x1a65
 8114 1aa0 0E       		.uleb128 0xe
 8115 1aa1 04       		.byte	0x4
 8116 1aa2 A1160000 		.4byte	0x16a1
 8117 1aa6 0E       		.uleb128 0xe
 8118 1aa7 04       		.byte	0x4
 8119 1aa8 2F0C0000 		.4byte	0xc2f
 8120 1aac 27       		.uleb128 0x27
 8121 1aad 636800   		.ascii	"ch\000"
 8122 1ab0 0F       		.byte	0xf
 8123 1ab1 C701     		.2byte	0x1c7
ARM GAS  /tmp/ccpnbTSa.s 			page 144


 8124 1ab3 14       		.byte	0x14
 8125 1ab4 1B0D0000 		.4byte	0xd1b
 8126 1ab8 09       		.uleb128 0x9
 8127 1ab9 A1160000 		.4byte	0x16a1
 8128 1abd C31A0000 		.4byte	0x1ac3
 8129 1ac1 28       		.uleb128 0x28
 8130 1ac2 00       		.byte	0
 8131 1ac3 1C       		.uleb128 0x1c
 8132 1ac4 270B0000 		.4byte	.LASF319
 8133 1ac8 03       		.byte	0x3
 8134 1ac9 1701     		.2byte	0x117
 8135 1acb 13       		.byte	0x13
 8136 1acc B81A0000 		.4byte	0x1ab8
 8137 1ad0 0B       		.uleb128 0xb
 8138 1ad1 16       		.byte	0x16
 8139 1ad2 19       		.byte	0x19
 8140 1ad3 34       		.byte	0x34
 8141 1ad4 09       		.byte	0x9
 8142 1ad5 C41B0000 		.4byte	0x1bc4
 8143 1ad9 0C       		.uleb128 0xc
 8144 1ada D10B0000 		.4byte	.LASF320
 8145 1ade 19       		.byte	0x19
 8146 1adf 35       		.byte	0x35
 8147 1ae0 0D       		.byte	0xd
 8148 1ae1 C41B0000 		.4byte	0x1bc4
 8149 1ae5 00       		.byte	0
 8150 1ae6 0C       		.uleb128 0xc
 8151 1ae7 E6060000 		.4byte	.LASF321
 8152 1aeb 19       		.byte	0x19
 8153 1aec 36       		.byte	0x36
 8154 1aed 0D       		.byte	0xd
 8155 1aee 66090000 		.4byte	0x966
 8156 1af2 04       		.byte	0x4
 8157 1af3 0C       		.uleb128 0xc
 8158 1af4 220B0000 		.4byte	.LASF304
 8159 1af8 19       		.byte	0x19
 8160 1af9 37       		.byte	0x37
 8161 1afa 0D       		.byte	0xd
 8162 1afb 66090000 		.4byte	0x966
 8163 1aff 05       		.byte	0x5
 8164 1b00 0C       		.uleb128 0xc
 8165 1b01 D9200000 		.4byte	.LASF322
 8166 1b05 19       		.byte	0x19
 8167 1b06 38       		.byte	0x38
 8168 1b07 0D       		.byte	0xd
 8169 1b08 77090000 		.4byte	0x977
 8170 1b0c 06       		.byte	0x6
 8171 1b0d 0C       		.uleb128 0xc
 8172 1b0e 6E0D0000 		.4byte	.LASF323
 8173 1b12 19       		.byte	0x19
 8174 1b13 39       		.byte	0x39
 8175 1b14 0D       		.byte	0xd
 8176 1b15 66090000 		.4byte	0x966
 8177 1b19 08       		.byte	0x8
 8178 1b1a 0C       		.uleb128 0xc
 8179 1b1b 4C040000 		.4byte	.LASF324
 8180 1b1f 19       		.byte	0x19
ARM GAS  /tmp/ccpnbTSa.s 			page 145


 8181 1b20 3A       		.byte	0x3a
 8182 1b21 0D       		.byte	0xd
 8183 1b22 66090000 		.4byte	0x966
 8184 1b26 09       		.byte	0x9
 8185 1b27 0C       		.uleb128 0xc
 8186 1b28 7A1C0000 		.4byte	.LASF325
 8187 1b2c 19       		.byte	0x19
 8188 1b2d 3B       		.byte	0x3b
 8189 1b2e 0D       		.byte	0xd
 8190 1b2f 66090000 		.4byte	0x966
 8191 1b33 0A       		.byte	0xa
 8192 1b34 0C       		.uleb128 0xc
 8193 1b35 B20E0000 		.4byte	.LASF326
 8194 1b39 19       		.byte	0x19
 8195 1b3a 3C       		.byte	0x3c
 8196 1b3b 0D       		.byte	0xd
 8197 1b3c 66090000 		.4byte	0x966
 8198 1b40 0B       		.byte	0xb
 8199 1b41 0C       		.uleb128 0xc
 8200 1b42 1D130000 		.4byte	.LASF327
 8201 1b46 19       		.byte	0x19
 8202 1b47 3D       		.byte	0x3d
 8203 1b48 0D       		.byte	0xd
 8204 1b49 66090000 		.4byte	0x966
 8205 1b4d 0C       		.byte	0xc
 8206 1b4e 0C       		.uleb128 0xc
 8207 1b4f CC1B0000 		.4byte	.LASF328
 8208 1b53 19       		.byte	0x19
 8209 1b54 3E       		.byte	0x3e
 8210 1b55 0D       		.byte	0xd
 8211 1b56 66090000 		.4byte	0x966
 8212 1b5a 0D       		.byte	0xd
 8213 1b5b 0C       		.uleb128 0xc
 8214 1b5c 17170000 		.4byte	.LASF329
 8215 1b60 19       		.byte	0x19
 8216 1b61 3F       		.byte	0x3f
 8217 1b62 0D       		.byte	0xd
 8218 1b63 66090000 		.4byte	0x966
 8219 1b67 0E       		.byte	0xe
 8220 1b68 0C       		.uleb128 0xc
 8221 1b69 871D0000 		.4byte	.LASF330
 8222 1b6d 19       		.byte	0x19
 8223 1b6e 40       		.byte	0x40
 8224 1b6f 0D       		.byte	0xd
 8225 1b70 66090000 		.4byte	0x966
 8226 1b74 0F       		.byte	0xf
 8227 1b75 0C       		.uleb128 0xc
 8228 1b76 28160000 		.4byte	.LASF331
 8229 1b7a 19       		.byte	0x19
 8230 1b7b 41       		.byte	0x41
 8231 1b7c 0D       		.byte	0xd
 8232 1b7d 66090000 		.4byte	0x966
 8233 1b81 10       		.byte	0x10
 8234 1b82 0C       		.uleb128 0xc
 8235 1b83 BB180000 		.4byte	.LASF332
 8236 1b87 19       		.byte	0x19
 8237 1b88 42       		.byte	0x42
ARM GAS  /tmp/ccpnbTSa.s 			page 146


 8238 1b89 0D       		.byte	0xd
 8239 1b8a 66090000 		.4byte	0x966
 8240 1b8e 11       		.byte	0x11
 8241 1b8f 0C       		.uleb128 0xc
 8242 1b90 6E140000 		.4byte	.LASF333
 8243 1b94 19       		.byte	0x19
 8244 1b95 43       		.byte	0x43
 8245 1b96 0D       		.byte	0xd
 8246 1b97 66090000 		.4byte	0x966
 8247 1b9b 12       		.byte	0x12
 8248 1b9c 0C       		.uleb128 0xc
 8249 1b9d 54130000 		.4byte	.LASF334
 8250 1ba1 19       		.byte	0x19
 8251 1ba2 44       		.byte	0x44
 8252 1ba3 0D       		.byte	0xd
 8253 1ba4 66090000 		.4byte	0x966
 8254 1ba8 13       		.byte	0x13
 8255 1ba9 0C       		.uleb128 0xc
 8256 1baa 86160000 		.4byte	.LASF335
 8257 1bae 19       		.byte	0x19
 8258 1baf 45       		.byte	0x45
 8259 1bb0 0D       		.byte	0xd
 8260 1bb1 66090000 		.4byte	0x966
 8261 1bb5 14       		.byte	0x14
 8262 1bb6 0C       		.uleb128 0xc
 8263 1bb7 01130000 		.4byte	.LASF336
 8264 1bbb 19       		.byte	0x19
 8265 1bbc 46       		.byte	0x46
 8266 1bbd 0D       		.byte	0xd
 8267 1bbe 66090000 		.4byte	0x966
 8268 1bc2 15       		.byte	0x15
 8269 1bc3 00       		.byte	0
 8270 1bc4 09       		.uleb128 0x9
 8271 1bc5 7F060000 		.4byte	0x67f
 8272 1bc9 D41B0000 		.4byte	0x1bd4
 8273 1bcd 0A       		.uleb128 0xa
 8274 1bce 3D000000 		.4byte	0x3d
 8275 1bd2 03       		.byte	0x3
 8276 1bd3 00       		.byte	0
 8277 1bd4 03       		.uleb128 0x3
 8278 1bd5 75110000 		.4byte	.LASF337
 8279 1bd9 19       		.byte	0x19
 8280 1bda 47       		.byte	0x47
 8281 1bdb 03       		.byte	0x3
 8282 1bdc D01A0000 		.4byte	0x1ad0
 8283 1be0 15       		.uleb128 0x15
 8284 1be1 D41B0000 		.4byte	0x1bd4
 8285 1be5 20       		.uleb128 0x20
 8286 1be6 C8090000 		.4byte	.LASF338
 8287 1bea 19       		.byte	0x19
 8288 1beb 6C       		.byte	0x6c
 8289 1bec 1D       		.byte	0x1d
 8290 1bed E01B0000 		.4byte	0x1be0
 8291 1bf1 03       		.uleb128 0x3
 8292 1bf2 E41A0000 		.4byte	.LASF339
 8293 1bf6 18       		.byte	0x18
 8294 1bf7 34       		.byte	0x34
ARM GAS  /tmp/ccpnbTSa.s 			page 147


 8295 1bf8 19       		.byte	0x19
 8296 1bf9 651A0000 		.4byte	0x1a65
 8297 1bfd 0E       		.uleb128 0xe
 8298 1bfe 04       		.byte	0x4
 8299 1bff F11B0000 		.4byte	0x1bf1
 8300 1c03 03       		.uleb128 0x3
 8301 1c04 FF090000 		.4byte	.LASF340
 8302 1c08 1A       		.byte	0x1a
 8303 1c09 34       		.byte	0x34
 8304 1c0a 1F       		.byte	0x1f
 8305 1c0b 0F1C0000 		.4byte	0x1c0f
 8306 1c0f 10       		.uleb128 0x10
 8307 1c10 42210000 		.4byte	.LASF341
 8308 1c14 14       		.byte	0x14
 8309 1c15 1A       		.byte	0x1a
 8310 1c16 39       		.byte	0x39
 8311 1c17 08       		.byte	0x8
 8312 1c18 5E1C0000 		.4byte	0x1c5e
 8313 1c1c 0C       		.uleb128 0xc
 8314 1c1d 9C020000 		.4byte	.LASF165
 8315 1c21 1A       		.byte	0x1a
 8316 1c22 3A       		.byte	0x3a
 8317 1c23 1A       		.byte	0x1a
 8318 1c24 5E1C0000 		.4byte	0x1c5e
 8319 1c28 00       		.byte	0
 8320 1c29 0C       		.uleb128 0xc
 8321 1c2a E70C0000 		.4byte	.LASF342
 8322 1c2e 1A       		.byte	0x1a
 8323 1c2f 3D       		.byte	0x3d
 8324 1c30 1A       		.byte	0x1a
 8325 1c31 420B0000 		.4byte	0xb42
 8326 1c35 04       		.byte	0x4
 8327 1c36 0C       		.uleb128 0xc
 8328 1c37 E7200000 		.4byte	.LASF343
 8329 1c3b 1A       		.byte	0x1a
 8330 1c3c 3F       		.byte	0x3f
 8331 1c3d 19       		.byte	0x19
 8332 1c3e 0A0A0000 		.4byte	0xa0a
 8333 1c42 08       		.byte	0x8
 8334 1c43 0C       		.uleb128 0xc
 8335 1c44 DB210000 		.4byte	.LASF154
 8336 1c48 1A       		.byte	0x1a
 8337 1c49 41       		.byte	0x41
 8338 1c4a 19       		.byte	0x19
 8339 1c4b 160A0000 		.4byte	0xa16
 8340 1c4f 0C       		.byte	0xc
 8341 1c50 0C       		.uleb128 0xc
 8342 1c51 551A0000 		.4byte	.LASF344
 8343 1c55 1A       		.byte	0x1a
 8344 1c56 43       		.byte	0x43
 8345 1c57 19       		.byte	0x19
 8346 1c58 160A0000 		.4byte	0xa16
 8347 1c5c 10       		.byte	0x10
 8348 1c5d 00       		.byte	0
 8349 1c5e 0E       		.uleb128 0xe
 8350 1c5f 04       		.byte	0x4
 8351 1c60 031C0000 		.4byte	0x1c03
ARM GAS  /tmp/ccpnbTSa.s 			page 148


 8352 1c64 10       		.uleb128 0x10
 8353 1c65 AE1C0000 		.4byte	.LASF345
 8354 1c69 04       		.byte	0x4
 8355 1c6a 1A       		.byte	0x1a
 8356 1c6b 4A       		.byte	0x4a
 8357 1c6c 10       		.byte	0x10
 8358 1c6d 7F1C0000 		.4byte	0x1c7f
 8359 1c71 0C       		.uleb128 0xc
 8360 1c72 9C020000 		.4byte	.LASF165
 8361 1c76 1A       		.byte	0x1a
 8362 1c77 4B       		.byte	0x4b
 8363 1c78 1A       		.byte	0x1a
 8364 1c79 5E1C0000 		.4byte	0x1c5e
 8365 1c7d 00       		.byte	0
 8366 1c7e 00       		.byte	0
 8367 1c7f 03       		.uleb128 0x3
 8368 1c80 0A120000 		.4byte	.LASF346
 8369 1c84 1A       		.byte	0x1a
 8370 1c85 4E       		.byte	0x4e
 8371 1c86 03       		.byte	0x3
 8372 1c87 641C0000 		.4byte	0x1c64
 8373 1c8b 05       		.uleb128 0x5
 8374 1c8c 01       		.byte	0x1
 8375 1c8d 02       		.byte	0x2
 8376 1c8e 48010000 		.4byte	.LASF347
 8377 1c92 03       		.uleb128 0x3
 8378 1c93 9C010000 		.4byte	.LASF348
 8379 1c97 1B       		.byte	0x1b
 8380 1c98 47       		.byte	0x47
 8381 1c99 11       		.byte	0x11
 8382 1c9a 9E1C0000 		.4byte	0x1c9e
 8383 1c9e 0E       		.uleb128 0xe
 8384 1c9f 04       		.byte	0x4
 8385 1ca0 A41C0000 		.4byte	0x1ca4
 8386 1ca4 19       		.uleb128 0x19
 8387 1ca5 46010000 		.4byte	0x146
 8388 1ca9 B81C0000 		.4byte	0x1cb8
 8389 1cad 1A       		.uleb128 0x1a
 8390 1cae 2C000000 		.4byte	0x2c
 8391 1cb2 1A       		.uleb128 0x1a
 8392 1cb3 3D000000 		.4byte	0x3d
 8393 1cb7 00       		.byte	0
 8394 1cb8 0B       		.uleb128 0xb
 8395 1cb9 08       		.byte	0x8
 8396 1cba 1B       		.byte	0x1b
 8397 1cbb 51       		.byte	0x51
 8398 1cbc 09       		.byte	0x9
 8399 1cbd DC1C0000 		.4byte	0x1cdc
 8400 1cc1 0C       		.uleb128 0xc
 8401 1cc2 E8160000 		.4byte	.LASF349
 8402 1cc6 1B       		.byte	0x1b
 8403 1cc7 55       		.byte	0x55
 8404 1cc8 0C       		.byte	0xc
 8405 1cc9 DC1C0000 		.4byte	0x1cdc
 8406 1ccd 00       		.byte	0
 8407 1cce 0C       		.uleb128 0xc
 8408 1ccf 4A090000 		.4byte	.LASF350
ARM GAS  /tmp/ccpnbTSa.s 			page 149


 8409 1cd3 1B       		.byte	0x1b
 8410 1cd4 59       		.byte	0x59
 8411 1cd5 0C       		.byte	0xc
 8412 1cd6 DC1C0000 		.4byte	0x1cdc
 8413 1cda 04       		.byte	0x4
 8414 1cdb 00       		.byte	0
 8415 1cdc 0E       		.uleb128 0xe
 8416 1cdd 04       		.byte	0x4
 8417 1cde 66090000 		.4byte	0x966
 8418 1ce2 03       		.uleb128 0x3
 8419 1ce3 0A0E0000 		.4byte	.LASF351
 8420 1ce7 1B       		.byte	0x1b
 8421 1ce8 5A       		.byte	0x5a
 8422 1ce9 03       		.byte	0x3
 8423 1cea B81C0000 		.4byte	0x1cb8
 8424 1cee 20       		.uleb128 0x20
 8425 1cef 12000000 		.4byte	.LASF352
 8426 1cf3 1B       		.byte	0x1b
 8427 1cf4 75       		.byte	0x75
 8428 1cf5 12       		.byte	0x12
 8429 1cf6 E21C0000 		.4byte	0x1ce2
 8430 1cfa 10       		.uleb128 0x10
 8431 1cfb 2A090000 		.4byte	.LASF353
 8432 1cff 04       		.byte	0x4
 8433 1d00 1C       		.byte	0x1c
 8434 1d01 38       		.byte	0x38
 8435 1d02 08       		.byte	0x8
 8436 1d03 151D0000 		.4byte	0x1d15
 8437 1d07 0C       		.uleb128 0xc
 8438 1d08 9C020000 		.4byte	.LASF165
 8439 1d0c 1C       		.byte	0x1c
 8440 1d0d 39       		.byte	0x39
 8441 1d0e 1A       		.byte	0x1a
 8442 1d0f 151D0000 		.4byte	0x1d15
 8443 1d13 00       		.byte	0
 8444 1d14 00       		.byte	0
 8445 1d15 0E       		.uleb128 0xe
 8446 1d16 04       		.byte	0x4
 8447 1d17 FA1C0000 		.4byte	0x1cfa
 8448 1d1b 0B       		.uleb128 0xb
 8449 1d1c 10       		.byte	0x10
 8450 1d1d 1C       		.byte	0x1c
 8451 1d1e 40       		.byte	0x40
 8452 1d1f 09       		.byte	0x9
 8453 1d20 591D0000 		.4byte	0x1d59
 8454 1d24 0C       		.uleb128 0xc
 8455 1d25 9C020000 		.4byte	.LASF165
 8456 1d29 1C       		.byte	0x1c
 8457 1d2a 41       		.byte	0x41
 8458 1d2b 1A       		.byte	0x1a
 8459 1d2c 151D0000 		.4byte	0x1d15
 8460 1d30 00       		.byte	0
 8461 1d31 0C       		.uleb128 0xc
 8462 1d32 180C0000 		.4byte	.LASF354
 8463 1d36 1C       		.byte	0x1c
 8464 1d37 42       		.byte	0x42
 8465 1d38 19       		.byte	0x19
ARM GAS  /tmp/ccpnbTSa.s 			page 150


 8466 1d39 2C000000 		.4byte	0x2c
 8467 1d3d 04       		.byte	0x4
 8468 1d3e 0C       		.uleb128 0xc
 8469 1d3f FF170000 		.4byte	.LASF355
 8470 1d43 1C       		.byte	0x1c
 8471 1d44 44       		.byte	0x44
 8472 1d45 19       		.byte	0x19
 8473 1d46 3D000000 		.4byte	0x3d
 8474 1d4a 08       		.byte	0x8
 8475 1d4b 0C       		.uleb128 0xc
 8476 1d4c 73010000 		.4byte	.LASF356
 8477 1d50 1C       		.byte	0x1c
 8478 1d51 45       		.byte	0x45
 8479 1d52 19       		.byte	0x19
 8480 1d53 921C0000 		.4byte	0x1c92
 8481 1d57 0C       		.byte	0xc
 8482 1d58 00       		.byte	0
 8483 1d59 03       		.uleb128 0x3
 8484 1d5a 69210000 		.4byte	.LASF357
 8485 1d5e 1C       		.byte	0x1c
 8486 1d5f 47       		.byte	0x47
 8487 1d60 03       		.byte	0x3
 8488 1d61 1B1D0000 		.4byte	0x1d1b
 8489 1d65 10       		.uleb128 0x10
 8490 1d66 A7020000 		.4byte	.LASF358
 8491 1d6a 10       		.byte	0x10
 8492 1d6b 1D       		.byte	0x1d
 8493 1d6c A9       		.byte	0xa9
 8494 1d6d 10       		.byte	0x10
 8495 1d6e 9A1D0000 		.4byte	0x1d9a
 8496 1d72 0C       		.uleb128 0xc
 8497 1d73 9C020000 		.4byte	.LASF165
 8498 1d77 1D       		.byte	0x1d
 8499 1d78 AD       		.byte	0xad
 8500 1d79 1A       		.byte	0x1a
 8501 1d7a 9A1D0000 		.4byte	0x1d9a
 8502 1d7e 00       		.byte	0
 8503 1d7f 0C       		.uleb128 0xc
 8504 1d80 FD040000 		.4byte	.LASF155
 8505 1d84 1D       		.byte	0x1d
 8506 1d85 B1       		.byte	0xb1
 8507 1d86 19       		.byte	0x19
 8508 1d87 2E0A0000 		.4byte	0xa2e
 8509 1d8b 04       		.byte	0x4
 8510 1d8c 0C       		.uleb128 0xc
 8511 1d8d 33110000 		.4byte	.LASF151
 8512 1d91 1D       		.byte	0x1d
 8513 1d92 B3       		.byte	0xb3
 8514 1d93 19       		.byte	0x19
 8515 1d94 BD080000 		.4byte	0x8bd
 8516 1d98 08       		.byte	0x8
 8517 1d99 00       		.byte	0
 8518 1d9a 0E       		.uleb128 0xe
 8519 1d9b 04       		.byte	0x4
 8520 1d9c 651D0000 		.4byte	0x1d65
 8521 1da0 03       		.uleb128 0x3
 8522 1da1 78140000 		.4byte	.LASF359
ARM GAS  /tmp/ccpnbTSa.s 			page 151


 8523 1da5 1D       		.byte	0x1d
 8524 1da6 B7       		.byte	0xb7
 8525 1da7 03       		.byte	0x3
 8526 1da8 651D0000 		.4byte	0x1d65
 8527 1dac 10       		.uleb128 0x10
 8528 1dad 95060000 		.4byte	.LASF360
 8529 1db1 04       		.byte	0x4
 8530 1db2 1D       		.byte	0x1d
 8531 1db3 BC       		.byte	0xbc
 8532 1db4 10       		.byte	0x10
 8533 1db5 C71D0000 		.4byte	0x1dc7
 8534 1db9 0C       		.uleb128 0xc
 8535 1dba 9C020000 		.4byte	.LASF165
 8536 1dbe 1D       		.byte	0x1d
 8537 1dbf BD       		.byte	0xbd
 8538 1dc0 1A       		.byte	0x1a
 8539 1dc1 C71D0000 		.4byte	0x1dc7
 8540 1dc5 00       		.byte	0
 8541 1dc6 00       		.byte	0
 8542 1dc7 0E       		.uleb128 0xe
 8543 1dc8 04       		.byte	0x4
 8544 1dc9 A01D0000 		.4byte	0x1da0
 8545 1dcd 03       		.uleb128 0x3
 8546 1dce CC0E0000 		.4byte	.LASF361
 8547 1dd2 1D       		.byte	0x1d
 8548 1dd3 BE       		.byte	0xbe
 8549 1dd4 03       		.byte	0x3
 8550 1dd5 AC1D0000 		.4byte	0x1dac
 8551 1dd9 16       		.uleb128 0x16
 8552 1dda 60020000 		.4byte	.LASF362
 8553 1dde 48       		.byte	0x48
 8554 1ddf 1D       		.byte	0x1d
 8555 1de0 2001     		.2byte	0x120
 8556 1de2 10       		.byte	0x10
 8557 1de3 661E0000 		.4byte	0x1e66
 8558 1de7 18       		.uleb128 0x18
 8559 1de8 6D747800 		.ascii	"mtx\000"
 8560 1dec 1D       		.byte	0x1d
 8561 1ded 2501     		.2byte	0x125
 8562 1def 19       		.byte	0x19
 8563 1df0 F11B0000 		.4byte	0x1bf1
 8564 1df4 00       		.byte	0
 8565 1df5 17       		.uleb128 0x17
 8566 1df6 D10A0000 		.4byte	.LASF363
 8567 1dfa 1D       		.byte	0x1d
 8568 1dfb 2C01     		.2byte	0x12c
 8569 1dfd 19       		.byte	0x19
 8570 1dfe CD1D0000 		.4byte	0x1dcd
 8571 1e02 10       		.byte	0x10
 8572 1e03 17       		.uleb128 0x17
 8573 1e04 90190000 		.4byte	.LASF364
 8574 1e08 1D       		.byte	0x1d
 8575 1e09 3001     		.2byte	0x130
 8576 1e0b 19       		.byte	0x19
 8577 1e0c 591D0000 		.4byte	0x1d59
 8578 1e10 14       		.byte	0x14
 8579 1e11 17       		.uleb128 0x17
ARM GAS  /tmp/ccpnbTSa.s 			page 152


 8580 1e12 01160000 		.4byte	.LASF365
 8581 1e16 1D       		.byte	0x1d
 8582 1e17 3501     		.2byte	0x135
 8583 1e19 19       		.byte	0x19
 8584 1e1a CD1D0000 		.4byte	0x1dcd
 8585 1e1e 24       		.byte	0x24
 8586 1e1f 17       		.uleb128 0x17
 8587 1e20 751D0000 		.4byte	.LASF366
 8588 1e24 1D       		.byte	0x1d
 8589 1e25 3B01     		.2byte	0x13b
 8590 1e27 19       		.byte	0x19
 8591 1e28 CD1D0000 		.4byte	0x1dcd
 8592 1e2c 28       		.byte	0x28
 8593 1e2d 17       		.uleb128 0x17
 8594 1e2e EC0A0000 		.4byte	.LASF367
 8595 1e32 1D       		.byte	0x1d
 8596 1e33 3F01     		.2byte	0x13f
 8597 1e35 19       		.byte	0x19
 8598 1e36 591D0000 		.4byte	0x1d59
 8599 1e3a 2C       		.byte	0x2c
 8600 1e3b 17       		.uleb128 0x17
 8601 1e3c 7E1D0000 		.4byte	.LASF368
 8602 1e40 1D       		.byte	0x1d
 8603 1e41 4501     		.2byte	0x145
 8604 1e43 19       		.byte	0x19
 8605 1e44 CD1D0000 		.4byte	0x1dcd
 8606 1e48 3C       		.byte	0x3c
 8607 1e49 17       		.uleb128 0x17
 8608 1e4a 9B0C0000 		.4byte	.LASF369
 8609 1e4e 1D       		.byte	0x1d
 8610 1e4f 4B01     		.2byte	0x14b
 8611 1e51 19       		.byte	0x19
 8612 1e52 CD1D0000 		.4byte	0x1dcd
 8613 1e56 40       		.byte	0x40
 8614 1e57 17       		.uleb128 0x17
 8615 1e58 6F0E0000 		.4byte	.LASF370
 8616 1e5c 1D       		.byte	0x1d
 8617 1e5d 5101     		.2byte	0x151
 8618 1e5f 19       		.byte	0x19
 8619 1e60 CD1D0000 		.4byte	0x1dcd
 8620 1e64 44       		.byte	0x44
 8621 1e65 00       		.byte	0
 8622 1e66 06       		.uleb128 0x6
 8623 1e67 7C010000 		.4byte	.LASF371
 8624 1e6b 1D       		.byte	0x1d
 8625 1e6c 5301     		.2byte	0x153
 8626 1e6e 03       		.byte	0x3
 8627 1e6f D91D0000 		.4byte	0x1dd9
 8628 1e73 1C       		.uleb128 0x1c
 8629 1e74 99190000 		.4byte	.LASF372
 8630 1e78 1D       		.byte	0x1d
 8631 1e79 5E01     		.2byte	0x15e
 8632 1e7b 1A       		.byte	0x1a
 8633 1e7c 661E0000 		.4byte	0x1e66
 8634 1e80 21       		.uleb128 0x21
 8635 1e81 10       		.byte	0x10
 8636 1e82 1E       		.byte	0x1e
ARM GAS  /tmp/ccpnbTSa.s 			page 153


 8637 1e83 A201     		.2byte	0x1a2
 8638 1e85 09       		.byte	0x9
 8639 1e86 DF1E0000 		.4byte	0x1edf
 8640 1e8a 17       		.uleb128 0x17
 8641 1e8b 22210000 		.4byte	.LASF373
 8642 1e8f 1E       		.byte	0x1e
 8643 1e90 A301     		.2byte	0x1a3
 8644 1e92 1A       		.byte	0x1a
 8645 1e93 DF1E0000 		.4byte	0x1edf
 8646 1e97 00       		.byte	0
 8647 1e98 17       		.uleb128 0x17
 8648 1e99 1E0E0000 		.4byte	.LASF374
 8649 1e9d 1E       		.byte	0x1e
 8650 1e9e A401     		.2byte	0x1a4
 8651 1ea0 1A       		.byte	0x1a
 8652 1ea1 E51E0000 		.4byte	0x1ee5
 8653 1ea5 04       		.byte	0x4
 8654 1ea6 18       		.uleb128 0x18
 8655 1ea7 6D757800 		.ascii	"mux\000"
 8656 1eab 1E       		.byte	0x1e
 8657 1eac A601     		.2byte	0x1a6
 8658 1eae 1B       		.byte	0x1b
 8659 1eaf EB1E0000 		.4byte	0x1eeb
 8660 1eb3 08       		.byte	0x8
 8661 1eb4 17       		.uleb128 0x17
 8662 1eb5 0E0B0000 		.4byte	.LASF375
 8663 1eb9 1E       		.byte	0x1e
 8664 1eba AA01     		.2byte	0x1aa
 8665 1ebc 19       		.byte	0x19
 8666 1ebd 66090000 		.4byte	0x966
 8667 1ec1 0C       		.byte	0xc
 8668 1ec2 17       		.uleb128 0x17
 8669 1ec3 DA1A0000 		.4byte	.LASF376
 8670 1ec7 1E       		.byte	0x1e
 8671 1ec8 AC01     		.2byte	0x1ac
 8672 1eca 19       		.byte	0x19
 8673 1ecb 66090000 		.4byte	0x966
 8674 1ecf 0D       		.byte	0xd
 8675 1ed0 17       		.uleb128 0x17
 8676 1ed1 E9030000 		.4byte	.LASF377
 8677 1ed5 1E       		.byte	0x1e
 8678 1ed6 AD01     		.2byte	0x1ad
 8679 1ed8 19       		.byte	0x19
 8680 1ed9 66090000 		.4byte	0x966
 8681 1edd 0E       		.byte	0xe
 8682 1ede 00       		.byte	0
 8683 1edf 0E       		.uleb128 0xe
 8684 1ee0 04       		.byte	0x4
 8685 1ee1 56110000 		.4byte	0x1156
 8686 1ee5 0E       		.uleb128 0xe
 8687 1ee6 04       		.byte	0x4
 8688 1ee7 A0090000 		.4byte	0x9a0
 8689 1eeb 0E       		.uleb128 0xe
 8690 1eec 04       		.byte	0x4
 8691 1eed 0E120000 		.4byte	0x120e
 8692 1ef1 06       		.uleb128 0x6
 8693 1ef2 73100000 		.4byte	.LASF378
ARM GAS  /tmp/ccpnbTSa.s 			page 154


 8694 1ef6 1E       		.byte	0x1e
 8695 1ef7 AE01     		.2byte	0x1ae
 8696 1ef9 03       		.byte	0x3
 8697 1efa 801E0000 		.4byte	0x1e80
 8698 1efe 15       		.uleb128 0x15
 8699 1eff F11E0000 		.4byte	0x1ef1
 8700 1f03 09       		.uleb128 0x9
 8701 1f04 FE1E0000 		.4byte	0x1efe
 8702 1f08 131F0000 		.4byte	0x1f13
 8703 1f0c 0A       		.uleb128 0xa
 8704 1f0d 3D000000 		.4byte	0x3d
 8705 1f11 0F       		.byte	0xf
 8706 1f12 00       		.byte	0
 8707 1f13 15       		.uleb128 0x15
 8708 1f14 031F0000 		.4byte	0x1f03
 8709 1f18 1C       		.uleb128 0x1c
 8710 1f19 1D180000 		.4byte	.LASF379
 8711 1f1d 1E       		.byte	0x1e
 8712 1f1e 9002     		.2byte	0x290
 8713 1f20 21       		.byte	0x21
 8714 1f21 131F0000 		.4byte	0x1f13
 8715 1f25 0B       		.uleb128 0xb
 8716 1f26 14       		.byte	0x14
 8717 1f27 1F       		.byte	0x1f
 8718 1f28 E7       		.byte	0xe7
 8719 1f29 09       		.byte	0x9
 8720 1f2a 7D1F0000 		.4byte	0x1f7d
 8721 1f2e 0C       		.uleb128 0xc
 8722 1f2f DC0F0000 		.4byte	.LASF380
 8723 1f33 1F       		.byte	0x1f
 8724 1f34 E8       		.byte	0xe8
 8725 1f35 1E       		.byte	0x1e
 8726 1f36 7D1F0000 		.4byte	0x1f7d
 8727 1f3a 00       		.byte	0
 8728 1f3b 0C       		.uleb128 0xc
 8729 1f3c AE0F0000 		.4byte	.LASF381
 8730 1f40 1F       		.byte	0x1f
 8731 1f41 E9       		.byte	0xe9
 8732 1f42 1E       		.byte	0x1e
 8733 1f43 831F0000 		.4byte	0x1f83
 8734 1f47 04       		.byte	0x4
 8735 1f48 0C       		.uleb128 0xc
 8736 1f49 0E0B0000 		.4byte	.LASF375
 8737 1f4d 1F       		.byte	0x1f
 8738 1f4e EA       		.byte	0xea
 8739 1f4f 1D       		.byte	0x1d
 8740 1f50 66090000 		.4byte	0x966
 8741 1f54 08       		.byte	0x8
 8742 1f55 11       		.uleb128 0x11
 8743 1f56 6D757800 		.ascii	"mux\000"
 8744 1f5a 1F       		.byte	0x1f
 8745 1f5b EC       		.byte	0xec
 8746 1f5c 1E       		.byte	0x1e
 8747 1f5d EB1E0000 		.4byte	0x1eeb
 8748 1f61 0C       		.byte	0xc
 8749 1f62 0C       		.uleb128 0xc
 8750 1f63 DA1A0000 		.4byte	.LASF376
ARM GAS  /tmp/ccpnbTSa.s 			page 155


 8751 1f67 1F       		.byte	0x1f
 8752 1f68 ED       		.byte	0xed
 8753 1f69 1D       		.byte	0x1d
 8754 1f6a 66090000 		.4byte	0x966
 8755 1f6e 10       		.byte	0x10
 8756 1f6f 0C       		.uleb128 0xc
 8757 1f70 E9030000 		.4byte	.LASF377
 8758 1f74 1F       		.byte	0x1f
 8759 1f75 EE       		.byte	0xee
 8760 1f76 1D       		.byte	0x1d
 8761 1f77 66090000 		.4byte	0x966
 8762 1f7b 11       		.byte	0x11
 8763 1f7c 00       		.byte	0
 8764 1f7d 0E       		.uleb128 0xe
 8765 1f7e 04       		.byte	0x4
 8766 1f7f E8110000 		.4byte	0x11e8
 8767 1f83 0E       		.uleb128 0xe
 8768 1f84 04       		.byte	0x4
 8769 1f85 B4110000 		.4byte	0x11b4
 8770 1f89 03       		.uleb128 0x3
 8771 1f8a 5C160000 		.4byte	.LASF382
 8772 1f8e 1F       		.byte	0x1f
 8773 1f8f EF       		.byte	0xef
 8774 1f90 03       		.byte	0x3
 8775 1f91 251F0000 		.4byte	0x1f25
 8776 1f95 15       		.uleb128 0x15
 8777 1f96 891F0000 		.4byte	0x1f89
 8778 1f9a 09       		.uleb128 0x9
 8779 1f9b 951F0000 		.4byte	0x1f95
 8780 1f9f AA1F0000 		.4byte	0x1faa
 8781 1fa3 0A       		.uleb128 0xa
 8782 1fa4 3D000000 		.4byte	0x3d
 8783 1fa8 07       		.byte	0x7
 8784 1fa9 00       		.byte	0
 8785 1faa 15       		.uleb128 0x15
 8786 1fab 9A1F0000 		.4byte	0x1f9a
 8787 1faf 1C       		.uleb128 0x1c
 8788 1fb0 8B170000 		.4byte	.LASF383
 8789 1fb4 1F       		.byte	0x1f
 8790 1fb5 A101     		.2byte	0x1a1
 8791 1fb7 22       		.byte	0x22
 8792 1fb8 AA1F0000 		.4byte	0x1faa
 8793 1fbc 21       		.uleb128 0x21
 8794 1fbd 60       		.byte	0x60
 8795 1fbe 20       		.byte	0x20
 8796 1fbf F601     		.2byte	0x1f6
 8797 1fc1 09       		.byte	0x9
 8798 1fc2 DD200000 		.4byte	0x20dd
 8799 1fc6 18       		.uleb128 0x18
 8800 1fc7 43523100 		.ascii	"CR1\000"
 8801 1fcb 20       		.byte	0x20
 8802 1fcc F701     		.2byte	0x1f7
 8803 1fce 19       		.byte	0x19
 8804 1fcf A0090000 		.4byte	0x9a0
 8805 1fd3 00       		.byte	0
 8806 1fd4 18       		.uleb128 0x18
 8807 1fd5 43523200 		.ascii	"CR2\000"
ARM GAS  /tmp/ccpnbTSa.s 			page 156


 8808 1fd9 20       		.byte	0x20
 8809 1fda F801     		.2byte	0x1f8
 8810 1fdc 19       		.byte	0x19
 8811 1fdd A0090000 		.4byte	0x9a0
 8812 1fe1 04       		.byte	0x4
 8813 1fe2 17       		.uleb128 0x17
 8814 1fe3 751C0000 		.4byte	.LASF384
 8815 1fe7 20       		.byte	0x20
 8816 1fe8 F901     		.2byte	0x1f9
 8817 1fea 19       		.byte	0x19
 8818 1feb A0090000 		.4byte	0x9a0
 8819 1fef 08       		.byte	0x8
 8820 1ff0 17       		.uleb128 0x17
 8821 1ff1 45090000 		.4byte	.LASF385
 8822 1ff5 20       		.byte	0x20
 8823 1ff6 FA01     		.2byte	0x1fa
 8824 1ff8 19       		.byte	0x19
 8825 1ff9 A0090000 		.4byte	0x9a0
 8826 1ffd 0C       		.byte	0xc
 8827 1ffe 18       		.uleb128 0x18
 8828 1fff 535200   		.ascii	"SR\000"
 8829 2002 20       		.byte	0x20
 8830 2003 FB01     		.2byte	0x1fb
 8831 2005 19       		.byte	0x19
 8832 2006 A0090000 		.4byte	0x9a0
 8833 200a 10       		.byte	0x10
 8834 200b 18       		.uleb128 0x18
 8835 200c 45475200 		.ascii	"EGR\000"
 8836 2010 20       		.byte	0x20
 8837 2011 FC01     		.2byte	0x1fc
 8838 2013 19       		.byte	0x19
 8839 2014 A0090000 		.4byte	0x9a0
 8840 2018 14       		.byte	0x14
 8841 2019 17       		.uleb128 0x17
 8842 201a EE200000 		.4byte	.LASF386
 8843 201e 20       		.byte	0x20
 8844 201f FD01     		.2byte	0x1fd
 8845 2021 19       		.byte	0x19
 8846 2022 A0090000 		.4byte	0x9a0
 8847 2026 18       		.byte	0x18
 8848 2027 17       		.uleb128 0x17
 8849 2028 F4200000 		.4byte	.LASF387
 8850 202c 20       		.byte	0x20
 8851 202d FE01     		.2byte	0x1fe
 8852 202f 19       		.byte	0x19
 8853 2030 A0090000 		.4byte	0x9a0
 8854 2034 1C       		.byte	0x1c
 8855 2035 17       		.uleb128 0x17
 8856 2036 1F070000 		.4byte	.LASF388
 8857 203a 20       		.byte	0x20
 8858 203b FF01     		.2byte	0x1ff
 8859 203d 19       		.byte	0x19
 8860 203e A0090000 		.4byte	0x9a0
 8861 2042 20       		.byte	0x20
 8862 2043 18       		.uleb128 0x18
 8863 2044 434E5400 		.ascii	"CNT\000"
 8864 2048 20       		.byte	0x20
ARM GAS  /tmp/ccpnbTSa.s 			page 157


 8865 2049 0002     		.2byte	0x200
 8866 204b 19       		.byte	0x19
 8867 204c A0090000 		.4byte	0x9a0
 8868 2050 24       		.byte	0x24
 8869 2051 18       		.uleb128 0x18
 8870 2052 50534300 		.ascii	"PSC\000"
 8871 2056 20       		.byte	0x20
 8872 2057 0102     		.2byte	0x201
 8873 2059 19       		.byte	0x19
 8874 205a A0090000 		.4byte	0x9a0
 8875 205e 28       		.byte	0x28
 8876 205f 18       		.uleb128 0x18
 8877 2060 41525200 		.ascii	"ARR\000"
 8878 2064 20       		.byte	0x20
 8879 2065 0202     		.2byte	0x202
 8880 2067 19       		.byte	0x19
 8881 2068 A0090000 		.4byte	0x9a0
 8882 206c 2C       		.byte	0x2c
 8883 206d 18       		.uleb128 0x18
 8884 206e 52435200 		.ascii	"RCR\000"
 8885 2072 20       		.byte	0x20
 8886 2073 0302     		.2byte	0x203
 8887 2075 19       		.byte	0x19
 8888 2076 A0090000 		.4byte	0x9a0
 8889 207a 30       		.byte	0x30
 8890 207b 18       		.uleb128 0x18
 8891 207c 43435200 		.ascii	"CCR\000"
 8892 2080 20       		.byte	0x20
 8893 2081 0402     		.2byte	0x204
 8894 2083 19       		.byte	0x19
 8895 2084 DE100000 		.4byte	0x10de
 8896 2088 34       		.byte	0x34
 8897 2089 17       		.uleb128 0x17
 8898 208a 30020000 		.4byte	.LASF389
 8899 208e 20       		.byte	0x20
 8900 208f 0502     		.2byte	0x205
 8901 2091 19       		.byte	0x19
 8902 2092 A0090000 		.4byte	0x9a0
 8903 2096 44       		.byte	0x44
 8904 2097 18       		.uleb128 0x18
 8905 2098 44435200 		.ascii	"DCR\000"
 8906 209c 20       		.byte	0x20
 8907 209d 0602     		.2byte	0x206
 8908 209f 19       		.byte	0x19
 8909 20a0 A0090000 		.4byte	0x9a0
 8910 20a4 48       		.byte	0x48
 8911 20a5 17       		.uleb128 0x17
 8912 20a6 F8130000 		.4byte	.LASF390
 8913 20aa 20       		.byte	0x20
 8914 20ab 0702     		.2byte	0x207
 8915 20ad 19       		.byte	0x19
 8916 20ae A0090000 		.4byte	0x9a0
 8917 20b2 4C       		.byte	0x4c
 8918 20b3 18       		.uleb128 0x18
 8919 20b4 4F5200   		.ascii	"OR\000"
 8920 20b7 20       		.byte	0x20
 8921 20b8 0802     		.2byte	0x208
ARM GAS  /tmp/ccpnbTSa.s 			page 158


 8922 20ba 19       		.byte	0x19
 8923 20bb A0090000 		.4byte	0x9a0
 8924 20bf 50       		.byte	0x50
 8925 20c0 17       		.uleb128 0x17
 8926 20c1 FA200000 		.4byte	.LASF391
 8927 20c5 20       		.byte	0x20
 8928 20c6 0902     		.2byte	0x209
 8929 20c8 19       		.byte	0x19
 8930 20c9 A0090000 		.4byte	0x9a0
 8931 20cd 54       		.byte	0x54
 8932 20ce 17       		.uleb128 0x17
 8933 20cf 590B0000 		.4byte	.LASF392
 8934 20d3 20       		.byte	0x20
 8935 20d4 0A02     		.2byte	0x20a
 8936 20d6 19       		.byte	0x19
 8937 20d7 F3100000 		.4byte	0x10f3
 8938 20db 58       		.byte	0x58
 8939 20dc 00       		.byte	0
 8940 20dd 06       		.uleb128 0x6
 8941 20de C9080000 		.4byte	.LASF393
 8942 20e2 20       		.byte	0x20
 8943 20e3 0B02     		.2byte	0x20b
 8944 20e5 03       		.byte	0x3
 8945 20e6 BC1F0000 		.4byte	0x1fbc
 8946 20ea 19       		.uleb128 0x19
 8947 20eb 2C000000 		.4byte	0x2c
 8948 20ef 03210000 		.4byte	0x2103
 8949 20f3 1A       		.uleb128 0x1a
 8950 20f4 46010000 		.4byte	0x146
 8951 20f8 1A       		.uleb128 0x1a
 8952 20f9 03210000 		.4byte	0x2103
 8953 20fd 1A       		.uleb128 0x1a
 8954 20fe 2C000000 		.4byte	0x2c
 8955 2102 00       		.byte	0
 8956 2103 0E       		.uleb128 0xe
 8957 2104 04       		.byte	0x4
 8958 2105 72090000 		.4byte	0x972
 8959 2109 0E       		.uleb128 0xe
 8960 210a 04       		.byte	0x4
 8961 210b EA200000 		.4byte	0x20ea
 8962 210f 19       		.uleb128 0x19
 8963 2110 2C000000 		.4byte	0x2c
 8964 2114 28210000 		.4byte	0x2128
 8965 2118 1A       		.uleb128 0x1a
 8966 2119 46010000 		.4byte	0x146
 8967 211d 1A       		.uleb128 0x1a
 8968 211e DC1C0000 		.4byte	0x1cdc
 8969 2122 1A       		.uleb128 0x1a
 8970 2123 2C000000 		.4byte	0x2c
 8971 2127 00       		.byte	0
 8972 2128 0E       		.uleb128 0xe
 8973 2129 04       		.byte	0x4
 8974 212a 0F210000 		.4byte	0x210f
 8975 212e 19       		.uleb128 0x19
 8976 212f FE090000 		.4byte	0x9fe
 8977 2133 42210000 		.4byte	0x2142
 8978 2137 1A       		.uleb128 0x1a
ARM GAS  /tmp/ccpnbTSa.s 			page 159


 8979 2138 46010000 		.4byte	0x146
 8980 213c 1A       		.uleb128 0x1a
 8981 213d 66090000 		.4byte	0x966
 8982 2141 00       		.byte	0
 8983 2142 0E       		.uleb128 0xe
 8984 2143 04       		.byte	0x4
 8985 2144 2E210000 		.4byte	0x212e
 8986 2148 19       		.uleb128 0x19
 8987 2149 FE090000 		.4byte	0x9fe
 8988 214d 57210000 		.4byte	0x2157
 8989 2151 1A       		.uleb128 0x1a
 8990 2152 46010000 		.4byte	0x146
 8991 2156 00       		.byte	0
 8992 2157 0E       		.uleb128 0xe
 8993 2158 04       		.byte	0x4
 8994 2159 48210000 		.4byte	0x2148
 8995 215d 19       		.uleb128 0x19
 8996 215e FE090000 		.4byte	0x9fe
 8997 2162 76210000 		.4byte	0x2176
 8998 2166 1A       		.uleb128 0x1a
 8999 2167 46010000 		.4byte	0x146
 9000 216b 1A       		.uleb128 0x1a
 9001 216c 66090000 		.4byte	0x966
 9002 2170 1A       		.uleb128 0x1a
 9003 2171 8A0D0000 		.4byte	0xd8a
 9004 2175 00       		.byte	0
 9005 2176 0E       		.uleb128 0xe
 9006 2177 04       		.byte	0x4
 9007 2178 5D210000 		.4byte	0x215d
 9008 217c 19       		.uleb128 0x19
 9009 217d FE090000 		.4byte	0x9fe
 9010 2181 90210000 		.4byte	0x2190
 9011 2185 1A       		.uleb128 0x1a
 9012 2186 46010000 		.4byte	0x146
 9013 218a 1A       		.uleb128 0x1a
 9014 218b 8A0D0000 		.4byte	0xd8a
 9015 218f 00       		.byte	0
 9016 2190 0E       		.uleb128 0xe
 9017 2191 04       		.byte	0x4
 9018 2192 7C210000 		.4byte	0x217c
 9019 2196 19       		.uleb128 0x19
 9020 2197 2C000000 		.4byte	0x2c
 9021 219b B4210000 		.4byte	0x21b4
 9022 219f 1A       		.uleb128 0x1a
 9023 21a0 46010000 		.4byte	0x146
 9024 21a4 1A       		.uleb128 0x1a
 9025 21a5 03210000 		.4byte	0x2103
 9026 21a9 1A       		.uleb128 0x1a
 9027 21aa 2C000000 		.4byte	0x2c
 9028 21ae 1A       		.uleb128 0x1a
 9029 21af 8A0D0000 		.4byte	0xd8a
 9030 21b3 00       		.byte	0
 9031 21b4 0E       		.uleb128 0xe
 9032 21b5 04       		.byte	0x4
 9033 21b6 96210000 		.4byte	0x2196
 9034 21ba 19       		.uleb128 0x19
 9035 21bb 2C000000 		.4byte	0x2c
ARM GAS  /tmp/ccpnbTSa.s 			page 160


 9036 21bf D8210000 		.4byte	0x21d8
 9037 21c3 1A       		.uleb128 0x1a
 9038 21c4 46010000 		.4byte	0x146
 9039 21c8 1A       		.uleb128 0x1a
 9040 21c9 DC1C0000 		.4byte	0x1cdc
 9041 21cd 1A       		.uleb128 0x1a
 9042 21ce 2C000000 		.4byte	0x2c
 9043 21d2 1A       		.uleb128 0x1a
 9044 21d3 8A0D0000 		.4byte	0xd8a
 9045 21d7 00       		.byte	0
 9046 21d8 0E       		.uleb128 0xe
 9047 21d9 04       		.byte	0x4
 9048 21da BA210000 		.4byte	0x21ba
 9049 21de 19       		.uleb128 0x19
 9050 21df FE090000 		.4byte	0x9fe
 9051 21e3 F7210000 		.4byte	0x21f7
 9052 21e7 1A       		.uleb128 0x1a
 9053 21e8 46010000 		.4byte	0x146
 9054 21ec 1A       		.uleb128 0x1a
 9055 21ed 3D000000 		.4byte	0x3d
 9056 21f1 1A       		.uleb128 0x1a
 9057 21f2 46010000 		.4byte	0x146
 9058 21f6 00       		.byte	0
 9059 21f7 0E       		.uleb128 0xe
 9060 21f8 04       		.byte	0x4
 9061 21f9 DE210000 		.4byte	0x21de
 9062 21fd 29       		.uleb128 0x29
 9063 21fe 07       		.byte	0x7
 9064 21ff 01       		.byte	0x1
 9065 2200 72000000 		.4byte	0x72
 9066 2204 21       		.byte	0x21
 9067 2205 28       		.byte	0x28
 9068 2206 0E       		.byte	0xe
 9069 2207 42220000 		.4byte	0x2242
 9070 220b 2A       		.uleb128 0x2a
 9071 220c 63140000 		.4byte	.LASF394
 9072 2210 00       		.byte	0
 9073 2211 2A       		.uleb128 0x2a
 9074 2212 381F0000 		.4byte	.LASF395
 9075 2216 01       		.byte	0x1
 9076 2217 2A       		.uleb128 0x2a
 9077 2218 EA090000 		.4byte	.LASF396
 9078 221c 02       		.byte	0x2
 9079 221d 2A       		.uleb128 0x2a
 9080 221e 2E190000 		.4byte	.LASF397
 9081 2222 03       		.byte	0x3
 9082 2223 2A       		.uleb128 0x2a
 9083 2224 761F0000 		.4byte	.LASF398
 9084 2228 04       		.byte	0x4
 9085 2229 2A       		.uleb128 0x2a
 9086 222a 4D070000 		.4byte	.LASF399
 9087 222e 05       		.byte	0x5
 9088 222f 2A       		.uleb128 0x2a
 9089 2230 BB1A0000 		.4byte	.LASF400
 9090 2234 06       		.byte	0x6
 9091 2235 2A       		.uleb128 0x2a
 9092 2236 3D160000 		.4byte	.LASF401
ARM GAS  /tmp/ccpnbTSa.s 			page 161


 9093 223a 07       		.byte	0x7
 9094 223b 2A       		.uleb128 0x2a
 9095 223c 4F1F0000 		.4byte	.LASF402
 9096 2240 08       		.byte	0x8
 9097 2241 00       		.byte	0
 9098 2242 03       		.uleb128 0x3
 9099 2243 C7140000 		.4byte	.LASF403
 9100 2247 21       		.byte	0x21
 9101 2248 32       		.byte	0x32
 9102 2249 03       		.byte	0x3
 9103 224a FD210000 		.4byte	0x21fd
 9104 224e 0B       		.uleb128 0xb
 9105 224f 08       		.byte	0x8
 9106 2250 21       		.byte	0x21
 9107 2251 37       		.byte	0x37
 9108 2252 09       		.byte	0x9
 9109 2253 72220000 		.4byte	0x2272
 9110 2257 0C       		.uleb128 0xc
 9111 2258 EB060000 		.4byte	.LASF404
 9112 225c 21       		.byte	0x21
 9113 225d 38       		.byte	0x38
 9114 225e 11       		.byte	0x11
 9115 225f 94090000 		.4byte	0x994
 9116 2263 00       		.byte	0
 9117 2264 0C       		.uleb128 0xc
 9118 2265 261A0000 		.4byte	.LASF405
 9119 2269 21       		.byte	0x21
 9120 226a 39       		.byte	0x39
 9121 226b 11       		.byte	0x11
 9122 226c 94090000 		.4byte	0x994
 9123 2270 04       		.byte	0x4
 9124 2271 00       		.byte	0
 9125 2272 03       		.uleb128 0x3
 9126 2273 071C0000 		.4byte	.LASF406
 9127 2277 21       		.byte	0x21
 9128 2278 3A       		.byte	0x3a
 9129 2279 03       		.byte	0x3
 9130 227a 4E220000 		.4byte	0x224e
 9131 227e 19       		.uleb128 0x19
 9132 227f 8B1C0000 		.4byte	0x1c8b
 9133 2283 8D220000 		.4byte	0x228d
 9134 2287 1A       		.uleb128 0x1a
 9135 2288 46010000 		.4byte	0x146
 9136 228c 00       		.byte	0
 9137 228d 0E       		.uleb128 0xe
 9138 228e 04       		.byte	0x4
 9139 228f 7E220000 		.4byte	0x227e
 9140 2293 19       		.uleb128 0x19
 9141 2294 8B1C0000 		.4byte	0x1c8b
 9142 2298 B1220000 		.4byte	0x22b1
 9143 229c 1A       		.uleb128 0x1a
 9144 229d 46010000 		.4byte	0x146
 9145 22a1 1A       		.uleb128 0x1a
 9146 22a2 94090000 		.4byte	0x994
 9147 22a6 1A       		.uleb128 0x1a
 9148 22a7 DC1C0000 		.4byte	0x1cdc
 9149 22ab 1A       		.uleb128 0x1a
ARM GAS  /tmp/ccpnbTSa.s 			page 162


 9150 22ac 94090000 		.4byte	0x994
 9151 22b0 00       		.byte	0
 9152 22b1 0E       		.uleb128 0xe
 9153 22b2 04       		.byte	0x4
 9154 22b3 93220000 		.4byte	0x2293
 9155 22b7 19       		.uleb128 0x19
 9156 22b8 8B1C0000 		.4byte	0x1c8b
 9157 22bc D5220000 		.4byte	0x22d5
 9158 22c0 1A       		.uleb128 0x1a
 9159 22c1 46010000 		.4byte	0x146
 9160 22c5 1A       		.uleb128 0x1a
 9161 22c6 94090000 		.4byte	0x994
 9162 22ca 1A       		.uleb128 0x1a
 9163 22cb 03210000 		.4byte	0x2103
 9164 22cf 1A       		.uleb128 0x1a
 9165 22d0 94090000 		.4byte	0x994
 9166 22d4 00       		.byte	0
 9167 22d5 0E       		.uleb128 0xe
 9168 22d6 04       		.byte	0x4
 9169 22d7 B7220000 		.4byte	0x22b7
 9170 22db 19       		.uleb128 0x19
 9171 22dc 8B1C0000 		.4byte	0x1c8b
 9172 22e0 EF220000 		.4byte	0x22ef
 9173 22e4 1A       		.uleb128 0x1a
 9174 22e5 46010000 		.4byte	0x146
 9175 22e9 1A       		.uleb128 0x1a
 9176 22ea EF220000 		.4byte	0x22ef
 9177 22ee 00       		.byte	0
 9178 22ef 0E       		.uleb128 0xe
 9179 22f0 04       		.byte	0x4
 9180 22f1 72220000 		.4byte	0x2272
 9181 22f5 0E       		.uleb128 0xe
 9182 22f6 04       		.byte	0x4
 9183 22f7 DB220000 		.4byte	0x22db
 9184 22fb 03       		.uleb128 0x3
 9185 22fc 820C0000 		.4byte	.LASF407
 9186 2300 22       		.byte	0x22
 9187 2301 3A       		.byte	0x3a
 9188 2302 19       		.byte	0x19
 9189 2303 07230000 		.4byte	0x2307
 9190 2307 10       		.uleb128 0x10
 9191 2308 9E0E0000 		.4byte	.LASF408
 9192 230c 24       		.byte	0x24
 9193 230d 22       		.byte	0x22
 9194 230e 4B       		.byte	0x4b
 9195 230f 08       		.byte	0x8
 9196 2310 7D230000 		.4byte	0x237d
 9197 2314 0C       		.uleb128 0xc
 9198 2315 59050000 		.4byte	.LASF409
 9199 2319 22       		.byte	0x22
 9200 231a 4C       		.byte	0x4c
 9201 231b 19       		.byte	0x19
 9202 231c 6F0B0000 		.4byte	0xb6f
 9203 2320 00       		.byte	0
 9204 2321 0C       		.uleb128 0xc
 9205 2322 53150000 		.4byte	.LASF410
 9206 2326 22       		.byte	0x22
ARM GAS  /tmp/ccpnbTSa.s 			page 163


 9207 2327 4D       		.byte	0x4d
 9208 2328 19       		.byte	0x19
 9209 2329 38000000 		.4byte	0x38
 9210 232d 08       		.byte	0x8
 9211 232e 0C       		.uleb128 0xc
 9212 232f 540F0000 		.4byte	.LASF411
 9213 2333 22       		.byte	0x22
 9214 2334 4E       		.byte	0x4e
 9215 2335 1A       		.byte	0x1a
 9216 2336 DC1C0000 		.4byte	0x1cdc
 9217 233a 0C       		.byte	0xc
 9218 233b 0C       		.uleb128 0xc
 9219 233c CC040000 		.4byte	.LASF412
 9220 2340 22       		.byte	0x22
 9221 2341 4F       		.byte	0x4f
 9222 2342 1A       		.byte	0x1a
 9223 2343 DC1C0000 		.4byte	0x1cdc
 9224 2347 10       		.byte	0x10
 9225 2348 0C       		.uleb128 0xc
 9226 2349 DF0C0000 		.4byte	.LASF413
 9227 234d 22       		.byte	0x22
 9228 234e 51       		.byte	0x51
 9229 234f 1A       		.byte	0x1a
 9230 2350 DC1C0000 		.4byte	0x1cdc
 9231 2354 14       		.byte	0x14
 9232 2355 0C       		.uleb128 0xc
 9233 2356 BD150000 		.4byte	.LASF414
 9234 235a 22       		.byte	0x22
 9235 235b 52       		.byte	0x52
 9236 235c 1A       		.byte	0x1a
 9237 235d DC1C0000 		.4byte	0x1cdc
 9238 2361 18       		.byte	0x18
 9239 2362 0C       		.uleb128 0xc
 9240 2363 B0190000 		.4byte	.LASF415
 9241 2367 22       		.byte	0x22
 9242 2368 53       		.byte	0x53
 9243 2369 19       		.byte	0x19
 9244 236a 7D230000 		.4byte	0x237d
 9245 236e 1C       		.byte	0x1c
 9246 236f 0C       		.uleb128 0xc
 9247 2370 84170000 		.4byte	.LASF416
 9248 2374 22       		.byte	0x22
 9249 2375 54       		.byte	0x54
 9250 2376 1A       		.byte	0x1a
 9251 2377 46010000 		.4byte	0x146
 9252 237b 20       		.byte	0x20
 9253 237c 00       		.byte	0
 9254 237d 03       		.uleb128 0x3
 9255 237e 93040000 		.4byte	.LASF417
 9256 2382 22       		.byte	0x22
 9257 2383 41       		.byte	0x41
 9258 2384 10       		.byte	0x10
 9259 2385 89230000 		.4byte	0x2389
 9260 2389 0E       		.uleb128 0xe
 9261 238a 04       		.byte	0x4
 9262 238b 8F230000 		.4byte	0x238f
 9263 238f 1B       		.uleb128 0x1b
ARM GAS  /tmp/ccpnbTSa.s 			page 164


 9264 2390 9A230000 		.4byte	0x239a
 9265 2394 1A       		.uleb128 0x1a
 9266 2395 9A230000 		.4byte	0x239a
 9267 2399 00       		.byte	0
 9268 239a 0E       		.uleb128 0xe
 9269 239b 04       		.byte	0x4
 9270 239c FB220000 		.4byte	0x22fb
 9271 23a0 03       		.uleb128 0x3
 9272 23a1 89050000 		.4byte	.LASF418
 9273 23a5 22       		.byte	0x22
 9274 23a6 61       		.byte	0x61
 9275 23a7 14       		.byte	0x14
 9276 23a8 FB220000 		.4byte	0x22fb
 9277 23ac 03       		.uleb128 0x3
 9278 23ad 8A210000 		.4byte	.LASF419
 9279 23b1 22       		.byte	0x22
 9280 23b2 6D       		.byte	0x6d
 9281 23b3 14       		.byte	0x14
 9282 23b4 FB220000 		.4byte	0x22fb
 9283 23b8 0B       		.uleb128 0xb
 9284 23b9 04       		.byte	0x4
 9285 23ba 23       		.byte	0x23
 9286 23bb 5B       		.byte	0x5b
 9287 23bc 05       		.byte	0x5
 9288 23bd DC230000 		.4byte	0x23dc
 9289 23c1 11       		.uleb128 0x11
 9290 23c2 73657400 		.ascii	"set\000"
 9291 23c6 23       		.byte	0x23
 9292 23c7 5C       		.byte	0x5c
 9293 23c8 19       		.byte	0x19
 9294 23c9 77090000 		.4byte	0x977
 9295 23cd 00       		.byte	0
 9296 23ce 0C       		.uleb128 0xc
 9297 23cf 041B0000 		.4byte	.LASF420
 9298 23d3 23       		.byte	0x23
 9299 23d4 5D       		.byte	0x5d
 9300 23d5 19       		.byte	0x19
 9301 23d6 77090000 		.4byte	0x977
 9302 23da 02       		.byte	0x2
 9303 23db 00       		.byte	0
 9304 23dc 07       		.uleb128 0x7
 9305 23dd 04       		.byte	0x4
 9306 23de 23       		.byte	0x23
 9307 23df 59       		.byte	0x59
 9308 23e0 0C       		.byte	0xc
 9309 23e1 FA230000 		.4byte	0x23fa
 9310 23e5 23       		.uleb128 0x23
 9311 23e6 5700     		.ascii	"W\000"
 9312 23e8 23       		.byte	0x23
 9313 23e9 5A       		.byte	0x5a
 9314 23ea 19       		.byte	0x19
 9315 23eb 94090000 		.4byte	0x994
 9316 23ef 23       		.uleb128 0x23
 9317 23f0 4800     		.ascii	"H\000"
 9318 23f2 23       		.byte	0x23
 9319 23f3 5E       		.byte	0x5e
 9320 23f4 07       		.byte	0x7
ARM GAS  /tmp/ccpnbTSa.s 			page 165


 9321 23f5 B8230000 		.4byte	0x23b8
 9322 23f9 00       		.byte	0
 9323 23fa 04       		.uleb128 0x4
 9324 23fb DC230000 		.4byte	0x23dc
 9325 23ff 0B       		.uleb128 0xb
 9326 2400 28       		.byte	0x28
 9327 2401 23       		.byte	0x23
 9328 2402 51       		.byte	0x51
 9329 2403 09       		.byte	0x9
 9330 2404 8B240000 		.4byte	0x248b
 9331 2408 0C       		.uleb128 0xc
 9332 2409 101B0000 		.4byte	.LASF421
 9333 240d 23       		.byte	0x23
 9334 240e 53       		.byte	0x53
 9335 240f 19       		.byte	0x19
 9336 2410 A0090000 		.4byte	0x9a0
 9337 2414 00       		.byte	0
 9338 2415 0C       		.uleb128 0xc
 9339 2416 80030000 		.4byte	.LASF422
 9340 241a 23       		.byte	0x23
 9341 241b 54       		.byte	0x54
 9342 241c 19       		.byte	0x19
 9343 241d A0090000 		.4byte	0x9a0
 9344 2421 04       		.byte	0x4
 9345 2422 0C       		.uleb128 0xc
 9346 2423 0F0D0000 		.4byte	.LASF423
 9347 2427 23       		.byte	0x23
 9348 2428 55       		.byte	0x55
 9349 2429 19       		.byte	0x19
 9350 242a A0090000 		.4byte	0x9a0
 9351 242e 08       		.byte	0x8
 9352 242f 0C       		.uleb128 0xc
 9353 2430 721A0000 		.4byte	.LASF424
 9354 2434 23       		.byte	0x23
 9355 2435 56       		.byte	0x56
 9356 2436 19       		.byte	0x19
 9357 2437 A0090000 		.4byte	0x9a0
 9358 243b 0C       		.byte	0xc
 9359 243c 11       		.uleb128 0x11
 9360 243d 49445200 		.ascii	"IDR\000"
 9361 2441 23       		.byte	0x23
 9362 2442 57       		.byte	0x57
 9363 2443 19       		.byte	0x19
 9364 2444 A0090000 		.4byte	0x9a0
 9365 2448 10       		.byte	0x10
 9366 2449 11       		.uleb128 0x11
 9367 244a 4F445200 		.ascii	"ODR\000"
 9368 244e 23       		.byte	0x23
 9369 244f 58       		.byte	0x58
 9370 2450 19       		.byte	0x19
 9371 2451 A0090000 		.4byte	0x9a0
 9372 2455 14       		.byte	0x14
 9373 2456 0C       		.uleb128 0xc
 9374 2457 6E100000 		.4byte	.LASF425
 9375 245b 23       		.byte	0x23
 9376 245c 5F       		.byte	0x5f
 9377 245d 05       		.byte	0x5
ARM GAS  /tmp/ccpnbTSa.s 			page 166


 9378 245e FA230000 		.4byte	0x23fa
 9379 2462 18       		.byte	0x18
 9380 2463 0C       		.uleb128 0xc
 9381 2464 1D110000 		.4byte	.LASF426
 9382 2468 23       		.byte	0x23
 9383 2469 60       		.byte	0x60
 9384 246a 19       		.byte	0x19
 9385 246b A0090000 		.4byte	0x9a0
 9386 246f 1C       		.byte	0x1c
 9387 2470 0C       		.uleb128 0xc
 9388 2471 B6180000 		.4byte	.LASF427
 9389 2475 23       		.byte	0x23
 9390 2476 61       		.byte	0x61
 9391 2477 19       		.byte	0x19
 9392 2478 A0090000 		.4byte	0x9a0
 9393 247c 20       		.byte	0x20
 9394 247d 0C       		.uleb128 0xc
 9395 247e B1180000 		.4byte	.LASF428
 9396 2482 23       		.byte	0x23
 9397 2483 62       		.byte	0x62
 9398 2484 19       		.byte	0x19
 9399 2485 A0090000 		.4byte	0x9a0
 9400 2489 24       		.byte	0x24
 9401 248a 00       		.byte	0
 9402 248b 03       		.uleb128 0x3
 9403 248c 3C0E0000 		.4byte	.LASF429
 9404 2490 23       		.byte	0x23
 9405 2491 63       		.byte	0x63
 9406 2492 03       		.byte	0x3
 9407 2493 FF230000 		.4byte	0x23ff
 9408 2497 03       		.uleb128 0x3
 9409 2498 5D150000 		.4byte	.LASF430
 9410 249c 24       		.byte	0x24
 9411 249d D9       		.byte	0xd9
 9412 249e 18       		.byte	0x18
 9413 249f A3240000 		.4byte	0x24a3
 9414 24a3 0E       		.uleb128 0xe
 9415 24a4 04       		.byte	0x4
 9416 24a5 8B240000 		.4byte	0x248b
 9417 24a9 29       		.uleb128 0x29
 9418 24aa 07       		.byte	0x7
 9419 24ab 01       		.byte	0x1
 9420 24ac 72000000 		.4byte	0x72
 9421 24b0 25       		.byte	0x25
 9422 24b1 46       		.byte	0x46
 9423 24b2 0E       		.byte	0xe
 9424 24b3 DC240000 		.4byte	0x24dc
 9425 24b7 2A       		.uleb128 0x2a
 9426 24b8 F5070000 		.4byte	.LASF431
 9427 24bc 00       		.byte	0
 9428 24bd 2A       		.uleb128 0x2a
 9429 24be C9120000 		.4byte	.LASF432
 9430 24c2 01       		.byte	0x1
 9431 24c3 2A       		.uleb128 0x2a
 9432 24c4 09060000 		.4byte	.LASF433
 9433 24c8 02       		.byte	0x2
 9434 24c9 2A       		.uleb128 0x2a
ARM GAS  /tmp/ccpnbTSa.s 			page 167


 9435 24ca 4F100000 		.4byte	.LASF434
 9436 24ce 03       		.byte	0x3
 9437 24cf 2A       		.uleb128 0x2a
 9438 24d0 43060000 		.4byte	.LASF435
 9439 24d4 04       		.byte	0x4
 9440 24d5 2A       		.uleb128 0x2a
 9441 24d6 22100000 		.4byte	.LASF436
 9442 24da 05       		.byte	0x5
 9443 24db 00       		.byte	0
 9444 24dc 03       		.uleb128 0x3
 9445 24dd 9D040000 		.4byte	.LASF437
 9446 24e1 25       		.byte	0x25
 9447 24e2 4D       		.byte	0x4d
 9448 24e3 03       		.byte	0x3
 9449 24e4 A9240000 		.4byte	0x24a9
 9450 24e8 03       		.uleb128 0x3
 9451 24e9 A20D0000 		.4byte	.LASF438
 9452 24ed 25       		.byte	0x25
 9453 24ee 52       		.byte	0x52
 9454 24ef 1F       		.byte	0x1f
 9455 24f0 F4240000 		.4byte	0x24f4
 9456 24f4 10       		.uleb128 0x10
 9457 24f5 78190000 		.4byte	.LASF439
 9458 24f9 38       		.byte	0x38
 9459 24fa 25       		.byte	0x25
 9460 24fb A0       		.byte	0xa0
 9461 24fc 08       		.byte	0x8
 9462 24fd 91250000 		.4byte	0x2591
 9463 2501 0C       		.uleb128 0xc
 9464 2502 CA130000 		.4byte	.LASF153
 9465 2506 25       		.byte	0x25
 9466 2507 A4       		.byte	0xa4
 9467 2508 1D       		.byte	0x1d
 9468 2509 DC240000 		.4byte	0x24dc
 9469 250d 00       		.byte	0
 9470 250e 0C       		.uleb128 0xc
 9471 250f FE180000 		.4byte	.LASF440
 9472 2513 25       		.byte	0x25
 9473 2514 A8       		.byte	0xa8
 9474 2515 1E       		.byte	0x1e
 9475 2516 8B270000 		.4byte	0x278b
 9476 251a 04       		.byte	0x4
 9477 251b 0C       		.uleb128 0xc
 9478 251c 22020000 		.4byte	.LASF441
 9479 2520 25       		.byte	0x25
 9480 2521 AC       		.byte	0xac
 9481 2522 1E       		.byte	0x1e
 9482 2523 91270000 		.4byte	0x2791
 9483 2527 08       		.byte	0x8
 9484 2528 0C       		.uleb128 0xc
 9485 2529 9E160000 		.4byte	.LASF442
 9486 252d 25       		.byte	0x25
 9487 252e B0       		.byte	0xb0
 9488 252f 1D       		.byte	0x1d
 9489 2530 2C000000 		.4byte	0x2c
 9490 2534 0C       		.byte	0xc
 9491 2535 0C       		.uleb128 0xc
ARM GAS  /tmp/ccpnbTSa.s 			page 168


 9492 2536 B91B0000 		.4byte	.LASF443
 9493 253a 25       		.byte	0x25
 9494 253b B4       		.byte	0xb4
 9495 253c 1E       		.byte	0x1e
 9496 253d 97270000 		.4byte	0x2797
 9497 2541 10       		.byte	0x10
 9498 2542 0C       		.uleb128 0xc
 9499 2543 CE060000 		.4byte	.LASF444
 9500 2547 25       		.byte	0x25
 9501 2548 B9       		.byte	0xb9
 9502 2549 1D       		.byte	0x1d
 9503 254a 360B0000 		.4byte	0xb36
 9504 254e 14       		.byte	0x14
 9505 254f 0C       		.uleb128 0xc
 9506 2550 1C0B0000 		.4byte	.LASF445
 9507 2554 25       		.byte	0x25
 9508 2555 BF       		.byte	0xbf
 9509 2556 1D       		.byte	0x1d
 9510 2557 F11B0000 		.4byte	0x1bf1
 9511 255b 18       		.byte	0x18
 9512 255c 0C       		.uleb128 0xc
 9513 255d F10B0000 		.4byte	.LASF446
 9514 2561 25       		.byte	0x25
 9515 2562 C5       		.byte	0xc5
 9516 2563 03       		.byte	0x3
 9517 2564 9D270000 		.4byte	0x279d
 9518 2568 28       		.byte	0x28
 9519 2569 0C       		.uleb128 0xc
 9520 256a E40B0000 		.4byte	.LASF447
 9521 256e 25       		.byte	0x25
 9522 256f C5       		.byte	0xc5
 9523 2570 03       		.byte	0x3
 9524 2571 A3270000 		.4byte	0x27a3
 9525 2575 2C       		.byte	0x2c
 9526 2576 0C       		.uleb128 0xc
 9527 2577 9D1A0000 		.4byte	.LASF448
 9528 257b 25       		.byte	0x25
 9529 257c C5       		.byte	0xc5
 9530 257d 03       		.byte	0x3
 9531 257e 2C270000 		.4byte	0x272c
 9532 2582 30       		.byte	0x30
 9533 2583 0C       		.uleb128 0xc
 9534 2584 8A150000 		.4byte	.LASF449
 9535 2588 25       		.byte	0x25
 9536 2589 C5       		.byte	0xc5
 9537 258a 03       		.byte	0x3
 9538 258b 94090000 		.4byte	0x994
 9539 258f 34       		.byte	0x34
 9540 2590 00       		.byte	0
 9541 2591 03       		.uleb128 0x3
 9542 2592 BA0D0000 		.4byte	.LASF450
 9543 2596 25       		.byte	0x25
 9544 2597 57       		.byte	0x57
 9545 2598 1F       		.byte	0x1f
 9546 2599 A2250000 		.4byte	0x25a2
 9547 259d 15       		.uleb128 0x15
 9548 259e 91250000 		.4byte	0x2591
ARM GAS  /tmp/ccpnbTSa.s 			page 169


 9549 25a2 10       		.uleb128 0x10
 9550 25a3 B0060000 		.4byte	.LASF451
 9551 25a7 08       		.byte	0x8
 9552 25a8 25       		.byte	0x25
 9553 25a9 98       		.byte	0x98
 9554 25aa 08       		.byte	0x8
 9555 25ab CA250000 		.4byte	0x25ca
 9556 25af 0C       		.uleb128 0xc
 9557 25b0 80060000 		.4byte	.LASF452
 9558 25b4 25       		.byte	0x25
 9559 25b5 9A       		.byte	0x9a
 9560 25b6 03       		.byte	0x3
 9561 25b7 94090000 		.4byte	0x994
 9562 25bb 00       		.byte	0
 9563 25bc 0C       		.uleb128 0xc
 9564 25bd 36210000 		.4byte	.LASF453
 9565 25c1 25       		.byte	0x25
 9566 25c2 9A       		.byte	0x9a
 9567 25c3 03       		.byte	0x3
 9568 25c4 94090000 		.4byte	0x994
 9569 25c8 04       		.byte	0x4
 9570 25c9 00       		.byte	0
 9571 25ca 03       		.uleb128 0x3
 9572 25cb 97050000 		.4byte	.LASF454
 9573 25cf 25       		.byte	0x25
 9574 25d0 61       		.byte	0x61
 9575 25d1 2C       		.byte	0x2c
 9576 25d2 DB250000 		.4byte	0x25db
 9577 25d6 15       		.uleb128 0x15
 9578 25d7 CA250000 		.4byte	0x25ca
 9579 25db 10       		.uleb128 0x10
 9580 25dc E9100000 		.4byte	.LASF455
 9581 25e0 50       		.byte	0x50
 9582 25e1 25       		.byte	0x25
 9583 25e2 80       		.byte	0x80
 9584 25e3 08       		.byte	0x8
 9585 25e4 B9260000 		.4byte	0x26b9
 9586 25e8 0C       		.uleb128 0xc
 9587 25e9 091E0000 		.4byte	.LASF456
 9588 25ed 25       		.byte	0x25
 9589 25ee 84       		.byte	0x84
 9590 25ef 1D       		.byte	0x1d
 9591 25f0 8B1C0000 		.4byte	0x1c8b
 9592 25f4 00       		.byte	0
 9593 25f5 0C       		.uleb128 0xc
 9594 25f6 620E0000 		.4byte	.LASF457
 9595 25fa 25       		.byte	0x25
 9596 25fb 88       		.byte	0x88
 9597 25fc 1D       		.byte	0x1d
 9598 25fd C6260000 		.4byte	0x26c6
 9599 2601 04       		.byte	0x4
 9600 2602 0C       		.uleb128 0xc
 9601 2603 82080000 		.4byte	.LASF458
 9602 2607 25       		.byte	0x25
 9603 2608 8C       		.byte	0x8c
 9604 2609 1D       		.byte	0x1d
 9605 260a 46270000 		.4byte	0x2746
ARM GAS  /tmp/ccpnbTSa.s 			page 170


 9606 260e 08       		.byte	0x8
 9607 260f 0C       		.uleb128 0xc
 9608 2610 6D1F0000 		.4byte	.LASF459
 9609 2614 25       		.byte	0x25
 9610 2615 90       		.byte	0x90
 9611 2616 1D       		.byte	0x1d
 9612 2617 69270000 		.4byte	0x2769
 9613 261b 0C       		.byte	0xc
 9614 261c 0C       		.uleb128 0xc
 9615 261d F3130000 		.4byte	.LASF460
 9616 2621 25       		.byte	0x25
 9617 2622 92       		.byte	0x92
 9618 2623 03       		.byte	0x3
 9619 2624 94090000 		.4byte	0x994
 9620 2628 10       		.byte	0x10
 9621 2629 0C       		.uleb128 0xc
 9622 262a 701E0000 		.4byte	.LASF461
 9623 262e 25       		.byte	0x25
 9624 262f 92       		.byte	0x92
 9625 2630 03       		.byte	0x3
 9626 2631 94090000 		.4byte	0x994
 9627 2635 14       		.byte	0x14
 9628 2636 11       		.uleb128 0x11
 9629 2637 63637200 		.ascii	"ccr\000"
 9630 263b 25       		.byte	0x25
 9631 263c 92       		.byte	0x92
 9632 263d 03       		.byte	0x3
 9633 263e 94090000 		.4byte	0x994
 9634 2642 18       		.byte	0x18
 9635 2643 0C       		.uleb128 0xc
 9636 2644 0C110000 		.4byte	.LASF462
 9637 2648 25       		.byte	0x25
 9638 2649 92       		.byte	0x92
 9639 264a 03       		.byte	0x3
 9640 264b 94090000 		.4byte	0x994
 9641 264f 1C       		.byte	0x1c
 9642 2650 0C       		.uleb128 0xc
 9643 2651 210F0000 		.4byte	.LASF463
 9644 2655 25       		.byte	0x25
 9645 2656 92       		.byte	0x92
 9646 2657 03       		.byte	0x3
 9647 2658 94090000 		.4byte	0x994
 9648 265c 20       		.byte	0x20
 9649 265d 0C       		.uleb128 0xc
 9650 265e 99110000 		.4byte	.LASF464
 9651 2662 25       		.byte	0x25
 9652 2663 92       		.byte	0x92
 9653 2664 03       		.byte	0x3
 9654 2665 94090000 		.4byte	0x994
 9655 2669 24       		.byte	0x24
 9656 266a 0C       		.uleb128 0xc
 9657 266b 260F0000 		.4byte	.LASF465
 9658 266f 25       		.byte	0x25
 9659 2670 92       		.byte	0x92
 9660 2671 03       		.byte	0x3
 9661 2672 94090000 		.4byte	0x994
 9662 2676 28       		.byte	0x28
ARM GAS  /tmp/ccpnbTSa.s 			page 171


 9663 2677 0C       		.uleb128 0xc
 9664 2678 9E110000 		.4byte	.LASF466
 9665 267c 25       		.byte	0x25
 9666 267d 92       		.byte	0x92
 9667 267e 03       		.byte	0x3
 9668 267f 94090000 		.4byte	0x994
 9669 2683 2C       		.byte	0x2c
 9670 2684 0C       		.uleb128 0xc
 9671 2685 2B0F0000 		.4byte	.LASF467
 9672 2689 25       		.byte	0x25
 9673 268a 92       		.byte	0x92
 9674 268b 03       		.byte	0x3
 9675 268c 94090000 		.4byte	0x994
 9676 2690 30       		.byte	0x30
 9677 2691 0C       		.uleb128 0xc
 9678 2692 A3110000 		.4byte	.LASF468
 9679 2696 25       		.byte	0x25
 9680 2697 92       		.byte	0x92
 9681 2698 03       		.byte	0x3
 9682 2699 94090000 		.4byte	0x994
 9683 269d 34       		.byte	0x34
 9684 269e 0C       		.uleb128 0xc
 9685 269f 46130000 		.4byte	.LASF469
 9686 26a3 25       		.byte	0x25
 9687 26a4 92       		.byte	0x92
 9688 26a5 03       		.byte	0x3
 9689 26a6 A20D0000 		.4byte	0xda2
 9690 26aa 38       		.byte	0x38
 9691 26ab 11       		.uleb128 0x11
 9692 26ac 73717200 		.ascii	"sqr\000"
 9693 26b0 25       		.byte	0x25
 9694 26b1 92       		.byte	0x92
 9695 26b2 03       		.byte	0x3
 9696 26b3 53100000 		.4byte	0x1053
 9697 26b7 40       		.byte	0x40
 9698 26b8 00       		.byte	0
 9699 26b9 06       		.uleb128 0x6
 9700 26ba 3E0F0000 		.4byte	.LASF470
 9701 26be 26       		.byte	0x26
 9702 26bf EE01     		.2byte	0x1ee
 9703 26c1 12       		.byte	0x12
 9704 26c2 77090000 		.4byte	0x977
 9705 26c6 06       		.uleb128 0x6
 9706 26c7 47190000 		.4byte	.LASF471
 9707 26cb 26       		.byte	0x26
 9708 26cc F601     		.2byte	0x1f6
 9709 26ce 12       		.byte	0x12
 9710 26cf 94090000 		.4byte	0x994
 9711 26d3 2B       		.uleb128 0x2b
 9712 26d4 07       		.byte	0x7
 9713 26d5 01       		.byte	0x1
 9714 26d6 72000000 		.4byte	0x72
 9715 26da 26       		.byte	0x26
 9716 26db FD01     		.2byte	0x1fd
 9717 26dd 0E       		.byte	0xe
 9718 26de 01270000 		.4byte	0x2701
 9719 26e2 2A       		.uleb128 0x2a
ARM GAS  /tmp/ccpnbTSa.s 			page 172


 9720 26e3 C10C0000 		.4byte	.LASF472
 9721 26e7 00       		.byte	0
 9722 26e8 2A       		.uleb128 0x2a
 9723 26e9 DD020000 		.4byte	.LASF473
 9724 26ed 01       		.byte	0x1
 9725 26ee 2A       		.uleb128 0x2a
 9726 26ef 56120000 		.4byte	.LASF474
 9727 26f3 02       		.byte	0x2
 9728 26f4 2A       		.uleb128 0x2a
 9729 26f5 63120000 		.4byte	.LASF475
 9730 26f9 03       		.byte	0x3
 9731 26fa 2A       		.uleb128 0x2a
 9732 26fb 70120000 		.4byte	.LASF476
 9733 26ff 04       		.byte	0x4
 9734 2700 00       		.byte	0
 9735 2701 06       		.uleb128 0x6
 9736 2702 901E0000 		.4byte	.LASF477
 9737 2706 26       		.byte	0x26
 9738 2707 0302     		.2byte	0x203
 9739 2709 03       		.byte	0x3
 9740 270a D3260000 		.4byte	0x26d3
 9741 270e 2C       		.uleb128 0x2c
 9742 270f 04       		.byte	0x4
 9743 2710 26       		.byte	0x26
 9744 2711 0802     		.2byte	0x208
 9745 2713 09       		.byte	0x9
 9746 2714 26270000 		.4byte	0x2726
 9747 2718 2D       		.uleb128 0x2d
 9748 2719 646D6100 		.ascii	"dma\000"
 9749 271d 26       		.byte	0x26
 9750 271e 0D02     		.2byte	0x20d
 9751 2720 20       		.byte	0x20
 9752 2721 26270000 		.4byte	0x2726
 9753 2725 00       		.byte	0
 9754 2726 0E       		.uleb128 0xe
 9755 2727 04       		.byte	0x4
 9756 2728 FE1E0000 		.4byte	0x1efe
 9757 272c 06       		.uleb128 0x6
 9758 272d 281B0000 		.4byte	.LASF478
 9759 2731 26       		.byte	0x26
 9760 2732 1502     		.2byte	0x215
 9761 2734 03       		.byte	0x3
 9762 2735 0E270000 		.4byte	0x270e
 9763 2739 1C       		.uleb128 0x1c
 9764 273a 68150000 		.4byte	.LASF479
 9765 273e 26       		.byte	0x26
 9766 273f B302     		.2byte	0x2b3
 9767 2741 12       		.byte	0x12
 9768 2742 E8240000 		.4byte	0x24e8
 9769 2746 03       		.uleb128 0x3
 9770 2747 59180000 		.4byte	.LASF480
 9771 274b 25       		.byte	0x25
 9772 274c 6D       		.byte	0x6d
 9773 274d 10       		.byte	0x10
 9774 274e 52270000 		.4byte	0x2752
 9775 2752 0E       		.uleb128 0xe
 9776 2753 04       		.byte	0x4
ARM GAS  /tmp/ccpnbTSa.s 			page 173


 9777 2754 58270000 		.4byte	0x2758
 9778 2758 1B       		.uleb128 0x1b
 9779 2759 63270000 		.4byte	0x2763
 9780 275d 1A       		.uleb128 0x1a
 9781 275e 63270000 		.4byte	0x2763
 9782 2762 00       		.byte	0
 9783 2763 0E       		.uleb128 0xe
 9784 2764 04       		.byte	0x4
 9785 2765 E8240000 		.4byte	0x24e8
 9786 2769 03       		.uleb128 0x3
 9787 276a A9130000 		.4byte	.LASF481
 9788 276e 25       		.byte	0x25
 9789 276f 76       		.byte	0x76
 9790 2770 10       		.byte	0x10
 9791 2771 75270000 		.4byte	0x2775
 9792 2775 0E       		.uleb128 0xe
 9793 2776 04       		.byte	0x4
 9794 2777 7B270000 		.4byte	0x277b
 9795 277b 1B       		.uleb128 0x1b
 9796 277c 8B270000 		.4byte	0x278b
 9797 2780 1A       		.uleb128 0x1a
 9798 2781 63270000 		.4byte	0x2763
 9799 2785 1A       		.uleb128 0x1a
 9800 2786 01270000 		.4byte	0x2701
 9801 278a 00       		.byte	0
 9802 278b 0E       		.uleb128 0xe
 9803 278c 04       		.byte	0x4
 9804 278d 9D250000 		.4byte	0x259d
 9805 2791 0E       		.uleb128 0xe
 9806 2792 04       		.byte	0x4
 9807 2793 B9260000 		.4byte	0x26b9
 9808 2797 0E       		.uleb128 0xe
 9809 2798 04       		.byte	0x4
 9810 2799 D6250000 		.4byte	0x25d6
 9811 279d 0E       		.uleb128 0xe
 9812 279e 04       		.byte	0x4
 9813 279f 63100000 		.4byte	0x1063
 9814 27a3 0E       		.uleb128 0xe
 9815 27a4 04       		.byte	0x4
 9816 27a5 C1100000 		.4byte	0x10c1
 9817 27a9 29       		.uleb128 0x29
 9818 27aa 07       		.byte	0x7
 9819 27ab 01       		.byte	0x1
 9820 27ac 72000000 		.4byte	0x72
 9821 27b0 27       		.byte	0x27
 9822 27b1 4C       		.byte	0x4c
 9823 27b2 0E       		.byte	0xe
 9824 27b3 DC270000 		.4byte	0x27dc
 9825 27b7 2A       		.uleb128 0x2a
 9826 27b8 28060000 		.4byte	.LASF482
 9827 27bc 00       		.byte	0
 9828 27bd 2A       		.uleb128 0x2a
 9829 27be A50C0000 		.4byte	.LASF483
 9830 27c2 01       		.byte	0x1
 9831 27c3 2A       		.uleb128 0x2a
 9832 27c4 F4060000 		.4byte	.LASF484
 9833 27c8 02       		.byte	0x2
ARM GAS  /tmp/ccpnbTSa.s 			page 174


 9834 27c9 2A       		.uleb128 0x2a
 9835 27ca EF040000 		.4byte	.LASF485
 9836 27ce 03       		.byte	0x3
 9837 27cf 2A       		.uleb128 0x2a
 9838 27d0 B0030000 		.4byte	.LASF486
 9839 27d4 04       		.byte	0x4
 9840 27d5 2A       		.uleb128 0x2a
 9841 27d6 12110000 		.4byte	.LASF487
 9842 27da 05       		.byte	0x5
 9843 27db 00       		.byte	0
 9844 27dc 03       		.uleb128 0x3
 9845 27dd 5E0B0000 		.4byte	.LASF488
 9846 27e1 27       		.byte	0x27
 9847 27e2 53       		.byte	0x53
 9848 27e3 03       		.byte	0x3
 9849 27e4 A9270000 		.4byte	0x27a9
 9850 27e8 06       		.uleb128 0x6
 9851 27e9 3B040000 		.4byte	.LASF489
 9852 27ed 28       		.byte	0x28
 9853 27ee 9D01     		.2byte	0x19d
 9854 27f0 12       		.byte	0x12
 9855 27f1 94090000 		.4byte	0x994
 9856 27f5 21       		.uleb128 0x21
 9857 27f6 0C       		.byte	0xc
 9858 27f7 28       		.byte	0x28
 9859 27f8 A201     		.2byte	0x1a2
 9860 27fa 09       		.byte	0x9
 9861 27fb 2A280000 		.4byte	0x282a
 9862 27ff 17       		.uleb128 0x17
 9863 2800 6D1D0000 		.4byte	.LASF490
 9864 2804 28       		.byte	0x28
 9865 2805 A801     		.2byte	0x1a8
 9866 2807 13       		.byte	0x13
 9867 2808 94090000 		.4byte	0x994
 9868 280c 00       		.byte	0
 9869 280d 18       		.uleb128 0x18
 9870 280e 63723100 		.ascii	"cr1\000"
 9871 2812 28       		.byte	0x28
 9872 2813 AD01     		.2byte	0x1ad
 9873 2815 13       		.byte	0x13
 9874 2816 94090000 		.4byte	0x994
 9875 281a 04       		.byte	0x4
 9876 281b 18       		.uleb128 0x18
 9877 281c 63723200 		.ascii	"cr2\000"
 9878 2820 28       		.byte	0x28
 9879 2821 B201     		.2byte	0x1b2
 9880 2823 13       		.byte	0x13
 9881 2824 94090000 		.4byte	0x994
 9882 2828 08       		.byte	0x8
 9883 2829 00       		.byte	0
 9884 282a 06       		.uleb128 0x6
 9885 282b 35020000 		.4byte	.LASF491
 9886 282f 28       		.byte	0x28
 9887 2830 B301     		.2byte	0x1b3
 9888 2832 03       		.byte	0x3
 9889 2833 F5270000 		.4byte	0x27f5
 9890 2837 15       		.uleb128 0x15
ARM GAS  /tmp/ccpnbTSa.s 			page 175


 9891 2838 2A280000 		.4byte	0x282a
 9892 283c 06       		.uleb128 0x6
 9893 283d E5040000 		.4byte	.LASF492
 9894 2841 28       		.byte	0x28
 9895 2842 B801     		.2byte	0x1b8
 9896 2844 1A       		.byte	0x1a
 9897 2845 49280000 		.4byte	0x2849
 9898 2849 16       		.uleb128 0x16
 9899 284a E5040000 		.4byte	.LASF492
 9900 284e 3C       		.byte	0x3c
 9901 284f 28       		.byte	0x28
 9902 2850 BD01     		.2byte	0x1bd
 9903 2852 08       		.byte	0x8
 9904 2853 FE280000 		.4byte	0x28fe
 9905 2857 17       		.uleb128 0x17
 9906 2858 CA130000 		.4byte	.LASF153
 9907 285c 28       		.byte	0x28
 9908 285d C101     		.2byte	0x1c1
 9909 285f 1D       		.byte	0x1d
 9910 2860 DC270000 		.4byte	0x27dc
 9911 2864 00       		.byte	0
 9912 2865 17       		.uleb128 0x17
 9913 2866 FE180000 		.4byte	.LASF440
 9914 286a 28       		.byte	0x28
 9915 286b C501     		.2byte	0x1c5
 9916 286d 1E       		.byte	0x1e
 9917 286e 2E290000 		.4byte	0x292e
 9918 2872 04       		.byte	0x4
 9919 2873 17       		.uleb128 0x17
 9920 2874 B2010000 		.4byte	.LASF493
 9921 2878 28       		.byte	0x28
 9922 2879 C901     		.2byte	0x1c9
 9923 287b 1D       		.byte	0x1d
 9924 287c E8270000 		.4byte	0x27e8
 9925 2880 08       		.byte	0x8
 9926 2881 17       		.uleb128 0x17
 9927 2882 1C0B0000 		.4byte	.LASF445
 9928 2886 28       		.byte	0x28
 9929 2887 CB01     		.2byte	0x1cb
 9930 2889 1D       		.byte	0x1d
 9931 288a F11B0000 		.4byte	0x1bf1
 9932 288e 0C       		.byte	0xc
 9933 288f 17       		.uleb128 0x17
 9934 2890 CE060000 		.4byte	.LASF444
 9935 2894 28       		.byte	0x28
 9936 2895 D401     		.2byte	0x1d4
 9937 2897 1D       		.byte	0x1d
 9938 2898 360B0000 		.4byte	0xb36
 9939 289c 1C       		.byte	0x1c
 9940 289d 17       		.uleb128 0x17
 9941 289e E0160000 		.4byte	.LASF494
 9942 28a2 28       		.byte	0x28
 9943 28a3 D801     		.2byte	0x1d8
 9944 28a5 1D       		.byte	0x1d
 9945 28a6 2C000000 		.4byte	0x2c
 9946 28aa 20       		.byte	0x20
 9947 28ab 17       		.uleb128 0x17
ARM GAS  /tmp/ccpnbTSa.s 			page 176


 9948 28ac 7A080000 		.4byte	.LASF495
 9949 28b0 28       		.byte	0x28
 9950 28b1 DC01     		.2byte	0x1dc
 9951 28b3 1D       		.byte	0x1d
 9952 28b4 2C000000 		.4byte	0x2c
 9953 28b8 24       		.byte	0x24
 9954 28b9 17       		.uleb128 0x17
 9955 28ba 00080000 		.4byte	.LASF496
 9956 28be 28       		.byte	0x28
 9957 28bf E101     		.2byte	0x1e1
 9958 28c1 1D       		.byte	0x1d
 9959 28c2 94090000 		.4byte	0x994
 9960 28c6 28       		.byte	0x28
 9961 28c7 17       		.uleb128 0x17
 9962 28c8 43080000 		.4byte	.LASF497
 9963 28cc 28       		.byte	0x28
 9964 28cd E501     		.2byte	0x1e5
 9965 28cf 1D       		.byte	0x1d
 9966 28d0 94090000 		.4byte	0x994
 9967 28d4 2C       		.byte	0x2c
 9968 28d5 18       		.uleb128 0x18
 9969 28d6 727800   		.ascii	"rx\000"
 9970 28d9 28       		.byte	0x28
 9971 28da FE01     		.2byte	0x1fe
 9972 28dc 05       		.byte	0x5
 9973 28dd FE280000 		.4byte	0x28fe
 9974 28e1 30       		.byte	0x30
 9975 28e2 18       		.uleb128 0x18
 9976 28e3 747800   		.ascii	"tx\000"
 9977 28e6 28       		.byte	0x28
 9978 28e7 1102     		.2byte	0x211
 9979 28e9 05       		.byte	0x5
 9980 28ea 16290000 		.4byte	0x2916
 9981 28ee 34       		.byte	0x34
 9982 28ef 18       		.uleb128 0x18
 9983 28f0 69326300 		.ascii	"i2c\000"
 9984 28f4 28       		.byte	0x28
 9985 28f5 1F02     		.2byte	0x21f
 9986 28f7 1E       		.byte	0x1e
 9987 28f8 34290000 		.4byte	0x2934
 9988 28fc 38       		.byte	0x38
 9989 28fd 00       		.byte	0
 9990 28fe 2C       		.uleb128 0x2c
 9991 28ff 04       		.byte	0x4
 9992 2900 28       		.byte	0x28
 9993 2901 EF01     		.2byte	0x1ef
 9994 2903 03       		.byte	0x3
 9995 2904 16290000 		.4byte	0x2916
 9996 2908 2D       		.uleb128 0x2d
 9997 2909 646D6100 		.ascii	"dma\000"
 9998 290d 28       		.byte	0x28
 9999 290e F401     		.2byte	0x1f4
 10000 2910 20       		.byte	0x20
 10001 2911 26270000 		.4byte	0x2726
 10002 2915 00       		.byte	0
 10003 2916 2C       		.uleb128 0x2c
 10004 2917 04       		.byte	0x4
ARM GAS  /tmp/ccpnbTSa.s 			page 177


 10005 2918 28       		.byte	0x28
 10006 2919 0202     		.2byte	0x202
 10007 291b 03       		.byte	0x3
 10008 291c 2E290000 		.4byte	0x292e
 10009 2920 2D       		.uleb128 0x2d
 10010 2921 646D6100 		.ascii	"dma\000"
 10011 2925 28       		.byte	0x28
 10012 2926 0702     		.2byte	0x207
 10013 2928 20       		.byte	0x20
 10014 2929 26270000 		.4byte	0x2726
 10015 292d 00       		.byte	0
 10016 292e 0E       		.uleb128 0xe
 10017 292f 04       		.byte	0x4
 10018 2930 37280000 		.4byte	0x2837
 10019 2934 0E       		.uleb128 0xe
 10020 2935 04       		.byte	0x4
 10021 2936 D0120000 		.4byte	0x12d0
 10022 293a 1C       		.uleb128 0x1c
 10023 293b 670F0000 		.4byte	.LASF498
 10024 293f 28       		.byte	0x28
 10025 2940 3502     		.2byte	0x235
 10026 2942 12       		.byte	0x12
 10027 2943 3C280000 		.4byte	0x283c
 10028 2947 29       		.uleb128 0x29
 10029 2948 07       		.byte	0x7
 10030 2949 01       		.byte	0x1
 10031 294a 72000000 		.4byte	0x72
 10032 294e 29       		.byte	0x29
 10033 294f 4A       		.byte	0x4a
 10034 2950 0E       		.byte	0xe
 10035 2951 68290000 		.4byte	0x2968
 10036 2955 2A       		.uleb128 0x2a
 10037 2956 24070000 		.4byte	.LASF499
 10038 295a 00       		.byte	0
 10039 295b 2A       		.uleb128 0x2a
 10040 295c 050B0000 		.4byte	.LASF500
 10041 2960 01       		.byte	0x1
 10042 2961 2A       		.uleb128 0x2a
 10043 2962 580E0000 		.4byte	.LASF501
 10044 2966 02       		.byte	0x2
 10045 2967 00       		.byte	0
 10046 2968 03       		.uleb128 0x3
 10047 2969 C7030000 		.4byte	.LASF502
 10048 296d 29       		.byte	0x29
 10049 296e 4E       		.byte	0x4e
 10050 296f 03       		.byte	0x3
 10051 2970 47290000 		.4byte	0x2947
 10052 2974 03       		.uleb128 0x3
 10053 2975 610A0000 		.4byte	.LASF503
 10054 2979 29       		.byte	0x29
 10055 297a 53       		.byte	0x53
 10056 297b 1A       		.byte	0x1a
 10057 297c 80290000 		.4byte	0x2980
 10058 2980 16       		.uleb128 0x16
 10059 2981 610A0000 		.4byte	.LASF503
 10060 2985 1C       		.byte	0x1c
 10061 2986 2A       		.byte	0x2a
ARM GAS  /tmp/ccpnbTSa.s 			page 178


 10062 2987 6B03     		.2byte	0x36b
 10063 2989 08       		.byte	0x8
 10064 298a F1290000 		.4byte	0x29f1
 10065 298e 17       		.uleb128 0x17
 10066 298f CA130000 		.4byte	.LASF153
 10067 2993 2A       		.byte	0x2a
 10068 2994 6F03     		.2byte	0x36f
 10069 2996 1D       		.byte	0x1d
 10070 2997 68290000 		.4byte	0x2968
 10071 299b 00       		.byte	0
 10072 299c 17       		.uleb128 0x17
 10073 299d FE180000 		.4byte	.LASF440
 10074 29a1 2A       		.byte	0x2a
 10075 29a2 7303     		.2byte	0x373
 10076 29a4 1E       		.byte	0x1e
 10077 29a5 FD2A0000 		.4byte	0x2afd
 10078 29a9 04       		.byte	0x4
 10079 29aa 17       		.uleb128 0x17
 10080 29ab 05110000 		.4byte	.LASF504
 10081 29af 2A       		.byte	0x2a
 10082 29b0 7703     		.2byte	0x377
 10083 29b2 1D       		.byte	0x1d
 10084 29b3 3B2A0000 		.4byte	0x2a3b
 10085 29b7 08       		.byte	0x8
 10086 29b8 17       		.uleb128 0x17
 10087 29b9 5F170000 		.4byte	.LASF505
 10088 29bd 2A       		.byte	0x2a
 10089 29be 7B03     		.2byte	0x37b
 10090 29c0 1D       		.byte	0x1d
 10091 29c1 2E2A0000 		.4byte	0x2a2e
 10092 29c5 0C       		.byte	0xc
 10093 29c6 17       		.uleb128 0x17
 10094 29c7 881F0000 		.4byte	.LASF506
 10095 29cb 2A       		.byte	0x2a
 10096 29cc 7F03     		.2byte	0x37f
 10097 29ce 1D       		.byte	0x1d
 10098 29cf 212A0000 		.4byte	0x2a21
 10099 29d3 10       		.byte	0x10
 10100 29d4 17       		.uleb128 0x17
 10101 29d5 4D0B0000 		.4byte	.LASF507
 10102 29d9 2A       		.byte	0x2a
 10103 29da 8703     		.2byte	0x387
 10104 29dc 1D       		.byte	0x1d
 10105 29dd 94090000 		.4byte	0x994
 10106 29e1 14       		.byte	0x14
 10107 29e2 18       		.uleb128 0x18
 10108 29e3 74696D00 		.ascii	"tim\000"
 10109 29e7 2A       		.byte	0x2a
 10110 29e8 8B03     		.2byte	0x38b
 10111 29ea 1E       		.byte	0x1e
 10112 29eb 032B0000 		.4byte	0x2b03
 10113 29ef 18       		.byte	0x18
 10114 29f0 00       		.byte	0
 10115 29f1 03       		.uleb128 0x3
 10116 29f2 DD0E0000 		.4byte	.LASF508
 10117 29f6 29       		.byte	0x29
 10118 29f7 5A       		.byte	0x5a
ARM GAS  /tmp/ccpnbTSa.s 			page 179


 10119 29f8 10       		.byte	0x10
 10120 29f9 FD290000 		.4byte	0x29fd
 10121 29fd 0E       		.uleb128 0xe
 10122 29fe 04       		.byte	0x4
 10123 29ff 032A0000 		.4byte	0x2a03
 10124 2a03 1B       		.uleb128 0x1b
 10125 2a04 0E2A0000 		.4byte	0x2a0e
 10126 2a08 1A       		.uleb128 0x1a
 10127 2a09 0E2A0000 		.4byte	0x2a0e
 10128 2a0d 00       		.byte	0
 10129 2a0e 0E       		.uleb128 0xe
 10130 2a0f 04       		.byte	0x4
 10131 2a10 74290000 		.4byte	0x2974
 10132 2a14 06       		.uleb128 0x6
 10133 2a15 F0120000 		.4byte	.LASF509
 10134 2a19 2A       		.byte	0x2a
 10135 2a1a 1703     		.2byte	0x317
 10136 2a1c 12       		.byte	0x12
 10137 2a1d 94090000 		.4byte	0x994
 10138 2a21 06       		.uleb128 0x6
 10139 2a22 03150000 		.4byte	.LASF510
 10140 2a26 2A       		.byte	0x2a
 10141 2a27 1C03     		.2byte	0x31c
 10142 2a29 11       		.byte	0x11
 10143 2a2a 66090000 		.4byte	0x966
 10144 2a2e 06       		.uleb128 0x6
 10145 2a2f 4A030000 		.4byte	.LASF511
 10146 2a33 2A       		.byte	0x2a
 10147 2a34 2103     		.2byte	0x321
 10148 2a36 12       		.byte	0x12
 10149 2a37 94090000 		.4byte	0x994
 10150 2a3b 06       		.uleb128 0x6
 10151 2a3c 0F0C0000 		.4byte	.LASF512
 10152 2a40 2A       		.byte	0x2a
 10153 2a41 2603     		.2byte	0x326
 10154 2a43 12       		.byte	0x12
 10155 2a44 94090000 		.4byte	0x994
 10156 2a48 21       		.uleb128 0x21
 10157 2a49 08       		.byte	0x8
 10158 2a4a 2A       		.byte	0x2a
 10159 2a4b 2B03     		.2byte	0x32b
 10160 2a4d 09       		.byte	0x9
 10161 2a4e 6F2A0000 		.4byte	0x2a6f
 10162 2a52 17       		.uleb128 0x17
 10163 2a53 14080000 		.4byte	.LASF513
 10164 2a57 2A       		.byte	0x2a
 10165 2a58 2F03     		.2byte	0x32f
 10166 2a5a 1D       		.byte	0x1d
 10167 2a5b 142A0000 		.4byte	0x2a14
 10168 2a5f 00       		.byte	0
 10169 2a60 17       		.uleb128 0x17
 10170 2a61 FD130000 		.4byte	.LASF514
 10171 2a65 2A       		.byte	0x2a
 10172 2a66 3503     		.2byte	0x335
 10173 2a68 1D       		.byte	0x1d
 10174 2a69 F1290000 		.4byte	0x29f1
 10175 2a6d 04       		.byte	0x4
ARM GAS  /tmp/ccpnbTSa.s 			page 180


 10176 2a6e 00       		.byte	0
 10177 2a6f 06       		.uleb128 0x6
 10178 2a70 FE0B0000 		.4byte	.LASF515
 10179 2a74 2A       		.byte	0x2a
 10180 2a75 3703     		.2byte	0x337
 10181 2a77 03       		.byte	0x3
 10182 2a78 482A0000 		.4byte	0x2a48
 10183 2a7c 21       		.uleb128 0x21
 10184 2a7d 44       		.byte	0x44
 10185 2a7e 2A       		.byte	0x2a
 10186 2a7f 3C03     		.2byte	0x33c
 10187 2a81 09       		.byte	0x9
 10188 2a82 DB2A0000 		.4byte	0x2adb
 10189 2a86 17       		.uleb128 0x17
 10190 2a87 8F200000 		.4byte	.LASF516
 10191 2a8b 2A       		.byte	0x2a
 10192 2a8c 4203     		.2byte	0x342
 10193 2a8e 1D       		.byte	0x1d
 10194 2a8f 94090000 		.4byte	0x994
 10195 2a93 00       		.byte	0
 10196 2a94 17       		.uleb128 0x17
 10197 2a95 05110000 		.4byte	.LASF504
 10198 2a99 2A       		.byte	0x2a
 10199 2a9a 4803     		.2byte	0x348
 10200 2a9c 1D       		.byte	0x1d
 10201 2a9d 3B2A0000 		.4byte	0x2a3b
 10202 2aa1 04       		.byte	0x4
 10203 2aa2 17       		.uleb128 0x17
 10204 2aa3 FD130000 		.4byte	.LASF514
 10205 2aa7 2A       		.byte	0x2a
 10206 2aa8 4E03     		.2byte	0x34e
 10207 2aaa 1D       		.byte	0x1d
 10208 2aab F1290000 		.4byte	0x29f1
 10209 2aaf 08       		.byte	0x8
 10210 2ab0 17       		.uleb128 0x17
 10211 2ab1 881F0000 		.4byte	.LASF506
 10212 2ab5 2A       		.byte	0x2a
 10213 2ab6 5203     		.2byte	0x352
 10214 2ab8 1D       		.byte	0x1d
 10215 2ab9 DB2A0000 		.4byte	0x2adb
 10216 2abd 0C       		.byte	0xc
 10217 2abe 18       		.uleb128 0x18
 10218 2abf 63723200 		.ascii	"cr2\000"
 10219 2ac3 2A       		.byte	0x2a
 10220 2ac4 5803     		.2byte	0x358
 10221 2ac6 1D       		.byte	0x1d
 10222 2ac7 94090000 		.4byte	0x994
 10223 2acb 3C       		.byte	0x3c
 10224 2acc 17       		.uleb128 0x17
 10225 2acd DA0A0000 		.4byte	.LASF517
 10226 2ad1 2A       		.byte	0x2a
 10227 2ad2 6503     		.2byte	0x365
 10228 2ad4 1D       		.byte	0x1d
 10229 2ad5 94090000 		.4byte	0x994
 10230 2ad9 40       		.byte	0x40
 10231 2ada 00       		.byte	0
 10232 2adb 09       		.uleb128 0x9
ARM GAS  /tmp/ccpnbTSa.s 			page 181


 10233 2adc 6F2A0000 		.4byte	0x2a6f
 10234 2ae0 EB2A0000 		.4byte	0x2aeb
 10235 2ae4 0A       		.uleb128 0xa
 10236 2ae5 3D000000 		.4byte	0x3d
 10237 2ae9 05       		.byte	0x5
 10238 2aea 00       		.byte	0
 10239 2aeb 06       		.uleb128 0x6
 10240 2aec 6B0A0000 		.4byte	.LASF518
 10241 2af0 2A       		.byte	0x2a
 10242 2af1 6603     		.2byte	0x366
 10243 2af3 03       		.byte	0x3
 10244 2af4 7C2A0000 		.4byte	0x2a7c
 10245 2af8 15       		.uleb128 0x15
 10246 2af9 EB2A0000 		.4byte	0x2aeb
 10247 2afd 0E       		.uleb128 0xe
 10248 2afe 04       		.byte	0x4
 10249 2aff F82A0000 		.4byte	0x2af8
 10250 2b03 0E       		.uleb128 0xe
 10251 2b04 04       		.byte	0x4
 10252 2b05 DD200000 		.4byte	0x20dd
 10253 2b09 1C       		.uleb128 0x1c
 10254 2b0a A80F0000 		.4byte	.LASF519
 10255 2b0e 2A       		.byte	0x2a
 10256 2b0f AA03     		.2byte	0x3aa
 10257 2b11 12       		.byte	0x12
 10258 2b12 74290000 		.4byte	0x2974
 10259 2b16 1C       		.uleb128 0x1c
 10260 2b17 04120000 		.4byte	.LASF520
 10261 2b1b 2A       		.byte	0x2a
 10262 2b1c B203     		.2byte	0x3b2
 10263 2b1e 12       		.byte	0x12
 10264 2b1f 74290000 		.4byte	0x2974
 10265 2b23 1C       		.uleb128 0x1c
 10266 2b24 B60F0000 		.4byte	.LASF521
 10267 2b28 2A       		.byte	0x2a
 10268 2b29 B603     		.2byte	0x3b6
 10269 2b2b 12       		.byte	0x12
 10270 2b2c 74290000 		.4byte	0x2974
 10271 2b30 1C       		.uleb128 0x1c
 10272 2b31 BC0F0000 		.4byte	.LASF522
 10273 2b35 2A       		.byte	0x2a
 10274 2b36 BA03     		.2byte	0x3ba
 10275 2b38 12       		.byte	0x12
 10276 2b39 74290000 		.4byte	0x2974
 10277 2b3d 1C       		.uleb128 0x1c
 10278 2b3e C80F0000 		.4byte	.LASF523
 10279 2b42 2A       		.byte	0x2a
 10280 2b43 BE03     		.2byte	0x3be
 10281 2b45 12       		.byte	0x12
 10282 2b46 74290000 		.4byte	0x2974
 10283 2b4a 29       		.uleb128 0x29
 10284 2b4b 07       		.byte	0x7
 10285 2b4c 01       		.byte	0x1
 10286 2b4d 72000000 		.4byte	0x72
 10287 2b51 2B       		.byte	0x2b
 10288 2b52 58       		.byte	0x58
 10289 2b53 0E       		.byte	0xe
ARM GAS  /tmp/ccpnbTSa.s 			page 182


 10290 2b54 6B2B0000 		.4byte	0x2b6b
 10291 2b58 2A       		.uleb128 0x2a
 10292 2b59 50060000 		.4byte	.LASF524
 10293 2b5d 00       		.byte	0
 10294 2b5e 2A       		.uleb128 0x2a
 10295 2b5f 8A0B0000 		.4byte	.LASF525
 10296 2b63 01       		.byte	0x1
 10297 2b64 2A       		.uleb128 0x2a
 10298 2b65 09220000 		.4byte	.LASF526
 10299 2b69 02       		.byte	0x2
 10300 2b6a 00       		.byte	0
 10301 2b6b 03       		.uleb128 0x3
 10302 2b6c 51090000 		.4byte	.LASF527
 10303 2b70 2B       		.byte	0x2b
 10304 2b71 5C       		.byte	0x5c
 10305 2b72 03       		.byte	0x3
 10306 2b73 4A2B0000 		.4byte	0x2b4a
 10307 2b77 03       		.uleb128 0x3
 10308 2b78 1E010000 		.4byte	.LASF528
 10309 2b7c 2B       		.byte	0x2b
 10310 2b7d 61       		.byte	0x61
 10311 2b7e 1D       		.byte	0x1d
 10312 2b7f 832B0000 		.4byte	0x2b83
 10313 2b83 10       		.uleb128 0x10
 10314 2b84 1E010000 		.4byte	.LASF528
 10315 2b88 60       		.byte	0x60
 10316 2b89 2B       		.byte	0x2b
 10317 2b8a 7B       		.byte	0x7b
 10318 2b8b 08       		.byte	0x8
 10319 2b8c F92B0000 		.4byte	0x2bf9
 10320 2b90 11       		.uleb128 0x11
 10321 2b91 766D7400 		.ascii	"vmt\000"
 10322 2b95 2B       		.byte	0x2b
 10323 2b96 7D       		.byte	0x7d
 10324 2b97 21       		.byte	0x21
 10325 2b98 C22C0000 		.4byte	0x2cc2
 10326 2b9c 00       		.byte	0
 10327 2b9d 0C       		.uleb128 0xc
 10328 2b9e 43000000 		.4byte	.LASF529
 10329 2ba2 2B       		.byte	0x2b
 10330 2ba3 7E       		.byte	0x7e
 10331 2ba4 03       		.byte	0x3
 10332 2ba5 7F1C0000 		.4byte	0x1c7f
 10333 2ba9 04       		.byte	0x4
 10334 2baa 0C       		.uleb128 0xc
 10335 2bab CA130000 		.4byte	.LASF153
 10336 2baf 2B       		.byte	0x2b
 10337 2bb0 7E       		.byte	0x7e
 10338 2bb1 03       		.byte	0x3
 10339 2bb2 6B2B0000 		.4byte	0x2b6b
 10340 2bb6 08       		.byte	0x8
 10341 2bb7 0C       		.uleb128 0xc
 10342 2bb8 DE150000 		.4byte	.LASF530
 10343 2bbc 2B       		.byte	0x2b
 10344 2bbd 7E       		.byte	0x7e
 10345 2bbe 03       		.byte	0x3
 10346 2bbf A0230000 		.4byte	0x23a0
ARM GAS  /tmp/ccpnbTSa.s 			page 183


 10347 2bc3 0C       		.byte	0xc
 10348 2bc4 0C       		.uleb128 0xc
 10349 2bc5 8C0E0000 		.4byte	.LASF531
 10350 2bc9 2B       		.byte	0x2b
 10351 2bca 7E       		.byte	0x7e
 10352 2bcb 03       		.byte	0x3
 10353 2bcc AC230000 		.4byte	0x23ac
 10354 2bd0 30       		.byte	0x30
 10355 2bd1 0C       		.uleb128 0xc
 10356 2bd2 74170000 		.4byte	.LASF532
 10357 2bd6 2B       		.byte	0x2b
 10358 2bd7 7E       		.byte	0x7e
 10359 2bd8 03       		.byte	0x3
 10360 2bd9 C82C0000 		.4byte	0x2cc8
 10361 2bdd 54       		.byte	0x54
 10362 2bde 0C       		.uleb128 0xc
 10363 2bdf 4D0B0000 		.4byte	.LASF507
 10364 2be3 2B       		.byte	0x2b
 10365 2be4 7E       		.byte	0x7e
 10366 2be5 03       		.byte	0x3
 10367 2be6 94090000 		.4byte	0x994
 10368 2bea 58       		.byte	0x58
 10369 2beb 0C       		.uleb128 0xc
 10370 2bec 75180000 		.4byte	.LASF533
 10371 2bf0 2B       		.byte	0x2b
 10372 2bf1 7E       		.byte	0x7e
 10373 2bf2 03       		.byte	0x3
 10374 2bf3 66090000 		.4byte	0x966
 10375 2bf7 5C       		.byte	0x5c
 10376 2bf8 00       		.byte	0
 10377 2bf9 27       		.uleb128 0x27
 10378 2bfa 53443100 		.ascii	"SD1\000"
 10379 2bfe 2C       		.byte	0x2c
 10380 2bff EC01     		.2byte	0x1ec
 10381 2c01 15       		.byte	0x15
 10382 2c02 772B0000 		.4byte	0x2b77
 10383 2c06 27       		.uleb128 0x27
 10384 2c07 53443200 		.ascii	"SD2\000"
 10385 2c0b 2C       		.byte	0x2c
 10386 2c0c EF01     		.2byte	0x1ef
 10387 2c0e 15       		.byte	0x15
 10388 2c0f 772B0000 		.4byte	0x2b77
 10389 2c13 27       		.uleb128 0x27
 10390 2c14 53443300 		.ascii	"SD3\000"
 10391 2c18 2C       		.byte	0x2c
 10392 2c19 F201     		.2byte	0x1f2
 10393 2c1b 15       		.byte	0x15
 10394 2c1c 772B0000 		.4byte	0x2b77
 10395 2c20 27       		.uleb128 0x27
 10396 2c21 53443600 		.ascii	"SD6\000"
 10397 2c25 2C       		.byte	0x2c
 10398 2c26 FB01     		.2byte	0x1fb
 10399 2c28 15       		.byte	0x15
 10400 2c29 772B0000 		.4byte	0x2b77
 10401 2c2d 10       		.uleb128 0x10
 10402 2c2e 590D0000 		.4byte	.LASF534
 10403 2c32 28       		.byte	0x28
ARM GAS  /tmp/ccpnbTSa.s 			page 184


 10404 2c33 2B       		.byte	0x2b
 10405 2c34 70       		.byte	0x70
 10406 2c35 08       		.byte	0x8
 10407 2c36 BD2C0000 		.4byte	0x2cbd
 10408 2c3a 0C       		.uleb128 0xc
 10409 2c3b B9010000 		.4byte	.LASF535
 10410 2c3f 2B       		.byte	0x2b
 10411 2c40 71       		.byte	0x71
 10412 2c41 03       		.byte	0x3
 10413 2c42 2C000000 		.4byte	0x2c
 10414 2c46 00       		.byte	0
 10415 2c47 0C       		.uleb128 0xc
 10416 2c48 CD150000 		.4byte	.LASF536
 10417 2c4c 2B       		.byte	0x2b
 10418 2c4d 71       		.byte	0x71
 10419 2c4e 03       		.byte	0x3
 10420 2c4f 09210000 		.4byte	0x2109
 10421 2c53 04       		.byte	0x4
 10422 2c54 0C       		.uleb128 0xc
 10423 2c55 02050000 		.4byte	.LASF537
 10424 2c59 2B       		.byte	0x2b
 10425 2c5a 71       		.byte	0x71
 10426 2c5b 03       		.byte	0x3
 10427 2c5c 28210000 		.4byte	0x2128
 10428 2c60 08       		.byte	0x8
 10429 2c61 11       		.uleb128 0x11
 10430 2c62 70757400 		.ascii	"put\000"
 10431 2c66 2B       		.byte	0x2b
 10432 2c67 71       		.byte	0x71
 10433 2c68 03       		.byte	0x3
 10434 2c69 42210000 		.4byte	0x2142
 10435 2c6d 0C       		.byte	0xc
 10436 2c6e 11       		.uleb128 0x11
 10437 2c6f 67657400 		.ascii	"get\000"
 10438 2c73 2B       		.byte	0x2b
 10439 2c74 71       		.byte	0x71
 10440 2c75 03       		.byte	0x3
 10441 2c76 57210000 		.4byte	0x2157
 10442 2c7a 10       		.byte	0x10
 10443 2c7b 0C       		.uleb128 0xc
 10444 2c7c D8110000 		.4byte	.LASF538
 10445 2c80 2B       		.byte	0x2b
 10446 2c81 71       		.byte	0x71
 10447 2c82 03       		.byte	0x3
 10448 2c83 76210000 		.4byte	0x2176
 10449 2c87 14       		.byte	0x14
 10450 2c88 0C       		.uleb128 0xc
 10451 2c89 A8150000 		.4byte	.LASF539
 10452 2c8d 2B       		.byte	0x2b
 10453 2c8e 71       		.byte	0x71
 10454 2c8f 03       		.byte	0x3
 10455 2c90 90210000 		.4byte	0x2190
 10456 2c94 18       		.byte	0x18
 10457 2c95 0C       		.uleb128 0xc
 10458 2c96 321E0000 		.4byte	.LASF540
 10459 2c9a 2B       		.byte	0x2b
 10460 2c9b 71       		.byte	0x71
ARM GAS  /tmp/ccpnbTSa.s 			page 185


 10461 2c9c 03       		.byte	0x3
 10462 2c9d B4210000 		.4byte	0x21b4
 10463 2ca1 1C       		.byte	0x1c
 10464 2ca2 0C       		.uleb128 0xc
 10465 2ca3 2D110000 		.4byte	.LASF541
 10466 2ca7 2B       		.byte	0x2b
 10467 2ca8 71       		.byte	0x71
 10468 2ca9 03       		.byte	0x3
 10469 2caa D8210000 		.4byte	0x21d8
 10470 2cae 20       		.byte	0x20
 10471 2caf 11       		.uleb128 0x11
 10472 2cb0 63746C00 		.ascii	"ctl\000"
 10473 2cb4 2B       		.byte	0x2b
 10474 2cb5 71       		.byte	0x71
 10475 2cb6 03       		.byte	0x3
 10476 2cb7 F7210000 		.4byte	0x21f7
 10477 2cbb 24       		.byte	0x24
 10478 2cbc 00       		.byte	0
 10479 2cbd 15       		.uleb128 0x15
 10480 2cbe 2D2C0000 		.4byte	0x2c2d
 10481 2cc2 0E       		.uleb128 0xe
 10482 2cc3 04       		.byte	0x4
 10483 2cc4 BD2C0000 		.4byte	0x2cbd
 10484 2cc8 0E       		.uleb128 0xe
 10485 2cc9 04       		.byte	0x4
 10486 2cca 40160000 		.4byte	0x1640
 10487 2cce 29       		.uleb128 0x29
 10488 2ccf 07       		.byte	0x7
 10489 2cd0 01       		.byte	0x1
 10490 2cd1 72000000 		.4byte	0x72
 10491 2cd5 2D       		.byte	0x2d
 10492 2cd6 7A       		.byte	0x7a
 10493 2cd7 0E       		.byte	0xe
 10494 2cd8 EF2C0000 		.4byte	0x2cef
 10495 2cdc 2A       		.uleb128 0x2a
 10496 2cdd 92030000 		.4byte	.LASF542
 10497 2ce1 00       		.byte	0
 10498 2ce2 2A       		.uleb128 0x2a
 10499 2ce3 0F130000 		.4byte	.LASF543
 10500 2ce7 01       		.byte	0x1
 10501 2ce8 2A       		.uleb128 0x2a
 10502 2ce9 A6100000 		.4byte	.LASF544
 10503 2ced 02       		.byte	0x2
 10504 2cee 00       		.byte	0
 10505 2cef 03       		.uleb128 0x3
 10506 2cf0 44180000 		.4byte	.LASF545
 10507 2cf4 2D       		.byte	0x2d
 10508 2cf5 7E       		.byte	0x7e
 10509 2cf6 03       		.byte	0x3
 10510 2cf7 CE2C0000 		.4byte	0x2cce
 10511 2cfb 03       		.uleb128 0x3
 10512 2cfc 7A170000 		.4byte	.LASF546
 10513 2d00 2E       		.byte	0x2e
 10514 2d01 A6       		.byte	0xa6
 10515 2d02 12       		.byte	0x12
 10516 2d03 94090000 		.4byte	0x994
 10517 2d07 03       		.uleb128 0x3
ARM GAS  /tmp/ccpnbTSa.s 			page 186


 10518 2d08 ED000000 		.4byte	.LASF547
 10519 2d0c 2E       		.byte	0x2e
 10520 2d0d AB       		.byte	0xab
 10521 2d0e 12       		.byte	0x12
 10522 2d0f 94090000 		.4byte	0x994
 10523 2d13 03       		.uleb128 0x3
 10524 2d14 4A0F0000 		.4byte	.LASF548
 10525 2d18 2E       		.byte	0x2e
 10526 2d19 B0       		.byte	0xb0
 10527 2d1a 1A       		.byte	0x1a
 10528 2d1b 1F2D0000 		.4byte	0x2d1f
 10529 2d1f 12       		.uleb128 0x12
 10530 2d20 4A0F0000 		.4byte	.LASF548
 10531 2d24 4802     		.2byte	0x248
 10532 2d26 2E       		.byte	0x2e
 10533 2d27 D0       		.byte	0xd0
 10534 2d28 08       		.byte	0x8
 10535 2d29 D72D0000 		.4byte	0x2dd7
 10536 2d2d 11       		.uleb128 0x11
 10537 2d2e 766D7400 		.ascii	"vmt\000"
 10538 2d32 2E       		.byte	0x2e
 10539 2d33 D4       		.byte	0xd4
 10540 2d34 1E       		.byte	0x1e
 10541 2d35 872E0000 		.4byte	0x2e87
 10542 2d39 00       		.byte	0
 10543 2d3a 0C       		.uleb128 0xc
 10544 2d3b CA130000 		.4byte	.LASF153
 10545 2d3f 2E       		.byte	0x2e
 10546 2d40 D5       		.byte	0xd5
 10547 2d41 03       		.byte	0x3
 10548 2d42 42220000 		.4byte	0x2242
 10549 2d46 04       		.byte	0x4
 10550 2d47 11       		.uleb128 0x11
 10551 2d48 63696400 		.ascii	"cid\000"
 10552 2d4c 2E       		.byte	0x2e
 10553 2d4d D5       		.byte	0xd5
 10554 2d4e 03       		.byte	0x3
 10555 2d4f 53100000 		.4byte	0x1053
 10556 2d53 08       		.byte	0x8
 10557 2d54 11       		.uleb128 0x11
 10558 2d55 63736400 		.ascii	"csd\000"
 10559 2d59 2E       		.byte	0x2e
 10560 2d5a D5       		.byte	0xd5
 10561 2d5b 03       		.byte	0x3
 10562 2d5c 53100000 		.4byte	0x1053
 10563 2d60 18       		.byte	0x18
 10564 2d61 0C       		.uleb128 0xc
 10565 2d62 87190000 		.4byte	.LASF549
 10566 2d66 2E       		.byte	0x2e
 10567 2d67 D5       		.byte	0xd5
 10568 2d68 03       		.byte	0x3
 10569 2d69 94090000 		.4byte	0x994
 10570 2d6d 28       		.byte	0x28
 10571 2d6e 0C       		.uleb128 0xc
 10572 2d6f FE180000 		.4byte	.LASF440
 10573 2d73 2E       		.byte	0x2e
 10574 2d74 D9       		.byte	0xd9
ARM GAS  /tmp/ccpnbTSa.s 			page 187


 10575 2d75 1E       		.byte	0x1e
 10576 2d76 8D2E0000 		.4byte	0x2e8d
 10577 2d7a 2C       		.byte	0x2c
 10578 2d7b 0C       		.uleb128 0xc
 10579 2d7c B9120000 		.4byte	.LASF550
 10580 2d80 2E       		.byte	0x2e
 10581 2d81 DD       		.byte	0xdd
 10582 2d82 1D       		.byte	0x1d
 10583 2d83 FB2C0000 		.4byte	0x2cfb
 10584 2d87 30       		.byte	0x30
 10585 2d88 0C       		.uleb128 0xc
 10586 2d89 B2010000 		.4byte	.LASF493
 10587 2d8d 2E       		.byte	0x2e
 10588 2d8e E1       		.byte	0xe1
 10589 2d8f 1D       		.byte	0x1d
 10590 2d90 072D0000 		.4byte	0x2d07
 10591 2d94 34       		.byte	0x34
 10592 2d95 11       		.uleb128 0x11
 10593 2d96 72636100 		.ascii	"rca\000"
 10594 2d9a 2E       		.byte	0x2e
 10595 2d9b E5       		.byte	0xe5
 10596 2d9c 1D       		.byte	0x1d
 10597 2d9d 94090000 		.4byte	0x994
 10598 2da1 38       		.byte	0x38
 10599 2da2 0C       		.uleb128 0xc
 10600 2da3 CE060000 		.4byte	.LASF444
 10601 2da7 2E       		.byte	0x2e
 10602 2da8 EA       		.byte	0xea
 10603 2da9 1D       		.byte	0x1d
 10604 2daa 360B0000 		.4byte	0xb36
 10605 2dae 3C       		.byte	0x3c
 10606 2daf 0C       		.uleb128 0xc
 10607 2db0 391E0000 		.4byte	.LASF551
 10608 2db4 2E       		.byte	0x2e
 10609 2db5 EF       		.byte	0xef
 10610 2db6 1E       		.byte	0x1e
 10611 2db7 932E0000 		.4byte	0x2e93
 10612 2dbb 40       		.byte	0x40
 10613 2dbc 0C       		.uleb128 0xc
 10614 2dbd 61090000 		.4byte	.LASF552
 10615 2dc1 2E       		.byte	0x2e
 10616 2dc2 F3       		.byte	0xf3
 10617 2dc3 1D       		.byte	0x1d
 10618 2dc4 94090000 		.4byte	0x994
 10619 2dc8 44       		.byte	0x44
 10620 2dc9 11       		.uleb128 0x11
 10621 2dca 62756600 		.ascii	"buf\000"
 10622 2dce 2E       		.byte	0x2e
 10623 2dcf F7       		.byte	0xf7
 10624 2dd0 1D       		.byte	0x1d
 10625 2dd1 992E0000 		.4byte	0x2e99
 10626 2dd5 48       		.byte	0x48
 10627 2dd6 00       		.byte	0
 10628 2dd7 0B       		.uleb128 0xb
 10629 2dd8 01       		.byte	0x1
 10630 2dd9 2E       		.byte	0x2e
 10631 2dda B6       		.byte	0xb6
ARM GAS  /tmp/ccpnbTSa.s 			page 188


 10632 2ddb 09       		.byte	0x9
 10633 2ddc EE2D0000 		.4byte	0x2dee
 10634 2de0 0C       		.uleb128 0xc
 10635 2de1 F81E0000 		.4byte	.LASF553
 10636 2de5 2E       		.byte	0x2e
 10637 2de6 BA       		.byte	0xba
 10638 2de7 11       		.byte	0x11
 10639 2de8 EF2C0000 		.4byte	0x2cef
 10640 2dec 00       		.byte	0
 10641 2ded 00       		.byte	0
 10642 2dee 03       		.uleb128 0x3
 10643 2def 5D0F0000 		.4byte	.LASF554
 10644 2df3 2E       		.byte	0x2e
 10645 2df4 BC       		.byte	0xbc
 10646 2df5 03       		.byte	0x3
 10647 2df6 D72D0000 		.4byte	0x2dd7
 10648 2dfa 15       		.uleb128 0x15
 10649 2dfb EE2D0000 		.4byte	0x2dee
 10650 2dff 10       		.uleb128 0x10
 10651 2e00 071F0000 		.4byte	.LASF555
 10652 2e04 24       		.byte	0x24
 10653 2e05 2E       		.byte	0x2e
 10654 2e06 C9       		.byte	0xc9
 10655 2e07 08       		.byte	0x8
 10656 2e08 822E0000 		.4byte	0x2e82
 10657 2e0c 0C       		.uleb128 0xc
 10658 2e0d B9010000 		.4byte	.LASF535
 10659 2e11 2E       		.byte	0x2e
 10660 2e12 CA       		.byte	0xca
 10661 2e13 03       		.byte	0x3
 10662 2e14 2C000000 		.4byte	0x2c
 10663 2e18 00       		.byte	0
 10664 2e19 0C       		.uleb128 0xc
 10665 2e1a AD1B0000 		.4byte	.LASF556
 10666 2e1e 2E       		.byte	0x2e
 10667 2e1f CA       		.byte	0xca
 10668 2e20 03       		.byte	0x3
 10669 2e21 8D220000 		.4byte	0x228d
 10670 2e25 04       		.byte	0x4
 10671 2e26 0C       		.uleb128 0xc
 10672 2e27 DF0A0000 		.4byte	.LASF557
 10673 2e2b 2E       		.byte	0x2e
 10674 2e2c CA       		.byte	0xca
 10675 2e2d 03       		.byte	0x3
 10676 2e2e 8D220000 		.4byte	0x228d
 10677 2e32 08       		.byte	0x8
 10678 2e33 0C       		.uleb128 0xc
 10679 2e34 9A0D0000 		.4byte	.LASF558
 10680 2e38 2E       		.byte	0x2e
 10681 2e39 CA       		.byte	0xca
 10682 2e3a 03       		.byte	0x3
 10683 2e3b 8D220000 		.4byte	0x228d
 10684 2e3f 0C       		.byte	0xc
 10685 2e40 0C       		.uleb128 0xc
 10686 2e41 C7110000 		.4byte	.LASF559
 10687 2e45 2E       		.byte	0x2e
 10688 2e46 CA       		.byte	0xca
ARM GAS  /tmp/ccpnbTSa.s 			page 189


 10689 2e47 03       		.byte	0x3
 10690 2e48 8D220000 		.4byte	0x228d
 10691 2e4c 10       		.byte	0x10
 10692 2e4d 0C       		.uleb128 0xc
 10693 2e4e 02050000 		.4byte	.LASF537
 10694 2e52 2E       		.byte	0x2e
 10695 2e53 CA       		.byte	0xca
 10696 2e54 03       		.byte	0x3
 10697 2e55 B1220000 		.4byte	0x22b1
 10698 2e59 14       		.byte	0x14
 10699 2e5a 0C       		.uleb128 0xc
 10700 2e5b CD150000 		.4byte	.LASF536
 10701 2e5f 2E       		.byte	0x2e
 10702 2e60 CA       		.byte	0xca
 10703 2e61 03       		.byte	0x3
 10704 2e62 D5220000 		.4byte	0x22d5
 10705 2e66 18       		.byte	0x18
 10706 2e67 0C       		.uleb128 0xc
 10707 2e68 6F170000 		.4byte	.LASF560
 10708 2e6c 2E       		.byte	0x2e
 10709 2e6d CA       		.byte	0xca
 10710 2e6e 03       		.byte	0x3
 10711 2e6f 8D220000 		.4byte	0x228d
 10712 2e73 1C       		.byte	0x1c
 10713 2e74 0C       		.uleb128 0xc
 10714 2e75 871E0000 		.4byte	.LASF561
 10715 2e79 2E       		.byte	0x2e
 10716 2e7a CA       		.byte	0xca
 10717 2e7b 03       		.byte	0x3
 10718 2e7c F5220000 		.4byte	0x22f5
 10719 2e80 20       		.byte	0x20
 10720 2e81 00       		.byte	0
 10721 2e82 15       		.uleb128 0x15
 10722 2e83 FF2D0000 		.4byte	0x2dff
 10723 2e87 0E       		.uleb128 0xe
 10724 2e88 04       		.byte	0x4
 10725 2e89 822E0000 		.4byte	0x2e82
 10726 2e8d 0E       		.uleb128 0xe
 10727 2e8e 04       		.byte	0x4
 10728 2e8f FA2D0000 		.4byte	0x2dfa
 10729 2e93 0E       		.uleb128 0xe
 10730 2e94 04       		.byte	0x4
 10731 2e95 7B140000 		.4byte	0x147b
 10732 2e99 09       		.uleb128 0x9
 10733 2e9a 66090000 		.4byte	0x966
 10734 2e9e AA2E0000 		.4byte	0x2eaa
 10735 2ea2 2E       		.uleb128 0x2e
 10736 2ea3 3D000000 		.4byte	0x3d
 10737 2ea7 FF01     		.2byte	0x1ff
 10738 2ea9 00       		.byte	0
 10739 2eaa 1C       		.uleb128 0x1c
 10740 2eab 11170000 		.4byte	.LASF562
 10741 2eaf 2E       		.byte	0x2e
 10742 2eb0 0301     		.2byte	0x103
 10743 2eb2 12       		.byte	0x12
 10744 2eb3 132D0000 		.4byte	0x2d13
 10745 2eb7 29       		.uleb128 0x29
ARM GAS  /tmp/ccpnbTSa.s 			page 190


 10746 2eb8 07       		.byte	0x7
 10747 2eb9 01       		.byte	0x1
 10748 2eba 72000000 		.4byte	0x72
 10749 2ebe 2F       		.byte	0x2f
 10750 2ebf 74       		.byte	0x74
 10751 2ec0 0E       		.byte	0xe
 10752 2ec1 E42E0000 		.4byte	0x2ee4
 10753 2ec5 2A       		.uleb128 0x2a
 10754 2ec6 DB060000 		.4byte	.LASF563
 10755 2eca 00       		.byte	0
 10756 2ecb 2A       		.uleb128 0x2a
 10757 2ecc 41030000 		.4byte	.LASF564
 10758 2ed0 01       		.byte	0x1
 10759 2ed1 2A       		.uleb128 0x2a
 10760 2ed2 CA1E0000 		.4byte	.LASF565
 10761 2ed6 02       		.byte	0x2
 10762 2ed7 2A       		.uleb128 0x2a
 10763 2ed8 D40C0000 		.4byte	.LASF566
 10764 2edc 03       		.byte	0x3
 10765 2edd 2A       		.uleb128 0x2a
 10766 2ede 4F110000 		.4byte	.LASF567
 10767 2ee2 04       		.byte	0x4
 10768 2ee3 00       		.byte	0
 10769 2ee4 03       		.uleb128 0x3
 10770 2ee5 87030000 		.4byte	.LASF568
 10771 2ee9 2F       		.byte	0x2f
 10772 2eea 7A       		.byte	0x7a
 10773 2eeb 03       		.byte	0x3
 10774 2eec B72E0000 		.4byte	0x2eb7
 10775 2ef0 03       		.uleb128 0x3
 10776 2ef1 121E0000 		.4byte	.LASF569
 10777 2ef5 2F       		.byte	0x2f
 10778 2ef6 7F       		.byte	0x7f
 10779 2ef7 1F       		.byte	0x1f
 10780 2ef8 FC2E0000 		.4byte	0x2efc
 10781 2efc 10       		.uleb128 0x10
 10782 2efd 84040000 		.4byte	.LASF570
 10783 2f01 30       		.byte	0x30
 10784 2f02 2F       		.byte	0x2f
 10785 2f03 C0       		.byte	0xc0
 10786 2f04 08       		.byte	0x8
 10787 2f05 7D2F0000 		.4byte	0x2f7d
 10788 2f09 0C       		.uleb128 0xc
 10789 2f0a CA130000 		.4byte	.LASF153
 10790 2f0e 2F       		.byte	0x2f
 10791 2f0f C4       		.byte	0xc4
 10792 2f10 1D       		.byte	0x1d
 10793 2f11 E42E0000 		.4byte	0x2ee4
 10794 2f15 00       		.byte	0
 10795 2f16 0C       		.uleb128 0xc
 10796 2f17 FE180000 		.4byte	.LASF440
 10797 2f1b 2F       		.byte	0x2f
 10798 2f1c C8       		.byte	0xc8
 10799 2f1d 1E       		.byte	0x1e
 10800 2f1e 53300000 		.4byte	0x3053
 10801 2f22 04       		.byte	0x4
 10802 2f23 0C       		.uleb128 0xc
ARM GAS  /tmp/ccpnbTSa.s 			page 191


 10803 2f24 CE060000 		.4byte	.LASF444
 10804 2f28 2F       		.byte	0x2f
 10805 2f29 CD       		.byte	0xcd
 10806 2f2a 1D       		.byte	0x1d
 10807 2f2b 360B0000 		.4byte	0xb36
 10808 2f2f 08       		.byte	0x8
 10809 2f30 0C       		.uleb128 0xc
 10810 2f31 1C0B0000 		.4byte	.LASF445
 10811 2f35 2F       		.byte	0x2f
 10812 2f36 D3       		.byte	0xd3
 10813 2f37 1D       		.byte	0x1d
 10814 2f38 F11B0000 		.4byte	0x1bf1
 10815 2f3c 0C       		.byte	0xc
 10816 2f3d 11       		.uleb128 0x11
 10817 2f3e 73706900 		.ascii	"spi\000"
 10818 2f42 2F       		.byte	0x2f
 10819 2f43 D9       		.byte	0xd9
 10820 2f44 03       		.byte	0x3
 10821 2f45 59300000 		.4byte	0x3059
 10822 2f49 1C       		.byte	0x1c
 10823 2f4a 11       		.uleb128 0x11
 10824 2f4b 727800   		.ascii	"rx\000"
 10825 2f4e 2F       		.byte	0x2f
 10826 2f4f D9       		.byte	0xd9
 10827 2f50 03       		.byte	0x3
 10828 2f51 27300000 		.4byte	0x3027
 10829 2f55 20       		.byte	0x20
 10830 2f56 11       		.uleb128 0x11
 10831 2f57 747800   		.ascii	"tx\000"
 10832 2f5a 2F       		.byte	0x2f
 10833 2f5b D9       		.byte	0xd9
 10834 2f5c 03       		.byte	0x3
 10835 2f5d 3D300000 		.4byte	0x303d
 10836 2f61 24       		.byte	0x24
 10837 2f62 0C       		.uleb128 0xc
 10838 2f63 00080000 		.4byte	.LASF496
 10839 2f67 2F       		.byte	0x2f
 10840 2f68 D9       		.byte	0xd9
 10841 2f69 03       		.byte	0x3
 10842 2f6a 94090000 		.4byte	0x994
 10843 2f6e 28       		.byte	0x28
 10844 2f6f 0C       		.uleb128 0xc
 10845 2f70 43080000 		.4byte	.LASF497
 10846 2f74 2F       		.byte	0x2f
 10847 2f75 D9       		.byte	0xd9
 10848 2f76 03       		.byte	0x3
 10849 2f77 94090000 		.4byte	0x994
 10850 2f7b 2C       		.byte	0x2c
 10851 2f7c 00       		.byte	0
 10852 2f7d 03       		.uleb128 0x3
 10853 2f7e DD1C0000 		.4byte	.LASF571
 10854 2f82 2F       		.byte	0x2f
 10855 2f83 83       		.byte	0x83
 10856 2f84 1F       		.byte	0x1f
 10857 2f85 8E2F0000 		.4byte	0x2f8e
 10858 2f89 15       		.uleb128 0x15
 10859 2f8a 7D2F0000 		.4byte	0x2f7d
ARM GAS  /tmp/ccpnbTSa.s 			page 192


 10860 2f8e 10       		.uleb128 0x10
 10861 2f8f 99200000 		.4byte	.LASF572
 10862 2f93 18       		.byte	0x18
 10863 2f94 2F       		.byte	0x2f
 10864 2f95 94       		.byte	0x94
 10865 2f96 08       		.byte	0x8
 10866 2f97 EA2F0000 		.4byte	0x2fea
 10867 2f9b 0C       		.uleb128 0xc
 10868 2f9c 091E0000 		.4byte	.LASF456
 10869 2fa0 2F       		.byte	0x2f
 10870 2fa1 99       		.byte	0x99
 10871 2fa2 1D       		.byte	0x1d
 10872 2fa3 8B1C0000 		.4byte	0x1c8b
 10873 2fa7 00       		.byte	0
 10874 2fa8 0C       		.uleb128 0xc
 10875 2fa9 82080000 		.4byte	.LASF458
 10876 2fad 2F       		.byte	0x2f
 10877 2fae 9E       		.byte	0x9e
 10878 2faf 1D       		.byte	0x1d
 10879 2fb0 EA2F0000 		.4byte	0x2fea
 10880 2fb4 04       		.byte	0x4
 10881 2fb5 0C       		.uleb128 0xc
 10882 2fb6 911F0000 		.4byte	.LASF573
 10883 2fba 2F       		.byte	0x2f
 10884 2fbb B3       		.byte	0xb3
 10885 2fbc 1D       		.byte	0x1d
 10886 2fbd 97240000 		.4byte	0x2497
 10887 2fc1 08       		.byte	0x8
 10888 2fc2 0C       		.uleb128 0xc
 10889 2fc3 3D080000 		.4byte	.LASF574
 10890 2fc7 2F       		.byte	0x2f
 10891 2fc8 B7       		.byte	0xb7
 10892 2fc9 1D       		.byte	0x1d
 10893 2fca B6090000 		.4byte	0x9b6
 10894 2fce 0C       		.byte	0xc
 10895 2fcf 0C       		.uleb128 0xc
 10896 2fd0 94130000 		.4byte	.LASF575
 10897 2fd4 2F       		.byte	0x2f
 10898 2fd5 BA       		.byte	0xba
 10899 2fd6 03       		.byte	0x3
 10900 2fd7 94090000 		.4byte	0x994
 10901 2fdb 10       		.byte	0x10
 10902 2fdc 0C       		.uleb128 0xc
 10903 2fdd 92150000 		.4byte	.LASF576
 10904 2fe1 2F       		.byte	0x2f
 10905 2fe2 BA       		.byte	0xba
 10906 2fe3 03       		.byte	0x3
 10907 2fe4 94090000 		.4byte	0x994
 10908 2fe8 14       		.byte	0x14
 10909 2fe9 00       		.byte	0
 10910 2fea 03       		.uleb128 0x3
 10911 2feb C9010000 		.4byte	.LASF577
 10912 2fef 2F       		.byte	0x2f
 10913 2ff0 8B       		.byte	0x8b
 10914 2ff1 10       		.byte	0x10
 10915 2ff2 F62F0000 		.4byte	0x2ff6
 10916 2ff6 0E       		.uleb128 0xe
ARM GAS  /tmp/ccpnbTSa.s 			page 193


 10917 2ff7 04       		.byte	0x4
 10918 2ff8 FC2F0000 		.4byte	0x2ffc
 10919 2ffc 1B       		.uleb128 0x1b
 10920 2ffd 07300000 		.4byte	0x3007
 10921 3001 1A       		.uleb128 0x1a
 10922 3002 07300000 		.4byte	0x3007
 10923 3006 00       		.byte	0
 10924 3007 0E       		.uleb128 0xe
 10925 3008 04       		.byte	0x4
 10926 3009 F02E0000 		.4byte	0x2ef0
 10927 300d 1C       		.uleb128 0x1c
 10928 300e 351C0000 		.4byte	.LASF578
 10929 3012 30       		.byte	0x30
 10930 3013 1C02     		.2byte	0x21c
 10931 3015 12       		.byte	0x12
 10932 3016 F02E0000 		.4byte	0x2ef0
 10933 301a 1C       		.uleb128 0x1c
 10934 301b 3B1C0000 		.4byte	.LASF579
 10935 301f 30       		.byte	0x30
 10936 3020 2402     		.2byte	0x224
 10937 3022 12       		.byte	0x12
 10938 3023 F02E0000 		.4byte	0x2ef0
 10939 3027 07       		.uleb128 0x7
 10940 3028 04       		.byte	0x4
 10941 3029 2F       		.byte	0x2f
 10942 302a D9       		.byte	0xd9
 10943 302b 03       		.byte	0x3
 10944 302c 3D300000 		.4byte	0x303d
 10945 3030 23       		.uleb128 0x23
 10946 3031 646D6100 		.ascii	"dma\000"
 10947 3035 2F       		.byte	0x2f
 10948 3036 D9       		.byte	0xd9
 10949 3037 03       		.byte	0x3
 10950 3038 26270000 		.4byte	0x2726
 10951 303c 00       		.byte	0
 10952 303d 07       		.uleb128 0x7
 10953 303e 04       		.byte	0x4
 10954 303f 2F       		.byte	0x2f
 10955 3040 D9       		.byte	0xd9
 10956 3041 03       		.byte	0x3
 10957 3042 53300000 		.4byte	0x3053
 10958 3046 23       		.uleb128 0x23
 10959 3047 646D6100 		.ascii	"dma\000"
 10960 304b 2F       		.byte	0x2f
 10961 304c D9       		.byte	0xd9
 10962 304d 03       		.byte	0x3
 10963 304e 26270000 		.4byte	0x2726
 10964 3052 00       		.byte	0
 10965 3053 0E       		.uleb128 0xe
 10966 3054 04       		.byte	0x4
 10967 3055 892F0000 		.4byte	0x2f89
 10968 3059 0E       		.uleb128 0xe
 10969 305a 04       		.byte	0x4
 10970 305b 80150000 		.4byte	0x1580
 10971 305f 29       		.uleb128 0x29
 10972 3060 07       		.byte	0x7
 10973 3061 01       		.byte	0x1
ARM GAS  /tmp/ccpnbTSa.s 			page 194


 10974 3062 72000000 		.4byte	0x72
 10975 3066 31       		.byte	0x31
 10976 3067 31       		.byte	0x31
 10977 3068 0E       		.byte	0xe
 10978 3069 86300000 		.4byte	0x3086
 10979 306d 2A       		.uleb128 0x2a
 10980 306e D7070000 		.4byte	.LASF580
 10981 3072 00       		.byte	0
 10982 3073 2A       		.uleb128 0x2a
 10983 3074 46050000 		.4byte	.LASF581
 10984 3078 01       		.byte	0x1
 10985 3079 2A       		.uleb128 0x2a
 10986 307a 5D030000 		.4byte	.LASF582
 10987 307e 02       		.byte	0x2
 10988 307f 2A       		.uleb128 0x2a
 10989 3080 DD0D0000 		.4byte	.LASF583
 10990 3084 03       		.byte	0x3
 10991 3085 00       		.byte	0
 10992 3086 03       		.uleb128 0x3
 10993 3087 E5150000 		.4byte	.LASF584
 10994 308b 31       		.byte	0x31
 10995 308c 36       		.byte	0x36
 10996 308d 03       		.byte	0x3
 10997 308e 5F300000 		.4byte	0x305f
 10998 3092 03       		.uleb128 0x3
 10999 3093 DC010000 		.4byte	.LASF585
 11000 3097 31       		.byte	0x31
 11001 3098 3B       		.byte	0x3b
 11002 3099 20       		.byte	0x20
 11003 309a 9E300000 		.4byte	0x309e
 11004 309e 10       		.uleb128 0x10
 11005 309f AC000000 		.4byte	.LASF586
 11006 30a3 0C       		.byte	0xc
 11007 30a4 31       		.byte	0x31
 11008 30a5 52       		.byte	0x52
 11009 30a6 08       		.byte	0x8
 11010 30a7 D3300000 		.4byte	0x30d3
 11011 30ab 0C       		.uleb128 0xc
 11012 30ac CA130000 		.4byte	.LASF153
 11013 30b0 31       		.byte	0x31
 11014 30b1 56       		.byte	0x56
 11015 30b2 1E       		.byte	0x1e
 11016 30b3 86300000 		.4byte	0x3086
 11017 30b7 00       		.byte	0
 11018 30b8 0C       		.uleb128 0xc
 11019 30b9 FE180000 		.4byte	.LASF440
 11020 30bd 31       		.byte	0x31
 11021 30be 5A       		.byte	0x5a
 11022 30bf 1F       		.byte	0x1f
 11023 30c0 0A310000 		.4byte	0x310a
 11024 30c4 04       		.byte	0x4
 11025 30c5 11       		.uleb128 0x11
 11026 30c6 726E6700 		.ascii	"rng\000"
 11027 30ca 31       		.byte	0x31
 11028 30cb 5F       		.byte	0x5f
 11029 30cc 03       		.byte	0x3
 11030 30cd 10310000 		.4byte	0x3110
ARM GAS  /tmp/ccpnbTSa.s 			page 195


 11031 30d1 08       		.byte	0x8
 11032 30d2 00       		.byte	0
 11033 30d3 03       		.uleb128 0x3
 11034 30d4 E7010000 		.4byte	.LASF587
 11035 30d8 31       		.byte	0x31
 11036 30d9 41       		.byte	0x41
 11037 30da 20       		.byte	0x20
 11038 30db E4300000 		.4byte	0x30e4
 11039 30df 15       		.uleb128 0x15
 11040 30e0 D3300000 		.4byte	0x30d3
 11041 30e4 10       		.uleb128 0x10
 11042 30e5 D1000000 		.4byte	.LASF588
 11043 30e9 04       		.byte	0x4
 11044 30ea 31       		.byte	0x31
 11045 30eb 4A       		.byte	0x4a
 11046 30ec 08       		.byte	0x8
 11047 30ed FE300000 		.4byte	0x30fe
 11048 30f1 11       		.uleb128 0x11
 11049 30f2 637200   		.ascii	"cr\000"
 11050 30f5 31       		.byte	0x31
 11051 30f6 4C       		.byte	0x4c
 11052 30f7 03       		.byte	0x3
 11053 30f8 94090000 		.4byte	0x994
 11054 30fc 00       		.byte	0
 11055 30fd 00       		.byte	0
 11056 30fe 20       		.uleb128 0x20
 11057 30ff 21160000 		.4byte	.LASF589
 11058 3103 32       		.byte	0x32
 11059 3104 7B       		.byte	0x7b
 11060 3105 13       		.byte	0x13
 11061 3106 92300000 		.4byte	0x3092
 11062 310a 0E       		.uleb128 0xe
 11063 310b 04       		.byte	0x4
 11064 310c DF300000 		.4byte	0x30df
 11065 3110 0E       		.uleb128 0xe
 11066 3111 04       		.byte	0x4
 11067 3112 7F160000 		.4byte	0x167f
 11068 3116 06       		.uleb128 0x6
 11069 3117 840F0000 		.4byte	.LASF590
 11070 311b 33       		.byte	0x33
 11071 311c 0301     		.2byte	0x103
 11072 311e 1A       		.byte	0x1a
 11073 311f 23310000 		.4byte	0x3123
 11074 3123 16       		.uleb128 0x16
 11075 3124 840F0000 		.4byte	.LASF590
 11076 3128 9C       		.byte	0x9c
 11077 3129 34       		.byte	0x34
 11078 312a A501     		.2byte	0x1a5
 11079 312c 08       		.byte	0x8
 11080 312d 3C320000 		.4byte	0x323c
 11081 3131 17       		.uleb128 0x17
 11082 3132 CA130000 		.4byte	.LASF153
 11083 3136 34       		.byte	0x34
 11084 3137 A901     		.2byte	0x1a9
 11085 3139 21       		.byte	0x21
 11086 313a 7D320000 		.4byte	0x327d
 11087 313e 00       		.byte	0
ARM GAS  /tmp/ccpnbTSa.s 			page 196


 11088 313f 17       		.uleb128 0x17
 11089 3140 FE180000 		.4byte	.LASF440
 11090 3144 34       		.byte	0x34
 11091 3145 AD01     		.2byte	0x1ad
 11092 3147 22       		.byte	0x22
 11093 3148 AA3B0000 		.4byte	0x3baa
 11094 314c 04       		.byte	0x4
 11095 314d 17       		.uleb128 0x17
 11096 314e 111D0000 		.4byte	.LASF591
 11097 3152 34       		.byte	0x34
 11098 3153 B101     		.2byte	0x1b1
 11099 3155 21       		.byte	0x21
 11100 3156 77090000 		.4byte	0x977
 11101 315a 08       		.byte	0x8
 11102 315b 17       		.uleb128 0x17
 11103 315c AB1F0000 		.4byte	.LASF592
 11104 3160 34       		.byte	0x34
 11105 3161 B501     		.2byte	0x1b5
 11106 3163 21       		.byte	0x21
 11107 3164 77090000 		.4byte	0x977
 11108 3168 0A       		.byte	0xa
 11109 3169 18       		.uleb128 0x18
 11110 316a 65706300 		.ascii	"epc\000"
 11111 316e 34       		.byte	0x34
 11112 316f B901     		.2byte	0x1b9
 11113 3171 22       		.byte	0x22
 11114 3172 B03B0000 		.4byte	0x3bb0
 11115 3176 0C       		.byte	0xc
 11116 3177 17       		.uleb128 0x17
 11117 3178 B4040000 		.4byte	.LASF593
 11118 317c 34       		.byte	0x34
 11119 317d C001     		.2byte	0x1c0
 11120 317f 22       		.byte	0x22
 11121 3180 C63B0000 		.4byte	0x3bc6
 11122 3184 30       		.byte	0x30
 11123 3185 17       		.uleb128 0x17
 11124 3186 A40A0000 		.4byte	.LASF594
 11125 318a 34       		.byte	0x34
 11126 318b C701     		.2byte	0x1c7
 11127 318d 22       		.byte	0x22
 11128 318e C63B0000 		.4byte	0x3bc6
 11129 3192 50       		.byte	0x50
 11130 3193 17       		.uleb128 0x17
 11131 3194 D5080000 		.4byte	.LASF595
 11132 3198 34       		.byte	0x34
 11133 3199 CB01     		.2byte	0x1cb
 11134 319b 21       		.byte	0x21
 11135 319c E6320000 		.4byte	0x32e6
 11136 31a0 70       		.byte	0x70
 11137 31a1 17       		.uleb128 0x17
 11138 31a2 6D180000 		.4byte	.LASF596
 11139 31a6 34       		.byte	0x34
 11140 31a7 CF01     		.2byte	0x1cf
 11141 31a9 22       		.byte	0x22
 11142 31aa DC1C0000 		.4byte	0x1cdc
 11143 31ae 74       		.byte	0x74
 11144 31af 17       		.uleb128 0x17
ARM GAS  /tmp/ccpnbTSa.s 			page 197


 11145 31b0 37150000 		.4byte	.LASF597
 11146 31b4 34       		.byte	0x34
 11147 31b5 D301     		.2byte	0x1d3
 11148 31b7 21       		.byte	0x21
 11149 31b8 2C000000 		.4byte	0x2c
 11150 31bc 78       		.byte	0x78
 11151 31bd 17       		.uleb128 0x17
 11152 31be 07050000 		.4byte	.LASF598
 11153 31c2 34       		.byte	0x34
 11154 31c3 D701     		.2byte	0x1d7
 11155 31c5 21       		.byte	0x21
 11156 31c6 73330000 		.4byte	0x3373
 11157 31ca 7C       		.byte	0x7c
 11158 31cb 17       		.uleb128 0x17
 11159 31cc D5060000 		.4byte	.LASF599
 11160 31d0 34       		.byte	0x34
 11161 31d1 DB01     		.2byte	0x1db
 11162 31d3 21       		.byte	0x21
 11163 31d4 D63B0000 		.4byte	0x3bd6
 11164 31d8 80       		.byte	0x80
 11165 31d9 17       		.uleb128 0x17
 11166 31da FA120000 		.4byte	.LASF600
 11167 31de 34       		.byte	0x34
 11168 31df DF01     		.2byte	0x1df
 11169 31e1 21       		.byte	0x21
 11170 31e2 77090000 		.4byte	0x977
 11171 31e6 88       		.byte	0x88
 11172 31e7 17       		.uleb128 0x17
 11173 31e8 3E130000 		.4byte	.LASF601
 11174 31ec 34       		.byte	0x34
 11175 31ed E301     		.2byte	0x1e3
 11176 31ef 21       		.byte	0x21
 11177 31f0 66090000 		.4byte	0x966
 11178 31f4 8A       		.byte	0x8a
 11179 31f5 17       		.uleb128 0x17
 11180 31f6 D9170000 		.4byte	.LASF602
 11181 31fa 34       		.byte	0x34
 11182 31fb E701     		.2byte	0x1e7
 11183 31fd 21       		.byte	0x21
 11184 31fe 66090000 		.4byte	0x966
 11185 3202 8B       		.byte	0x8b
 11186 3203 17       		.uleb128 0x17
 11187 3204 74060000 		.4byte	.LASF603
 11188 3208 34       		.byte	0x34
 11189 3209 EB01     		.2byte	0x1eb
 11190 320b 21       		.byte	0x21
 11191 320c 7D320000 		.4byte	0x327d
 11192 3210 8C       		.byte	0x8c
 11193 3211 18       		.uleb128 0x18
 11194 3212 6F746700 		.ascii	"otg\000"
 11195 3216 34       		.byte	0x34
 11196 3217 F301     		.2byte	0x1f3
 11197 3219 22       		.byte	0x22
 11198 321a E63B0000 		.4byte	0x3be6
 11199 321e 90       		.byte	0x90
 11200 321f 17       		.uleb128 0x17
 11201 3220 490C0000 		.4byte	.LASF604
ARM GAS  /tmp/ccpnbTSa.s 			page 198


 11202 3224 34       		.byte	0x34
 11203 3225 F701     		.2byte	0x1f7
 11204 3227 22       		.byte	0x22
 11205 3228 EC3B0000 		.4byte	0x3bec
 11206 322c 94       		.byte	0x94
 11207 322d 17       		.uleb128 0x17
 11208 322e F31B0000 		.4byte	.LASF605
 11209 3232 34       		.byte	0x34
 11210 3233 FB01     		.2byte	0x1fb
 11211 3235 21       		.byte	0x21
 11212 3236 94090000 		.4byte	0x994
 11213 323a 98       		.byte	0x98
 11214 323b 00       		.byte	0
 11215 323c 06       		.uleb128 0x6
 11216 323d 87200000 		.4byte	.LASF606
 11217 3241 33       		.byte	0x33
 11218 3242 0801     		.2byte	0x108
 11219 3244 11       		.byte	0x11
 11220 3245 66090000 		.4byte	0x966
 11221 3249 2B       		.uleb128 0x2b
 11222 324a 07       		.byte	0x7
 11223 324b 01       		.byte	0x1
 11224 324c 72000000 		.4byte	0x72
 11225 3250 33       		.byte	0x33
 11226 3251 0D01     		.2byte	0x10d
 11227 3253 0E       		.byte	0xe
 11228 3254 7D320000 		.4byte	0x327d
 11229 3258 2A       		.uleb128 0x2a
 11230 3259 17210000 		.4byte	.LASF607
 11231 325d 00       		.byte	0
 11232 325e 2A       		.uleb128 0x2a
 11233 325f C8070000 		.4byte	.LASF608
 11234 3263 01       		.byte	0x1
 11235 3264 2A       		.uleb128 0x2a
 11236 3265 23110000 		.4byte	.LASF609
 11237 3269 02       		.byte	0x2
 11238 326a 2A       		.uleb128 0x2a
 11239 326b B0160000 		.4byte	.LASF610
 11240 326f 03       		.byte	0x3
 11241 3270 2A       		.uleb128 0x2a
 11242 3271 BD070000 		.4byte	.LASF611
 11243 3275 04       		.byte	0x4
 11244 3276 2A       		.uleb128 0x2a
 11245 3277 F31D0000 		.4byte	.LASF612
 11246 327b 05       		.byte	0x5
 11247 327c 00       		.byte	0
 11248 327d 06       		.uleb128 0x6
 11249 327e 12220000 		.4byte	.LASF613
 11250 3282 33       		.byte	0x33
 11251 3283 1401     		.2byte	0x114
 11252 3285 03       		.byte	0x3
 11253 3286 49320000 		.4byte	0x3249
 11254 328a 2B       		.uleb128 0x2b
 11255 328b 07       		.byte	0x7
 11256 328c 01       		.byte	0x1
 11257 328d 72000000 		.4byte	0x72
 11258 3291 33       		.byte	0x33
ARM GAS  /tmp/ccpnbTSa.s 			page 199


 11259 3292 1901     		.2byte	0x119
 11260 3294 0E       		.byte	0xe
 11261 3295 AC320000 		.4byte	0x32ac
 11262 3299 2A       		.uleb128 0x2a
 11263 329a F11A0000 		.4byte	.LASF614
 11264 329e 00       		.byte	0
 11265 329f 2A       		.uleb128 0x2a
 11266 32a0 2F0C0000 		.4byte	.LASF615
 11267 32a4 01       		.byte	0x1
 11268 32a5 2A       		.uleb128 0x2a
 11269 32a6 55040000 		.4byte	.LASF616
 11270 32aa 02       		.byte	0x2
 11271 32ab 00       		.byte	0
 11272 32ac 2B       		.uleb128 0x2b
 11273 32ad 07       		.byte	0x7
 11274 32ae 01       		.byte	0x1
 11275 32af 72000000 		.4byte	0x72
 11276 32b3 33       		.byte	0x33
 11277 32b4 2201     		.2byte	0x122
 11278 32b6 0E       		.byte	0xe
 11279 32b7 E6320000 		.4byte	0x32e6
 11280 32bb 2A       		.uleb128 0x2a
 11281 32bc 91180000 		.4byte	.LASF617
 11282 32c0 00       		.byte	0
 11283 32c1 2A       		.uleb128 0x2a
 11284 32c2 D41E0000 		.4byte	.LASF618
 11285 32c6 09       		.byte	0x9
 11286 32c7 2A       		.uleb128 0x2a
 11287 32c8 C6020000 		.4byte	.LASF619
 11288 32cc 0A       		.byte	0xa
 11289 32cd 2A       		.uleb128 0x2a
 11290 32ce 2E1A0000 		.4byte	.LASF620
 11291 32d2 0B       		.byte	0xb
 11292 32d3 2A       		.uleb128 0x2a
 11293 32d4 E7170000 		.4byte	.LASF621
 11294 32d8 14       		.byte	0x14
 11295 32d9 2A       		.uleb128 0x2a
 11296 32da 840D0000 		.4byte	.LASF622
 11297 32de 15       		.byte	0x15
 11298 32df 2A       		.uleb128 0x2a
 11299 32e0 760D0000 		.4byte	.LASF623
 11300 32e4 06       		.byte	0x6
 11301 32e5 00       		.byte	0
 11302 32e6 06       		.uleb128 0x6
 11303 32e7 300F0000 		.4byte	.LASF624
 11304 32eb 33       		.byte	0x33
 11305 32ec 2A01     		.2byte	0x12a
 11306 32ee 03       		.byte	0x3
 11307 32ef AC320000 		.4byte	0x32ac
 11308 32f3 2B       		.uleb128 0x2b
 11309 32f4 07       		.byte	0x7
 11310 32f5 01       		.byte	0x1
 11311 32f6 72000000 		.4byte	0x72
 11312 32fa 33       		.byte	0x33
 11313 32fb 2F01     		.2byte	0x12f
 11314 32fd 0E       		.byte	0xe
 11315 32fe 2D330000 		.4byte	0x332d
ARM GAS  /tmp/ccpnbTSa.s 			page 200


 11316 3302 2A       		.uleb128 0x2a
 11317 3303 451A0000 		.4byte	.LASF625
 11318 3307 00       		.byte	0
 11319 3308 2A       		.uleb128 0x2a
 11320 3309 F7160000 		.4byte	.LASF626
 11321 330d 01       		.byte	0x1
 11322 330e 2A       		.uleb128 0x2a
 11323 330f B2110000 		.4byte	.LASF627
 11324 3313 02       		.byte	0x2
 11325 3314 2A       		.uleb128 0x2a
 11326 3315 F8000000 		.4byte	.LASF628
 11327 3319 03       		.byte	0x3
 11328 331a 2A       		.uleb128 0x2a
 11329 331b 44120000 		.4byte	.LASF629
 11330 331f 04       		.byte	0x4
 11331 3320 2A       		.uleb128 0x2a
 11332 3321 271F0000 		.4byte	.LASF630
 11333 3325 05       		.byte	0x5
 11334 3326 2A       		.uleb128 0x2a
 11335 3327 63110000 		.4byte	.LASF631
 11336 332b 06       		.byte	0x6
 11337 332c 00       		.byte	0
 11338 332d 06       		.uleb128 0x6
 11339 332e 21170000 		.4byte	.LASF632
 11340 3332 33       		.byte	0x33
 11341 3333 3701     		.2byte	0x137
 11342 3335 03       		.byte	0x3
 11343 3336 F3320000 		.4byte	0x32f3
 11344 333a 21       		.uleb128 0x21
 11345 333b 08       		.byte	0x8
 11346 333c 33       		.byte	0x33
 11347 333d 3C01     		.2byte	0x13c
 11348 333f 09       		.byte	0x9
 11349 3340 61330000 		.4byte	0x3361
 11350 3344 17       		.uleb128 0x17
 11351 3345 BF210000 		.4byte	.LASF633
 11352 3349 33       		.byte	0x33
 11353 334a 4001     		.2byte	0x140
 11354 334c 21       		.byte	0x21
 11355 334d 2C000000 		.4byte	0x2c
 11356 3351 00       		.byte	0
 11357 3352 17       		.uleb128 0x17
 11358 3353 DB040000 		.4byte	.LASF634
 11359 3357 33       		.byte	0x33
 11360 3358 4401     		.2byte	0x144
 11361 335a 22       		.byte	0x22
 11362 335b 03210000 		.4byte	0x2103
 11363 335f 04       		.byte	0x4
 11364 3360 00       		.byte	0
 11365 3361 06       		.uleb128 0x6
 11366 3362 3E170000 		.4byte	.LASF635
 11367 3366 33       		.byte	0x33
 11368 3367 4501     		.2byte	0x145
 11369 3369 03       		.byte	0x3
 11370 336a 3A330000 		.4byte	0x333a
 11371 336e 15       		.uleb128 0x15
 11372 336f 61330000 		.4byte	0x3361
ARM GAS  /tmp/ccpnbTSa.s 			page 201


 11373 3373 06       		.uleb128 0x6
 11374 3374 5B210000 		.4byte	.LASF636
 11375 3378 33       		.byte	0x33
 11376 3379 4D01     		.2byte	0x14d
 11377 337b 10       		.byte	0x10
 11378 337c 80330000 		.4byte	0x3380
 11379 3380 0E       		.uleb128 0xe
 11380 3381 04       		.byte	0x4
 11381 3382 86330000 		.4byte	0x3386
 11382 3386 1B       		.uleb128 0x1b
 11383 3387 91330000 		.4byte	0x3391
 11384 338b 1A       		.uleb128 0x1a
 11385 338c 91330000 		.4byte	0x3391
 11386 3390 00       		.byte	0
 11387 3391 0E       		.uleb128 0xe
 11388 3392 04       		.byte	0x4
 11389 3393 16310000 		.4byte	0x3116
 11390 3397 06       		.uleb128 0x6
 11391 3398 29050000 		.4byte	.LASF637
 11392 339c 33       		.byte	0x33
 11393 339d 5601     		.2byte	0x156
 11394 339f 10       		.byte	0x10
 11395 33a0 A4330000 		.4byte	0x33a4
 11396 33a4 0E       		.uleb128 0xe
 11397 33a5 04       		.byte	0x4
 11398 33a6 AA330000 		.4byte	0x33aa
 11399 33aa 1B       		.uleb128 0x1b
 11400 33ab BA330000 		.4byte	0x33ba
 11401 33af 1A       		.uleb128 0x1a
 11402 33b0 91330000 		.4byte	0x3391
 11403 33b4 1A       		.uleb128 0x1a
 11404 33b5 3C320000 		.4byte	0x323c
 11405 33b9 00       		.byte	0
 11406 33ba 06       		.uleb128 0x6
 11407 33bb DD090000 		.4byte	.LASF638
 11408 33bf 33       		.byte	0x33
 11409 33c0 5F01     		.2byte	0x15f
 11410 33c2 10       		.byte	0x10
 11411 33c3 C7330000 		.4byte	0x33c7
 11412 33c7 0E       		.uleb128 0xe
 11413 33c8 04       		.byte	0x4
 11414 33c9 CD330000 		.4byte	0x33cd
 11415 33cd 1B       		.uleb128 0x1b
 11416 33ce DD330000 		.4byte	0x33dd
 11417 33d2 1A       		.uleb128 0x1a
 11418 33d3 91330000 		.4byte	0x3391
 11419 33d7 1A       		.uleb128 0x1a
 11420 33d8 2D330000 		.4byte	0x332d
 11421 33dc 00       		.byte	0
 11422 33dd 06       		.uleb128 0x6
 11423 33de 33060000 		.4byte	.LASF639
 11424 33e2 33       		.byte	0x33
 11425 33e3 6B01     		.2byte	0x16b
 11426 33e5 10       		.byte	0x10
 11427 33e6 EA330000 		.4byte	0x33ea
 11428 33ea 0E       		.uleb128 0xe
 11429 33eb 04       		.byte	0x4
ARM GAS  /tmp/ccpnbTSa.s 			page 202


 11430 33ec F0330000 		.4byte	0x33f0
 11431 33f0 19       		.uleb128 0x19
 11432 33f1 8B1C0000 		.4byte	0x1c8b
 11433 33f5 FF330000 		.4byte	0x33ff
 11434 33f9 1A       		.uleb128 0x1a
 11435 33fa 91330000 		.4byte	0x3391
 11436 33fe 00       		.byte	0
 11437 33ff 06       		.uleb128 0x6
 11438 3400 EA0D0000 		.4byte	.LASF640
 11439 3404 33       		.byte	0x33
 11440 3405 7001     		.2byte	0x170
 11441 3407 21       		.byte	0x21
 11442 3408 0C340000 		.4byte	0x340c
 11443 340c 0E       		.uleb128 0xe
 11444 340d 04       		.byte	0x4
 11445 340e 12340000 		.4byte	0x3412
 11446 3412 19       		.uleb128 0x19
 11447 3413 30340000 		.4byte	0x3430
 11448 3417 30340000 		.4byte	0x3430
 11449 341b 1A       		.uleb128 0x1a
 11450 341c 91330000 		.4byte	0x3391
 11451 3420 1A       		.uleb128 0x1a
 11452 3421 66090000 		.4byte	0x966
 11453 3425 1A       		.uleb128 0x1a
 11454 3426 66090000 		.4byte	0x966
 11455 342a 1A       		.uleb128 0x1a
 11456 342b 77090000 		.4byte	0x977
 11457 342f 00       		.byte	0
 11458 3430 0E       		.uleb128 0xe
 11459 3431 04       		.byte	0x4
 11460 3432 6E330000 		.4byte	0x336e
 11461 3436 0B       		.uleb128 0xb
 11462 3437 20       		.byte	0x20
 11463 3438 35       		.byte	0x35
 11464 3439 29       		.byte	0x29
 11465 343a 09       		.byte	0x9
 11466 343b A8340000 		.4byte	0x34a8
 11467 343f 0C       		.uleb128 0xc
 11468 3440 A0030000 		.4byte	.LASF641
 11469 3444 35       		.byte	0x35
 11470 3445 2A       		.byte	0x2a
 11471 3446 15       		.byte	0x15
 11472 3447 A0090000 		.4byte	0x9a0
 11473 344b 00       		.byte	0
 11474 344c 0C       		.uleb128 0xc
 11475 344d 970B0000 		.4byte	.LASF642
 11476 3451 35       		.byte	0x35
 11477 3452 2C       		.byte	0x2c
 11478 3453 15       		.byte	0x15
 11479 3454 A0090000 		.4byte	0x9a0
 11480 3458 04       		.byte	0x4
 11481 3459 0C       		.uleb128 0xc
 11482 345a 23030000 		.4byte	.LASF643
 11483 345e 35       		.byte	0x35
 11484 345f 2D       		.byte	0x2d
 11485 3460 15       		.byte	0x15
 11486 3461 A0090000 		.4byte	0x9a0
ARM GAS  /tmp/ccpnbTSa.s 			page 203


 11487 3465 08       		.byte	0x8
 11488 3466 0C       		.uleb128 0xc
 11489 3467 EF180000 		.4byte	.LASF644
 11490 346b 35       		.byte	0x35
 11491 346c 2E       		.byte	0x2e
 11492 346d 15       		.byte	0x15
 11493 346e A0090000 		.4byte	0x9a0
 11494 3472 0C       		.byte	0xc
 11495 3473 0C       		.uleb128 0xc
 11496 3474 EA110000 		.4byte	.LASF645
 11497 3478 35       		.byte	0x35
 11498 3479 30       		.byte	0x30
 11499 347a 15       		.byte	0x15
 11500 347b A0090000 		.4byte	0x9a0
 11501 347f 10       		.byte	0x10
 11502 3480 0C       		.uleb128 0xc
 11503 3481 68030000 		.4byte	.LASF646
 11504 3485 35       		.byte	0x35
 11505 3486 32       		.byte	0x32
 11506 3487 15       		.byte	0x15
 11507 3488 A0090000 		.4byte	0x9a0
 11508 348c 14       		.byte	0x14
 11509 348d 0C       		.uleb128 0xc
 11510 348e E90B0000 		.4byte	.LASF647
 11511 3492 35       		.byte	0x35
 11512 3493 33       		.byte	0x33
 11513 3494 15       		.byte	0x15
 11514 3495 A0090000 		.4byte	0x9a0
 11515 3499 18       		.byte	0x18
 11516 349a 0C       		.uleb128 0xc
 11517 349b 33040000 		.4byte	.LASF648
 11518 349f 35       		.byte	0x35
 11519 34a0 34       		.byte	0x34
 11520 34a1 15       		.byte	0x15
 11521 34a2 A0090000 		.4byte	0x9a0
 11522 34a6 1C       		.byte	0x1c
 11523 34a7 00       		.byte	0
 11524 34a8 03       		.uleb128 0x3
 11525 34a9 7C180000 		.4byte	.LASF649
 11526 34ad 35       		.byte	0x35
 11527 34ae 35       		.byte	0x35
 11528 34af 03       		.byte	0x3
 11529 34b0 36340000 		.4byte	0x3436
 11530 34b4 0B       		.uleb128 0xb
 11531 34b5 20       		.byte	0x20
 11532 34b6 35       		.byte	0x35
 11533 34b7 3A       		.byte	0x3a
 11534 34b8 09       		.byte	0x9
 11535 34b9 26350000 		.4byte	0x3526
 11536 34bd 0C       		.uleb128 0xc
 11537 34be 410C0000 		.4byte	.LASF650
 11538 34c2 35       		.byte	0x35
 11539 34c3 3B       		.byte	0x3b
 11540 34c4 15       		.byte	0x15
 11541 34c5 A0090000 		.4byte	0x9a0
 11542 34c9 00       		.byte	0
 11543 34ca 0C       		.uleb128 0xc
ARM GAS  /tmp/ccpnbTSa.s 			page 204


 11544 34cb 830B0000 		.4byte	.LASF651
 11545 34cf 35       		.byte	0x35
 11546 34d0 3D       		.byte	0x3d
 11547 34d1 15       		.byte	0x15
 11548 34d2 A0090000 		.4byte	0x9a0
 11549 34d6 04       		.byte	0x4
 11550 34d7 0C       		.uleb128 0xc
 11551 34d8 611C0000 		.4byte	.LASF652
 11552 34dc 35       		.byte	0x35
 11553 34dd 3E       		.byte	0x3e
 11554 34de 15       		.byte	0x15
 11555 34df A0090000 		.4byte	0x9a0
 11556 34e3 08       		.byte	0x8
 11557 34e4 0C       		.uleb128 0xc
 11558 34e5 A10F0000 		.4byte	.LASF653
 11559 34e9 35       		.byte	0x35
 11560 34ea 40       		.byte	0x40
 11561 34eb 15       		.byte	0x15
 11562 34ec A0090000 		.4byte	0x9a0
 11563 34f0 0C       		.byte	0xc
 11564 34f1 0C       		.uleb128 0xc
 11565 34f2 86140000 		.4byte	.LASF654
 11566 34f6 35       		.byte	0x35
 11567 34f7 41       		.byte	0x41
 11568 34f8 15       		.byte	0x15
 11569 34f9 A0090000 		.4byte	0x9a0
 11570 34fd 10       		.byte	0x10
 11571 34fe 0C       		.uleb128 0xc
 11572 34ff 68030000 		.4byte	.LASF646
 11573 3503 35       		.byte	0x35
 11574 3504 43       		.byte	0x43
 11575 3505 15       		.byte	0x15
 11576 3506 A0090000 		.4byte	0x9a0
 11577 350a 14       		.byte	0x14
 11578 350b 0C       		.uleb128 0xc
 11579 350c 51180000 		.4byte	.LASF655
 11580 3510 35       		.byte	0x35
 11581 3511 44       		.byte	0x44
 11582 3512 15       		.byte	0x15
 11583 3513 A0090000 		.4byte	0x9a0
 11584 3517 18       		.byte	0x18
 11585 3518 0C       		.uleb128 0xc
 11586 3519 F60B0000 		.4byte	.LASF656
 11587 351d 35       		.byte	0x35
 11588 351e 46       		.byte	0x46
 11589 351f 15       		.byte	0x15
 11590 3520 A0090000 		.4byte	0x9a0
 11591 3524 1C       		.byte	0x1c
 11592 3525 00       		.byte	0
 11593 3526 03       		.uleb128 0x3
 11594 3527 E3070000 		.4byte	.LASF657
 11595 352b 35       		.byte	0x35
 11596 352c 47       		.byte	0x47
 11597 352d 03       		.byte	0x3
 11598 352e B4340000 		.4byte	0x34b4
 11599 3532 0B       		.uleb128 0xb
 11600 3533 20       		.byte	0x20
ARM GAS  /tmp/ccpnbTSa.s 			page 205


 11601 3534 35       		.byte	0x35
 11602 3535 4C       		.byte	0x4c
 11603 3536 09       		.byte	0x9
 11604 3537 A4350000 		.4byte	0x35a4
 11605 353b 0C       		.uleb128 0xc
 11606 353c 92120000 		.4byte	.LASF658
 11607 3540 35       		.byte	0x35
 11608 3541 4D       		.byte	0x4d
 11609 3542 15       		.byte	0x15
 11610 3543 A0090000 		.4byte	0x9a0
 11611 3547 00       		.byte	0
 11612 3548 0C       		.uleb128 0xc
 11613 3549 830B0000 		.4byte	.LASF651
 11614 354d 35       		.byte	0x35
 11615 354e 4F       		.byte	0x4f
 11616 354f 15       		.byte	0x15
 11617 3550 A0090000 		.4byte	0x9a0
 11618 3554 04       		.byte	0x4
 11619 3555 0C       		.uleb128 0xc
 11620 3556 F9150000 		.4byte	.LASF659
 11621 355a 35       		.byte	0x35
 11622 355b 50       		.byte	0x50
 11623 355c 15       		.byte	0x15
 11624 355d A0090000 		.4byte	0x9a0
 11625 3561 08       		.byte	0x8
 11626 3562 0C       		.uleb128 0xc
 11627 3563 A10F0000 		.4byte	.LASF653
 11628 3567 35       		.byte	0x35
 11629 3568 52       		.byte	0x52
 11630 3569 15       		.byte	0x15
 11631 356a A0090000 		.4byte	0x9a0
 11632 356e 0C       		.byte	0xc
 11633 356f 0C       		.uleb128 0xc
 11634 3570 641D0000 		.4byte	.LASF660
 11635 3574 35       		.byte	0x35
 11636 3575 53       		.byte	0x53
 11637 3576 15       		.byte	0x15
 11638 3577 A0090000 		.4byte	0x9a0
 11639 357b 10       		.byte	0x10
 11640 357c 0C       		.uleb128 0xc
 11641 357d 68030000 		.4byte	.LASF646
 11642 3581 35       		.byte	0x35
 11643 3582 55       		.byte	0x55
 11644 3583 15       		.byte	0x15
 11645 3584 A0090000 		.4byte	0x9a0
 11646 3588 14       		.byte	0x14
 11647 3589 0C       		.uleb128 0xc
 11648 358a E90B0000 		.4byte	.LASF647
 11649 358e 35       		.byte	0x35
 11650 358f 56       		.byte	0x56
 11651 3590 15       		.byte	0x15
 11652 3591 A0090000 		.4byte	0x9a0
 11653 3595 18       		.byte	0x18
 11654 3596 0C       		.uleb128 0xc
 11655 3597 F60B0000 		.4byte	.LASF656
 11656 359b 35       		.byte	0x35
 11657 359c 57       		.byte	0x57
ARM GAS  /tmp/ccpnbTSa.s 			page 206


 11658 359d 15       		.byte	0x15
 11659 359e A0090000 		.4byte	0x9a0
 11660 35a2 1C       		.byte	0x1c
 11661 35a3 00       		.byte	0
 11662 35a4 03       		.uleb128 0x3
 11663 35a5 6A070000 		.4byte	.LASF661
 11664 35a9 35       		.byte	0x35
 11665 35aa 58       		.byte	0x58
 11666 35ab 03       		.byte	0x3
 11667 35ac 32350000 		.4byte	0x3532
 11668 35b0 2F       		.uleb128 0x2f
 11669 35b1 00100100 		.4byte	0x11000
 11670 35b5 35       		.byte	0x35
 11671 35b6 5D       		.byte	0x5d
 11672 35b7 09       		.byte	0x9
 11673 35b8 C7380000 		.4byte	0x38c7
 11674 35bc 0C       		.uleb128 0xc
 11675 35bd 21050000 		.4byte	.LASF662
 11676 35c1 35       		.byte	0x35
 11677 35c2 5E       		.byte	0x5e
 11678 35c3 15       		.byte	0x15
 11679 35c4 A0090000 		.4byte	0x9a0
 11680 35c8 00       		.byte	0
 11681 35c9 0C       		.uleb128 0xc
 11682 35ca C5150000 		.4byte	.LASF663
 11683 35ce 35       		.byte	0x35
 11684 35cf 5F       		.byte	0x5f
 11685 35d0 15       		.byte	0x15
 11686 35d1 A0090000 		.4byte	0x9a0
 11687 35d5 04       		.byte	0x4
 11688 35d6 0C       		.uleb128 0xc
 11689 35d7 34070000 		.4byte	.LASF664
 11690 35db 35       		.byte	0x35
 11691 35dc 60       		.byte	0x60
 11692 35dd 15       		.byte	0x15
 11693 35de A0090000 		.4byte	0x9a0
 11694 35e2 08       		.byte	0x8
 11695 35e3 0C       		.uleb128 0xc
 11696 35e4 7D210000 		.4byte	.LASF665
 11697 35e8 35       		.byte	0x35
 11698 35e9 61       		.byte	0x61
 11699 35ea 15       		.byte	0x15
 11700 35eb A0090000 		.4byte	0x9a0
 11701 35ef 0C       		.byte	0xc
 11702 35f0 0C       		.uleb128 0xc
 11703 35f1 011E0000 		.4byte	.LASF666
 11704 35f5 35       		.byte	0x35
 11705 35f6 62       		.byte	0x62
 11706 35f7 15       		.byte	0x15
 11707 35f8 A0090000 		.4byte	0x9a0
 11708 35fc 10       		.byte	0x10
 11709 35fd 0C       		.uleb128 0xc
 11710 35fe F0030000 		.4byte	.LASF667
 11711 3602 35       		.byte	0x35
 11712 3603 63       		.byte	0x63
 11713 3604 15       		.byte	0x15
 11714 3605 A0090000 		.4byte	0x9a0
ARM GAS  /tmp/ccpnbTSa.s 			page 207


 11715 3609 14       		.byte	0x14
 11716 360a 0C       		.uleb128 0xc
 11717 360b C8170000 		.4byte	.LASF668
 11718 360f 35       		.byte	0x35
 11719 3610 64       		.byte	0x64
 11720 3611 15       		.byte	0x15
 11721 3612 A0090000 		.4byte	0x9a0
 11722 3616 18       		.byte	0x18
 11723 3617 0C       		.uleb128 0xc
 11724 3618 85070000 		.4byte	.LASF669
 11725 361c 35       		.byte	0x35
 11726 361d 65       		.byte	0x65
 11727 361e 15       		.byte	0x15
 11728 361f A0090000 		.4byte	0x9a0
 11729 3623 1C       		.byte	0x1c
 11730 3624 0C       		.uleb128 0xc
 11731 3625 7D070000 		.4byte	.LASF670
 11732 3629 35       		.byte	0x35
 11733 362a 67       		.byte	0x67
 11734 362b 15       		.byte	0x15
 11735 362c A0090000 		.4byte	0x9a0
 11736 3630 20       		.byte	0x20
 11737 3631 0C       		.uleb128 0xc
 11738 3632 67170000 		.4byte	.LASF671
 11739 3636 35       		.byte	0x35
 11740 3637 69       		.byte	0x69
 11741 3638 15       		.byte	0x15
 11742 3639 A0090000 		.4byte	0x9a0
 11743 363d 24       		.byte	0x24
 11744 363e 0C       		.uleb128 0xc
 11745 363f 0F010000 		.4byte	.LASF672
 11746 3643 35       		.byte	0x35
 11747 3644 6A       		.byte	0x6a
 11748 3645 15       		.byte	0x15
 11749 3646 A0090000 		.4byte	0x9a0
 11750 364a 28       		.byte	0x28
 11751 364b 0C       		.uleb128 0xc
 11752 364c D0170000 		.4byte	.LASF673
 11753 3650 35       		.byte	0x35
 11754 3651 6C       		.byte	0x6c
 11755 3652 15       		.byte	0x15
 11756 3653 A0090000 		.4byte	0x9a0
 11757 3657 2C       		.byte	0x2c
 11758 3658 0C       		.uleb128 0xc
 11759 3659 170D0000 		.4byte	.LASF674
 11760 365d 35       		.byte	0x35
 11761 365e 6E       		.byte	0x6e
 11762 365f 15       		.byte	0x15
 11763 3660 A0090000 		.4byte	0x9a0
 11764 3664 30       		.byte	0x30
 11765 3665 0C       		.uleb128 0xc
 11766 3666 651F0000 		.4byte	.LASF675
 11767 366a 35       		.byte	0x35
 11768 366b 6F       		.byte	0x6f
 11769 366c 15       		.byte	0x15
 11770 366d A0090000 		.4byte	0x9a0
 11771 3671 34       		.byte	0x34
ARM GAS  /tmp/ccpnbTSa.s 			page 208


 11772 3672 0C       		.uleb128 0xc
 11773 3673 2A020000 		.4byte	.LASF676
 11774 3677 35       		.byte	0x35
 11775 3678 70       		.byte	0x70
 11776 3679 15       		.byte	0x15
 11777 367a A0090000 		.4byte	0x9a0
 11778 367e 38       		.byte	0x38
 11779 367f 11       		.uleb128 0x11
 11780 3680 43494400 		.ascii	"CID\000"
 11781 3684 35       		.byte	0x35
 11782 3685 71       		.byte	0x71
 11783 3686 15       		.byte	0x15
 11784 3687 A0090000 		.4byte	0x9a0
 11785 368b 3C       		.byte	0x3c
 11786 368c 0C       		.uleb128 0xc
 11787 368d 35080000 		.4byte	.LASF677
 11788 3691 35       		.byte	0x35
 11789 3692 72       		.byte	0x72
 11790 3693 15       		.byte	0x15
 11791 3694 D7380000 		.4byte	0x38d7
 11792 3698 40       		.byte	0x40
 11793 3699 13       		.uleb128 0x13
 11794 369a 4D1E0000 		.4byte	.LASF678
 11795 369e 35       		.byte	0x35
 11796 369f 73       		.byte	0x73
 11797 36a0 15       		.byte	0x15
 11798 36a1 A0090000 		.4byte	0x9a0
 11799 36a5 0001     		.2byte	0x100
 11800 36a7 13       		.uleb128 0x13
 11801 36a8 BE020000 		.4byte	.LASF679
 11802 36ac 35       		.byte	0x35
 11803 36ad 75       		.byte	0x75
 11804 36ae 15       		.byte	0x15
 11805 36af 9C160000 		.4byte	0x169c
 11806 36b3 0401     		.2byte	0x104
 11807 36b5 13       		.uleb128 0x13
 11808 36b6 19120000 		.4byte	.LASF680
 11809 36ba 35       		.byte	0x35
 11810 36bb 77       		.byte	0x77
 11811 36bc 15       		.byte	0x15
 11812 36bd EC380000 		.4byte	0x38ec
 11813 36c1 4001     		.2byte	0x140
 11814 36c3 13       		.uleb128 0x13
 11815 36c4 6E150000 		.4byte	.LASF681
 11816 36c8 35       		.byte	0x35
 11817 36c9 78       		.byte	0x78
 11818 36ca 15       		.byte	0x15
 11819 36cb A0090000 		.4byte	0x9a0
 11820 36cf 0004     		.2byte	0x400
 11821 36d1 13       		.uleb128 0x13
 11822 36d2 12210000 		.4byte	.LASF682
 11823 36d6 35       		.byte	0x35
 11824 36d7 79       		.byte	0x79
 11825 36d8 15       		.byte	0x15
 11826 36d9 A0090000 		.4byte	0x9a0
 11827 36dd 0404     		.2byte	0x404
 11828 36df 13       		.uleb128 0x13
ARM GAS  /tmp/ccpnbTSa.s 			page 209


 11829 36e0 7E040000 		.4byte	.LASF683
 11830 36e4 35       		.byte	0x35
 11831 36e5 7A       		.byte	0x7a
 11832 36e6 15       		.byte	0x15
 11833 36e7 A0090000 		.4byte	0x9a0
 11834 36eb 0804     		.2byte	0x408
 11835 36ed 13       		.uleb128 0x13
 11836 36ee EA1D0000 		.4byte	.LASF684
 11837 36f2 35       		.byte	0x35
 11838 36f3 7C       		.byte	0x7c
 11839 36f4 15       		.byte	0x15
 11840 36f5 A0090000 		.4byte	0x9a0
 11841 36f9 0C04     		.2byte	0x40c
 11842 36fb 13       		.uleb128 0x13
 11843 36fc 70030000 		.4byte	.LASF685
 11844 3700 35       		.byte	0x35
 11845 3701 7D       		.byte	0x7d
 11846 3702 15       		.byte	0x15
 11847 3703 A0090000 		.4byte	0x9a0
 11848 3707 1004     		.2byte	0x410
 11849 3709 13       		.uleb128 0x13
 11850 370a 46040000 		.4byte	.LASF686
 11851 370e 35       		.byte	0x35
 11852 370f 7F       		.byte	0x7f
 11853 3710 15       		.byte	0x15
 11854 3711 A0090000 		.4byte	0x9a0
 11855 3715 1404     		.2byte	0x414
 11856 3717 13       		.uleb128 0x13
 11857 3718 9B0A0000 		.4byte	.LASF687
 11858 371c 35       		.byte	0x35
 11859 371d 81       		.byte	0x81
 11860 371e 15       		.byte	0x15
 11861 371f A0090000 		.4byte	0x9a0
 11862 3723 1804     		.2byte	0x418
 11863 3725 13       		.uleb128 0x13
 11864 3726 F3190000 		.4byte	.LASF688
 11865 372a 35       		.byte	0x35
 11866 372b 83       		.byte	0x83
 11867 372c 15       		.byte	0x15
 11868 372d 01390000 		.4byte	0x3901
 11869 3731 1C04     		.2byte	0x41c
 11870 3733 13       		.uleb128 0x13
 11871 3734 1E030000 		.4byte	.LASF689
 11872 3738 35       		.byte	0x35
 11873 3739 84       		.byte	0x84
 11874 373a 15       		.byte	0x15
 11875 373b A0090000 		.4byte	0x9a0
 11876 373f 4004     		.2byte	0x440
 11877 3741 13       		.uleb128 0x13
 11878 3742 A41B0000 		.4byte	.LASF690
 11879 3746 35       		.byte	0x35
 11880 3747 86       		.byte	0x86
 11881 3748 15       		.byte	0x15
 11882 3749 16390000 		.4byte	0x3916
 11883 374d 4404     		.2byte	0x444
 11884 374f 30       		.uleb128 0x30
 11885 3750 686300   		.ascii	"hc\000"
ARM GAS  /tmp/ccpnbTSa.s 			page 210


 11886 3753 35       		.byte	0x35
 11887 3754 87       		.byte	0x87
 11888 3755 18       		.byte	0x18
 11889 3756 1B390000 		.4byte	0x391b
 11890 375a 0005     		.2byte	0x500
 11891 375c 13       		.uleb128 0x13
 11892 375d 1C1E0000 		.4byte	.LASF691
 11893 3761 35       		.byte	0x35
 11894 3762 88       		.byte	0x88
 11895 3763 15       		.byte	0x15
 11896 3764 3B390000 		.4byte	0x393b
 11897 3768 0007     		.2byte	0x700
 11898 376a 13       		.uleb128 0x13
 11899 376b AF170000 		.4byte	.LASF692
 11900 376f 35       		.byte	0x35
 11901 3770 89       		.byte	0x89
 11902 3771 15       		.byte	0x15
 11903 3772 A0090000 		.4byte	0x9a0
 11904 3776 0008     		.2byte	0x800
 11905 3778 13       		.uleb128 0x13
 11906 3779 021F0000 		.4byte	.LASF693
 11907 377d 35       		.byte	0x35
 11908 377e 8A       		.byte	0x8a
 11909 377f 15       		.byte	0x15
 11910 3780 A0090000 		.4byte	0x9a0
 11911 3784 0408     		.2byte	0x804
 11912 3786 13       		.uleb128 0x13
 11913 3787 AF0A0000 		.4byte	.LASF694
 11914 378b 35       		.byte	0x35
 11915 378c 8B       		.byte	0x8b
 11916 378d 15       		.byte	0x15
 11917 378e A0090000 		.4byte	0x9a0
 11918 3792 0808     		.2byte	0x808
 11919 3794 13       		.uleb128 0x13
 11920 3795 10050000 		.4byte	.LASF695
 11921 3799 35       		.byte	0x35
 11922 379a 8C       		.byte	0x8c
 11923 379b 15       		.byte	0x15
 11924 379c A0090000 		.4byte	0x9a0
 11925 37a0 0C08     		.2byte	0x80c
 11926 37a2 13       		.uleb128 0x13
 11927 37a3 830A0000 		.4byte	.LASF696
 11928 37a7 35       		.byte	0x35
 11929 37a8 8D       		.byte	0x8d
 11930 37a9 15       		.byte	0x15
 11931 37aa A0090000 		.4byte	0x9a0
 11932 37ae 1008     		.2byte	0x810
 11933 37b0 13       		.uleb128 0x13
 11934 37b1 851C0000 		.4byte	.LASF697
 11935 37b5 35       		.byte	0x35
 11936 37b6 8F       		.byte	0x8f
 11937 37b7 15       		.byte	0x15
 11938 37b8 A0090000 		.4byte	0x9a0
 11939 37bc 1408     		.2byte	0x814
 11940 37be 13       		.uleb128 0x13
 11941 37bf D71C0000 		.4byte	.LASF698
 11942 37c3 35       		.byte	0x35
ARM GAS  /tmp/ccpnbTSa.s 			page 211


 11943 37c4 91       		.byte	0x91
 11944 37c5 15       		.byte	0x15
 11945 37c6 A0090000 		.4byte	0x9a0
 11946 37ca 1808     		.2byte	0x818
 11947 37cc 13       		.uleb128 0x13
 11948 37cd A21A0000 		.4byte	.LASF699
 11949 37d1 35       		.byte	0x35
 11950 37d2 93       		.byte	0x93
 11951 37d3 15       		.byte	0x15
 11952 37d4 A0090000 		.4byte	0x9a0
 11953 37d8 1C08     		.2byte	0x81c
 11954 37da 13       		.uleb128 0x13
 11955 37db D4050000 		.4byte	.LASF700
 11956 37df 35       		.byte	0x35
 11957 37e0 95       		.byte	0x95
 11958 37e1 15       		.byte	0x15
 11959 37e2 A0090000 		.4byte	0x9a0
 11960 37e6 2008     		.2byte	0x820
 11961 37e8 13       		.uleb128 0x13
 11962 37e9 50050000 		.4byte	.LASF701
 11963 37ed 35       		.byte	0x35
 11964 37ee 96       		.byte	0x96
 11965 37ef 15       		.byte	0x15
 11966 37f0 A0090000 		.4byte	0x9a0
 11967 37f4 2408     		.2byte	0x824
 11968 37f6 13       		.uleb128 0x13
 11969 37f7 A9010000 		.4byte	.LASF702
 11970 37fb 35       		.byte	0x35
 11971 37fc 97       		.byte	0x97
 11972 37fd 15       		.byte	0x15
 11973 37fe A0090000 		.4byte	0x9a0
 11974 3802 2808     		.2byte	0x828
 11975 3804 13       		.uleb128 0x13
 11976 3805 350D0000 		.4byte	.LASF703
 11977 3809 35       		.byte	0x35
 11978 380a 99       		.byte	0x99
 11979 380b 15       		.byte	0x15
 11980 380c A0090000 		.4byte	0x9a0
 11981 3810 2C08     		.2byte	0x82c
 11982 3812 13       		.uleb128 0x13
 11983 3813 87060000 		.4byte	.LASF704
 11984 3817 35       		.byte	0x35
 11985 3818 9B       		.byte	0x9b
 11986 3819 15       		.byte	0x15
 11987 381a A0090000 		.4byte	0x9a0
 11988 381e 3008     		.2byte	0x830
 11989 3820 13       		.uleb128 0x13
 11990 3821 240C0000 		.4byte	.LASF705
 11991 3825 35       		.byte	0x35
 11992 3826 9C       		.byte	0x9c
 11993 3827 15       		.byte	0x15
 11994 3828 A0090000 		.4byte	0x9a0
 11995 382c 3408     		.2byte	0x834
 11996 382e 13       		.uleb128 0x13
 11997 382f A7060000 		.4byte	.LASF706
 11998 3833 35       		.byte	0x35
 11999 3834 9E       		.byte	0x9e
ARM GAS  /tmp/ccpnbTSa.s 			page 212


 12000 3835 15       		.byte	0x15
 12001 3836 A0090000 		.4byte	0x9a0
 12002 383a 3808     		.2byte	0x838
 12003 383c 13       		.uleb128 0x13
 12004 383d 0C070000 		.4byte	.LASF707
 12005 3841 35       		.byte	0x35
 12006 3842 9F       		.byte	0x9f
 12007 3843 15       		.byte	0x15
 12008 3844 A0090000 		.4byte	0x9a0
 12009 3848 3C08     		.2byte	0x83c
 12010 384a 13       		.uleb128 0x13
 12011 384b 44070000 		.4byte	.LASF708
 12012 384f 35       		.byte	0x35
 12013 3850 A0       		.byte	0xa0
 12014 3851 15       		.byte	0x15
 12015 3852 ED120000 		.4byte	0x12ed
 12016 3856 4008     		.2byte	0x840
 12017 3858 13       		.uleb128 0x13
 12018 3859 B40B0000 		.4byte	.LASF709
 12019 385d 35       		.byte	0x35
 12020 385e A1       		.byte	0xa1
 12021 385f 15       		.byte	0x15
 12022 3860 ED120000 		.4byte	0x12ed
 12023 3864 8008     		.2byte	0x880
 12024 3866 13       		.uleb128 0x13
 12025 3867 8E0F0000 		.4byte	.LASF710
 12026 386b 35       		.byte	0x35
 12027 386c A2       		.byte	0xa2
 12028 386d 15       		.byte	0x15
 12029 386e ED120000 		.4byte	0x12ed
 12030 3872 C008     		.2byte	0x8c0
 12031 3874 30       		.uleb128 0x30
 12032 3875 696500   		.ascii	"ie\000"
 12033 3878 35       		.byte	0x35
 12034 3879 A3       		.byte	0xa3
 12035 387a 15       		.byte	0x15
 12036 387b 40390000 		.4byte	0x3940
 12037 387f 0009     		.2byte	0x900
 12038 3881 30       		.uleb128 0x30
 12039 3882 6F6500   		.ascii	"oe\000"
 12040 3885 35       		.byte	0x35
 12041 3886 A4       		.byte	0xa4
 12042 3887 16       		.byte	0x16
 12043 3888 50390000 		.4byte	0x3950
 12044 388c 000B     		.2byte	0xb00
 12045 388e 13       		.uleb128 0x13
 12046 388f 370A0000 		.4byte	.LASF711
 12047 3893 35       		.byte	0x35
 12048 3894 A5       		.byte	0xa5
 12049 3895 15       		.byte	0x15
 12050 3896 3B390000 		.4byte	0x393b
 12051 389a 000D     		.2byte	0xd00
 12052 389c 13       		.uleb128 0x13
 12053 389d 1F1F0000 		.4byte	.LASF712
 12054 38a1 35       		.byte	0x35
 12055 38a2 A6       		.byte	0xa6
 12056 38a3 15       		.byte	0x15
ARM GAS  /tmp/ccpnbTSa.s 			page 213


 12057 38a4 A0090000 		.4byte	0x9a0
 12058 38a8 000E     		.2byte	0xe00
 12059 38aa 13       		.uleb128 0x13
 12060 38ab 3C150000 		.4byte	.LASF713
 12061 38af 35       		.byte	0x35
 12062 38b0 A8       		.byte	0xa8
 12063 38b1 15       		.byte	0x15
 12064 38b2 70390000 		.4byte	0x3970
 12065 38b6 040E     		.2byte	0xe04
 12066 38b8 13       		.uleb128 0x13
 12067 38b9 AD080000 		.4byte	.LASF276
 12068 38bd 35       		.byte	0x35
 12069 38be A9       		.byte	0xa9
 12070 38bf 15       		.byte	0x15
 12071 38c0 8C390000 		.4byte	0x398c
 12072 38c4 0010     		.2byte	0x1000
 12073 38c6 00       		.byte	0
 12074 38c7 09       		.uleb128 0x9
 12075 38c8 A0090000 		.4byte	0x9a0
 12076 38cc D7380000 		.4byte	0x38d7
 12077 38d0 0A       		.uleb128 0xa
 12078 38d1 3D000000 		.4byte	0x3d
 12079 38d5 2F       		.byte	0x2f
 12080 38d6 00       		.byte	0
 12081 38d7 04       		.uleb128 0x4
 12082 38d8 C7380000 		.4byte	0x38c7
 12083 38dc 09       		.uleb128 0x9
 12084 38dd A0090000 		.4byte	0x9a0
 12085 38e1 EC380000 		.4byte	0x38ec
 12086 38e5 0A       		.uleb128 0xa
 12087 38e6 3D000000 		.4byte	0x3d
 12088 38ea AF       		.byte	0xaf
 12089 38eb 00       		.byte	0
 12090 38ec 04       		.uleb128 0x4
 12091 38ed DC380000 		.4byte	0x38dc
 12092 38f1 09       		.uleb128 0x9
 12093 38f2 A0090000 		.4byte	0x9a0
 12094 38f6 01390000 		.4byte	0x3901
 12095 38fa 0A       		.uleb128 0xa
 12096 38fb 3D000000 		.4byte	0x3d
 12097 38ff 08       		.byte	0x8
 12098 3900 00       		.byte	0
 12099 3901 04       		.uleb128 0x4
 12100 3902 F1380000 		.4byte	0x38f1
 12101 3906 09       		.uleb128 0x9
 12102 3907 A0090000 		.4byte	0x9a0
 12103 390b 16390000 		.4byte	0x3916
 12104 390f 0A       		.uleb128 0xa
 12105 3910 3D000000 		.4byte	0x3d
 12106 3914 2E       		.byte	0x2e
 12107 3915 00       		.byte	0
 12108 3916 04       		.uleb128 0x4
 12109 3917 06390000 		.4byte	0x3906
 12110 391b 09       		.uleb128 0x9
 12111 391c A8340000 		.4byte	0x34a8
 12112 3920 2B390000 		.4byte	0x392b
 12113 3924 0A       		.uleb128 0xa
ARM GAS  /tmp/ccpnbTSa.s 			page 214


 12114 3925 3D000000 		.4byte	0x3d
 12115 3929 0F       		.byte	0xf
 12116 392a 00       		.byte	0
 12117 392b 09       		.uleb128 0x9
 12118 392c A0090000 		.4byte	0x9a0
 12119 3930 3B390000 		.4byte	0x393b
 12120 3934 0A       		.uleb128 0xa
 12121 3935 3D000000 		.4byte	0x3d
 12122 3939 3F       		.byte	0x3f
 12123 393a 00       		.byte	0
 12124 393b 04       		.uleb128 0x4
 12125 393c 2B390000 		.4byte	0x392b
 12126 3940 09       		.uleb128 0x9
 12127 3941 26350000 		.4byte	0x3526
 12128 3945 50390000 		.4byte	0x3950
 12129 3949 0A       		.uleb128 0xa
 12130 394a 3D000000 		.4byte	0x3d
 12131 394e 0F       		.byte	0xf
 12132 394f 00       		.byte	0
 12133 3950 09       		.uleb128 0x9
 12134 3951 A4350000 		.4byte	0x35a4
 12135 3955 60390000 		.4byte	0x3960
 12136 3959 0A       		.uleb128 0xa
 12137 395a 3D000000 		.4byte	0x3d
 12138 395e 0F       		.byte	0xf
 12139 395f 00       		.byte	0
 12140 3960 09       		.uleb128 0x9
 12141 3961 A0090000 		.4byte	0x9a0
 12142 3965 70390000 		.4byte	0x3970
 12143 3969 0A       		.uleb128 0xa
 12144 396a 3D000000 		.4byte	0x3d
 12145 396e 7E       		.byte	0x7e
 12146 396f 00       		.byte	0
 12147 3970 04       		.uleb128 0x4
 12148 3971 60390000 		.4byte	0x3960
 12149 3975 09       		.uleb128 0x9
 12150 3976 A0090000 		.4byte	0x9a0
 12151 397a 8C390000 		.4byte	0x398c
 12152 397e 0A       		.uleb128 0xa
 12153 397f 3D000000 		.4byte	0x3d
 12154 3983 0F       		.byte	0xf
 12155 3984 2E       		.uleb128 0x2e
 12156 3985 3D000000 		.4byte	0x3d
 12157 3989 FF03     		.2byte	0x3ff
 12158 398b 00       		.byte	0
 12159 398c 04       		.uleb128 0x4
 12160 398d 75390000 		.4byte	0x3975
 12161 3991 03       		.uleb128 0x3
 12162 3992 A1210000 		.4byte	.LASF714
 12163 3996 35       		.byte	0x35
 12164 3997 AA       		.byte	0xaa
 12165 3998 03       		.byte	0x3
 12166 3999 B0350000 		.4byte	0x35b0
 12167 399d 21       		.uleb128 0x21
 12168 399e 0C       		.byte	0xc
 12169 399f 34       		.byte	0x34
 12170 39a0 0401     		.2byte	0x104
ARM GAS  /tmp/ccpnbTSa.s 			page 215


 12171 39a2 09       		.byte	0x9
 12172 39a3 D2390000 		.4byte	0x39d2
 12173 39a7 17       		.uleb128 0x17
 12174 39a8 62080000 		.4byte	.LASF715
 12175 39ac 34       		.byte	0x34
 12176 39ad 0501     		.2byte	0x105
 12177 39af 21       		.byte	0x21
 12178 39b0 94090000 		.4byte	0x994
 12179 39b4 00       		.byte	0
 12180 39b5 17       		.uleb128 0x17
 12181 39b6 100A0000 		.4byte	.LASF716
 12182 39ba 34       		.byte	0x34
 12183 39bb 0601     		.2byte	0x106
 12184 39bd 21       		.byte	0x21
 12185 39be 94090000 		.4byte	0x994
 12186 39c2 04       		.byte	0x4
 12187 39c3 17       		.uleb128 0x17
 12188 39c4 AC0D0000 		.4byte	.LASF717
 12189 39c8 34       		.byte	0x34
 12190 39c9 0701     		.2byte	0x107
 12191 39cb 21       		.byte	0x21
 12192 39cc 94090000 		.4byte	0x994
 12193 39d0 08       		.byte	0x8
 12194 39d1 00       		.byte	0
 12195 39d2 06       		.uleb128 0x6
 12196 39d3 240A0000 		.4byte	.LASF718
 12197 39d7 34       		.byte	0x34
 12198 39d8 0801     		.2byte	0x108
 12199 39da 03       		.byte	0x3
 12200 39db 9D390000 		.4byte	0x399d
 12201 39df 15       		.uleb128 0x15
 12202 39e0 D2390000 		.4byte	0x39d2
 12203 39e4 21       		.uleb128 0x21
 12204 39e5 14       		.byte	0x14
 12205 39e6 34       		.byte	0x34
 12206 39e7 0D01     		.2byte	0x10d
 12207 39e9 09       		.byte	0x9
 12208 39ea 353A0000 		.4byte	0x3a35
 12209 39ee 17       		.uleb128 0x17
 12210 39ef C8100000 		.4byte	.LASF719
 12211 39f3 34       		.byte	0x34
 12212 39f4 1101     		.2byte	0x111
 12213 39f6 21       		.byte	0x21
 12214 39f7 2C000000 		.4byte	0x2c
 12215 39fb 00       		.byte	0
 12216 39fc 17       		.uleb128 0x17
 12217 39fd D7090000 		.4byte	.LASF720
 12218 3a01 34       		.byte	0x34
 12219 3a02 1501     		.2byte	0x115
 12220 3a04 21       		.byte	0x21
 12221 3a05 2C000000 		.4byte	0x2c
 12222 3a09 04       		.byte	0x4
 12223 3a0a 17       		.uleb128 0x17
 12224 3a0b 191F0000 		.4byte	.LASF721
 12225 3a0f 34       		.byte	0x34
 12226 3a10 1901     		.2byte	0x119
 12227 3a12 22       		.byte	0x22
ARM GAS  /tmp/ccpnbTSa.s 			page 216


 12228 3a13 03210000 		.4byte	0x2103
 12229 3a17 08       		.byte	0x8
 12230 3a18 17       		.uleb128 0x17
 12231 3a19 CE060000 		.4byte	.LASF444
 12232 3a1d 34       		.byte	0x34
 12233 3a1e 1E01     		.2byte	0x11e
 12234 3a20 21       		.byte	0x21
 12235 3a21 360B0000 		.4byte	0xb36
 12236 3a25 0C       		.byte	0xc
 12237 3a26 17       		.uleb128 0x17
 12238 3a27 C40D0000 		.4byte	.LASF722
 12239 3a2b 34       		.byte	0x34
 12240 3a2c 2401     		.2byte	0x124
 12241 3a2e 21       		.byte	0x21
 12242 3a2f 2C000000 		.4byte	0x2c
 12243 3a33 10       		.byte	0x10
 12244 3a34 00       		.byte	0
 12245 3a35 06       		.uleb128 0x6
 12246 3a36 790E0000 		.4byte	.LASF723
 12247 3a3a 34       		.byte	0x34
 12248 3a3b 2501     		.2byte	0x125
 12249 3a3d 03       		.byte	0x3
 12250 3a3e E4390000 		.4byte	0x39e4
 12251 3a42 21       		.uleb128 0x21
 12252 3a43 14       		.byte	0x14
 12253 3a44 34       		.byte	0x34
 12254 3a45 2A01     		.2byte	0x12a
 12255 3a47 09       		.byte	0x9
 12256 3a48 933A0000 		.4byte	0x3a93
 12257 3a4c 17       		.uleb128 0x17
 12258 3a4d 92110000 		.4byte	.LASF724
 12259 3a51 34       		.byte	0x34
 12260 3a52 2E01     		.2byte	0x12e
 12261 3a54 21       		.byte	0x21
 12262 3a55 2C000000 		.4byte	0x2c
 12263 3a59 00       		.byte	0
 12264 3a5a 17       		.uleb128 0x17
 12265 3a5b D1090000 		.4byte	.LASF725
 12266 3a5f 34       		.byte	0x34
 12267 3a60 3201     		.2byte	0x132
 12268 3a62 21       		.byte	0x21
 12269 3a63 2C000000 		.4byte	0x2c
 12270 3a67 04       		.byte	0x4
 12271 3a68 17       		.uleb128 0x17
 12272 3a69 400A0000 		.4byte	.LASF726
 12273 3a6d 34       		.byte	0x34
 12274 3a6e 3601     		.2byte	0x136
 12275 3a70 22       		.byte	0x22
 12276 3a71 DC1C0000 		.4byte	0x1cdc
 12277 3a75 08       		.byte	0x8
 12278 3a76 17       		.uleb128 0x17
 12279 3a77 CE060000 		.4byte	.LASF444
 12280 3a7b 34       		.byte	0x34
 12281 3a7c 3B01     		.2byte	0x13b
 12282 3a7e 21       		.byte	0x21
 12283 3a7f 360B0000 		.4byte	0xb36
 12284 3a83 0C       		.byte	0xc
ARM GAS  /tmp/ccpnbTSa.s 			page 217


 12285 3a84 17       		.uleb128 0x17
 12286 3a85 C40D0000 		.4byte	.LASF722
 12287 3a89 34       		.byte	0x34
 12288 3a8a 4101     		.2byte	0x141
 12289 3a8c 21       		.byte	0x21
 12290 3a8d 2C000000 		.4byte	0x2c
 12291 3a91 10       		.byte	0x10
 12292 3a92 00       		.byte	0
 12293 3a93 06       		.uleb128 0x6
 12294 3a94 DF190000 		.4byte	.LASF727
 12295 3a98 34       		.byte	0x34
 12296 3a99 4201     		.2byte	0x142
 12297 3a9b 03       		.byte	0x3
 12298 3a9c 423A0000 		.4byte	0x3a42
 12299 3aa0 21       		.uleb128 0x21
 12300 3aa1 24       		.byte	0x24
 12301 3aa2 34       		.byte	0x34
 12302 3aa3 4801     		.2byte	0x148
 12303 3aa5 09       		.byte	0x9
 12304 3aa6 373B0000 		.4byte	0x3b37
 12305 3aaa 17       		.uleb128 0x17
 12306 3aab FB140000 		.4byte	.LASF728
 12307 3aaf 34       		.byte	0x34
 12308 3ab0 4C01     		.2byte	0x14c
 12309 3ab2 21       		.byte	0x21
 12310 3ab3 94090000 		.4byte	0x994
 12311 3ab7 00       		.byte	0
 12312 3ab8 17       		.uleb128 0x17
 12313 3ab9 89080000 		.4byte	.LASF729
 12314 3abd 34       		.byte	0x34
 12315 3abe 5701     		.2byte	0x157
 12316 3ac0 21       		.byte	0x21
 12317 3ac1 97330000 		.4byte	0x3397
 12318 3ac5 04       		.byte	0x4
 12319 3ac6 17       		.uleb128 0x17
 12320 3ac7 B8050000 		.4byte	.LASF730
 12321 3acb 34       		.byte	0x34
 12322 3acc 5C01     		.2byte	0x15c
 12323 3ace 21       		.byte	0x21
 12324 3acf 97330000 		.4byte	0x3397
 12325 3ad3 08       		.byte	0x8
 12326 3ad4 17       		.uleb128 0x17
 12327 3ad5 940A0000 		.4byte	.LASF731
 12328 3ad9 34       		.byte	0x34
 12329 3ada 6101     		.2byte	0x161
 12330 3adc 21       		.byte	0x21
 12331 3add 97330000 		.4byte	0x3397
 12332 3ae1 0C       		.byte	0xc
 12333 3ae2 17       		.uleb128 0x17
 12334 3ae3 D0210000 		.4byte	.LASF732
 12335 3ae7 34       		.byte	0x34
 12336 3ae8 6601     		.2byte	0x166
 12337 3aea 21       		.byte	0x21
 12338 3aeb 77090000 		.4byte	0x977
 12339 3aef 10       		.byte	0x10
 12340 3af0 17       		.uleb128 0x17
 12341 3af1 230E0000 		.4byte	.LASF733
ARM GAS  /tmp/ccpnbTSa.s 			page 218


 12342 3af5 34       		.byte	0x34
 12343 3af6 6B01     		.2byte	0x16b
 12344 3af8 21       		.byte	0x21
 12345 3af9 77090000 		.4byte	0x977
 12346 3afd 12       		.byte	0x12
 12347 3afe 17       		.uleb128 0x17
 12348 3aff AE200000 		.4byte	.LASF734
 12349 3b03 34       		.byte	0x34
 12350 3b04 7101     		.2byte	0x171
 12351 3b06 22       		.byte	0x22
 12352 3b07 373B0000 		.4byte	0x3b37
 12353 3b0b 14       		.byte	0x14
 12354 3b0c 17       		.uleb128 0x17
 12355 3b0d 780C0000 		.4byte	.LASF735
 12356 3b11 34       		.byte	0x34
 12357 3b12 7701     		.2byte	0x177
 12358 3b14 22       		.byte	0x22
 12359 3b15 3D3B0000 		.4byte	0x3b3d
 12360 3b19 18       		.byte	0x18
 12361 3b1a 17       		.uleb128 0x17
 12362 3b1b 14100000 		.4byte	.LASF736
 12363 3b1f 34       		.byte	0x34
 12364 3b20 7E01     		.2byte	0x17e
 12365 3b22 21       		.byte	0x21
 12366 3b23 77090000 		.4byte	0x977
 12367 3b27 1C       		.byte	0x1c
 12368 3b28 17       		.uleb128 0x17
 12369 3b29 5B1F0000 		.4byte	.LASF737
 12370 3b2d 34       		.byte	0x34
 12371 3b2e 8401     		.2byte	0x184
 12372 3b30 22       		.byte	0x22
 12373 3b31 DC1C0000 		.4byte	0x1cdc
 12374 3b35 20       		.byte	0x20
 12375 3b36 00       		.byte	0
 12376 3b37 0E       		.uleb128 0xe
 12377 3b38 04       		.byte	0x4
 12378 3b39 353A0000 		.4byte	0x3a35
 12379 3b3d 0E       		.uleb128 0xe
 12380 3b3e 04       		.byte	0x4
 12381 3b3f 933A0000 		.4byte	0x3a93
 12382 3b43 06       		.uleb128 0x6
 12383 3b44 CD190000 		.4byte	.LASF738
 12384 3b48 34       		.byte	0x34
 12385 3b49 8501     		.2byte	0x185
 12386 3b4b 03       		.byte	0x3
 12387 3b4c A03A0000 		.4byte	0x3aa0
 12388 3b50 15       		.uleb128 0x15
 12389 3b51 433B0000 		.4byte	0x3b43
 12390 3b55 21       		.uleb128 0x21
 12391 3b56 10       		.byte	0x10
 12392 3b57 34       		.byte	0x34
 12393 3b58 8A01     		.2byte	0x18a
 12394 3b5a 09       		.byte	0x9
 12395 3b5b 983B0000 		.4byte	0x3b98
 12396 3b5f 17       		.uleb128 0x17
 12397 3b60 8B0A0000 		.4byte	.LASF739
 12398 3b64 34       		.byte	0x34
ARM GAS  /tmp/ccpnbTSa.s 			page 219


 12399 3b65 8F01     		.2byte	0x18f
 12400 3b67 21       		.byte	0x21
 12401 3b68 BA330000 		.4byte	0x33ba
 12402 3b6c 00       		.byte	0
 12403 3b6d 17       		.uleb128 0x17
 12404 3b6e A31E0000 		.4byte	.LASF740
 12405 3b72 34       		.byte	0x34
 12406 3b73 9401     		.2byte	0x194
 12407 3b75 21       		.byte	0x21
 12408 3b76 FF330000 		.4byte	0x33ff
 12409 3b7a 04       		.byte	0x4
 12410 3b7b 17       		.uleb128 0x17
 12411 3b7c 86100000 		.4byte	.LASF741
 12412 3b80 34       		.byte	0x34
 12413 3b81 9A01     		.2byte	0x19a
 12414 3b83 21       		.byte	0x21
 12415 3b84 DD330000 		.4byte	0x33dd
 12416 3b88 08       		.byte	0x8
 12417 3b89 17       		.uleb128 0x17
 12418 3b8a 59020000 		.4byte	.LASF742
 12419 3b8e 34       		.byte	0x34
 12420 3b8f 9E01     		.2byte	0x19e
 12421 3b91 21       		.byte	0x21
 12422 3b92 73330000 		.4byte	0x3373
 12423 3b96 0C       		.byte	0xc
 12424 3b97 00       		.byte	0
 12425 3b98 06       		.uleb128 0x6
 12426 3b99 970F0000 		.4byte	.LASF743
 12427 3b9d 34       		.byte	0x34
 12428 3b9e A001     		.2byte	0x1a0
 12429 3ba0 03       		.byte	0x3
 12430 3ba1 553B0000 		.4byte	0x3b55
 12431 3ba5 15       		.uleb128 0x15
 12432 3ba6 983B0000 		.4byte	0x3b98
 12433 3baa 0E       		.uleb128 0xe
 12434 3bab 04       		.byte	0x4
 12435 3bac A53B0000 		.4byte	0x3ba5
 12436 3bb0 09       		.uleb128 0x9
 12437 3bb1 C03B0000 		.4byte	0x3bc0
 12438 3bb5 C03B0000 		.4byte	0x3bc0
 12439 3bb9 0A       		.uleb128 0xa
 12440 3bba 3D000000 		.4byte	0x3d
 12441 3bbe 08       		.byte	0x8
 12442 3bbf 00       		.byte	0
 12443 3bc0 0E       		.uleb128 0xe
 12444 3bc1 04       		.byte	0x4
 12445 3bc2 503B0000 		.4byte	0x3b50
 12446 3bc6 09       		.uleb128 0x9
 12447 3bc7 46010000 		.4byte	0x146
 12448 3bcb D63B0000 		.4byte	0x3bd6
 12449 3bcf 0A       		.uleb128 0xa
 12450 3bd0 3D000000 		.4byte	0x3d
 12451 3bd4 07       		.byte	0x7
 12452 3bd5 00       		.byte	0
 12453 3bd6 09       		.uleb128 0x9
 12454 3bd7 66090000 		.4byte	0x966
 12455 3bdb E63B0000 		.4byte	0x3be6
ARM GAS  /tmp/ccpnbTSa.s 			page 220


 12456 3bdf 0A       		.uleb128 0xa
 12457 3be0 3D000000 		.4byte	0x3d
 12458 3be4 07       		.byte	0x7
 12459 3be5 00       		.byte	0
 12460 3be6 0E       		.uleb128 0xe
 12461 3be7 04       		.byte	0x4
 12462 3be8 91390000 		.4byte	0x3991
 12463 3bec 0E       		.uleb128 0xe
 12464 3bed 04       		.byte	0x4
 12465 3bee DF390000 		.4byte	0x39df
 12466 3bf2 1C       		.uleb128 0x1c
 12467 3bf3 18010000 		.4byte	.LASF744
 12468 3bf7 34       		.byte	0x34
 12469 3bf8 3A02     		.2byte	0x23a
 12470 3bfa 12       		.byte	0x12
 12471 3bfb 16310000 		.4byte	0x3116
 12472 3bff 0B       		.uleb128 0xb
 12473 3c00 1C       		.byte	0x1c
 12474 3c01 36       		.byte	0x36
 12475 3c02 AA       		.byte	0xaa
 12476 3c03 09       		.byte	0x9
 12477 3c04 643C0000 		.4byte	0x3c64
 12478 3c08 0C       		.uleb128 0xc
 12479 3c09 DD100000 		.4byte	.LASF745
 12480 3c0d 36       		.byte	0x36
 12481 3c0e AB       		.byte	0xab
 12482 3c0f 11       		.byte	0x11
 12483 3c10 A0090000 		.4byte	0x9a0
 12484 3c14 00       		.byte	0
 12485 3c15 0C       		.uleb128 0xc
 12486 3c16 E3100000 		.4byte	.LASF746
 12487 3c1a 36       		.byte	0x36
 12488 3c1b AC       		.byte	0xac
 12489 3c1c 11       		.byte	0x11
 12490 3c1d A0090000 		.4byte	0x9a0
 12491 3c21 04       		.byte	0x4
 12492 3c22 0C       		.uleb128 0xc
 12493 3c23 A8040000 		.4byte	.LASF747
 12494 3c27 36       		.byte	0x36
 12495 3c28 AD       		.byte	0xad
 12496 3c29 11       		.byte	0x11
 12497 3c2a A0090000 		.4byte	0x9a0
 12498 3c2e 08       		.byte	0x8
 12499 3c2f 0C       		.uleb128 0xc
 12500 3c30 AE040000 		.4byte	.LASF748
 12501 3c34 36       		.byte	0x36
 12502 3c35 AE       		.byte	0xae
 12503 3c36 11       		.byte	0x11
 12504 3c37 A0090000 		.4byte	0x9a0
 12505 3c3b 0C       		.byte	0xc
 12506 3c3c 0C       		.uleb128 0xc
 12507 3c3d 25130000 		.4byte	.LASF749
 12508 3c41 36       		.byte	0x36
 12509 3c42 AF       		.byte	0xaf
 12510 3c43 11       		.byte	0x11
 12511 3c44 A0090000 		.4byte	0x9a0
 12512 3c48 10       		.byte	0x10
ARM GAS  /tmp/ccpnbTSa.s 			page 221


 12513 3c49 0C       		.uleb128 0xc
 12514 3c4a 66040000 		.4byte	.LASF750
 12515 3c4e 36       		.byte	0x36
 12516 3c4f B0       		.byte	0xb0
 12517 3c50 11       		.byte	0x11
 12518 3c51 A0090000 		.4byte	0x9a0
 12519 3c55 14       		.byte	0x14
 12520 3c56 0C       		.uleb128 0xc
 12521 3c57 F00C0000 		.4byte	.LASF751
 12522 3c5b 36       		.byte	0x36
 12523 3c5c B1       		.byte	0xb1
 12524 3c5d 11       		.byte	0x11
 12525 3c5e A0090000 		.4byte	0x9a0
 12526 3c62 18       		.byte	0x18
 12527 3c63 00       		.byte	0
 12528 3c64 03       		.uleb128 0x3
 12529 3c65 C0200000 		.4byte	.LASF752
 12530 3c69 36       		.byte	0x36
 12531 3c6a B2       		.byte	0xb2
 12532 3c6b 03       		.byte	0x3
 12533 3c6c FF3B0000 		.4byte	0x3bff
 12534 3c70 06       		.uleb128 0x6
 12535 3c71 8F140000 		.4byte	.LASF753
 12536 3c75 36       		.byte	0x36
 12537 3c76 1C01     		.2byte	0x11c
 12538 3c78 1B       		.byte	0x1b
 12539 3c79 7D3C0000 		.4byte	0x3c7d
 12540 3c7d 16       		.uleb128 0x16
 12541 3c7e 8F140000 		.4byte	.LASF753
 12542 3c82 08       		.byte	0x8
 12543 3c83 36       		.byte	0x36
 12544 3c84 2A01     		.2byte	0x12a
 12545 3c86 08       		.byte	0x8
 12546 3c87 A83C0000 		.4byte	0x3ca8
 12547 3c8b 17       		.uleb128 0x17
 12548 3c8c CA130000 		.4byte	.LASF153
 12549 3c90 36       		.byte	0x36
 12550 3c91 2E01     		.2byte	0x12e
 12551 3c93 1D       		.byte	0x1d
 12552 3c94 CA3C0000 		.4byte	0x3cca
 12553 3c98 00       		.byte	0
 12554 3c99 17       		.uleb128 0x17
 12555 3c9a A1060000 		.4byte	.LASF754
 12556 3c9e 36       		.byte	0x36
 12557 3c9f 4D01     		.2byte	0x14d
 12558 3ca1 1E       		.byte	0x1e
 12559 3ca2 D73C0000 		.4byte	0x3cd7
 12560 3ca6 04       		.byte	0x4
 12561 3ca7 00       		.byte	0
 12562 3ca8 2B       		.uleb128 0x2b
 12563 3ca9 07       		.byte	0x7
 12564 3caa 01       		.byte	0x1
 12565 3cab 72000000 		.4byte	0x72
 12566 3caf 36       		.byte	0x36
 12567 3cb0 2101     		.2byte	0x121
 12568 3cb2 0E       		.byte	0xe
 12569 3cb3 CA3C0000 		.4byte	0x3cca
ARM GAS  /tmp/ccpnbTSa.s 			page 222


 12570 3cb7 2A       		.uleb128 0x2a
 12571 3cb8 D2120000 		.4byte	.LASF755
 12572 3cbc 00       		.byte	0
 12573 3cbd 2A       		.uleb128 0x2a
 12574 3cbe E6120000 		.4byte	.LASF756
 12575 3cc2 01       		.byte	0x1
 12576 3cc3 2A       		.uleb128 0x2a
 12577 3cc4 930E0000 		.4byte	.LASF757
 12578 3cc8 02       		.byte	0x2
 12579 3cc9 00       		.byte	0
 12580 3cca 06       		.uleb128 0x6
 12581 3ccb BD0B0000 		.4byte	.LASF758
 12582 3ccf 36       		.byte	0x36
 12583 3cd0 2501     		.2byte	0x125
 12584 3cd2 03       		.byte	0x3
 12585 3cd3 A83C0000 		.4byte	0x3ca8
 12586 3cd7 0E       		.uleb128 0xe
 12587 3cd8 04       		.byte	0x4
 12588 3cd9 643C0000 		.4byte	0x3c64
 12589 3cdd 1C       		.uleb128 0x1c
 12590 3cde 1D0A0000 		.4byte	.LASF759
 12591 3ce2 36       		.byte	0x36
 12592 3ce3 5B01     		.2byte	0x15b
 12593 3ce5 13       		.byte	0x13
 12594 3ce6 703C0000 		.4byte	0x3c70
 12595 3cea 29       		.uleb128 0x29
 12596 3ceb 07       		.byte	0x7
 12597 3cec 01       		.byte	0x1
 12598 3ced 72000000 		.4byte	0x72
 12599 3cf1 37       		.byte	0x37
 12600 3cf2 A4       		.byte	0xa4
 12601 3cf3 0E       		.byte	0xe
 12602 3cf4 0B3D0000 		.4byte	0x3d0b
 12603 3cf8 2A       		.uleb128 0x2a
 12604 3cf9 901D0000 		.4byte	.LASF760
 12605 3cfd 00       		.byte	0
 12606 3cfe 2A       		.uleb128 0x2a
 12607 3cff AC140000 		.4byte	.LASF761
 12608 3d03 01       		.byte	0x1
 12609 3d04 2A       		.uleb128 0x2a
 12610 3d05 A0000000 		.4byte	.LASF762
 12611 3d09 02       		.byte	0x2
 12612 3d0a 00       		.byte	0
 12613 3d0b 03       		.uleb128 0x3
 12614 3d0c 3A100000 		.4byte	.LASF763
 12615 3d10 37       		.byte	0x37
 12616 3d11 A8       		.byte	0xa8
 12617 3d12 03       		.byte	0x3
 12618 3d13 EA3C0000 		.4byte	0x3cea
 12619 3d17 03       		.uleb128 0x3
 12620 3d18 A4160000 		.4byte	.LASF764
 12621 3d1c 37       		.byte	0x37
 12622 3d1d AD       		.byte	0xad
 12623 3d1e 1C       		.byte	0x1c
 12624 3d1f 233D0000 		.4byte	0x3d23
 12625 3d23 10       		.uleb128 0x10
 12626 3d24 A4160000 		.4byte	.LASF764
ARM GAS  /tmp/ccpnbTSa.s 			page 223


 12627 3d28 08       		.byte	0x8
 12628 3d29 37       		.byte	0x37
 12629 3d2a D0       		.byte	0xd0
 12630 3d2b 08       		.byte	0x8
 12631 3d2c 4B3D0000 		.4byte	0x3d4b
 12632 3d30 0C       		.uleb128 0xc
 12633 3d31 CA130000 		.4byte	.LASF153
 12634 3d35 37       		.byte	0x37
 12635 3d36 D4       		.byte	0xd4
 12636 3d37 1D       		.byte	0x1d
 12637 3d38 0B3D0000 		.4byte	0x3d0b
 12638 3d3c 00       		.byte	0
 12639 3d3d 0C       		.uleb128 0xc
 12640 3d3e A1060000 		.4byte	.LASF754
 12641 3d42 37       		.byte	0x37
 12642 3d43 D8       		.byte	0xd8
 12643 3d44 1E       		.byte	0x1e
 12644 3d45 D73C0000 		.4byte	0x3cd7
 12645 3d49 04       		.byte	0x4
 12646 3d4a 00       		.byte	0
 12647 3d4b 20       		.uleb128 0x20
 12648 3d4c 78030000 		.4byte	.LASF765
 12649 3d50 37       		.byte	0x37
 12650 3d51 E3       		.byte	0xe3
 12651 3d52 14       		.byte	0x14
 12652 3d53 173D0000 		.4byte	0x3d17
 12653 3d57 09       		.uleb128 0x9
 12654 3d58 72090000 		.4byte	0x972
 12655 3d5c 673D0000 		.4byte	0x3d67
 12656 3d60 0A       		.uleb128 0xa
 12657 3d61 3D000000 		.4byte	0x3d
 12658 3d65 01       		.byte	0x1
 12659 3d66 00       		.byte	0
 12660 3d67 15       		.uleb128 0x15
 12661 3d68 573D0000 		.4byte	0x3d57
 12662 3d6c 31       		.uleb128 0x31
 12663 3d6d CE1A0000 		.4byte	.LASF766
 12664 3d71 01       		.byte	0x1
 12665 3d72 2B       		.byte	0x2b
 12666 3d73 16       		.byte	0x16
 12667 3d74 673D0000 		.4byte	0x3d67
 12668 3d78 05       		.uleb128 0x5
 12669 3d79 03       		.byte	0x3
 12670 3d7a 00000000 		.4byte	zero_status
 12671 3d7e 31       		.uleb128 0x31
 12672 3d7f BE040000 		.4byte	.LASF767
 12673 3d83 01       		.byte	0x1
 12674 3d84 2C       		.byte	0x2c
 12675 3d85 16       		.byte	0x16
 12676 3d86 673D0000 		.4byte	0x3d67
 12677 3d8a 05       		.uleb128 0x5
 12678 3d8b 03       		.byte	0x3
 12679 3d8c 08000000 		.4byte	active_status
 12680 3d90 31       		.uleb128 0x31
 12681 3d91 CF100000 		.4byte	.LASF768
 12682 3d95 01       		.byte	0x1
 12683 3d96 2D       		.byte	0x2d
ARM GAS  /tmp/ccpnbTSa.s 			page 224


 12684 3d97 16       		.byte	0x16
 12685 3d98 673D0000 		.4byte	0x3d67
 12686 3d9c 05       		.uleb128 0x5
 12687 3d9d 03       		.byte	0x3
 12688 3d9e 04000000 		.4byte	halted_status
 12689 3da2 32       		.uleb128 0x32
 12690 3da3 550A0000 		.4byte	.LASF770
 12691 3da7 01       		.byte	0x1
 12692 3da8 B703     		.2byte	0x3b7
 12693 3daa 06       		.byte	0x6
 12694 3dab 70080000 		.4byte	.LFB383
 12695 3daf 88000000 		.4byte	.LFE383-.LFB383
 12696 3db3 01       		.uleb128 0x1
 12697 3db4 9C       		.byte	0x9c
 12698 3db5 A43F0000 		.4byte	0x3fa4
 12699 3db9 33       		.uleb128 0x33
 12700 3dba 2D1E0000 		.4byte	.LASF769
 12701 3dbe 01       		.byte	0x1
 12702 3dbf B703     		.2byte	0x3b7
 12703 3dc1 1D       		.byte	0x1d
 12704 3dc2 91330000 		.4byte	0x3391
 12705 3dc6 0C000000 		.4byte	.LLST137
 12706 3dca 00000000 		.4byte	.LVUS137
 12707 3dce 34       		.uleb128 0x34
 12708 3dcf 657000   		.ascii	"ep\000"
 12709 3dd2 01       		.byte	0x1
 12710 3dd3 B703     		.2byte	0x3b7
 12711 3dd5 2B       		.byte	0x2b
 12712 3dd6 3C320000 		.4byte	0x323c
 12713 3dda 5E000000 		.4byte	.LLST138
 12714 3dde 56000000 		.4byte	.LVUS138
 12715 3de2 35       		.uleb128 0x35
 12716 3de3 91000000 		.4byte	.LASF772
 12717 3de7 B43F0000 		.4byte	0x3fb4
 12718 3deb 36       		.uleb128 0x36
 12719 3dec 945C0000 		.4byte	0x5c94
 12720 3df0 B2080000 		.4byte	.LBI994
 12721 3df4 0100     		.2byte	.LVU1329
 12722 3df6 E80C0000 		.4byte	.Ldebug_ranges0+0xce8
 12723 3dfa 01       		.byte	0x1
 12724 3dfb BF03     		.2byte	0x3bf
 12725 3dfd 05       		.byte	0x5
 12726 3dfe 603E0000 		.4byte	0x3e60
 12727 3e02 37       		.uleb128 0x37
 12728 3e03 BC5C0000 		.4byte	0x5cbc
 12729 3e07 B2080000 		.4byte	.LBI995
 12730 3e0b 0300     		.2byte	.LVU1331
 12731 3e0d 200D0000 		.4byte	.Ldebug_ranges0+0xd20
 12732 3e11 02       		.byte	0x2
 12733 3e12 1502     		.2byte	0x215
 12734 3e14 03       		.byte	0x3
 12735 3e15 37       		.uleb128 0x37
 12736 3e16 F25C0000 		.4byte	0x5cf2
 12737 3e1a B2080000 		.4byte	.LBI996
 12738 3e1e 0500     		.2byte	.LVU1333
 12739 3e20 500D0000 		.4byte	.Ldebug_ranges0+0xd50
 12740 3e24 03       		.byte	0x3
ARM GAS  /tmp/ccpnbTSa.s 			page 225


 12741 3e25 8B01     		.2byte	0x18b
 12742 3e27 03       		.byte	0x3
 12743 3e28 37       		.uleb128 0x37
 12744 3e29 065D0000 		.4byte	0x5d06
 12745 3e2d B2080000 		.4byte	.LBI997
 12746 3e31 0700     		.2byte	.LVU1335
 12747 3e33 780D0000 		.4byte	.Ldebug_ranges0+0xd78
 12748 3e37 04       		.byte	0x4
 12749 3e38 C602     		.2byte	0x2c6
 12750 3e3a 03       		.byte	0x3
 12751 3e3b 37       		.uleb128 0x37
 12752 3e3c 105D0000 		.4byte	0x5d10
 12753 3e40 B2080000 		.4byte	.LBI998
 12754 3e44 0900     		.2byte	.LVU1337
 12755 3e46 980D0000 		.4byte	.Ldebug_ranges0+0xd98
 12756 3e4a 04       		.byte	0x4
 12757 3e4b A502     		.2byte	0x2a5
 12758 3e4d 03       		.byte	0x3
 12759 3e4e 38       		.uleb128 0x38
 12760 3e4f 1E5D0000 		.4byte	0x5d1e
 12761 3e53 9A000000 		.4byte	.LLST139
 12762 3e57 98000000 		.4byte	.LVUS139
 12763 3e5b 00       		.byte	0
 12764 3e5c 00       		.byte	0
 12765 3e5d 00       		.byte	0
 12766 3e5e 00       		.byte	0
 12767 3e5f 00       		.byte	0
 12768 3e60 39       		.uleb128 0x39
 12769 3e61 3D560000 		.4byte	0x563d
 12770 3e65 B6080000 		.4byte	.LBI1016
 12771 3e69 0400     		.2byte	.LVU1343
 12772 3e6b B6080000 		.4byte	.LBB1016
 12773 3e6f 1A000000 		.4byte	.LBE1016-.LBB1016
 12774 3e73 01       		.byte	0x1
 12775 3e74 C003     		.2byte	0x3c0
 12776 3e76 05       		.byte	0x5
 12777 3e77 DD3E0000 		.4byte	0x3edd
 12778 3e7b 38       		.uleb128 0x38
 12779 3e7c 71560000 		.4byte	0x5671
 12780 3e80 B1000000 		.4byte	.LLST140
 12781 3e84 AF000000 		.4byte	.LVUS140
 12782 3e88 38       		.uleb128 0x38
 12783 3e89 64560000 		.4byte	0x5664
 12784 3e8d B1000000 		.4byte	.LLST140
 12785 3e91 AF000000 		.4byte	.LVUS140
 12786 3e95 38       		.uleb128 0x38
 12787 3e96 58560000 		.4byte	0x5658
 12788 3e9a B1000000 		.4byte	.LLST140
 12789 3e9e AF000000 		.4byte	.LVUS140
 12790 3ea2 38       		.uleb128 0x38
 12791 3ea3 4B560000 		.4byte	0x564b
 12792 3ea7 C9000000 		.4byte	.LLST143
 12793 3eab C5000000 		.4byte	.LVUS143
 12794 3eaf 3A       		.uleb128 0x3a
 12795 3eb0 B6080000 		.4byte	.LBB1017
 12796 3eb4 1A000000 		.4byte	.LBE1017-.LBB1017
 12797 3eb8 3B       		.uleb128 0x3b
ARM GAS  /tmp/ccpnbTSa.s 			page 226


 12798 3eb9 7C560000 		.4byte	0x567c
 12799 3ebd E9000000 		.4byte	.LLST144
 12800 3ec1 E7000000 		.4byte	.LVUS144
 12801 3ec5 3C       		.uleb128 0x3c
 12802 3ec6 D0080000 		.4byte	.LVL215
 12803 3eca F85D0000 		.4byte	0x5df8
 12804 3ece 3D       		.uleb128 0x3d
 12805 3ecf 01       		.uleb128 0x1
 12806 3ed0 50       		.byte	0x50
 12807 3ed1 02       		.uleb128 0x2
 12808 3ed2 74       		.byte	0x74
 12809 3ed3 00       		.sleb128 0
 12810 3ed4 3D       		.uleb128 0x3d
 12811 3ed5 01       		.uleb128 0x1
 12812 3ed6 51       		.byte	0x51
 12813 3ed7 02       		.uleb128 0x2
 12814 3ed8 75       		.byte	0x75
 12815 3ed9 00       		.sleb128 0
 12816 3eda 00       		.byte	0
 12817 3edb 00       		.byte	0
 12818 3edc 00       		.byte	0
 12819 3edd 36       		.uleb128 0x36
 12820 3ede 8A5C0000 		.4byte	0x5c8a
 12821 3ee2 D0080000 		.4byte	.LBI1018
 12822 3ee6 0200     		.2byte	.LVU1367
 12823 3ee8 B00D0000 		.4byte	.Ldebug_ranges0+0xdb0
 12824 3eec 01       		.byte	0x1
 12825 3eed C103     		.2byte	0x3c1
 12826 3eef 05       		.byte	0x5
 12827 3ef0 563F0000 		.4byte	0x3f56
 12828 3ef4 37       		.uleb128 0x37
 12829 3ef5 B25C0000 		.4byte	0x5cb2
 12830 3ef9 D0080000 		.4byte	.LBI1019
 12831 3efd 0400     		.2byte	.LVU1369
 12832 3eff B80D0000 		.4byte	.Ldebug_ranges0+0xdb8
 12833 3f03 02       		.byte	0x2
 12834 3f04 2002     		.2byte	0x220
 12835 3f06 03       		.byte	0x3
 12836 3f07 37       		.uleb128 0x37
 12837 3f08 E85C0000 		.4byte	0x5ce8
 12838 3f0c D0080000 		.4byte	.LBI1020
 12839 3f10 0800     		.2byte	.LVU1373
 12840 3f12 C00D0000 		.4byte	.Ldebug_ranges0+0xdc0
 12841 3f16 03       		.byte	0x3
 12842 3f17 A101     		.2byte	0x1a1
 12843 3f19 03       		.byte	0x3
 12844 3f1a 37       		.uleb128 0x37
 12845 3f1b FC5C0000 		.4byte	0x5cfc
 12846 3f1f D0080000 		.4byte	.LBI1021
 12847 3f23 0A00     		.2byte	.LVU1375
 12848 3f25 C80D0000 		.4byte	.Ldebug_ranges0+0xdc8
 12849 3f29 04       		.byte	0x4
 12850 3f2a D102     		.2byte	0x2d1
 12851 3f2c 03       		.byte	0x3
 12852 3f2d 3E       		.uleb128 0x3e
 12853 3f2e 105D0000 		.4byte	0x5d10
 12854 3f32 D0080000 		.4byte	.LBI1022
ARM GAS  /tmp/ccpnbTSa.s 			page 227


 12855 3f36 0C00     		.2byte	.LVU1377
 12856 3f38 D0080000 		.4byte	.LBB1022
 12857 3f3c 04000000 		.4byte	.LBE1022-.LBB1022
 12858 3f40 04       		.byte	0x4
 12859 3f41 B802     		.2byte	0x2b8
 12860 3f43 03       		.byte	0x3
 12861 3f44 38       		.uleb128 0x38
 12862 3f45 1E5D0000 		.4byte	0x5d1e
 12863 3f49 FE000000 		.4byte	.LLST145
 12864 3f4d FC000000 		.4byte	.LVUS145
 12865 3f51 00       		.byte	0
 12866 3f52 00       		.byte	0
 12867 3f53 00       		.byte	0
 12868 3f54 00       		.byte	0
 12869 3f55 00       		.byte	0
 12870 3f56 3F       		.uleb128 0x3f
 12871 3f57 9C080000 		.4byte	.LVL209
 12872 3f5b 663F0000 		.4byte	0x3f66
 12873 3f5f 3D       		.uleb128 0x3d
 12874 3f60 01       		.uleb128 0x1
 12875 3f61 50       		.byte	0x50
 12876 3f62 02       		.uleb128 0x2
 12877 3f63 74       		.byte	0x74
 12878 3f64 00       		.sleb128 0
 12879 3f65 00       		.byte	0
 12880 3f66 40       		.uleb128 0x40
 12881 3f67 DC080000 		.4byte	.LVL218
 12882 3f6b 055E0000 		.4byte	0x5e05
 12883 3f6f 793F0000 		.4byte	0x3f79
 12884 3f73 3D       		.uleb128 0x3d
 12885 3f74 01       		.uleb128 0x1
 12886 3f75 51       		.byte	0x51
 12887 3f76 01       		.uleb128 0x1
 12888 3f77 30       		.byte	0x30
 12889 3f78 00       		.byte	0
 12890 3f79 40       		.uleb128 0x40
 12891 3f7a E4080000 		.4byte	.LVL219
 12892 3f7e 125E0000 		.4byte	0x5e12
 12893 3f82 923F0000 		.4byte	0x3f92
 12894 3f86 3D       		.uleb128 0x3d
 12895 3f87 01       		.uleb128 0x1
 12896 3f88 50       		.byte	0x50
 12897 3f89 02       		.uleb128 0x2
 12898 3f8a 74       		.byte	0x74
 12899 3f8b 00       		.sleb128 0
 12900 3f8c 3D       		.uleb128 0x3d
 12901 3f8d 01       		.uleb128 0x1
 12902 3f8e 51       		.byte	0x51
 12903 3f8f 01       		.uleb128 0x1
 12904 3f90 30       		.byte	0x30
 12905 3f91 00       		.byte	0
 12906 3f92 41       		.uleb128 0x41
 12907 3f93 F0080000 		.4byte	.LVL220
 12908 3f97 3D       		.uleb128 0x3d
 12909 3f98 01       		.uleb128 0x1
 12910 3f99 50       		.byte	0x50
 12911 3f9a 02       		.uleb128 0x2
ARM GAS  /tmp/ccpnbTSa.s 			page 228


 12912 3f9b 74       		.byte	0x74
 12913 3f9c 00       		.sleb128 0
 12914 3f9d 3D       		.uleb128 0x3d
 12915 3f9e 01       		.uleb128 0x1
 12916 3f9f 51       		.byte	0x51
 12917 3fa0 01       		.uleb128 0x1
 12918 3fa1 36       		.byte	0x36
 12919 3fa2 00       		.byte	0
 12920 3fa3 00       		.byte	0
 12921 3fa4 09       		.uleb128 0x9
 12922 3fa5 86060000 		.4byte	0x686
 12923 3fa9 B43F0000 		.4byte	0x3fb4
 12924 3fad 0A       		.uleb128 0xa
 12925 3fae 3D000000 		.4byte	0x3d
 12926 3fb2 0B       		.byte	0xb
 12927 3fb3 00       		.byte	0
 12928 3fb4 15       		.uleb128 0x15
 12929 3fb5 A43F0000 		.4byte	0x3fa4
 12930 3fb9 32       		.uleb128 0x32
 12931 3fba 4E010000 		.4byte	.LASF771
 12932 3fbe 01       		.byte	0x1
 12933 3fbf 7403     		.2byte	0x374
 12934 3fc1 06       		.byte	0x6
 12935 3fc2 90070000 		.4byte	.LFB382
 12936 3fc6 D2000000 		.4byte	.LFE382-.LFB382
 12937 3fca 01       		.uleb128 0x1
 12938 3fcb 9C       		.byte	0x9c
 12939 3fcc 77430000 		.4byte	0x4377
 12940 3fd0 33       		.uleb128 0x33
 12941 3fd1 2D1E0000 		.4byte	.LASF769
 12942 3fd5 01       		.byte	0x1
 12943 3fd6 7403     		.2byte	0x374
 12944 3fd8 1C       		.byte	0x1c
 12945 3fd9 91330000 		.4byte	0x3391
 12946 3fdd 22010000 		.4byte	.LLST118
 12947 3fe1 12010000 		.4byte	.LVUS118
 12948 3fe5 34       		.uleb128 0x34
 12949 3fe6 657000   		.ascii	"ep\000"
 12950 3fe9 01       		.byte	0x1
 12951 3fea 7403     		.2byte	0x374
 12952 3fec 2A       		.byte	0x2a
 12953 3fed 3C320000 		.4byte	0x323c
 12954 3ff1 8E010000 		.4byte	.LLST119
 12955 3ff5 82010000 		.4byte	.LVUS119
 12956 3ff9 42       		.uleb128 0x42
 12957 3ffa 6D617800 		.ascii	"max\000"
 12958 3ffe 01       		.byte	0x1
 12959 3fff 7503     		.2byte	0x375
 12960 4001 0A       		.byte	0xa
 12961 4002 2C000000 		.4byte	0x2c
 12962 4006 E9010000 		.4byte	.LLST120
 12963 400a E1010000 		.4byte	.LVUS120
 12964 400e 35       		.uleb128 0x35
 12965 400f 91000000 		.4byte	.LASF772
 12966 4013 87430000 		.4byte	0x4387
 12967 4017 36       		.uleb128 0x36
 12968 4018 F45B0000 		.4byte	0x5bf4
ARM GAS  /tmp/ccpnbTSa.s 			page 229


 12969 401c D8070000 		.4byte	.LBI916
 12970 4020 0100     		.2byte	.LVU1167
 12971 4022 780B0000 		.4byte	.Ldebug_ranges0+0xb78
 12972 4026 01       		.byte	0x1
 12973 4027 7A03     		.2byte	0x37a
 12974 4029 13       		.byte	0x13
 12975 402a 4F400000 		.4byte	0x404f
 12976 402e 38       		.uleb128 0x38
 12977 402f 055C0000 		.4byte	0x5c05
 12978 4033 71020000 		.4byte	.LLST121
 12979 4037 6D020000 		.4byte	.LVUS121
 12980 403b 43       		.uleb128 0x43
 12981 403c 780B0000 		.4byte	.Ldebug_ranges0+0xb78
 12982 4040 3B       		.uleb128 0x3b
 12983 4041 0F5C0000 		.4byte	0x5c0f
 12984 4045 99020000 		.4byte	.LLST122
 12985 4049 95020000 		.4byte	.LVUS122
 12986 404d 00       		.byte	0
 12987 404e 00       		.byte	0
 12988 404f 36       		.uleb128 0x36
 12989 4050 945C0000 		.4byte	0x5c94
 12990 4054 00080000 		.4byte	.LBI920
 12991 4058 0100     		.2byte	.LVU1187
 12992 405a 900B0000 		.4byte	.Ldebug_ranges0+0xb90
 12993 405e 01       		.byte	0x1
 12994 405f 8B03     		.2byte	0x38b
 12995 4061 05       		.byte	0x5
 12996 4062 C4400000 		.4byte	0x40c4
 12997 4066 37       		.uleb128 0x37
 12998 4067 BC5C0000 		.4byte	0x5cbc
 12999 406b 00080000 		.4byte	.LBI921
 13000 406f 0300     		.2byte	.LVU1189
 13001 4071 C80B0000 		.4byte	.Ldebug_ranges0+0xbc8
 13002 4075 02       		.byte	0x2
 13003 4076 1502     		.2byte	0x215
 13004 4078 03       		.byte	0x3
 13005 4079 37       		.uleb128 0x37
 13006 407a F25C0000 		.4byte	0x5cf2
 13007 407e 00080000 		.4byte	.LBI922
 13008 4082 0500     		.2byte	.LVU1191
 13009 4084 F80B0000 		.4byte	.Ldebug_ranges0+0xbf8
 13010 4088 03       		.byte	0x3
 13011 4089 8B01     		.2byte	0x18b
 13012 408b 03       		.byte	0x3
 13013 408c 37       		.uleb128 0x37
 13014 408d 065D0000 		.4byte	0x5d06
 13015 4091 00080000 		.4byte	.LBI923
 13016 4095 0700     		.2byte	.LVU1193
 13017 4097 200C0000 		.4byte	.Ldebug_ranges0+0xc20
 13018 409b 04       		.byte	0x4
 13019 409c C602     		.2byte	0x2c6
 13020 409e 03       		.byte	0x3
 13021 409f 37       		.uleb128 0x37
 13022 40a0 105D0000 		.4byte	0x5d10
 13023 40a4 00080000 		.4byte	.LBI924
 13024 40a8 0900     		.2byte	.LVU1195
 13025 40aa 400C0000 		.4byte	.Ldebug_ranges0+0xc40
ARM GAS  /tmp/ccpnbTSa.s 			page 230


 13026 40ae 04       		.byte	0x4
 13027 40af A502     		.2byte	0x2a5
 13028 40b1 03       		.byte	0x3
 13029 40b2 38       		.uleb128 0x38
 13030 40b3 1E5D0000 		.4byte	0x5d1e
 13031 40b7 D4020000 		.4byte	.LLST123
 13032 40bb D2020000 		.4byte	.LVUS123
 13033 40bf 00       		.byte	0
 13034 40c0 00       		.byte	0
 13035 40c1 00       		.byte	0
 13036 40c2 00       		.byte	0
 13037 40c3 00       		.byte	0
 13038 40c4 39       		.uleb128 0x39
 13039 40c5 93560000 		.4byte	0x5693
 13040 40c9 04080000 		.4byte	.LBI942
 13041 40cd 0400     		.2byte	.LVU1201
 13042 40cf 04080000 		.4byte	.LBB942
 13043 40d3 1E000000 		.4byte	.LBE942-.LBB942
 13044 40d7 01       		.byte	0x1
 13045 40d8 8C03     		.2byte	0x38c
 13046 40da 05       		.byte	0x5
 13047 40db 41410000 		.4byte	0x4141
 13048 40df 38       		.uleb128 0x38
 13049 40e0 C7560000 		.4byte	0x56c7
 13050 40e4 EB020000 		.4byte	.LLST124
 13051 40e8 E9020000 		.4byte	.LVUS124
 13052 40ec 38       		.uleb128 0x38
 13053 40ed BA560000 		.4byte	0x56ba
 13054 40f1 EB020000 		.4byte	.LLST124
 13055 40f5 E9020000 		.4byte	.LVUS124
 13056 40f9 38       		.uleb128 0x38
 13057 40fa AE560000 		.4byte	0x56ae
 13058 40fe EB020000 		.4byte	.LLST124
 13059 4102 E9020000 		.4byte	.LVUS124
 13060 4106 38       		.uleb128 0x38
 13061 4107 A1560000 		.4byte	0x56a1
 13062 410b 03030000 		.4byte	.LLST127
 13063 410f FF020000 		.4byte	.LVUS127
 13064 4113 3A       		.uleb128 0x3a
 13065 4114 04080000 		.4byte	.LBB943
 13066 4118 1E000000 		.4byte	.LBE943-.LBB943
 13067 411c 3B       		.uleb128 0x3b
 13068 411d D2560000 		.4byte	0x56d2
 13069 4121 23030000 		.4byte	.LLST128
 13070 4125 21030000 		.4byte	.LVUS128
 13071 4129 3C       		.uleb128 0x3c
 13072 412a 22080000 		.4byte	.LVL197
 13073 412e 1F5E0000 		.4byte	0x5e1f
 13074 4132 3D       		.uleb128 0x3d
 13075 4133 01       		.uleb128 0x1
 13076 4134 50       		.byte	0x50
 13077 4135 02       		.uleb128 0x2
 13078 4136 74       		.byte	0x74
 13079 4137 00       		.sleb128 0
 13080 4138 3D       		.uleb128 0x3d
 13081 4139 01       		.uleb128 0x1
 13082 413a 51       		.byte	0x51
ARM GAS  /tmp/ccpnbTSa.s 			page 231


 13083 413b 02       		.uleb128 0x2
 13084 413c 75       		.byte	0x75
 13085 413d 00       		.sleb128 0
 13086 413e 00       		.byte	0
 13087 413f 00       		.byte	0
 13088 4140 00       		.byte	0
 13089 4141 36       		.uleb128 0x36
 13090 4142 8A5C0000 		.4byte	0x5c8a
 13091 4146 22080000 		.4byte	.LBI944
 13092 414a 0200     		.2byte	.LVU1227
 13093 414c 580C0000 		.4byte	.Ldebug_ranges0+0xc58
 13094 4150 01       		.byte	0x1
 13095 4151 8D03     		.2byte	0x38d
 13096 4153 05       		.byte	0x5
 13097 4154 BA410000 		.4byte	0x41ba
 13098 4158 37       		.uleb128 0x37
 13099 4159 B25C0000 		.4byte	0x5cb2
 13100 415d 22080000 		.4byte	.LBI945
 13101 4161 0400     		.2byte	.LVU1229
 13102 4163 600C0000 		.4byte	.Ldebug_ranges0+0xc60
 13103 4167 02       		.byte	0x2
 13104 4168 2002     		.2byte	0x220
 13105 416a 03       		.byte	0x3
 13106 416b 37       		.uleb128 0x37
 13107 416c E85C0000 		.4byte	0x5ce8
 13108 4170 22080000 		.4byte	.LBI946
 13109 4174 0800     		.2byte	.LVU1233
 13110 4176 680C0000 		.4byte	.Ldebug_ranges0+0xc68
 13111 417a 03       		.byte	0x3
 13112 417b A101     		.2byte	0x1a1
 13113 417d 03       		.byte	0x3
 13114 417e 37       		.uleb128 0x37
 13115 417f FC5C0000 		.4byte	0x5cfc
 13116 4183 22080000 		.4byte	.LBI947
 13117 4187 0A00     		.2byte	.LVU1235
 13118 4189 700C0000 		.4byte	.Ldebug_ranges0+0xc70
 13119 418d 04       		.byte	0x4
 13120 418e D102     		.2byte	0x2d1
 13121 4190 03       		.byte	0x3
 13122 4191 3E       		.uleb128 0x3e
 13123 4192 105D0000 		.4byte	0x5d10
 13124 4196 22080000 		.4byte	.LBI948
 13125 419a 0C00     		.2byte	.LVU1237
 13126 419c 22080000 		.4byte	.LBB948
 13127 41a0 04000000 		.4byte	.LBE948-.LBB948
 13128 41a4 04       		.byte	0x4
 13129 41a5 B802     		.2byte	0x2b8
 13130 41a7 03       		.byte	0x3
 13131 41a8 38       		.uleb128 0x38
 13132 41a9 1E5D0000 		.4byte	0x5d1e
 13133 41ad 38030000 		.4byte	.LLST129
 13134 41b1 36030000 		.4byte	.LVUS129
 13135 41b5 00       		.byte	0
 13136 41b6 00       		.byte	0
 13137 41b7 00       		.byte	0
 13138 41b8 00       		.byte	0
 13139 41b9 00       		.byte	0
ARM GAS  /tmp/ccpnbTSa.s 			page 232


 13140 41ba 36       		.uleb128 0x36
 13141 41bb 945C0000 		.4byte	0x5c94
 13142 41bf 36080000 		.4byte	.LBI960
 13143 41c3 0100     		.2byte	.LVU1250
 13144 41c5 880C0000 		.4byte	.Ldebug_ranges0+0xc88
 13145 41c9 01       		.byte	0x1
 13146 41ca 8003     		.2byte	0x380
 13147 41cc 07       		.byte	0x7
 13148 41cd 33420000 		.4byte	0x4233
 13149 41d1 37       		.uleb128 0x37
 13150 41d2 BC5C0000 		.4byte	0x5cbc
 13151 41d6 36080000 		.4byte	.LBI961
 13152 41da 0300     		.2byte	.LVU1252
 13153 41dc 900C0000 		.4byte	.Ldebug_ranges0+0xc90
 13154 41e0 02       		.byte	0x2
 13155 41e1 1502     		.2byte	0x215
 13156 41e3 03       		.byte	0x3
 13157 41e4 37       		.uleb128 0x37
 13158 41e5 F25C0000 		.4byte	0x5cf2
 13159 41e9 36080000 		.4byte	.LBI962
 13160 41ed 0500     		.2byte	.LVU1254
 13161 41ef 980C0000 		.4byte	.Ldebug_ranges0+0xc98
 13162 41f3 03       		.byte	0x3
 13163 41f4 8B01     		.2byte	0x18b
 13164 41f6 03       		.byte	0x3
 13165 41f7 37       		.uleb128 0x37
 13166 41f8 065D0000 		.4byte	0x5d06
 13167 41fc 36080000 		.4byte	.LBI963
 13168 4200 0700     		.2byte	.LVU1256
 13169 4202 A00C0000 		.4byte	.Ldebug_ranges0+0xca0
 13170 4206 04       		.byte	0x4
 13171 4207 C602     		.2byte	0x2c6
 13172 4209 03       		.byte	0x3
 13173 420a 3E       		.uleb128 0x3e
 13174 420b 105D0000 		.4byte	0x5d10
 13175 420f 36080000 		.4byte	.LBI964
 13176 4213 0900     		.2byte	.LVU1258
 13177 4215 36080000 		.4byte	.LBB964
 13178 4219 06000000 		.4byte	.LBE964-.LBB964
 13179 421d 04       		.byte	0x4
 13180 421e A502     		.2byte	0x2a5
 13181 4220 03       		.byte	0x3
 13182 4221 38       		.uleb128 0x38
 13183 4222 1E5D0000 		.4byte	0x5d1e
 13184 4226 4E030000 		.4byte	.LLST130
 13185 422a 4C030000 		.4byte	.LVUS130
 13186 422e 00       		.byte	0
 13187 422f 00       		.byte	0
 13188 4230 00       		.byte	0
 13189 4231 00       		.byte	0
 13190 4232 00       		.byte	0
 13191 4233 39       		.uleb128 0x39
 13192 4234 3D560000 		.4byte	0x563d
 13193 4238 3C080000 		.4byte	.LBI976
 13194 423c 0400     		.2byte	.LVU1264
 13195 423e 3C080000 		.4byte	.LBB976
 13196 4242 1A000000 		.4byte	.LBE976-.LBB976
ARM GAS  /tmp/ccpnbTSa.s 			page 233


 13197 4246 01       		.byte	0x1
 13198 4247 8103     		.2byte	0x381
 13199 4249 07       		.byte	0x7
 13200 424a B0420000 		.4byte	0x42b0
 13201 424e 38       		.uleb128 0x38
 13202 424f 71560000 		.4byte	0x5671
 13203 4253 65030000 		.4byte	.LLST131
 13204 4257 63030000 		.4byte	.LVUS131
 13205 425b 38       		.uleb128 0x38
 13206 425c 64560000 		.4byte	0x5664
 13207 4260 65030000 		.4byte	.LLST131
 13208 4264 63030000 		.4byte	.LVUS131
 13209 4268 38       		.uleb128 0x38
 13210 4269 58560000 		.4byte	0x5658
 13211 426d 65030000 		.4byte	.LLST131
 13212 4271 63030000 		.4byte	.LVUS131
 13213 4275 38       		.uleb128 0x38
 13214 4276 4B560000 		.4byte	0x564b
 13215 427a 7D030000 		.4byte	.LLST134
 13216 427e 79030000 		.4byte	.LVUS134
 13217 4282 3A       		.uleb128 0x3a
 13218 4283 3C080000 		.4byte	.LBB977
 13219 4287 1A000000 		.4byte	.LBE977-.LBB977
 13220 428b 3B       		.uleb128 0x3b
 13221 428c 7C560000 		.4byte	0x567c
 13222 4290 9D030000 		.4byte	.LLST135
 13223 4294 9B030000 		.4byte	.LVUS135
 13224 4298 3C       		.uleb128 0x3c
 13225 4299 56080000 		.4byte	.LVL205
 13226 429d F85D0000 		.4byte	0x5df8
 13227 42a1 3D       		.uleb128 0x3d
 13228 42a2 01       		.uleb128 0x1
 13229 42a3 50       		.byte	0x50
 13230 42a4 02       		.uleb128 0x2
 13231 42a5 74       		.byte	0x74
 13232 42a6 00       		.sleb128 0
 13233 42a7 3D       		.uleb128 0x3d
 13234 42a8 01       		.uleb128 0x1
 13235 42a9 51       		.byte	0x51
 13236 42aa 02       		.uleb128 0x2
 13237 42ab 75       		.byte	0x75
 13238 42ac 00       		.sleb128 0
 13239 42ad 00       		.byte	0
 13240 42ae 00       		.byte	0
 13241 42af 00       		.byte	0
 13242 42b0 36       		.uleb128 0x36
 13243 42b1 8A5C0000 		.4byte	0x5c8a
 13244 42b5 56080000 		.4byte	.LBI978
 13245 42b9 0200     		.2byte	.LVU1288
 13246 42bb B80C0000 		.4byte	.Ldebug_ranges0+0xcb8
 13247 42bf 01       		.byte	0x1
 13248 42c0 8203     		.2byte	0x382
 13249 42c2 07       		.byte	0x7
 13250 42c3 29430000 		.4byte	0x4329
 13251 42c7 37       		.uleb128 0x37
 13252 42c8 B25C0000 		.4byte	0x5cb2
 13253 42cc 56080000 		.4byte	.LBI979
ARM GAS  /tmp/ccpnbTSa.s 			page 234


 13254 42d0 0400     		.2byte	.LVU1290
 13255 42d2 C00C0000 		.4byte	.Ldebug_ranges0+0xcc0
 13256 42d6 02       		.byte	0x2
 13257 42d7 2002     		.2byte	0x220
 13258 42d9 03       		.byte	0x3
 13259 42da 37       		.uleb128 0x37
 13260 42db E85C0000 		.4byte	0x5ce8
 13261 42df 56080000 		.4byte	.LBI980
 13262 42e3 0800     		.2byte	.LVU1294
 13263 42e5 C80C0000 		.4byte	.Ldebug_ranges0+0xcc8
 13264 42e9 03       		.byte	0x3
 13265 42ea A101     		.2byte	0x1a1
 13266 42ec 03       		.byte	0x3
 13267 42ed 37       		.uleb128 0x37
 13268 42ee FC5C0000 		.4byte	0x5cfc
 13269 42f2 56080000 		.4byte	.LBI981
 13270 42f6 0A00     		.2byte	.LVU1296
 13271 42f8 D00C0000 		.4byte	.Ldebug_ranges0+0xcd0
 13272 42fc 04       		.byte	0x4
 13273 42fd D102     		.2byte	0x2d1
 13274 42ff 03       		.byte	0x3
 13275 4300 3E       		.uleb128 0x3e
 13276 4301 105D0000 		.4byte	0x5d10
 13277 4305 56080000 		.4byte	.LBI982
 13278 4309 0C00     		.2byte	.LVU1298
 13279 430b 56080000 		.4byte	.LBB982
 13280 430f 04000000 		.4byte	.LBE982-.LBB982
 13281 4313 04       		.byte	0x4
 13282 4314 B802     		.2byte	0x2b8
 13283 4316 03       		.byte	0x3
 13284 4317 38       		.uleb128 0x38
 13285 4318 1E5D0000 		.4byte	0x5d1e
 13286 431c B2030000 		.4byte	.LLST136
 13287 4320 B0030000 		.4byte	.LVUS136
 13288 4324 00       		.byte	0
 13289 4325 00       		.byte	0
 13290 4326 00       		.byte	0
 13291 4327 00       		.byte	0
 13292 4328 00       		.byte	0
 13293 4329 40       		.uleb128 0x40
 13294 432a BC070000 		.4byte	.LVL187
 13295 432e 055E0000 		.4byte	0x5e05
 13296 4332 3C430000 		.4byte	0x433c
 13297 4336 3D       		.uleb128 0x3d
 13298 4337 01       		.uleb128 0x1
 13299 4338 51       		.byte	0x51
 13300 4339 01       		.uleb128 0x1
 13301 433a 30       		.byte	0x30
 13302 433b 00       		.byte	0
 13303 433c 40       		.uleb128 0x40
 13304 433d C4070000 		.4byte	.LVL188
 13305 4341 125E0000 		.4byte	0x5e12
 13306 4345 55430000 		.4byte	0x4355
 13307 4349 3D       		.uleb128 0x3d
 13308 434a 01       		.uleb128 0x1
 13309 434b 50       		.byte	0x50
 13310 434c 02       		.uleb128 0x2
ARM GAS  /tmp/ccpnbTSa.s 			page 235


 13311 434d 74       		.byte	0x74
 13312 434e 00       		.sleb128 0
 13313 434f 3D       		.uleb128 0x3d
 13314 4350 01       		.uleb128 0x1
 13315 4351 51       		.byte	0x51
 13316 4352 01       		.uleb128 0x1
 13317 4353 30       		.byte	0x30
 13318 4354 00       		.byte	0
 13319 4355 3F       		.uleb128 0x3f
 13320 4356 D0070000 		.4byte	.LVL189
 13321 435a 6A430000 		.4byte	0x436a
 13322 435e 3D       		.uleb128 0x3d
 13323 435f 01       		.uleb128 0x1
 13324 4360 50       		.byte	0x50
 13325 4361 02       		.uleb128 0x2
 13326 4362 74       		.byte	0x74
 13327 4363 00       		.sleb128 0
 13328 4364 3D       		.uleb128 0x3d
 13329 4365 01       		.uleb128 0x1
 13330 4366 51       		.byte	0x51
 13331 4367 01       		.uleb128 0x1
 13332 4368 36       		.byte	0x36
 13333 4369 00       		.byte	0
 13334 436a 41       		.uleb128 0x41
 13335 436b 2E080000 		.4byte	.LVL200
 13336 436f 3D       		.uleb128 0x3d
 13337 4370 01       		.uleb128 0x1
 13338 4371 50       		.byte	0x50
 13339 4372 02       		.uleb128 0x2
 13340 4373 74       		.byte	0x74
 13341 4374 00       		.sleb128 0
 13342 4375 00       		.byte	0
 13343 4376 00       		.byte	0
 13344 4377 09       		.uleb128 0x9
 13345 4378 86060000 		.4byte	0x686
 13346 437c 87430000 		.4byte	0x4387
 13347 4380 0A       		.uleb128 0xa
 13348 4381 3D000000 		.4byte	0x3d
 13349 4385 0A       		.byte	0xa
 13350 4386 00       		.byte	0
 13351 4387 15       		.uleb128 0x15
 13352 4388 77430000 		.4byte	0x4377
 13353 438c 32       		.uleb128 0x32
 13354 438d CE0F0000 		.4byte	.LASF773
 13355 4391 01       		.byte	0x1
 13356 4392 0803     		.2byte	0x308
 13357 4394 06       		.byte	0x6
 13358 4395 00040000 		.4byte	.LFB381
 13359 4399 84030000 		.4byte	.LFE381-.LFB381
 13360 439d 01       		.uleb128 0x1
 13361 439e 9C       		.byte	0x9c
 13362 439f 784C0000 		.4byte	0x4c78
 13363 43a3 33       		.uleb128 0x33
 13364 43a4 2D1E0000 		.4byte	.LASF769
 13365 43a8 01       		.byte	0x1
 13366 43a9 0803     		.2byte	0x308
 13367 43ab 1F       		.byte	0x1f
ARM GAS  /tmp/ccpnbTSa.s 			page 236


 13368 43ac 91330000 		.4byte	0x3391
 13369 43b0 E2030000 		.4byte	.LLST78
 13370 43b4 C6030000 		.4byte	.LVUS78
 13371 43b8 34       		.uleb128 0x34
 13372 43b9 657000   		.ascii	"ep\000"
 13373 43bc 01       		.byte	0x1
 13374 43bd 0803     		.2byte	0x308
 13375 43bf 2D       		.byte	0x2d
 13376 43c0 3C320000 		.4byte	0x323c
 13377 43c4 88040000 		.4byte	.LLST79
 13378 43c8 84040000 		.4byte	.LVUS79
 13379 43cc 42       		.uleb128 0x42
 13380 43cd 6D617800 		.ascii	"max\000"
 13381 43d1 01       		.byte	0x1
 13382 43d2 0903     		.2byte	0x309
 13383 43d4 0A       		.byte	0xa
 13384 43d5 2C000000 		.4byte	0x2c
 13385 43d9 B7040000 		.4byte	.LLST80
 13386 43dd A9040000 		.4byte	.LVUS80
 13387 43e1 36       		.uleb128 0x36
 13388 43e2 F45B0000 		.4byte	0x5bf4
 13389 43e6 2C040000 		.4byte	.LBI682
 13390 43ea 0100     		.2byte	.LVU665
 13391 43ec 60060000 		.4byte	.Ldebug_ranges0+0x660
 13392 43f0 01       		.byte	0x1
 13393 43f1 3703     		.2byte	0x337
 13394 43f3 11       		.byte	0x11
 13395 43f4 19440000 		.4byte	0x4419
 13396 43f8 38       		.uleb128 0x38
 13397 43f9 055C0000 		.4byte	0x5c05
 13398 43fd 6B050000 		.4byte	.LLST81
 13399 4401 63050000 		.4byte	.LVUS81
 13400 4405 43       		.uleb128 0x43
 13401 4406 60060000 		.4byte	.Ldebug_ranges0+0x660
 13402 440a 3B       		.uleb128 0x3b
 13403 440b 0F5C0000 		.4byte	0x5c0f
 13404 440f B3050000 		.4byte	.LLST82
 13405 4413 AB050000 		.4byte	.LVUS82
 13406 4417 00       		.byte	0
 13407 4418 00       		.byte	0
 13408 4419 36       		.uleb128 0x36
 13409 441a 945C0000 		.4byte	0x5c94
 13410 441e 54040000 		.4byte	.LBI685
 13411 4422 0100     		.2byte	.LVU687
 13412 4424 78060000 		.4byte	.Ldebug_ranges0+0x678
 13413 4428 01       		.byte	0x1
 13414 4429 5703     		.2byte	0x357
 13415 442b 07       		.byte	0x7
 13416 442c 8E440000 		.4byte	0x448e
 13417 4430 37       		.uleb128 0x37
 13418 4431 BC5C0000 		.4byte	0x5cbc
 13419 4435 54040000 		.4byte	.LBI686
 13420 4439 0300     		.2byte	.LVU689
 13421 443b B0060000 		.4byte	.Ldebug_ranges0+0x6b0
 13422 443f 02       		.byte	0x2
 13423 4440 1502     		.2byte	0x215
 13424 4442 03       		.byte	0x3
ARM GAS  /tmp/ccpnbTSa.s 			page 237


 13425 4443 37       		.uleb128 0x37
 13426 4444 F25C0000 		.4byte	0x5cf2
 13427 4448 54040000 		.4byte	.LBI687
 13428 444c 0500     		.2byte	.LVU691
 13429 444e E0060000 		.4byte	.Ldebug_ranges0+0x6e0
 13430 4452 03       		.byte	0x3
 13431 4453 8B01     		.2byte	0x18b
 13432 4455 03       		.byte	0x3
 13433 4456 37       		.uleb128 0x37
 13434 4457 065D0000 		.4byte	0x5d06
 13435 445b 54040000 		.4byte	.LBI688
 13436 445f 0700     		.2byte	.LVU693
 13437 4461 08070000 		.4byte	.Ldebug_ranges0+0x708
 13438 4465 04       		.byte	0x4
 13439 4466 C602     		.2byte	0x2c6
 13440 4468 03       		.byte	0x3
 13441 4469 37       		.uleb128 0x37
 13442 446a 105D0000 		.4byte	0x5d10
 13443 446e 54040000 		.4byte	.LBI689
 13444 4472 0900     		.2byte	.LVU695
 13445 4474 28070000 		.4byte	.Ldebug_ranges0+0x728
 13446 4478 04       		.byte	0x4
 13447 4479 A502     		.2byte	0x2a5
 13448 447b 03       		.byte	0x3
 13449 447c 38       		.uleb128 0x38
 13450 447d 1E5D0000 		.4byte	0x5d1e
 13451 4481 1F060000 		.4byte	.LLST83
 13452 4485 1D060000 		.4byte	.LVUS83
 13453 4489 00       		.byte	0
 13454 448a 00       		.byte	0
 13455 448b 00       		.byte	0
 13456 448c 00       		.byte	0
 13457 448d 00       		.byte	0
 13458 448e 36       		.uleb128 0x36
 13459 448f 93560000 		.4byte	0x5693
 13460 4493 6E040000 		.4byte	.LBI707
 13461 4497 0000     		.2byte	.LVU711
 13462 4499 40070000 		.4byte	.Ldebug_ranges0+0x740
 13463 449d 01       		.byte	0x1
 13464 449e 5803     		.2byte	0x358
 13465 44a0 07       		.byte	0x7
 13466 44a1 03450000 		.4byte	0x4503
 13467 44a5 38       		.uleb128 0x38
 13468 44a6 C7560000 		.4byte	0x56c7
 13469 44aa 36060000 		.4byte	.LLST84
 13470 44ae 34060000 		.4byte	.LVUS84
 13471 44b2 38       		.uleb128 0x38
 13472 44b3 BA560000 		.4byte	0x56ba
 13473 44b7 4B060000 		.4byte	.LLST85
 13474 44bb 49060000 		.4byte	.LVUS85
 13475 44bf 38       		.uleb128 0x38
 13476 44c0 AE560000 		.4byte	0x56ae
 13477 44c4 60060000 		.4byte	.LLST86
 13478 44c8 5E060000 		.4byte	.LVUS86
 13479 44cc 38       		.uleb128 0x38
 13480 44cd A1560000 		.4byte	0x56a1
 13481 44d1 78060000 		.4byte	.LLST87
ARM GAS  /tmp/ccpnbTSa.s 			page 238


 13482 44d5 74060000 		.4byte	.LVUS87
 13483 44d9 43       		.uleb128 0x43
 13484 44da 40070000 		.4byte	.Ldebug_ranges0+0x740
 13485 44de 3B       		.uleb128 0x3b
 13486 44df D2560000 		.4byte	0x56d2
 13487 44e3 98060000 		.4byte	.LLST88
 13488 44e7 96060000 		.4byte	.LVUS88
 13489 44eb 3C       		.uleb128 0x3c
 13490 44ec 78040000 		.4byte	.LVL115
 13491 44f0 1F5E0000 		.4byte	0x5e1f
 13492 44f4 3D       		.uleb128 0x3d
 13493 44f5 01       		.uleb128 0x1
 13494 44f6 50       		.byte	0x50
 13495 44f7 02       		.uleb128 0x2
 13496 44f8 74       		.byte	0x74
 13497 44f9 00       		.sleb128 0
 13498 44fa 3D       		.uleb128 0x3d
 13499 44fb 01       		.uleb128 0x1
 13500 44fc 51       		.byte	0x51
 13501 44fd 02       		.uleb128 0x2
 13502 44fe 75       		.byte	0x75
 13503 44ff 00       		.sleb128 0
 13504 4500 00       		.byte	0
 13505 4501 00       		.byte	0
 13506 4502 00       		.byte	0
 13507 4503 36       		.uleb128 0x36
 13508 4504 8A5C0000 		.4byte	0x5c8a
 13509 4508 78040000 		.4byte	.LBI713
 13510 450c 0200     		.2byte	.LVU727
 13511 450e 60070000 		.4byte	.Ldebug_ranges0+0x760
 13512 4512 01       		.byte	0x1
 13513 4513 5903     		.2byte	0x359
 13514 4515 07       		.byte	0x7
 13515 4516 7C450000 		.4byte	0x457c
 13516 451a 37       		.uleb128 0x37
 13517 451b B25C0000 		.4byte	0x5cb2
 13518 451f 78040000 		.4byte	.LBI714
 13519 4523 0400     		.2byte	.LVU729
 13520 4525 68070000 		.4byte	.Ldebug_ranges0+0x768
 13521 4529 02       		.byte	0x2
 13522 452a 2002     		.2byte	0x220
 13523 452c 03       		.byte	0x3
 13524 452d 37       		.uleb128 0x37
 13525 452e E85C0000 		.4byte	0x5ce8
 13526 4532 78040000 		.4byte	.LBI715
 13527 4536 0800     		.2byte	.LVU733
 13528 4538 70070000 		.4byte	.Ldebug_ranges0+0x770
 13529 453c 03       		.byte	0x3
 13530 453d A101     		.2byte	0x1a1
 13531 453f 03       		.byte	0x3
 13532 4540 37       		.uleb128 0x37
 13533 4541 FC5C0000 		.4byte	0x5cfc
 13534 4545 78040000 		.4byte	.LBI716
 13535 4549 0A00     		.2byte	.LVU735
 13536 454b 78070000 		.4byte	.Ldebug_ranges0+0x778
 13537 454f 04       		.byte	0x4
 13538 4550 D102     		.2byte	0x2d1
ARM GAS  /tmp/ccpnbTSa.s 			page 239


 13539 4552 03       		.byte	0x3
 13540 4553 3E       		.uleb128 0x3e
 13541 4554 105D0000 		.4byte	0x5d10
 13542 4558 78040000 		.4byte	.LBI717
 13543 455c 0C00     		.2byte	.LVU737
 13544 455e 78040000 		.4byte	.LBB717
 13545 4562 04000000 		.4byte	.LBE717-.LBB717
 13546 4566 04       		.byte	0x4
 13547 4567 B802     		.2byte	0x2b8
 13548 4569 03       		.byte	0x3
 13549 456a 38       		.uleb128 0x38
 13550 456b 1E5D0000 		.4byte	0x5d1e
 13551 456f AD060000 		.4byte	.LLST89
 13552 4573 AB060000 		.4byte	.LVUS89
 13553 4577 00       		.byte	0
 13554 4578 00       		.byte	0
 13555 4579 00       		.byte	0
 13556 457a 00       		.byte	0
 13557 457b 00       		.byte	0
 13558 457c 36       		.uleb128 0x36
 13559 457d B15B0000 		.4byte	0x5bb1
 13560 4581 88040000 		.4byte	.LBI729
 13561 4585 0000     		.2byte	.LVU744
 13562 4587 90070000 		.4byte	.Ldebug_ranges0+0x790
 13563 458b 01       		.byte	0x1
 13564 458c 2203     		.2byte	0x322
 13565 458e 0A       		.byte	0xa
 13566 458f D0470000 		.4byte	0x47d0
 13567 4593 38       		.uleb128 0x38
 13568 4594 C25B0000 		.4byte	0x5bc2
 13569 4598 EF060000 		.4byte	.LLST90
 13570 459c C1060000 		.4byte	.LVUS90
 13571 45a0 43       		.uleb128 0x43
 13572 45a1 90070000 		.4byte	.Ldebug_ranges0+0x790
 13573 45a5 3B       		.uleb128 0x3b
 13574 45a6 CE5B0000 		.4byte	0x5bce
 13575 45aa F6070000 		.4byte	.LLST91
 13576 45ae F4070000 		.4byte	.LVUS91
 13577 45b2 44       		.uleb128 0x44
 13578 45b3 DA5B0000 		.4byte	0x5bda
 13579 45b7 F0050000 		.4byte	.LBI731
 13580 45bb 0100     		.2byte	.LVU981
 13581 45bd F0050000 		.4byte	.LBB731
 13582 45c1 22000000 		.4byte	.LBE731-.LBB731
 13583 45c5 01       		.byte	0x1
 13584 45c6 78       		.byte	0x78
 13585 45c7 07       		.byte	0x7
 13586 45c8 FF450000 		.4byte	0x45ff
 13587 45cc 38       		.uleb128 0x38
 13588 45cd E75B0000 		.4byte	0x5be7
 13589 45d1 0B080000 		.4byte	.LLST92
 13590 45d5 09080000 		.4byte	.LVUS92
 13591 45d9 40       		.uleb128 0x40
 13592 45da FE050000 		.4byte	.LVL153
 13593 45de 2C5E0000 		.4byte	0x5e2c
 13594 45e2 ED450000 		.4byte	0x45ed
 13595 45e6 3D       		.uleb128 0x3d
ARM GAS  /tmp/ccpnbTSa.s 			page 240


 13596 45e7 01       		.uleb128 0x1
 13597 45e8 50       		.byte	0x50
 13598 45e9 02       		.uleb128 0x2
 13599 45ea 74       		.byte	0x74
 13600 45eb 00       		.sleb128 0
 13601 45ec 00       		.byte	0
 13602 45ed 41       		.uleb128 0x41
 13603 45ee 0A060000 		.4byte	.LVL154
 13604 45f2 3D       		.uleb128 0x3d
 13605 45f3 01       		.uleb128 0x1
 13606 45f4 50       		.byte	0x50
 13607 45f5 02       		.uleb128 0x2
 13608 45f6 74       		.byte	0x74
 13609 45f7 00       		.sleb128 0
 13610 45f8 3D       		.uleb128 0x3d
 13611 45f9 01       		.uleb128 0x1
 13612 45fa 51       		.byte	0x51
 13613 45fb 01       		.uleb128 0x1
 13614 45fc 31       		.byte	0x31
 13615 45fd 00       		.byte	0
 13616 45fe 00       		.byte	0
 13617 45ff 45       		.uleb128 0x45
 13618 4600 F45B0000 		.4byte	0x5bf4
 13619 4604 C6060000 		.4byte	.LBI733
 13620 4608 0100     		.2byte	.LVU1059
 13621 460a F8070000 		.4byte	.Ldebug_ranges0+0x7f8
 13622 460e 01       		.byte	0x1
 13623 460f 82       		.byte	0x82
 13624 4610 0A       		.byte	0xa
 13625 4611 36460000 		.4byte	0x4636
 13626 4615 38       		.uleb128 0x38
 13627 4616 055C0000 		.4byte	0x5c05
 13628 461a 22080000 		.4byte	.LLST93
 13629 461e 1E080000 		.4byte	.LVUS93
 13630 4622 43       		.uleb128 0x43
 13631 4623 F8070000 		.4byte	.Ldebug_ranges0+0x7f8
 13632 4627 3B       		.uleb128 0x3b
 13633 4628 0F5C0000 		.4byte	0x5c0f
 13634 462c 4A080000 		.4byte	.LLST94
 13635 4630 46080000 		.4byte	.LVUS94
 13636 4634 00       		.byte	0
 13637 4635 00       		.byte	0
 13638 4636 45       		.uleb128 0x45
 13639 4637 945C0000 		.4byte	0x5c94
 13640 463b 3C070000 		.4byte	.LBI737
 13641 463f 0100     		.2byte	.LVU1107
 13642 4641 10080000 		.4byte	.Ldebug_ranges0+0x810
 13643 4645 01       		.byte	0x1
 13644 4646 9B       		.byte	0x9b
 13645 4647 09       		.byte	0x9
 13646 4648 AE460000 		.4byte	0x46ae
 13647 464c 37       		.uleb128 0x37
 13648 464d BC5C0000 		.4byte	0x5cbc
 13649 4651 3C070000 		.4byte	.LBI738
 13650 4655 0300     		.2byte	.LVU1109
 13651 4657 18080000 		.4byte	.Ldebug_ranges0+0x818
 13652 465b 02       		.byte	0x2
ARM GAS  /tmp/ccpnbTSa.s 			page 241


 13653 465c 1502     		.2byte	0x215
 13654 465e 03       		.byte	0x3
 13655 465f 37       		.uleb128 0x37
 13656 4660 F25C0000 		.4byte	0x5cf2
 13657 4664 3C070000 		.4byte	.LBI739
 13658 4668 0500     		.2byte	.LVU1111
 13659 466a 20080000 		.4byte	.Ldebug_ranges0+0x820
 13660 466e 03       		.byte	0x3
 13661 466f 8B01     		.2byte	0x18b
 13662 4671 03       		.byte	0x3
 13663 4672 37       		.uleb128 0x37
 13664 4673 065D0000 		.4byte	0x5d06
 13665 4677 3C070000 		.4byte	.LBI740
 13666 467b 0700     		.2byte	.LVU1113
 13667 467d 28080000 		.4byte	.Ldebug_ranges0+0x828
 13668 4681 04       		.byte	0x4
 13669 4682 C602     		.2byte	0x2c6
 13670 4684 03       		.byte	0x3
 13671 4685 3E       		.uleb128 0x3e
 13672 4686 105D0000 		.4byte	0x5d10
 13673 468a 3C070000 		.4byte	.LBI741
 13674 468e 0900     		.2byte	.LVU1115
 13675 4690 3C070000 		.4byte	.LBB741
 13676 4694 06000000 		.4byte	.LBE741-.LBB741
 13677 4698 04       		.byte	0x4
 13678 4699 A502     		.2byte	0x2a5
 13679 469b 03       		.byte	0x3
 13680 469c 38       		.uleb128 0x38
 13681 469d 1E5D0000 		.4byte	0x5d1e
 13682 46a1 85080000 		.4byte	.LLST95
 13683 46a5 83080000 		.4byte	.LVUS95
 13684 46a9 00       		.byte	0
 13685 46aa 00       		.byte	0
 13686 46ab 00       		.byte	0
 13687 46ac 00       		.byte	0
 13688 46ad 00       		.byte	0
 13689 46ae 45       		.uleb128 0x45
 13690 46af 8A5C0000 		.4byte	0x5c8a
 13691 46b3 48070000 		.4byte	.LBI753
 13692 46b7 0100     		.2byte	.LVU1122
 13693 46b9 40080000 		.4byte	.Ldebug_ranges0+0x840
 13694 46bd 01       		.byte	0x1
 13695 46be 9D       		.byte	0x9d
 13696 46bf 09       		.byte	0x9
 13697 46c0 26470000 		.4byte	0x4726
 13698 46c4 37       		.uleb128 0x37
 13699 46c5 B25C0000 		.4byte	0x5cb2
 13700 46c9 48070000 		.4byte	.LBI754
 13701 46cd 0300     		.2byte	.LVU1124
 13702 46cf 48080000 		.4byte	.Ldebug_ranges0+0x848
 13703 46d3 02       		.byte	0x2
 13704 46d4 2002     		.2byte	0x220
 13705 46d6 03       		.byte	0x3
 13706 46d7 37       		.uleb128 0x37
 13707 46d8 E85C0000 		.4byte	0x5ce8
 13708 46dc 48070000 		.4byte	.LBI755
 13709 46e0 0700     		.2byte	.LVU1128
ARM GAS  /tmp/ccpnbTSa.s 			page 242


 13710 46e2 50080000 		.4byte	.Ldebug_ranges0+0x850
 13711 46e6 03       		.byte	0x3
 13712 46e7 A101     		.2byte	0x1a1
 13713 46e9 03       		.byte	0x3
 13714 46ea 37       		.uleb128 0x37
 13715 46eb FC5C0000 		.4byte	0x5cfc
 13716 46ef 48070000 		.4byte	.LBI756
 13717 46f3 0900     		.2byte	.LVU1130
 13718 46f5 58080000 		.4byte	.Ldebug_ranges0+0x858
 13719 46f9 04       		.byte	0x4
 13720 46fa D102     		.2byte	0x2d1
 13721 46fc 03       		.byte	0x3
 13722 46fd 3E       		.uleb128 0x3e
 13723 46fe 105D0000 		.4byte	0x5d10
 13724 4702 48070000 		.4byte	.LBI757
 13725 4706 0B00     		.2byte	.LVU1132
 13726 4708 48070000 		.4byte	.LBB757
 13727 470c 04000000 		.4byte	.LBE757-.LBB757
 13728 4710 04       		.byte	0x4
 13729 4711 B802     		.2byte	0x2b8
 13730 4713 03       		.byte	0x3
 13731 4714 38       		.uleb128 0x38
 13732 4715 1E5D0000 		.4byte	0x5d1e
 13733 4719 9C080000 		.4byte	.LLST96
 13734 471d 9A080000 		.4byte	.LVUS96
 13735 4721 00       		.byte	0
 13736 4722 00       		.byte	0
 13737 4723 00       		.byte	0
 13738 4724 00       		.byte	0
 13739 4725 00       		.byte	0
 13740 4726 40       		.uleb128 0x40
 13741 4727 34060000 		.4byte	.LVL157
 13742 472b 125E0000 		.4byte	0x5e12
 13743 472f 3A470000 		.4byte	0x473a
 13744 4733 3D       		.uleb128 0x3d
 13745 4734 01       		.uleb128 0x1
 13746 4735 50       		.byte	0x50
 13747 4736 02       		.uleb128 0x2
 13748 4737 74       		.byte	0x74
 13749 4738 00       		.sleb128 0
 13750 4739 00       		.byte	0
 13751 473a 40       		.uleb128 0x40
 13752 473b 4C060000 		.4byte	.LVL159
 13753 473f 395E0000 		.4byte	0x5e39
 13754 4743 4E470000 		.4byte	0x474e
 13755 4747 3D       		.uleb128 0x3d
 13756 4748 01       		.uleb128 0x1
 13757 4749 50       		.byte	0x50
 13758 474a 02       		.uleb128 0x2
 13759 474b 74       		.byte	0x74
 13760 474c 00       		.sleb128 0
 13761 474d 00       		.byte	0
 13762 474e 40       		.uleb128 0x40
 13763 474f 84060000 		.4byte	.LVL163
 13764 4753 465E0000 		.4byte	0x5e46
 13765 4757 62470000 		.4byte	0x4762
 13766 475b 3D       		.uleb128 0x3d
ARM GAS  /tmp/ccpnbTSa.s 			page 243


 13767 475c 01       		.uleb128 0x1
 13768 475d 50       		.byte	0x50
 13769 475e 02       		.uleb128 0x2
 13770 475f 74       		.byte	0x74
 13771 4760 00       		.sleb128 0
 13772 4761 00       		.byte	0
 13773 4762 46       		.uleb128 0x46
 13774 4763 E2060000 		.4byte	.LVL168
 13775 4767 02       		.uleb128 0x2
 13776 4768 75       		.byte	0x75
 13777 4769 00       		.sleb128 0
 13778 476a 75470000 		.4byte	0x4775
 13779 476e 3D       		.uleb128 0x3d
 13780 476f 01       		.uleb128 0x1
 13781 4770 50       		.byte	0x50
 13782 4771 02       		.uleb128 0x2
 13783 4772 74       		.byte	0x74
 13784 4773 00       		.sleb128 0
 13785 4774 00       		.byte	0
 13786 4775 3F       		.uleb128 0x3f
 13787 4776 18070000 		.4byte	.LVL171
 13788 477a 8A470000 		.4byte	0x478a
 13789 477e 3D       		.uleb128 0x3d
 13790 477f 01       		.uleb128 0x1
 13791 4780 50       		.byte	0x50
 13792 4781 02       		.uleb128 0x2
 13793 4782 74       		.byte	0x74
 13794 4783 00       		.sleb128 0
 13795 4784 3D       		.uleb128 0x3d
 13796 4785 01       		.uleb128 0x1
 13797 4786 51       		.byte	0x51
 13798 4787 01       		.uleb128 0x1
 13799 4788 32       		.byte	0x32
 13800 4789 00       		.byte	0
 13801 478a 47       		.uleb128 0x47
 13802 478b 2A070000 		.4byte	.LVL174
 13803 478f 535E0000 		.4byte	0x5e53
 13804 4793 40       		.uleb128 0x40
 13805 4794 48070000 		.4byte	.LVL178
 13806 4798 E9560000 		.4byte	0x56e9
 13807 479c A7470000 		.4byte	0x47a7
 13808 47a0 3D       		.uleb128 0x3d
 13809 47a1 01       		.uleb128 0x1
 13810 47a2 50       		.byte	0x50
 13811 47a3 02       		.uleb128 0x2
 13812 47a4 74       		.byte	0x74
 13813 47a5 00       		.sleb128 0
 13814 47a6 00       		.byte	0
 13815 47a7 3F       		.uleb128 0x3f
 13816 47a8 60070000 		.4byte	.LVL180
 13817 47ac BC470000 		.4byte	0x47bc
 13818 47b0 3D       		.uleb128 0x3d
 13819 47b1 01       		.uleb128 0x1
 13820 47b2 50       		.byte	0x50
 13821 47b3 02       		.uleb128 0x2
 13822 47b4 74       		.byte	0x74
 13823 47b5 00       		.sleb128 0
ARM GAS  /tmp/ccpnbTSa.s 			page 244


 13824 47b6 3D       		.uleb128 0x3d
 13825 47b7 01       		.uleb128 0x1
 13826 47b8 51       		.byte	0x51
 13827 47b9 01       		.uleb128 0x1
 13828 47ba 33       		.byte	0x33
 13829 47bb 00       		.byte	0
 13830 47bc 47       		.uleb128 0x47
 13831 47bd 66070000 		.4byte	.LVL182
 13832 47c1 055E0000 		.4byte	0x5e05
 13833 47c5 47       		.uleb128 0x47
 13834 47c6 70070000 		.4byte	.LVL184
 13835 47ca 605E0000 		.4byte	0x5e60
 13836 47ce 00       		.byte	0
 13837 47cf 00       		.byte	0
 13838 47d0 36       		.uleb128 0x36
 13839 47d1 945C0000 		.4byte	0x5c94
 13840 47d5 64050000 		.4byte	.LBI782
 13841 47d9 0100     		.2byte	.LVU805
 13842 47db 70080000 		.4byte	.Ldebug_ranges0+0x870
 13843 47df 01       		.byte	0x1
 13844 47e0 6003     		.2byte	0x360
 13845 47e2 07       		.byte	0x7
 13846 47e3 45480000 		.4byte	0x4845
 13847 47e7 37       		.uleb128 0x37
 13848 47e8 BC5C0000 		.4byte	0x5cbc
 13849 47ec 64050000 		.4byte	.LBI783
 13850 47f0 0300     		.2byte	.LVU807
 13851 47f2 A8080000 		.4byte	.Ldebug_ranges0+0x8a8
 13852 47f6 02       		.byte	0x2
 13853 47f7 1502     		.2byte	0x215
 13854 47f9 03       		.byte	0x3
 13855 47fa 37       		.uleb128 0x37
 13856 47fb F25C0000 		.4byte	0x5cf2
 13857 47ff 64050000 		.4byte	.LBI784
 13858 4803 0500     		.2byte	.LVU809
 13859 4805 D8080000 		.4byte	.Ldebug_ranges0+0x8d8
 13860 4809 03       		.byte	0x3
 13861 480a 8B01     		.2byte	0x18b
 13862 480c 03       		.byte	0x3
 13863 480d 37       		.uleb128 0x37
 13864 480e 065D0000 		.4byte	0x5d06
 13865 4812 64050000 		.4byte	.LBI785
 13866 4816 0700     		.2byte	.LVU811
 13867 4818 00090000 		.4byte	.Ldebug_ranges0+0x900
 13868 481c 04       		.byte	0x4
 13869 481d C602     		.2byte	0x2c6
 13870 481f 03       		.byte	0x3
 13871 4820 37       		.uleb128 0x37
 13872 4821 105D0000 		.4byte	0x5d10
 13873 4825 64050000 		.4byte	.LBI786
 13874 4829 0900     		.2byte	.LVU813
 13875 482b 20090000 		.4byte	.Ldebug_ranges0+0x920
 13876 482f 04       		.byte	0x4
 13877 4830 A502     		.2byte	0x2a5
 13878 4832 03       		.byte	0x3
 13879 4833 38       		.uleb128 0x38
 13880 4834 1E5D0000 		.4byte	0x5d1e
ARM GAS  /tmp/ccpnbTSa.s 			page 245


 13881 4838 B2080000 		.4byte	.LLST97
 13882 483c B0080000 		.4byte	.LVUS97
 13883 4840 00       		.byte	0
 13884 4841 00       		.byte	0
 13885 4842 00       		.byte	0
 13886 4843 00       		.byte	0
 13887 4844 00       		.byte	0
 13888 4845 39       		.uleb128 0x39
 13889 4846 3D560000 		.4byte	0x563d
 13890 484a 68050000 		.4byte	.LBI804
 13891 484e 0400     		.2byte	.LVU819
 13892 4850 68050000 		.4byte	.LBB804
 13893 4854 1E000000 		.4byte	.LBE804-.LBB804
 13894 4858 01       		.byte	0x1
 13895 4859 6103     		.2byte	0x361
 13896 485b 07       		.byte	0x7
 13897 485c C2480000 		.4byte	0x48c2
 13898 4860 38       		.uleb128 0x38
 13899 4861 71560000 		.4byte	0x5671
 13900 4865 C9080000 		.4byte	.LLST98
 13901 4869 C7080000 		.4byte	.LVUS98
 13902 486d 38       		.uleb128 0x38
 13903 486e 64560000 		.4byte	0x5664
 13904 4872 C9080000 		.4byte	.LLST98
 13905 4876 C7080000 		.4byte	.LVUS98
 13906 487a 38       		.uleb128 0x38
 13907 487b 58560000 		.4byte	0x5658
 13908 487f C9080000 		.4byte	.LLST98
 13909 4883 C7080000 		.4byte	.LVUS98
 13910 4887 38       		.uleb128 0x38
 13911 4888 4B560000 		.4byte	0x564b
 13912 488c DF080000 		.4byte	.LLST101
 13913 4890 DD080000 		.4byte	.LVUS101
 13914 4894 3A       		.uleb128 0x3a
 13915 4895 68050000 		.4byte	.LBB805
 13916 4899 1E000000 		.4byte	.LBE805-.LBB805
 13917 489d 3B       		.uleb128 0x3b
 13918 489e 7C560000 		.4byte	0x567c
 13919 48a2 F4080000 		.4byte	.LLST102
 13920 48a6 F2080000 		.4byte	.LVUS102
 13921 48aa 3C       		.uleb128 0x3c
 13922 48ab 86050000 		.4byte	.LVL135
 13923 48af F85D0000 		.4byte	0x5df8
 13924 48b3 3D       		.uleb128 0x3d
 13925 48b4 01       		.uleb128 0x1
 13926 48b5 50       		.byte	0x50
 13927 48b6 02       		.uleb128 0x2
 13928 48b7 74       		.byte	0x74
 13929 48b8 00       		.sleb128 0
 13930 48b9 3D       		.uleb128 0x3d
 13931 48ba 01       		.uleb128 0x1
 13932 48bb 51       		.byte	0x51
 13933 48bc 02       		.uleb128 0x2
 13934 48bd 75       		.byte	0x75
 13935 48be 00       		.sleb128 0
 13936 48bf 00       		.byte	0
 13937 48c0 00       		.byte	0
ARM GAS  /tmp/ccpnbTSa.s 			page 246


 13938 48c1 00       		.byte	0
 13939 48c2 36       		.uleb128 0x36
 13940 48c3 8A5C0000 		.4byte	0x5c8a
 13941 48c7 86050000 		.4byte	.LBI806
 13942 48cb 0200     		.2byte	.LVU845
 13943 48cd 38090000 		.4byte	.Ldebug_ranges0+0x938
 13944 48d1 01       		.byte	0x1
 13945 48d2 6203     		.2byte	0x362
 13946 48d4 07       		.byte	0x7
 13947 48d5 3B490000 		.4byte	0x493b
 13948 48d9 37       		.uleb128 0x37
 13949 48da B25C0000 		.4byte	0x5cb2
 13950 48de 86050000 		.4byte	.LBI807
 13951 48e2 0400     		.2byte	.LVU847
 13952 48e4 40090000 		.4byte	.Ldebug_ranges0+0x940
 13953 48e8 02       		.byte	0x2
 13954 48e9 2002     		.2byte	0x220
 13955 48eb 03       		.byte	0x3
 13956 48ec 37       		.uleb128 0x37
 13957 48ed E85C0000 		.4byte	0x5ce8
 13958 48f1 86050000 		.4byte	.LBI808
 13959 48f5 0800     		.2byte	.LVU851
 13960 48f7 48090000 		.4byte	.Ldebug_ranges0+0x948
 13961 48fb 03       		.byte	0x3
 13962 48fc A101     		.2byte	0x1a1
 13963 48fe 03       		.byte	0x3
 13964 48ff 37       		.uleb128 0x37
 13965 4900 FC5C0000 		.4byte	0x5cfc
 13966 4904 86050000 		.4byte	.LBI809
 13967 4908 0A00     		.2byte	.LVU853
 13968 490a 50090000 		.4byte	.Ldebug_ranges0+0x950
 13969 490e 04       		.byte	0x4
 13970 490f D102     		.2byte	0x2d1
 13971 4911 03       		.byte	0x3
 13972 4912 3E       		.uleb128 0x3e
 13973 4913 105D0000 		.4byte	0x5d10
 13974 4917 86050000 		.4byte	.LBI810
 13975 491b 0C00     		.2byte	.LVU855
 13976 491d 86050000 		.4byte	.LBB810
 13977 4921 04000000 		.4byte	.LBE810-.LBB810
 13978 4925 04       		.byte	0x4
 13979 4926 B802     		.2byte	0x2b8
 13980 4928 03       		.byte	0x3
 13981 4929 38       		.uleb128 0x38
 13982 492a 1E5D0000 		.4byte	0x5d1e
 13983 492e 09090000 		.4byte	.LLST103
 13984 4932 07090000 		.4byte	.LVUS103
 13985 4936 00       		.byte	0
 13986 4937 00       		.byte	0
 13987 4938 00       		.byte	0
 13988 4939 00       		.byte	0
 13989 493a 00       		.byte	0
 13990 493b 36       		.uleb128 0x36
 13991 493c 945C0000 		.4byte	0x5c94
 13992 4940 96050000 		.4byte	.LBI822
 13993 4944 0100     		.2byte	.LVU867
 13994 4946 68090000 		.4byte	.Ldebug_ranges0+0x968
ARM GAS  /tmp/ccpnbTSa.s 			page 247


 13995 494a 01       		.byte	0x1
 13996 494b 4103     		.2byte	0x341
 13997 494d 07       		.byte	0x7
 13998 494e B0490000 		.4byte	0x49b0
 13999 4952 37       		.uleb128 0x37
 14000 4953 BC5C0000 		.4byte	0x5cbc
 14001 4957 96050000 		.4byte	.LBI823
 14002 495b 0300     		.2byte	.LVU869
 14003 495d A0090000 		.4byte	.Ldebug_ranges0+0x9a0
 14004 4961 02       		.byte	0x2
 14005 4962 1502     		.2byte	0x215
 14006 4964 03       		.byte	0x3
 14007 4965 37       		.uleb128 0x37
 14008 4966 F25C0000 		.4byte	0x5cf2
 14009 496a 96050000 		.4byte	.LBI824
 14010 496e 0500     		.2byte	.LVU871
 14011 4970 D0090000 		.4byte	.Ldebug_ranges0+0x9d0
 14012 4974 03       		.byte	0x3
 14013 4975 8B01     		.2byte	0x18b
 14014 4977 03       		.byte	0x3
 14015 4978 37       		.uleb128 0x37
 14016 4979 065D0000 		.4byte	0x5d06
 14017 497d 96050000 		.4byte	.LBI825
 14018 4981 0700     		.2byte	.LVU873
 14019 4983 F8090000 		.4byte	.Ldebug_ranges0+0x9f8
 14020 4987 04       		.byte	0x4
 14021 4988 C602     		.2byte	0x2c6
 14022 498a 03       		.byte	0x3
 14023 498b 37       		.uleb128 0x37
 14024 498c 105D0000 		.4byte	0x5d10
 14025 4990 96050000 		.4byte	.LBI826
 14026 4994 0900     		.2byte	.LVU875
 14027 4996 180A0000 		.4byte	.Ldebug_ranges0+0xa18
 14028 499a 04       		.byte	0x4
 14029 499b A502     		.2byte	0x2a5
 14030 499d 03       		.byte	0x3
 14031 499e 38       		.uleb128 0x38
 14032 499f 1E5D0000 		.4byte	0x5d1e
 14033 49a3 1F090000 		.4byte	.LLST104
 14034 49a7 1D090000 		.4byte	.LVUS104
 14035 49ab 00       		.byte	0
 14036 49ac 00       		.byte	0
 14037 49ad 00       		.byte	0
 14038 49ae 00       		.byte	0
 14039 49af 00       		.byte	0
 14040 49b0 36       		.uleb128 0x36
 14041 49b1 3D560000 		.4byte	0x563d
 14042 49b5 B0050000 		.4byte	.LBI844
 14043 49b9 0000     		.2byte	.LVU891
 14044 49bb 300A0000 		.4byte	.Ldebug_ranges0+0xa30
 14045 49bf 01       		.byte	0x1
 14046 49c0 4203     		.2byte	0x342
 14047 49c2 07       		.byte	0x7
 14048 49c3 254A0000 		.4byte	0x4a25
 14049 49c7 38       		.uleb128 0x38
 14050 49c8 71560000 		.4byte	0x5671
 14051 49cc 36090000 		.4byte	.LLST105
ARM GAS  /tmp/ccpnbTSa.s 			page 248


 14052 49d0 34090000 		.4byte	.LVUS105
 14053 49d4 38       		.uleb128 0x38
 14054 49d5 64560000 		.4byte	0x5664
 14055 49d9 4B090000 		.4byte	.LLST106
 14056 49dd 49090000 		.4byte	.LVUS106
 14057 49e1 38       		.uleb128 0x38
 14058 49e2 58560000 		.4byte	0x5658
 14059 49e6 60090000 		.4byte	.LLST107
 14060 49ea 5E090000 		.4byte	.LVUS107
 14061 49ee 38       		.uleb128 0x38
 14062 49ef 4B560000 		.4byte	0x564b
 14063 49f3 78090000 		.4byte	.LLST108
 14064 49f7 74090000 		.4byte	.LVUS108
 14065 49fb 43       		.uleb128 0x43
 14066 49fc 300A0000 		.4byte	.Ldebug_ranges0+0xa30
 14067 4a00 3B       		.uleb128 0x3b
 14068 4a01 7C560000 		.4byte	0x567c
 14069 4a05 98090000 		.4byte	.LLST109
 14070 4a09 96090000 		.4byte	.LVUS109
 14071 4a0d 3C       		.uleb128 0x3c
 14072 4a0e BA050000 		.4byte	.LVL144
 14073 4a12 F85D0000 		.4byte	0x5df8
 14074 4a16 3D       		.uleb128 0x3d
 14075 4a17 01       		.uleb128 0x1
 14076 4a18 50       		.byte	0x50
 14077 4a19 02       		.uleb128 0x2
 14078 4a1a 74       		.byte	0x74
 14079 4a1b 00       		.sleb128 0
 14080 4a1c 3D       		.uleb128 0x3d
 14081 4a1d 01       		.uleb128 0x1
 14082 4a1e 51       		.byte	0x51
 14083 4a1f 02       		.uleb128 0x2
 14084 4a20 75       		.byte	0x75
 14085 4a21 00       		.sleb128 0
 14086 4a22 00       		.byte	0
 14087 4a23 00       		.byte	0
 14088 4a24 00       		.byte	0
 14089 4a25 36       		.uleb128 0x36
 14090 4a26 8A5C0000 		.4byte	0x5c8a
 14091 4a2a BA050000 		.4byte	.LBI850
 14092 4a2e 0200     		.2byte	.LVU907
 14093 4a30 500A0000 		.4byte	.Ldebug_ranges0+0xa50
 14094 4a34 01       		.byte	0x1
 14095 4a35 4303     		.2byte	0x343
 14096 4a37 07       		.byte	0x7
 14097 4a38 9E4A0000 		.4byte	0x4a9e
 14098 4a3c 37       		.uleb128 0x37
 14099 4a3d B25C0000 		.4byte	0x5cb2
 14100 4a41 BA050000 		.4byte	.LBI851
 14101 4a45 0400     		.2byte	.LVU909
 14102 4a47 580A0000 		.4byte	.Ldebug_ranges0+0xa58
 14103 4a4b 02       		.byte	0x2
 14104 4a4c 2002     		.2byte	0x220
 14105 4a4e 03       		.byte	0x3
 14106 4a4f 37       		.uleb128 0x37
 14107 4a50 E85C0000 		.4byte	0x5ce8
 14108 4a54 BA050000 		.4byte	.LBI852
ARM GAS  /tmp/ccpnbTSa.s 			page 249


 14109 4a58 0800     		.2byte	.LVU913
 14110 4a5a 600A0000 		.4byte	.Ldebug_ranges0+0xa60
 14111 4a5e 03       		.byte	0x3
 14112 4a5f A101     		.2byte	0x1a1
 14113 4a61 03       		.byte	0x3
 14114 4a62 37       		.uleb128 0x37
 14115 4a63 FC5C0000 		.4byte	0x5cfc
 14116 4a67 BA050000 		.4byte	.LBI853
 14117 4a6b 0A00     		.2byte	.LVU915
 14118 4a6d 680A0000 		.4byte	.Ldebug_ranges0+0xa68
 14119 4a71 04       		.byte	0x4
 14120 4a72 D102     		.2byte	0x2d1
 14121 4a74 03       		.byte	0x3
 14122 4a75 3E       		.uleb128 0x3e
 14123 4a76 105D0000 		.4byte	0x5d10
 14124 4a7a BA050000 		.4byte	.LBI854
 14125 4a7e 0C00     		.2byte	.LVU917
 14126 4a80 BA050000 		.4byte	.LBB854
 14127 4a84 04000000 		.4byte	.LBE854-.LBB854
 14128 4a88 04       		.byte	0x4
 14129 4a89 B802     		.2byte	0x2b8
 14130 4a8b 03       		.byte	0x3
 14131 4a8c 38       		.uleb128 0x38
 14132 4a8d 1E5D0000 		.4byte	0x5d1e
 14133 4a91 AD090000 		.4byte	.LLST110
 14134 4a95 AB090000 		.4byte	.LVUS110
 14135 4a99 00       		.byte	0
 14136 4a9a 00       		.byte	0
 14137 4a9b 00       		.byte	0
 14138 4a9c 00       		.byte	0
 14139 4a9d 00       		.byte	0
 14140 4a9e 36       		.uleb128 0x36
 14141 4a9f 945C0000 		.4byte	0x5c94
 14142 4aa3 C8050000 		.4byte	.LBI866
 14143 4aa7 0100     		.2byte	.LVU926
 14144 4aa9 800A0000 		.4byte	.Ldebug_ranges0+0xa80
 14145 4aad 01       		.byte	0x1
 14146 4aae 4A03     		.2byte	0x34a
 14147 4ab0 07       		.byte	0x7
 14148 4ab1 134B0000 		.4byte	0x4b13
 14149 4ab5 37       		.uleb128 0x37
 14150 4ab6 BC5C0000 		.4byte	0x5cbc
 14151 4aba C8050000 		.4byte	.LBI867
 14152 4abe 0300     		.2byte	.LVU928
 14153 4ac0 B80A0000 		.4byte	.Ldebug_ranges0+0xab8
 14154 4ac4 02       		.byte	0x2
 14155 4ac5 1502     		.2byte	0x215
 14156 4ac7 03       		.byte	0x3
 14157 4ac8 37       		.uleb128 0x37
 14158 4ac9 F25C0000 		.4byte	0x5cf2
 14159 4acd C8050000 		.4byte	.LBI868
 14160 4ad1 0500     		.2byte	.LVU930
 14161 4ad3 E80A0000 		.4byte	.Ldebug_ranges0+0xae8
 14162 4ad7 03       		.byte	0x3
 14163 4ad8 8B01     		.2byte	0x18b
 14164 4ada 03       		.byte	0x3
 14165 4adb 37       		.uleb128 0x37
ARM GAS  /tmp/ccpnbTSa.s 			page 250


 14166 4adc 065D0000 		.4byte	0x5d06
 14167 4ae0 C8050000 		.4byte	.LBI869
 14168 4ae4 0700     		.2byte	.LVU932
 14169 4ae6 100B0000 		.4byte	.Ldebug_ranges0+0xb10
 14170 4aea 04       		.byte	0x4
 14171 4aeb C602     		.2byte	0x2c6
 14172 4aed 03       		.byte	0x3
 14173 4aee 37       		.uleb128 0x37
 14174 4aef 105D0000 		.4byte	0x5d10
 14175 4af3 C8050000 		.4byte	.LBI870
 14176 4af7 0900     		.2byte	.LVU934
 14177 4af9 300B0000 		.4byte	.Ldebug_ranges0+0xb30
 14178 4afd 04       		.byte	0x4
 14179 4afe A502     		.2byte	0x2a5
 14180 4b00 03       		.byte	0x3
 14181 4b01 38       		.uleb128 0x38
 14182 4b02 1E5D0000 		.4byte	0x5d1e
 14183 4b06 C3090000 		.4byte	.LLST111
 14184 4b0a C1090000 		.4byte	.LVUS111
 14185 4b0e 00       		.byte	0
 14186 4b0f 00       		.byte	0
 14187 4b10 00       		.byte	0
 14188 4b11 00       		.byte	0
 14189 4b12 00       		.byte	0
 14190 4b13 39       		.uleb128 0x39
 14191 4b14 93560000 		.4byte	0x5693
 14192 4b18 CC050000 		.4byte	.LBI888
 14193 4b1c 0400     		.2byte	.LVU940
 14194 4b1e CC050000 		.4byte	.LBB888
 14195 4b22 1E000000 		.4byte	.LBE888-.LBB888
 14196 4b26 01       		.byte	0x1
 14197 4b27 4B03     		.2byte	0x34b
 14198 4b29 07       		.byte	0x7
 14199 4b2a 904B0000 		.4byte	0x4b90
 14200 4b2e 38       		.uleb128 0x38
 14201 4b2f C7560000 		.4byte	0x56c7
 14202 4b33 DA090000 		.4byte	.LLST112
 14203 4b37 D8090000 		.4byte	.LVUS112
 14204 4b3b 38       		.uleb128 0x38
 14205 4b3c BA560000 		.4byte	0x56ba
 14206 4b40 DA090000 		.4byte	.LLST112
 14207 4b44 D8090000 		.4byte	.LVUS112
 14208 4b48 38       		.uleb128 0x38
 14209 4b49 AE560000 		.4byte	0x56ae
 14210 4b4d DA090000 		.4byte	.LLST112
 14211 4b51 D8090000 		.4byte	.LVUS112
 14212 4b55 38       		.uleb128 0x38
 14213 4b56 A1560000 		.4byte	0x56a1
 14214 4b5a F0090000 		.4byte	.LLST115
 14215 4b5e EE090000 		.4byte	.LVUS115
 14216 4b62 3A       		.uleb128 0x3a
 14217 4b63 CC050000 		.4byte	.LBB889
 14218 4b67 1E000000 		.4byte	.LBE889-.LBB889
 14219 4b6b 3B       		.uleb128 0x3b
 14220 4b6c D2560000 		.4byte	0x56d2
 14221 4b70 050A0000 		.4byte	.LLST116
 14222 4b74 030A0000 		.4byte	.LVUS116
ARM GAS  /tmp/ccpnbTSa.s 			page 251


 14223 4b78 3C       		.uleb128 0x3c
 14224 4b79 EA050000 		.4byte	.LVL150
 14225 4b7d 1F5E0000 		.4byte	0x5e1f
 14226 4b81 3D       		.uleb128 0x3d
 14227 4b82 01       		.uleb128 0x1
 14228 4b83 50       		.byte	0x50
 14229 4b84 02       		.uleb128 0x2
 14230 4b85 74       		.byte	0x74
 14231 4b86 00       		.sleb128 0
 14232 4b87 3D       		.uleb128 0x3d
 14233 4b88 01       		.uleb128 0x1
 14234 4b89 51       		.byte	0x51
 14235 4b8a 02       		.uleb128 0x2
 14236 4b8b 75       		.byte	0x75
 14237 4b8c 00       		.sleb128 0
 14238 4b8d 00       		.byte	0
 14239 4b8e 00       		.byte	0
 14240 4b8f 00       		.byte	0
 14241 4b90 36       		.uleb128 0x36
 14242 4b91 8A5C0000 		.4byte	0x5c8a
 14243 4b95 EA050000 		.4byte	.LBI890
 14244 4b99 0200     		.2byte	.LVU966
 14245 4b9b 480B0000 		.4byte	.Ldebug_ranges0+0xb48
 14246 4b9f 01       		.byte	0x1
 14247 4ba0 4C03     		.2byte	0x34c
 14248 4ba2 07       		.byte	0x7
 14249 4ba3 094C0000 		.4byte	0x4c09
 14250 4ba7 37       		.uleb128 0x37
 14251 4ba8 B25C0000 		.4byte	0x5cb2
 14252 4bac EA050000 		.4byte	.LBI891
 14253 4bb0 0400     		.2byte	.LVU968
 14254 4bb2 500B0000 		.4byte	.Ldebug_ranges0+0xb50
 14255 4bb6 02       		.byte	0x2
 14256 4bb7 2002     		.2byte	0x220
 14257 4bb9 03       		.byte	0x3
 14258 4bba 37       		.uleb128 0x37
 14259 4bbb E85C0000 		.4byte	0x5ce8
 14260 4bbf EA050000 		.4byte	.LBI892
 14261 4bc3 0800     		.2byte	.LVU972
 14262 4bc5 580B0000 		.4byte	.Ldebug_ranges0+0xb58
 14263 4bc9 03       		.byte	0x3
 14264 4bca A101     		.2byte	0x1a1
 14265 4bcc 03       		.byte	0x3
 14266 4bcd 37       		.uleb128 0x37
 14267 4bce FC5C0000 		.4byte	0x5cfc
 14268 4bd2 EA050000 		.4byte	.LBI893
 14269 4bd6 0A00     		.2byte	.LVU974
 14270 4bd8 600B0000 		.4byte	.Ldebug_ranges0+0xb60
 14271 4bdc 04       		.byte	0x4
 14272 4bdd D102     		.2byte	0x2d1
 14273 4bdf 03       		.byte	0x3
 14274 4be0 3E       		.uleb128 0x3e
 14275 4be1 105D0000 		.4byte	0x5d10
 14276 4be5 EA050000 		.4byte	.LBI894
 14277 4be9 0C00     		.2byte	.LVU976
 14278 4beb EA050000 		.4byte	.LBB894
 14279 4bef 04000000 		.4byte	.LBE894-.LBB894
ARM GAS  /tmp/ccpnbTSa.s 			page 252


 14280 4bf3 04       		.byte	0x4
 14281 4bf4 B802     		.2byte	0x2b8
 14282 4bf6 03       		.byte	0x3
 14283 4bf7 38       		.uleb128 0x38
 14284 4bf8 1E5D0000 		.4byte	0x5d1e
 14285 4bfc 1A0A0000 		.4byte	.LLST117
 14286 4c00 180A0000 		.4byte	.LVUS117
 14287 4c04 00       		.byte	0
 14288 4c05 00       		.byte	0
 14289 4c06 00       		.byte	0
 14290 4c07 00       		.byte	0
 14291 4c08 00       		.byte	0
 14292 4c09 40       		.uleb128 0x40
 14293 4c0a 1A040000 		.4byte	.LVL105
 14294 4c0e 6D5E0000 		.4byte	0x5e6d
 14295 4c12 244C0000 		.4byte	0x4c24
 14296 4c16 3D       		.uleb128 0x3d
 14297 4c17 01       		.uleb128 0x1
 14298 4c18 50       		.byte	0x50
 14299 4c19 02       		.uleb128 0x2
 14300 4c1a 74       		.byte	0x74
 14301 4c1b 00       		.sleb128 0
 14302 4c1c 3D       		.uleb128 0x3d
 14303 4c1d 01       		.uleb128 0x1
 14304 4c1e 52       		.byte	0x52
 14305 4c1f 03       		.uleb128 0x3
 14306 4c20 74       		.byte	0x74
 14307 4c21 8001     		.sleb128 128
 14308 4c23 00       		.byte	0
 14309 4c24 3F       		.uleb128 0x3f
 14310 4c25 24040000 		.4byte	.LVL106
 14311 4c29 344C0000 		.4byte	0x4c34
 14312 4c2d 3D       		.uleb128 0x3d
 14313 4c2e 01       		.uleb128 0x1
 14314 4c2f 50       		.byte	0x50
 14315 4c30 02       		.uleb128 0x2
 14316 4c31 74       		.byte	0x74
 14317 4c32 00       		.sleb128 0
 14318 4c33 00       		.byte	0
 14319 4c34 40       		.uleb128 0x40
 14320 4c35 C8040000 		.4byte	.LVL120
 14321 4c39 055E0000 		.4byte	0x5e05
 14322 4c3d 4D4C0000 		.4byte	0x4c4d
 14323 4c41 3D       		.uleb128 0x3d
 14324 4c42 01       		.uleb128 0x1
 14325 4c43 50       		.byte	0x50
 14326 4c44 02       		.uleb128 0x2
 14327 4c45 74       		.byte	0x74
 14328 4c46 00       		.sleb128 0
 14329 4c47 3D       		.uleb128 0x3d
 14330 4c48 01       		.uleb128 0x1
 14331 4c49 51       		.byte	0x51
 14332 4c4a 01       		.uleb128 0x1
 14333 4c4b 30       		.byte	0x30
 14334 4c4c 00       		.byte	0
 14335 4c4d 40       		.uleb128 0x40
 14336 4c4e D0040000 		.4byte	.LVL121
ARM GAS  /tmp/ccpnbTSa.s 			page 253


 14337 4c52 125E0000 		.4byte	0x5e12
 14338 4c56 664C0000 		.4byte	0x4c66
 14339 4c5a 3D       		.uleb128 0x3d
 14340 4c5b 01       		.uleb128 0x1
 14341 4c5c 50       		.byte	0x50
 14342 4c5d 02       		.uleb128 0x2
 14343 4c5e 74       		.byte	0x74
 14344 4c5f 00       		.sleb128 0
 14345 4c60 3D       		.uleb128 0x3d
 14346 4c61 01       		.uleb128 0x1
 14347 4c62 51       		.byte	0x51
 14348 4c63 01       		.uleb128 0x1
 14349 4c64 30       		.byte	0x30
 14350 4c65 00       		.byte	0
 14351 4c66 41       		.uleb128 0x41
 14352 4c67 DC040000 		.4byte	.LVL122
 14353 4c6b 3D       		.uleb128 0x3d
 14354 4c6c 01       		.uleb128 0x1
 14355 4c6d 50       		.byte	0x50
 14356 4c6e 02       		.uleb128 0x2
 14357 4c6f 74       		.byte	0x74
 14358 4c70 00       		.sleb128 0
 14359 4c71 3D       		.uleb128 0x3d
 14360 4c72 01       		.uleb128 0x1
 14361 4c73 51       		.byte	0x51
 14362 4c74 01       		.uleb128 0x1
 14363 4c75 36       		.byte	0x36
 14364 4c76 00       		.byte	0
 14365 4c77 00       		.byte	0
 14366 4c78 32       		.uleb128 0x32
 14367 4c79 E1000000 		.4byte	.LASF774
 14368 4c7d 01       		.byte	0x1
 14369 4c7e F502     		.2byte	0x2f5
 14370 4c80 06       		.byte	0x6
 14371 4c81 E0030000 		.4byte	.LFB380
 14372 4c85 12000000 		.4byte	.LFE380-.LFB380
 14373 4c89 01       		.uleb128 0x1
 14374 4c8a 9C       		.byte	0x9c
 14375 4c8b B74C0000 		.4byte	0x4cb7
 14376 4c8f 33       		.uleb128 0x33
 14377 4c90 2D1E0000 		.4byte	.LASF769
 14378 4c94 01       		.byte	0x1
 14379 4c95 F502     		.2byte	0x2f5
 14380 4c97 1D       		.byte	0x1d
 14381 4c98 91330000 		.4byte	0x3391
 14382 4c9c 340A0000 		.4byte	.LLST77
 14383 4ca0 2E0A0000 		.4byte	.LVUS77
 14384 4ca4 48       		.uleb128 0x48
 14385 4ca5 F0030000 		.4byte	.LVL102
 14386 4ca9 3D       		.uleb128 0x3d
 14387 4caa 01       		.uleb128 0x1
 14388 4cab 50       		.byte	0x50
 14389 4cac 03       		.uleb128 0x3
 14390 4cad F3       		.byte	0xf3
 14391 4cae 01       		.uleb128 0x1
 14392 4caf 50       		.byte	0x50
 14393 4cb0 3D       		.uleb128 0x3d
ARM GAS  /tmp/ccpnbTSa.s 			page 254


 14394 4cb1 01       		.uleb128 0x1
 14395 4cb2 51       		.byte	0x51
 14396 4cb3 01       		.uleb128 0x1
 14397 4cb4 35       		.byte	0x35
 14398 4cb5 00       		.byte	0
 14399 4cb6 00       		.byte	0
 14400 4cb7 32       		.uleb128 0x32
 14401 4cb8 760B0000 		.4byte	.LASF775
 14402 4cbc 01       		.byte	0x1
 14403 4cbd C902     		.2byte	0x2c9
 14404 4cbf 06       		.byte	0x6
 14405 4cc0 80030000 		.4byte	.LFB379
 14406 4cc4 5E000000 		.4byte	.LFE379-.LFB379
 14407 4cc8 01       		.uleb128 0x1
 14408 4cc9 9C       		.byte	0x9c
 14409 4cca 744E0000 		.4byte	0x4e74
 14410 4cce 33       		.uleb128 0x33
 14411 4ccf 2D1E0000 		.4byte	.LASF769
 14412 4cd3 01       		.byte	0x1
 14413 4cd4 C902     		.2byte	0x2c9
 14414 4cd6 1E       		.byte	0x1e
 14415 4cd7 91330000 		.4byte	0x3391
 14416 4cdb 680A0000 		.4byte	.LLST70
 14417 4cdf 600A0000 		.4byte	.LVUS70
 14418 4ce3 49       		.uleb128 0x49
 14419 4ce4 10040000 		.4byte	.Ldebug_ranges0+0x410
 14420 4ce8 624E0000 		.4byte	0x4e62
 14421 4cec 4A       		.uleb128 0x4a
 14422 4ced 6900     		.ascii	"i\000"
 14423 4cef 01       		.byte	0x1
 14424 4cf0 DA02     		.2byte	0x2da
 14425 4cf2 0E       		.byte	0xe
 14426 4cf3 3D000000 		.4byte	0x3d
 14427 4cf7 36       		.uleb128 0x36
 14428 4cf8 945C0000 		.4byte	0x5c94
 14429 4cfc A6030000 		.4byte	.LBI536
 14430 4d00 0400     		.2byte	.LVU587
 14431 4d02 70040000 		.4byte	.Ldebug_ranges0+0x470
 14432 4d06 01       		.byte	0x1
 14433 4d07 DE02     		.2byte	0x2de
 14434 4d09 09       		.byte	0x9
 14435 4d0a 6C4D0000 		.4byte	0x4d6c
 14436 4d0e 37       		.uleb128 0x37
 14437 4d0f BC5C0000 		.4byte	0x5cbc
 14438 4d13 A6030000 		.4byte	.LBI537
 14439 4d17 0600     		.2byte	.LVU589
 14440 4d19 B0040000 		.4byte	.Ldebug_ranges0+0x4b0
 14441 4d1d 02       		.byte	0x2
 14442 4d1e 1502     		.2byte	0x215
 14443 4d20 03       		.byte	0x3
 14444 4d21 37       		.uleb128 0x37
 14445 4d22 F25C0000 		.4byte	0x5cf2
 14446 4d26 A6030000 		.4byte	.LBI538
 14447 4d2a 0800     		.2byte	.LVU591
 14448 4d2c E8040000 		.4byte	.Ldebug_ranges0+0x4e8
 14449 4d30 03       		.byte	0x3
 14450 4d31 8B01     		.2byte	0x18b
ARM GAS  /tmp/ccpnbTSa.s 			page 255


 14451 4d33 03       		.byte	0x3
 14452 4d34 37       		.uleb128 0x37
 14453 4d35 065D0000 		.4byte	0x5d06
 14454 4d39 A6030000 		.4byte	.LBI539
 14455 4d3d 0A00     		.2byte	.LVU593
 14456 4d3f 18050000 		.4byte	.Ldebug_ranges0+0x518
 14457 4d43 04       		.byte	0x4
 14458 4d44 C602     		.2byte	0x2c6
 14459 4d46 03       		.byte	0x3
 14460 4d47 37       		.uleb128 0x37
 14461 4d48 105D0000 		.4byte	0x5d10
 14462 4d4c A6030000 		.4byte	.LBI540
 14463 4d50 0C00     		.2byte	.LVU595
 14464 4d52 40050000 		.4byte	.Ldebug_ranges0+0x540
 14465 4d56 04       		.byte	0x4
 14466 4d57 A502     		.2byte	0x2a5
 14467 4d59 03       		.byte	0x3
 14468 4d5a 38       		.uleb128 0x38
 14469 4d5b 1E5D0000 		.4byte	0x5d1e
 14470 4d5f A20A0000 		.4byte	.LLST71
 14471 4d63 A00A0000 		.4byte	.LVUS71
 14472 4d67 00       		.byte	0
 14473 4d68 00       		.byte	0
 14474 4d69 00       		.byte	0
 14475 4d6a 00       		.byte	0
 14476 4d6b 00       		.byte	0
 14477 4d6c 36       		.uleb128 0x36
 14478 4d6d 8A5C0000 		.4byte	0x5c8a
 14479 4d71 D4030000 		.4byte	.LBI558
 14480 4d75 0200     		.2byte	.LVU623
 14481 4d77 60050000 		.4byte	.Ldebug_ranges0+0x560
 14482 4d7b 01       		.byte	0x1
 14483 4d7c E502     		.2byte	0x2e5
 14484 4d7e 09       		.byte	0x9
 14485 4d7f E14D0000 		.4byte	0x4de1
 14486 4d83 37       		.uleb128 0x37
 14487 4d84 B25C0000 		.4byte	0x5cb2
 14488 4d88 D4030000 		.4byte	.LBI559
 14489 4d8c 0400     		.2byte	.LVU625
 14490 4d8e 98050000 		.4byte	.Ldebug_ranges0+0x598
 14491 4d92 02       		.byte	0x2
 14492 4d93 2002     		.2byte	0x220
 14493 4d95 03       		.byte	0x3
 14494 4d96 37       		.uleb128 0x37
 14495 4d97 E85C0000 		.4byte	0x5ce8
 14496 4d9b D4030000 		.4byte	.LBI560
 14497 4d9f 0800     		.2byte	.LVU629
 14498 4da1 C8050000 		.4byte	.Ldebug_ranges0+0x5c8
 14499 4da5 03       		.byte	0x3
 14500 4da6 A101     		.2byte	0x1a1
 14501 4da8 03       		.byte	0x3
 14502 4da9 37       		.uleb128 0x37
 14503 4daa FC5C0000 		.4byte	0x5cfc
 14504 4dae D4030000 		.4byte	.LBI561
 14505 4db2 0A00     		.2byte	.LVU631
 14506 4db4 F0050000 		.4byte	.Ldebug_ranges0+0x5f0
 14507 4db8 04       		.byte	0x4
ARM GAS  /tmp/ccpnbTSa.s 			page 256


 14508 4db9 D102     		.2byte	0x2d1
 14509 4dbb 03       		.byte	0x3
 14510 4dbc 37       		.uleb128 0x37
 14511 4dbd 105D0000 		.4byte	0x5d10
 14512 4dc1 D4030000 		.4byte	.LBI562
 14513 4dc5 0C00     		.2byte	.LVU633
 14514 4dc7 10060000 		.4byte	.Ldebug_ranges0+0x610
 14515 4dcb 04       		.byte	0x4
 14516 4dcc B802     		.2byte	0x2b8
 14517 4dce 03       		.byte	0x3
 14518 4dcf 38       		.uleb128 0x38
 14519 4dd0 1E5D0000 		.4byte	0x5d1e
 14520 4dd4 B90A0000 		.4byte	.LLST72
 14521 4dd8 B70A0000 		.4byte	.LVUS72
 14522 4ddc 00       		.byte	0
 14523 4ddd 00       		.byte	0
 14524 4dde 00       		.byte	0
 14525 4ddf 00       		.byte	0
 14526 4de0 00       		.byte	0
 14527 4de1 36       		.uleb128 0x36
 14528 4de2 1B5C0000 		.4byte	0x5c1b
 14529 4de6 B8030000 		.4byte	.LBI581
 14530 4dea 0000     		.2byte	.LVU607
 14531 4dec 28060000 		.4byte	.Ldebug_ranges0+0x628
 14532 4df0 01       		.byte	0x1
 14533 4df1 E002     		.2byte	0x2e0
 14534 4df3 0B       		.byte	0xb
 14535 4df4 234E0000 		.4byte	0x4e23
 14536 4df8 38       		.uleb128 0x38
 14537 4df9 365C0000 		.4byte	0x5c36
 14538 4dfd CF0A0000 		.4byte	.LLST73
 14539 4e01 CD0A0000 		.4byte	.LVUS73
 14540 4e05 38       		.uleb128 0x38
 14541 4e06 295C0000 		.4byte	0x5c29
 14542 4e0a E80A0000 		.4byte	.LLST74
 14543 4e0e E40A0000 		.4byte	.LVUS74
 14544 4e12 3C       		.uleb128 0x3c
 14545 4e13 C2030000 		.4byte	.LVL96
 14546 4e17 7A5E0000 		.4byte	0x5e7a
 14547 4e1b 3D       		.uleb128 0x3d
 14548 4e1c 01       		.uleb128 0x1
 14549 4e1d 51       		.byte	0x51
 14550 4e1e 02       		.uleb128 0x2
 14551 4e1f 09       		.byte	0x9
 14552 4e20 FE       		.byte	0xfe
 14553 4e21 00       		.byte	0
 14554 4e22 00       		.byte	0
 14555 4e23 37       		.uleb128 0x37
 14556 4e24 1B5C0000 		.4byte	0x5c1b
 14557 4e28 C6030000 		.4byte	.LBI587
 14558 4e2c 0000     		.2byte	.LVU616
 14559 4e2e 48060000 		.4byte	.Ldebug_ranges0+0x648
 14560 4e32 01       		.byte	0x1
 14561 4e33 E302     		.2byte	0x2e3
 14562 4e35 0B       		.byte	0xb
 14563 4e36 38       		.uleb128 0x38
 14564 4e37 365C0000 		.4byte	0x5c36
ARM GAS  /tmp/ccpnbTSa.s 			page 257


 14565 4e3b 0A0B0000 		.4byte	.LLST75
 14566 4e3f 080B0000 		.4byte	.LVUS75
 14567 4e43 38       		.uleb128 0x38
 14568 4e44 295C0000 		.4byte	0x5c29
 14569 4e48 230B0000 		.4byte	.LLST76
 14570 4e4c 1F0B0000 		.4byte	.LVUS76
 14571 4e50 3C       		.uleb128 0x3c
 14572 4e51 D4030000 		.4byte	.LVL99
 14573 4e55 7A5E0000 		.4byte	0x5e7a
 14574 4e59 3D       		.uleb128 0x3d
 14575 4e5a 01       		.uleb128 0x1
 14576 4e5b 51       		.byte	0x51
 14577 4e5c 02       		.uleb128 0x2
 14578 4e5d 09       		.byte	0x9
 14579 4e5e FE       		.byte	0xfe
 14580 4e5f 00       		.byte	0
 14581 4e60 00       		.byte	0
 14582 4e61 00       		.byte	0
 14583 4e62 41       		.uleb128 0x41
 14584 4e63 98030000 		.4byte	.LVL91
 14585 4e67 3D       		.uleb128 0x3d
 14586 4e68 01       		.uleb128 0x1
 14587 4e69 50       		.byte	0x50
 14588 4e6a 02       		.uleb128 0x2
 14589 4e6b 74       		.byte	0x74
 14590 4e6c 00       		.sleb128 0
 14591 4e6d 3D       		.uleb128 0x3d
 14592 4e6e 01       		.uleb128 0x1
 14593 4e6f 51       		.byte	0x51
 14594 4e70 01       		.uleb128 0x1
 14595 4e71 34       		.byte	0x34
 14596 4e72 00       		.byte	0
 14597 4e73 00       		.byte	0
 14598 4e74 32       		.uleb128 0x32
 14599 4e75 B2070000 		.4byte	.LASF776
 14600 4e79 01       		.byte	0x1
 14601 4e7a 9702     		.2byte	0x297
 14602 4e7c 06       		.byte	0x6
 14603 4e7d 00030000 		.4byte	.LFB378
 14604 4e81 76000000 		.4byte	.LFE378-.LFB378
 14605 4e85 01       		.uleb128 0x1
 14606 4e86 9C       		.byte	0x9c
 14607 4e87 40500000 		.4byte	0x5040
 14608 4e8b 33       		.uleb128 0x33
 14609 4e8c 2D1E0000 		.4byte	.LASF769
 14610 4e90 01       		.byte	0x1
 14611 4e91 9702     		.2byte	0x297
 14612 4e93 1C       		.byte	0x1c
 14613 4e94 91330000 		.4byte	0x3391
 14614 4e98 4D0B0000 		.4byte	.LLST63
 14615 4e9c 430B0000 		.4byte	.LVUS63
 14616 4ea0 4A       		.uleb128 0x4a
 14617 4ea1 6900     		.ascii	"i\000"
 14618 4ea3 01       		.byte	0x1
 14619 4ea4 9802     		.2byte	0x298
 14620 4ea6 0C       		.byte	0xc
 14621 4ea7 3D000000 		.4byte	0x3d
ARM GAS  /tmp/ccpnbTSa.s 			page 258


 14622 4eab 36       		.uleb128 0x36
 14623 4eac 945C0000 		.4byte	0x5c94
 14624 4eb0 1E030000 		.4byte	.LBI475
 14625 4eb4 0300     		.2byte	.LVU502
 14626 4eb6 20020000 		.4byte	.Ldebug_ranges0+0x220
 14627 4eba 01       		.byte	0x1
 14628 4ebb A902     		.2byte	0x2a9
 14629 4ebd 07       		.byte	0x7
 14630 4ebe 204F0000 		.4byte	0x4f20
 14631 4ec2 37       		.uleb128 0x37
 14632 4ec3 BC5C0000 		.4byte	0x5cbc
 14633 4ec7 1E030000 		.4byte	.LBI476
 14634 4ecb 0500     		.2byte	.LVU504
 14635 4ecd 60020000 		.4byte	.Ldebug_ranges0+0x260
 14636 4ed1 02       		.byte	0x2
 14637 4ed2 1502     		.2byte	0x215
 14638 4ed4 03       		.byte	0x3
 14639 4ed5 37       		.uleb128 0x37
 14640 4ed6 F25C0000 		.4byte	0x5cf2
 14641 4eda 1E030000 		.4byte	.LBI477
 14642 4ede 0700     		.2byte	.LVU506
 14643 4ee0 98020000 		.4byte	.Ldebug_ranges0+0x298
 14644 4ee4 03       		.byte	0x3
 14645 4ee5 8B01     		.2byte	0x18b
 14646 4ee7 03       		.byte	0x3
 14647 4ee8 37       		.uleb128 0x37
 14648 4ee9 065D0000 		.4byte	0x5d06
 14649 4eed 1E030000 		.4byte	.LBI478
 14650 4ef1 0900     		.2byte	.LVU508
 14651 4ef3 C8020000 		.4byte	.Ldebug_ranges0+0x2c8
 14652 4ef7 04       		.byte	0x4
 14653 4ef8 C602     		.2byte	0x2c6
 14654 4efa 03       		.byte	0x3
 14655 4efb 37       		.uleb128 0x37
 14656 4efc 105D0000 		.4byte	0x5d10
 14657 4f00 1E030000 		.4byte	.LBI479
 14658 4f04 0B00     		.2byte	.LVU510
 14659 4f06 F0020000 		.4byte	.Ldebug_ranges0+0x2f0
 14660 4f0a 04       		.byte	0x4
 14661 4f0b A502     		.2byte	0x2a5
 14662 4f0d 03       		.byte	0x3
 14663 4f0e 38       		.uleb128 0x38
 14664 4f0f 1E5D0000 		.4byte	0x5d1e
 14665 4f13 910B0000 		.4byte	.LLST64
 14666 4f17 8F0B0000 		.4byte	.LVUS64
 14667 4f1b 00       		.byte	0
 14668 4f1c 00       		.byte	0
 14669 4f1d 00       		.byte	0
 14670 4f1e 00       		.byte	0
 14671 4f1f 00       		.byte	0
 14672 4f20 36       		.uleb128 0x36
 14673 4f21 8A5C0000 		.4byte	0x5c8a
 14674 4f25 4C030000 		.4byte	.LBI497
 14675 4f29 0200     		.2byte	.LVU538
 14676 4f2b 10030000 		.4byte	.Ldebug_ranges0+0x310
 14677 4f2f 01       		.byte	0x1
 14678 4f30 B002     		.2byte	0x2b0
ARM GAS  /tmp/ccpnbTSa.s 			page 259


 14679 4f32 07       		.byte	0x7
 14680 4f33 954F0000 		.4byte	0x4f95
 14681 4f37 37       		.uleb128 0x37
 14682 4f38 B25C0000 		.4byte	0x5cb2
 14683 4f3c 4C030000 		.4byte	.LBI498
 14684 4f40 0400     		.2byte	.LVU540
 14685 4f42 48030000 		.4byte	.Ldebug_ranges0+0x348
 14686 4f46 02       		.byte	0x2
 14687 4f47 2002     		.2byte	0x220
 14688 4f49 03       		.byte	0x3
 14689 4f4a 37       		.uleb128 0x37
 14690 4f4b E85C0000 		.4byte	0x5ce8
 14691 4f4f 4C030000 		.4byte	.LBI499
 14692 4f53 0800     		.2byte	.LVU544
 14693 4f55 78030000 		.4byte	.Ldebug_ranges0+0x378
 14694 4f59 03       		.byte	0x3
 14695 4f5a A101     		.2byte	0x1a1
 14696 4f5c 03       		.byte	0x3
 14697 4f5d 37       		.uleb128 0x37
 14698 4f5e FC5C0000 		.4byte	0x5cfc
 14699 4f62 4C030000 		.4byte	.LBI500
 14700 4f66 0A00     		.2byte	.LVU546
 14701 4f68 A0030000 		.4byte	.Ldebug_ranges0+0x3a0
 14702 4f6c 04       		.byte	0x4
 14703 4f6d D102     		.2byte	0x2d1
 14704 4f6f 03       		.byte	0x3
 14705 4f70 37       		.uleb128 0x37
 14706 4f71 105D0000 		.4byte	0x5d10
 14707 4f75 4C030000 		.4byte	.LBI501
 14708 4f79 0C00     		.2byte	.LVU548
 14709 4f7b C0030000 		.4byte	.Ldebug_ranges0+0x3c0
 14710 4f7f 04       		.byte	0x4
 14711 4f80 B802     		.2byte	0x2b8
 14712 4f82 03       		.byte	0x3
 14713 4f83 38       		.uleb128 0x38
 14714 4f84 1E5D0000 		.4byte	0x5d1e
 14715 4f88 A80B0000 		.4byte	.LLST65
 14716 4f8c A60B0000 		.4byte	.LVUS65
 14717 4f90 00       		.byte	0
 14718 4f91 00       		.byte	0
 14719 4f92 00       		.byte	0
 14720 4f93 00       		.byte	0
 14721 4f94 00       		.byte	0
 14722 4f95 36       		.uleb128 0x36
 14723 4f96 1B5C0000 		.4byte	0x5c1b
 14724 4f9a 30030000 		.4byte	.LBI520
 14725 4f9e 0000     		.2byte	.LVU522
 14726 4fa0 D8030000 		.4byte	.Ldebug_ranges0+0x3d8
 14727 4fa4 01       		.byte	0x1
 14728 4fa5 AB02     		.2byte	0x2ab
 14729 4fa7 09       		.byte	0x9
 14730 4fa8 D74F0000 		.4byte	0x4fd7
 14731 4fac 38       		.uleb128 0x38
 14732 4fad 365C0000 		.4byte	0x5c36
 14733 4fb1 BE0B0000 		.4byte	.LLST66
 14734 4fb5 BC0B0000 		.4byte	.LVUS66
 14735 4fb9 38       		.uleb128 0x38
ARM GAS  /tmp/ccpnbTSa.s 			page 260


 14736 4fba 295C0000 		.4byte	0x5c29
 14737 4fbe D70B0000 		.4byte	.LLST67
 14738 4fc2 D30B0000 		.4byte	.LVUS67
 14739 4fc6 3C       		.uleb128 0x3c
 14740 4fc7 3A030000 		.4byte	.LVL82
 14741 4fcb 7A5E0000 		.4byte	0x5e7a
 14742 4fcf 3D       		.uleb128 0x3d
 14743 4fd0 01       		.uleb128 0x1
 14744 4fd1 51       		.byte	0x51
 14745 4fd2 02       		.uleb128 0x2
 14746 4fd3 09       		.byte	0x9
 14747 4fd4 FE       		.byte	0xfe
 14748 4fd5 00       		.byte	0
 14749 4fd6 00       		.byte	0
 14750 4fd7 36       		.uleb128 0x36
 14751 4fd8 1B5C0000 		.4byte	0x5c1b
 14752 4fdc 3E030000 		.4byte	.LBI526
 14753 4fe0 0000     		.2byte	.LVU531
 14754 4fe2 F8030000 		.4byte	.Ldebug_ranges0+0x3f8
 14755 4fe6 01       		.byte	0x1
 14756 4fe7 AE02     		.2byte	0x2ae
 14757 4fe9 09       		.byte	0x9
 14758 4fea 19500000 		.4byte	0x5019
 14759 4fee 38       		.uleb128 0x38
 14760 4fef 365C0000 		.4byte	0x5c36
 14761 4ff3 F90B0000 		.4byte	.LLST68
 14762 4ff7 F70B0000 		.4byte	.LVUS68
 14763 4ffb 38       		.uleb128 0x38
 14764 4ffc 295C0000 		.4byte	0x5c29
 14765 5000 120C0000 		.4byte	.LLST69
 14766 5004 0E0C0000 		.4byte	.LVUS69
 14767 5008 3C       		.uleb128 0x3c
 14768 5009 4C030000 		.4byte	.LVL85
 14769 500d 7A5E0000 		.4byte	0x5e7a
 14770 5011 3D       		.uleb128 0x3d
 14771 5012 01       		.uleb128 0x1
 14772 5013 51       		.byte	0x51
 14773 5014 02       		.uleb128 0x2
 14774 5015 09       		.byte	0x9
 14775 5016 FE       		.byte	0xfe
 14776 5017 00       		.byte	0
 14777 5018 00       		.byte	0
 14778 5019 40       		.uleb128 0x40
 14779 501a 62030000 		.4byte	.LVL87
 14780 501e 865E0000 		.4byte	0x5e86
 14781 5022 2D500000 		.4byte	0x502d
 14782 5026 3D       		.uleb128 0x3d
 14783 5027 01       		.uleb128 0x1
 14784 5028 50       		.byte	0x50
 14785 5029 02       		.uleb128 0x2
 14786 502a 76       		.byte	0x76
 14787 502b 00       		.sleb128 0
 14788 502c 00       		.byte	0
 14789 502d 48       		.uleb128 0x48
 14790 502e 72030000 		.4byte	.LVL89
 14791 5032 3D       		.uleb128 0x3d
 14792 5033 01       		.uleb128 0x1
ARM GAS  /tmp/ccpnbTSa.s 			page 261


 14793 5034 50       		.byte	0x50
 14794 5035 03       		.uleb128 0x3
 14795 5036 F3       		.byte	0xf3
 14796 5037 01       		.uleb128 0x1
 14797 5038 50       		.byte	0x50
 14798 5039 3D       		.uleb128 0x3d
 14799 503a 01       		.uleb128 0x1
 14800 503b 51       		.byte	0x51
 14801 503c 01       		.uleb128 0x1
 14802 503d 30       		.byte	0x30
 14803 503e 00       		.byte	0
 14804 503f 00       		.byte	0
 14805 5040 32       		.uleb128 0x32
 14806 5041 13160000 		.4byte	.LASF777
 14807 5045 01       		.byte	0x1
 14808 5046 8602     		.2byte	0x286
 14809 5048 06       		.byte	0x6
 14810 5049 C0020000 		.4byte	.LFB377
 14811 504d 34000000 		.4byte	.LFE377-.LFB377
 14812 5051 01       		.uleb128 0x1
 14813 5052 9C       		.byte	0x9c
 14814 5053 A1500000 		.4byte	0x50a1
 14815 5057 33       		.uleb128 0x33
 14816 5058 2D1E0000 		.4byte	.LASF769
 14817 505c 01       		.byte	0x1
 14818 505d 8602     		.2byte	0x286
 14819 505f 1F       		.byte	0x1f
 14820 5060 91330000 		.4byte	0x3391
 14821 5064 360C0000 		.4byte	.LLST61
 14822 5068 320C0000 		.4byte	.LVUS61
 14823 506c 3E       		.uleb128 0x3e
 14824 506d 645C0000 		.4byte	0x5c64
 14825 5071 DC020000 		.4byte	.LBI473
 14826 5075 0100     		.2byte	.LVU475
 14827 5077 DC020000 		.4byte	.LBB473
 14828 507b 06000000 		.4byte	.LBE473-.LBB473
 14829 507f 01       		.byte	0x1
 14830 5080 8A02     		.2byte	0x28a
 14831 5082 05       		.byte	0x5
 14832 5083 38       		.uleb128 0x38
 14833 5084 725C0000 		.4byte	0x5c72
 14834 5088 560C0000 		.4byte	.LLST62
 14835 508c 540C0000 		.4byte	.LVUS62
 14836 5090 3C       		.uleb128 0x3c
 14837 5091 E2020000 		.4byte	.LVL76
 14838 5095 935E0000 		.4byte	0x5e93
 14839 5099 3D       		.uleb128 0x3d
 14840 509a 01       		.uleb128 0x1
 14841 509b 50       		.byte	0x50
 14842 509c 01       		.uleb128 0x1
 14843 509d 44       		.byte	0x44
 14844 509e 00       		.byte	0
 14845 509f 00       		.byte	0
 14846 50a0 00       		.byte	0
 14847 50a1 4B       		.uleb128 0x4b
 14848 50a2 5A060000 		.4byte	.LASF778
 14849 50a6 01       		.byte	0x1
ARM GAS  /tmp/ccpnbTSa.s 			page 262


 14850 50a7 7002     		.2byte	0x270
 14851 50a9 06       		.byte	0x6
 14852 50aa 8B1C0000 		.4byte	0x1c8b
 14853 50ae A0020000 		.4byte	.LFB376
 14854 50b2 1A000000 		.4byte	.LFE376-.LFB376
 14855 50b6 01       		.uleb128 0x1
 14856 50b7 9C       		.byte	0x9c
 14857 50b8 F8500000 		.4byte	0x50f8
 14858 50bc 33       		.uleb128 0x33
 14859 50bd 2D1E0000 		.4byte	.LASF769
 14860 50c1 01       		.byte	0x1
 14861 50c2 7002     		.2byte	0x270
 14862 50c4 23       		.byte	0x23
 14863 50c5 91330000 		.4byte	0x3391
 14864 50c9 720C0000 		.4byte	.LLST59
 14865 50cd 6A0C0000 		.4byte	.LVUS59
 14866 50d1 34       		.uleb128 0x34
 14867 50d2 657000   		.ascii	"ep\000"
 14868 50d5 01       		.byte	0x1
 14869 50d6 7002     		.2byte	0x270
 14870 50d8 31       		.byte	0x31
 14871 50d9 3C320000 		.4byte	0x323c
 14872 50dd B00C0000 		.4byte	.LLST60
 14873 50e1 AC0C0000 		.4byte	.LVUS60
 14874 50e5 35       		.uleb128 0x35
 14875 50e6 91000000 		.4byte	.LASF772
 14876 50ea 08510000 		.4byte	0x5108
 14877 50ee 47       		.uleb128 0x47
 14878 50ef B6020000 		.4byte	.LVL72
 14879 50f3 055E0000 		.4byte	0x5e05
 14880 50f7 00       		.byte	0
 14881 50f8 09       		.uleb128 0x9
 14882 50f9 86060000 		.4byte	0x686
 14883 50fd 08510000 		.4byte	0x5108
 14884 5101 0A       		.uleb128 0xa
 14885 5102 3D000000 		.4byte	0x3d
 14886 5106 11       		.byte	0x11
 14887 5107 00       		.byte	0
 14888 5108 15       		.uleb128 0x15
 14889 5109 F8500000 		.4byte	0x50f8
 14890 510d 4B       		.uleb128 0x4b
 14891 510e 071A0000 		.4byte	.LASF779
 14892 5112 01       		.byte	0x1
 14893 5113 5702     		.2byte	0x257
 14894 5115 06       		.byte	0x6
 14895 5116 8B1C0000 		.4byte	0x1c8b
 14896 511a 80020000 		.4byte	.LFB375
 14897 511e 1A000000 		.4byte	.LFE375-.LFB375
 14898 5122 01       		.uleb128 0x1
 14899 5123 9C       		.byte	0x9c
 14900 5124 64510000 		.4byte	0x5164
 14901 5128 33       		.uleb128 0x33
 14902 5129 2D1E0000 		.4byte	.LASF769
 14903 512d 01       		.byte	0x1
 14904 512e 5702     		.2byte	0x257
 14905 5130 22       		.byte	0x22
 14906 5131 91330000 		.4byte	0x3391
ARM GAS  /tmp/ccpnbTSa.s 			page 263


 14907 5135 D90C0000 		.4byte	.LLST57
 14908 5139 D10C0000 		.4byte	.LVUS57
 14909 513d 34       		.uleb128 0x34
 14910 513e 657000   		.ascii	"ep\000"
 14911 5141 01       		.byte	0x1
 14912 5142 5702     		.2byte	0x257
 14913 5144 30       		.byte	0x30
 14914 5145 3C320000 		.4byte	0x323c
 14915 5149 170D0000 		.4byte	.LLST58
 14916 514d 130D0000 		.4byte	.LVUS58
 14917 5151 35       		.uleb128 0x35
 14918 5152 91000000 		.4byte	.LASF772
 14919 5156 74510000 		.4byte	0x5174
 14920 515a 47       		.uleb128 0x47
 14921 515b 96020000 		.4byte	.LVL68
 14922 515f 125E0000 		.4byte	0x5e12
 14923 5163 00       		.byte	0
 14924 5164 09       		.uleb128 0x9
 14925 5165 86060000 		.4byte	0x686
 14926 5169 74510000 		.4byte	0x5174
 14927 516d 0A       		.uleb128 0xa
 14928 516e 3D000000 		.4byte	0x3d
 14929 5172 10       		.byte	0x10
 14930 5173 00       		.byte	0
 14931 5174 15       		.uleb128 0x15
 14932 5175 64510000 		.4byte	0x5164
 14933 5179 4B       		.uleb128 0x4b
 14934 517a DE1D0000 		.4byte	.LASF780
 14935 517e 01       		.byte	0x1
 14936 517f 3902     		.2byte	0x239
 14937 5181 07       		.byte	0x7
 14938 5182 FE090000 		.4byte	0x9fe
 14939 5186 20020000 		.4byte	.LFB374
 14940 518a 52000000 		.4byte	.LFE374-.LFB374
 14941 518e 01       		.uleb128 0x1
 14942 518f 9C       		.byte	0x9c
 14943 5190 DB530000 		.4byte	0x53db
 14944 5194 33       		.uleb128 0x33
 14945 5195 2D1E0000 		.4byte	.LASF769
 14946 5199 01       		.byte	0x1
 14947 519a 3902     		.2byte	0x239
 14948 519c 1E       		.byte	0x1e
 14949 519d 91330000 		.4byte	0x3391
 14950 51a1 400D0000 		.4byte	.LLST43
 14951 51a5 380D0000 		.4byte	.LVUS43
 14952 51a9 34       		.uleb128 0x34
 14953 51aa 657000   		.ascii	"ep\000"
 14954 51ad 01       		.byte	0x1
 14955 51ae 3902     		.2byte	0x239
 14956 51b0 2C       		.byte	0x2c
 14957 51b1 3C320000 		.4byte	0x323c
 14958 51b5 800D0000 		.4byte	.LLST44
 14959 51b9 7A0D0000 		.4byte	.LVUS44
 14960 51bd 34       		.uleb128 0x34
 14961 51be 62756600 		.ascii	"buf\000"
 14962 51c2 01       		.byte	0x1
 14963 51c3 3902     		.2byte	0x239
ARM GAS  /tmp/ccpnbTSa.s 			page 264


 14964 51c5 3F       		.byte	0x3f
 14965 51c6 03210000 		.4byte	0x2103
 14966 51ca B20D0000 		.4byte	.LLST45
 14967 51ce AC0D0000 		.4byte	.LVUS45
 14968 51d2 34       		.uleb128 0x34
 14969 51d3 6E00     		.ascii	"n\000"
 14970 51d5 01       		.byte	0x1
 14971 51d6 3902     		.2byte	0x239
 14972 51d8 4B       		.byte	0x4b
 14973 51d9 2C000000 		.4byte	0x2c
 14974 51dd E60D0000 		.4byte	.LLST46
 14975 51e1 DE0D0000 		.4byte	.LVUS46
 14976 51e5 42       		.uleb128 0x42
 14977 51e6 6D736700 		.ascii	"msg\000"
 14978 51ea 01       		.byte	0x1
 14979 51eb 3A02     		.2byte	0x23a
 14980 51ed 09       		.byte	0x9
 14981 51ee FE090000 		.4byte	0x9fe
 14982 51f2 220E0000 		.4byte	.LLST47
 14983 51f6 200E0000 		.4byte	.LVUS47
 14984 51fa 36       		.uleb128 0x36
 14985 51fb A85C0000 		.4byte	0x5ca8
 14986 51ff 20020000 		.4byte	.LBI427
 14987 5203 0300     		.2byte	.LVU356
 14988 5205 90010000 		.4byte	.Ldebug_ranges0+0x190
 14989 5209 01       		.byte	0x1
 14990 520a 3C02     		.2byte	0x23c
 14991 520c 03       		.byte	0x3
 14992 520d 5B520000 		.4byte	0x525b
 14993 5211 37       		.uleb128 0x37
 14994 5212 DE5C0000 		.4byte	0x5cde
 14995 5216 20020000 		.4byte	.LBI428
 14996 521a 0500     		.2byte	.LVU358
 14997 521c 98010000 		.4byte	.Ldebug_ranges0+0x198
 14998 5220 02       		.byte	0x2
 14999 5221 FF01     		.2byte	0x1ff
 15000 5223 03       		.byte	0x3
 15001 5224 37       		.uleb128 0x37
 15002 5225 065D0000 		.4byte	0x5d06
 15003 5229 20020000 		.4byte	.LBI429
 15004 522d 0700     		.2byte	.LVU360
 15005 522f A0010000 		.4byte	.Ldebug_ranges0+0x1a0
 15006 5233 03       		.byte	0x3
 15007 5234 6301     		.2byte	0x163
 15008 5236 03       		.byte	0x3
 15009 5237 37       		.uleb128 0x37
 15010 5238 105D0000 		.4byte	0x5d10
 15011 523c 20020000 		.4byte	.LBI430
 15012 5240 0900     		.2byte	.LVU362
 15013 5242 A8010000 		.4byte	.Ldebug_ranges0+0x1a8
 15014 5246 04       		.byte	0x4
 15015 5247 A502     		.2byte	0x2a5
 15016 5249 03       		.byte	0x3
 15017 524a 38       		.uleb128 0x38
 15018 524b 1E5D0000 		.4byte	0x5d1e
 15019 524f 370E0000 		.4byte	.LLST48
 15020 5253 350E0000 		.4byte	.LVUS48
ARM GAS  /tmp/ccpnbTSa.s 			page 265


 15021 5257 00       		.byte	0
 15022 5258 00       		.byte	0
 15023 5259 00       		.byte	0
 15024 525a 00       		.byte	0
 15025 525b 39       		.uleb128 0x39
 15026 525c 3D560000 		.4byte	0x563d
 15027 5260 2E020000 		.4byte	.LBI443
 15028 5264 0100     		.2byte	.LVU372
 15029 5266 2E020000 		.4byte	.LBB443
 15030 526a 24000000 		.4byte	.LBE443-.LBB443
 15031 526e 01       		.byte	0x1
 15032 526f 4302     		.2byte	0x243
 15033 5271 03       		.byte	0x3
 15034 5272 D3520000 		.4byte	0x52d3
 15035 5276 38       		.uleb128 0x38
 15036 5277 71560000 		.4byte	0x5671
 15037 527b 500E0000 		.4byte	.LLST49
 15038 527f 4C0E0000 		.4byte	.LVUS49
 15039 5283 38       		.uleb128 0x38
 15040 5284 64560000 		.4byte	0x5664
 15041 5288 750E0000 		.4byte	.LLST50
 15042 528c 710E0000 		.4byte	.LVUS50
 15043 5290 38       		.uleb128 0x38
 15044 5291 58560000 		.4byte	0x5658
 15045 5295 9A0E0000 		.4byte	.LLST51
 15046 5299 960E0000 		.4byte	.LVUS51
 15047 529d 38       		.uleb128 0x38
 15048 529e 4B560000 		.4byte	0x564b
 15049 52a2 BF0E0000 		.4byte	.LLST52
 15050 52a6 BB0E0000 		.4byte	.LVUS52
 15051 52aa 3A       		.uleb128 0x3a
 15052 52ab 2E020000 		.4byte	.LBB444
 15053 52af 24000000 		.4byte	.LBE444-.LBB444
 15054 52b3 3B       		.uleb128 0x3b
 15055 52b4 7C560000 		.4byte	0x567c
 15056 52b8 E20E0000 		.4byte	.LLST53
 15057 52bc E00E0000 		.4byte	.LVUS53
 15058 52c0 3C       		.uleb128 0x3c
 15059 52c1 52020000 		.4byte	.LVL58
 15060 52c5 F85D0000 		.4byte	0x5df8
 15061 52c9 3D       		.uleb128 0x3d
 15062 52ca 01       		.uleb128 0x1
 15063 52cb 50       		.byte	0x50
 15064 52cc 03       		.uleb128 0x3
 15065 52cd F3       		.byte	0xf3
 15066 52ce 01       		.uleb128 0x1
 15067 52cf 50       		.byte	0x50
 15068 52d0 00       		.byte	0
 15069 52d1 00       		.byte	0
 15070 52d2 00       		.byte	0
 15071 52d3 36       		.uleb128 0x36
 15072 52d4 445C0000 		.4byte	0x5c44
 15073 52d8 52020000 		.4byte	.LBI445
 15074 52dc 0200     		.2byte	.LVU396
 15075 52de C0010000 		.4byte	.Ldebug_ranges0+0x1c0
 15076 52e2 01       		.byte	0x1
 15077 52e3 4402     		.2byte	0x244
ARM GAS  /tmp/ccpnbTSa.s 			page 266


 15078 52e5 09       		.byte	0x9
 15079 52e6 08530000 		.4byte	0x5308
 15080 52ea 38       		.uleb128 0x38
 15081 52eb 565C0000 		.4byte	0x5c56
 15082 52ef F70E0000 		.4byte	.LLST54
 15083 52f3 F50E0000 		.4byte	.LVUS54
 15084 52f7 3C       		.uleb128 0x3c
 15085 52f8 60020000 		.4byte	.LVL59
 15086 52fc 9F5E0000 		.4byte	0x5e9f
 15087 5300 3D       		.uleb128 0x3d
 15088 5301 01       		.uleb128 0x1
 15089 5302 51       		.byte	0x51
 15090 5303 02       		.uleb128 0x2
 15091 5304 09       		.byte	0x9
 15092 5305 FF       		.byte	0xff
 15093 5306 00       		.byte	0
 15094 5307 00       		.byte	0
 15095 5308 36       		.uleb128 0x36
 15096 5309 9E5C0000 		.4byte	0x5c9e
 15097 530d 60020000 		.4byte	.LBI451
 15098 5311 0200     		.2byte	.LVU404
 15099 5313 E0010000 		.4byte	.Ldebug_ranges0+0x1e0
 15100 5317 01       		.byte	0x1
 15101 5318 4502     		.2byte	0x245
 15102 531a 03       		.byte	0x3
 15103 531b 73530000 		.4byte	0x5373
 15104 531f 37       		.uleb128 0x37
 15105 5320 C65C0000 		.4byte	0x5cc6
 15106 5324 60020000 		.4byte	.LBI452
 15107 5328 0400     		.2byte	.LVU406
 15108 532a E8010000 		.4byte	.Ldebug_ranges0+0x1e8
 15109 532e 02       		.byte	0x2
 15110 532f 0A02     		.2byte	0x20a
 15111 5331 03       		.byte	0x3
 15112 5332 43       		.uleb128 0x43
 15113 5333 E8010000 		.4byte	.Ldebug_ranges0+0x1e8
 15114 5337 37       		.uleb128 0x37
 15115 5338 FC5C0000 		.4byte	0x5cfc
 15116 533c 60020000 		.4byte	.LBI454
 15117 5340 0A00     		.2byte	.LVU412
 15118 5342 E8010000 		.4byte	.Ldebug_ranges0+0x1e8
 15119 5346 03       		.byte	0x3
 15120 5347 7A01     		.2byte	0x17a
 15121 5349 03       		.byte	0x3
 15122 534a 3E       		.uleb128 0x3e
 15123 534b 105D0000 		.4byte	0x5d10
 15124 534f 60020000 		.4byte	.LBI455
 15125 5353 0C00     		.2byte	.LVU414
 15126 5355 60020000 		.4byte	.LBB455
 15127 5359 04000000 		.4byte	.LBE455-.LBB455
 15128 535d 04       		.byte	0x4
 15129 535e B802     		.2byte	0x2b8
 15130 5360 03       		.byte	0x3
 15131 5361 38       		.uleb128 0x38
 15132 5362 1E5D0000 		.4byte	0x5d1e
 15133 5366 140F0000 		.4byte	.LLST55
 15134 536a 120F0000 		.4byte	.LVUS55
ARM GAS  /tmp/ccpnbTSa.s 			page 267


 15135 536e 00       		.byte	0
 15136 536f 00       		.byte	0
 15137 5370 00       		.byte	0
 15138 5371 00       		.byte	0
 15139 5372 00       		.byte	0
 15140 5373 37       		.uleb128 0x37
 15141 5374 9E5C0000 		.4byte	0x5c9e
 15142 5378 66020000 		.4byte	.LBI462
 15143 537c 0100     		.2byte	.LVU420
 15144 537e 00020000 		.4byte	.Ldebug_ranges0+0x200
 15145 5382 01       		.byte	0x1
 15146 5383 3F02     		.2byte	0x23f
 15147 5385 05       		.byte	0x5
 15148 5386 37       		.uleb128 0x37
 15149 5387 C65C0000 		.4byte	0x5cc6
 15150 538b 66020000 		.4byte	.LBI463
 15151 538f 0300     		.2byte	.LVU422
 15152 5391 08020000 		.4byte	.Ldebug_ranges0+0x208
 15153 5395 02       		.byte	0x2
 15154 5396 0A02     		.2byte	0x20a
 15155 5398 03       		.byte	0x3
 15156 5399 43       		.uleb128 0x43
 15157 539a 08020000 		.4byte	.Ldebug_ranges0+0x208
 15158 539e 37       		.uleb128 0x37
 15159 539f FC5C0000 		.4byte	0x5cfc
 15160 53a3 66020000 		.4byte	.LBI465
 15161 53a7 0900     		.2byte	.LVU428
 15162 53a9 08020000 		.4byte	.Ldebug_ranges0+0x208
 15163 53ad 03       		.byte	0x3
 15164 53ae 7A01     		.2byte	0x17a
 15165 53b0 03       		.byte	0x3
 15166 53b1 3E       		.uleb128 0x3e
 15167 53b2 105D0000 		.4byte	0x5d10
 15168 53b6 66020000 		.4byte	.LBI466
 15169 53ba 0B00     		.2byte	.LVU430
 15170 53bc 66020000 		.4byte	.LBB466
 15171 53c0 06000000 		.4byte	.LBE466-.LBB466
 15172 53c4 04       		.byte	0x4
 15173 53c5 B802     		.2byte	0x2b8
 15174 53c7 03       		.byte	0x3
 15175 53c8 38       		.uleb128 0x38
 15176 53c9 1E5D0000 		.4byte	0x5d1e
 15177 53cd 2A0F0000 		.4byte	.LLST56
 15178 53d1 280F0000 		.4byte	.LVUS56
 15179 53d5 00       		.byte	0
 15180 53d6 00       		.byte	0
 15181 53d7 00       		.byte	0
 15182 53d8 00       		.byte	0
 15183 53d9 00       		.byte	0
 15184 53da 00       		.byte	0
 15185 53db 4B       		.uleb128 0x4b
 15186 53dc 2F140000 		.4byte	.LASF781
 15187 53e0 01       		.byte	0x1
 15188 53e1 1802     		.2byte	0x218
 15189 53e3 07       		.byte	0x7
 15190 53e4 FE090000 		.4byte	0x9fe
 15191 53e8 C0010000 		.4byte	.LFB373
ARM GAS  /tmp/ccpnbTSa.s 			page 268


 15192 53ec 52000000 		.4byte	.LFE373-.LFB373
 15193 53f0 01       		.uleb128 0x1
 15194 53f1 9C       		.byte	0x9c
 15195 53f2 3D560000 		.4byte	0x563d
 15196 53f6 33       		.uleb128 0x33
 15197 53f7 2D1E0000 		.4byte	.LASF769
 15198 53fb 01       		.byte	0x1
 15199 53fc 1802     		.2byte	0x218
 15200 53fe 1D       		.byte	0x1d
 15201 53ff 91330000 		.4byte	0x3391
 15202 5403 460F0000 		.4byte	.LLST29
 15203 5407 3E0F0000 		.4byte	.LVUS29
 15204 540b 34       		.uleb128 0x34
 15205 540c 657000   		.ascii	"ep\000"
 15206 540f 01       		.byte	0x1
 15207 5410 1802     		.2byte	0x218
 15208 5412 2B       		.byte	0x2b
 15209 5413 3C320000 		.4byte	0x323c
 15210 5417 860F0000 		.4byte	.LLST30
 15211 541b 800F0000 		.4byte	.LVUS30
 15212 541f 34       		.uleb128 0x34
 15213 5420 62756600 		.ascii	"buf\000"
 15214 5424 01       		.byte	0x1
 15215 5425 1802     		.2byte	0x218
 15216 5427 38       		.byte	0x38
 15217 5428 DC1C0000 		.4byte	0x1cdc
 15218 542c B80F0000 		.4byte	.LLST31
 15219 5430 B20F0000 		.4byte	.LVUS31
 15220 5434 34       		.uleb128 0x34
 15221 5435 6E00     		.ascii	"n\000"
 15222 5437 01       		.byte	0x1
 15223 5438 1802     		.2byte	0x218
 15224 543a 44       		.byte	0x44
 15225 543b 2C000000 		.4byte	0x2c
 15226 543f EC0F0000 		.4byte	.LLST32
 15227 5443 E40F0000 		.4byte	.LVUS32
 15228 5447 42       		.uleb128 0x42
 15229 5448 6D736700 		.ascii	"msg\000"
 15230 544c 01       		.byte	0x1
 15231 544d 1902     		.2byte	0x219
 15232 544f 09       		.byte	0x9
 15233 5450 FE090000 		.4byte	0x9fe
 15234 5454 28100000 		.4byte	.LLST33
 15235 5458 26100000 		.4byte	.LVUS33
 15236 545c 36       		.uleb128 0x36
 15237 545d A85C0000 		.4byte	0x5ca8
 15238 5461 C0010000 		.4byte	.LBI381
 15239 5465 0300     		.2byte	.LVU272
 15240 5467 00010000 		.4byte	.Ldebug_ranges0+0x100
 15241 546b 01       		.byte	0x1
 15242 546c 1B02     		.2byte	0x21b
 15243 546e 03       		.byte	0x3
 15244 546f BD540000 		.4byte	0x54bd
 15245 5473 37       		.uleb128 0x37
 15246 5474 DE5C0000 		.4byte	0x5cde
 15247 5478 C0010000 		.4byte	.LBI382
 15248 547c 0500     		.2byte	.LVU274
ARM GAS  /tmp/ccpnbTSa.s 			page 269


 15249 547e 08010000 		.4byte	.Ldebug_ranges0+0x108
 15250 5482 02       		.byte	0x2
 15251 5483 FF01     		.2byte	0x1ff
 15252 5485 03       		.byte	0x3
 15253 5486 37       		.uleb128 0x37
 15254 5487 065D0000 		.4byte	0x5d06
 15255 548b C0010000 		.4byte	.LBI383
 15256 548f 0700     		.2byte	.LVU276
 15257 5491 10010000 		.4byte	.Ldebug_ranges0+0x110
 15258 5495 03       		.byte	0x3
 15259 5496 6301     		.2byte	0x163
 15260 5498 03       		.byte	0x3
 15261 5499 37       		.uleb128 0x37
 15262 549a 105D0000 		.4byte	0x5d10
 15263 549e C0010000 		.4byte	.LBI384
 15264 54a2 0900     		.2byte	.LVU278
 15265 54a4 18010000 		.4byte	.Ldebug_ranges0+0x118
 15266 54a8 04       		.byte	0x4
 15267 54a9 A502     		.2byte	0x2a5
 15268 54ab 03       		.byte	0x3
 15269 54ac 38       		.uleb128 0x38
 15270 54ad 1E5D0000 		.4byte	0x5d1e
 15271 54b1 3D100000 		.4byte	.LLST34
 15272 54b5 3B100000 		.4byte	.LVUS34
 15273 54b9 00       		.byte	0
 15274 54ba 00       		.byte	0
 15275 54bb 00       		.byte	0
 15276 54bc 00       		.byte	0
 15277 54bd 39       		.uleb128 0x39
 15278 54be 93560000 		.4byte	0x5693
 15279 54c2 CE010000 		.4byte	.LBI397
 15280 54c6 0100     		.2byte	.LVU288
 15281 54c8 CE010000 		.4byte	.LBB397
 15282 54cc 24000000 		.4byte	.LBE397-.LBB397
 15283 54d0 01       		.byte	0x1
 15284 54d1 2202     		.2byte	0x222
 15285 54d3 03       		.byte	0x3
 15286 54d4 35550000 		.4byte	0x5535
 15287 54d8 38       		.uleb128 0x38
 15288 54d9 C7560000 		.4byte	0x56c7
 15289 54dd 56100000 		.4byte	.LLST35
 15290 54e1 52100000 		.4byte	.LVUS35
 15291 54e5 38       		.uleb128 0x38
 15292 54e6 BA560000 		.4byte	0x56ba
 15293 54ea 7B100000 		.4byte	.LLST36
 15294 54ee 77100000 		.4byte	.LVUS36
 15295 54f2 38       		.uleb128 0x38
 15296 54f3 AE560000 		.4byte	0x56ae
 15297 54f7 A0100000 		.4byte	.LLST37
 15298 54fb 9C100000 		.4byte	.LVUS37
 15299 54ff 38       		.uleb128 0x38
 15300 5500 A1560000 		.4byte	0x56a1
 15301 5504 C5100000 		.4byte	.LLST38
 15302 5508 C1100000 		.4byte	.LVUS38
 15303 550c 3A       		.uleb128 0x3a
 15304 550d CE010000 		.4byte	.LBB398
 15305 5511 24000000 		.4byte	.LBE398-.LBB398
ARM GAS  /tmp/ccpnbTSa.s 			page 270


 15306 5515 3B       		.uleb128 0x3b
 15307 5516 D2560000 		.4byte	0x56d2
 15308 551a E8100000 		.4byte	.LLST39
 15309 551e E6100000 		.4byte	.LVUS39
 15310 5522 3C       		.uleb128 0x3c
 15311 5523 F2010000 		.4byte	.LVL47
 15312 5527 1F5E0000 		.4byte	0x5e1f
 15313 552b 3D       		.uleb128 0x3d
 15314 552c 01       		.uleb128 0x1
 15315 552d 50       		.byte	0x50
 15316 552e 03       		.uleb128 0x3
 15317 552f F3       		.byte	0xf3
 15318 5530 01       		.uleb128 0x1
 15319 5531 50       		.byte	0x50
 15320 5532 00       		.byte	0
 15321 5533 00       		.byte	0
 15322 5534 00       		.byte	0
 15323 5535 36       		.uleb128 0x36
 15324 5536 445C0000 		.4byte	0x5c44
 15325 553a F2010000 		.4byte	.LBI399
 15326 553e 0200     		.2byte	.LVU312
 15327 5540 30010000 		.4byte	.Ldebug_ranges0+0x130
 15328 5544 01       		.byte	0x1
 15329 5545 2302     		.2byte	0x223
 15330 5547 09       		.byte	0x9
 15331 5548 6A550000 		.4byte	0x556a
 15332 554c 38       		.uleb128 0x38
 15333 554d 565C0000 		.4byte	0x5c56
 15334 5551 FD100000 		.4byte	.LLST40
 15335 5555 FB100000 		.4byte	.LVUS40
 15336 5559 3C       		.uleb128 0x3c
 15337 555a 00020000 		.4byte	.LVL48
 15338 555e 9F5E0000 		.4byte	0x5e9f
 15339 5562 3D       		.uleb128 0x3d
 15340 5563 01       		.uleb128 0x1
 15341 5564 51       		.byte	0x51
 15342 5565 02       		.uleb128 0x2
 15343 5566 09       		.byte	0x9
 15344 5567 FF       		.byte	0xff
 15345 5568 00       		.byte	0
 15346 5569 00       		.byte	0
 15347 556a 36       		.uleb128 0x36
 15348 556b 9E5C0000 		.4byte	0x5c9e
 15349 556f 00020000 		.4byte	.LBI405
 15350 5573 0200     		.2byte	.LVU320
 15351 5575 50010000 		.4byte	.Ldebug_ranges0+0x150
 15352 5579 01       		.byte	0x1
 15353 557a 2402     		.2byte	0x224
 15354 557c 03       		.byte	0x3
 15355 557d D5550000 		.4byte	0x55d5
 15356 5581 37       		.uleb128 0x37
 15357 5582 C65C0000 		.4byte	0x5cc6
 15358 5586 00020000 		.4byte	.LBI406
 15359 558a 0400     		.2byte	.LVU322
 15360 558c 58010000 		.4byte	.Ldebug_ranges0+0x158
 15361 5590 02       		.byte	0x2
 15362 5591 0A02     		.2byte	0x20a
ARM GAS  /tmp/ccpnbTSa.s 			page 271


 15363 5593 03       		.byte	0x3
 15364 5594 43       		.uleb128 0x43
 15365 5595 58010000 		.4byte	.Ldebug_ranges0+0x158
 15366 5599 37       		.uleb128 0x37
 15367 559a FC5C0000 		.4byte	0x5cfc
 15368 559e 00020000 		.4byte	.LBI408
 15369 55a2 0A00     		.2byte	.LVU328
 15370 55a4 58010000 		.4byte	.Ldebug_ranges0+0x158
 15371 55a8 03       		.byte	0x3
 15372 55a9 7A01     		.2byte	0x17a
 15373 55ab 03       		.byte	0x3
 15374 55ac 3E       		.uleb128 0x3e
 15375 55ad 105D0000 		.4byte	0x5d10
 15376 55b1 00020000 		.4byte	.LBI409
 15377 55b5 0C00     		.2byte	.LVU330
 15378 55b7 00020000 		.4byte	.LBB409
 15379 55bb 04000000 		.4byte	.LBE409-.LBB409
 15380 55bf 04       		.byte	0x4
 15381 55c0 B802     		.2byte	0x2b8
 15382 55c2 03       		.byte	0x3
 15383 55c3 38       		.uleb128 0x38
 15384 55c4 1E5D0000 		.4byte	0x5d1e
 15385 55c8 1A110000 		.4byte	.LLST41
 15386 55cc 18110000 		.4byte	.LVUS41
 15387 55d0 00       		.byte	0
 15388 55d1 00       		.byte	0
 15389 55d2 00       		.byte	0
 15390 55d3 00       		.byte	0
 15391 55d4 00       		.byte	0
 15392 55d5 37       		.uleb128 0x37
 15393 55d6 9E5C0000 		.4byte	0x5c9e
 15394 55da 06020000 		.4byte	.LBI416
 15395 55de 0100     		.2byte	.LVU336
 15396 55e0 70010000 		.4byte	.Ldebug_ranges0+0x170
 15397 55e4 01       		.byte	0x1
 15398 55e5 1E02     		.2byte	0x21e
 15399 55e7 05       		.byte	0x5
 15400 55e8 37       		.uleb128 0x37
 15401 55e9 C65C0000 		.4byte	0x5cc6
 15402 55ed 06020000 		.4byte	.LBI417
 15403 55f1 0300     		.2byte	.LVU338
 15404 55f3 78010000 		.4byte	.Ldebug_ranges0+0x178
 15405 55f7 02       		.byte	0x2
 15406 55f8 0A02     		.2byte	0x20a
 15407 55fa 03       		.byte	0x3
 15408 55fb 43       		.uleb128 0x43
 15409 55fc 78010000 		.4byte	.Ldebug_ranges0+0x178
 15410 5600 37       		.uleb128 0x37
 15411 5601 FC5C0000 		.4byte	0x5cfc
 15412 5605 06020000 		.4byte	.LBI419
 15413 5609 0900     		.2byte	.LVU344
 15414 560b 78010000 		.4byte	.Ldebug_ranges0+0x178
 15415 560f 03       		.byte	0x3
 15416 5610 7A01     		.2byte	0x17a
 15417 5612 03       		.byte	0x3
 15418 5613 3E       		.uleb128 0x3e
 15419 5614 105D0000 		.4byte	0x5d10
ARM GAS  /tmp/ccpnbTSa.s 			page 272


 15420 5618 06020000 		.4byte	.LBI420
 15421 561c 0B00     		.2byte	.LVU346
 15422 561e 06020000 		.4byte	.LBB420
 15423 5622 06000000 		.4byte	.LBE420-.LBB420
 15424 5626 04       		.byte	0x4
 15425 5627 B802     		.2byte	0x2b8
 15426 5629 03       		.byte	0x3
 15427 562a 38       		.uleb128 0x38
 15428 562b 1E5D0000 		.4byte	0x5d1e
 15429 562f 30110000 		.4byte	.LLST42
 15430 5633 2E110000 		.4byte	.LVUS42
 15431 5637 00       		.byte	0
 15432 5638 00       		.byte	0
 15433 5639 00       		.byte	0
 15434 563a 00       		.byte	0
 15435 563b 00       		.byte	0
 15436 563c 00       		.byte	0
 15437 563d 4C       		.uleb128 0x4c
 15438 563e 0B180000 		.4byte	.LASF782
 15439 5642 01       		.byte	0x1
 15440 5643 EC01     		.2byte	0x1ec
 15441 5645 06       		.byte	0x6
 15442 5646 01       		.byte	0x1
 15443 5647 93560000 		.4byte	0x5693
 15444 564b 4D       		.uleb128 0x4d
 15445 564c 2D1E0000 		.4byte	.LASF769
 15446 5650 01       		.byte	0x1
 15447 5651 EC01     		.2byte	0x1ec
 15448 5653 23       		.byte	0x23
 15449 5654 91330000 		.4byte	0x3391
 15450 5658 4E       		.uleb128 0x4e
 15451 5659 657000   		.ascii	"ep\000"
 15452 565c 01       		.byte	0x1
 15453 565d EC01     		.2byte	0x1ec
 15454 565f 31       		.byte	0x31
 15455 5660 3C320000 		.4byte	0x323c
 15456 5664 4E       		.uleb128 0x4e
 15457 5665 62756600 		.ascii	"buf\000"
 15458 5669 01       		.byte	0x1
 15459 566a ED01     		.2byte	0x1ed
 15460 566c 27       		.byte	0x27
 15461 566d 03210000 		.4byte	0x2103
 15462 5671 4E       		.uleb128 0x4e
 15463 5672 6E00     		.ascii	"n\000"
 15464 5674 01       		.byte	0x1
 15465 5675 ED01     		.2byte	0x1ed
 15466 5677 33       		.byte	0x33
 15467 5678 2C000000 		.4byte	0x2c
 15468 567c 4A       		.uleb128 0x4a
 15469 567d 69737000 		.ascii	"isp\000"
 15470 5681 01       		.byte	0x1
 15471 5682 EE01     		.2byte	0x1ee
 15472 5684 17       		.byte	0x17
 15473 5685 373B0000 		.4byte	0x3b37
 15474 5689 35       		.uleb128 0x35
 15475 568a 91000000 		.4byte	.LASF772
 15476 568e 08510000 		.4byte	0x5108
ARM GAS  /tmp/ccpnbTSa.s 			page 273


 15477 5692 00       		.byte	0
 15478 5693 4C       		.uleb128 0x4c
 15479 5694 8B020000 		.4byte	.LASF783
 15480 5698 01       		.byte	0x1
 15481 5699 C501     		.2byte	0x1c5
 15482 569b 06       		.byte	0x6
 15483 569c 01       		.byte	0x1
 15484 569d E9560000 		.4byte	0x56e9
 15485 56a1 4D       		.uleb128 0x4d
 15486 56a2 2D1E0000 		.4byte	.LASF769
 15487 56a6 01       		.byte	0x1
 15488 56a7 C501     		.2byte	0x1c5
 15489 56a9 22       		.byte	0x22
 15490 56aa 91330000 		.4byte	0x3391
 15491 56ae 4E       		.uleb128 0x4e
 15492 56af 657000   		.ascii	"ep\000"
 15493 56b2 01       		.byte	0x1
 15494 56b3 C501     		.2byte	0x1c5
 15495 56b5 30       		.byte	0x30
 15496 56b6 3C320000 		.4byte	0x323c
 15497 56ba 4E       		.uleb128 0x4e
 15498 56bb 62756600 		.ascii	"buf\000"
 15499 56bf 01       		.byte	0x1
 15500 56c0 C601     		.2byte	0x1c6
 15501 56c2 20       		.byte	0x20
 15502 56c3 DC1C0000 		.4byte	0x1cdc
 15503 56c7 4E       		.uleb128 0x4e
 15504 56c8 6E00     		.ascii	"n\000"
 15505 56ca 01       		.byte	0x1
 15506 56cb C601     		.2byte	0x1c6
 15507 56cd 2C       		.byte	0x2c
 15508 56ce 2C000000 		.4byte	0x2c
 15509 56d2 4A       		.uleb128 0x4a
 15510 56d3 6F737000 		.ascii	"osp\000"
 15511 56d7 01       		.byte	0x1
 15512 56d8 C701     		.2byte	0x1c7
 15513 56da 18       		.byte	0x18
 15514 56db 3D3B0000 		.4byte	0x3b3d
 15515 56df 35       		.uleb128 0x35
 15516 56e0 91000000 		.4byte	.LASF772
 15517 56e4 74510000 		.4byte	0x5174
 15518 56e8 00       		.byte	0
 15519 56e9 32       		.uleb128 0x32
 15520 56ea 85090000 		.4byte	.LASF784
 15521 56ee 01       		.byte	0x1
 15522 56ef 9A01     		.2byte	0x19a
 15523 56f1 06       		.byte	0x6
 15524 56f2 00010000 		.4byte	.LFB370
 15525 56f6 52000000 		.4byte	.LFE370-.LFB370
 15526 56fa 01       		.uleb128 0x1
 15527 56fb 9C       		.byte	0x9c
 15528 56fc BF570000 		.4byte	0x57bf
 15529 5700 33       		.uleb128 0x33
 15530 5701 2D1E0000 		.4byte	.LASF769
 15531 5705 01       		.byte	0x1
 15532 5706 9A01     		.2byte	0x19a
 15533 5708 26       		.byte	0x26
ARM GAS  /tmp/ccpnbTSa.s 			page 274


 15534 5709 91330000 		.4byte	0x3391
 15535 570d 4C110000 		.4byte	.LLST14
 15536 5711 44110000 		.4byte	.LVUS14
 15537 5715 4A       		.uleb128 0x4a
 15538 5716 6900     		.ascii	"i\000"
 15539 5718 01       		.byte	0x1
 15540 5719 9B01     		.2byte	0x19b
 15541 571b 0C       		.byte	0xc
 15542 571c 3D000000 		.4byte	0x3d
 15543 5720 35       		.uleb128 0x35
 15544 5721 91000000 		.4byte	.LASF772
 15545 5725 CF570000 		.4byte	0x57cf
 15546 5729 36       		.uleb128 0x36
 15547 572a 1B5C0000 		.4byte	0x5c1b
 15548 572e 1E010000 		.4byte	.LBI373
 15549 5732 0000     		.2byte	.LVU190
 15550 5734 D0000000 		.4byte	.Ldebug_ranges0+0xd0
 15551 5738 01       		.byte	0x1
 15552 5739 A901     		.2byte	0x1a9
 15553 573b 09       		.byte	0x9
 15554 573c 6B570000 		.4byte	0x576b
 15555 5740 38       		.uleb128 0x38
 15556 5741 365C0000 		.4byte	0x5c36
 15557 5745 85110000 		.4byte	.LLST15
 15558 5749 83110000 		.4byte	.LVUS15
 15559 574d 38       		.uleb128 0x38
 15560 574e 295C0000 		.4byte	0x5c29
 15561 5752 9E110000 		.4byte	.LLST16
 15562 5756 9A110000 		.4byte	.LVUS16
 15563 575a 3C       		.uleb128 0x3c
 15564 575b 2C010000 		.4byte	.LVL29
 15565 575f 7A5E0000 		.4byte	0x5e7a
 15566 5763 3D       		.uleb128 0x3d
 15567 5764 01       		.uleb128 0x1
 15568 5765 51       		.byte	0x51
 15569 5766 02       		.uleb128 0x2
 15570 5767 09       		.byte	0x9
 15571 5768 FE       		.byte	0xfe
 15572 5769 00       		.byte	0
 15573 576a 00       		.byte	0
 15574 576b 36       		.uleb128 0x36
 15575 576c 1B5C0000 		.4byte	0x5c1b
 15576 5770 32010000 		.4byte	.LBI377
 15577 5774 0000     		.2byte	.LVU199
 15578 5776 E8000000 		.4byte	.Ldebug_ranges0+0xe8
 15579 577a 01       		.byte	0x1
 15580 577b AC01     		.2byte	0x1ac
 15581 577d 09       		.byte	0x9
 15582 577e AD570000 		.4byte	0x57ad
 15583 5782 38       		.uleb128 0x38
 15584 5783 365C0000 		.4byte	0x5c36
 15585 5787 C0110000 		.4byte	.LLST17
 15586 578b BE110000 		.4byte	.LVUS17
 15587 578f 38       		.uleb128 0x38
 15588 5790 295C0000 		.4byte	0x5c29
 15589 5794 D9110000 		.4byte	.LLST18
 15590 5798 D5110000 		.4byte	.LVUS18
ARM GAS  /tmp/ccpnbTSa.s 			page 275


 15591 579c 3C       		.uleb128 0x3c
 15592 579d 40010000 		.4byte	.LVL32
 15593 57a1 7A5E0000 		.4byte	0x5e7a
 15594 57a5 3D       		.uleb128 0x3d
 15595 57a6 01       		.uleb128 0x1
 15596 57a7 51       		.byte	0x51
 15597 57a8 02       		.uleb128 0x2
 15598 57a9 09       		.byte	0x9
 15599 57aa FE       		.byte	0xfe
 15600 57ab 00       		.byte	0
 15601 57ac 00       		.byte	0
 15602 57ad 4F       		.uleb128 0x4f
 15603 57ae 52010000 		.4byte	.LVL34
 15604 57b2 AB5E0000 		.4byte	0x5eab
 15605 57b6 3D       		.uleb128 0x3d
 15606 57b7 01       		.uleb128 0x1
 15607 57b8 50       		.byte	0x50
 15608 57b9 03       		.uleb128 0x3
 15609 57ba F3       		.byte	0xf3
 15610 57bb 01       		.uleb128 0x1
 15611 57bc 50       		.byte	0x50
 15612 57bd 00       		.byte	0
 15613 57be 00       		.byte	0
 15614 57bf 09       		.uleb128 0x9
 15615 57c0 86060000 		.4byte	0x686
 15616 57c4 CF570000 		.4byte	0x57cf
 15617 57c8 0A       		.uleb128 0xa
 15618 57c9 3D000000 		.4byte	0x3d
 15619 57cd 14       		.byte	0x14
 15620 57ce 00       		.byte	0
 15621 57cf 15       		.uleb128 0x15
 15622 57d0 BF570000 		.4byte	0x57bf
 15623 57d4 32       		.uleb128 0x32
 15624 57d5 49000000 		.4byte	.LASF785
 15625 57d9 01       		.byte	0x1
 15626 57da 7701     		.2byte	0x177
 15627 57dc 06       		.byte	0x6
 15628 57dd D0000000 		.4byte	.LFB369
 15629 57e1 30000000 		.4byte	.LFE369-.LFB369
 15630 57e5 01       		.uleb128 0x1
 15631 57e6 9C       		.byte	0x9c
 15632 57e7 3C580000 		.4byte	0x583c
 15633 57eb 33       		.uleb128 0x33
 15634 57ec 2D1E0000 		.4byte	.LASF769
 15635 57f0 01       		.byte	0x1
 15636 57f1 7701     		.2byte	0x177
 15637 57f3 22       		.byte	0x22
 15638 57f4 91330000 		.4byte	0x3391
 15639 57f8 FD110000 		.4byte	.LLST11
 15640 57fc F9110000 		.4byte	.LVUS11
 15641 5800 34       		.uleb128 0x34
 15642 5801 657000   		.ascii	"ep\000"
 15643 5804 01       		.byte	0x1
 15644 5805 7701     		.2byte	0x177
 15645 5807 30       		.byte	0x30
 15646 5808 3C320000 		.4byte	0x323c
 15647 580c 22120000 		.4byte	.LLST12
ARM GAS  /tmp/ccpnbTSa.s 			page 276


 15648 5810 1E120000 		.4byte	.LVUS12
 15649 5814 33       		.uleb128 0x33
 15650 5815 7F0F0000 		.4byte	.LASF786
 15651 5819 01       		.byte	0x1
 15652 581a 7801     		.2byte	0x178
 15653 581c 30       		.byte	0x30
 15654 581d C03B0000 		.4byte	0x3bc0
 15655 5821 47120000 		.4byte	.LLST13
 15656 5825 43120000 		.4byte	.LVUS13
 15657 5829 35       		.uleb128 0x35
 15658 582a 91000000 		.4byte	.LASF772
 15659 582e 74510000 		.4byte	0x5174
 15660 5832 50       		.uleb128 0x50
 15661 5833 00010000 		.4byte	.LVL24
 15662 5837 B85E0000 		.4byte	0x5eb8
 15663 583b 00       		.byte	0
 15664 583c 32       		.uleb128 0x32
 15665 583d 9B1E0000 		.4byte	.LASF787
 15666 5841 01       		.byte	0x1
 15667 5842 4701     		.2byte	0x147
 15668 5844 06       		.byte	0x6
 15669 5845 70000000 		.4byte	.LFB368
 15670 5849 58000000 		.4byte	.LFE368-.LFB368
 15671 584d 01       		.uleb128 0x1
 15672 584e 9C       		.byte	0x9c
 15673 584f 025A0000 		.4byte	0x5a02
 15674 5853 33       		.uleb128 0x33
 15675 5854 2D1E0000 		.4byte	.LASF769
 15676 5858 01       		.byte	0x1
 15677 5859 4701     		.2byte	0x147
 15678 585b 19       		.byte	0x19
 15679 585c 91330000 		.4byte	0x3391
 15680 5860 6C120000 		.4byte	.LLST4
 15681 5864 68120000 		.4byte	.LVUS4
 15682 5868 4A       		.uleb128 0x4a
 15683 5869 6900     		.ascii	"i\000"
 15684 586b 01       		.byte	0x1
 15685 586c 4801     		.2byte	0x148
 15686 586e 0C       		.byte	0xc
 15687 586f 3D000000 		.4byte	0x3d
 15688 5873 35       		.uleb128 0x35
 15689 5874 91000000 		.4byte	.LASF772
 15690 5878 125A0000 		.4byte	0x5a12
 15691 587c 36       		.uleb128 0x36
 15692 587d A85C0000 		.4byte	0x5ca8
 15693 5881 70000000 		.4byte	.LBI336
 15694 5885 0500     		.2byte	.LVU76
 15695 5887 50000000 		.4byte	.Ldebug_ranges0+0x50
 15696 588b 01       		.byte	0x1
 15697 588c 4C01     		.2byte	0x14c
 15698 588e 03       		.byte	0x3
 15699 588f DD580000 		.4byte	0x58dd
 15700 5893 37       		.uleb128 0x37
 15701 5894 DE5C0000 		.4byte	0x5cde
 15702 5898 70000000 		.4byte	.LBI337
 15703 589c 0700     		.2byte	.LVU78
 15704 589e 58000000 		.4byte	.Ldebug_ranges0+0x58
ARM GAS  /tmp/ccpnbTSa.s 			page 277


 15705 58a2 02       		.byte	0x2
 15706 58a3 FF01     		.2byte	0x1ff
 15707 58a5 03       		.byte	0x3
 15708 58a6 37       		.uleb128 0x37
 15709 58a7 065D0000 		.4byte	0x5d06
 15710 58ab 70000000 		.4byte	.LBI338
 15711 58af 0900     		.2byte	.LVU80
 15712 58b1 60000000 		.4byte	.Ldebug_ranges0+0x60
 15713 58b5 03       		.byte	0x3
 15714 58b6 6301     		.2byte	0x163
 15715 58b8 03       		.byte	0x3
 15716 58b9 37       		.uleb128 0x37
 15717 58ba 105D0000 		.4byte	0x5d10
 15718 58be 70000000 		.4byte	.LBI339
 15719 58c2 0B00     		.2byte	.LVU82
 15720 58c4 68000000 		.4byte	.Ldebug_ranges0+0x68
 15721 58c8 04       		.byte	0x4
 15722 58c9 A502     		.2byte	0x2a5
 15723 58cb 03       		.byte	0x3
 15724 58cc 38       		.uleb128 0x38
 15725 58cd 1E5D0000 		.4byte	0x5d1e
 15726 58d1 8C120000 		.4byte	.LLST5
 15727 58d5 8A120000 		.4byte	.LVUS5
 15728 58d9 00       		.byte	0
 15729 58da 00       		.byte	0
 15730 58db 00       		.byte	0
 15731 58dc 00       		.byte	0
 15732 58dd 36       		.uleb128 0x36
 15733 58de 1B5C0000 		.4byte	0x5c1b
 15734 58e2 98000000 		.4byte	.LBI352
 15735 58e6 0000     		.2byte	.LVU107
 15736 58e8 80000000 		.4byte	.Ldebug_ranges0+0x80
 15737 58ec 01       		.byte	0x1
 15738 58ed 5C01     		.2byte	0x15c
 15739 58ef 09       		.byte	0x9
 15740 58f0 1F590000 		.4byte	0x591f
 15741 58f4 38       		.uleb128 0x38
 15742 58f5 365C0000 		.4byte	0x5c36
 15743 58f9 A3120000 		.4byte	.LLST6
 15744 58fd A1120000 		.4byte	.LVUS6
 15745 5901 38       		.uleb128 0x38
 15746 5902 295C0000 		.4byte	0x5c29
 15747 5906 BC120000 		.4byte	.LLST7
 15748 590a B8120000 		.4byte	.LVUS7
 15749 590e 3C       		.uleb128 0x3c
 15750 590f A6000000 		.4byte	.LVL16
 15751 5913 7A5E0000 		.4byte	0x5e7a
 15752 5917 3D       		.uleb128 0x3d
 15753 5918 01       		.uleb128 0x1
 15754 5919 51       		.byte	0x51
 15755 591a 02       		.uleb128 0x2
 15756 591b 09       		.byte	0x9
 15757 591c FE       		.byte	0xfe
 15758 591d 00       		.byte	0
 15759 591e 00       		.byte	0
 15760 591f 36       		.uleb128 0x36
 15761 5920 1B5C0000 		.4byte	0x5c1b
ARM GAS  /tmp/ccpnbTSa.s 			page 278


 15762 5924 AA000000 		.4byte	.LBI356
 15763 5928 0000     		.2byte	.LVU116
 15764 592a 98000000 		.4byte	.Ldebug_ranges0+0x98
 15765 592e 01       		.byte	0x1
 15766 592f 5F01     		.2byte	0x15f
 15767 5931 09       		.byte	0x9
 15768 5932 61590000 		.4byte	0x5961
 15769 5936 38       		.uleb128 0x38
 15770 5937 365C0000 		.4byte	0x5c36
 15771 593b DE120000 		.4byte	.LLST8
 15772 593f DC120000 		.4byte	.LVUS8
 15773 5943 38       		.uleb128 0x38
 15774 5944 295C0000 		.4byte	0x5c29
 15775 5948 F7120000 		.4byte	.LLST9
 15776 594c F3120000 		.4byte	.LVUS9
 15777 5950 3C       		.uleb128 0x3c
 15778 5951 B8000000 		.4byte	.LVL19
 15779 5955 7A5E0000 		.4byte	0x5e7a
 15780 5959 3D       		.uleb128 0x3d
 15781 595a 01       		.uleb128 0x1
 15782 595b 51       		.byte	0x51
 15783 595c 02       		.uleb128 0x2
 15784 595d 09       		.byte	0x9
 15785 595e FE       		.byte	0xfe
 15786 595f 00       		.byte	0
 15787 5960 00       		.byte	0
 15788 5961 39       		.uleb128 0x39
 15789 5962 805C0000 		.4byte	0x5c80
 15790 5966 BE000000 		.4byte	.LBI360
 15791 596a 0100     		.2byte	.LVU127
 15792 596c BE000000 		.4byte	.LBB360
 15793 5970 04000000 		.4byte	.LBE360-.LBB360
 15794 5974 01       		.byte	0x1
 15795 5975 6501     		.2byte	0x165
 15796 5977 03       		.byte	0x3
 15797 5978 86590000 		.4byte	0x5986
 15798 597c 47       		.uleb128 0x47
 15799 597d C2000000 		.4byte	.LVL20
 15800 5981 C55E0000 		.4byte	0x5ec5
 15801 5985 00       		.byte	0
 15802 5986 36       		.uleb128 0x36
 15803 5987 9E5C0000 		.4byte	0x5c9e
 15804 598b C2000000 		.4byte	.LBI362
 15805 598f 0100     		.2byte	.LVU130
 15806 5991 B0000000 		.4byte	.Ldebug_ranges0+0xb0
 15807 5995 01       		.byte	0x1
 15808 5996 6701     		.2byte	0x167
 15809 5998 03       		.byte	0x3
 15810 5999 F1590000 		.4byte	0x59f1
 15811 599d 37       		.uleb128 0x37
 15812 599e C65C0000 		.4byte	0x5cc6
 15813 59a2 C2000000 		.4byte	.LBI363
 15814 59a6 0300     		.2byte	.LVU132
 15815 59a8 B8000000 		.4byte	.Ldebug_ranges0+0xb8
 15816 59ac 02       		.byte	0x2
 15817 59ad 0A02     		.2byte	0x20a
 15818 59af 03       		.byte	0x3
ARM GAS  /tmp/ccpnbTSa.s 			page 279


 15819 59b0 43       		.uleb128 0x43
 15820 59b1 B8000000 		.4byte	.Ldebug_ranges0+0xb8
 15821 59b5 37       		.uleb128 0x37
 15822 59b6 FC5C0000 		.4byte	0x5cfc
 15823 59ba C2000000 		.4byte	.LBI365
 15824 59be 0900     		.2byte	.LVU138
 15825 59c0 B8000000 		.4byte	.Ldebug_ranges0+0xb8
 15826 59c4 03       		.byte	0x3
 15827 59c5 7A01     		.2byte	0x17a
 15828 59c7 03       		.byte	0x3
 15829 59c8 3E       		.uleb128 0x3e
 15830 59c9 105D0000 		.4byte	0x5d10
 15831 59cd C2000000 		.4byte	.LBI366
 15832 59d1 0B00     		.2byte	.LVU140
 15833 59d3 C2000000 		.4byte	.LBB366
 15834 59d7 04000000 		.4byte	.LBE366-.LBB366
 15835 59db 04       		.byte	0x4
 15836 59dc B802     		.2byte	0x2b8
 15837 59de 03       		.byte	0x3
 15838 59df 38       		.uleb128 0x38
 15839 59e0 1E5D0000 		.4byte	0x5d1e
 15840 59e4 19130000 		.4byte	.LLST10
 15841 59e8 17130000 		.4byte	.LVUS10
 15842 59ec 00       		.byte	0
 15843 59ed 00       		.byte	0
 15844 59ee 00       		.byte	0
 15845 59ef 00       		.byte	0
 15846 59f0 00       		.byte	0
 15847 59f1 3C       		.uleb128 0x3c
 15848 59f2 7E000000 		.4byte	.LVL12
 15849 59f6 D25E0000 		.4byte	0x5ed2
 15850 59fa 3D       		.uleb128 0x3d
 15851 59fb 01       		.uleb128 0x1
 15852 59fc 50       		.byte	0x50
 15853 59fd 02       		.uleb128 0x2
 15854 59fe 77       		.byte	0x77
 15855 59ff 00       		.sleb128 0
 15856 5a00 00       		.byte	0
 15857 5a01 00       		.byte	0
 15858 5a02 09       		.uleb128 0x9
 15859 5a03 86060000 		.4byte	0x686
 15860 5a07 125A0000 		.4byte	0x5a12
 15861 5a0b 0A       		.uleb128 0xa
 15862 5a0c 3D000000 		.4byte	0x3d
 15863 5a10 07       		.byte	0x7
 15864 5a11 00       		.byte	0
 15865 5a12 15       		.uleb128 0x15
 15866 5a13 025A0000 		.4byte	0x5a02
 15867 5a17 32       		.uleb128 0x32
 15868 5a18 73020000 		.4byte	.LASF788
 15869 5a1c 01       		.byte	0x1
 15870 5a1d 2F01     		.2byte	0x12f
 15871 5a1f 06       		.byte	0x6
 15872 5a20 40000000 		.4byte	.LFB367
 15873 5a24 2E000000 		.4byte	.LFE367-.LFB367
 15874 5a28 01       		.uleb128 0x1
 15875 5a29 9C       		.byte	0x9c
ARM GAS  /tmp/ccpnbTSa.s 			page 280


 15876 5a2a 495B0000 		.4byte	0x5b49
 15877 5a2e 33       		.uleb128 0x33
 15878 5a2f 2D1E0000 		.4byte	.LASF769
 15879 5a33 01       		.byte	0x1
 15880 5a34 2F01     		.2byte	0x12f
 15881 5a36 1A       		.byte	0x1a
 15882 5a37 91330000 		.4byte	0x3391
 15883 5a3b 31130000 		.4byte	.LLST0
 15884 5a3f 2D130000 		.4byte	.LVUS0
 15885 5a43 33       		.uleb128 0x33
 15886 5a44 FE180000 		.4byte	.LASF440
 15887 5a48 01       		.byte	0x1
 15888 5a49 2F01     		.2byte	0x12f
 15889 5a4b 31       		.byte	0x31
 15890 5a4c AA3B0000 		.4byte	0x3baa
 15891 5a50 53130000 		.4byte	.LLST1
 15892 5a54 4F130000 		.4byte	.LVUS1
 15893 5a58 4A       		.uleb128 0x4a
 15894 5a59 6900     		.ascii	"i\000"
 15895 5a5b 01       		.byte	0x1
 15896 5a5c 3001     		.2byte	0x130
 15897 5a5e 0C       		.byte	0xc
 15898 5a5f 3D000000 		.4byte	0x3d
 15899 5a63 35       		.uleb128 0x35
 15900 5a64 91000000 		.4byte	.LASF772
 15901 5a68 595B0000 		.4byte	0x5b59
 15902 5a6c 36       		.uleb128 0x36
 15903 5a6d A85C0000 		.4byte	0x5ca8
 15904 5a71 40000000 		.4byte	.LBI309
 15905 5a75 0500     		.2byte	.LVU28
 15906 5a77 00000000 		.4byte	.Ldebug_ranges0+0
 15907 5a7b 01       		.byte	0x1
 15908 5a7c 3401     		.2byte	0x134
 15909 5a7e 03       		.byte	0x3
 15910 5a7f CD5A0000 		.4byte	0x5acd
 15911 5a83 37       		.uleb128 0x37
 15912 5a84 DE5C0000 		.4byte	0x5cde
 15913 5a88 40000000 		.4byte	.LBI310
 15914 5a8c 0700     		.2byte	.LVU30
 15915 5a8e 08000000 		.4byte	.Ldebug_ranges0+0x8
 15916 5a92 02       		.byte	0x2
 15917 5a93 FF01     		.2byte	0x1ff
 15918 5a95 03       		.byte	0x3
 15919 5a96 37       		.uleb128 0x37
 15920 5a97 065D0000 		.4byte	0x5d06
 15921 5a9b 40000000 		.4byte	.LBI311
 15922 5a9f 0900     		.2byte	.LVU32
 15923 5aa1 10000000 		.4byte	.Ldebug_ranges0+0x10
 15924 5aa5 03       		.byte	0x3
 15925 5aa6 6301     		.2byte	0x163
 15926 5aa8 03       		.byte	0x3
 15927 5aa9 37       		.uleb128 0x37
 15928 5aaa 105D0000 		.4byte	0x5d10
 15929 5aae 40000000 		.4byte	.LBI312
 15930 5ab2 0B00     		.2byte	.LVU34
 15931 5ab4 18000000 		.4byte	.Ldebug_ranges0+0x18
 15932 5ab8 04       		.byte	0x4
ARM GAS  /tmp/ccpnbTSa.s 			page 281


 15933 5ab9 A502     		.2byte	0x2a5
 15934 5abb 03       		.byte	0x3
 15935 5abc 38       		.uleb128 0x38
 15936 5abd 1E5D0000 		.4byte	0x5d1e
 15937 5ac1 76130000 		.4byte	.LLST2
 15938 5ac5 74130000 		.4byte	.LVUS2
 15939 5ac9 00       		.byte	0
 15940 5aca 00       		.byte	0
 15941 5acb 00       		.byte	0
 15942 5acc 00       		.byte	0
 15943 5acd 36       		.uleb128 0x36
 15944 5ace 9E5C0000 		.4byte	0x5c9e
 15945 5ad2 68000000 		.4byte	.LBI325
 15946 5ad6 0100     		.2byte	.LVU56
 15947 5ad8 30000000 		.4byte	.Ldebug_ranges0+0x30
 15948 5adc 01       		.byte	0x1
 15949 5add 3D01     		.2byte	0x13d
 15950 5adf 03       		.byte	0x3
 15951 5ae0 385B0000 		.4byte	0x5b38
 15952 5ae4 37       		.uleb128 0x37
 15953 5ae5 C65C0000 		.4byte	0x5cc6
 15954 5ae9 68000000 		.4byte	.LBI326
 15955 5aed 0300     		.2byte	.LVU58
 15956 5aef 38000000 		.4byte	.Ldebug_ranges0+0x38
 15957 5af3 02       		.byte	0x2
 15958 5af4 0A02     		.2byte	0x20a
 15959 5af6 03       		.byte	0x3
 15960 5af7 43       		.uleb128 0x43
 15961 5af8 38000000 		.4byte	.Ldebug_ranges0+0x38
 15962 5afc 37       		.uleb128 0x37
 15963 5afd FC5C0000 		.4byte	0x5cfc
 15964 5b01 68000000 		.4byte	.LBI328
 15965 5b05 0900     		.2byte	.LVU64
 15966 5b07 38000000 		.4byte	.Ldebug_ranges0+0x38
 15967 5b0b 03       		.byte	0x3
 15968 5b0c 7A01     		.2byte	0x17a
 15969 5b0e 03       		.byte	0x3
 15970 5b0f 3E       		.uleb128 0x3e
 15971 5b10 105D0000 		.4byte	0x5d10
 15972 5b14 68000000 		.4byte	.LBI329
 15973 5b18 0B00     		.2byte	.LVU66
 15974 5b1a 68000000 		.4byte	.LBB329
 15975 5b1e 04000000 		.4byte	.LBE329-.LBB329
 15976 5b22 04       		.byte	0x4
 15977 5b23 B802     		.2byte	0x2b8
 15978 5b25 03       		.byte	0x3
 15979 5b26 38       		.uleb128 0x38
 15980 5b27 1E5D0000 		.4byte	0x5d1e
 15981 5b2b 8D130000 		.4byte	.LLST3
 15982 5b2f 8B130000 		.4byte	.LVUS3
 15983 5b33 00       		.byte	0
 15984 5b34 00       		.byte	0
 15985 5b35 00       		.byte	0
 15986 5b36 00       		.byte	0
 15987 5b37 00       		.byte	0
 15988 5b38 3C       		.uleb128 0x3c
 15989 5b39 64000000 		.4byte	.LVL7
ARM GAS  /tmp/ccpnbTSa.s 			page 282


 15990 5b3d DF5E0000 		.4byte	0x5edf
 15991 5b41 3D       		.uleb128 0x3d
 15992 5b42 01       		.uleb128 0x1
 15993 5b43 50       		.byte	0x50
 15994 5b44 02       		.uleb128 0x2
 15995 5b45 75       		.byte	0x75
 15996 5b46 00       		.sleb128 0
 15997 5b47 00       		.byte	0
 15998 5b48 00       		.byte	0
 15999 5b49 09       		.uleb128 0x9
 16000 5b4a 86060000 		.4byte	0x686
 16001 5b4e 595B0000 		.4byte	0x5b59
 16002 5b52 0A       		.uleb128 0xa
 16003 5b53 3D000000 		.4byte	0x3d
 16004 5b57 08       		.byte	0x8
 16005 5b58 00       		.byte	0
 16006 5b59 15       		.uleb128 0x15
 16007 5b5a 495B0000 		.4byte	0x5b49
 16008 5b5e 32       		.uleb128 0x32
 16009 5b5f BC130000 		.4byte	.LASF789
 16010 5b63 01       		.byte	0x1
 16011 5b64 1A01     		.2byte	0x11a
 16012 5b66 06       		.byte	0x6
 16013 5b67 10000000 		.4byte	.LFB366
 16014 5b6b 24000000 		.4byte	.LFE366-.LFB366
 16015 5b6f 01       		.uleb128 0x1
 16016 5b70 9C       		.byte	0x9c
 16017 5b71 905B0000 		.4byte	0x5b90
 16018 5b75 51       		.uleb128 0x51
 16019 5b76 2D1E0000 		.4byte	.LASF769
 16020 5b7a 01       		.byte	0x1
 16021 5b7b 1A01     		.2byte	0x11a
 16022 5b7d 1F       		.byte	0x1f
 16023 5b7e 91330000 		.4byte	0x3391
 16024 5b82 01       		.uleb128 0x1
 16025 5b83 50       		.byte	0x50
 16026 5b84 4A       		.uleb128 0x4a
 16027 5b85 6900     		.ascii	"i\000"
 16028 5b87 01       		.byte	0x1
 16029 5b88 1B01     		.2byte	0x11b
 16030 5b8a 0C       		.byte	0xc
 16031 5b8b 3D000000 		.4byte	0x3d
 16032 5b8f 00       		.byte	0
 16033 5b90 32       		.uleb128 0x32
 16034 5b91 2F0E0000 		.4byte	.LASF790
 16035 5b95 01       		.byte	0x1
 16036 5b96 0E01     		.2byte	0x10e
 16037 5b98 06       		.byte	0x6
 16038 5b99 00000000 		.4byte	.LFB365
 16039 5b9d 04000000 		.4byte	.LFE365-.LFB365
 16040 5ba1 01       		.uleb128 0x1
 16041 5ba2 9C       		.byte	0x9c
 16042 5ba3 B15B0000 		.4byte	0x5bb1
 16043 5ba7 50       		.uleb128 0x50
 16044 5ba8 04000000 		.4byte	.LVL0
 16045 5bac EC5E0000 		.4byte	0x5eec
 16046 5bb0 00       		.byte	0
ARM GAS  /tmp/ccpnbTSa.s 			page 283


 16047 5bb1 52       		.uleb128 0x52
 16048 5bb2 9F170000 		.4byte	.LASF791
 16049 5bb6 01       		.byte	0x1
 16050 5bb7 54       		.byte	0x54
 16051 5bb8 0D       		.byte	0xd
 16052 5bb9 8B1C0000 		.4byte	0x1c8b
 16053 5bbd 01       		.byte	0x1
 16054 5bbe DA5B0000 		.4byte	0x5bda
 16055 5bc2 53       		.uleb128 0x53
 16056 5bc3 2D1E0000 		.4byte	.LASF769
 16057 5bc7 01       		.byte	0x1
 16058 5bc8 54       		.byte	0x54
 16059 5bc9 28       		.byte	0x28
 16060 5bca 91330000 		.4byte	0x3391
 16061 5bce 54       		.uleb128 0x54
 16062 5bcf 647000   		.ascii	"dp\000"
 16063 5bd2 01       		.byte	0x1
 16064 5bd3 55       		.byte	0x55
 16065 5bd4 18       		.byte	0x18
 16066 5bd5 30340000 		.4byte	0x3430
 16067 5bd9 00       		.byte	0
 16068 5bda 55       		.uleb128 0x55
 16069 5bdb A4190000 		.4byte	.LASF793
 16070 5bdf 01       		.byte	0x1
 16071 5be0 40       		.byte	0x40
 16072 5be1 0D       		.byte	0xd
 16073 5be2 01       		.byte	0x1
 16074 5be3 F45B0000 		.4byte	0x5bf4
 16075 5be7 53       		.uleb128 0x53
 16076 5be8 2D1E0000 		.4byte	.LASF769
 16077 5bec 01       		.byte	0x1
 16078 5bed 40       		.byte	0x40
 16079 5bee 24       		.byte	0x24
 16080 5bef 91330000 		.4byte	0x3391
 16081 5bf3 00       		.byte	0
 16082 5bf4 52       		.uleb128 0x52
 16083 5bf5 090F0000 		.4byte	.LASF792
 16084 5bf9 01       		.byte	0x1
 16085 5bfa 33       		.byte	0x33
 16086 5bfb 11       		.byte	0x11
 16087 5bfc 77090000 		.4byte	0x977
 16088 5c00 01       		.byte	0x1
 16089 5c01 1B5C0000 		.4byte	0x5c1b
 16090 5c05 56       		.uleb128 0x56
 16091 5c06 7000     		.ascii	"p\000"
 16092 5c08 01       		.byte	0x1
 16093 5c09 33       		.byte	0x33
 16094 5c0a 24       		.byte	0x24
 16095 5c0b DC1C0000 		.4byte	0x1cdc
 16096 5c0f 54       		.uleb128 0x54
 16097 5c10 687700   		.ascii	"hw\000"
 16098 5c13 01       		.byte	0x1
 16099 5c14 34       		.byte	0x34
 16100 5c15 0C       		.byte	0xc
 16101 5c16 77090000 		.4byte	0x977
 16102 5c1a 00       		.byte	0
 16103 5c1b 57       		.uleb128 0x57
ARM GAS  /tmp/ccpnbTSa.s 			page 284


 16104 5c1c 6C040000 		.4byte	.LASF794
 16105 5c20 02       		.byte	0x2
 16106 5c21 0503     		.2byte	0x305
 16107 5c23 14       		.byte	0x14
 16108 5c24 03       		.byte	0x3
 16109 5c25 445C0000 		.4byte	0x5c44
 16110 5c29 4E       		.uleb128 0x4e
 16111 5c2a 74727000 		.ascii	"trp\000"
 16112 5c2e 02       		.byte	0x2
 16113 5c2f 0503     		.2byte	0x305
 16114 5c31 3A       		.byte	0x3a
 16115 5c32 311A0000 		.4byte	0x1a31
 16116 5c36 4E       		.uleb128 0x4e
 16117 5c37 6D736700 		.ascii	"msg\000"
 16118 5c3b 02       		.byte	0x2
 16119 5c3c 0503     		.2byte	0x305
 16120 5c3e 45       		.byte	0x45
 16121 5c3f FE090000 		.4byte	0x9fe
 16122 5c43 00       		.byte	0
 16123 5c44 58       		.uleb128 0x58
 16124 5c45 AE0C0000 		.4byte	.LASF795
 16125 5c49 02       		.byte	0x2
 16126 5c4a DD02     		.2byte	0x2dd
 16127 5c4c 15       		.byte	0x15
 16128 5c4d FE090000 		.4byte	0x9fe
 16129 5c51 03       		.byte	0x3
 16130 5c52 645C0000 		.4byte	0x5c64
 16131 5c56 4E       		.uleb128 0x4e
 16132 5c57 74727000 		.ascii	"trp\000"
 16133 5c5b 02       		.byte	0x2
 16134 5c5c DD02     		.2byte	0x2dd
 16135 5c5e 3C       		.byte	0x3c
 16136 5c5f 311A0000 		.4byte	0x1a31
 16137 5c63 00       		.byte	0
 16138 5c64 57       		.uleb128 0x57
 16139 5c65 0A040000 		.4byte	.LASF796
 16140 5c69 02       		.byte	0x2
 16141 5c6a CE02     		.2byte	0x2ce
 16142 5c6c 14       		.byte	0x14
 16143 5c6d 03       		.byte	0x3
 16144 5c6e 805C0000 		.4byte	0x5c80
 16145 5c72 4D       		.uleb128 0x4d
 16146 5c73 D3200000 		.4byte	.LASF797
 16147 5c77 02       		.byte	0x2
 16148 5c78 CE02     		.2byte	0x2ce
 16149 5c7a 32       		.byte	0x32
 16150 5c7b 8A0D0000 		.4byte	0xd8a
 16151 5c7f 00       		.byte	0
 16152 5c80 59       		.uleb128 0x59
 16153 5c81 161B0000 		.4byte	.LASF798
 16154 5c85 02       		.byte	0x2
 16155 5c86 6802     		.2byte	0x268
 16156 5c88 14       		.byte	0x14
 16157 5c89 03       		.byte	0x3
 16158 5c8a 59       		.uleb128 0x59
 16159 5c8b 13060000 		.4byte	.LASF799
 16160 5c8f 02       		.byte	0x2
ARM GAS  /tmp/ccpnbTSa.s 			page 285


 16161 5c90 1E02     		.2byte	0x21e
 16162 5c92 14       		.byte	0x14
 16163 5c93 03       		.byte	0x3
 16164 5c94 59       		.uleb128 0x59
 16165 5c95 49160000 		.4byte	.LASF800
 16166 5c99 02       		.byte	0x2
 16167 5c9a 1302     		.2byte	0x213
 16168 5c9c 14       		.byte	0x14
 16169 5c9d 03       		.byte	0x3
 16170 5c9e 59       		.uleb128 0x59
 16171 5c9f 8E010000 		.4byte	.LASF801
 16172 5ca3 02       		.byte	0x2
 16173 5ca4 0802     		.2byte	0x208
 16174 5ca6 14       		.byte	0x14
 16175 5ca7 03       		.byte	0x3
 16176 5ca8 59       		.uleb128 0x59
 16177 5ca9 A5180000 		.4byte	.LASF802
 16178 5cad 02       		.byte	0x2
 16179 5cae FD01     		.2byte	0x1fd
 16180 5cb0 14       		.byte	0x14
 16181 5cb1 03       		.byte	0x3
 16182 5cb2 59       		.uleb128 0x59
 16183 5cb3 4C170000 		.4byte	.LASF803
 16184 5cb7 03       		.byte	0x3
 16185 5cb8 9D01     		.2byte	0x19d
 16186 5cba 14       		.byte	0x14
 16187 5cbb 03       		.byte	0x3
 16188 5cbc 59       		.uleb128 0x59
 16189 5cbd 761E0000 		.4byte	.LASF804
 16190 5cc1 03       		.byte	0x3
 16191 5cc2 8901     		.2byte	0x189
 16192 5cc4 14       		.byte	0x14
 16193 5cc5 03       		.byte	0x3
 16194 5cc6 57       		.uleb128 0x57
 16195 5cc7 411C0000 		.4byte	.LASF805
 16196 5ccb 03       		.byte	0x3
 16197 5ccc 6D01     		.2byte	0x16d
 16198 5cce 14       		.byte	0x14
 16199 5ccf 03       		.byte	0x3
 16200 5cd0 DE5C0000 		.4byte	0x5cde
 16201 5cd4 35       		.uleb128 0x35
 16202 5cd5 91000000 		.4byte	.LASF772
 16203 5cd9 B43F0000 		.4byte	0x3fb4
 16204 5cdd 00       		.byte	0
 16205 5cde 59       		.uleb128 0x59
 16206 5cdf D7140000 		.4byte	.LASF806
 16207 5ce3 03       		.byte	0x3
 16208 5ce4 6101     		.2byte	0x161
 16209 5ce6 14       		.byte	0x14
 16210 5ce7 03       		.byte	0x3
 16211 5ce8 59       		.uleb128 0x59
 16212 5ce9 BC000000 		.4byte	.LASF807
 16213 5ced 04       		.byte	0x4
 16214 5cee CF02     		.2byte	0x2cf
 16215 5cf0 1B       		.byte	0x1b
 16216 5cf1 03       		.byte	0x3
 16217 5cf2 59       		.uleb128 0x59
ARM GAS  /tmp/ccpnbTSa.s 			page 286


 16218 5cf3 7F110000 		.4byte	.LASF808
 16219 5cf7 04       		.byte	0x4
 16220 5cf8 C402     		.2byte	0x2c4
 16221 5cfa 1B       		.byte	0x1b
 16222 5cfb 03       		.byte	0x3
 16223 5cfc 59       		.uleb128 0x59
 16224 5cfd A0140000 		.4byte	.LASF809
 16225 5d01 04       		.byte	0x4
 16226 5d02 B502     		.2byte	0x2b5
 16227 5d04 1B       		.byte	0x1b
 16228 5d05 03       		.byte	0x3
 16229 5d06 59       		.uleb128 0x59
 16230 5d07 70160000 		.4byte	.LASF810
 16231 5d0b 04       		.byte	0x4
 16232 5d0c 9D02     		.2byte	0x29d
 16233 5d0e 1B       		.byte	0x1b
 16234 5d0f 03       		.byte	0x3
 16235 5d10 57       		.uleb128 0x57
 16236 5d11 411F0000 		.4byte	.LASF811
 16237 5d15 05       		.byte	0x5
 16238 5d16 EB01     		.2byte	0x1eb
 16239 5d18 1B       		.byte	0x1b
 16240 5d19 03       		.byte	0x3
 16241 5d1a 2C5D0000 		.4byte	0x5d2c
 16242 5d1e 4D       		.uleb128 0x4d
 16243 5d1f B6020000 		.4byte	.LASF812
 16244 5d23 05       		.byte	0x5
 16245 5d24 EB01     		.2byte	0x1eb
 16246 5d26 32       		.byte	0x32
 16247 5d27 94090000 		.4byte	0x994
 16248 5d2b 00       		.byte	0
 16249 5d2c 5A       		.uleb128 0x5a
 16250 5d2d 93560000 		.4byte	0x5693
 16251 5d31 60010000 		.4byte	.LFB371
 16252 5d35 2C000000 		.4byte	.LFE371-.LFB371
 16253 5d39 01       		.uleb128 0x1
 16254 5d3a 9C       		.byte	0x9c
 16255 5d3b 925D0000 		.4byte	0x5d92
 16256 5d3f 38       		.uleb128 0x38
 16257 5d40 A1560000 		.4byte	0x56a1
 16258 5d44 A5130000 		.4byte	.LLST19
 16259 5d48 A1130000 		.4byte	.LVUS19
 16260 5d4c 38       		.uleb128 0x38
 16261 5d4d AE560000 		.4byte	0x56ae
 16262 5d51 CA130000 		.4byte	.LLST20
 16263 5d55 C6130000 		.4byte	.LVUS20
 16264 5d59 38       		.uleb128 0x38
 16265 5d5a BA560000 		.4byte	0x56ba
 16266 5d5e EF130000 		.4byte	.LLST21
 16267 5d62 EB130000 		.4byte	.LVUS21
 16268 5d66 38       		.uleb128 0x38
 16269 5d67 C7560000 		.4byte	0x56c7
 16270 5d6b 14140000 		.4byte	.LLST22
 16271 5d6f 10140000 		.4byte	.LVUS22
 16272 5d73 3B       		.uleb128 0x3b
 16273 5d74 D2560000 		.4byte	0x56d2
 16274 5d78 39140000 		.4byte	.LLST23
ARM GAS  /tmp/ccpnbTSa.s 			page 287


 16275 5d7c 35140000 		.4byte	.LVUS23
 16276 5d80 4F       		.uleb128 0x4f
 16277 5d81 8C010000 		.4byte	.LVL38
 16278 5d85 1F5E0000 		.4byte	0x5e1f
 16279 5d89 3D       		.uleb128 0x3d
 16280 5d8a 01       		.uleb128 0x1
 16281 5d8b 50       		.byte	0x50
 16282 5d8c 03       		.uleb128 0x3
 16283 5d8d F3       		.byte	0xf3
 16284 5d8e 01       		.uleb128 0x1
 16285 5d8f 50       		.byte	0x50
 16286 5d90 00       		.byte	0
 16287 5d91 00       		.byte	0
 16288 5d92 5A       		.uleb128 0x5a
 16289 5d93 3D560000 		.4byte	0x563d
 16290 5d97 90010000 		.4byte	.LFB372
 16291 5d9b 2C000000 		.4byte	.LFE372-.LFB372
 16292 5d9f 01       		.uleb128 0x1
 16293 5da0 9C       		.byte	0x9c
 16294 5da1 F85D0000 		.4byte	0x5df8
 16295 5da5 38       		.uleb128 0x38
 16296 5da6 4B560000 		.4byte	0x564b
 16297 5daa 66140000 		.4byte	.LLST24
 16298 5dae 62140000 		.4byte	.LVUS24
 16299 5db2 38       		.uleb128 0x38
 16300 5db3 58560000 		.4byte	0x5658
 16301 5db7 8B140000 		.4byte	.LLST25
 16302 5dbb 87140000 		.4byte	.LVUS25
 16303 5dbf 38       		.uleb128 0x38
 16304 5dc0 64560000 		.4byte	0x5664
 16305 5dc4 B0140000 		.4byte	.LLST26
 16306 5dc8 AC140000 		.4byte	.LVUS26
 16307 5dcc 38       		.uleb128 0x38
 16308 5dcd 71560000 		.4byte	0x5671
 16309 5dd1 D5140000 		.4byte	.LLST27
 16310 5dd5 D1140000 		.4byte	.LVUS27
 16311 5dd9 3B       		.uleb128 0x3b
 16312 5dda 7C560000 		.4byte	0x567c
 16313 5dde FA140000 		.4byte	.LLST28
 16314 5de2 F6140000 		.4byte	.LVUS28
 16315 5de6 4F       		.uleb128 0x4f
 16316 5de7 BC010000 		.4byte	.LVL42
 16317 5deb F85D0000 		.4byte	0x5df8
 16318 5def 3D       		.uleb128 0x3d
 16319 5df0 01       		.uleb128 0x1
 16320 5df1 50       		.byte	0x50
 16321 5df2 03       		.uleb128 0x3
 16322 5df3 F3       		.byte	0xf3
 16323 5df4 01       		.uleb128 0x1
 16324 5df5 50       		.byte	0x50
 16325 5df6 00       		.byte	0
 16326 5df7 00       		.byte	0
 16327 5df8 5B       		.uleb128 0x5b
 16328 5df9 BE050000 		.4byte	.LASF813
 16329 5dfd BE050000 		.4byte	.LASF813
 16330 5e01 34       		.byte	0x34
 16331 5e02 4F02     		.2byte	0x24f
ARM GAS  /tmp/ccpnbTSa.s 			page 288


 16332 5e04 08       		.byte	0x8
 16333 5e05 5B       		.uleb128 0x5b
 16334 5e06 BB0E0000 		.4byte	.LASF814
 16335 5e0a BB0E0000 		.4byte	.LASF814
 16336 5e0e 34       		.byte	0x34
 16337 5e0f 5102     		.2byte	0x251
 16338 5e11 08       		.byte	0x8
 16339 5e12 5B       		.uleb128 0x5b
 16340 5e13 AD210000 		.4byte	.LASF815
 16341 5e17 AD210000 		.4byte	.LASF815
 16342 5e1b 34       		.byte	0x34
 16343 5e1c 5002     		.2byte	0x250
 16344 5e1e 08       		.byte	0x8
 16345 5e1f 5B       		.uleb128 0x5b
 16346 5e20 AD090000 		.4byte	.LASF816
 16347 5e24 AD090000 		.4byte	.LASF816
 16348 5e28 34       		.byte	0x34
 16349 5e29 4E02     		.2byte	0x24e
 16350 5e2b 08       		.byte	0x8
 16351 5e2c 5B       		.uleb128 0x5b
 16352 5e2d 5C0C0000 		.4byte	.LASF817
 16353 5e31 5C0C0000 		.4byte	.LASF817
 16354 5e35 34       		.byte	0x34
 16355 5e36 4802     		.2byte	0x248
 16356 5e38 08       		.byte	0x8
 16357 5e39 5B       		.uleb128 0x5b
 16358 5e3a 2E1D0000 		.4byte	.LASF818
 16359 5e3e 2E1D0000 		.4byte	.LASF818
 16360 5e42 34       		.byte	0x34
 16361 5e43 4C02     		.2byte	0x24c
 16362 5e45 11       		.byte	0x11
 16363 5e46 5B       		.uleb128 0x5b
 16364 5e47 561E0000 		.4byte	.LASF819
 16365 5e4b 561E0000 		.4byte	.LASF819
 16366 5e4f 34       		.byte	0x34
 16367 5e50 5202     		.2byte	0x252
 16368 5e52 08       		.byte	0x8
 16369 5e53 5B       		.uleb128 0x5b
 16370 5e54 22120000 		.4byte	.LASF820
 16371 5e58 22120000 		.4byte	.LASF820
 16372 5e5c 34       		.byte	0x34
 16373 5e5d 4B02     		.2byte	0x24b
 16374 5e5f 11       		.byte	0x11
 16375 5e60 5B       		.uleb128 0x5b
 16376 5e61 B90A0000 		.4byte	.LASF821
 16377 5e65 B90A0000 		.4byte	.LASF821
 16378 5e69 34       		.byte	0x34
 16379 5e6a 5302     		.2byte	0x253
 16380 5e6c 08       		.byte	0x8
 16381 5e6d 5B       		.uleb128 0x5b
 16382 5e6e 9A090000 		.4byte	.LASF822
 16383 5e72 9A090000 		.4byte	.LASF822
 16384 5e76 34       		.byte	0x34
 16385 5e77 4D02     		.2byte	0x24d
 16386 5e79 08       		.byte	0x8
 16387 5e7a 5C       		.uleb128 0x5c
 16388 5e7b 8D070000 		.4byte	.LASF823
ARM GAS  /tmp/ccpnbTSa.s 			page 289


 16389 5e7f 8D070000 		.4byte	.LASF823
 16390 5e83 38       		.byte	0x38
 16391 5e84 F7       		.byte	0xf7
 16392 5e85 08       		.byte	0x8
 16393 5e86 5B       		.uleb128 0x5b
 16394 5e87 F1110000 		.4byte	.LASF824
 16395 5e8b F1110000 		.4byte	.LASF824
 16396 5e8f 34       		.byte	0x34
 16397 5e90 4702     		.2byte	0x247
 16398 5e92 08       		.byte	0x8
 16399 5e93 5C       		.uleb128 0x5c
 16400 5e94 D61B0000 		.4byte	.LASF825
 16401 5e98 D61B0000 		.4byte	.LASF825
 16402 5e9c 38       		.byte	0x38
 16403 5e9d FD       		.byte	0xfd
 16404 5e9e 08       		.byte	0x8
 16405 5e9f 5C       		.uleb128 0x5c
 16406 5ea0 FA0C0000 		.4byte	.LASF826
 16407 5ea4 FA0C0000 		.4byte	.LASF826
 16408 5ea8 38       		.byte	0x38
 16409 5ea9 F6       		.byte	0xf6
 16410 5eaa 09       		.byte	0x9
 16411 5eab 5B       		.uleb128 0x5b
 16412 5eac EF080000 		.4byte	.LASF827
 16413 5eb0 EF080000 		.4byte	.LASF827
 16414 5eb4 34       		.byte	0x34
 16415 5eb5 4A02     		.2byte	0x24a
 16416 5eb7 08       		.byte	0x8
 16417 5eb8 5B       		.uleb128 0x5b
 16418 5eb9 E21E0000 		.4byte	.LASF828
 16419 5ebd E21E0000 		.4byte	.LASF828
 16420 5ec1 34       		.byte	0x34
 16421 5ec2 4902     		.2byte	0x249
 16422 5ec4 08       		.byte	0x8
 16423 5ec5 5B       		.uleb128 0x5b
 16424 5ec6 BD160000 		.4byte	.LASF829
 16425 5eca BD160000 		.4byte	.LASF829
 16426 5ece 0F       		.byte	0xf
 16427 5ecf D601     		.2byte	0x1d6
 16428 5ed1 08       		.byte	0x8
 16429 5ed2 5B       		.uleb128 0x5b
 16430 5ed3 07030000 		.4byte	.LASF830
 16431 5ed7 07030000 		.4byte	.LASF830
 16432 5edb 34       		.byte	0x34
 16433 5edc 4602     		.2byte	0x246
 16434 5ede 08       		.byte	0x8
 16435 5edf 5B       		.uleb128 0x5b
 16436 5ee0 8D0C0000 		.4byte	.LASF831
 16437 5ee4 8D0C0000 		.4byte	.LASF831
 16438 5ee8 34       		.byte	0x34
 16439 5ee9 4502     		.2byte	0x245
 16440 5eeb 08       		.byte	0x8
 16441 5eec 5B       		.uleb128 0x5b
 16442 5eed E1130000 		.4byte	.LASF832
 16443 5ef1 E1130000 		.4byte	.LASF832
 16444 5ef5 34       		.byte	0x34
 16445 5ef6 4402     		.2byte	0x244
ARM GAS  /tmp/ccpnbTSa.s 			page 290


 16446 5ef8 08       		.byte	0x8
 16447 5ef9 00       		.byte	0
 16448              		.section	.debug_abbrev,"",%progbits
 16449              	.Ldebug_abbrev0:
 16450 0000 01       		.uleb128 0x1
 16451 0001 11       		.uleb128 0x11
 16452 0002 01       		.byte	0x1
 16453 0003 25       		.uleb128 0x25
 16454 0004 0E       		.uleb128 0xe
 16455 0005 13       		.uleb128 0x13
 16456 0006 0B       		.uleb128 0xb
 16457 0007 03       		.uleb128 0x3
 16458 0008 0E       		.uleb128 0xe
 16459 0009 1B       		.uleb128 0x1b
 16460 000a 0E       		.uleb128 0xe
 16461 000b 11       		.uleb128 0x11
 16462 000c 01       		.uleb128 0x1
 16463 000d 12       		.uleb128 0x12
 16464 000e 06       		.uleb128 0x6
 16465 000f 10       		.uleb128 0x10
 16466 0010 17       		.uleb128 0x17
 16467 0011 00       		.byte	0
 16468 0012 00       		.byte	0
 16469 0013 02       		.uleb128 0x2
 16470 0014 24       		.uleb128 0x24
 16471 0015 00       		.byte	0
 16472 0016 0B       		.uleb128 0xb
 16473 0017 0B       		.uleb128 0xb
 16474 0018 3E       		.uleb128 0x3e
 16475 0019 0B       		.uleb128 0xb
 16476 001a 03       		.uleb128 0x3
 16477 001b 08       		.uleb128 0x8
 16478 001c 00       		.byte	0
 16479 001d 00       		.byte	0
 16480 001e 03       		.uleb128 0x3
 16481 001f 16       		.uleb128 0x16
 16482 0020 00       		.byte	0
 16483 0021 03       		.uleb128 0x3
 16484 0022 0E       		.uleb128 0xe
 16485 0023 3A       		.uleb128 0x3a
 16486 0024 0B       		.uleb128 0xb
 16487 0025 3B       		.uleb128 0x3b
 16488 0026 0B       		.uleb128 0xb
 16489 0027 39       		.uleb128 0x39
 16490 0028 0B       		.uleb128 0xb
 16491 0029 49       		.uleb128 0x49
 16492 002a 13       		.uleb128 0x13
 16493 002b 00       		.byte	0
 16494 002c 00       		.byte	0
 16495 002d 04       		.uleb128 0x4
 16496 002e 35       		.uleb128 0x35
 16497 002f 00       		.byte	0
 16498 0030 49       		.uleb128 0x49
 16499 0031 13       		.uleb128 0x13
 16500 0032 00       		.byte	0
 16501 0033 00       		.byte	0
 16502 0034 05       		.uleb128 0x5
ARM GAS  /tmp/ccpnbTSa.s 			page 291


 16503 0035 24       		.uleb128 0x24
 16504 0036 00       		.byte	0
 16505 0037 0B       		.uleb128 0xb
 16506 0038 0B       		.uleb128 0xb
 16507 0039 3E       		.uleb128 0x3e
 16508 003a 0B       		.uleb128 0xb
 16509 003b 03       		.uleb128 0x3
 16510 003c 0E       		.uleb128 0xe
 16511 003d 00       		.byte	0
 16512 003e 00       		.byte	0
 16513 003f 06       		.uleb128 0x6
 16514 0040 16       		.uleb128 0x16
 16515 0041 00       		.byte	0
 16516 0042 03       		.uleb128 0x3
 16517 0043 0E       		.uleb128 0xe
 16518 0044 3A       		.uleb128 0x3a
 16519 0045 0B       		.uleb128 0xb
 16520 0046 3B       		.uleb128 0x3b
 16521 0047 05       		.uleb128 0x5
 16522 0048 39       		.uleb128 0x39
 16523 0049 0B       		.uleb128 0xb
 16524 004a 49       		.uleb128 0x49
 16525 004b 13       		.uleb128 0x13
 16526 004c 00       		.byte	0
 16527 004d 00       		.byte	0
 16528 004e 07       		.uleb128 0x7
 16529 004f 17       		.uleb128 0x17
 16530 0050 01       		.byte	0x1
 16531 0051 0B       		.uleb128 0xb
 16532 0052 0B       		.uleb128 0xb
 16533 0053 3A       		.uleb128 0x3a
 16534 0054 0B       		.uleb128 0xb
 16535 0055 3B       		.uleb128 0x3b
 16536 0056 0B       		.uleb128 0xb
 16537 0057 39       		.uleb128 0x39
 16538 0058 0B       		.uleb128 0xb
 16539 0059 01       		.uleb128 0x1
 16540 005a 13       		.uleb128 0x13
 16541 005b 00       		.byte	0
 16542 005c 00       		.byte	0
 16543 005d 08       		.uleb128 0x8
 16544 005e 0D       		.uleb128 0xd
 16545 005f 00       		.byte	0
 16546 0060 03       		.uleb128 0x3
 16547 0061 0E       		.uleb128 0xe
 16548 0062 3A       		.uleb128 0x3a
 16549 0063 0B       		.uleb128 0xb
 16550 0064 3B       		.uleb128 0x3b
 16551 0065 0B       		.uleb128 0xb
 16552 0066 39       		.uleb128 0x39
 16553 0067 0B       		.uleb128 0xb
 16554 0068 49       		.uleb128 0x49
 16555 0069 13       		.uleb128 0x13
 16556 006a 00       		.byte	0
 16557 006b 00       		.byte	0
 16558 006c 09       		.uleb128 0x9
 16559 006d 01       		.uleb128 0x1
ARM GAS  /tmp/ccpnbTSa.s 			page 292


 16560 006e 01       		.byte	0x1
 16561 006f 49       		.uleb128 0x49
 16562 0070 13       		.uleb128 0x13
 16563 0071 01       		.uleb128 0x1
 16564 0072 13       		.uleb128 0x13
 16565 0073 00       		.byte	0
 16566 0074 00       		.byte	0
 16567 0075 0A       		.uleb128 0xa
 16568 0076 21       		.uleb128 0x21
 16569 0077 00       		.byte	0
 16570 0078 49       		.uleb128 0x49
 16571 0079 13       		.uleb128 0x13
 16572 007a 2F       		.uleb128 0x2f
 16573 007b 0B       		.uleb128 0xb
 16574 007c 00       		.byte	0
 16575 007d 00       		.byte	0
 16576 007e 0B       		.uleb128 0xb
 16577 007f 13       		.uleb128 0x13
 16578 0080 01       		.byte	0x1
 16579 0081 0B       		.uleb128 0xb
 16580 0082 0B       		.uleb128 0xb
 16581 0083 3A       		.uleb128 0x3a
 16582 0084 0B       		.uleb128 0xb
 16583 0085 3B       		.uleb128 0x3b
 16584 0086 0B       		.uleb128 0xb
 16585 0087 39       		.uleb128 0x39
 16586 0088 0B       		.uleb128 0xb
 16587 0089 01       		.uleb128 0x1
 16588 008a 13       		.uleb128 0x13
 16589 008b 00       		.byte	0
 16590 008c 00       		.byte	0
 16591 008d 0C       		.uleb128 0xc
 16592 008e 0D       		.uleb128 0xd
 16593 008f 00       		.byte	0
 16594 0090 03       		.uleb128 0x3
 16595 0091 0E       		.uleb128 0xe
 16596 0092 3A       		.uleb128 0x3a
 16597 0093 0B       		.uleb128 0xb
 16598 0094 3B       		.uleb128 0x3b
 16599 0095 0B       		.uleb128 0xb
 16600 0096 39       		.uleb128 0x39
 16601 0097 0B       		.uleb128 0xb
 16602 0098 49       		.uleb128 0x49
 16603 0099 13       		.uleb128 0x13
 16604 009a 38       		.uleb128 0x38
 16605 009b 0B       		.uleb128 0xb
 16606 009c 00       		.byte	0
 16607 009d 00       		.byte	0
 16608 009e 0D       		.uleb128 0xd
 16609 009f 0F       		.uleb128 0xf
 16610 00a0 00       		.byte	0
 16611 00a1 0B       		.uleb128 0xb
 16612 00a2 0B       		.uleb128 0xb
 16613 00a3 00       		.byte	0
 16614 00a4 00       		.byte	0
 16615 00a5 0E       		.uleb128 0xe
 16616 00a6 0F       		.uleb128 0xf
ARM GAS  /tmp/ccpnbTSa.s 			page 293


 16617 00a7 00       		.byte	0
 16618 00a8 0B       		.uleb128 0xb
 16619 00a9 0B       		.uleb128 0xb
 16620 00aa 49       		.uleb128 0x49
 16621 00ab 13       		.uleb128 0x13
 16622 00ac 00       		.byte	0
 16623 00ad 00       		.byte	0
 16624 00ae 0F       		.uleb128 0xf
 16625 00af 13       		.uleb128 0x13
 16626 00b0 00       		.byte	0
 16627 00b1 03       		.uleb128 0x3
 16628 00b2 0E       		.uleb128 0xe
 16629 00b3 3C       		.uleb128 0x3c
 16630 00b4 19       		.uleb128 0x19
 16631 00b5 00       		.byte	0
 16632 00b6 00       		.byte	0
 16633 00b7 10       		.uleb128 0x10
 16634 00b8 13       		.uleb128 0x13
 16635 00b9 01       		.byte	0x1
 16636 00ba 03       		.uleb128 0x3
 16637 00bb 0E       		.uleb128 0xe
 16638 00bc 0B       		.uleb128 0xb
 16639 00bd 0B       		.uleb128 0xb
 16640 00be 3A       		.uleb128 0x3a
 16641 00bf 0B       		.uleb128 0xb
 16642 00c0 3B       		.uleb128 0x3b
 16643 00c1 0B       		.uleb128 0xb
 16644 00c2 39       		.uleb128 0x39
 16645 00c3 0B       		.uleb128 0xb
 16646 00c4 01       		.uleb128 0x1
 16647 00c5 13       		.uleb128 0x13
 16648 00c6 00       		.byte	0
 16649 00c7 00       		.byte	0
 16650 00c8 11       		.uleb128 0x11
 16651 00c9 0D       		.uleb128 0xd
 16652 00ca 00       		.byte	0
 16653 00cb 03       		.uleb128 0x3
 16654 00cc 08       		.uleb128 0x8
 16655 00cd 3A       		.uleb128 0x3a
 16656 00ce 0B       		.uleb128 0xb
 16657 00cf 3B       		.uleb128 0x3b
 16658 00d0 0B       		.uleb128 0xb
 16659 00d1 39       		.uleb128 0x39
 16660 00d2 0B       		.uleb128 0xb
 16661 00d3 49       		.uleb128 0x49
 16662 00d4 13       		.uleb128 0x13
 16663 00d5 38       		.uleb128 0x38
 16664 00d6 0B       		.uleb128 0xb
 16665 00d7 00       		.byte	0
 16666 00d8 00       		.byte	0
 16667 00d9 12       		.uleb128 0x12
 16668 00da 13       		.uleb128 0x13
 16669 00db 01       		.byte	0x1
 16670 00dc 03       		.uleb128 0x3
 16671 00dd 0E       		.uleb128 0xe
 16672 00de 0B       		.uleb128 0xb
 16673 00df 05       		.uleb128 0x5
ARM GAS  /tmp/ccpnbTSa.s 			page 294


 16674 00e0 3A       		.uleb128 0x3a
 16675 00e1 0B       		.uleb128 0xb
 16676 00e2 3B       		.uleb128 0x3b
 16677 00e3 0B       		.uleb128 0xb
 16678 00e4 39       		.uleb128 0x39
 16679 00e5 0B       		.uleb128 0xb
 16680 00e6 01       		.uleb128 0x1
 16681 00e7 13       		.uleb128 0x13
 16682 00e8 00       		.byte	0
 16683 00e9 00       		.byte	0
 16684 00ea 13       		.uleb128 0x13
 16685 00eb 0D       		.uleb128 0xd
 16686 00ec 00       		.byte	0
 16687 00ed 03       		.uleb128 0x3
 16688 00ee 0E       		.uleb128 0xe
 16689 00ef 3A       		.uleb128 0x3a
 16690 00f0 0B       		.uleb128 0xb
 16691 00f1 3B       		.uleb128 0x3b
 16692 00f2 0B       		.uleb128 0xb
 16693 00f3 39       		.uleb128 0x39
 16694 00f4 0B       		.uleb128 0xb
 16695 00f5 49       		.uleb128 0x49
 16696 00f6 13       		.uleb128 0x13
 16697 00f7 38       		.uleb128 0x38
 16698 00f8 05       		.uleb128 0x5
 16699 00f9 00       		.byte	0
 16700 00fa 00       		.byte	0
 16701 00fb 14       		.uleb128 0x14
 16702 00fc 15       		.uleb128 0x15
 16703 00fd 00       		.byte	0
 16704 00fe 27       		.uleb128 0x27
 16705 00ff 19       		.uleb128 0x19
 16706 0100 00       		.byte	0
 16707 0101 00       		.byte	0
 16708 0102 15       		.uleb128 0x15
 16709 0103 26       		.uleb128 0x26
 16710 0104 00       		.byte	0
 16711 0105 49       		.uleb128 0x49
 16712 0106 13       		.uleb128 0x13
 16713 0107 00       		.byte	0
 16714 0108 00       		.byte	0
 16715 0109 16       		.uleb128 0x16
 16716 010a 13       		.uleb128 0x13
 16717 010b 01       		.byte	0x1
 16718 010c 03       		.uleb128 0x3
 16719 010d 0E       		.uleb128 0xe
 16720 010e 0B       		.uleb128 0xb
 16721 010f 0B       		.uleb128 0xb
 16722 0110 3A       		.uleb128 0x3a
 16723 0111 0B       		.uleb128 0xb
 16724 0112 3B       		.uleb128 0x3b
 16725 0113 05       		.uleb128 0x5
 16726 0114 39       		.uleb128 0x39
 16727 0115 0B       		.uleb128 0xb
 16728 0116 01       		.uleb128 0x1
 16729 0117 13       		.uleb128 0x13
 16730 0118 00       		.byte	0
ARM GAS  /tmp/ccpnbTSa.s 			page 295


 16731 0119 00       		.byte	0
 16732 011a 17       		.uleb128 0x17
 16733 011b 0D       		.uleb128 0xd
 16734 011c 00       		.byte	0
 16735 011d 03       		.uleb128 0x3
 16736 011e 0E       		.uleb128 0xe
 16737 011f 3A       		.uleb128 0x3a
 16738 0120 0B       		.uleb128 0xb
 16739 0121 3B       		.uleb128 0x3b
 16740 0122 05       		.uleb128 0x5
 16741 0123 39       		.uleb128 0x39
 16742 0124 0B       		.uleb128 0xb
 16743 0125 49       		.uleb128 0x49
 16744 0126 13       		.uleb128 0x13
 16745 0127 38       		.uleb128 0x38
 16746 0128 0B       		.uleb128 0xb
 16747 0129 00       		.byte	0
 16748 012a 00       		.byte	0
 16749 012b 18       		.uleb128 0x18
 16750 012c 0D       		.uleb128 0xd
 16751 012d 00       		.byte	0
 16752 012e 03       		.uleb128 0x3
 16753 012f 08       		.uleb128 0x8
 16754 0130 3A       		.uleb128 0x3a
 16755 0131 0B       		.uleb128 0xb
 16756 0132 3B       		.uleb128 0x3b
 16757 0133 05       		.uleb128 0x5
 16758 0134 39       		.uleb128 0x39
 16759 0135 0B       		.uleb128 0xb
 16760 0136 49       		.uleb128 0x49
 16761 0137 13       		.uleb128 0x13
 16762 0138 38       		.uleb128 0x38
 16763 0139 0B       		.uleb128 0xb
 16764 013a 00       		.byte	0
 16765 013b 00       		.byte	0
 16766 013c 19       		.uleb128 0x19
 16767 013d 15       		.uleb128 0x15
 16768 013e 01       		.byte	0x1
 16769 013f 27       		.uleb128 0x27
 16770 0140 19       		.uleb128 0x19
 16771 0141 49       		.uleb128 0x49
 16772 0142 13       		.uleb128 0x13
 16773 0143 01       		.uleb128 0x1
 16774 0144 13       		.uleb128 0x13
 16775 0145 00       		.byte	0
 16776 0146 00       		.byte	0
 16777 0147 1A       		.uleb128 0x1a
 16778 0148 05       		.uleb128 0x5
 16779 0149 00       		.byte	0
 16780 014a 49       		.uleb128 0x49
 16781 014b 13       		.uleb128 0x13
 16782 014c 00       		.byte	0
 16783 014d 00       		.byte	0
 16784 014e 1B       		.uleb128 0x1b
 16785 014f 15       		.uleb128 0x15
 16786 0150 01       		.byte	0x1
 16787 0151 27       		.uleb128 0x27
ARM GAS  /tmp/ccpnbTSa.s 			page 296


 16788 0152 19       		.uleb128 0x19
 16789 0153 01       		.uleb128 0x1
 16790 0154 13       		.uleb128 0x13
 16791 0155 00       		.byte	0
 16792 0156 00       		.byte	0
 16793 0157 1C       		.uleb128 0x1c
 16794 0158 34       		.uleb128 0x34
 16795 0159 00       		.byte	0
 16796 015a 03       		.uleb128 0x3
 16797 015b 0E       		.uleb128 0xe
 16798 015c 3A       		.uleb128 0x3a
 16799 015d 0B       		.uleb128 0xb
 16800 015e 3B       		.uleb128 0x3b
 16801 015f 05       		.uleb128 0x5
 16802 0160 39       		.uleb128 0x39
 16803 0161 0B       		.uleb128 0xb
 16804 0162 49       		.uleb128 0x49
 16805 0163 13       		.uleb128 0x13
 16806 0164 3F       		.uleb128 0x3f
 16807 0165 19       		.uleb128 0x19
 16808 0166 3C       		.uleb128 0x3c
 16809 0167 19       		.uleb128 0x19
 16810 0168 00       		.byte	0
 16811 0169 00       		.byte	0
 16812 016a 1D       		.uleb128 0x1d
 16813 016b 13       		.uleb128 0x13
 16814 016c 01       		.byte	0x1
 16815 016d 03       		.uleb128 0x3
 16816 016e 0E       		.uleb128 0xe
 16817 016f 0B       		.uleb128 0xb
 16818 0170 05       		.uleb128 0x5
 16819 0171 3A       		.uleb128 0x3a
 16820 0172 0B       		.uleb128 0xb
 16821 0173 3B       		.uleb128 0x3b
 16822 0174 05       		.uleb128 0x5
 16823 0175 39       		.uleb128 0x39
 16824 0176 0B       		.uleb128 0xb
 16825 0177 01       		.uleb128 0x1
 16826 0178 13       		.uleb128 0x13
 16827 0179 00       		.byte	0
 16828 017a 00       		.byte	0
 16829 017b 1E       		.uleb128 0x1e
 16830 017c 0D       		.uleb128 0xd
 16831 017d 00       		.byte	0
 16832 017e 03       		.uleb128 0x3
 16833 017f 0E       		.uleb128 0xe
 16834 0180 3A       		.uleb128 0x3a
 16835 0181 0B       		.uleb128 0xb
 16836 0182 3B       		.uleb128 0x3b
 16837 0183 05       		.uleb128 0x5
 16838 0184 39       		.uleb128 0x39
 16839 0185 0B       		.uleb128 0xb
 16840 0186 49       		.uleb128 0x49
 16841 0187 13       		.uleb128 0x13
 16842 0188 38       		.uleb128 0x38
 16843 0189 05       		.uleb128 0x5
 16844 018a 00       		.byte	0
ARM GAS  /tmp/ccpnbTSa.s 			page 297


 16845 018b 00       		.byte	0
 16846 018c 1F       		.uleb128 0x1f
 16847 018d 0D       		.uleb128 0xd
 16848 018e 00       		.byte	0
 16849 018f 03       		.uleb128 0x3
 16850 0190 08       		.uleb128 0x8
 16851 0191 3A       		.uleb128 0x3a
 16852 0192 0B       		.uleb128 0xb
 16853 0193 3B       		.uleb128 0x3b
 16854 0194 05       		.uleb128 0x5
 16855 0195 39       		.uleb128 0x39
 16856 0196 0B       		.uleb128 0xb
 16857 0197 49       		.uleb128 0x49
 16858 0198 13       		.uleb128 0x13
 16859 0199 38       		.uleb128 0x38
 16860 019a 05       		.uleb128 0x5
 16861 019b 00       		.byte	0
 16862 019c 00       		.byte	0
 16863 019d 20       		.uleb128 0x20
 16864 019e 34       		.uleb128 0x34
 16865 019f 00       		.byte	0
 16866 01a0 03       		.uleb128 0x3
 16867 01a1 0E       		.uleb128 0xe
 16868 01a2 3A       		.uleb128 0x3a
 16869 01a3 0B       		.uleb128 0xb
 16870 01a4 3B       		.uleb128 0x3b
 16871 01a5 0B       		.uleb128 0xb
 16872 01a6 39       		.uleb128 0x39
 16873 01a7 0B       		.uleb128 0xb
 16874 01a8 49       		.uleb128 0x49
 16875 01a9 13       		.uleb128 0x13
 16876 01aa 3F       		.uleb128 0x3f
 16877 01ab 19       		.uleb128 0x19
 16878 01ac 3C       		.uleb128 0x3c
 16879 01ad 19       		.uleb128 0x19
 16880 01ae 00       		.byte	0
 16881 01af 00       		.byte	0
 16882 01b0 21       		.uleb128 0x21
 16883 01b1 13       		.uleb128 0x13
 16884 01b2 01       		.byte	0x1
 16885 01b3 0B       		.uleb128 0xb
 16886 01b4 0B       		.uleb128 0xb
 16887 01b5 3A       		.uleb128 0x3a
 16888 01b6 0B       		.uleb128 0xb
 16889 01b7 3B       		.uleb128 0x3b
 16890 01b8 05       		.uleb128 0x5
 16891 01b9 39       		.uleb128 0x39
 16892 01ba 0B       		.uleb128 0xb
 16893 01bb 01       		.uleb128 0x1
 16894 01bc 13       		.uleb128 0x13
 16895 01bd 00       		.byte	0
 16896 01be 00       		.byte	0
 16897 01bf 22       		.uleb128 0x22
 16898 01c0 13       		.uleb128 0x13
 16899 01c1 01       		.byte	0x1
 16900 01c2 0B       		.uleb128 0xb
 16901 01c3 05       		.uleb128 0x5
ARM GAS  /tmp/ccpnbTSa.s 			page 298


 16902 01c4 3A       		.uleb128 0x3a
 16903 01c5 0B       		.uleb128 0xb
 16904 01c6 3B       		.uleb128 0x3b
 16905 01c7 05       		.uleb128 0x5
 16906 01c8 39       		.uleb128 0x39
 16907 01c9 0B       		.uleb128 0xb
 16908 01ca 01       		.uleb128 0x1
 16909 01cb 13       		.uleb128 0x13
 16910 01cc 00       		.byte	0
 16911 01cd 00       		.byte	0
 16912 01ce 23       		.uleb128 0x23
 16913 01cf 0D       		.uleb128 0xd
 16914 01d0 00       		.byte	0
 16915 01d1 03       		.uleb128 0x3
 16916 01d2 08       		.uleb128 0x8
 16917 01d3 3A       		.uleb128 0x3a
 16918 01d4 0B       		.uleb128 0xb
 16919 01d5 3B       		.uleb128 0x3b
 16920 01d6 0B       		.uleb128 0xb
 16921 01d7 39       		.uleb128 0x39
 16922 01d8 0B       		.uleb128 0xb
 16923 01d9 49       		.uleb128 0x49
 16924 01da 13       		.uleb128 0x13
 16925 01db 00       		.byte	0
 16926 01dc 00       		.byte	0
 16927 01dd 24       		.uleb128 0x24
 16928 01de 0D       		.uleb128 0xd
 16929 01df 00       		.byte	0
 16930 01e0 03       		.uleb128 0x3
 16931 01e1 0E       		.uleb128 0xe
 16932 01e2 3A       		.uleb128 0x3a
 16933 01e3 0B       		.uleb128 0xb
 16934 01e4 3B       		.uleb128 0x3b
 16935 01e5 0B       		.uleb128 0xb
 16936 01e6 39       		.uleb128 0x39
 16937 01e7 0B       		.uleb128 0xb
 16938 01e8 49       		.uleb128 0x49
 16939 01e9 13       		.uleb128 0x13
 16940 01ea 0B       		.uleb128 0xb
 16941 01eb 0B       		.uleb128 0xb
 16942 01ec 0D       		.uleb128 0xd
 16943 01ed 0B       		.uleb128 0xb
 16944 01ee 0C       		.uleb128 0xc
 16945 01ef 0B       		.uleb128 0xb
 16946 01f0 38       		.uleb128 0x38
 16947 01f1 0B       		.uleb128 0xb
 16948 01f2 00       		.byte	0
 16949 01f3 00       		.byte	0
 16950 01f4 25       		.uleb128 0x25
 16951 01f5 13       		.uleb128 0x13
 16952 01f6 01       		.byte	0x1
 16953 01f7 0B       		.uleb128 0xb
 16954 01f8 05       		.uleb128 0x5
 16955 01f9 3A       		.uleb128 0x3a
 16956 01fa 0B       		.uleb128 0xb
 16957 01fb 3B       		.uleb128 0x3b
 16958 01fc 0B       		.uleb128 0xb
ARM GAS  /tmp/ccpnbTSa.s 			page 299


 16959 01fd 39       		.uleb128 0x39
 16960 01fe 0B       		.uleb128 0xb
 16961 01ff 01       		.uleb128 0x1
 16962 0200 13       		.uleb128 0x13
 16963 0201 00       		.byte	0
 16964 0202 00       		.byte	0
 16965 0203 26       		.uleb128 0x26
 16966 0204 0D       		.uleb128 0xd
 16967 0205 00       		.byte	0
 16968 0206 03       		.uleb128 0x3
 16969 0207 0E       		.uleb128 0xe
 16970 0208 3A       		.uleb128 0x3a
 16971 0209 0B       		.uleb128 0xb
 16972 020a 3B       		.uleb128 0x3b
 16973 020b 05       		.uleb128 0x5
 16974 020c 39       		.uleb128 0x39
 16975 020d 0B       		.uleb128 0xb
 16976 020e 49       		.uleb128 0x49
 16977 020f 13       		.uleb128 0x13
 16978 0210 00       		.byte	0
 16979 0211 00       		.byte	0
 16980 0212 27       		.uleb128 0x27
 16981 0213 34       		.uleb128 0x34
 16982 0214 00       		.byte	0
 16983 0215 03       		.uleb128 0x3
 16984 0216 08       		.uleb128 0x8
 16985 0217 3A       		.uleb128 0x3a
 16986 0218 0B       		.uleb128 0xb
 16987 0219 3B       		.uleb128 0x3b
 16988 021a 05       		.uleb128 0x5
 16989 021b 39       		.uleb128 0x39
 16990 021c 0B       		.uleb128 0xb
 16991 021d 49       		.uleb128 0x49
 16992 021e 13       		.uleb128 0x13
 16993 021f 3F       		.uleb128 0x3f
 16994 0220 19       		.uleb128 0x19
 16995 0221 3C       		.uleb128 0x3c
 16996 0222 19       		.uleb128 0x19
 16997 0223 00       		.byte	0
 16998 0224 00       		.byte	0
 16999 0225 28       		.uleb128 0x28
 17000 0226 21       		.uleb128 0x21
 17001 0227 00       		.byte	0
 17002 0228 00       		.byte	0
 17003 0229 00       		.byte	0
 17004 022a 29       		.uleb128 0x29
 17005 022b 04       		.uleb128 0x4
 17006 022c 01       		.byte	0x1
 17007 022d 3E       		.uleb128 0x3e
 17008 022e 0B       		.uleb128 0xb
 17009 022f 0B       		.uleb128 0xb
 17010 0230 0B       		.uleb128 0xb
 17011 0231 49       		.uleb128 0x49
 17012 0232 13       		.uleb128 0x13
 17013 0233 3A       		.uleb128 0x3a
 17014 0234 0B       		.uleb128 0xb
 17015 0235 3B       		.uleb128 0x3b
ARM GAS  /tmp/ccpnbTSa.s 			page 300


 17016 0236 0B       		.uleb128 0xb
 17017 0237 39       		.uleb128 0x39
 17018 0238 0B       		.uleb128 0xb
 17019 0239 01       		.uleb128 0x1
 17020 023a 13       		.uleb128 0x13
 17021 023b 00       		.byte	0
 17022 023c 00       		.byte	0
 17023 023d 2A       		.uleb128 0x2a
 17024 023e 28       		.uleb128 0x28
 17025 023f 00       		.byte	0
 17026 0240 03       		.uleb128 0x3
 17027 0241 0E       		.uleb128 0xe
 17028 0242 1C       		.uleb128 0x1c
 17029 0243 0B       		.uleb128 0xb
 17030 0244 00       		.byte	0
 17031 0245 00       		.byte	0
 17032 0246 2B       		.uleb128 0x2b
 17033 0247 04       		.uleb128 0x4
 17034 0248 01       		.byte	0x1
 17035 0249 3E       		.uleb128 0x3e
 17036 024a 0B       		.uleb128 0xb
 17037 024b 0B       		.uleb128 0xb
 17038 024c 0B       		.uleb128 0xb
 17039 024d 49       		.uleb128 0x49
 17040 024e 13       		.uleb128 0x13
 17041 024f 3A       		.uleb128 0x3a
 17042 0250 0B       		.uleb128 0xb
 17043 0251 3B       		.uleb128 0x3b
 17044 0252 05       		.uleb128 0x5
 17045 0253 39       		.uleb128 0x39
 17046 0254 0B       		.uleb128 0xb
 17047 0255 01       		.uleb128 0x1
 17048 0256 13       		.uleb128 0x13
 17049 0257 00       		.byte	0
 17050 0258 00       		.byte	0
 17051 0259 2C       		.uleb128 0x2c
 17052 025a 17       		.uleb128 0x17
 17053 025b 01       		.byte	0x1
 17054 025c 0B       		.uleb128 0xb
 17055 025d 0B       		.uleb128 0xb
 17056 025e 3A       		.uleb128 0x3a
 17057 025f 0B       		.uleb128 0xb
 17058 0260 3B       		.uleb128 0x3b
 17059 0261 05       		.uleb128 0x5
 17060 0262 39       		.uleb128 0x39
 17061 0263 0B       		.uleb128 0xb
 17062 0264 01       		.uleb128 0x1
 17063 0265 13       		.uleb128 0x13
 17064 0266 00       		.byte	0
 17065 0267 00       		.byte	0
 17066 0268 2D       		.uleb128 0x2d
 17067 0269 0D       		.uleb128 0xd
 17068 026a 00       		.byte	0
 17069 026b 03       		.uleb128 0x3
 17070 026c 08       		.uleb128 0x8
 17071 026d 3A       		.uleb128 0x3a
 17072 026e 0B       		.uleb128 0xb
ARM GAS  /tmp/ccpnbTSa.s 			page 301


 17073 026f 3B       		.uleb128 0x3b
 17074 0270 05       		.uleb128 0x5
 17075 0271 39       		.uleb128 0x39
 17076 0272 0B       		.uleb128 0xb
 17077 0273 49       		.uleb128 0x49
 17078 0274 13       		.uleb128 0x13
 17079 0275 00       		.byte	0
 17080 0276 00       		.byte	0
 17081 0277 2E       		.uleb128 0x2e
 17082 0278 21       		.uleb128 0x21
 17083 0279 00       		.byte	0
 17084 027a 49       		.uleb128 0x49
 17085 027b 13       		.uleb128 0x13
 17086 027c 2F       		.uleb128 0x2f
 17087 027d 05       		.uleb128 0x5
 17088 027e 00       		.byte	0
 17089 027f 00       		.byte	0
 17090 0280 2F       		.uleb128 0x2f
 17091 0281 13       		.uleb128 0x13
 17092 0282 01       		.byte	0x1
 17093 0283 0B       		.uleb128 0xb
 17094 0284 06       		.uleb128 0x6
 17095 0285 3A       		.uleb128 0x3a
 17096 0286 0B       		.uleb128 0xb
 17097 0287 3B       		.uleb128 0x3b
 17098 0288 0B       		.uleb128 0xb
 17099 0289 39       		.uleb128 0x39
 17100 028a 0B       		.uleb128 0xb
 17101 028b 01       		.uleb128 0x1
 17102 028c 13       		.uleb128 0x13
 17103 028d 00       		.byte	0
 17104 028e 00       		.byte	0
 17105 028f 30       		.uleb128 0x30
 17106 0290 0D       		.uleb128 0xd
 17107 0291 00       		.byte	0
 17108 0292 03       		.uleb128 0x3
 17109 0293 08       		.uleb128 0x8
 17110 0294 3A       		.uleb128 0x3a
 17111 0295 0B       		.uleb128 0xb
 17112 0296 3B       		.uleb128 0x3b
 17113 0297 0B       		.uleb128 0xb
 17114 0298 39       		.uleb128 0x39
 17115 0299 0B       		.uleb128 0xb
 17116 029a 49       		.uleb128 0x49
 17117 029b 13       		.uleb128 0x13
 17118 029c 38       		.uleb128 0x38
 17119 029d 05       		.uleb128 0x5
 17120 029e 00       		.byte	0
 17121 029f 00       		.byte	0
 17122 02a0 31       		.uleb128 0x31
 17123 02a1 34       		.uleb128 0x34
 17124 02a2 00       		.byte	0
 17125 02a3 03       		.uleb128 0x3
 17126 02a4 0E       		.uleb128 0xe
 17127 02a5 3A       		.uleb128 0x3a
 17128 02a6 0B       		.uleb128 0xb
 17129 02a7 3B       		.uleb128 0x3b
ARM GAS  /tmp/ccpnbTSa.s 			page 302


 17130 02a8 0B       		.uleb128 0xb
 17131 02a9 39       		.uleb128 0x39
 17132 02aa 0B       		.uleb128 0xb
 17133 02ab 49       		.uleb128 0x49
 17134 02ac 13       		.uleb128 0x13
 17135 02ad 02       		.uleb128 0x2
 17136 02ae 18       		.uleb128 0x18
 17137 02af 00       		.byte	0
 17138 02b0 00       		.byte	0
 17139 02b1 32       		.uleb128 0x32
 17140 02b2 2E       		.uleb128 0x2e
 17141 02b3 01       		.byte	0x1
 17142 02b4 3F       		.uleb128 0x3f
 17143 02b5 19       		.uleb128 0x19
 17144 02b6 03       		.uleb128 0x3
 17145 02b7 0E       		.uleb128 0xe
 17146 02b8 3A       		.uleb128 0x3a
 17147 02b9 0B       		.uleb128 0xb
 17148 02ba 3B       		.uleb128 0x3b
 17149 02bb 05       		.uleb128 0x5
 17150 02bc 39       		.uleb128 0x39
 17151 02bd 0B       		.uleb128 0xb
 17152 02be 27       		.uleb128 0x27
 17153 02bf 19       		.uleb128 0x19
 17154 02c0 11       		.uleb128 0x11
 17155 02c1 01       		.uleb128 0x1
 17156 02c2 12       		.uleb128 0x12
 17157 02c3 06       		.uleb128 0x6
 17158 02c4 40       		.uleb128 0x40
 17159 02c5 18       		.uleb128 0x18
 17160 02c6 9742     		.uleb128 0x2117
 17161 02c8 19       		.uleb128 0x19
 17162 02c9 01       		.uleb128 0x1
 17163 02ca 13       		.uleb128 0x13
 17164 02cb 00       		.byte	0
 17165 02cc 00       		.byte	0
 17166 02cd 33       		.uleb128 0x33
 17167 02ce 05       		.uleb128 0x5
 17168 02cf 00       		.byte	0
 17169 02d0 03       		.uleb128 0x3
 17170 02d1 0E       		.uleb128 0xe
 17171 02d2 3A       		.uleb128 0x3a
 17172 02d3 0B       		.uleb128 0xb
 17173 02d4 3B       		.uleb128 0x3b
 17174 02d5 05       		.uleb128 0x5
 17175 02d6 39       		.uleb128 0x39
 17176 02d7 0B       		.uleb128 0xb
 17177 02d8 49       		.uleb128 0x49
 17178 02d9 13       		.uleb128 0x13
 17179 02da 02       		.uleb128 0x2
 17180 02db 17       		.uleb128 0x17
 17181 02dc B742     		.uleb128 0x2137
 17182 02de 17       		.uleb128 0x17
 17183 02df 00       		.byte	0
 17184 02e0 00       		.byte	0
 17185 02e1 34       		.uleb128 0x34
 17186 02e2 05       		.uleb128 0x5
ARM GAS  /tmp/ccpnbTSa.s 			page 303


 17187 02e3 00       		.byte	0
 17188 02e4 03       		.uleb128 0x3
 17189 02e5 08       		.uleb128 0x8
 17190 02e6 3A       		.uleb128 0x3a
 17191 02e7 0B       		.uleb128 0xb
 17192 02e8 3B       		.uleb128 0x3b
 17193 02e9 05       		.uleb128 0x5
 17194 02ea 39       		.uleb128 0x39
 17195 02eb 0B       		.uleb128 0xb
 17196 02ec 49       		.uleb128 0x49
 17197 02ed 13       		.uleb128 0x13
 17198 02ee 02       		.uleb128 0x2
 17199 02ef 17       		.uleb128 0x17
 17200 02f0 B742     		.uleb128 0x2137
 17201 02f2 17       		.uleb128 0x17
 17202 02f3 00       		.byte	0
 17203 02f4 00       		.byte	0
 17204 02f5 35       		.uleb128 0x35
 17205 02f6 34       		.uleb128 0x34
 17206 02f7 00       		.byte	0
 17207 02f8 03       		.uleb128 0x3
 17208 02f9 0E       		.uleb128 0xe
 17209 02fa 49       		.uleb128 0x49
 17210 02fb 13       		.uleb128 0x13
 17211 02fc 34       		.uleb128 0x34
 17212 02fd 19       		.uleb128 0x19
 17213 02fe 00       		.byte	0
 17214 02ff 00       		.byte	0
 17215 0300 36       		.uleb128 0x36
 17216 0301 1D       		.uleb128 0x1d
 17217 0302 01       		.byte	0x1
 17218 0303 31       		.uleb128 0x31
 17219 0304 13       		.uleb128 0x13
 17220 0305 52       		.uleb128 0x52
 17221 0306 01       		.uleb128 0x1
 17222 0307 B842     		.uleb128 0x2138
 17223 0309 05       		.uleb128 0x5
 17224 030a 55       		.uleb128 0x55
 17225 030b 17       		.uleb128 0x17
 17226 030c 58       		.uleb128 0x58
 17227 030d 0B       		.uleb128 0xb
 17228 030e 59       		.uleb128 0x59
 17229 030f 05       		.uleb128 0x5
 17230 0310 57       		.uleb128 0x57
 17231 0311 0B       		.uleb128 0xb
 17232 0312 01       		.uleb128 0x1
 17233 0313 13       		.uleb128 0x13
 17234 0314 00       		.byte	0
 17235 0315 00       		.byte	0
 17236 0316 37       		.uleb128 0x37
 17237 0317 1D       		.uleb128 0x1d
 17238 0318 01       		.byte	0x1
 17239 0319 31       		.uleb128 0x31
 17240 031a 13       		.uleb128 0x13
 17241 031b 52       		.uleb128 0x52
 17242 031c 01       		.uleb128 0x1
 17243 031d B842     		.uleb128 0x2138
ARM GAS  /tmp/ccpnbTSa.s 			page 304


 17244 031f 05       		.uleb128 0x5
 17245 0320 55       		.uleb128 0x55
 17246 0321 17       		.uleb128 0x17
 17247 0322 58       		.uleb128 0x58
 17248 0323 0B       		.uleb128 0xb
 17249 0324 59       		.uleb128 0x59
 17250 0325 05       		.uleb128 0x5
 17251 0326 57       		.uleb128 0x57
 17252 0327 0B       		.uleb128 0xb
 17253 0328 00       		.byte	0
 17254 0329 00       		.byte	0
 17255 032a 38       		.uleb128 0x38
 17256 032b 05       		.uleb128 0x5
 17257 032c 00       		.byte	0
 17258 032d 31       		.uleb128 0x31
 17259 032e 13       		.uleb128 0x13
 17260 032f 02       		.uleb128 0x2
 17261 0330 17       		.uleb128 0x17
 17262 0331 B742     		.uleb128 0x2137
 17263 0333 17       		.uleb128 0x17
 17264 0334 00       		.byte	0
 17265 0335 00       		.byte	0
 17266 0336 39       		.uleb128 0x39
 17267 0337 1D       		.uleb128 0x1d
 17268 0338 01       		.byte	0x1
 17269 0339 31       		.uleb128 0x31
 17270 033a 13       		.uleb128 0x13
 17271 033b 52       		.uleb128 0x52
 17272 033c 01       		.uleb128 0x1
 17273 033d B842     		.uleb128 0x2138
 17274 033f 05       		.uleb128 0x5
 17275 0340 11       		.uleb128 0x11
 17276 0341 01       		.uleb128 0x1
 17277 0342 12       		.uleb128 0x12
 17278 0343 06       		.uleb128 0x6
 17279 0344 58       		.uleb128 0x58
 17280 0345 0B       		.uleb128 0xb
 17281 0346 59       		.uleb128 0x59
 17282 0347 05       		.uleb128 0x5
 17283 0348 57       		.uleb128 0x57
 17284 0349 0B       		.uleb128 0xb
 17285 034a 01       		.uleb128 0x1
 17286 034b 13       		.uleb128 0x13
 17287 034c 00       		.byte	0
 17288 034d 00       		.byte	0
 17289 034e 3A       		.uleb128 0x3a
 17290 034f 0B       		.uleb128 0xb
 17291 0350 01       		.byte	0x1
 17292 0351 11       		.uleb128 0x11
 17293 0352 01       		.uleb128 0x1
 17294 0353 12       		.uleb128 0x12
 17295 0354 06       		.uleb128 0x6
 17296 0355 00       		.byte	0
 17297 0356 00       		.byte	0
 17298 0357 3B       		.uleb128 0x3b
 17299 0358 34       		.uleb128 0x34
 17300 0359 00       		.byte	0
ARM GAS  /tmp/ccpnbTSa.s 			page 305


 17301 035a 31       		.uleb128 0x31
 17302 035b 13       		.uleb128 0x13
 17303 035c 02       		.uleb128 0x2
 17304 035d 17       		.uleb128 0x17
 17305 035e B742     		.uleb128 0x2137
 17306 0360 17       		.uleb128 0x17
 17307 0361 00       		.byte	0
 17308 0362 00       		.byte	0
 17309 0363 3C       		.uleb128 0x3c
 17310 0364 898201   		.uleb128 0x4109
 17311 0367 01       		.byte	0x1
 17312 0368 11       		.uleb128 0x11
 17313 0369 01       		.uleb128 0x1
 17314 036a 31       		.uleb128 0x31
 17315 036b 13       		.uleb128 0x13
 17316 036c 00       		.byte	0
 17317 036d 00       		.byte	0
 17318 036e 3D       		.uleb128 0x3d
 17319 036f 8A8201   		.uleb128 0x410a
 17320 0372 00       		.byte	0
 17321 0373 02       		.uleb128 0x2
 17322 0374 18       		.uleb128 0x18
 17323 0375 9142     		.uleb128 0x2111
 17324 0377 18       		.uleb128 0x18
 17325 0378 00       		.byte	0
 17326 0379 00       		.byte	0
 17327 037a 3E       		.uleb128 0x3e
 17328 037b 1D       		.uleb128 0x1d
 17329 037c 01       		.byte	0x1
 17330 037d 31       		.uleb128 0x31
 17331 037e 13       		.uleb128 0x13
 17332 037f 52       		.uleb128 0x52
 17333 0380 01       		.uleb128 0x1
 17334 0381 B842     		.uleb128 0x2138
 17335 0383 05       		.uleb128 0x5
 17336 0384 11       		.uleb128 0x11
 17337 0385 01       		.uleb128 0x1
 17338 0386 12       		.uleb128 0x12
 17339 0387 06       		.uleb128 0x6
 17340 0388 58       		.uleb128 0x58
 17341 0389 0B       		.uleb128 0xb
 17342 038a 59       		.uleb128 0x59
 17343 038b 05       		.uleb128 0x5
 17344 038c 57       		.uleb128 0x57
 17345 038d 0B       		.uleb128 0xb
 17346 038e 00       		.byte	0
 17347 038f 00       		.byte	0
 17348 0390 3F       		.uleb128 0x3f
 17349 0391 898201   		.uleb128 0x4109
 17350 0394 01       		.byte	0x1
 17351 0395 11       		.uleb128 0x11
 17352 0396 01       		.uleb128 0x1
 17353 0397 01       		.uleb128 0x1
 17354 0398 13       		.uleb128 0x13
 17355 0399 00       		.byte	0
 17356 039a 00       		.byte	0
 17357 039b 40       		.uleb128 0x40
ARM GAS  /tmp/ccpnbTSa.s 			page 306


 17358 039c 898201   		.uleb128 0x4109
 17359 039f 01       		.byte	0x1
 17360 03a0 11       		.uleb128 0x11
 17361 03a1 01       		.uleb128 0x1
 17362 03a2 31       		.uleb128 0x31
 17363 03a3 13       		.uleb128 0x13
 17364 03a4 01       		.uleb128 0x1
 17365 03a5 13       		.uleb128 0x13
 17366 03a6 00       		.byte	0
 17367 03a7 00       		.byte	0
 17368 03a8 41       		.uleb128 0x41
 17369 03a9 898201   		.uleb128 0x4109
 17370 03ac 01       		.byte	0x1
 17371 03ad 11       		.uleb128 0x11
 17372 03ae 01       		.uleb128 0x1
 17373 03af 00       		.byte	0
 17374 03b0 00       		.byte	0
 17375 03b1 42       		.uleb128 0x42
 17376 03b2 34       		.uleb128 0x34
 17377 03b3 00       		.byte	0
 17378 03b4 03       		.uleb128 0x3
 17379 03b5 08       		.uleb128 0x8
 17380 03b6 3A       		.uleb128 0x3a
 17381 03b7 0B       		.uleb128 0xb
 17382 03b8 3B       		.uleb128 0x3b
 17383 03b9 05       		.uleb128 0x5
 17384 03ba 39       		.uleb128 0x39
 17385 03bb 0B       		.uleb128 0xb
 17386 03bc 49       		.uleb128 0x49
 17387 03bd 13       		.uleb128 0x13
 17388 03be 02       		.uleb128 0x2
 17389 03bf 17       		.uleb128 0x17
 17390 03c0 B742     		.uleb128 0x2137
 17391 03c2 17       		.uleb128 0x17
 17392 03c3 00       		.byte	0
 17393 03c4 00       		.byte	0
 17394 03c5 43       		.uleb128 0x43
 17395 03c6 0B       		.uleb128 0xb
 17396 03c7 01       		.byte	0x1
 17397 03c8 55       		.uleb128 0x55
 17398 03c9 17       		.uleb128 0x17
 17399 03ca 00       		.byte	0
 17400 03cb 00       		.byte	0
 17401 03cc 44       		.uleb128 0x44
 17402 03cd 1D       		.uleb128 0x1d
 17403 03ce 01       		.byte	0x1
 17404 03cf 31       		.uleb128 0x31
 17405 03d0 13       		.uleb128 0x13
 17406 03d1 52       		.uleb128 0x52
 17407 03d2 01       		.uleb128 0x1
 17408 03d3 B842     		.uleb128 0x2138
 17409 03d5 05       		.uleb128 0x5
 17410 03d6 11       		.uleb128 0x11
 17411 03d7 01       		.uleb128 0x1
 17412 03d8 12       		.uleb128 0x12
 17413 03d9 06       		.uleb128 0x6
 17414 03da 58       		.uleb128 0x58
ARM GAS  /tmp/ccpnbTSa.s 			page 307


 17415 03db 0B       		.uleb128 0xb
 17416 03dc 59       		.uleb128 0x59
 17417 03dd 0B       		.uleb128 0xb
 17418 03de 57       		.uleb128 0x57
 17419 03df 0B       		.uleb128 0xb
 17420 03e0 01       		.uleb128 0x1
 17421 03e1 13       		.uleb128 0x13
 17422 03e2 00       		.byte	0
 17423 03e3 00       		.byte	0
 17424 03e4 45       		.uleb128 0x45
 17425 03e5 1D       		.uleb128 0x1d
 17426 03e6 01       		.byte	0x1
 17427 03e7 31       		.uleb128 0x31
 17428 03e8 13       		.uleb128 0x13
 17429 03e9 52       		.uleb128 0x52
 17430 03ea 01       		.uleb128 0x1
 17431 03eb B842     		.uleb128 0x2138
 17432 03ed 05       		.uleb128 0x5
 17433 03ee 55       		.uleb128 0x55
 17434 03ef 17       		.uleb128 0x17
 17435 03f0 58       		.uleb128 0x58
 17436 03f1 0B       		.uleb128 0xb
 17437 03f2 59       		.uleb128 0x59
 17438 03f3 0B       		.uleb128 0xb
 17439 03f4 57       		.uleb128 0x57
 17440 03f5 0B       		.uleb128 0xb
 17441 03f6 01       		.uleb128 0x1
 17442 03f7 13       		.uleb128 0x13
 17443 03f8 00       		.byte	0
 17444 03f9 00       		.byte	0
 17445 03fa 46       		.uleb128 0x46
 17446 03fb 898201   		.uleb128 0x4109
 17447 03fe 01       		.byte	0x1
 17448 03ff 11       		.uleb128 0x11
 17449 0400 01       		.uleb128 0x1
 17450 0401 9342     		.uleb128 0x2113
 17451 0403 18       		.uleb128 0x18
 17452 0404 01       		.uleb128 0x1
 17453 0405 13       		.uleb128 0x13
 17454 0406 00       		.byte	0
 17455 0407 00       		.byte	0
 17456 0408 47       		.uleb128 0x47
 17457 0409 898201   		.uleb128 0x4109
 17458 040c 00       		.byte	0
 17459 040d 11       		.uleb128 0x11
 17460 040e 01       		.uleb128 0x1
 17461 040f 31       		.uleb128 0x31
 17462 0410 13       		.uleb128 0x13
 17463 0411 00       		.byte	0
 17464 0412 00       		.byte	0
 17465 0413 48       		.uleb128 0x48
 17466 0414 898201   		.uleb128 0x4109
 17467 0417 01       		.byte	0x1
 17468 0418 11       		.uleb128 0x11
 17469 0419 01       		.uleb128 0x1
 17470 041a 9542     		.uleb128 0x2115
 17471 041c 19       		.uleb128 0x19
ARM GAS  /tmp/ccpnbTSa.s 			page 308


 17472 041d 00       		.byte	0
 17473 041e 00       		.byte	0
 17474 041f 49       		.uleb128 0x49
 17475 0420 0B       		.uleb128 0xb
 17476 0421 01       		.byte	0x1
 17477 0422 55       		.uleb128 0x55
 17478 0423 17       		.uleb128 0x17
 17479 0424 01       		.uleb128 0x1
 17480 0425 13       		.uleb128 0x13
 17481 0426 00       		.byte	0
 17482 0427 00       		.byte	0
 17483 0428 4A       		.uleb128 0x4a
 17484 0429 34       		.uleb128 0x34
 17485 042a 00       		.byte	0
 17486 042b 03       		.uleb128 0x3
 17487 042c 08       		.uleb128 0x8
 17488 042d 3A       		.uleb128 0x3a
 17489 042e 0B       		.uleb128 0xb
 17490 042f 3B       		.uleb128 0x3b
 17491 0430 05       		.uleb128 0x5
 17492 0431 39       		.uleb128 0x39
 17493 0432 0B       		.uleb128 0xb
 17494 0433 49       		.uleb128 0x49
 17495 0434 13       		.uleb128 0x13
 17496 0435 00       		.byte	0
 17497 0436 00       		.byte	0
 17498 0437 4B       		.uleb128 0x4b
 17499 0438 2E       		.uleb128 0x2e
 17500 0439 01       		.byte	0x1
 17501 043a 3F       		.uleb128 0x3f
 17502 043b 19       		.uleb128 0x19
 17503 043c 03       		.uleb128 0x3
 17504 043d 0E       		.uleb128 0xe
 17505 043e 3A       		.uleb128 0x3a
 17506 043f 0B       		.uleb128 0xb
 17507 0440 3B       		.uleb128 0x3b
 17508 0441 05       		.uleb128 0x5
 17509 0442 39       		.uleb128 0x39
 17510 0443 0B       		.uleb128 0xb
 17511 0444 27       		.uleb128 0x27
 17512 0445 19       		.uleb128 0x19
 17513 0446 49       		.uleb128 0x49
 17514 0447 13       		.uleb128 0x13
 17515 0448 11       		.uleb128 0x11
 17516 0449 01       		.uleb128 0x1
 17517 044a 12       		.uleb128 0x12
 17518 044b 06       		.uleb128 0x6
 17519 044c 40       		.uleb128 0x40
 17520 044d 18       		.uleb128 0x18
 17521 044e 9742     		.uleb128 0x2117
 17522 0450 19       		.uleb128 0x19
 17523 0451 01       		.uleb128 0x1
 17524 0452 13       		.uleb128 0x13
 17525 0453 00       		.byte	0
 17526 0454 00       		.byte	0
 17527 0455 4C       		.uleb128 0x4c
 17528 0456 2E       		.uleb128 0x2e
ARM GAS  /tmp/ccpnbTSa.s 			page 309


 17529 0457 01       		.byte	0x1
 17530 0458 3F       		.uleb128 0x3f
 17531 0459 19       		.uleb128 0x19
 17532 045a 03       		.uleb128 0x3
 17533 045b 0E       		.uleb128 0xe
 17534 045c 3A       		.uleb128 0x3a
 17535 045d 0B       		.uleb128 0xb
 17536 045e 3B       		.uleb128 0x3b
 17537 045f 05       		.uleb128 0x5
 17538 0460 39       		.uleb128 0x39
 17539 0461 0B       		.uleb128 0xb
 17540 0462 27       		.uleb128 0x27
 17541 0463 19       		.uleb128 0x19
 17542 0464 20       		.uleb128 0x20
 17543 0465 0B       		.uleb128 0xb
 17544 0466 01       		.uleb128 0x1
 17545 0467 13       		.uleb128 0x13
 17546 0468 00       		.byte	0
 17547 0469 00       		.byte	0
 17548 046a 4D       		.uleb128 0x4d
 17549 046b 05       		.uleb128 0x5
 17550 046c 00       		.byte	0
 17551 046d 03       		.uleb128 0x3
 17552 046e 0E       		.uleb128 0xe
 17553 046f 3A       		.uleb128 0x3a
 17554 0470 0B       		.uleb128 0xb
 17555 0471 3B       		.uleb128 0x3b
 17556 0472 05       		.uleb128 0x5
 17557 0473 39       		.uleb128 0x39
 17558 0474 0B       		.uleb128 0xb
 17559 0475 49       		.uleb128 0x49
 17560 0476 13       		.uleb128 0x13
 17561 0477 00       		.byte	0
 17562 0478 00       		.byte	0
 17563 0479 4E       		.uleb128 0x4e
 17564 047a 05       		.uleb128 0x5
 17565 047b 00       		.byte	0
 17566 047c 03       		.uleb128 0x3
 17567 047d 08       		.uleb128 0x8
 17568 047e 3A       		.uleb128 0x3a
 17569 047f 0B       		.uleb128 0xb
 17570 0480 3B       		.uleb128 0x3b
 17571 0481 05       		.uleb128 0x5
 17572 0482 39       		.uleb128 0x39
 17573 0483 0B       		.uleb128 0xb
 17574 0484 49       		.uleb128 0x49
 17575 0485 13       		.uleb128 0x13
 17576 0486 00       		.byte	0
 17577 0487 00       		.byte	0
 17578 0488 4F       		.uleb128 0x4f
 17579 0489 898201   		.uleb128 0x4109
 17580 048c 01       		.byte	0x1
 17581 048d 11       		.uleb128 0x11
 17582 048e 01       		.uleb128 0x1
 17583 048f 9542     		.uleb128 0x2115
 17584 0491 19       		.uleb128 0x19
 17585 0492 31       		.uleb128 0x31
ARM GAS  /tmp/ccpnbTSa.s 			page 310


 17586 0493 13       		.uleb128 0x13
 17587 0494 00       		.byte	0
 17588 0495 00       		.byte	0
 17589 0496 50       		.uleb128 0x50
 17590 0497 898201   		.uleb128 0x4109
 17591 049a 00       		.byte	0
 17592 049b 11       		.uleb128 0x11
 17593 049c 01       		.uleb128 0x1
 17594 049d 9542     		.uleb128 0x2115
 17595 049f 19       		.uleb128 0x19
 17596 04a0 31       		.uleb128 0x31
 17597 04a1 13       		.uleb128 0x13
 17598 04a2 00       		.byte	0
 17599 04a3 00       		.byte	0
 17600 04a4 51       		.uleb128 0x51
 17601 04a5 05       		.uleb128 0x5
 17602 04a6 00       		.byte	0
 17603 04a7 03       		.uleb128 0x3
 17604 04a8 0E       		.uleb128 0xe
 17605 04a9 3A       		.uleb128 0x3a
 17606 04aa 0B       		.uleb128 0xb
 17607 04ab 3B       		.uleb128 0x3b
 17608 04ac 05       		.uleb128 0x5
 17609 04ad 39       		.uleb128 0x39
 17610 04ae 0B       		.uleb128 0xb
 17611 04af 49       		.uleb128 0x49
 17612 04b0 13       		.uleb128 0x13
 17613 04b1 02       		.uleb128 0x2
 17614 04b2 18       		.uleb128 0x18
 17615 04b3 00       		.byte	0
 17616 04b4 00       		.byte	0
 17617 04b5 52       		.uleb128 0x52
 17618 04b6 2E       		.uleb128 0x2e
 17619 04b7 01       		.byte	0x1
 17620 04b8 03       		.uleb128 0x3
 17621 04b9 0E       		.uleb128 0xe
 17622 04ba 3A       		.uleb128 0x3a
 17623 04bb 0B       		.uleb128 0xb
 17624 04bc 3B       		.uleb128 0x3b
 17625 04bd 0B       		.uleb128 0xb
 17626 04be 39       		.uleb128 0x39
 17627 04bf 0B       		.uleb128 0xb
 17628 04c0 27       		.uleb128 0x27
 17629 04c1 19       		.uleb128 0x19
 17630 04c2 49       		.uleb128 0x49
 17631 04c3 13       		.uleb128 0x13
 17632 04c4 20       		.uleb128 0x20
 17633 04c5 0B       		.uleb128 0xb
 17634 04c6 01       		.uleb128 0x1
 17635 04c7 13       		.uleb128 0x13
 17636 04c8 00       		.byte	0
 17637 04c9 00       		.byte	0
 17638 04ca 53       		.uleb128 0x53
 17639 04cb 05       		.uleb128 0x5
 17640 04cc 00       		.byte	0
 17641 04cd 03       		.uleb128 0x3
 17642 04ce 0E       		.uleb128 0xe
ARM GAS  /tmp/ccpnbTSa.s 			page 311


 17643 04cf 3A       		.uleb128 0x3a
 17644 04d0 0B       		.uleb128 0xb
 17645 04d1 3B       		.uleb128 0x3b
 17646 04d2 0B       		.uleb128 0xb
 17647 04d3 39       		.uleb128 0x39
 17648 04d4 0B       		.uleb128 0xb
 17649 04d5 49       		.uleb128 0x49
 17650 04d6 13       		.uleb128 0x13
 17651 04d7 00       		.byte	0
 17652 04d8 00       		.byte	0
 17653 04d9 54       		.uleb128 0x54
 17654 04da 34       		.uleb128 0x34
 17655 04db 00       		.byte	0
 17656 04dc 03       		.uleb128 0x3
 17657 04dd 08       		.uleb128 0x8
 17658 04de 3A       		.uleb128 0x3a
 17659 04df 0B       		.uleb128 0xb
 17660 04e0 3B       		.uleb128 0x3b
 17661 04e1 0B       		.uleb128 0xb
 17662 04e2 39       		.uleb128 0x39
 17663 04e3 0B       		.uleb128 0xb
 17664 04e4 49       		.uleb128 0x49
 17665 04e5 13       		.uleb128 0x13
 17666 04e6 00       		.byte	0
 17667 04e7 00       		.byte	0
 17668 04e8 55       		.uleb128 0x55
 17669 04e9 2E       		.uleb128 0x2e
 17670 04ea 01       		.byte	0x1
 17671 04eb 03       		.uleb128 0x3
 17672 04ec 0E       		.uleb128 0xe
 17673 04ed 3A       		.uleb128 0x3a
 17674 04ee 0B       		.uleb128 0xb
 17675 04ef 3B       		.uleb128 0x3b
 17676 04f0 0B       		.uleb128 0xb
 17677 04f1 39       		.uleb128 0x39
 17678 04f2 0B       		.uleb128 0xb
 17679 04f3 27       		.uleb128 0x27
 17680 04f4 19       		.uleb128 0x19
 17681 04f5 20       		.uleb128 0x20
 17682 04f6 0B       		.uleb128 0xb
 17683 04f7 01       		.uleb128 0x1
 17684 04f8 13       		.uleb128 0x13
 17685 04f9 00       		.byte	0
 17686 04fa 00       		.byte	0
 17687 04fb 56       		.uleb128 0x56
 17688 04fc 05       		.uleb128 0x5
 17689 04fd 00       		.byte	0
 17690 04fe 03       		.uleb128 0x3
 17691 04ff 08       		.uleb128 0x8
 17692 0500 3A       		.uleb128 0x3a
 17693 0501 0B       		.uleb128 0xb
 17694 0502 3B       		.uleb128 0x3b
 17695 0503 0B       		.uleb128 0xb
 17696 0504 39       		.uleb128 0x39
 17697 0505 0B       		.uleb128 0xb
 17698 0506 49       		.uleb128 0x49
 17699 0507 13       		.uleb128 0x13
ARM GAS  /tmp/ccpnbTSa.s 			page 312


 17700 0508 00       		.byte	0
 17701 0509 00       		.byte	0
 17702 050a 57       		.uleb128 0x57
 17703 050b 2E       		.uleb128 0x2e
 17704 050c 01       		.byte	0x1
 17705 050d 03       		.uleb128 0x3
 17706 050e 0E       		.uleb128 0xe
 17707 050f 3A       		.uleb128 0x3a
 17708 0510 0B       		.uleb128 0xb
 17709 0511 3B       		.uleb128 0x3b
 17710 0512 05       		.uleb128 0x5
 17711 0513 39       		.uleb128 0x39
 17712 0514 0B       		.uleb128 0xb
 17713 0515 27       		.uleb128 0x27
 17714 0516 19       		.uleb128 0x19
 17715 0517 20       		.uleb128 0x20
 17716 0518 0B       		.uleb128 0xb
 17717 0519 01       		.uleb128 0x1
 17718 051a 13       		.uleb128 0x13
 17719 051b 00       		.byte	0
 17720 051c 00       		.byte	0
 17721 051d 58       		.uleb128 0x58
 17722 051e 2E       		.uleb128 0x2e
 17723 051f 01       		.byte	0x1
 17724 0520 03       		.uleb128 0x3
 17725 0521 0E       		.uleb128 0xe
 17726 0522 3A       		.uleb128 0x3a
 17727 0523 0B       		.uleb128 0xb
 17728 0524 3B       		.uleb128 0x3b
 17729 0525 05       		.uleb128 0x5
 17730 0526 39       		.uleb128 0x39
 17731 0527 0B       		.uleb128 0xb
 17732 0528 27       		.uleb128 0x27
 17733 0529 19       		.uleb128 0x19
 17734 052a 49       		.uleb128 0x49
 17735 052b 13       		.uleb128 0x13
 17736 052c 20       		.uleb128 0x20
 17737 052d 0B       		.uleb128 0xb
 17738 052e 01       		.uleb128 0x1
 17739 052f 13       		.uleb128 0x13
 17740 0530 00       		.byte	0
 17741 0531 00       		.byte	0
 17742 0532 59       		.uleb128 0x59
 17743 0533 2E       		.uleb128 0x2e
 17744 0534 00       		.byte	0
 17745 0535 03       		.uleb128 0x3
 17746 0536 0E       		.uleb128 0xe
 17747 0537 3A       		.uleb128 0x3a
 17748 0538 0B       		.uleb128 0xb
 17749 0539 3B       		.uleb128 0x3b
 17750 053a 05       		.uleb128 0x5
 17751 053b 39       		.uleb128 0x39
 17752 053c 0B       		.uleb128 0xb
 17753 053d 27       		.uleb128 0x27
 17754 053e 19       		.uleb128 0x19
 17755 053f 20       		.uleb128 0x20
 17756 0540 0B       		.uleb128 0xb
ARM GAS  /tmp/ccpnbTSa.s 			page 313


 17757 0541 00       		.byte	0
 17758 0542 00       		.byte	0
 17759 0543 5A       		.uleb128 0x5a
 17760 0544 2E       		.uleb128 0x2e
 17761 0545 01       		.byte	0x1
 17762 0546 31       		.uleb128 0x31
 17763 0547 13       		.uleb128 0x13
 17764 0548 11       		.uleb128 0x11
 17765 0549 01       		.uleb128 0x1
 17766 054a 12       		.uleb128 0x12
 17767 054b 06       		.uleb128 0x6
 17768 054c 40       		.uleb128 0x40
 17769 054d 18       		.uleb128 0x18
 17770 054e 9742     		.uleb128 0x2117
 17771 0550 19       		.uleb128 0x19
 17772 0551 01       		.uleb128 0x1
 17773 0552 13       		.uleb128 0x13
 17774 0553 00       		.byte	0
 17775 0554 00       		.byte	0
 17776 0555 5B       		.uleb128 0x5b
 17777 0556 2E       		.uleb128 0x2e
 17778 0557 00       		.byte	0
 17779 0558 3F       		.uleb128 0x3f
 17780 0559 19       		.uleb128 0x19
 17781 055a 3C       		.uleb128 0x3c
 17782 055b 19       		.uleb128 0x19
 17783 055c 6E       		.uleb128 0x6e
 17784 055d 0E       		.uleb128 0xe
 17785 055e 03       		.uleb128 0x3
 17786 055f 0E       		.uleb128 0xe
 17787 0560 3A       		.uleb128 0x3a
 17788 0561 0B       		.uleb128 0xb
 17789 0562 3B       		.uleb128 0x3b
 17790 0563 05       		.uleb128 0x5
 17791 0564 39       		.uleb128 0x39
 17792 0565 0B       		.uleb128 0xb
 17793 0566 00       		.byte	0
 17794 0567 00       		.byte	0
 17795 0568 5C       		.uleb128 0x5c
 17796 0569 2E       		.uleb128 0x2e
 17797 056a 00       		.byte	0
 17798 056b 3F       		.uleb128 0x3f
 17799 056c 19       		.uleb128 0x19
 17800 056d 3C       		.uleb128 0x3c
 17801 056e 19       		.uleb128 0x19
 17802 056f 6E       		.uleb128 0x6e
 17803 0570 0E       		.uleb128 0xe
 17804 0571 03       		.uleb128 0x3
 17805 0572 0E       		.uleb128 0xe
 17806 0573 3A       		.uleb128 0x3a
 17807 0574 0B       		.uleb128 0xb
 17808 0575 3B       		.uleb128 0x3b
 17809 0576 0B       		.uleb128 0xb
 17810 0577 39       		.uleb128 0x39
 17811 0578 0B       		.uleb128 0xb
 17812 0579 00       		.byte	0
 17813 057a 00       		.byte	0
ARM GAS  /tmp/ccpnbTSa.s 			page 314


 17814 057b 00       		.byte	0
 17815              		.section	.debug_loc,"",%progbits
 17816              	.Ldebug_loc0:
 17817              	.LVUS137:
 17818 0000 00       		.uleb128 0
 17819 0001 00       		.uleb128 .LVU1318
 17820 0002 00       		.uleb128 .LVU1318
 17821 0003 00       		.uleb128 .LVU1322
 17822 0004 00       		.uleb128 .LVU1322
 17823 0005 00       		.uleb128 .LVU1365
 17824 0006 00       		.uleb128 .LVU1365
 17825 0007 00       		.uleb128 .LVU1381
 17826 0008 00       		.uleb128 .LVU1381
 17827 0009 00       		.uleb128 .LVU1382
 17828 000a 00       		.uleb128 .LVU1382
 17829 000b 00       		.uleb128 0
 17830              	.LLST137:
 17831 000c 70080000 		.4byte	.LVL207-.Ltext0
 17832 0010 9B080000 		.4byte	.LVL209-1-.Ltext0
 17833 0014 0100     		.2byte	0x1
 17834 0016 50       		.byte	0x50
 17835 0017 9B080000 		.4byte	.LVL209-1-.Ltext0
 17836 001b A4080000 		.4byte	.LVL210-.Ltext0
 17837 001f 0100     		.2byte	0x1
 17838 0021 54       		.byte	0x54
 17839 0022 A4080000 		.4byte	.LVL210-.Ltext0
 17840 0026 CF080000 		.4byte	.LVL215-1-.Ltext0
 17841 002a 0100     		.2byte	0x1
 17842 002c 50       		.byte	0x50
 17843 002d CF080000 		.4byte	.LVL215-1-.Ltext0
 17844 0031 D6080000 		.4byte	.LVL217-.Ltext0
 17845 0035 0100     		.2byte	0x1
 17846 0037 54       		.byte	0x54
 17847 0038 D6080000 		.4byte	.LVL217-.Ltext0
 17848 003c DB080000 		.4byte	.LVL218-1-.Ltext0
 17849 0040 0100     		.2byte	0x1
 17850 0042 50       		.byte	0x50
 17851 0043 DB080000 		.4byte	.LVL218-1-.Ltext0
 17852 0047 F8080000 		.4byte	.LFE383-.Ltext0
 17853 004b 0100     		.2byte	0x1
 17854 004d 54       		.byte	0x54
 17855 004e 00000000 		.4byte	0
 17856 0052 00000000 		.4byte	0
 17857              	.LVUS138:
 17858 0056 00       		.uleb128 0
 17859 0057 00       		.uleb128 .LVU1310
 17860 0058 00       		.uleb128 .LVU1310
 17861 0059 00       		.uleb128 .LVU1322
 17862 005a 00       		.uleb128 .LVU1322
 17863 005b 00       		.uleb128 .LVU1323
 17864 005c 00       		.uleb128 .LVU1323
 17865 005d 00       		.uleb128 0
 17866              	.LLST138:
 17867 005e 70080000 		.4byte	.LVL207-.Ltext0
 17868 0062 7C080000 		.4byte	.LVL208-.Ltext0
 17869 0066 0100     		.2byte	0x1
 17870 0068 51       		.byte	0x51
ARM GAS  /tmp/ccpnbTSa.s 			page 315


 17871 0069 7C080000 		.4byte	.LVL208-.Ltext0
 17872 006d A4080000 		.4byte	.LVL210-.Ltext0
 17873 0071 0400     		.2byte	0x4
 17874 0073 F3       		.byte	0xf3
 17875 0074 01       		.uleb128 0x1
 17876 0075 51       		.byte	0x51
 17877 0076 9F       		.byte	0x9f
 17878 0077 A4080000 		.4byte	.LVL210-.Ltext0
 17879 007b A6080000 		.4byte	.LVL211-.Ltext0
 17880 007f 0100     		.2byte	0x1
 17881 0081 51       		.byte	0x51
 17882 0082 A6080000 		.4byte	.LVL211-.Ltext0
 17883 0086 F8080000 		.4byte	.LFE383-.Ltext0
 17884 008a 0400     		.2byte	0x4
 17885 008c F3       		.byte	0xf3
 17886 008d 01       		.uleb128 0x1
 17887 008e 51       		.byte	0x51
 17888 008f 9F       		.byte	0x9f
 17889 0090 00000000 		.4byte	0
 17890 0094 00000000 		.4byte	0
 17891              	.LVUS139:
 17892 0098 09       		.uleb128 .LVU1337
 17893 0099 00       		.uleb128 .LVU1339
 17894              	.LLST139:
 17895 009a B2080000 		.4byte	.LVL212-.Ltext0
 17896 009e B6080000 		.4byte	.LVL213-.Ltext0
 17897 00a2 0300     		.2byte	0x3
 17898 00a4 08       		.byte	0x8
 17899 00a5 20       		.byte	0x20
 17900 00a6 9F       		.byte	0x9f
 17901 00a7 00000000 		.4byte	0
 17902 00ab 00000000 		.4byte	0
 17903              	.LVUS140:
 17904 00af 04       		.uleb128 .LVU1343
 17905 00b0 00       		.uleb128 .LVU1365
 17906              	.LLST140:
 17907 00b1 B6080000 		.4byte	.LVL213-.Ltext0
 17908 00b5 D0080000 		.4byte	.LVL215-.Ltext0
 17909 00b9 0200     		.2byte	0x2
 17910 00bb 30       		.byte	0x30
 17911 00bc 9F       		.byte	0x9f
 17912 00bd 00000000 		.4byte	0
 17913 00c1 00000000 		.4byte	0
 17914              	.LVUS143:
 17915 00c5 04       		.uleb128 .LVU1343
 17916 00c6 00       		.uleb128 .LVU1365
 17917 00c7 00       		.uleb128 .LVU1365
 17918 00c8 00       		.uleb128 .LVU1365
 17919              	.LLST143:
 17920 00c9 B6080000 		.4byte	.LVL213-.Ltext0
 17921 00cd CF080000 		.4byte	.LVL215-1-.Ltext0
 17922 00d1 0100     		.2byte	0x1
 17923 00d3 50       		.byte	0x50
 17924 00d4 CF080000 		.4byte	.LVL215-1-.Ltext0
 17925 00d8 D0080000 		.4byte	.LVL215-.Ltext0
 17926 00dc 0100     		.2byte	0x1
 17927 00de 54       		.byte	0x54
ARM GAS  /tmp/ccpnbTSa.s 			page 316


 17928 00df 00000000 		.4byte	0
 17929 00e3 00000000 		.4byte	0
 17930              	.LVUS144:
 17931 00e7 01       		.uleb128 .LVU1358
 17932 00e8 00       		.uleb128 .LVU1365
 17933              	.LLST144:
 17934 00e9 C4080000 		.4byte	.LVL214-.Ltext0
 17935 00ed CF080000 		.4byte	.LVL215-1-.Ltext0
 17936 00f1 0100     		.2byte	0x1
 17937 00f3 53       		.byte	0x53
 17938 00f4 00000000 		.4byte	0
 17939 00f8 00000000 		.4byte	0
 17940              	.LVUS145:
 17941 00fc 0C       		.uleb128 .LVU1377
 17942 00fd 00       		.uleb128 .LVU1379
 17943              	.LLST145:
 17944 00fe D0080000 		.4byte	.LVL215-.Ltext0
 17945 0102 D4080000 		.4byte	.LVL216-.Ltext0
 17946 0106 0200     		.2byte	0x2
 17947 0108 30       		.byte	0x30
 17948 0109 9F       		.byte	0x9f
 17949 010a 00000000 		.4byte	0
 17950 010e 00000000 		.4byte	0
 17951              	.LVUS118:
 17952 0112 00       		.uleb128 0
 17953 0113 00       		.uleb128 .LVU1158
 17954 0114 00       		.uleb128 .LVU1158
 17955 0115 00       		.uleb128 .LVU1166
 17956 0116 00       		.uleb128 .LVU1166
 17957 0117 00       		.uleb128 .LVU1213
 17958 0118 00       		.uleb128 .LVU1213
 17959 0119 00       		.uleb128 .LVU1241
 17960 011a 00       		.uleb128 .LVU1241
 17961 011b 00       		.uleb128 .LVU1245
 17962 011c 00       		.uleb128 .LVU1245
 17963 011d 00       		.uleb128 .LVU1249
 17964 011e 00       		.uleb128 .LVU1249
 17965 011f 00       		.uleb128 .LVU1286
 17966 0120 00       		.uleb128 .LVU1286
 17967 0121 00       		.uleb128 0
 17968              	.LLST118:
 17969 0122 90070000 		.4byte	.LVL185-.Ltext0
 17970 0126 BB070000 		.4byte	.LVL187-1-.Ltext0
 17971 012a 0100     		.2byte	0x1
 17972 012c 50       		.byte	0x50
 17973 012d BB070000 		.4byte	.LVL187-1-.Ltext0
 17974 0131 D8070000 		.4byte	.LVL190-.Ltext0
 17975 0135 0100     		.2byte	0x1
 17976 0137 54       		.byte	0x54
 17977 0138 D8070000 		.4byte	.LVL190-.Ltext0
 17978 013c 0C080000 		.4byte	.LVL195-.Ltext0
 17979 0140 0100     		.2byte	0x1
 17980 0142 50       		.byte	0x50
 17981 0143 0C080000 		.4byte	.LVL195-.Ltext0
 17982 0147 28080000 		.4byte	.LVL199-.Ltext0
 17983 014b 0100     		.2byte	0x1
 17984 014d 54       		.byte	0x54
ARM GAS  /tmp/ccpnbTSa.s 			page 317


 17985 014e 28080000 		.4byte	.LVL199-.Ltext0
 17986 0152 2D080000 		.4byte	.LVL200-1-.Ltext0
 17987 0156 0100     		.2byte	0x1
 17988 0158 50       		.byte	0x50
 17989 0159 2D080000 		.4byte	.LVL200-1-.Ltext0
 17990 015d 36080000 		.4byte	.LVL201-.Ltext0
 17991 0161 0100     		.2byte	0x1
 17992 0163 54       		.byte	0x54
 17993 0164 36080000 		.4byte	.LVL201-.Ltext0
 17994 0168 55080000 		.4byte	.LVL205-1-.Ltext0
 17995 016c 0100     		.2byte	0x1
 17996 016e 50       		.byte	0x50
 17997 016f 55080000 		.4byte	.LVL205-1-.Ltext0
 17998 0173 62080000 		.4byte	.LFE382-.Ltext0
 17999 0177 0100     		.2byte	0x1
 18000 0179 54       		.byte	0x54
 18001 017a 00000000 		.4byte	0
 18002 017e 00000000 		.4byte	0
 18003              	.LVUS119:
 18004 0182 00       		.uleb128 0
 18005 0183 00       		.uleb128 .LVU1157
 18006 0184 00       		.uleb128 .LVU1157
 18007 0185 00       		.uleb128 .LVU1166
 18008 0186 00       		.uleb128 .LVU1166
 18009 0187 00       		.uleb128 .LVU1175
 18010 0188 00       		.uleb128 .LVU1175
 18011 0189 00       		.uleb128 .LVU1241
 18012 018a 00       		.uleb128 .LVU1241
 18013 018b 00       		.uleb128 .LVU1245
 18014 018c 00       		.uleb128 .LVU1245
 18015 018d 00       		.uleb128 0
 18016              	.LLST119:
 18017 018e 90070000 		.4byte	.LVL185-.Ltext0
 18018 0192 B8070000 		.4byte	.LVL186-.Ltext0
 18019 0196 0100     		.2byte	0x1
 18020 0198 51       		.byte	0x51
 18021 0199 B8070000 		.4byte	.LVL186-.Ltext0
 18022 019d D8070000 		.4byte	.LVL190-.Ltext0
 18023 01a1 0400     		.2byte	0x4
 18024 01a3 F3       		.byte	0xf3
 18025 01a4 01       		.uleb128 0x1
 18026 01a5 51       		.byte	0x51
 18027 01a6 9F       		.byte	0x9f
 18028 01a7 D8070000 		.4byte	.LVL190-.Ltext0
 18029 01ab DC070000 		.4byte	.LVL191-.Ltext0
 18030 01af 0100     		.2byte	0x1
 18031 01b1 51       		.byte	0x51
 18032 01b2 DC070000 		.4byte	.LVL191-.Ltext0
 18033 01b6 28080000 		.4byte	.LVL199-.Ltext0
 18034 01ba 0400     		.2byte	0x4
 18035 01bc F3       		.byte	0xf3
 18036 01bd 01       		.uleb128 0x1
 18037 01be 51       		.byte	0x51
 18038 01bf 9F       		.byte	0x9f
 18039 01c0 28080000 		.4byte	.LVL199-.Ltext0
 18040 01c4 2D080000 		.4byte	.LVL200-1-.Ltext0
 18041 01c8 0100     		.2byte	0x1
ARM GAS  /tmp/ccpnbTSa.s 			page 318


 18042 01ca 51       		.byte	0x51
 18043 01cb 2D080000 		.4byte	.LVL200-1-.Ltext0
 18044 01cf 62080000 		.4byte	.LFE382-.Ltext0
 18045 01d3 0400     		.2byte	0x4
 18046 01d5 F3       		.byte	0xf3
 18047 01d6 01       		.uleb128 0x1
 18048 01d7 51       		.byte	0x51
 18049 01d8 9F       		.byte	0x9f
 18050 01d9 00000000 		.4byte	0
 18051 01dd 00000000 		.4byte	0
 18052              	.LVUS120:
 18053 01e1 06       		.uleb128 .LVU1172
 18054 01e2 00       		.uleb128 .LVU1175
 18055 01e3 00       		.uleb128 .LVU1175
 18056 01e4 00       		.uleb128 .LVU1182
 18057 01e5 00       		.uleb128 .LVU1249
 18058 01e6 00       		.uleb128 .LVU1274
 18059 01e7 00       		.uleb128 .LVU1274
 18060 01e8 00       		.uleb128 .LVU1278
 18061              	.LLST120:
 18062 01e9 D8070000 		.4byte	.LVL190-.Ltext0
 18063 01ed DC070000 		.4byte	.LVL191-.Ltext0
 18064 01f1 1800     		.2byte	0x18
 18065 01f3 70       		.byte	0x70
 18066 01f4 8701     		.sleb128 135
 18067 01f6 94       		.byte	0x94
 18068 01f7 01       		.byte	0x1
 18069 01f8 08       		.byte	0x8
 18070 01f9 FF       		.byte	0xff
 18071 01fa 1A       		.byte	0x1a
 18072 01fb 38       		.byte	0x38
 18073 01fc 24       		.byte	0x24
 18074 01fd 70       		.byte	0x70
 18075 01fe 8601     		.sleb128 134
 18076 0200 94       		.byte	0x94
 18077 0201 01       		.byte	0x1
 18078 0202 08       		.byte	0x8
 18079 0203 FF       		.byte	0xff
 18080 0204 1A       		.byte	0x1a
 18081 0205 21       		.byte	0x21
 18082 0206 0A       		.byte	0xa
 18083 0207 FFFF     		.2byte	0xffff
 18084 0209 1A       		.byte	0x1a
 18085 020a 9F       		.byte	0x9f
 18086 020b DC070000 		.4byte	.LVL191-.Ltext0
 18087 020f F8070000 		.4byte	.LVL192-.Ltext0
 18088 0213 1200     		.2byte	0x12
 18089 0215 71       		.byte	0x71
 18090 0216 00       		.sleb128 0
 18091 0217 38       		.byte	0x38
 18092 0218 24       		.byte	0x24
 18093 0219 70       		.byte	0x70
 18094 021a 8601     		.sleb128 134
 18095 021c 94       		.byte	0x94
 18096 021d 01       		.byte	0x1
 18097 021e 08       		.byte	0x8
 18098 021f FF       		.byte	0xff
ARM GAS  /tmp/ccpnbTSa.s 			page 319


 18099 0220 1A       		.byte	0x1a
 18100 0221 21       		.byte	0x21
 18101 0222 0A       		.byte	0xa
 18102 0223 FFFF     		.2byte	0xffff
 18103 0225 1A       		.byte	0x1a
 18104 0226 9F       		.byte	0x9f
 18105 0227 36080000 		.4byte	.LVL201-.Ltext0
 18106 022b 40080000 		.4byte	.LVL203-.Ltext0
 18107 022f 1200     		.2byte	0x12
 18108 0231 71       		.byte	0x71
 18109 0232 00       		.sleb128 0
 18110 0233 38       		.byte	0x38
 18111 0234 24       		.byte	0x24
 18112 0235 70       		.byte	0x70
 18113 0236 8601     		.sleb128 134
 18114 0238 94       		.byte	0x94
 18115 0239 01       		.byte	0x1
 18116 023a 08       		.byte	0x8
 18117 023b FF       		.byte	0xff
 18118 023c 1A       		.byte	0x1a
 18119 023d 21       		.byte	0x21
 18120 023e 0A       		.byte	0xa
 18121 023f FFFF     		.2byte	0xffff
 18122 0241 1A       		.byte	0x1a
 18123 0242 9F       		.byte	0x9f
 18124 0243 40080000 		.4byte	.LVL203-.Ltext0
 18125 0247 4A080000 		.4byte	.LVL204-.Ltext0
 18126 024b 1800     		.2byte	0x18
 18127 024d 70       		.byte	0x70
 18128 024e 8701     		.sleb128 135
 18129 0250 94       		.byte	0x94
 18130 0251 01       		.byte	0x1
 18131 0252 08       		.byte	0x8
 18132 0253 FF       		.byte	0xff
 18133 0254 1A       		.byte	0x1a
 18134 0255 38       		.byte	0x38
 18135 0256 24       		.byte	0x24
 18136 0257 70       		.byte	0x70
 18137 0258 8601     		.sleb128 134
 18138 025a 94       		.byte	0x94
 18139 025b 01       		.byte	0x1
 18140 025c 08       		.byte	0x8
 18141 025d FF       		.byte	0xff
 18142 025e 1A       		.byte	0x1a
 18143 025f 21       		.byte	0x21
 18144 0260 0A       		.byte	0xa
 18145 0261 FFFF     		.2byte	0xffff
 18146 0263 1A       		.byte	0x1a
 18147 0264 9F       		.byte	0x9f
 18148 0265 00000000 		.4byte	0
 18149 0269 00000000 		.4byte	0
 18150              	.LVUS121:
 18151 026d 01       		.uleb128 .LVU1167
 18152 026e 04       		.uleb128 .LVU1170
 18153 026f 04       		.uleb128 .LVU1170
 18154 0270 06       		.uleb128 .LVU1172
 18155              	.LLST121:
ARM GAS  /tmp/ccpnbTSa.s 			page 320


 18156 0271 D8070000 		.4byte	.LVL190-.Ltext0
 18157 0275 D8070000 		.4byte	.LVL190-.Ltext0
 18158 0279 0400     		.2byte	0x4
 18159 027b 70       		.byte	0x70
 18160 027c 8601     		.sleb128 134
 18161 027e 9F       		.byte	0x9f
 18162 027f D8070000 		.4byte	.LVL190-.Ltext0
 18163 0283 D8070000 		.4byte	.LVL190-.Ltext0
 18164 0287 0400     		.2byte	0x4
 18165 0289 70       		.byte	0x70
 18166 028a 8701     		.sleb128 135
 18167 028c 9F       		.byte	0x9f
 18168 028d 00000000 		.4byte	0
 18169 0291 00000000 		.4byte	0
 18170              	.LVUS122:
 18171 0295 04       		.uleb128 .LVU1170
 18172 0296 05       		.uleb128 .LVU1171
 18173 0297 05       		.uleb128 .LVU1171
 18174 0298 06       		.uleb128 .LVU1172
 18175              	.LLST122:
 18176 0299 D8070000 		.4byte	.LVL190-.Ltext0
 18177 029d D8070000 		.4byte	.LVL190-.Ltext0
 18178 02a1 0900     		.2byte	0x9
 18179 02a3 70       		.byte	0x70
 18180 02a4 8601     		.sleb128 134
 18181 02a6 94       		.byte	0x94
 18182 02a7 01       		.byte	0x1
 18183 02a8 08       		.byte	0x8
 18184 02a9 FF       		.byte	0xff
 18185 02aa 1A       		.byte	0x1a
 18186 02ab 9F       		.byte	0x9f
 18187 02ac D8070000 		.4byte	.LVL190-.Ltext0
 18188 02b0 D8070000 		.4byte	.LVL190-.Ltext0
 18189 02b4 1400     		.2byte	0x14
 18190 02b6 70       		.byte	0x70
 18191 02b7 8701     		.sleb128 135
 18192 02b9 94       		.byte	0x94
 18193 02ba 01       		.byte	0x1
 18194 02bb 08       		.byte	0x8
 18195 02bc FF       		.byte	0xff
 18196 02bd 1A       		.byte	0x1a
 18197 02be 38       		.byte	0x38
 18198 02bf 24       		.byte	0x24
 18199 02c0 70       		.byte	0x70
 18200 02c1 8601     		.sleb128 134
 18201 02c3 94       		.byte	0x94
 18202 02c4 01       		.byte	0x1
 18203 02c5 08       		.byte	0x8
 18204 02c6 FF       		.byte	0xff
 18205 02c7 1A       		.byte	0x1a
 18206 02c8 21       		.byte	0x21
 18207 02c9 9F       		.byte	0x9f
 18208 02ca 00000000 		.4byte	0
 18209 02ce 00000000 		.4byte	0
 18210              	.LVUS123:
 18211 02d2 09       		.uleb128 .LVU1195
 18212 02d3 00       		.uleb128 .LVU1197
ARM GAS  /tmp/ccpnbTSa.s 			page 321


 18213              	.LLST123:
 18214 02d4 00080000 		.4byte	.LVL193-.Ltext0
 18215 02d8 04080000 		.4byte	.LVL194-.Ltext0
 18216 02dc 0300     		.2byte	0x3
 18217 02de 08       		.byte	0x8
 18218 02df 20       		.byte	0x20
 18219 02e0 9F       		.byte	0x9f
 18220 02e1 00000000 		.4byte	0
 18221 02e5 00000000 		.4byte	0
 18222              	.LVUS124:
 18223 02e9 04       		.uleb128 .LVU1201
 18224 02ea 00       		.uleb128 .LVU1225
 18225              	.LLST124:
 18226 02eb 04080000 		.4byte	.LVL194-.Ltext0
 18227 02ef 22080000 		.4byte	.LVL197-.Ltext0
 18228 02f3 0200     		.2byte	0x2
 18229 02f5 30       		.byte	0x30
 18230 02f6 9F       		.byte	0x9f
 18231 02f7 00000000 		.4byte	0
 18232 02fb 00000000 		.4byte	0
 18233              	.LVUS127:
 18234 02ff 04       		.uleb128 .LVU1201
 18235 0300 00       		.uleb128 .LVU1225
 18236 0301 00       		.uleb128 .LVU1225
 18237 0302 00       		.uleb128 .LVU1225
 18238              	.LLST127:
 18239 0303 04080000 		.4byte	.LVL194-.Ltext0
 18240 0307 21080000 		.4byte	.LVL197-1-.Ltext0
 18241 030b 0100     		.2byte	0x1
 18242 030d 50       		.byte	0x50
 18243 030e 21080000 		.4byte	.LVL197-1-.Ltext0
 18244 0312 22080000 		.4byte	.LVL197-.Ltext0
 18245 0316 0100     		.2byte	0x1
 18246 0318 54       		.byte	0x54
 18247 0319 00000000 		.4byte	0
 18248 031d 00000000 		.4byte	0
 18249              	.LVUS128:
 18250 0321 01       		.uleb128 .LVU1218
 18251 0322 00       		.uleb128 .LVU1225
 18252              	.LLST128:
 18253 0323 16080000 		.4byte	.LVL196-.Ltext0
 18254 0327 21080000 		.4byte	.LVL197-1-.Ltext0
 18255 032b 0100     		.2byte	0x1
 18256 032d 53       		.byte	0x53
 18257 032e 00000000 		.4byte	0
 18258 0332 00000000 		.4byte	0
 18259              	.LVUS129:
 18260 0336 0C       		.uleb128 .LVU1237
 18261 0337 00       		.uleb128 .LVU1239
 18262              	.LLST129:
 18263 0338 22080000 		.4byte	.LVL197-.Ltext0
 18264 033c 26080000 		.4byte	.LVL198-.Ltext0
 18265 0340 0200     		.2byte	0x2
 18266 0342 30       		.byte	0x30
 18267 0343 9F       		.byte	0x9f
 18268 0344 00000000 		.4byte	0
 18269 0348 00000000 		.4byte	0
ARM GAS  /tmp/ccpnbTSa.s 			page 322


 18270              	.LVUS130:
 18271 034c 09       		.uleb128 .LVU1258
 18272 034d 00       		.uleb128 .LVU1260
 18273              	.LLST130:
 18274 034e 36080000 		.4byte	.LVL201-.Ltext0
 18275 0352 3C080000 		.4byte	.LVL202-.Ltext0
 18276 0356 0300     		.2byte	0x3
 18277 0358 08       		.byte	0x8
 18278 0359 20       		.byte	0x20
 18279 035a 9F       		.byte	0x9f
 18280 035b 00000000 		.4byte	0
 18281 035f 00000000 		.4byte	0
 18282              	.LVUS131:
 18283 0363 04       		.uleb128 .LVU1264
 18284 0364 00       		.uleb128 .LVU1286
 18285              	.LLST131:
 18286 0365 3C080000 		.4byte	.LVL202-.Ltext0
 18287 0369 56080000 		.4byte	.LVL205-.Ltext0
 18288 036d 0200     		.2byte	0x2
 18289 036f 30       		.byte	0x30
 18290 0370 9F       		.byte	0x9f
 18291 0371 00000000 		.4byte	0
 18292 0375 00000000 		.4byte	0
 18293              	.LVUS134:
 18294 0379 04       		.uleb128 .LVU1264
 18295 037a 00       		.uleb128 .LVU1286
 18296 037b 00       		.uleb128 .LVU1286
 18297 037c 00       		.uleb128 .LVU1286
 18298              	.LLST134:
 18299 037d 3C080000 		.4byte	.LVL202-.Ltext0
 18300 0381 55080000 		.4byte	.LVL205-1-.Ltext0
 18301 0385 0100     		.2byte	0x1
 18302 0387 50       		.byte	0x50
 18303 0388 55080000 		.4byte	.LVL205-1-.Ltext0
 18304 038c 56080000 		.4byte	.LVL205-.Ltext0
 18305 0390 0100     		.2byte	0x1
 18306 0392 54       		.byte	0x54
 18307 0393 00000000 		.4byte	0
 18308 0397 00000000 		.4byte	0
 18309              	.LVUS135:
 18310 039b 01       		.uleb128 .LVU1279
 18311 039c 00       		.uleb128 .LVU1286
 18312              	.LLST135:
 18313 039d 4A080000 		.4byte	.LVL204-.Ltext0
 18314 03a1 55080000 		.4byte	.LVL205-1-.Ltext0
 18315 03a5 0100     		.2byte	0x1
 18316 03a7 53       		.byte	0x53
 18317 03a8 00000000 		.4byte	0
 18318 03ac 00000000 		.4byte	0
 18319              	.LVUS136:
 18320 03b0 0C       		.uleb128 .LVU1298
 18321 03b1 00       		.uleb128 .LVU1300
 18322              	.LLST136:
 18323 03b2 56080000 		.4byte	.LVL205-.Ltext0
 18324 03b6 5A080000 		.4byte	.LVL206-.Ltext0
 18325 03ba 0200     		.2byte	0x2
 18326 03bc 30       		.byte	0x30
ARM GAS  /tmp/ccpnbTSa.s 			page 323


 18327 03bd 9F       		.byte	0x9f
 18328 03be 00000000 		.4byte	0
 18329 03c2 00000000 		.4byte	0
 18330              	.LVUS78:
 18331 03c6 00       		.uleb128 0
 18332 03c7 00       		.uleb128 .LVU658
 18333 03c8 00       		.uleb128 .LVU658
 18334 03c9 00       		.uleb128 .LVU1002
 18335 03ca 00       		.uleb128 .LVU1002
 18336 03cb 00       		.uleb128 .LVU1003
 18337 03cc 00       		.uleb128 .LVU1003
 18338 03cd 00       		.uleb128 .LVU1008
 18339 03ce 00       		.uleb128 .LVU1008
 18340 03cf 00       		.uleb128 .LVU1010
 18341 03d0 00       		.uleb128 .LVU1010
 18342 03d1 00       		.uleb128 .LVU1027
 18343 03d2 00       		.uleb128 .LVU1027
 18344 03d3 00       		.uleb128 .LVU1028
 18345 03d4 00       		.uleb128 .LVU1028
 18346 03d5 00       		.uleb128 .LVU1097
 18347 03d6 00       		.uleb128 .LVU1097
 18348 03d7 00       		.uleb128 .LVU1099
 18349 03d8 00       		.uleb128 .LVU1099
 18350 03d9 00       		.uleb128 .LVU1144
 18351 03da 00       		.uleb128 .LVU1144
 18352 03db 00       		.uleb128 .LVU1145
 18353 03dc 00       		.uleb128 .LVU1145
 18354 03dd 00       		.uleb128 .LVU1146
 18355 03de 00       		.uleb128 .LVU1146
 18356 03df 00       		.uleb128 .LVU1147
 18357 03e0 00       		.uleb128 .LVU1147
 18358 03e1 00       		.uleb128 0
 18359              	.LLST78:
 18360 03e2 00040000 		.4byte	.LVL103-.Ltext0
 18361 03e6 16040000 		.4byte	.LVL104-.Ltext0
 18362 03ea 0100     		.2byte	0x1
 18363 03ec 50       		.byte	0x50
 18364 03ed 16040000 		.4byte	.LVL104-.Ltext0
 18365 03f1 30060000 		.4byte	.LVL156-.Ltext0
 18366 03f5 0100     		.2byte	0x1
 18367 03f7 54       		.byte	0x54
 18368 03f8 30060000 		.4byte	.LVL156-.Ltext0
 18369 03fc 33060000 		.4byte	.LVL157-1-.Ltext0
 18370 0400 0100     		.2byte	0x1
 18371 0402 50       		.byte	0x50
 18372 0403 33060000 		.4byte	.LVL157-1-.Ltext0
 18373 0407 48060000 		.4byte	.LVL158-.Ltext0
 18374 040b 0100     		.2byte	0x1
 18375 040d 54       		.byte	0x54
 18376 040e 48060000 		.4byte	.LVL158-.Ltext0
 18377 0412 4B060000 		.4byte	.LVL159-1-.Ltext0
 18378 0416 0100     		.2byte	0x1
 18379 0418 50       		.byte	0x50
 18380 0419 4B060000 		.4byte	.LVL159-1-.Ltext0
 18381 041d 80060000 		.4byte	.LVL162-.Ltext0
 18382 0421 0100     		.2byte	0x1
 18383 0423 54       		.byte	0x54
ARM GAS  /tmp/ccpnbTSa.s 			page 324


 18384 0424 80060000 		.4byte	.LVL162-.Ltext0
 18385 0428 83060000 		.4byte	.LVL163-1-.Ltext0
 18386 042c 0100     		.2byte	0x1
 18387 042e 50       		.byte	0x50
 18388 042f 83060000 		.4byte	.LVL163-1-.Ltext0
 18389 0433 26070000 		.4byte	.LVL173-.Ltext0
 18390 0437 0100     		.2byte	0x1
 18391 0439 54       		.byte	0x54
 18392 043a 26070000 		.4byte	.LVL173-.Ltext0
 18393 043e 29070000 		.4byte	.LVL174-1-.Ltext0
 18394 0442 0100     		.2byte	0x1
 18395 0444 50       		.byte	0x50
 18396 0445 29070000 		.4byte	.LVL174-1-.Ltext0
 18397 0449 62070000 		.4byte	.LVL181-.Ltext0
 18398 044d 0100     		.2byte	0x1
 18399 044f 54       		.byte	0x54
 18400 0450 62070000 		.4byte	.LVL181-.Ltext0
 18401 0454 65070000 		.4byte	.LVL182-1-.Ltext0
 18402 0458 0100     		.2byte	0x1
 18403 045a 50       		.byte	0x50
 18404 045b 65070000 		.4byte	.LVL182-1-.Ltext0
 18405 045f 6C070000 		.4byte	.LVL183-.Ltext0
 18406 0463 0100     		.2byte	0x1
 18407 0465 54       		.byte	0x54
 18408 0466 6C070000 		.4byte	.LVL183-.Ltext0
 18409 046a 6F070000 		.4byte	.LVL184-1-.Ltext0
 18410 046e 0100     		.2byte	0x1
 18411 0470 50       		.byte	0x50
 18412 0471 6F070000 		.4byte	.LVL184-1-.Ltext0
 18413 0475 84070000 		.4byte	.LFE381-.Ltext0
 18414 0479 0100     		.2byte	0x1
 18415 047b 54       		.byte	0x54
 18416 047c 00000000 		.4byte	0
 18417 0480 00000000 		.4byte	0
 18418              	.LVUS79:
 18419 0484 00       		.uleb128 0
 18420 0485 00       		.uleb128 .LVU659
 18421 0486 00       		.uleb128 .LVU659
 18422 0487 00       		.uleb128 0
 18423              	.LLST79:
 18424 0488 00040000 		.4byte	.LVL103-.Ltext0
 18425 048c 19040000 		.4byte	.LVL105-1-.Ltext0
 18426 0490 0100     		.2byte	0x1
 18427 0492 51       		.byte	0x51
 18428 0493 19040000 		.4byte	.LVL105-1-.Ltext0
 18429 0497 84070000 		.4byte	.LFE381-.Ltext0
 18430 049b 0400     		.2byte	0x4
 18431 049d F3       		.byte	0xf3
 18432 049e 01       		.uleb128 0x1
 18433 049f 51       		.byte	0x51
 18434 04a0 9F       		.byte	0x9f
 18435 04a1 00000000 		.4byte	0
 18436 04a5 00000000 		.4byte	0
 18437              	.LVUS80:
 18438 04a9 00       		.uleb128 .LVU673
 18439 04aa 00       		.uleb128 .LVU684
 18440 04ab 00       		.uleb128 .LVU684
ARM GAS  /tmp/ccpnbTSa.s 			page 325


 18441 04ac 00       		.uleb128 .LVU709
 18442 04ad 00       		.uleb128 .LVU709
 18443 04ae 00       		.uleb128 .LVU722
 18444 04af 09       		.uleb128 .LVU796
 18445 04b0 00       		.uleb128 .LVU800
 18446 04b1 00       		.uleb128 .LVU859
 18447 04b2 00       		.uleb128 .LVU864
 18448 04b3 00       		.uleb128 .LVU864
 18449 04b4 00       		.uleb128 .LVU889
 18450 04b5 00       		.uleb128 .LVU889
 18451 04b6 00       		.uleb128 .LVU902
 18452              	.LLST80:
 18453 04b7 38040000 		.4byte	.LVL108-.Ltext0
 18454 04bb 50040000 		.4byte	.LVL109-.Ltext0
 18455 04bf 0100     		.2byte	0x1
 18456 04c1 53       		.byte	0x53
 18457 04c2 50040000 		.4byte	.LVL109-.Ltext0
 18458 04c6 6A040000 		.4byte	.LVL112-.Ltext0
 18459 04ca 0E00     		.2byte	0xe
 18460 04cc 71       		.byte	0x71
 18461 04cd 00       		.sleb128 0
 18462 04ce 38       		.byte	0x38
 18463 04cf 24       		.byte	0x24
 18464 04d0 74       		.byte	0x74
 18465 04d1 8601     		.sleb128 134
 18466 04d3 94       		.byte	0x94
 18467 04d4 01       		.byte	0x1
 18468 04d5 08       		.byte	0x8
 18469 04d6 FF       		.byte	0xff
 18470 04d7 1A       		.byte	0x1a
 18471 04d8 21       		.byte	0x21
 18472 04d9 9F       		.byte	0x9f
 18473 04da 6A040000 		.4byte	.LVL112-.Ltext0
 18474 04de 70040000 		.4byte	.LVL114-.Ltext0
 18475 04e2 1400     		.2byte	0x14
 18476 04e4 74       		.byte	0x74
 18477 04e5 8701     		.sleb128 135
 18478 04e7 94       		.byte	0x94
 18479 04e8 01       		.byte	0x1
 18480 04e9 08       		.byte	0x8
 18481 04ea FF       		.byte	0xff
 18482 04eb 1A       		.byte	0x1a
 18483 04ec 38       		.byte	0x38
 18484 04ed 24       		.byte	0x24
 18485 04ee 74       		.byte	0x74
 18486 04ef 8601     		.sleb128 134
 18487 04f1 94       		.byte	0x94
 18488 04f2 01       		.byte	0x1
 18489 04f3 08       		.byte	0x8
 18490 04f4 FF       		.byte	0xff
 18491 04f5 1A       		.byte	0x1a
 18492 04f6 21       		.byte	0x21
 18493 04f7 9F       		.byte	0x9f
 18494 04f8 58050000 		.4byte	.LVL130-.Ltext0
 18495 04fc 5C050000 		.4byte	.LVL131-.Ltext0
 18496 0500 1800     		.2byte	0x18
 18497 0502 74       		.byte	0x74
ARM GAS  /tmp/ccpnbTSa.s 			page 326


 18498 0503 8701     		.sleb128 135
 18499 0505 94       		.byte	0x94
 18500 0506 01       		.byte	0x1
 18501 0507 08       		.byte	0x8
 18502 0508 FF       		.byte	0xff
 18503 0509 1A       		.byte	0x1a
 18504 050a 38       		.byte	0x38
 18505 050b 24       		.byte	0x24
 18506 050c 74       		.byte	0x74
 18507 050d 8601     		.sleb128 134
 18508 050f 94       		.byte	0x94
 18509 0510 01       		.byte	0x1
 18510 0511 08       		.byte	0x8
 18511 0512 FF       		.byte	0xff
 18512 0513 1A       		.byte	0x1a
 18513 0514 21       		.byte	0x21
 18514 0515 0A       		.byte	0xa
 18515 0516 FFFF     		.2byte	0xffff
 18516 0518 1A       		.byte	0x1a
 18517 0519 9F       		.byte	0x9f
 18518 051a 8C050000 		.4byte	.LVL137-.Ltext0
 18519 051e 92050000 		.4byte	.LVL138-.Ltext0
 18520 0522 0100     		.2byte	0x1
 18521 0524 53       		.byte	0x53
 18522 0525 92050000 		.4byte	.LVL138-.Ltext0
 18523 0529 AC050000 		.4byte	.LVL141-.Ltext0
 18524 052d 0E00     		.2byte	0xe
 18525 052f 71       		.byte	0x71
 18526 0530 00       		.sleb128 0
 18527 0531 38       		.byte	0x38
 18528 0532 24       		.byte	0x24
 18529 0533 74       		.byte	0x74
 18530 0534 8601     		.sleb128 134
 18531 0536 94       		.byte	0x94
 18532 0537 01       		.byte	0x1
 18533 0538 08       		.byte	0x8
 18534 0539 FF       		.byte	0xff
 18535 053a 1A       		.byte	0x1a
 18536 053b 21       		.byte	0x21
 18537 053c 9F       		.byte	0x9f
 18538 053d AC050000 		.4byte	.LVL141-.Ltext0
 18539 0541 B2050000 		.4byte	.LVL143-.Ltext0
 18540 0545 1400     		.2byte	0x14
 18541 0547 74       		.byte	0x74
 18542 0548 8701     		.sleb128 135
 18543 054a 94       		.byte	0x94
 18544 054b 01       		.byte	0x1
 18545 054c 08       		.byte	0x8
 18546 054d FF       		.byte	0xff
 18547 054e 1A       		.byte	0x1a
 18548 054f 38       		.byte	0x38
 18549 0550 24       		.byte	0x24
 18550 0551 74       		.byte	0x74
 18551 0552 8601     		.sleb128 134
 18552 0554 94       		.byte	0x94
 18553 0555 01       		.byte	0x1
 18554 0556 08       		.byte	0x8
ARM GAS  /tmp/ccpnbTSa.s 			page 327


 18555 0557 FF       		.byte	0xff
 18556 0558 1A       		.byte	0x1a
 18557 0559 21       		.byte	0x21
 18558 055a 9F       		.byte	0x9f
 18559 055b 00000000 		.4byte	0
 18560 055f 00000000 		.4byte	0
 18561              	.LVUS81:
 18562 0563 01       		.uleb128 .LVU665
 18563 0564 04       		.uleb128 .LVU668
 18564 0565 04       		.uleb128 .LVU668
 18565 0566 06       		.uleb128 .LVU670
 18566 0567 04       		.uleb128 .LVU791
 18567 0568 07       		.uleb128 .LVU794
 18568 0569 07       		.uleb128 .LVU794
 18569 056a 09       		.uleb128 .LVU796
 18570              	.LLST81:
 18571 056b 2C040000 		.4byte	.LVL107-.Ltext0
 18572 056f 2C040000 		.4byte	.LVL107-.Ltext0
 18573 0573 0400     		.2byte	0x4
 18574 0575 74       		.byte	0x74
 18575 0576 8601     		.sleb128 134
 18576 0578 9F       		.byte	0x9f
 18577 0579 2C040000 		.4byte	.LVL107-.Ltext0
 18578 057d 2C040000 		.4byte	.LVL107-.Ltext0
 18579 0581 0400     		.2byte	0x4
 18580 0583 74       		.byte	0x74
 18581 0584 8701     		.sleb128 135
 18582 0586 9F       		.byte	0x9f
 18583 0587 58050000 		.4byte	.LVL130-.Ltext0
 18584 058b 58050000 		.4byte	.LVL130-.Ltext0
 18585 058f 0400     		.2byte	0x4
 18586 0591 74       		.byte	0x74
 18587 0592 8601     		.sleb128 134
 18588 0594 9F       		.byte	0x9f
 18589 0595 58050000 		.4byte	.LVL130-.Ltext0
 18590 0599 58050000 		.4byte	.LVL130-.Ltext0
 18591 059d 0400     		.2byte	0x4
 18592 059f 74       		.byte	0x74
 18593 05a0 8701     		.sleb128 135
 18594 05a2 9F       		.byte	0x9f
 18595 05a3 00000000 		.4byte	0
 18596 05a7 00000000 		.4byte	0
 18597              	.LVUS82:
 18598 05ab 04       		.uleb128 .LVU668
 18599 05ac 05       		.uleb128 .LVU669
 18600 05ad 05       		.uleb128 .LVU669
 18601 05ae 06       		.uleb128 .LVU670
 18602 05af 07       		.uleb128 .LVU794
 18603 05b0 08       		.uleb128 .LVU795
 18604 05b1 08       		.uleb128 .LVU795
 18605 05b2 09       		.uleb128 .LVU796
 18606              	.LLST82:
 18607 05b3 2C040000 		.4byte	.LVL107-.Ltext0
 18608 05b7 2C040000 		.4byte	.LVL107-.Ltext0
 18609 05bb 0900     		.2byte	0x9
 18610 05bd 74       		.byte	0x74
 18611 05be 8601     		.sleb128 134
ARM GAS  /tmp/ccpnbTSa.s 			page 328


 18612 05c0 94       		.byte	0x94
 18613 05c1 01       		.byte	0x1
 18614 05c2 08       		.byte	0x8
 18615 05c3 FF       		.byte	0xff
 18616 05c4 1A       		.byte	0x1a
 18617 05c5 9F       		.byte	0x9f
 18618 05c6 2C040000 		.4byte	.LVL107-.Ltext0
 18619 05ca 2C040000 		.4byte	.LVL107-.Ltext0
 18620 05ce 1400     		.2byte	0x14
 18621 05d0 74       		.byte	0x74
 18622 05d1 8701     		.sleb128 135
 18623 05d3 94       		.byte	0x94
 18624 05d4 01       		.byte	0x1
 18625 05d5 08       		.byte	0x8
 18626 05d6 FF       		.byte	0xff
 18627 05d7 1A       		.byte	0x1a
 18628 05d8 38       		.byte	0x38
 18629 05d9 24       		.byte	0x24
 18630 05da 74       		.byte	0x74
 18631 05db 8601     		.sleb128 134
 18632 05dd 94       		.byte	0x94
 18633 05de 01       		.byte	0x1
 18634 05df 08       		.byte	0x8
 18635 05e0 FF       		.byte	0xff
 18636 05e1 1A       		.byte	0x1a
 18637 05e2 21       		.byte	0x21
 18638 05e3 9F       		.byte	0x9f
 18639 05e4 58050000 		.4byte	.LVL130-.Ltext0
 18640 05e8 58050000 		.4byte	.LVL130-.Ltext0
 18641 05ec 0900     		.2byte	0x9
 18642 05ee 74       		.byte	0x74
 18643 05ef 8601     		.sleb128 134
 18644 05f1 94       		.byte	0x94
 18645 05f2 01       		.byte	0x1
 18646 05f3 08       		.byte	0x8
 18647 05f4 FF       		.byte	0xff
 18648 05f5 1A       		.byte	0x1a
 18649 05f6 9F       		.byte	0x9f
 18650 05f7 58050000 		.4byte	.LVL130-.Ltext0
 18651 05fb 58050000 		.4byte	.LVL130-.Ltext0
 18652 05ff 1400     		.2byte	0x14
 18653 0601 74       		.byte	0x74
 18654 0602 8701     		.sleb128 135
 18655 0604 94       		.byte	0x94
 18656 0605 01       		.byte	0x1
 18657 0606 08       		.byte	0x8
 18658 0607 FF       		.byte	0xff
 18659 0608 1A       		.byte	0x1a
 18660 0609 38       		.byte	0x38
 18661 060a 24       		.byte	0x24
 18662 060b 74       		.byte	0x74
 18663 060c 8601     		.sleb128 134
 18664 060e 94       		.byte	0x94
 18665 060f 01       		.byte	0x1
 18666 0610 08       		.byte	0x8
 18667 0611 FF       		.byte	0xff
 18668 0612 1A       		.byte	0x1a
ARM GAS  /tmp/ccpnbTSa.s 			page 329


 18669 0613 21       		.byte	0x21
 18670 0614 9F       		.byte	0x9f
 18671 0615 00000000 		.4byte	0
 18672 0619 00000000 		.4byte	0
 18673              	.LVUS83:
 18674 061d 09       		.uleb128 .LVU695
 18675 061e 00       		.uleb128 .LVU697
 18676              	.LLST83:
 18677 061f 54040000 		.4byte	.LVL110-.Ltext0
 18678 0623 58040000 		.4byte	.LVL111-.Ltext0
 18679 0627 0300     		.2byte	0x3
 18680 0629 08       		.byte	0x8
 18681 062a 20       		.byte	0x20
 18682 062b 9F       		.byte	0x9f
 18683 062c 00000000 		.4byte	0
 18684 0630 00000000 		.4byte	0
 18685              	.LVUS84:
 18686 0634 00       		.uleb128 .LVU711
 18687 0635 00       		.uleb128 .LVU725
 18688              	.LLST84:
 18689 0636 6E040000 		.4byte	.LVL113-.Ltext0
 18690 063a 77040000 		.4byte	.LVL115-1-.Ltext0
 18691 063e 0100     		.2byte	0x1
 18692 0640 52       		.byte	0x52
 18693 0641 00000000 		.4byte	0
 18694 0645 00000000 		.4byte	0
 18695              	.LVUS85:
 18696 0649 00       		.uleb128 .LVU711
 18697 064a 00       		.uleb128 .LVU725
 18698              	.LLST85:
 18699 064b 6E040000 		.4byte	.LVL113-.Ltext0
 18700 064f 78040000 		.4byte	.LVL115-.Ltext0
 18701 0653 0100     		.2byte	0x1
 18702 0655 56       		.byte	0x56
 18703 0656 00000000 		.4byte	0
 18704 065a 00000000 		.4byte	0
 18705              	.LVUS86:
 18706 065e 00       		.uleb128 .LVU711
 18707 065f 00       		.uleb128 .LVU725
 18708              	.LLST86:
 18709 0660 6E040000 		.4byte	.LVL113-.Ltext0
 18710 0664 78040000 		.4byte	.LVL115-.Ltext0
 18711 0668 0200     		.2byte	0x2
 18712 066a 30       		.byte	0x30
 18713 066b 9F       		.byte	0x9f
 18714 066c 00000000 		.4byte	0
 18715 0670 00000000 		.4byte	0
 18716              	.LVUS87:
 18717 0674 00       		.uleb128 .LVU711
 18718 0675 00       		.uleb128 .LVU725
 18719 0676 00       		.uleb128 .LVU725
 18720 0677 00       		.uleb128 .LVU725
 18721              	.LLST87:
 18722 0678 6E040000 		.4byte	.LVL113-.Ltext0
 18723 067c 77040000 		.4byte	.LVL115-1-.Ltext0
 18724 0680 0100     		.2byte	0x1
 18725 0682 50       		.byte	0x50
ARM GAS  /tmp/ccpnbTSa.s 			page 330


 18726 0683 77040000 		.4byte	.LVL115-1-.Ltext0
 18727 0687 78040000 		.4byte	.LVL115-.Ltext0
 18728 068b 0100     		.2byte	0x1
 18729 068d 54       		.byte	0x54
 18730 068e 00000000 		.4byte	0
 18731 0692 00000000 		.4byte	0
 18732              	.LVUS88:
 18733 0696 09       		.uleb128 .LVU720
 18734 0697 00       		.uleb128 .LVU725
 18735              	.LLST88:
 18736 0698 6E040000 		.4byte	.LVL113-.Ltext0
 18737 069c 77040000 		.4byte	.LVL115-1-.Ltext0
 18738 06a0 0100     		.2byte	0x1
 18739 06a2 53       		.byte	0x53
 18740 06a3 00000000 		.4byte	0
 18741 06a7 00000000 		.4byte	0
 18742              	.LVUS89:
 18743 06ab 0C       		.uleb128 .LVU737
 18744 06ac 00       		.uleb128 .LVU739
 18745              	.LLST89:
 18746 06ad 78040000 		.4byte	.LVL115-.Ltext0
 18747 06b1 7C040000 		.4byte	.LVL116-.Ltext0
 18748 06b5 0200     		.2byte	0x2
 18749 06b7 30       		.byte	0x30
 18750 06b8 9F       		.byte	0x9f
 18751 06b9 00000000 		.4byte	0
 18752 06bd 00000000 		.4byte	0
 18753              	.LVUS90:
 18754 06c1 00       		.uleb128 .LVU744
 18755 06c2 00       		.uleb128 .LVU752
 18756 06c3 00       		.uleb128 .LVU762
 18757 06c4 03       		.uleb128 .LVU768
 18758 06c5 00       		.uleb128 .LVU769
 18759 06c6 03       		.uleb128 .LVU775
 18760 06c7 00       		.uleb128 .LVU776
 18761 06c8 02       		.uleb128 .LVU781
 18762 06c9 00       		.uleb128 .LVU782
 18763 06ca 02       		.uleb128 .LVU789
 18764 06cb 00       		.uleb128 .LVU980
 18765 06cc 00       		.uleb128 .LVU1002
 18766 06cd 00       		.uleb128 .LVU1002
 18767 06ce 00       		.uleb128 .LVU1003
 18768 06cf 00       		.uleb128 .LVU1003
 18769 06d0 00       		.uleb128 .LVU1008
 18770 06d1 00       		.uleb128 .LVU1008
 18771 06d2 00       		.uleb128 .LVU1010
 18772 06d3 00       		.uleb128 .LVU1010
 18773 06d4 04       		.uleb128 .LVU1017
 18774 06d5 00       		.uleb128 .LVU1018
 18775 06d6 00       		.uleb128 .LVU1027
 18776 06d7 00       		.uleb128 .LVU1027
 18777 06d8 00       		.uleb128 .LVU1028
 18778 06d9 00       		.uleb128 .LVU1028
 18779 06da 05       		.uleb128 .LVU1043
 18780 06db 00       		.uleb128 .LVU1044
 18781 06dc 05       		.uleb128 .LVU1057
 18782 06dd 00       		.uleb128 .LVU1058
ARM GAS  /tmp/ccpnbTSa.s 			page 331


 18783 06de 03       		.uleb128 .LVU1075
 18784 06df 00       		.uleb128 .LVU1076
 18785 06e0 02       		.uleb128 .LVU1096
 18786 06e1 00       		.uleb128 .LVU1097
 18787 06e2 00       		.uleb128 .LVU1099
 18788 06e3 00       		.uleb128 .LVU1099
 18789 06e4 04       		.uleb128 .LVU1105
 18790 06e5 00       		.uleb128 .LVU1106
 18791 06e6 00       		.uleb128 .LVU1144
 18792 06e7 00       		.uleb128 .LVU1144
 18793 06e8 00       		.uleb128 .LVU1145
 18794 06e9 00       		.uleb128 .LVU1145
 18795 06ea 00       		.uleb128 .LVU1146
 18796 06eb 00       		.uleb128 .LVU1146
 18797 06ec 00       		.uleb128 .LVU1147
 18798 06ed 00       		.uleb128 .LVU1147
 18799 06ee 00       		.uleb128 0
 18800              	.LLST90:
 18801 06ef 88040000 		.4byte	.LVL118-.Ltext0
 18802 06f3 C0040000 		.4byte	.LVL119-.Ltext0
 18803 06f7 0100     		.2byte	0x1
 18804 06f9 54       		.byte	0x54
 18805 06fa E4040000 		.4byte	.LVL123-.Ltext0
 18806 06fe F4040000 		.4byte	.LVL124-.Ltext0
 18807 0702 0100     		.2byte	0x1
 18808 0704 54       		.byte	0x54
 18809 0705 F6040000 		.4byte	.LVL125-.Ltext0
 18810 0709 22050000 		.4byte	.LVL126-.Ltext0
 18811 070d 0100     		.2byte	0x1
 18812 070f 54       		.byte	0x54
 18813 0710 24050000 		.4byte	.LVL127-.Ltext0
 18814 0714 36050000 		.4byte	.LVL128-.Ltext0
 18815 0718 0100     		.2byte	0x1
 18816 071a 54       		.byte	0x54
 18817 071b 38050000 		.4byte	.LVL129-.Ltext0
 18818 071f 58050000 		.4byte	.LVL130-.Ltext0
 18819 0723 0100     		.2byte	0x1
 18820 0725 54       		.byte	0x54
 18821 0726 F0050000 		.4byte	.LVL152-.Ltext0
 18822 072a 30060000 		.4byte	.LVL156-.Ltext0
 18823 072e 0100     		.2byte	0x1
 18824 0730 54       		.byte	0x54
 18825 0731 30060000 		.4byte	.LVL156-.Ltext0
 18826 0735 33060000 		.4byte	.LVL157-1-.Ltext0
 18827 0739 0100     		.2byte	0x1
 18828 073b 50       		.byte	0x50
 18829 073c 33060000 		.4byte	.LVL157-1-.Ltext0
 18830 0740 48060000 		.4byte	.LVL158-.Ltext0
 18831 0744 0100     		.2byte	0x1
 18832 0746 54       		.byte	0x54
 18833 0747 48060000 		.4byte	.LVL158-.Ltext0
 18834 074b 4B060000 		.4byte	.LVL159-1-.Ltext0
 18835 074f 0100     		.2byte	0x1
 18836 0751 50       		.byte	0x50
 18837 0752 4B060000 		.4byte	.LVL159-1-.Ltext0
 18838 0756 5E060000 		.4byte	.LVL160-.Ltext0
 18839 075a 0100     		.2byte	0x1
ARM GAS  /tmp/ccpnbTSa.s 			page 332


 18840 075c 54       		.byte	0x54
 18841 075d 64060000 		.4byte	.LVL161-.Ltext0
 18842 0761 80060000 		.4byte	.LVL162-.Ltext0
 18843 0765 0100     		.2byte	0x1
 18844 0767 54       		.byte	0x54
 18845 0768 80060000 		.4byte	.LVL162-.Ltext0
 18846 076c 83060000 		.4byte	.LVL163-1-.Ltext0
 18847 0770 0100     		.2byte	0x1
 18848 0772 50       		.byte	0x50
 18849 0773 83060000 		.4byte	.LVL163-1-.Ltext0
 18850 0777 A6060000 		.4byte	.LVL164-.Ltext0
 18851 077b 0100     		.2byte	0x1
 18852 077d 54       		.byte	0x54
 18853 077e A8060000 		.4byte	.LVL165-.Ltext0
 18854 0782 C4060000 		.4byte	.LVL166-.Ltext0
 18855 0786 0100     		.2byte	0x1
 18856 0788 54       		.byte	0x54
 18857 0789 C6060000 		.4byte	.LVL167-.Ltext0
 18858 078d F6060000 		.4byte	.LVL169-.Ltext0
 18859 0791 0100     		.2byte	0x1
 18860 0793 54       		.byte	0x54
 18861 0794 F8060000 		.4byte	.LVL170-.Ltext0
 18862 0798 24070000 		.4byte	.LVL172-.Ltext0
 18863 079c 0100     		.2byte	0x1
 18864 079e 54       		.byte	0x54
 18865 079f 26070000 		.4byte	.LVL173-.Ltext0
 18866 07a3 29070000 		.4byte	.LVL174-1-.Ltext0
 18867 07a7 0100     		.2byte	0x1
 18868 07a9 50       		.byte	0x50
 18869 07aa 29070000 		.4byte	.LVL174-1-.Ltext0
 18870 07ae 36070000 		.4byte	.LVL175-.Ltext0
 18871 07b2 0100     		.2byte	0x1
 18872 07b4 54       		.byte	0x54
 18873 07b5 3C070000 		.4byte	.LVL176-.Ltext0
 18874 07b9 62070000 		.4byte	.LVL181-.Ltext0
 18875 07bd 0100     		.2byte	0x1
 18876 07bf 54       		.byte	0x54
 18877 07c0 62070000 		.4byte	.LVL181-.Ltext0
 18878 07c4 65070000 		.4byte	.LVL182-1-.Ltext0
 18879 07c8 0100     		.2byte	0x1
 18880 07ca 50       		.byte	0x50
 18881 07cb 65070000 		.4byte	.LVL182-1-.Ltext0
 18882 07cf 6C070000 		.4byte	.LVL183-.Ltext0
 18883 07d3 0100     		.2byte	0x1
 18884 07d5 54       		.byte	0x54
 18885 07d6 6C070000 		.4byte	.LVL183-.Ltext0
 18886 07da 6F070000 		.4byte	.LVL184-1-.Ltext0
 18887 07de 0100     		.2byte	0x1
 18888 07e0 50       		.byte	0x50
 18889 07e1 6F070000 		.4byte	.LVL184-1-.Ltext0
 18890 07e5 84070000 		.4byte	.LFE381-.Ltext0
 18891 07e9 0100     		.2byte	0x1
 18892 07eb 54       		.byte	0x54
 18893 07ec 00000000 		.4byte	0
 18894 07f0 00000000 		.4byte	0
 18895              	.LVUS91:
 18896 07f4 00       		.uleb128 .LVU1069
ARM GAS  /tmp/ccpnbTSa.s 			page 333


 18897 07f5 03       		.uleb128 .LVU1075
 18898              	.LLST91:
 18899 07f6 E2060000 		.4byte	.LVL168-.Ltext0
 18900 07fa F6060000 		.4byte	.LVL169-.Ltext0
 18901 07fe 0100     		.2byte	0x1
 18902 0800 50       		.byte	0x50
 18903 0801 00000000 		.4byte	0
 18904 0805 00000000 		.4byte	0
 18905              	.LVUS92:
 18906 0809 01       		.uleb128 .LVU981
 18907 080a 00       		.uleb128 .LVU993
 18908              	.LLST92:
 18909 080b F0050000 		.4byte	.LVL152-.Ltext0
 18910 080f 14060000 		.4byte	.LVL155-.Ltext0
 18911 0813 0100     		.2byte	0x1
 18912 0815 54       		.byte	0x54
 18913 0816 00000000 		.4byte	0
 18914 081a 00000000 		.4byte	0
 18915              	.LVUS93:
 18916 081e 01       		.uleb128 .LVU1059
 18917 081f 04       		.uleb128 .LVU1062
 18918 0820 04       		.uleb128 .LVU1062
 18919 0821 06       		.uleb128 .LVU1064
 18920              	.LLST93:
 18921 0822 C6060000 		.4byte	.LVL167-.Ltext0
 18922 0826 C6060000 		.4byte	.LVL167-.Ltext0
 18923 082a 0400     		.2byte	0x4
 18924 082c 74       		.byte	0x74
 18925 082d 8401     		.sleb128 132
 18926 082f 9F       		.byte	0x9f
 18927 0830 C6060000 		.4byte	.LVL167-.Ltext0
 18928 0834 C6060000 		.4byte	.LVL167-.Ltext0
 18929 0838 0400     		.2byte	0x4
 18930 083a 74       		.byte	0x74
 18931 083b 8501     		.sleb128 133
 18932 083d 9F       		.byte	0x9f
 18933 083e 00000000 		.4byte	0
 18934 0842 00000000 		.4byte	0
 18935              	.LVUS94:
 18936 0846 04       		.uleb128 .LVU1062
 18937 0847 05       		.uleb128 .LVU1063
 18938 0848 05       		.uleb128 .LVU1063
 18939 0849 06       		.uleb128 .LVU1064
 18940              	.LLST94:
 18941 084a C6060000 		.4byte	.LVL167-.Ltext0
 18942 084e C6060000 		.4byte	.LVL167-.Ltext0
 18943 0852 0900     		.2byte	0x9
 18944 0854 74       		.byte	0x74
 18945 0855 8401     		.sleb128 132
 18946 0857 94       		.byte	0x94
 18947 0858 01       		.byte	0x1
 18948 0859 08       		.byte	0x8
 18949 085a FF       		.byte	0xff
 18950 085b 1A       		.byte	0x1a
 18951 085c 9F       		.byte	0x9f
 18952 085d C6060000 		.4byte	.LVL167-.Ltext0
 18953 0861 C6060000 		.4byte	.LVL167-.Ltext0
ARM GAS  /tmp/ccpnbTSa.s 			page 334


 18954 0865 1400     		.2byte	0x14
 18955 0867 74       		.byte	0x74
 18956 0868 8501     		.sleb128 133
 18957 086a 94       		.byte	0x94
 18958 086b 01       		.byte	0x1
 18959 086c 08       		.byte	0x8
 18960 086d FF       		.byte	0xff
 18961 086e 1A       		.byte	0x1a
 18962 086f 38       		.byte	0x38
 18963 0870 24       		.byte	0x24
 18964 0871 74       		.byte	0x74
 18965 0872 8401     		.sleb128 132
 18966 0874 94       		.byte	0x94
 18967 0875 01       		.byte	0x1
 18968 0876 08       		.byte	0x8
 18969 0877 FF       		.byte	0xff
 18970 0878 1A       		.byte	0x1a
 18971 0879 21       		.byte	0x21
 18972 087a 9F       		.byte	0x9f
 18973 087b 00000000 		.4byte	0
 18974 087f 00000000 		.4byte	0
 18975              	.LVUS95:
 18976 0883 09       		.uleb128 .LVU1115
 18977 0884 00       		.uleb128 .LVU1117
 18978              	.LLST95:
 18979 0885 3C070000 		.4byte	.LVL176-.Ltext0
 18980 0889 42070000 		.4byte	.LVL177-.Ltext0
 18981 088d 0300     		.2byte	0x3
 18982 088f 08       		.byte	0x8
 18983 0890 20       		.byte	0x20
 18984 0891 9F       		.byte	0x9f
 18985 0892 00000000 		.4byte	0
 18986 0896 00000000 		.4byte	0
 18987              	.LVUS96:
 18988 089a 0B       		.uleb128 .LVU1132
 18989 089b 00       		.uleb128 .LVU1134
 18990              	.LLST96:
 18991 089c 48070000 		.4byte	.LVL178-.Ltext0
 18992 08a0 4C070000 		.4byte	.LVL179-.Ltext0
 18993 08a4 0200     		.2byte	0x2
 18994 08a6 30       		.byte	0x30
 18995 08a7 9F       		.byte	0x9f
 18996 08a8 00000000 		.4byte	0
 18997 08ac 00000000 		.4byte	0
 18998              	.LVUS97:
 18999 08b0 09       		.uleb128 .LVU813
 19000 08b1 00       		.uleb128 .LVU815
 19001              	.LLST97:
 19002 08b2 64050000 		.4byte	.LVL132-.Ltext0
 19003 08b6 68050000 		.4byte	.LVL133-.Ltext0
 19004 08ba 0300     		.2byte	0x3
 19005 08bc 08       		.byte	0x8
 19006 08bd 20       		.byte	0x20
 19007 08be 9F       		.byte	0x9f
 19008 08bf 00000000 		.4byte	0
 19009 08c3 00000000 		.4byte	0
 19010              	.LVUS98:
ARM GAS  /tmp/ccpnbTSa.s 			page 335


 19011 08c7 04       		.uleb128 .LVU819
 19012 08c8 00       		.uleb128 .LVU843
 19013              	.LLST98:
 19014 08c9 68050000 		.4byte	.LVL133-.Ltext0
 19015 08cd 86050000 		.4byte	.LVL135-.Ltext0
 19016 08d1 0200     		.2byte	0x2
 19017 08d3 30       		.byte	0x30
 19018 08d4 9F       		.byte	0x9f
 19019 08d5 00000000 		.4byte	0
 19020 08d9 00000000 		.4byte	0
 19021              	.LVUS101:
 19022 08dd 04       		.uleb128 .LVU819
 19023 08de 00       		.uleb128 .LVU843
 19024              	.LLST101:
 19025 08df 68050000 		.4byte	.LVL133-.Ltext0
 19026 08e3 86050000 		.4byte	.LVL135-.Ltext0
 19027 08e7 0100     		.2byte	0x1
 19028 08e9 54       		.byte	0x54
 19029 08ea 00000000 		.4byte	0
 19030 08ee 00000000 		.4byte	0
 19031              	.LVUS102:
 19032 08f2 01       		.uleb128 .LVU836
 19033 08f3 00       		.uleb128 .LVU843
 19034              	.LLST102:
 19035 08f4 7A050000 		.4byte	.LVL134-.Ltext0
 19036 08f8 85050000 		.4byte	.LVL135-1-.Ltext0
 19037 08fc 0100     		.2byte	0x1
 19038 08fe 53       		.byte	0x53
 19039 08ff 00000000 		.4byte	0
 19040 0903 00000000 		.4byte	0
 19041              	.LVUS103:
 19042 0907 0C       		.uleb128 .LVU855
 19043 0908 00       		.uleb128 .LVU857
 19044              	.LLST103:
 19045 0909 86050000 		.4byte	.LVL135-.Ltext0
 19046 090d 8A050000 		.4byte	.LVL136-.Ltext0
 19047 0911 0200     		.2byte	0x2
 19048 0913 30       		.byte	0x30
 19049 0914 9F       		.byte	0x9f
 19050 0915 00000000 		.4byte	0
 19051 0919 00000000 		.4byte	0
 19052              	.LVUS104:
 19053 091d 09       		.uleb128 .LVU875
 19054 091e 00       		.uleb128 .LVU877
 19055              	.LLST104:
 19056 091f 96050000 		.4byte	.LVL139-.Ltext0
 19057 0923 9A050000 		.4byte	.LVL140-.Ltext0
 19058 0927 0300     		.2byte	0x3
 19059 0929 08       		.byte	0x8
 19060 092a 20       		.byte	0x20
 19061 092b 9F       		.byte	0x9f
 19062 092c 00000000 		.4byte	0
 19063 0930 00000000 		.4byte	0
 19064              	.LVUS105:
 19065 0934 00       		.uleb128 .LVU891
 19066 0935 00       		.uleb128 .LVU905
 19067              	.LLST105:
ARM GAS  /tmp/ccpnbTSa.s 			page 336


 19068 0936 B0050000 		.4byte	.LVL142-.Ltext0
 19069 093a B9050000 		.4byte	.LVL144-1-.Ltext0
 19070 093e 0100     		.2byte	0x1
 19071 0940 52       		.byte	0x52
 19072 0941 00000000 		.4byte	0
 19073 0945 00000000 		.4byte	0
 19074              	.LVUS106:
 19075 0949 00       		.uleb128 .LVU891
 19076 094a 00       		.uleb128 .LVU905
 19077              	.LLST106:
 19078 094b B0050000 		.4byte	.LVL142-.Ltext0
 19079 094f BA050000 		.4byte	.LVL144-.Ltext0
 19080 0953 0100     		.2byte	0x1
 19081 0955 56       		.byte	0x56
 19082 0956 00000000 		.4byte	0
 19083 095a 00000000 		.4byte	0
 19084              	.LVUS107:
 19085 095e 00       		.uleb128 .LVU891
 19086 095f 00       		.uleb128 .LVU905
 19087              	.LLST107:
 19088 0960 B0050000 		.4byte	.LVL142-.Ltext0
 19089 0964 BA050000 		.4byte	.LVL144-.Ltext0
 19090 0968 0200     		.2byte	0x2
 19091 096a 30       		.byte	0x30
 19092 096b 9F       		.byte	0x9f
 19093 096c 00000000 		.4byte	0
 19094 0970 00000000 		.4byte	0
 19095              	.LVUS108:
 19096 0974 00       		.uleb128 .LVU891
 19097 0975 00       		.uleb128 .LVU905
 19098 0976 00       		.uleb128 .LVU905
 19099 0977 00       		.uleb128 .LVU905
 19100              	.LLST108:
 19101 0978 B0050000 		.4byte	.LVL142-.Ltext0
 19102 097c B9050000 		.4byte	.LVL144-1-.Ltext0
 19103 0980 0100     		.2byte	0x1
 19104 0982 50       		.byte	0x50
 19105 0983 B9050000 		.4byte	.LVL144-1-.Ltext0
 19106 0987 BA050000 		.4byte	.LVL144-.Ltext0
 19107 098b 0100     		.2byte	0x1
 19108 098d 54       		.byte	0x54
 19109 098e 00000000 		.4byte	0
 19110 0992 00000000 		.4byte	0
 19111              	.LVUS109:
 19112 0996 09       		.uleb128 .LVU900
 19113 0997 00       		.uleb128 .LVU905
 19114              	.LLST109:
 19115 0998 B0050000 		.4byte	.LVL142-.Ltext0
 19116 099c B9050000 		.4byte	.LVL144-1-.Ltext0
 19117 09a0 0100     		.2byte	0x1
 19118 09a2 53       		.byte	0x53
 19119 09a3 00000000 		.4byte	0
 19120 09a7 00000000 		.4byte	0
 19121              	.LVUS110:
 19122 09ab 0C       		.uleb128 .LVU917
 19123 09ac 00       		.uleb128 .LVU919
 19124              	.LLST110:
ARM GAS  /tmp/ccpnbTSa.s 			page 337


 19125 09ad BA050000 		.4byte	.LVL144-.Ltext0
 19126 09b1 BE050000 		.4byte	.LVL145-.Ltext0
 19127 09b5 0200     		.2byte	0x2
 19128 09b7 30       		.byte	0x30
 19129 09b8 9F       		.byte	0x9f
 19130 09b9 00000000 		.4byte	0
 19131 09bd 00000000 		.4byte	0
 19132              	.LVUS111:
 19133 09c1 09       		.uleb128 .LVU934
 19134 09c2 00       		.uleb128 .LVU936
 19135              	.LLST111:
 19136 09c3 C8050000 		.4byte	.LVL147-.Ltext0
 19137 09c7 CC050000 		.4byte	.LVL148-.Ltext0
 19138 09cb 0300     		.2byte	0x3
 19139 09cd 08       		.byte	0x8
 19140 09ce 20       		.byte	0x20
 19141 09cf 9F       		.byte	0x9f
 19142 09d0 00000000 		.4byte	0
 19143 09d4 00000000 		.4byte	0
 19144              	.LVUS112:
 19145 09d8 04       		.uleb128 .LVU940
 19146 09d9 00       		.uleb128 .LVU964
 19147              	.LLST112:
 19148 09da CC050000 		.4byte	.LVL148-.Ltext0
 19149 09de EA050000 		.4byte	.LVL150-.Ltext0
 19150 09e2 0200     		.2byte	0x2
 19151 09e4 30       		.byte	0x30
 19152 09e5 9F       		.byte	0x9f
 19153 09e6 00000000 		.4byte	0
 19154 09ea 00000000 		.4byte	0
 19155              	.LVUS115:
 19156 09ee 04       		.uleb128 .LVU940
 19157 09ef 00       		.uleb128 .LVU964
 19158              	.LLST115:
 19159 09f0 CC050000 		.4byte	.LVL148-.Ltext0
 19160 09f4 EA050000 		.4byte	.LVL150-.Ltext0
 19161 09f8 0100     		.2byte	0x1
 19162 09fa 54       		.byte	0x54
 19163 09fb 00000000 		.4byte	0
 19164 09ff 00000000 		.4byte	0
 19165              	.LVUS116:
 19166 0a03 01       		.uleb128 .LVU957
 19167 0a04 00       		.uleb128 .LVU964
 19168              	.LLST116:
 19169 0a05 DE050000 		.4byte	.LVL149-.Ltext0
 19170 0a09 E9050000 		.4byte	.LVL150-1-.Ltext0
 19171 0a0d 0100     		.2byte	0x1
 19172 0a0f 53       		.byte	0x53
 19173 0a10 00000000 		.4byte	0
 19174 0a14 00000000 		.4byte	0
 19175              	.LVUS117:
 19176 0a18 0C       		.uleb128 .LVU976
 19177 0a19 00       		.uleb128 .LVU978
 19178              	.LLST117:
 19179 0a1a EA050000 		.4byte	.LVL150-.Ltext0
 19180 0a1e EE050000 		.4byte	.LVL151-.Ltext0
 19181 0a22 0200     		.2byte	0x2
ARM GAS  /tmp/ccpnbTSa.s 			page 338


 19182 0a24 30       		.byte	0x30
 19183 0a25 9F       		.byte	0x9f
 19184 0a26 00000000 		.4byte	0
 19185 0a2a 00000000 		.4byte	0
 19186              	.LVUS77:
 19187 0a2e 00       		.uleb128 0
 19188 0a2f 00       		.uleb128 .LVU647
 19189 0a30 00       		.uleb128 .LVU647
 19190 0a31 00       		.uleb128 .LVU647
 19191 0a32 00       		.uleb128 .LVU647
 19192 0a33 00       		.uleb128 0
 19193              	.LLST77:
 19194 0a34 E0030000 		.4byte	.LVL101-.Ltext0
 19195 0a38 EF030000 		.4byte	.LVL102-1-.Ltext0
 19196 0a3c 0100     		.2byte	0x1
 19197 0a3e 50       		.byte	0x50
 19198 0a3f EF030000 		.4byte	.LVL102-1-.Ltext0
 19199 0a43 F0030000 		.4byte	.LVL102-.Ltext0
 19200 0a47 0400     		.2byte	0x4
 19201 0a49 F3       		.byte	0xf3
 19202 0a4a 01       		.uleb128 0x1
 19203 0a4b 50       		.byte	0x50
 19204 0a4c 9F       		.byte	0x9f
 19205 0a4d F0030000 		.4byte	.LVL102-.Ltext0
 19206 0a51 F2030000 		.4byte	.LFE380-.Ltext0
 19207 0a55 0100     		.2byte	0x1
 19208 0a57 50       		.byte	0x50
 19209 0a58 00000000 		.4byte	0
 19210 0a5c 00000000 		.4byte	0
 19211              	.LVUS70:
 19212 0a60 00       		.uleb128 0
 19213 0a61 00       		.uleb128 .LVU577
 19214 0a62 00       		.uleb128 .LVU577
 19215 0a63 00       		.uleb128 .LVU583
 19216 0a64 00       		.uleb128 .LVU583
 19217 0a65 02       		.uleb128 .LVU585
 19218 0a66 02       		.uleb128 .LVU585
 19219 0a67 00       		.uleb128 0
 19220              	.LLST70:
 19221 0a68 80030000 		.4byte	.LVL90-.Ltext0
 19222 0a6c 97030000 		.4byte	.LVL91-1-.Ltext0
 19223 0a70 0100     		.2byte	0x1
 19224 0a72 50       		.byte	0x50
 19225 0a73 97030000 		.4byte	.LVL91-1-.Ltext0
 19226 0a77 A6030000 		.4byte	.LVL92-.Ltext0
 19227 0a7b 0100     		.2byte	0x1
 19228 0a7d 54       		.byte	0x54
 19229 0a7e A6030000 		.4byte	.LVL92-.Ltext0
 19230 0a82 A6030000 		.4byte	.LVL92-.Ltext0
 19231 0a86 0300     		.2byte	0x3
 19232 0a88 74       		.byte	0x74
 19233 0a89 78       		.sleb128 -8
 19234 0a8a 9F       		.byte	0x9f
 19235 0a8b A6030000 		.4byte	.LVL92-.Ltext0
 19236 0a8f DE030000 		.4byte	.LFE379-.Ltext0
 19237 0a93 0300     		.2byte	0x3
 19238 0a95 75       		.byte	0x75
ARM GAS  /tmp/ccpnbTSa.s 			page 339


 19239 0a96 54       		.sleb128 -44
 19240 0a97 9F       		.byte	0x9f
 19241 0a98 00000000 		.4byte	0
 19242 0a9c 00000000 		.4byte	0
 19243              	.LVUS71:
 19244 0aa0 0C       		.uleb128 .LVU595
 19245 0aa1 00       		.uleb128 .LVU599
 19246              	.LLST71:
 19247 0aa2 A6030000 		.4byte	.LVL92-.Ltext0
 19248 0aa6 B0030000 		.4byte	.LVL93-.Ltext0
 19249 0aaa 0300     		.2byte	0x3
 19250 0aac 08       		.byte	0x8
 19251 0aad 20       		.byte	0x20
 19252 0aae 9F       		.byte	0x9f
 19253 0aaf 00000000 		.4byte	0
 19254 0ab3 00000000 		.4byte	0
 19255              	.LVUS72:
 19256 0ab7 0C       		.uleb128 .LVU633
 19257 0ab8 00       		.uleb128 .LVU635
 19258              	.LLST72:
 19259 0ab9 D4030000 		.4byte	.LVL99-.Ltext0
 19260 0abd D8030000 		.4byte	.LVL100-.Ltext0
 19261 0ac1 0200     		.2byte	0x2
 19262 0ac3 30       		.byte	0x30
 19263 0ac4 9F       		.byte	0x9f
 19264 0ac5 00000000 		.4byte	0
 19265 0ac9 00000000 		.4byte	0
 19266              	.LVUS73:
 19267 0acd 00       		.uleb128 .LVU607
 19268 0ace 00       		.uleb128 .LVU635
 19269              	.LLST73:
 19270 0acf B8030000 		.4byte	.LVL94-.Ltext0
 19271 0ad3 D8030000 		.4byte	.LVL100-.Ltext0
 19272 0ad7 0300     		.2byte	0x3
 19273 0ad9 09       		.byte	0x9
 19274 0ada FE       		.byte	0xfe
 19275 0adb 9F       		.byte	0x9f
 19276 0adc 00000000 		.4byte	0
 19277 0ae0 00000000 		.4byte	0
 19278              	.LVUS74:
 19279 0ae4 00       		.uleb128 .LVU607
 19280 0ae5 00       		.uleb128 .LVU609
 19281 0ae6 00       		.uleb128 .LVU609
 19282 0ae7 00       		.uleb128 .LVU612
 19283              	.LLST74:
 19284 0ae8 B8030000 		.4byte	.LVL94-.Ltext0
 19285 0aec BC030000 		.4byte	.LVL95-.Ltext0
 19286 0af0 0300     		.2byte	0x3
 19287 0af2 72       		.byte	0x72
 19288 0af3 0C       		.sleb128 12
 19289 0af4 9F       		.byte	0x9f
 19290 0af5 BC030000 		.4byte	.LVL95-.Ltext0
 19291 0af9 C1030000 		.4byte	.LVL96-1-.Ltext0
 19292 0afd 0100     		.2byte	0x1
 19293 0aff 50       		.byte	0x50
 19294 0b00 00000000 		.4byte	0
 19295 0b04 00000000 		.4byte	0
ARM GAS  /tmp/ccpnbTSa.s 			page 340


 19296              	.LVUS75:
 19297 0b08 00       		.uleb128 .LVU616
 19298 0b09 00       		.uleb128 .LVU635
 19299              	.LLST75:
 19300 0b0a C6030000 		.4byte	.LVL97-.Ltext0
 19301 0b0e D8030000 		.4byte	.LVL100-.Ltext0
 19302 0b12 0300     		.2byte	0x3
 19303 0b14 09       		.byte	0x9
 19304 0b15 FE       		.byte	0xfe
 19305 0b16 9F       		.byte	0x9f
 19306 0b17 00000000 		.4byte	0
 19307 0b1b 00000000 		.4byte	0
 19308              	.LVUS76:
 19309 0b1f 00       		.uleb128 .LVU616
 19310 0b20 00       		.uleb128 .LVU618
 19311 0b21 00       		.uleb128 .LVU618
 19312 0b22 00       		.uleb128 .LVU621
 19313              	.LLST76:
 19314 0b23 C6030000 		.4byte	.LVL97-.Ltext0
 19315 0b27 CE030000 		.4byte	.LVL98-.Ltext0
 19316 0b2b 0300     		.2byte	0x3
 19317 0b2d 73       		.byte	0x73
 19318 0b2e 0C       		.sleb128 12
 19319 0b2f 9F       		.byte	0x9f
 19320 0b30 CE030000 		.4byte	.LVL98-.Ltext0
 19321 0b34 D3030000 		.4byte	.LVL99-1-.Ltext0
 19322 0b38 0100     		.2byte	0x1
 19323 0b3a 50       		.byte	0x50
 19324 0b3b 00000000 		.4byte	0
 19325 0b3f 00000000 		.4byte	0
 19326              	.LVUS63:
 19327 0b43 00       		.uleb128 0
 19328 0b44 01       		.uleb128 .LVU500
 19329 0b45 01       		.uleb128 .LVU500
 19330 0b46 00       		.uleb128 .LVU561
 19331 0b47 00       		.uleb128 .LVU561
 19332 0b48 00       		.uleb128 .LVU562
 19333 0b49 00       		.uleb128 .LVU562
 19334 0b4a 00       		.uleb128 .LVU562
 19335 0b4b 00       		.uleb128 .LVU562
 19336 0b4c 00       		.uleb128 0
 19337              	.LLST63:
 19338 0b4d 00030000 		.4byte	.LVL77-.Ltext0
 19339 0b51 1E030000 		.4byte	.LVL78-.Ltext0
 19340 0b55 0100     		.2byte	0x1
 19341 0b57 50       		.byte	0x50
 19342 0b58 1E030000 		.4byte	.LVL78-.Ltext0
 19343 0b5c 70030000 		.4byte	.LVL88-.Ltext0
 19344 0b60 0100     		.2byte	0x1
 19345 0b62 56       		.byte	0x56
 19346 0b63 70030000 		.4byte	.LVL88-.Ltext0
 19347 0b67 71030000 		.4byte	.LVL89-1-.Ltext0
 19348 0b6b 0100     		.2byte	0x1
 19349 0b6d 50       		.byte	0x50
 19350 0b6e 71030000 		.4byte	.LVL89-1-.Ltext0
 19351 0b72 72030000 		.4byte	.LVL89-.Ltext0
 19352 0b76 0400     		.2byte	0x4
ARM GAS  /tmp/ccpnbTSa.s 			page 341


 19353 0b78 F3       		.byte	0xf3
 19354 0b79 01       		.uleb128 0x1
 19355 0b7a 50       		.byte	0x50
 19356 0b7b 9F       		.byte	0x9f
 19357 0b7c 72030000 		.4byte	.LVL89-.Ltext0
 19358 0b80 76030000 		.4byte	.LFE378-.Ltext0
 19359 0b84 0100     		.2byte	0x1
 19360 0b86 56       		.byte	0x56
 19361 0b87 00000000 		.4byte	0
 19362 0b8b 00000000 		.4byte	0
 19363              	.LVUS64:
 19364 0b8f 0B       		.uleb128 .LVU510
 19365 0b90 00       		.uleb128 .LVU514
 19366              	.LLST64:
 19367 0b91 1E030000 		.4byte	.LVL78-.Ltext0
 19368 0b95 28030000 		.4byte	.LVL79-.Ltext0
 19369 0b99 0300     		.2byte	0x3
 19370 0b9b 08       		.byte	0x8
 19371 0b9c 20       		.byte	0x20
 19372 0b9d 9F       		.byte	0x9f
 19373 0b9e 00000000 		.4byte	0
 19374 0ba2 00000000 		.4byte	0
 19375              	.LVUS65:
 19376 0ba6 0C       		.uleb128 .LVU548
 19377 0ba7 00       		.uleb128 .LVU550
 19378              	.LLST65:
 19379 0ba8 4C030000 		.4byte	.LVL85-.Ltext0
 19380 0bac 50030000 		.4byte	.LVL86-.Ltext0
 19381 0bb0 0200     		.2byte	0x2
 19382 0bb2 30       		.byte	0x30
 19383 0bb3 9F       		.byte	0x9f
 19384 0bb4 00000000 		.4byte	0
 19385 0bb8 00000000 		.4byte	0
 19386              	.LVUS66:
 19387 0bbc 00       		.uleb128 .LVU522
 19388 0bbd 00       		.uleb128 .LVU550
 19389              	.LLST66:
 19390 0bbe 30030000 		.4byte	.LVL80-.Ltext0
 19391 0bc2 50030000 		.4byte	.LVL86-.Ltext0
 19392 0bc6 0300     		.2byte	0x3
 19393 0bc8 09       		.byte	0x9
 19394 0bc9 FE       		.byte	0xfe
 19395 0bca 9F       		.byte	0x9f
 19396 0bcb 00000000 		.4byte	0
 19397 0bcf 00000000 		.4byte	0
 19398              	.LVUS67:
 19399 0bd3 00       		.uleb128 .LVU522
 19400 0bd4 00       		.uleb128 .LVU524
 19401 0bd5 00       		.uleb128 .LVU524
 19402 0bd6 00       		.uleb128 .LVU527
 19403              	.LLST67:
 19404 0bd7 30030000 		.4byte	.LVL80-.Ltext0
 19405 0bdb 34030000 		.4byte	.LVL81-.Ltext0
 19406 0bdf 0300     		.2byte	0x3
 19407 0be1 72       		.byte	0x72
 19408 0be2 0C       		.sleb128 12
 19409 0be3 9F       		.byte	0x9f
ARM GAS  /tmp/ccpnbTSa.s 			page 342


 19410 0be4 34030000 		.4byte	.LVL81-.Ltext0
 19411 0be8 39030000 		.4byte	.LVL82-1-.Ltext0
 19412 0bec 0100     		.2byte	0x1
 19413 0bee 50       		.byte	0x50
 19414 0bef 00000000 		.4byte	0
 19415 0bf3 00000000 		.4byte	0
 19416              	.LVUS68:
 19417 0bf7 00       		.uleb128 .LVU531
 19418 0bf8 00       		.uleb128 .LVU550
 19419              	.LLST68:
 19420 0bf9 3E030000 		.4byte	.LVL83-.Ltext0
 19421 0bfd 50030000 		.4byte	.LVL86-.Ltext0
 19422 0c01 0300     		.2byte	0x3
 19423 0c03 09       		.byte	0x9
 19424 0c04 FE       		.byte	0xfe
 19425 0c05 9F       		.byte	0x9f
 19426 0c06 00000000 		.4byte	0
 19427 0c0a 00000000 		.4byte	0
 19428              	.LVUS69:
 19429 0c0e 00       		.uleb128 .LVU531
 19430 0c0f 00       		.uleb128 .LVU533
 19431 0c10 00       		.uleb128 .LVU533
 19432 0c11 00       		.uleb128 .LVU536
 19433              	.LLST69:
 19434 0c12 3E030000 		.4byte	.LVL83-.Ltext0
 19435 0c16 46030000 		.4byte	.LVL84-.Ltext0
 19436 0c1a 0300     		.2byte	0x3
 19437 0c1c 73       		.byte	0x73
 19438 0c1d 0C       		.sleb128 12
 19439 0c1e 9F       		.byte	0x9f
 19440 0c1f 46030000 		.4byte	.LVL84-.Ltext0
 19441 0c23 4B030000 		.4byte	.LVL85-1-.Ltext0
 19442 0c27 0100     		.2byte	0x1
 19443 0c29 50       		.byte	0x50
 19444 0c2a 00000000 		.4byte	0
 19445 0c2e 00000000 		.4byte	0
 19446              	.LVUS61:
 19447 0c32 00       		.uleb128 0
 19448 0c33 00       		.uleb128 .LVU477
 19449 0c34 00       		.uleb128 .LVU477
 19450 0c35 00       		.uleb128 0
 19451              	.LLST61:
 19452 0c36 C0020000 		.4byte	.LVL73-.Ltext0
 19453 0c3a DE020000 		.4byte	.LVL75-.Ltext0
 19454 0c3e 0100     		.2byte	0x1
 19455 0c40 50       		.byte	0x50
 19456 0c41 DE020000 		.4byte	.LVL75-.Ltext0
 19457 0c45 F4020000 		.4byte	.LFE377-.Ltext0
 19458 0c49 0100     		.2byte	0x1
 19459 0c4b 54       		.byte	0x54
 19460 0c4c 00000000 		.4byte	0
 19461 0c50 00000000 		.4byte	0
 19462              	.LVUS62:
 19463 0c54 01       		.uleb128 .LVU475
 19464 0c55 00       		.uleb128 .LVU478
 19465              	.LLST62:
 19466 0c56 DC020000 		.4byte	.LVL74-.Ltext0
ARM GAS  /tmp/ccpnbTSa.s 			page 343


 19467 0c5a E2020000 		.4byte	.LVL76-.Ltext0
 19468 0c5e 0200     		.2byte	0x2
 19469 0c60 44       		.byte	0x44
 19470 0c61 9F       		.byte	0x9f
 19471 0c62 00000000 		.4byte	0
 19472 0c66 00000000 		.4byte	0
 19473              	.LVUS59:
 19474 0c6a 00       		.uleb128 0
 19475 0c6b 00       		.uleb128 .LVU462
 19476 0c6c 00       		.uleb128 .LVU462
 19477 0c6d 00       		.uleb128 .LVU463
 19478 0c6e 00       		.uleb128 .LVU463
 19479 0c6f 00       		.uleb128 .LVU464
 19480 0c70 00       		.uleb128 .LVU464
 19481 0c71 00       		.uleb128 0
 19482              	.LLST59:
 19483 0c72 A0020000 		.4byte	.LVL69-.Ltext0
 19484 0c76 B0020000 		.4byte	.LVL70-.Ltext0
 19485 0c7a 0100     		.2byte	0x1
 19486 0c7c 50       		.byte	0x50
 19487 0c7d B0020000 		.4byte	.LVL70-.Ltext0
 19488 0c81 B2020000 		.4byte	.LVL71-.Ltext0
 19489 0c85 0400     		.2byte	0x4
 19490 0c87 F3       		.byte	0xf3
 19491 0c88 01       		.uleb128 0x1
 19492 0c89 50       		.byte	0x50
 19493 0c8a 9F       		.byte	0x9f
 19494 0c8b B2020000 		.4byte	.LVL71-.Ltext0
 19495 0c8f B5020000 		.4byte	.LVL72-1-.Ltext0
 19496 0c93 0100     		.2byte	0x1
 19497 0c95 50       		.byte	0x50
 19498 0c96 B5020000 		.4byte	.LVL72-1-.Ltext0
 19499 0c9a BA020000 		.4byte	.LFE376-.Ltext0
 19500 0c9e 0400     		.2byte	0x4
 19501 0ca0 F3       		.byte	0xf3
 19502 0ca1 01       		.uleb128 0x1
 19503 0ca2 50       		.byte	0x50
 19504 0ca3 9F       		.byte	0x9f
 19505 0ca4 00000000 		.4byte	0
 19506 0ca8 00000000 		.4byte	0
 19507              	.LVUS60:
 19508 0cac 00       		.uleb128 0
 19509 0cad 00       		.uleb128 .LVU464
 19510 0cae 00       		.uleb128 .LVU464
 19511 0caf 00       		.uleb128 0
 19512              	.LLST60:
 19513 0cb0 A0020000 		.4byte	.LVL69-.Ltext0
 19514 0cb4 B5020000 		.4byte	.LVL72-1-.Ltext0
 19515 0cb8 0100     		.2byte	0x1
 19516 0cba 51       		.byte	0x51
 19517 0cbb B5020000 		.4byte	.LVL72-1-.Ltext0
 19518 0cbf BA020000 		.4byte	.LFE376-.Ltext0
 19519 0cc3 0400     		.2byte	0x4
 19520 0cc5 F3       		.byte	0xf3
 19521 0cc6 01       		.uleb128 0x1
 19522 0cc7 51       		.byte	0x51
 19523 0cc8 9F       		.byte	0x9f
ARM GAS  /tmp/ccpnbTSa.s 			page 344


 19524 0cc9 00000000 		.4byte	0
 19525 0ccd 00000000 		.4byte	0
 19526              	.LVUS57:
 19527 0cd1 00       		.uleb128 0
 19528 0cd2 00       		.uleb128 .LVU447
 19529 0cd3 00       		.uleb128 .LVU447
 19530 0cd4 00       		.uleb128 .LVU448
 19531 0cd5 00       		.uleb128 .LVU448
 19532 0cd6 00       		.uleb128 .LVU449
 19533 0cd7 00       		.uleb128 .LVU449
 19534 0cd8 00       		.uleb128 0
 19535              	.LLST57:
 19536 0cd9 80020000 		.4byte	.LVL65-.Ltext0
 19537 0cdd 90020000 		.4byte	.LVL66-.Ltext0
 19538 0ce1 0100     		.2byte	0x1
 19539 0ce3 50       		.byte	0x50
 19540 0ce4 90020000 		.4byte	.LVL66-.Ltext0
 19541 0ce8 92020000 		.4byte	.LVL67-.Ltext0
 19542 0cec 0400     		.2byte	0x4
 19543 0cee F3       		.byte	0xf3
 19544 0cef 01       		.uleb128 0x1
 19545 0cf0 50       		.byte	0x50
 19546 0cf1 9F       		.byte	0x9f
 19547 0cf2 92020000 		.4byte	.LVL67-.Ltext0
 19548 0cf6 95020000 		.4byte	.LVL68-1-.Ltext0
 19549 0cfa 0100     		.2byte	0x1
 19550 0cfc 50       		.byte	0x50
 19551 0cfd 95020000 		.4byte	.LVL68-1-.Ltext0
 19552 0d01 9A020000 		.4byte	.LFE375-.Ltext0
 19553 0d05 0400     		.2byte	0x4
 19554 0d07 F3       		.byte	0xf3
 19555 0d08 01       		.uleb128 0x1
 19556 0d09 50       		.byte	0x50
 19557 0d0a 9F       		.byte	0x9f
 19558 0d0b 00000000 		.4byte	0
 19559 0d0f 00000000 		.4byte	0
 19560              	.LVUS58:
 19561 0d13 00       		.uleb128 0
 19562 0d14 00       		.uleb128 .LVU449
 19563 0d15 00       		.uleb128 .LVU449
 19564 0d16 00       		.uleb128 0
 19565              	.LLST58:
 19566 0d17 80020000 		.4byte	.LVL65-.Ltext0
 19567 0d1b 95020000 		.4byte	.LVL68-1-.Ltext0
 19568 0d1f 0100     		.2byte	0x1
 19569 0d21 51       		.byte	0x51
 19570 0d22 95020000 		.4byte	.LVL68-1-.Ltext0
 19571 0d26 9A020000 		.4byte	.LFE375-.Ltext0
 19572 0d2a 0400     		.2byte	0x4
 19573 0d2c F3       		.byte	0xf3
 19574 0d2d 01       		.uleb128 0x1
 19575 0d2e 51       		.byte	0x51
 19576 0d2f 9F       		.byte	0x9f
 19577 0d30 00000000 		.4byte	0
 19578 0d34 00000000 		.4byte	0
 19579              	.LVUS43:
 19580 0d38 00       		.uleb128 0
ARM GAS  /tmp/ccpnbTSa.s 			page 345


 19581 0d39 00       		.uleb128 .LVU394
 19582 0d3a 00       		.uleb128 .LVU394
 19583 0d3b 00       		.uleb128 .LVU419
 19584 0d3c 00       		.uleb128 .LVU419
 19585 0d3d 00       		.uleb128 .LVU436
 19586 0d3e 00       		.uleb128 .LVU436
 19587 0d3f 00       		.uleb128 0
 19588              	.LLST43:
 19589 0d40 20020000 		.4byte	.LVL54-.Ltext0
 19590 0d44 51020000 		.4byte	.LVL58-1-.Ltext0
 19591 0d48 0100     		.2byte	0x1
 19592 0d4a 50       		.byte	0x50
 19593 0d4b 51020000 		.4byte	.LVL58-1-.Ltext0
 19594 0d4f 66020000 		.4byte	.LVL61-.Ltext0
 19595 0d53 0400     		.2byte	0x4
 19596 0d55 F3       		.byte	0xf3
 19597 0d56 01       		.uleb128 0x1
 19598 0d57 50       		.byte	0x50
 19599 0d58 9F       		.byte	0x9f
 19600 0d59 66020000 		.4byte	.LVL61-.Ltext0
 19601 0d5d 70020000 		.4byte	.LVL64-.Ltext0
 19602 0d61 0100     		.2byte	0x1
 19603 0d63 50       		.byte	0x50
 19604 0d64 70020000 		.4byte	.LVL64-.Ltext0
 19605 0d68 72020000 		.4byte	.LFE374-.Ltext0
 19606 0d6c 0400     		.2byte	0x4
 19607 0d6e F3       		.byte	0xf3
 19608 0d6f 01       		.uleb128 0x1
 19609 0d70 50       		.byte	0x50
 19610 0d71 9F       		.byte	0x9f
 19611 0d72 00000000 		.4byte	0
 19612 0d76 00000000 		.4byte	0
 19613              	.LVUS44:
 19614 0d7a 00       		.uleb128 0
 19615 0d7b 00       		.uleb128 .LVU394
 19616 0d7c 00       		.uleb128 .LVU394
 19617 0d7d 00       		.uleb128 .LVU419
 19618 0d7e 00       		.uleb128 .LVU419
 19619 0d7f 00       		.uleb128 0
 19620              	.LLST44:
 19621 0d80 20020000 		.4byte	.LVL54-.Ltext0
 19622 0d84 51020000 		.4byte	.LVL58-1-.Ltext0
 19623 0d88 0100     		.2byte	0x1
 19624 0d8a 51       		.byte	0x51
 19625 0d8b 51020000 		.4byte	.LVL58-1-.Ltext0
 19626 0d8f 66020000 		.4byte	.LVL61-.Ltext0
 19627 0d93 0400     		.2byte	0x4
 19628 0d95 F3       		.byte	0xf3
 19629 0d96 01       		.uleb128 0x1
 19630 0d97 51       		.byte	0x51
 19631 0d98 9F       		.byte	0x9f
 19632 0d99 66020000 		.4byte	.LVL61-.Ltext0
 19633 0d9d 72020000 		.4byte	.LFE374-.Ltext0
 19634 0da1 0100     		.2byte	0x1
 19635 0da3 51       		.byte	0x51
 19636 0da4 00000000 		.4byte	0
 19637 0da8 00000000 		.4byte	0
ARM GAS  /tmp/ccpnbTSa.s 			page 346


 19638              	.LVUS45:
 19639 0dac 00       		.uleb128 0
 19640 0dad 00       		.uleb128 .LVU394
 19641 0dae 00       		.uleb128 .LVU394
 19642 0daf 00       		.uleb128 .LVU419
 19643 0db0 00       		.uleb128 .LVU419
 19644 0db1 00       		.uleb128 0
 19645              	.LLST45:
 19646 0db2 20020000 		.4byte	.LVL54-.Ltext0
 19647 0db6 51020000 		.4byte	.LVL58-1-.Ltext0
 19648 0dba 0100     		.2byte	0x1
 19649 0dbc 52       		.byte	0x52
 19650 0dbd 51020000 		.4byte	.LVL58-1-.Ltext0
 19651 0dc1 66020000 		.4byte	.LVL61-.Ltext0
 19652 0dc5 0400     		.2byte	0x4
 19653 0dc7 F3       		.byte	0xf3
 19654 0dc8 01       		.uleb128 0x1
 19655 0dc9 52       		.byte	0x52
 19656 0dca 9F       		.byte	0x9f
 19657 0dcb 66020000 		.4byte	.LVL61-.Ltext0
 19658 0dcf 72020000 		.4byte	.LFE374-.Ltext0
 19659 0dd3 0100     		.2byte	0x1
 19660 0dd5 52       		.byte	0x52
 19661 0dd6 00000000 		.4byte	0
 19662 0dda 00000000 		.4byte	0
 19663              	.LVUS46:
 19664 0dde 00       		.uleb128 0
 19665 0ddf 00       		.uleb128 .LVU394
 19666 0de0 00       		.uleb128 .LVU394
 19667 0de1 00       		.uleb128 .LVU419
 19668 0de2 00       		.uleb128 .LVU419
 19669 0de3 00       		.uleb128 .LVU432
 19670 0de4 00       		.uleb128 .LVU432
 19671 0de5 00       		.uleb128 0
 19672              	.LLST46:
 19673 0de6 20020000 		.4byte	.LVL54-.Ltext0
 19674 0dea 51020000 		.4byte	.LVL58-1-.Ltext0
 19675 0dee 0100     		.2byte	0x1
 19676 0df0 53       		.byte	0x53
 19677 0df1 51020000 		.4byte	.LVL58-1-.Ltext0
 19678 0df5 66020000 		.4byte	.LVL61-.Ltext0
 19679 0df9 0400     		.2byte	0x4
 19680 0dfb F3       		.byte	0xf3
 19681 0dfc 01       		.uleb128 0x1
 19682 0dfd 53       		.byte	0x53
 19683 0dfe 9F       		.byte	0x9f
 19684 0dff 66020000 		.4byte	.LVL61-.Ltext0
 19685 0e03 68020000 		.4byte	.LVL62-.Ltext0
 19686 0e07 0100     		.2byte	0x1
 19687 0e09 53       		.byte	0x53
 19688 0e0a 68020000 		.4byte	.LVL62-.Ltext0
 19689 0e0e 72020000 		.4byte	.LFE374-.Ltext0
 19690 0e12 0400     		.2byte	0x4
 19691 0e14 F3       		.byte	0xf3
 19692 0e15 01       		.uleb128 0x1
 19693 0e16 53       		.byte	0x53
 19694 0e17 9F       		.byte	0x9f
ARM GAS  /tmp/ccpnbTSa.s 			page 347


 19695 0e18 00000000 		.4byte	0
 19696 0e1c 00000000 		.4byte	0
 19697              	.LVUS47:
 19698 0e20 00       		.uleb128 .LVU402
 19699 0e21 00       		.uleb128 .LVU419
 19700              	.LLST47:
 19701 0e22 60020000 		.4byte	.LVL59-.Ltext0
 19702 0e26 66020000 		.4byte	.LVL61-.Ltext0
 19703 0e2a 0100     		.2byte	0x1
 19704 0e2c 50       		.byte	0x50
 19705 0e2d 00000000 		.4byte	0
 19706 0e31 00000000 		.4byte	0
 19707              	.LVUS48:
 19708 0e35 09       		.uleb128 .LVU362
 19709 0e36 00       		.uleb128 .LVU366
 19710              	.LLST48:
 19711 0e37 20020000 		.4byte	.LVL54-.Ltext0
 19712 0e3b 28020000 		.4byte	.LVL55-.Ltext0
 19713 0e3f 0300     		.2byte	0x3
 19714 0e41 08       		.byte	0x8
 19715 0e42 20       		.byte	0x20
 19716 0e43 9F       		.byte	0x9f
 19717 0e44 00000000 		.4byte	0
 19718 0e48 00000000 		.4byte	0
 19719              	.LVUS49:
 19720 0e4c 01       		.uleb128 .LVU372
 19721 0e4d 00       		.uleb128 .LVU394
 19722 0e4e 00       		.uleb128 .LVU394
 19723 0e4f 00       		.uleb128 .LVU394
 19724              	.LLST49:
 19725 0e50 2E020000 		.4byte	.LVL56-.Ltext0
 19726 0e54 51020000 		.4byte	.LVL58-1-.Ltext0
 19727 0e58 0100     		.2byte	0x1
 19728 0e5a 53       		.byte	0x53
 19729 0e5b 51020000 		.4byte	.LVL58-1-.Ltext0
 19730 0e5f 52020000 		.4byte	.LVL58-.Ltext0
 19731 0e63 0400     		.2byte	0x4
 19732 0e65 F3       		.byte	0xf3
 19733 0e66 01       		.uleb128 0x1
 19734 0e67 53       		.byte	0x53
 19735 0e68 9F       		.byte	0x9f
 19736 0e69 00000000 		.4byte	0
 19737 0e6d 00000000 		.4byte	0
 19738              	.LVUS50:
 19739 0e71 01       		.uleb128 .LVU372
 19740 0e72 00       		.uleb128 .LVU394
 19741 0e73 00       		.uleb128 .LVU394
 19742 0e74 00       		.uleb128 .LVU394
 19743              	.LLST50:
 19744 0e75 2E020000 		.4byte	.LVL56-.Ltext0
 19745 0e79 51020000 		.4byte	.LVL58-1-.Ltext0
 19746 0e7d 0100     		.2byte	0x1
 19747 0e7f 52       		.byte	0x52
 19748 0e80 51020000 		.4byte	.LVL58-1-.Ltext0
 19749 0e84 52020000 		.4byte	.LVL58-.Ltext0
 19750 0e88 0400     		.2byte	0x4
 19751 0e8a F3       		.byte	0xf3
ARM GAS  /tmp/ccpnbTSa.s 			page 348


 19752 0e8b 01       		.uleb128 0x1
 19753 0e8c 52       		.byte	0x52
 19754 0e8d 9F       		.byte	0x9f
 19755 0e8e 00000000 		.4byte	0
 19756 0e92 00000000 		.4byte	0
 19757              	.LVUS51:
 19758 0e96 01       		.uleb128 .LVU372
 19759 0e97 00       		.uleb128 .LVU394
 19760 0e98 00       		.uleb128 .LVU394
 19761 0e99 00       		.uleb128 .LVU394
 19762              	.LLST51:
 19763 0e9a 2E020000 		.4byte	.LVL56-.Ltext0
 19764 0e9e 51020000 		.4byte	.LVL58-1-.Ltext0
 19765 0ea2 0100     		.2byte	0x1
 19766 0ea4 51       		.byte	0x51
 19767 0ea5 51020000 		.4byte	.LVL58-1-.Ltext0
 19768 0ea9 52020000 		.4byte	.LVL58-.Ltext0
 19769 0ead 0400     		.2byte	0x4
 19770 0eaf F3       		.byte	0xf3
 19771 0eb0 01       		.uleb128 0x1
 19772 0eb1 51       		.byte	0x51
 19773 0eb2 9F       		.byte	0x9f
 19774 0eb3 00000000 		.4byte	0
 19775 0eb7 00000000 		.4byte	0
 19776              	.LVUS52:
 19777 0ebb 01       		.uleb128 .LVU372
 19778 0ebc 00       		.uleb128 .LVU394
 19779 0ebd 00       		.uleb128 .LVU394
 19780 0ebe 00       		.uleb128 .LVU394
 19781              	.LLST52:
 19782 0ebf 2E020000 		.4byte	.LVL56-.Ltext0
 19783 0ec3 51020000 		.4byte	.LVL58-1-.Ltext0
 19784 0ec7 0100     		.2byte	0x1
 19785 0ec9 50       		.byte	0x50
 19786 0eca 51020000 		.4byte	.LVL58-1-.Ltext0
 19787 0ece 52020000 		.4byte	.LVL58-.Ltext0
 19788 0ed2 0400     		.2byte	0x4
 19789 0ed4 F3       		.byte	0xf3
 19790 0ed5 01       		.uleb128 0x1
 19791 0ed6 50       		.byte	0x50
 19792 0ed7 9F       		.byte	0x9f
 19793 0ed8 00000000 		.4byte	0
 19794 0edc 00000000 		.4byte	0
 19795              	.LVUS53:
 19796 0ee0 00       		.uleb128 .LVU387
 19797 0ee1 00       		.uleb128 .LVU394
 19798              	.LLST53:
 19799 0ee2 46020000 		.4byte	.LVL57-.Ltext0
 19800 0ee6 52020000 		.4byte	.LVL58-.Ltext0
 19801 0eea 0100     		.2byte	0x1
 19802 0eec 54       		.byte	0x54
 19803 0eed 00000000 		.4byte	0
 19804 0ef1 00000000 		.4byte	0
 19805              	.LVUS54:
 19806 0ef5 02       		.uleb128 .LVU396
 19807 0ef6 00       		.uleb128 .LVU402
 19808              	.LLST54:
ARM GAS  /tmp/ccpnbTSa.s 			page 349


 19809 0ef7 52020000 		.4byte	.LVL58-.Ltext0
 19810 0efb 5F020000 		.4byte	.LVL59-1-.Ltext0
 19811 0eff 0900     		.2byte	0x9
 19812 0f01 77       		.byte	0x77
 19813 0f02 0C       		.sleb128 12
 19814 0f03 06       		.byte	0x6
 19815 0f04 23       		.byte	0x23
 19816 0f05 14       		.uleb128 0x14
 19817 0f06 06       		.byte	0x6
 19818 0f07 23       		.byte	0x23
 19819 0f08 0C       		.uleb128 0xc
 19820 0f09 9F       		.byte	0x9f
 19821 0f0a 00000000 		.4byte	0
 19822 0f0e 00000000 		.4byte	0
 19823              	.LVUS55:
 19824 0f12 0C       		.uleb128 .LVU414
 19825 0f13 00       		.uleb128 .LVU416
 19826              	.LLST55:
 19827 0f14 60020000 		.4byte	.LVL59-.Ltext0
 19828 0f18 64020000 		.4byte	.LVL60-.Ltext0
 19829 0f1c 0200     		.2byte	0x2
 19830 0f1e 30       		.byte	0x30
 19831 0f1f 9F       		.byte	0x9f
 19832 0f20 00000000 		.4byte	0
 19833 0f24 00000000 		.4byte	0
 19834              	.LVUS56:
 19835 0f28 0B       		.uleb128 .LVU430
 19836 0f29 00       		.uleb128 .LVU433
 19837              	.LLST56:
 19838 0f2a 66020000 		.4byte	.LVL61-.Ltext0
 19839 0f2e 6C020000 		.4byte	.LVL63-.Ltext0
 19840 0f32 0200     		.2byte	0x2
 19841 0f34 30       		.byte	0x30
 19842 0f35 9F       		.byte	0x9f
 19843 0f36 00000000 		.4byte	0
 19844 0f3a 00000000 		.4byte	0
 19845              	.LVUS29:
 19846 0f3e 00       		.uleb128 0
 19847 0f3f 00       		.uleb128 .LVU310
 19848 0f40 00       		.uleb128 .LVU310
 19849 0f41 00       		.uleb128 .LVU335
 19850 0f42 00       		.uleb128 .LVU335
 19851 0f43 00       		.uleb128 .LVU352
 19852 0f44 00       		.uleb128 .LVU352
 19853 0f45 00       		.uleb128 0
 19854              	.LLST29:
 19855 0f46 C0010000 		.4byte	.LVL43-.Ltext0
 19856 0f4a F1010000 		.4byte	.LVL47-1-.Ltext0
 19857 0f4e 0100     		.2byte	0x1
 19858 0f50 50       		.byte	0x50
 19859 0f51 F1010000 		.4byte	.LVL47-1-.Ltext0
 19860 0f55 06020000 		.4byte	.LVL50-.Ltext0
 19861 0f59 0400     		.2byte	0x4
 19862 0f5b F3       		.byte	0xf3
 19863 0f5c 01       		.uleb128 0x1
 19864 0f5d 50       		.byte	0x50
 19865 0f5e 9F       		.byte	0x9f
ARM GAS  /tmp/ccpnbTSa.s 			page 350


 19866 0f5f 06020000 		.4byte	.LVL50-.Ltext0
 19867 0f63 10020000 		.4byte	.LVL53-.Ltext0
 19868 0f67 0100     		.2byte	0x1
 19869 0f69 50       		.byte	0x50
 19870 0f6a 10020000 		.4byte	.LVL53-.Ltext0
 19871 0f6e 12020000 		.4byte	.LFE373-.Ltext0
 19872 0f72 0400     		.2byte	0x4
 19873 0f74 F3       		.byte	0xf3
 19874 0f75 01       		.uleb128 0x1
 19875 0f76 50       		.byte	0x50
 19876 0f77 9F       		.byte	0x9f
 19877 0f78 00000000 		.4byte	0
 19878 0f7c 00000000 		.4byte	0
 19879              	.LVUS30:
 19880 0f80 00       		.uleb128 0
 19881 0f81 00       		.uleb128 .LVU310
 19882 0f82 00       		.uleb128 .LVU310
 19883 0f83 00       		.uleb128 .LVU335
 19884 0f84 00       		.uleb128 .LVU335
 19885 0f85 00       		.uleb128 0
 19886              	.LLST30:
 19887 0f86 C0010000 		.4byte	.LVL43-.Ltext0
 19888 0f8a F1010000 		.4byte	.LVL47-1-.Ltext0
 19889 0f8e 0100     		.2byte	0x1
 19890 0f90 51       		.byte	0x51
 19891 0f91 F1010000 		.4byte	.LVL47-1-.Ltext0
 19892 0f95 06020000 		.4byte	.LVL50-.Ltext0
 19893 0f99 0400     		.2byte	0x4
 19894 0f9b F3       		.byte	0xf3
 19895 0f9c 01       		.uleb128 0x1
 19896 0f9d 51       		.byte	0x51
 19897 0f9e 9F       		.byte	0x9f
 19898 0f9f 06020000 		.4byte	.LVL50-.Ltext0
 19899 0fa3 12020000 		.4byte	.LFE373-.Ltext0
 19900 0fa7 0100     		.2byte	0x1
 19901 0fa9 51       		.byte	0x51
 19902 0faa 00000000 		.4byte	0
 19903 0fae 00000000 		.4byte	0
 19904              	.LVUS31:
 19905 0fb2 00       		.uleb128 0
 19906 0fb3 00       		.uleb128 .LVU310
 19907 0fb4 00       		.uleb128 .LVU310
 19908 0fb5 00       		.uleb128 .LVU335
 19909 0fb6 00       		.uleb128 .LVU335
 19910 0fb7 00       		.uleb128 0
 19911              	.LLST31:
 19912 0fb8 C0010000 		.4byte	.LVL43-.Ltext0
 19913 0fbc F1010000 		.4byte	.LVL47-1-.Ltext0
 19914 0fc0 0100     		.2byte	0x1
 19915 0fc2 52       		.byte	0x52
 19916 0fc3 F1010000 		.4byte	.LVL47-1-.Ltext0
 19917 0fc7 06020000 		.4byte	.LVL50-.Ltext0
 19918 0fcb 0400     		.2byte	0x4
 19919 0fcd F3       		.byte	0xf3
 19920 0fce 01       		.uleb128 0x1
 19921 0fcf 52       		.byte	0x52
 19922 0fd0 9F       		.byte	0x9f
ARM GAS  /tmp/ccpnbTSa.s 			page 351


 19923 0fd1 06020000 		.4byte	.LVL50-.Ltext0
 19924 0fd5 12020000 		.4byte	.LFE373-.Ltext0
 19925 0fd9 0100     		.2byte	0x1
 19926 0fdb 52       		.byte	0x52
 19927 0fdc 00000000 		.4byte	0
 19928 0fe0 00000000 		.4byte	0
 19929              	.LVUS32:
 19930 0fe4 00       		.uleb128 0
 19931 0fe5 00       		.uleb128 .LVU310
 19932 0fe6 00       		.uleb128 .LVU310
 19933 0fe7 00       		.uleb128 .LVU335
 19934 0fe8 00       		.uleb128 .LVU335
 19935 0fe9 00       		.uleb128 .LVU348
 19936 0fea 00       		.uleb128 .LVU348
 19937 0feb 00       		.uleb128 0
 19938              	.LLST32:
 19939 0fec C0010000 		.4byte	.LVL43-.Ltext0
 19940 0ff0 F1010000 		.4byte	.LVL47-1-.Ltext0
 19941 0ff4 0100     		.2byte	0x1
 19942 0ff6 53       		.byte	0x53
 19943 0ff7 F1010000 		.4byte	.LVL47-1-.Ltext0
 19944 0ffb 06020000 		.4byte	.LVL50-.Ltext0
 19945 0fff 0400     		.2byte	0x4
 19946 1001 F3       		.byte	0xf3
 19947 1002 01       		.uleb128 0x1
 19948 1003 53       		.byte	0x53
 19949 1004 9F       		.byte	0x9f
 19950 1005 06020000 		.4byte	.LVL50-.Ltext0
 19951 1009 08020000 		.4byte	.LVL51-.Ltext0
 19952 100d 0100     		.2byte	0x1
 19953 100f 53       		.byte	0x53
 19954 1010 08020000 		.4byte	.LVL51-.Ltext0
 19955 1014 12020000 		.4byte	.LFE373-.Ltext0
 19956 1018 0400     		.2byte	0x4
 19957 101a F3       		.byte	0xf3
 19958 101b 01       		.uleb128 0x1
 19959 101c 53       		.byte	0x53
 19960 101d 9F       		.byte	0x9f
 19961 101e 00000000 		.4byte	0
 19962 1022 00000000 		.4byte	0
 19963              	.LVUS33:
 19964 1026 00       		.uleb128 .LVU318
 19965 1027 00       		.uleb128 .LVU335
 19966              	.LLST33:
 19967 1028 00020000 		.4byte	.LVL48-.Ltext0
 19968 102c 06020000 		.4byte	.LVL50-.Ltext0
 19969 1030 0100     		.2byte	0x1
 19970 1032 50       		.byte	0x50
 19971 1033 00000000 		.4byte	0
 19972 1037 00000000 		.4byte	0
 19973              	.LVUS34:
 19974 103b 09       		.uleb128 .LVU278
 19975 103c 00       		.uleb128 .LVU282
 19976              	.LLST34:
 19977 103d C0010000 		.4byte	.LVL43-.Ltext0
 19978 1041 C8010000 		.4byte	.LVL44-.Ltext0
 19979 1045 0300     		.2byte	0x3
ARM GAS  /tmp/ccpnbTSa.s 			page 352


 19980 1047 08       		.byte	0x8
 19981 1048 20       		.byte	0x20
 19982 1049 9F       		.byte	0x9f
 19983 104a 00000000 		.4byte	0
 19984 104e 00000000 		.4byte	0
 19985              	.LVUS35:
 19986 1052 01       		.uleb128 .LVU288
 19987 1053 00       		.uleb128 .LVU310
 19988 1054 00       		.uleb128 .LVU310
 19989 1055 00       		.uleb128 .LVU310
 19990              	.LLST35:
 19991 1056 CE010000 		.4byte	.LVL45-.Ltext0
 19992 105a F1010000 		.4byte	.LVL47-1-.Ltext0
 19993 105e 0100     		.2byte	0x1
 19994 1060 53       		.byte	0x53
 19995 1061 F1010000 		.4byte	.LVL47-1-.Ltext0
 19996 1065 F2010000 		.4byte	.LVL47-.Ltext0
 19997 1069 0400     		.2byte	0x4
 19998 106b F3       		.byte	0xf3
 19999 106c 01       		.uleb128 0x1
 20000 106d 53       		.byte	0x53
 20001 106e 9F       		.byte	0x9f
 20002 106f 00000000 		.4byte	0
 20003 1073 00000000 		.4byte	0
 20004              	.LVUS36:
 20005 1077 01       		.uleb128 .LVU288
 20006 1078 00       		.uleb128 .LVU310
 20007 1079 00       		.uleb128 .LVU310
 20008 107a 00       		.uleb128 .LVU310
 20009              	.LLST36:
 20010 107b CE010000 		.4byte	.LVL45-.Ltext0
 20011 107f F1010000 		.4byte	.LVL47-1-.Ltext0
 20012 1083 0100     		.2byte	0x1
 20013 1085 52       		.byte	0x52
 20014 1086 F1010000 		.4byte	.LVL47-1-.Ltext0
 20015 108a F2010000 		.4byte	.LVL47-.Ltext0
 20016 108e 0400     		.2byte	0x4
 20017 1090 F3       		.byte	0xf3
 20018 1091 01       		.uleb128 0x1
 20019 1092 52       		.byte	0x52
 20020 1093 9F       		.byte	0x9f
 20021 1094 00000000 		.4byte	0
 20022 1098 00000000 		.4byte	0
 20023              	.LVUS37:
 20024 109c 01       		.uleb128 .LVU288
 20025 109d 00       		.uleb128 .LVU310
 20026 109e 00       		.uleb128 .LVU310
 20027 109f 00       		.uleb128 .LVU310
 20028              	.LLST37:
 20029 10a0 CE010000 		.4byte	.LVL45-.Ltext0
 20030 10a4 F1010000 		.4byte	.LVL47-1-.Ltext0
 20031 10a8 0100     		.2byte	0x1
 20032 10aa 51       		.byte	0x51
 20033 10ab F1010000 		.4byte	.LVL47-1-.Ltext0
 20034 10af F2010000 		.4byte	.LVL47-.Ltext0
 20035 10b3 0400     		.2byte	0x4
 20036 10b5 F3       		.byte	0xf3
ARM GAS  /tmp/ccpnbTSa.s 			page 353


 20037 10b6 01       		.uleb128 0x1
 20038 10b7 51       		.byte	0x51
 20039 10b8 9F       		.byte	0x9f
 20040 10b9 00000000 		.4byte	0
 20041 10bd 00000000 		.4byte	0
 20042              	.LVUS38:
 20043 10c1 01       		.uleb128 .LVU288
 20044 10c2 00       		.uleb128 .LVU310
 20045 10c3 00       		.uleb128 .LVU310
 20046 10c4 00       		.uleb128 .LVU310
 20047              	.LLST38:
 20048 10c5 CE010000 		.4byte	.LVL45-.Ltext0
 20049 10c9 F1010000 		.4byte	.LVL47-1-.Ltext0
 20050 10cd 0100     		.2byte	0x1
 20051 10cf 50       		.byte	0x50
 20052 10d0 F1010000 		.4byte	.LVL47-1-.Ltext0
 20053 10d4 F2010000 		.4byte	.LVL47-.Ltext0
 20054 10d8 0400     		.2byte	0x4
 20055 10da F3       		.byte	0xf3
 20056 10db 01       		.uleb128 0x1
 20057 10dc 50       		.byte	0x50
 20058 10dd 9F       		.byte	0x9f
 20059 10de 00000000 		.4byte	0
 20060 10e2 00000000 		.4byte	0
 20061              	.LVUS39:
 20062 10e6 00       		.uleb128 .LVU303
 20063 10e7 00       		.uleb128 .LVU310
 20064              	.LLST39:
 20065 10e8 E6010000 		.4byte	.LVL46-.Ltext0
 20066 10ec F2010000 		.4byte	.LVL47-.Ltext0
 20067 10f0 0100     		.2byte	0x1
 20068 10f2 54       		.byte	0x54
 20069 10f3 00000000 		.4byte	0
 20070 10f7 00000000 		.4byte	0
 20071              	.LVUS40:
 20072 10fb 02       		.uleb128 .LVU312
 20073 10fc 00       		.uleb128 .LVU318
 20074              	.LLST40:
 20075 10fd F2010000 		.4byte	.LVL47-.Ltext0
 20076 1101 FF010000 		.4byte	.LVL48-1-.Ltext0
 20077 1105 0900     		.2byte	0x9
 20078 1107 77       		.byte	0x77
 20079 1108 0C       		.sleb128 12
 20080 1109 06       		.byte	0x6
 20081 110a 23       		.byte	0x23
 20082 110b 18       		.uleb128 0x18
 20083 110c 06       		.byte	0x6
 20084 110d 23       		.byte	0x23
 20085 110e 0C       		.uleb128 0xc
 20086 110f 9F       		.byte	0x9f
 20087 1110 00000000 		.4byte	0
 20088 1114 00000000 		.4byte	0
 20089              	.LVUS41:
 20090 1118 0C       		.uleb128 .LVU330
 20091 1119 00       		.uleb128 .LVU332
 20092              	.LLST41:
 20093 111a 00020000 		.4byte	.LVL48-.Ltext0
ARM GAS  /tmp/ccpnbTSa.s 			page 354


 20094 111e 04020000 		.4byte	.LVL49-.Ltext0
 20095 1122 0200     		.2byte	0x2
 20096 1124 30       		.byte	0x30
 20097 1125 9F       		.byte	0x9f
 20098 1126 00000000 		.4byte	0
 20099 112a 00000000 		.4byte	0
 20100              	.LVUS42:
 20101 112e 0B       		.uleb128 .LVU346
 20102 112f 00       		.uleb128 .LVU349
 20103              	.LLST42:
 20104 1130 06020000 		.4byte	.LVL50-.Ltext0
 20105 1134 0C020000 		.4byte	.LVL52-.Ltext0
 20106 1138 0200     		.2byte	0x2
 20107 113a 30       		.byte	0x30
 20108 113b 9F       		.byte	0x9f
 20109 113c 00000000 		.4byte	0
 20110 1140 00000000 		.4byte	0
 20111              	.LVUS14:
 20112 1144 00       		.uleb128 0
 20113 1145 01       		.uleb128 .LVU184
 20114 1146 01       		.uleb128 .LVU184
 20115 1147 00       		.uleb128 .LVU211
 20116 1148 00       		.uleb128 .LVU211
 20117 1149 00       		.uleb128 .LVU212
 20118 114a 00       		.uleb128 .LVU212
 20119 114b 00       		.uleb128 0
 20120              	.LLST14:
 20121 114c 00010000 		.4byte	.LVL25-.Ltext0
 20122 1150 16010000 		.4byte	.LVL26-.Ltext0
 20123 1154 0100     		.2byte	0x1
 20124 1156 50       		.byte	0x50
 20125 1157 16010000 		.4byte	.LVL26-.Ltext0
 20126 115b 4E010000 		.4byte	.LVL33-.Ltext0
 20127 115f 0100     		.2byte	0x1
 20128 1161 57       		.byte	0x57
 20129 1162 4E010000 		.4byte	.LVL33-.Ltext0
 20130 1166 51010000 		.4byte	.LVL34-1-.Ltext0
 20131 116a 0100     		.2byte	0x1
 20132 116c 50       		.byte	0x50
 20133 116d 51010000 		.4byte	.LVL34-1-.Ltext0
 20134 1171 52010000 		.4byte	.LFE370-.Ltext0
 20135 1175 0400     		.2byte	0x4
 20136 1177 F3       		.byte	0xf3
 20137 1178 01       		.uleb128 0x1
 20138 1179 50       		.byte	0x50
 20139 117a 9F       		.byte	0x9f
 20140 117b 00000000 		.4byte	0
 20141 117f 00000000 		.4byte	0
 20142              	.LVUS15:
 20143 1183 00       		.uleb128 .LVU190
 20144 1184 00       		.uleb128 .LVU204
 20145              	.LLST15:
 20146 1185 1E010000 		.4byte	.LVL27-.Ltext0
 20147 1189 40010000 		.4byte	.LVL32-.Ltext0
 20148 118d 0300     		.2byte	0x3
 20149 118f 09       		.byte	0x9
 20150 1190 FE       		.byte	0xfe
ARM GAS  /tmp/ccpnbTSa.s 			page 355


 20151 1191 9F       		.byte	0x9f
 20152 1192 00000000 		.4byte	0
 20153 1196 00000000 		.4byte	0
 20154              	.LVUS16:
 20155 119a 00       		.uleb128 .LVU190
 20156 119b 00       		.uleb128 .LVU192
 20157 119c 00       		.uleb128 .LVU192
 20158 119d 00       		.uleb128 .LVU195
 20159              	.LLST16:
 20160 119e 1E010000 		.4byte	.LVL27-.Ltext0
 20161 11a2 26010000 		.4byte	.LVL28-.Ltext0
 20162 11a6 0300     		.2byte	0x3
 20163 11a8 72       		.byte	0x72
 20164 11a9 0C       		.sleb128 12
 20165 11aa 9F       		.byte	0x9f
 20166 11ab 26010000 		.4byte	.LVL28-.Ltext0
 20167 11af 2B010000 		.4byte	.LVL29-1-.Ltext0
 20168 11b3 0100     		.2byte	0x1
 20169 11b5 50       		.byte	0x50
 20170 11b6 00000000 		.4byte	0
 20171 11ba 00000000 		.4byte	0
 20172              	.LVUS17:
 20173 11be 00       		.uleb128 .LVU199
 20174 11bf 00       		.uleb128 .LVU204
 20175              	.LLST17:
 20176 11c0 32010000 		.4byte	.LVL30-.Ltext0
 20177 11c4 40010000 		.4byte	.LVL32-.Ltext0
 20178 11c8 0300     		.2byte	0x3
 20179 11ca 09       		.byte	0x9
 20180 11cb FE       		.byte	0xfe
 20181 11cc 9F       		.byte	0x9f
 20182 11cd 00000000 		.4byte	0
 20183 11d1 00000000 		.4byte	0
 20184              	.LVUS18:
 20185 11d5 00       		.uleb128 .LVU199
 20186 11d6 00       		.uleb128 .LVU201
 20187 11d7 00       		.uleb128 .LVU201
 20188 11d8 00       		.uleb128 .LVU204
 20189              	.LLST18:
 20190 11d9 32010000 		.4byte	.LVL30-.Ltext0
 20191 11dd 3A010000 		.4byte	.LVL31-.Ltext0
 20192 11e1 0300     		.2byte	0x3
 20193 11e3 73       		.byte	0x73
 20194 11e4 0C       		.sleb128 12
 20195 11e5 9F       		.byte	0x9f
 20196 11e6 3A010000 		.4byte	.LVL31-.Ltext0
 20197 11ea 3F010000 		.4byte	.LVL32-1-.Ltext0
 20198 11ee 0100     		.2byte	0x1
 20199 11f0 50       		.byte	0x50
 20200 11f1 00000000 		.4byte	0
 20201 11f5 00000000 		.4byte	0
 20202              	.LVUS11:
 20203 11f9 00       		.uleb128 0
 20204 11fa 00       		.uleb128 .LVU168
 20205 11fb 00       		.uleb128 .LVU168
 20206 11fc 00       		.uleb128 0
 20207              	.LLST11:
ARM GAS  /tmp/ccpnbTSa.s 			page 356


 20208 11fd D0000000 		.4byte	.LVL22-.Ltext0
 20209 1201 FF000000 		.4byte	.LVL24-1-.Ltext0
 20210 1205 0100     		.2byte	0x1
 20211 1207 50       		.byte	0x50
 20212 1208 FF000000 		.4byte	.LVL24-1-.Ltext0
 20213 120c 00010000 		.4byte	.LFE369-.Ltext0
 20214 1210 0400     		.2byte	0x4
 20215 1212 F3       		.byte	0xf3
 20216 1213 01       		.uleb128 0x1
 20217 1214 50       		.byte	0x50
 20218 1215 9F       		.byte	0x9f
 20219 1216 00000000 		.4byte	0
 20220 121a 00000000 		.4byte	0
 20221              	.LVUS12:
 20222 121e 00       		.uleb128 0
 20223 121f 00       		.uleb128 .LVU168
 20224 1220 00       		.uleb128 .LVU168
 20225 1221 00       		.uleb128 0
 20226              	.LLST12:
 20227 1222 D0000000 		.4byte	.LVL22-.Ltext0
 20228 1226 FF000000 		.4byte	.LVL24-1-.Ltext0
 20229 122a 0100     		.2byte	0x1
 20230 122c 51       		.byte	0x51
 20231 122d FF000000 		.4byte	.LVL24-1-.Ltext0
 20232 1231 00010000 		.4byte	.LFE369-.Ltext0
 20233 1235 0400     		.2byte	0x4
 20234 1237 F3       		.byte	0xf3
 20235 1238 01       		.uleb128 0x1
 20236 1239 51       		.byte	0x51
 20237 123a 9F       		.byte	0x9f
 20238 123b 00000000 		.4byte	0
 20239 123f 00000000 		.4byte	0
 20240              	.LVUS13:
 20241 1243 00       		.uleb128 0
 20242 1244 00       		.uleb128 .LVU164
 20243 1245 00       		.uleb128 .LVU164
 20244 1246 00       		.uleb128 0
 20245              	.LLST13:
 20246 1247 D0000000 		.4byte	.LVL22-.Ltext0
 20247 124b EE000000 		.4byte	.LVL23-.Ltext0
 20248 124f 0100     		.2byte	0x1
 20249 1251 52       		.byte	0x52
 20250 1252 EE000000 		.4byte	.LVL23-.Ltext0
 20251 1256 00010000 		.4byte	.LFE369-.Ltext0
 20252 125a 0400     		.2byte	0x4
 20253 125c F3       		.byte	0xf3
 20254 125d 01       		.uleb128 0x1
 20255 125e 52       		.byte	0x52
 20256 125f 9F       		.byte	0x9f
 20257 1260 00000000 		.4byte	0
 20258 1264 00000000 		.4byte	0
 20259              	.LVUS4:
 20260 1268 00       		.uleb128 0
 20261 1269 00       		.uleb128 .LVU93
 20262 126a 00       		.uleb128 .LVU93
 20263 126b 00       		.uleb128 0
 20264              	.LLST4:
ARM GAS  /tmp/ccpnbTSa.s 			page 357


 20265 126c 70000000 		.4byte	.LVL10-.Ltext0
 20266 1270 7D000000 		.4byte	.LVL12-1-.Ltext0
 20267 1274 0100     		.2byte	0x1
 20268 1276 50       		.byte	0x50
 20269 1277 7D000000 		.4byte	.LVL12-1-.Ltext0
 20270 127b C8000000 		.4byte	.LFE368-.Ltext0
 20271 127f 0100     		.2byte	0x1
 20272 1281 57       		.byte	0x57
 20273 1282 00000000 		.4byte	0
 20274 1286 00000000 		.4byte	0
 20275              	.LVUS5:
 20276 128a 0B       		.uleb128 .LVU82
 20277 128b 00       		.uleb128 .LVU87
 20278              	.LLST5:
 20279 128c 70000000 		.4byte	.LVL10-.Ltext0
 20280 1290 7A000000 		.4byte	.LVL11-.Ltext0
 20281 1294 0300     		.2byte	0x3
 20282 1296 08       		.byte	0x8
 20283 1297 20       		.byte	0x20
 20284 1298 9F       		.byte	0x9f
 20285 1299 00000000 		.4byte	0
 20286 129d 00000000 		.4byte	0
 20287              	.LVUS6:
 20288 12a1 00       		.uleb128 .LVU107
 20289 12a2 00       		.uleb128 .LVU121
 20290              	.LLST6:
 20291 12a3 98000000 		.4byte	.LVL14-.Ltext0
 20292 12a7 B8000000 		.4byte	.LVL19-.Ltext0
 20293 12ab 0300     		.2byte	0x3
 20294 12ad 09       		.byte	0x9
 20295 12ae FE       		.byte	0xfe
 20296 12af 9F       		.byte	0x9f
 20297 12b0 00000000 		.4byte	0
 20298 12b4 00000000 		.4byte	0
 20299              	.LVUS7:
 20300 12b8 00       		.uleb128 .LVU107
 20301 12b9 00       		.uleb128 .LVU109
 20302 12ba 00       		.uleb128 .LVU109
 20303 12bb 00       		.uleb128 .LVU112
 20304              	.LLST7:
 20305 12bc 98000000 		.4byte	.LVL14-.Ltext0
 20306 12c0 A0000000 		.4byte	.LVL15-.Ltext0
 20307 12c4 0300     		.2byte	0x3
 20308 12c6 72       		.byte	0x72
 20309 12c7 0C       		.sleb128 12
 20310 12c8 9F       		.byte	0x9f
 20311 12c9 A0000000 		.4byte	.LVL15-.Ltext0
 20312 12cd A5000000 		.4byte	.LVL16-1-.Ltext0
 20313 12d1 0100     		.2byte	0x1
 20314 12d3 50       		.byte	0x50
 20315 12d4 00000000 		.4byte	0
 20316 12d8 00000000 		.4byte	0
 20317              	.LVUS8:
 20318 12dc 00       		.uleb128 .LVU116
 20319 12dd 00       		.uleb128 .LVU121
 20320              	.LLST8:
 20321 12de AA000000 		.4byte	.LVL17-.Ltext0
ARM GAS  /tmp/ccpnbTSa.s 			page 358


 20322 12e2 B8000000 		.4byte	.LVL19-.Ltext0
 20323 12e6 0300     		.2byte	0x3
 20324 12e8 09       		.byte	0x9
 20325 12e9 FE       		.byte	0xfe
 20326 12ea 9F       		.byte	0x9f
 20327 12eb 00000000 		.4byte	0
 20328 12ef 00000000 		.4byte	0
 20329              	.LVUS9:
 20330 12f3 00       		.uleb128 .LVU116
 20331 12f4 00       		.uleb128 .LVU118
 20332 12f5 00       		.uleb128 .LVU118
 20333 12f6 00       		.uleb128 .LVU121
 20334              	.LLST9:
 20335 12f7 AA000000 		.4byte	.LVL17-.Ltext0
 20336 12fb B2000000 		.4byte	.LVL18-.Ltext0
 20337 12ff 0300     		.2byte	0x3
 20338 1301 73       		.byte	0x73
 20339 1302 0C       		.sleb128 12
 20340 1303 9F       		.byte	0x9f
 20341 1304 B2000000 		.4byte	.LVL18-.Ltext0
 20342 1308 B7000000 		.4byte	.LVL19-1-.Ltext0
 20343 130c 0100     		.2byte	0x1
 20344 130e 50       		.byte	0x50
 20345 130f 00000000 		.4byte	0
 20346 1313 00000000 		.4byte	0
 20347              	.LVUS10:
 20348 1317 0B       		.uleb128 .LVU140
 20349 1318 00       		.uleb128 .LVU142
 20350              	.LLST10:
 20351 1319 C2000000 		.4byte	.LVL20-.Ltext0
 20352 131d C6000000 		.4byte	.LVL21-.Ltext0
 20353 1321 0200     		.2byte	0x2
 20354 1323 30       		.byte	0x30
 20355 1324 9F       		.byte	0x9f
 20356 1325 00000000 		.4byte	0
 20357 1329 00000000 		.4byte	0
 20358              	.LVUS0:
 20359 132d 00       		.uleb128 0
 20360 132e 00       		.uleb128 .LVU52
 20361 132f 00       		.uleb128 .LVU52
 20362 1330 00       		.uleb128 0
 20363              	.LLST0:
 20364 1331 40000000 		.4byte	.LVL3-.Ltext0
 20365 1335 60000000 		.4byte	.LVL6-.Ltext0
 20366 1339 0100     		.2byte	0x1
 20367 133b 50       		.byte	0x50
 20368 133c 60000000 		.4byte	.LVL6-.Ltext0
 20369 1340 6E000000 		.4byte	.LFE367-.Ltext0
 20370 1344 0100     		.2byte	0x1
 20371 1346 55       		.byte	0x55
 20372 1347 00000000 		.4byte	0
 20373 134b 00000000 		.4byte	0
 20374              	.LVUS1:
 20375 134f 00       		.uleb128 0
 20376 1350 00       		.uleb128 .LVU53
 20377 1351 00       		.uleb128 .LVU53
 20378 1352 00       		.uleb128 0
ARM GAS  /tmp/ccpnbTSa.s 			page 359


 20379              	.LLST1:
 20380 1353 40000000 		.4byte	.LVL3-.Ltext0
 20381 1357 63000000 		.4byte	.LVL7-1-.Ltext0
 20382 135b 0100     		.2byte	0x1
 20383 135d 51       		.byte	0x51
 20384 135e 63000000 		.4byte	.LVL7-1-.Ltext0
 20385 1362 6E000000 		.4byte	.LFE367-.Ltext0
 20386 1366 0400     		.2byte	0x4
 20387 1368 F3       		.byte	0xf3
 20388 1369 01       		.uleb128 0x1
 20389 136a 51       		.byte	0x51
 20390 136b 9F       		.byte	0x9f
 20391 136c 00000000 		.4byte	0
 20392 1370 00000000 		.4byte	0
 20393              	.LVUS2:
 20394 1374 0B       		.uleb128 .LVU34
 20395 1375 00       		.uleb128 .LVU39
 20396              	.LLST2:
 20397 1376 40000000 		.4byte	.LVL3-.Ltext0
 20398 137a 4A000000 		.4byte	.LVL4-.Ltext0
 20399 137e 0300     		.2byte	0x3
 20400 1380 08       		.byte	0x8
 20401 1381 20       		.byte	0x20
 20402 1382 9F       		.byte	0x9f
 20403 1383 00000000 		.4byte	0
 20404 1387 00000000 		.4byte	0
 20405              	.LVUS3:
 20406 138b 0B       		.uleb128 .LVU66
 20407 138c 00       		.uleb128 .LVU68
 20408              	.LLST3:
 20409 138d 68000000 		.4byte	.LVL8-.Ltext0
 20410 1391 6C000000 		.4byte	.LVL9-.Ltext0
 20411 1395 0200     		.2byte	0x2
 20412 1397 30       		.byte	0x30
 20413 1398 9F       		.byte	0x9f
 20414 1399 00000000 		.4byte	0
 20415 139d 00000000 		.4byte	0
 20416              	.LVUS19:
 20417 13a1 00       		.uleb128 0
 20418 13a2 00       		.uleb128 .LVU240
 20419 13a3 00       		.uleb128 .LVU240
 20420 13a4 00       		.uleb128 0
 20421              	.LLST19:
 20422 13a5 60010000 		.4byte	.LVL35-.Ltext0
 20423 13a9 8B010000 		.4byte	.LVL38-1-.Ltext0
 20424 13ad 0100     		.2byte	0x1
 20425 13af 50       		.byte	0x50
 20426 13b0 8B010000 		.4byte	.LVL38-1-.Ltext0
 20427 13b4 8C010000 		.4byte	.LFE371-.Ltext0
 20428 13b8 0400     		.2byte	0x4
 20429 13ba F3       		.byte	0xf3
 20430 13bb 01       		.uleb128 0x1
 20431 13bc 50       		.byte	0x50
 20432 13bd 9F       		.byte	0x9f
 20433 13be 00000000 		.4byte	0
 20434 13c2 00000000 		.4byte	0
 20435              	.LVUS20:
ARM GAS  /tmp/ccpnbTSa.s 			page 360


 20436 13c6 00       		.uleb128 0
 20437 13c7 00       		.uleb128 .LVU240
 20438 13c8 00       		.uleb128 .LVU240
 20439 13c9 00       		.uleb128 0
 20440              	.LLST20:
 20441 13ca 60010000 		.4byte	.LVL35-.Ltext0
 20442 13ce 8B010000 		.4byte	.LVL38-1-.Ltext0
 20443 13d2 0100     		.2byte	0x1
 20444 13d4 51       		.byte	0x51
 20445 13d5 8B010000 		.4byte	.LVL38-1-.Ltext0
 20446 13d9 8C010000 		.4byte	.LFE371-.Ltext0
 20447 13dd 0400     		.2byte	0x4
 20448 13df F3       		.byte	0xf3
 20449 13e0 01       		.uleb128 0x1
 20450 13e1 51       		.byte	0x51
 20451 13e2 9F       		.byte	0x9f
 20452 13e3 00000000 		.4byte	0
 20453 13e7 00000000 		.4byte	0
 20454              	.LVUS21:
 20455 13eb 00       		.uleb128 0
 20456 13ec 00       		.uleb128 .LVU240
 20457 13ed 00       		.uleb128 .LVU240
 20458 13ee 00       		.uleb128 0
 20459              	.LLST21:
 20460 13ef 60010000 		.4byte	.LVL35-.Ltext0
 20461 13f3 8B010000 		.4byte	.LVL38-1-.Ltext0
 20462 13f7 0100     		.2byte	0x1
 20463 13f9 52       		.byte	0x52
 20464 13fa 8B010000 		.4byte	.LVL38-1-.Ltext0
 20465 13fe 8C010000 		.4byte	.LFE371-.Ltext0
 20466 1402 0400     		.2byte	0x4
 20467 1404 F3       		.byte	0xf3
 20468 1405 01       		.uleb128 0x1
 20469 1406 52       		.byte	0x52
 20470 1407 9F       		.byte	0x9f
 20471 1408 00000000 		.4byte	0
 20472 140c 00000000 		.4byte	0
 20473              	.LVUS22:
 20474 1410 00       		.uleb128 0
 20475 1411 00       		.uleb128 .LVU240
 20476 1412 00       		.uleb128 .LVU240
 20477 1413 00       		.uleb128 0
 20478              	.LLST22:
 20479 1414 60010000 		.4byte	.LVL35-.Ltext0
 20480 1418 8B010000 		.4byte	.LVL38-1-.Ltext0
 20481 141c 0100     		.2byte	0x1
 20482 141e 53       		.byte	0x53
 20483 141f 8B010000 		.4byte	.LVL38-1-.Ltext0
 20484 1423 8C010000 		.4byte	.LFE371-.Ltext0
 20485 1427 0400     		.2byte	0x4
 20486 1429 F3       		.byte	0xf3
 20487 142a 01       		.uleb128 0x1
 20488 142b 53       		.byte	0x53
 20489 142c 9F       		.byte	0x9f
 20490 142d 00000000 		.4byte	0
 20491 1431 00000000 		.4byte	0
 20492              	.LVUS23:
ARM GAS  /tmp/ccpnbTSa.s 			page 361


 20493 1435 01       		.uleb128 .LVU231
 20494 1436 00       		.uleb128 .LVU239
 20495 1437 00       		.uleb128 .LVU239
 20496 1438 00       		.uleb128 .LVU240
 20497              	.LLST23:
 20498 1439 7C010000 		.4byte	.LVL36-.Ltext0
 20499 143d 88010000 		.4byte	.LVL37-.Ltext0
 20500 1441 0100     		.2byte	0x1
 20501 1443 55       		.byte	0x55
 20502 1444 88010000 		.4byte	.LVL37-.Ltext0
 20503 1448 8B010000 		.4byte	.LVL38-1-.Ltext0
 20504 144c 0C00     		.2byte	0xc
 20505 144e 71       		.byte	0x71
 20506 144f 00       		.sleb128 0
 20507 1450 32       		.byte	0x32
 20508 1451 24       		.byte	0x24
 20509 1452 70       		.byte	0x70
 20510 1453 00       		.sleb128 0
 20511 1454 22       		.byte	0x22
 20512 1455 23       		.byte	0x23
 20513 1456 0C       		.uleb128 0xc
 20514 1457 06       		.byte	0x6
 20515 1458 23       		.byte	0x23
 20516 1459 18       		.uleb128 0x18
 20517 145a 00000000 		.4byte	0
 20518 145e 00000000 		.4byte	0
 20519              	.LVUS24:
 20520 1462 00       		.uleb128 0
 20521 1463 00       		.uleb128 .LVU268
 20522 1464 00       		.uleb128 .LVU268
 20523 1465 00       		.uleb128 0
 20524              	.LLST24:
 20525 1466 90010000 		.4byte	.LVL39-.Ltext0
 20526 146a BB010000 		.4byte	.LVL42-1-.Ltext0
 20527 146e 0100     		.2byte	0x1
 20528 1470 50       		.byte	0x50
 20529 1471 BB010000 		.4byte	.LVL42-1-.Ltext0
 20530 1475 BC010000 		.4byte	.LFE372-.Ltext0
 20531 1479 0400     		.2byte	0x4
 20532 147b F3       		.byte	0xf3
 20533 147c 01       		.uleb128 0x1
 20534 147d 50       		.byte	0x50
 20535 147e 9F       		.byte	0x9f
 20536 147f 00000000 		.4byte	0
 20537 1483 00000000 		.4byte	0
 20538              	.LVUS25:
 20539 1487 00       		.uleb128 0
 20540 1488 00       		.uleb128 .LVU268
 20541 1489 00       		.uleb128 .LVU268
 20542 148a 00       		.uleb128 0
 20543              	.LLST25:
 20544 148b 90010000 		.4byte	.LVL39-.Ltext0
 20545 148f BB010000 		.4byte	.LVL42-1-.Ltext0
 20546 1493 0100     		.2byte	0x1
 20547 1495 51       		.byte	0x51
 20548 1496 BB010000 		.4byte	.LVL42-1-.Ltext0
 20549 149a BC010000 		.4byte	.LFE372-.Ltext0
ARM GAS  /tmp/ccpnbTSa.s 			page 362


 20550 149e 0400     		.2byte	0x4
 20551 14a0 F3       		.byte	0xf3
 20552 14a1 01       		.uleb128 0x1
 20553 14a2 51       		.byte	0x51
 20554 14a3 9F       		.byte	0x9f
 20555 14a4 00000000 		.4byte	0
 20556 14a8 00000000 		.4byte	0
 20557              	.LVUS26:
 20558 14ac 00       		.uleb128 0
 20559 14ad 00       		.uleb128 .LVU268
 20560 14ae 00       		.uleb128 .LVU268
 20561 14af 00       		.uleb128 0
 20562              	.LLST26:
 20563 14b0 90010000 		.4byte	.LVL39-.Ltext0
 20564 14b4 BB010000 		.4byte	.LVL42-1-.Ltext0
 20565 14b8 0100     		.2byte	0x1
 20566 14ba 52       		.byte	0x52
 20567 14bb BB010000 		.4byte	.LVL42-1-.Ltext0
 20568 14bf BC010000 		.4byte	.LFE372-.Ltext0
 20569 14c3 0400     		.2byte	0x4
 20570 14c5 F3       		.byte	0xf3
 20571 14c6 01       		.uleb128 0x1
 20572 14c7 52       		.byte	0x52
 20573 14c8 9F       		.byte	0x9f
 20574 14c9 00000000 		.4byte	0
 20575 14cd 00000000 		.4byte	0
 20576              	.LVUS27:
 20577 14d1 00       		.uleb128 0
 20578 14d2 00       		.uleb128 .LVU268
 20579 14d3 00       		.uleb128 .LVU268
 20580 14d4 00       		.uleb128 0
 20581              	.LLST27:
 20582 14d5 90010000 		.4byte	.LVL39-.Ltext0
 20583 14d9 BB010000 		.4byte	.LVL42-1-.Ltext0
 20584 14dd 0100     		.2byte	0x1
 20585 14df 53       		.byte	0x53
 20586 14e0 BB010000 		.4byte	.LVL42-1-.Ltext0
 20587 14e4 BC010000 		.4byte	.LFE372-.Ltext0
 20588 14e8 0400     		.2byte	0x4
 20589 14ea F3       		.byte	0xf3
 20590 14eb 01       		.uleb128 0x1
 20591 14ec 53       		.byte	0x53
 20592 14ed 9F       		.byte	0x9f
 20593 14ee 00000000 		.4byte	0
 20594 14f2 00000000 		.4byte	0
 20595              	.LVUS28:
 20596 14f6 01       		.uleb128 .LVU259
 20597 14f7 00       		.uleb128 .LVU267
 20598 14f8 00       		.uleb128 .LVU267
 20599 14f9 00       		.uleb128 .LVU268
 20600              	.LLST28:
 20601 14fa AC010000 		.4byte	.LVL40-.Ltext0
 20602 14fe B8010000 		.4byte	.LVL41-.Ltext0
 20603 1502 0100     		.2byte	0x1
 20604 1504 55       		.byte	0x55
 20605 1505 B8010000 		.4byte	.LVL41-.Ltext0
 20606 1509 BB010000 		.4byte	.LVL42-1-.Ltext0
ARM GAS  /tmp/ccpnbTSa.s 			page 363


 20607 150d 0C00     		.2byte	0xc
 20608 150f 71       		.byte	0x71
 20609 1510 00       		.sleb128 0
 20610 1511 32       		.byte	0x32
 20611 1512 24       		.byte	0x24
 20612 1513 70       		.byte	0x70
 20613 1514 00       		.sleb128 0
 20614 1515 22       		.byte	0x22
 20615 1516 23       		.byte	0x23
 20616 1517 0C       		.uleb128 0xc
 20617 1518 06       		.byte	0x6
 20618 1519 23       		.byte	0x23
 20619 151a 14       		.uleb128 0x14
 20620 151b 00000000 		.4byte	0
 20621 151f 00000000 		.4byte	0
 20622              		.section	.debug_aranges,"",%progbits
 20623 0000 1C000000 		.4byte	0x1c
 20624 0004 0200     		.2byte	0x2
 20625 0006 00000000 		.4byte	.Ldebug_info0
 20626 000a 04       		.byte	0x4
 20627 000b 00       		.byte	0
 20628 000c 0000     		.2byte	0
 20629 000e 0000     		.2byte	0
 20630 0010 00000000 		.4byte	.Ltext0
 20631 0014 F8080000 		.4byte	.Letext0-.Ltext0
 20632 0018 00000000 		.4byte	0
 20633 001c 00000000 		.4byte	0
 20634              		.section	.debug_ranges,"",%progbits
 20635              	.Ldebug_ranges0:
 20636 0000 40000000 		.4byte	.LBB309-.Ltext0
 20637 0004 40000000 		.4byte	.LBE309-.Ltext0
 20638 0008 40000000 		.4byte	.LBB321-.Ltext0
 20639 000c 40000000 		.4byte	.LBE321-.Ltext0
 20640 0010 40000000 		.4byte	.LBB322-.Ltext0
 20641 0014 40000000 		.4byte	.LBE322-.Ltext0
 20642 0018 40000000 		.4byte	.LBB323-.Ltext0
 20643 001c 40000000 		.4byte	.LBE323-.Ltext0
 20644 0020 44000000 		.4byte	.LBB324-.Ltext0
 20645 0024 4A000000 		.4byte	.LBE324-.Ltext0
 20646 0028 00000000 		.4byte	0
 20647 002c 00000000 		.4byte	0
 20648 0030 68000000 		.4byte	.LBB325-.Ltext0
 20649 0034 68000000 		.4byte	.LBE325-.Ltext0
 20650 0038 68000000 		.4byte	.LBB334-.Ltext0
 20651 003c 68000000 		.4byte	.LBE334-.Ltext0
 20652 0040 68000000 		.4byte	.LBB335-.Ltext0
 20653 0044 6C000000 		.4byte	.LBE335-.Ltext0
 20654 0048 00000000 		.4byte	0
 20655 004c 00000000 		.4byte	0
 20656 0050 70000000 		.4byte	.LBB336-.Ltext0
 20657 0054 70000000 		.4byte	.LBE336-.Ltext0
 20658 0058 70000000 		.4byte	.LBB348-.Ltext0
 20659 005c 70000000 		.4byte	.LBE348-.Ltext0
 20660 0060 70000000 		.4byte	.LBB349-.Ltext0
 20661 0064 70000000 		.4byte	.LBE349-.Ltext0
 20662 0068 70000000 		.4byte	.LBB350-.Ltext0
 20663 006c 70000000 		.4byte	.LBE350-.Ltext0
ARM GAS  /tmp/ccpnbTSa.s 			page 364


 20664 0070 74000000 		.4byte	.LBB351-.Ltext0
 20665 0074 7A000000 		.4byte	.LBE351-.Ltext0
 20666 0078 00000000 		.4byte	0
 20667 007c 00000000 		.4byte	0
 20668 0080 98000000 		.4byte	.LBB352-.Ltext0
 20669 0084 A0000000 		.4byte	.LBE352-.Ltext0
 20670 0088 A2000000 		.4byte	.LBB355-.Ltext0
 20671 008c A8000000 		.4byte	.LBE355-.Ltext0
 20672 0090 00000000 		.4byte	0
 20673 0094 00000000 		.4byte	0
 20674 0098 AA000000 		.4byte	.LBB356-.Ltext0
 20675 009c B2000000 		.4byte	.LBE356-.Ltext0
 20676 00a0 B4000000 		.4byte	.LBB359-.Ltext0
 20677 00a4 B8000000 		.4byte	.LBE359-.Ltext0
 20678 00a8 00000000 		.4byte	0
 20679 00ac 00000000 		.4byte	0
 20680 00b0 C2000000 		.4byte	.LBB362-.Ltext0
 20681 00b4 C2000000 		.4byte	.LBE362-.Ltext0
 20682 00b8 C2000000 		.4byte	.LBB371-.Ltext0
 20683 00bc C2000000 		.4byte	.LBE371-.Ltext0
 20684 00c0 C2000000 		.4byte	.LBB372-.Ltext0
 20685 00c4 C6000000 		.4byte	.LBE372-.Ltext0
 20686 00c8 00000000 		.4byte	0
 20687 00cc 00000000 		.4byte	0
 20688 00d0 1E010000 		.4byte	.LBB373-.Ltext0
 20689 00d4 26010000 		.4byte	.LBE373-.Ltext0
 20690 00d8 28010000 		.4byte	.LBB376-.Ltext0
 20691 00dc 30010000 		.4byte	.LBE376-.Ltext0
 20692 00e0 00000000 		.4byte	0
 20693 00e4 00000000 		.4byte	0
 20694 00e8 32010000 		.4byte	.LBB377-.Ltext0
 20695 00ec 3A010000 		.4byte	.LBE377-.Ltext0
 20696 00f0 3C010000 		.4byte	.LBB380-.Ltext0
 20697 00f4 40010000 		.4byte	.LBE380-.Ltext0
 20698 00f8 00000000 		.4byte	0
 20699 00fc 00000000 		.4byte	0
 20700 0100 C0010000 		.4byte	.LBB381-.Ltext0
 20701 0104 C0010000 		.4byte	.LBE381-.Ltext0
 20702 0108 C0010000 		.4byte	.LBB393-.Ltext0
 20703 010c C0010000 		.4byte	.LBE393-.Ltext0
 20704 0110 C0010000 		.4byte	.LBB394-.Ltext0
 20705 0114 C0010000 		.4byte	.LBE394-.Ltext0
 20706 0118 C0010000 		.4byte	.LBB395-.Ltext0
 20707 011c C0010000 		.4byte	.LBE395-.Ltext0
 20708 0120 C2010000 		.4byte	.LBB396-.Ltext0
 20709 0124 C8010000 		.4byte	.LBE396-.Ltext0
 20710 0128 00000000 		.4byte	0
 20711 012c 00000000 		.4byte	0
 20712 0130 F2010000 		.4byte	.LBB399-.Ltext0
 20713 0134 F2010000 		.4byte	.LBE399-.Ltext0
 20714 0138 F4010000 		.4byte	.LBB403-.Ltext0
 20715 013c F8010000 		.4byte	.LBE403-.Ltext0
 20716 0140 FA010000 		.4byte	.LBB404-.Ltext0
 20717 0144 00020000 		.4byte	.LBE404-.Ltext0
 20718 0148 00000000 		.4byte	0
 20719 014c 00000000 		.4byte	0
 20720 0150 00020000 		.4byte	.LBB405-.Ltext0
ARM GAS  /tmp/ccpnbTSa.s 			page 365


 20721 0154 00020000 		.4byte	.LBE405-.Ltext0
 20722 0158 00020000 		.4byte	.LBB414-.Ltext0
 20723 015c 00020000 		.4byte	.LBE414-.Ltext0
 20724 0160 00020000 		.4byte	.LBB415-.Ltext0
 20725 0164 04020000 		.4byte	.LBE415-.Ltext0
 20726 0168 00000000 		.4byte	0
 20727 016c 00000000 		.4byte	0
 20728 0170 06020000 		.4byte	.LBB416-.Ltext0
 20729 0174 06020000 		.4byte	.LBE416-.Ltext0
 20730 0178 06020000 		.4byte	.LBB425-.Ltext0
 20731 017c 06020000 		.4byte	.LBE425-.Ltext0
 20732 0180 06020000 		.4byte	.LBB426-.Ltext0
 20733 0184 0C020000 		.4byte	.LBE426-.Ltext0
 20734 0188 00000000 		.4byte	0
 20735 018c 00000000 		.4byte	0
 20736 0190 20020000 		.4byte	.LBB427-.Ltext0
 20737 0194 20020000 		.4byte	.LBE427-.Ltext0
 20738 0198 20020000 		.4byte	.LBB439-.Ltext0
 20739 019c 20020000 		.4byte	.LBE439-.Ltext0
 20740 01a0 20020000 		.4byte	.LBB440-.Ltext0
 20741 01a4 20020000 		.4byte	.LBE440-.Ltext0
 20742 01a8 20020000 		.4byte	.LBB441-.Ltext0
 20743 01ac 20020000 		.4byte	.LBE441-.Ltext0
 20744 01b0 22020000 		.4byte	.LBB442-.Ltext0
 20745 01b4 28020000 		.4byte	.LBE442-.Ltext0
 20746 01b8 00000000 		.4byte	0
 20747 01bc 00000000 		.4byte	0
 20748 01c0 52020000 		.4byte	.LBB445-.Ltext0
 20749 01c4 52020000 		.4byte	.LBE445-.Ltext0
 20750 01c8 54020000 		.4byte	.LBB449-.Ltext0
 20751 01cc 58020000 		.4byte	.LBE449-.Ltext0
 20752 01d0 5A020000 		.4byte	.LBB450-.Ltext0
 20753 01d4 60020000 		.4byte	.LBE450-.Ltext0
 20754 01d8 00000000 		.4byte	0
 20755 01dc 00000000 		.4byte	0
 20756 01e0 60020000 		.4byte	.LBB451-.Ltext0
 20757 01e4 60020000 		.4byte	.LBE451-.Ltext0
 20758 01e8 60020000 		.4byte	.LBB460-.Ltext0
 20759 01ec 60020000 		.4byte	.LBE460-.Ltext0
 20760 01f0 60020000 		.4byte	.LBB461-.Ltext0
 20761 01f4 64020000 		.4byte	.LBE461-.Ltext0
 20762 01f8 00000000 		.4byte	0
 20763 01fc 00000000 		.4byte	0
 20764 0200 66020000 		.4byte	.LBB462-.Ltext0
 20765 0204 66020000 		.4byte	.LBE462-.Ltext0
 20766 0208 66020000 		.4byte	.LBB471-.Ltext0
 20767 020c 66020000 		.4byte	.LBE471-.Ltext0
 20768 0210 66020000 		.4byte	.LBB472-.Ltext0
 20769 0214 6C020000 		.4byte	.LBE472-.Ltext0
 20770 0218 00000000 		.4byte	0
 20771 021c 00000000 		.4byte	0
 20772 0220 0C030000 		.4byte	.LBB475-.Ltext0
 20773 0224 0E030000 		.4byte	.LBE475-.Ltext0
 20774 0228 1E030000 		.4byte	.LBB514-.Ltext0
 20775 022c 1E030000 		.4byte	.LBE514-.Ltext0
 20776 0230 1E030000 		.4byte	.LBB515-.Ltext0
 20777 0234 1E030000 		.4byte	.LBE515-.Ltext0
ARM GAS  /tmp/ccpnbTSa.s 			page 366


 20778 0238 1E030000 		.4byte	.LBB516-.Ltext0
 20779 023c 1E030000 		.4byte	.LBE516-.Ltext0
 20780 0240 1E030000 		.4byte	.LBB517-.Ltext0
 20781 0244 1E030000 		.4byte	.LBE517-.Ltext0
 20782 0248 1E030000 		.4byte	.LBB518-.Ltext0
 20783 024c 1E030000 		.4byte	.LBE518-.Ltext0
 20784 0250 24030000 		.4byte	.LBB519-.Ltext0
 20785 0254 28030000 		.4byte	.LBE519-.Ltext0
 20786 0258 00000000 		.4byte	0
 20787 025c 00000000 		.4byte	0
 20788 0260 0C030000 		.4byte	.LBB476-.Ltext0
 20789 0264 0E030000 		.4byte	.LBE476-.Ltext0
 20790 0268 1E030000 		.4byte	.LBB492-.Ltext0
 20791 026c 1E030000 		.4byte	.LBE492-.Ltext0
 20792 0270 1E030000 		.4byte	.LBB493-.Ltext0
 20793 0274 1E030000 		.4byte	.LBE493-.Ltext0
 20794 0278 1E030000 		.4byte	.LBB494-.Ltext0
 20795 027c 1E030000 		.4byte	.LBE494-.Ltext0
 20796 0280 1E030000 		.4byte	.LBB495-.Ltext0
 20797 0284 1E030000 		.4byte	.LBE495-.Ltext0
 20798 0288 24030000 		.4byte	.LBB496-.Ltext0
 20799 028c 28030000 		.4byte	.LBE496-.Ltext0
 20800 0290 00000000 		.4byte	0
 20801 0294 00000000 		.4byte	0
 20802 0298 0C030000 		.4byte	.LBB477-.Ltext0
 20803 029c 0E030000 		.4byte	.LBE477-.Ltext0
 20804 02a0 1E030000 		.4byte	.LBB488-.Ltext0
 20805 02a4 1E030000 		.4byte	.LBE488-.Ltext0
 20806 02a8 1E030000 		.4byte	.LBB489-.Ltext0
 20807 02ac 1E030000 		.4byte	.LBE489-.Ltext0
 20808 02b0 1E030000 		.4byte	.LBB490-.Ltext0
 20809 02b4 1E030000 		.4byte	.LBE490-.Ltext0
 20810 02b8 24030000 		.4byte	.LBB491-.Ltext0
 20811 02bc 28030000 		.4byte	.LBE491-.Ltext0
 20812 02c0 00000000 		.4byte	0
 20813 02c4 00000000 		.4byte	0
 20814 02c8 0C030000 		.4byte	.LBB478-.Ltext0
 20815 02cc 0E030000 		.4byte	.LBE478-.Ltext0
 20816 02d0 1E030000 		.4byte	.LBB485-.Ltext0
 20817 02d4 1E030000 		.4byte	.LBE485-.Ltext0
 20818 02d8 1E030000 		.4byte	.LBB486-.Ltext0
 20819 02dc 1E030000 		.4byte	.LBE486-.Ltext0
 20820 02e0 24030000 		.4byte	.LBB487-.Ltext0
 20821 02e4 28030000 		.4byte	.LBE487-.Ltext0
 20822 02e8 00000000 		.4byte	0
 20823 02ec 00000000 		.4byte	0
 20824 02f0 0C030000 		.4byte	.LBB479-.Ltext0
 20825 02f4 0E030000 		.4byte	.LBE479-.Ltext0
 20826 02f8 1E030000 		.4byte	.LBB483-.Ltext0
 20827 02fc 1E030000 		.4byte	.LBE483-.Ltext0
 20828 0300 24030000 		.4byte	.LBB484-.Ltext0
 20829 0304 28030000 		.4byte	.LBE484-.Ltext0
 20830 0308 00000000 		.4byte	0
 20831 030c 00000000 		.4byte	0
 20832 0310 0E030000 		.4byte	.LBB497-.Ltext0
 20833 0314 14030000 		.4byte	.LBE497-.Ltext0
 20834 0318 4C030000 		.4byte	.LBB530-.Ltext0
ARM GAS  /tmp/ccpnbTSa.s 			page 367


 20835 031c 4C030000 		.4byte	.LBE530-.Ltext0
 20836 0320 4C030000 		.4byte	.LBB531-.Ltext0
 20837 0324 4C030000 		.4byte	.LBE531-.Ltext0
 20838 0328 4C030000 		.4byte	.LBB532-.Ltext0
 20839 032c 4C030000 		.4byte	.LBE532-.Ltext0
 20840 0330 4C030000 		.4byte	.LBB533-.Ltext0
 20841 0334 4C030000 		.4byte	.LBE533-.Ltext0
 20842 0338 4C030000 		.4byte	.LBB534-.Ltext0
 20843 033c 50030000 		.4byte	.LBE534-.Ltext0
 20844 0340 00000000 		.4byte	0
 20845 0344 00000000 		.4byte	0
 20846 0348 0E030000 		.4byte	.LBB498-.Ltext0
 20847 034c 14030000 		.4byte	.LBE498-.Ltext0
 20848 0350 4C030000 		.4byte	.LBB510-.Ltext0
 20849 0354 4C030000 		.4byte	.LBE510-.Ltext0
 20850 0358 4C030000 		.4byte	.LBB511-.Ltext0
 20851 035c 4C030000 		.4byte	.LBE511-.Ltext0
 20852 0360 4C030000 		.4byte	.LBB512-.Ltext0
 20853 0364 4C030000 		.4byte	.LBE512-.Ltext0
 20854 0368 4C030000 		.4byte	.LBB513-.Ltext0
 20855 036c 50030000 		.4byte	.LBE513-.Ltext0
 20856 0370 00000000 		.4byte	0
 20857 0374 00000000 		.4byte	0
 20858 0378 0E030000 		.4byte	.LBB499-.Ltext0
 20859 037c 14030000 		.4byte	.LBE499-.Ltext0
 20860 0380 4C030000 		.4byte	.LBB507-.Ltext0
 20861 0384 4C030000 		.4byte	.LBE507-.Ltext0
 20862 0388 4C030000 		.4byte	.LBB508-.Ltext0
 20863 038c 4C030000 		.4byte	.LBE508-.Ltext0
 20864 0390 4C030000 		.4byte	.LBB509-.Ltext0
 20865 0394 50030000 		.4byte	.LBE509-.Ltext0
 20866 0398 00000000 		.4byte	0
 20867 039c 00000000 		.4byte	0
 20868 03a0 0E030000 		.4byte	.LBB500-.Ltext0
 20869 03a4 14030000 		.4byte	.LBE500-.Ltext0
 20870 03a8 4C030000 		.4byte	.LBB505-.Ltext0
 20871 03ac 4C030000 		.4byte	.LBE505-.Ltext0
 20872 03b0 4C030000 		.4byte	.LBB506-.Ltext0
 20873 03b4 50030000 		.4byte	.LBE506-.Ltext0
 20874 03b8 00000000 		.4byte	0
 20875 03bc 00000000 		.4byte	0
 20876 03c0 0E030000 		.4byte	.LBB501-.Ltext0
 20877 03c4 14030000 		.4byte	.LBE501-.Ltext0
 20878 03c8 4C030000 		.4byte	.LBB504-.Ltext0
 20879 03cc 50030000 		.4byte	.LBE504-.Ltext0
 20880 03d0 00000000 		.4byte	0
 20881 03d4 00000000 		.4byte	0
 20882 03d8 2A030000 		.4byte	.LBB520-.Ltext0
 20883 03dc 2E030000 		.4byte	.LBE520-.Ltext0
 20884 03e0 30030000 		.4byte	.LBB524-.Ltext0
 20885 03e4 34030000 		.4byte	.LBE524-.Ltext0
 20886 03e8 36030000 		.4byte	.LBB525-.Ltext0
 20887 03ec 3C030000 		.4byte	.LBE525-.Ltext0
 20888 03f0 00000000 		.4byte	0
 20889 03f4 00000000 		.4byte	0
 20890 03f8 3E030000 		.4byte	.LBB526-.Ltext0
 20891 03fc 46030000 		.4byte	.LBE526-.Ltext0
ARM GAS  /tmp/ccpnbTSa.s 			page 368


 20892 0400 48030000 		.4byte	.LBB529-.Ltext0
 20893 0404 4C030000 		.4byte	.LBE529-.Ltext0
 20894 0408 00000000 		.4byte	0
 20895 040c 00000000 		.4byte	0
 20896 0410 9A030000 		.4byte	.LBB535-.Ltext0
 20897 0414 A2030000 		.4byte	.LBE535-.Ltext0
 20898 0418 A6030000 		.4byte	.LBB596-.Ltext0
 20899 041c A6030000 		.4byte	.LBE596-.Ltext0
 20900 0420 A6030000 		.4byte	.LBB597-.Ltext0
 20901 0424 A6030000 		.4byte	.LBE597-.Ltext0
 20902 0428 A6030000 		.4byte	.LBB598-.Ltext0
 20903 042c A6030000 		.4byte	.LBE598-.Ltext0
 20904 0430 A6030000 		.4byte	.LBB599-.Ltext0
 20905 0434 A6030000 		.4byte	.LBE599-.Ltext0
 20906 0438 A6030000 		.4byte	.LBB600-.Ltext0
 20907 043c B0030000 		.4byte	.LBE600-.Ltext0
 20908 0440 B0030000 		.4byte	.LBB601-.Ltext0
 20909 0444 D4030000 		.4byte	.LBE601-.Ltext0
 20910 0448 D4030000 		.4byte	.LBB602-.Ltext0
 20911 044c D4030000 		.4byte	.LBE602-.Ltext0
 20912 0450 D4030000 		.4byte	.LBB603-.Ltext0
 20913 0454 D4030000 		.4byte	.LBE603-.Ltext0
 20914 0458 D4030000 		.4byte	.LBB604-.Ltext0
 20915 045c D4030000 		.4byte	.LBE604-.Ltext0
 20916 0460 D4030000 		.4byte	.LBB605-.Ltext0
 20917 0464 DC030000 		.4byte	.LBE605-.Ltext0
 20918 0468 00000000 		.4byte	0
 20919 046c 00000000 		.4byte	0
 20920 0470 9A030000 		.4byte	.LBB536-.Ltext0
 20921 0474 A0030000 		.4byte	.LBE536-.Ltext0
 20922 0478 A6030000 		.4byte	.LBB575-.Ltext0
 20923 047c A6030000 		.4byte	.LBE575-.Ltext0
 20924 0480 A6030000 		.4byte	.LBB576-.Ltext0
 20925 0484 A6030000 		.4byte	.LBE576-.Ltext0
 20926 0488 A6030000 		.4byte	.LBB577-.Ltext0
 20927 048c A6030000 		.4byte	.LBE577-.Ltext0
 20928 0490 A6030000 		.4byte	.LBB578-.Ltext0
 20929 0494 A6030000 		.4byte	.LBE578-.Ltext0
 20930 0498 A6030000 		.4byte	.LBB579-.Ltext0
 20931 049c A6030000 		.4byte	.LBE579-.Ltext0
 20932 04a0 AC030000 		.4byte	.LBB580-.Ltext0
 20933 04a4 B0030000 		.4byte	.LBE580-.Ltext0
 20934 04a8 00000000 		.4byte	0
 20935 04ac 00000000 		.4byte	0
 20936 04b0 9A030000 		.4byte	.LBB537-.Ltext0
 20937 04b4 A0030000 		.4byte	.LBE537-.Ltext0
 20938 04b8 A6030000 		.4byte	.LBB553-.Ltext0
 20939 04bc A6030000 		.4byte	.LBE553-.Ltext0
 20940 04c0 A6030000 		.4byte	.LBB554-.Ltext0
 20941 04c4 A6030000 		.4byte	.LBE554-.Ltext0
 20942 04c8 A6030000 		.4byte	.LBB555-.Ltext0
 20943 04cc A6030000 		.4byte	.LBE555-.Ltext0
 20944 04d0 A6030000 		.4byte	.LBB556-.Ltext0
 20945 04d4 A6030000 		.4byte	.LBE556-.Ltext0
 20946 04d8 AC030000 		.4byte	.LBB557-.Ltext0
 20947 04dc B0030000 		.4byte	.LBE557-.Ltext0
 20948 04e0 00000000 		.4byte	0
ARM GAS  /tmp/ccpnbTSa.s 			page 369


 20949 04e4 00000000 		.4byte	0
 20950 04e8 9A030000 		.4byte	.LBB538-.Ltext0
 20951 04ec A0030000 		.4byte	.LBE538-.Ltext0
 20952 04f0 A6030000 		.4byte	.LBB549-.Ltext0
 20953 04f4 A6030000 		.4byte	.LBE549-.Ltext0
 20954 04f8 A6030000 		.4byte	.LBB550-.Ltext0
 20955 04fc A6030000 		.4byte	.LBE550-.Ltext0
 20956 0500 A6030000 		.4byte	.LBB551-.Ltext0
 20957 0504 A6030000 		.4byte	.LBE551-.Ltext0
 20958 0508 AC030000 		.4byte	.LBB552-.Ltext0
 20959 050c B0030000 		.4byte	.LBE552-.Ltext0
 20960 0510 00000000 		.4byte	0
 20961 0514 00000000 		.4byte	0
 20962 0518 9A030000 		.4byte	.LBB539-.Ltext0
 20963 051c A0030000 		.4byte	.LBE539-.Ltext0
 20964 0520 A6030000 		.4byte	.LBB546-.Ltext0
 20965 0524 A6030000 		.4byte	.LBE546-.Ltext0
 20966 0528 A6030000 		.4byte	.LBB547-.Ltext0
 20967 052c A6030000 		.4byte	.LBE547-.Ltext0
 20968 0530 AC030000 		.4byte	.LBB548-.Ltext0
 20969 0534 B0030000 		.4byte	.LBE548-.Ltext0
 20970 0538 00000000 		.4byte	0
 20971 053c 00000000 		.4byte	0
 20972 0540 9A030000 		.4byte	.LBB540-.Ltext0
 20973 0544 A0030000 		.4byte	.LBE540-.Ltext0
 20974 0548 A6030000 		.4byte	.LBB544-.Ltext0
 20975 054c A6030000 		.4byte	.LBE544-.Ltext0
 20976 0550 AC030000 		.4byte	.LBB545-.Ltext0
 20977 0554 B0030000 		.4byte	.LBE545-.Ltext0
 20978 0558 00000000 		.4byte	0
 20979 055c 00000000 		.4byte	0
 20980 0560 A0030000 		.4byte	.LBB558-.Ltext0
 20981 0564 A2030000 		.4byte	.LBE558-.Ltext0
 20982 0568 D4030000 		.4byte	.LBB591-.Ltext0
 20983 056c D4030000 		.4byte	.LBE591-.Ltext0
 20984 0570 D4030000 		.4byte	.LBB592-.Ltext0
 20985 0574 D4030000 		.4byte	.LBE592-.Ltext0
 20986 0578 D4030000 		.4byte	.LBB593-.Ltext0
 20987 057c D4030000 		.4byte	.LBE593-.Ltext0
 20988 0580 D4030000 		.4byte	.LBB594-.Ltext0
 20989 0584 D4030000 		.4byte	.LBE594-.Ltext0
 20990 0588 D4030000 		.4byte	.LBB595-.Ltext0
 20991 058c D8030000 		.4byte	.LBE595-.Ltext0
 20992 0590 00000000 		.4byte	0
 20993 0594 00000000 		.4byte	0
 20994 0598 A0030000 		.4byte	.LBB559-.Ltext0
 20995 059c A2030000 		.4byte	.LBE559-.Ltext0
 20996 05a0 D4030000 		.4byte	.LBB571-.Ltext0
 20997 05a4 D4030000 		.4byte	.LBE571-.Ltext0
 20998 05a8 D4030000 		.4byte	.LBB572-.Ltext0
 20999 05ac D4030000 		.4byte	.LBE572-.Ltext0
 21000 05b0 D4030000 		.4byte	.LBB573-.Ltext0
 21001 05b4 D4030000 		.4byte	.LBE573-.Ltext0
 21002 05b8 D4030000 		.4byte	.LBB574-.Ltext0
 21003 05bc D8030000 		.4byte	.LBE574-.Ltext0
 21004 05c0 00000000 		.4byte	0
 21005 05c4 00000000 		.4byte	0
ARM GAS  /tmp/ccpnbTSa.s 			page 370


 21006 05c8 A0030000 		.4byte	.LBB560-.Ltext0
 21007 05cc A2030000 		.4byte	.LBE560-.Ltext0
 21008 05d0 D4030000 		.4byte	.LBB568-.Ltext0
 21009 05d4 D4030000 		.4byte	.LBE568-.Ltext0
 21010 05d8 D4030000 		.4byte	.LBB569-.Ltext0
 21011 05dc D4030000 		.4byte	.LBE569-.Ltext0
 21012 05e0 D4030000 		.4byte	.LBB570-.Ltext0
 21013 05e4 D8030000 		.4byte	.LBE570-.Ltext0
 21014 05e8 00000000 		.4byte	0
 21015 05ec 00000000 		.4byte	0
 21016 05f0 A0030000 		.4byte	.LBB561-.Ltext0
 21017 05f4 A2030000 		.4byte	.LBE561-.Ltext0
 21018 05f8 D4030000 		.4byte	.LBB566-.Ltext0
 21019 05fc D4030000 		.4byte	.LBE566-.Ltext0
 21020 0600 D4030000 		.4byte	.LBB567-.Ltext0
 21021 0604 D8030000 		.4byte	.LBE567-.Ltext0
 21022 0608 00000000 		.4byte	0
 21023 060c 00000000 		.4byte	0
 21024 0610 A0030000 		.4byte	.LBB562-.Ltext0
 21025 0614 A2030000 		.4byte	.LBE562-.Ltext0
 21026 0618 D4030000 		.4byte	.LBB565-.Ltext0
 21027 061c D8030000 		.4byte	.LBE565-.Ltext0
 21028 0620 00000000 		.4byte	0
 21029 0624 00000000 		.4byte	0
 21030 0628 B2030000 		.4byte	.LBB581-.Ltext0
 21031 062c B6030000 		.4byte	.LBE581-.Ltext0
 21032 0630 B8030000 		.4byte	.LBB585-.Ltext0
 21033 0634 BC030000 		.4byte	.LBE585-.Ltext0
 21034 0638 BE030000 		.4byte	.LBB586-.Ltext0
 21035 063c C4030000 		.4byte	.LBE586-.Ltext0
 21036 0640 00000000 		.4byte	0
 21037 0644 00000000 		.4byte	0
 21038 0648 C6030000 		.4byte	.LBB587-.Ltext0
 21039 064c CE030000 		.4byte	.LBE587-.Ltext0
 21040 0650 D0030000 		.4byte	.LBB590-.Ltext0
 21041 0654 D4030000 		.4byte	.LBE590-.Ltext0
 21042 0658 00000000 		.4byte	0
 21043 065c 00000000 		.4byte	0
 21044 0660 2C040000 		.4byte	.LBB682-.Ltext0
 21045 0664 34040000 		.4byte	.LBE682-.Ltext0
 21046 0668 58050000 		.4byte	.LBB781-.Ltext0
 21047 066c 58050000 		.4byte	.LBE781-.Ltext0
 21048 0670 00000000 		.4byte	0
 21049 0674 00000000 		.4byte	0
 21050 0678 4E040000 		.4byte	.LBB685-.Ltext0
 21051 067c 50040000 		.4byte	.LBE685-.Ltext0
 21052 0680 54040000 		.4byte	.LBB702-.Ltext0
 21053 0684 54040000 		.4byte	.LBE702-.Ltext0
 21054 0688 54040000 		.4byte	.LBB703-.Ltext0
 21055 068c 54040000 		.4byte	.LBE703-.Ltext0
 21056 0690 54040000 		.4byte	.LBB704-.Ltext0
 21057 0694 54040000 		.4byte	.LBE704-.Ltext0
 21058 0698 54040000 		.4byte	.LBB705-.Ltext0
 21059 069c 54040000 		.4byte	.LBE705-.Ltext0
 21060 06a0 54040000 		.4byte	.LBB706-.Ltext0
 21061 06a4 58040000 		.4byte	.LBE706-.Ltext0
 21062 06a8 00000000 		.4byte	0
ARM GAS  /tmp/ccpnbTSa.s 			page 371


 21063 06ac 00000000 		.4byte	0
 21064 06b0 4E040000 		.4byte	.LBB686-.Ltext0
 21065 06b4 50040000 		.4byte	.LBE686-.Ltext0
 21066 06b8 54040000 		.4byte	.LBB698-.Ltext0
 21067 06bc 54040000 		.4byte	.LBE698-.Ltext0
 21068 06c0 54040000 		.4byte	.LBB699-.Ltext0
 21069 06c4 54040000 		.4byte	.LBE699-.Ltext0
 21070 06c8 54040000 		.4byte	.LBB700-.Ltext0
 21071 06cc 54040000 		.4byte	.LBE700-.Ltext0
 21072 06d0 54040000 		.4byte	.LBB701-.Ltext0
 21073 06d4 58040000 		.4byte	.LBE701-.Ltext0
 21074 06d8 00000000 		.4byte	0
 21075 06dc 00000000 		.4byte	0
 21076 06e0 4E040000 		.4byte	.LBB687-.Ltext0
 21077 06e4 50040000 		.4byte	.LBE687-.Ltext0
 21078 06e8 54040000 		.4byte	.LBB695-.Ltext0
 21079 06ec 54040000 		.4byte	.LBE695-.Ltext0
 21080 06f0 54040000 		.4byte	.LBB696-.Ltext0
 21081 06f4 54040000 		.4byte	.LBE696-.Ltext0
 21082 06f8 54040000 		.4byte	.LBB697-.Ltext0
 21083 06fc 58040000 		.4byte	.LBE697-.Ltext0
 21084 0700 00000000 		.4byte	0
 21085 0704 00000000 		.4byte	0
 21086 0708 4E040000 		.4byte	.LBB688-.Ltext0
 21087 070c 50040000 		.4byte	.LBE688-.Ltext0
 21088 0710 54040000 		.4byte	.LBB693-.Ltext0
 21089 0714 54040000 		.4byte	.LBE693-.Ltext0
 21090 0718 54040000 		.4byte	.LBB694-.Ltext0
 21091 071c 58040000 		.4byte	.LBE694-.Ltext0
 21092 0720 00000000 		.4byte	0
 21093 0724 00000000 		.4byte	0
 21094 0728 4E040000 		.4byte	.LBB689-.Ltext0
 21095 072c 50040000 		.4byte	.LBE689-.Ltext0
 21096 0730 54040000 		.4byte	.LBB692-.Ltext0
 21097 0734 58040000 		.4byte	.LBE692-.Ltext0
 21098 0738 00000000 		.4byte	0
 21099 073c 00000000 		.4byte	0
 21100 0740 58040000 		.4byte	.LBB707-.Ltext0
 21101 0744 64040000 		.4byte	.LBE707-.Ltext0
 21102 0748 66040000 		.4byte	.LBB711-.Ltext0
 21103 074c 6C040000 		.4byte	.LBE711-.Ltext0
 21104 0750 6E040000 		.4byte	.LBB712-.Ltext0
 21105 0754 78040000 		.4byte	.LBE712-.Ltext0
 21106 0758 00000000 		.4byte	0
 21107 075c 00000000 		.4byte	0
 21108 0760 78040000 		.4byte	.LBB713-.Ltext0
 21109 0764 78040000 		.4byte	.LBE713-.Ltext0
 21110 0768 78040000 		.4byte	.LBB725-.Ltext0
 21111 076c 78040000 		.4byte	.LBE725-.Ltext0
 21112 0770 78040000 		.4byte	.LBB726-.Ltext0
 21113 0774 78040000 		.4byte	.LBE726-.Ltext0
 21114 0778 78040000 		.4byte	.LBB727-.Ltext0
 21115 077c 78040000 		.4byte	.LBE727-.Ltext0
 21116 0780 78040000 		.4byte	.LBB728-.Ltext0
 21117 0784 7C040000 		.4byte	.LBE728-.Ltext0
 21118 0788 00000000 		.4byte	0
 21119 078c 00000000 		.4byte	0
ARM GAS  /tmp/ccpnbTSa.s 			page 372


 21120 0790 88040000 		.4byte	.LBB729-.Ltext0
 21121 0794 C0040000 		.4byte	.LBE729-.Ltext0
 21122 0798 E4040000 		.4byte	.LBB780-.Ltext0
 21123 079c 58050000 		.4byte	.LBE780-.Ltext0
 21124 07a0 F0050000 		.4byte	.LBB906-.Ltext0
 21125 07a4 3C070000 		.4byte	.LBE906-.Ltext0
 21126 07a8 3C070000 		.4byte	.LBB907-.Ltext0
 21127 07ac 3C070000 		.4byte	.LBE907-.Ltext0
 21128 07b0 3C070000 		.4byte	.LBB908-.Ltext0
 21129 07b4 3C070000 		.4byte	.LBE908-.Ltext0
 21130 07b8 3C070000 		.4byte	.LBB909-.Ltext0
 21131 07bc 3C070000 		.4byte	.LBE909-.Ltext0
 21132 07c0 3C070000 		.4byte	.LBB910-.Ltext0
 21133 07c4 42070000 		.4byte	.LBE910-.Ltext0
 21134 07c8 42070000 		.4byte	.LBB911-.Ltext0
 21135 07cc 48070000 		.4byte	.LBE911-.Ltext0
 21136 07d0 48070000 		.4byte	.LBB912-.Ltext0
 21137 07d4 48070000 		.4byte	.LBE912-.Ltext0
 21138 07d8 48070000 		.4byte	.LBB913-.Ltext0
 21139 07dc 48070000 		.4byte	.LBE913-.Ltext0
 21140 07e0 48070000 		.4byte	.LBB914-.Ltext0
 21141 07e4 48070000 		.4byte	.LBE914-.Ltext0
 21142 07e8 48070000 		.4byte	.LBB915-.Ltext0
 21143 07ec 84070000 		.4byte	.LBE915-.Ltext0
 21144 07f0 00000000 		.4byte	0
 21145 07f4 00000000 		.4byte	0
 21146 07f8 C6060000 		.4byte	.LBB733-.Ltext0
 21147 07fc CA060000 		.4byte	.LBE733-.Ltext0
 21148 0800 CE060000 		.4byte	.LBB736-.Ltext0
 21149 0804 D2060000 		.4byte	.LBE736-.Ltext0
 21150 0808 00000000 		.4byte	0
 21151 080c 00000000 		.4byte	0
 21152 0810 3C070000 		.4byte	.LBB737-.Ltext0
 21153 0814 3C070000 		.4byte	.LBE737-.Ltext0
 21154 0818 3C070000 		.4byte	.LBB749-.Ltext0
 21155 081c 3C070000 		.4byte	.LBE749-.Ltext0
 21156 0820 3C070000 		.4byte	.LBB750-.Ltext0
 21157 0824 3C070000 		.4byte	.LBE750-.Ltext0
 21158 0828 3C070000 		.4byte	.LBB751-.Ltext0
 21159 082c 3C070000 		.4byte	.LBE751-.Ltext0
 21160 0830 3C070000 		.4byte	.LBB752-.Ltext0
 21161 0834 42070000 		.4byte	.LBE752-.Ltext0
 21162 0838 00000000 		.4byte	0
 21163 083c 00000000 		.4byte	0
 21164 0840 48070000 		.4byte	.LBB753-.Ltext0
 21165 0844 48070000 		.4byte	.LBE753-.Ltext0
 21166 0848 48070000 		.4byte	.LBB765-.Ltext0
 21167 084c 48070000 		.4byte	.LBE765-.Ltext0
 21168 0850 48070000 		.4byte	.LBB766-.Ltext0
 21169 0854 48070000 		.4byte	.LBE766-.Ltext0
 21170 0858 48070000 		.4byte	.LBB767-.Ltext0
 21171 085c 48070000 		.4byte	.LBE767-.Ltext0
 21172 0860 48070000 		.4byte	.LBB768-.Ltext0
 21173 0864 4C070000 		.4byte	.LBE768-.Ltext0
 21174 0868 00000000 		.4byte	0
 21175 086c 00000000 		.4byte	0
 21176 0870 5E050000 		.4byte	.LBB782-.Ltext0
ARM GAS  /tmp/ccpnbTSa.s 			page 373


 21177 0874 60050000 		.4byte	.LBE782-.Ltext0
 21178 0878 64050000 		.4byte	.LBB799-.Ltext0
 21179 087c 64050000 		.4byte	.LBE799-.Ltext0
 21180 0880 64050000 		.4byte	.LBB800-.Ltext0
 21181 0884 64050000 		.4byte	.LBE800-.Ltext0
 21182 0888 64050000 		.4byte	.LBB801-.Ltext0
 21183 088c 64050000 		.4byte	.LBE801-.Ltext0
 21184 0890 64050000 		.4byte	.LBB802-.Ltext0
 21185 0894 64050000 		.4byte	.LBE802-.Ltext0
 21186 0898 64050000 		.4byte	.LBB803-.Ltext0
 21187 089c 68050000 		.4byte	.LBE803-.Ltext0
 21188 08a0 00000000 		.4byte	0
 21189 08a4 00000000 		.4byte	0
 21190 08a8 5E050000 		.4byte	.LBB783-.Ltext0
 21191 08ac 60050000 		.4byte	.LBE783-.Ltext0
 21192 08b0 64050000 		.4byte	.LBB795-.Ltext0
 21193 08b4 64050000 		.4byte	.LBE795-.Ltext0
 21194 08b8 64050000 		.4byte	.LBB796-.Ltext0
 21195 08bc 64050000 		.4byte	.LBE796-.Ltext0
 21196 08c0 64050000 		.4byte	.LBB797-.Ltext0
 21197 08c4 64050000 		.4byte	.LBE797-.Ltext0
 21198 08c8 64050000 		.4byte	.LBB798-.Ltext0
 21199 08cc 68050000 		.4byte	.LBE798-.Ltext0
 21200 08d0 00000000 		.4byte	0
 21201 08d4 00000000 		.4byte	0
 21202 08d8 5E050000 		.4byte	.LBB784-.Ltext0
 21203 08dc 60050000 		.4byte	.LBE784-.Ltext0
 21204 08e0 64050000 		.4byte	.LBB792-.Ltext0
 21205 08e4 64050000 		.4byte	.LBE792-.Ltext0
 21206 08e8 64050000 		.4byte	.LBB793-.Ltext0
 21207 08ec 64050000 		.4byte	.LBE793-.Ltext0
 21208 08f0 64050000 		.4byte	.LBB794-.Ltext0
 21209 08f4 68050000 		.4byte	.LBE794-.Ltext0
 21210 08f8 00000000 		.4byte	0
 21211 08fc 00000000 		.4byte	0
 21212 0900 5E050000 		.4byte	.LBB785-.Ltext0
 21213 0904 60050000 		.4byte	.LBE785-.Ltext0
 21214 0908 64050000 		.4byte	.LBB790-.Ltext0
 21215 090c 64050000 		.4byte	.LBE790-.Ltext0
 21216 0910 64050000 		.4byte	.LBB791-.Ltext0
 21217 0914 68050000 		.4byte	.LBE791-.Ltext0
 21218 0918 00000000 		.4byte	0
 21219 091c 00000000 		.4byte	0
 21220 0920 5E050000 		.4byte	.LBB786-.Ltext0
 21221 0924 60050000 		.4byte	.LBE786-.Ltext0
 21222 0928 64050000 		.4byte	.LBB789-.Ltext0
 21223 092c 68050000 		.4byte	.LBE789-.Ltext0
 21224 0930 00000000 		.4byte	0
 21225 0934 00000000 		.4byte	0
 21226 0938 86050000 		.4byte	.LBB806-.Ltext0
 21227 093c 86050000 		.4byte	.LBE806-.Ltext0
 21228 0940 86050000 		.4byte	.LBB818-.Ltext0
 21229 0944 86050000 		.4byte	.LBE818-.Ltext0
 21230 0948 86050000 		.4byte	.LBB819-.Ltext0
 21231 094c 86050000 		.4byte	.LBE819-.Ltext0
 21232 0950 86050000 		.4byte	.LBB820-.Ltext0
 21233 0954 86050000 		.4byte	.LBE820-.Ltext0
ARM GAS  /tmp/ccpnbTSa.s 			page 374


 21234 0958 86050000 		.4byte	.LBB821-.Ltext0
 21235 095c 8A050000 		.4byte	.LBE821-.Ltext0
 21236 0960 00000000 		.4byte	0
 21237 0964 00000000 		.4byte	0
 21238 0968 90050000 		.4byte	.LBB822-.Ltext0
 21239 096c 92050000 		.4byte	.LBE822-.Ltext0
 21240 0970 96050000 		.4byte	.LBB839-.Ltext0
 21241 0974 96050000 		.4byte	.LBE839-.Ltext0
 21242 0978 96050000 		.4byte	.LBB840-.Ltext0
 21243 097c 96050000 		.4byte	.LBE840-.Ltext0
 21244 0980 96050000 		.4byte	.LBB841-.Ltext0
 21245 0984 96050000 		.4byte	.LBE841-.Ltext0
 21246 0988 96050000 		.4byte	.LBB842-.Ltext0
 21247 098c 96050000 		.4byte	.LBE842-.Ltext0
 21248 0990 96050000 		.4byte	.LBB843-.Ltext0
 21249 0994 9A050000 		.4byte	.LBE843-.Ltext0
 21250 0998 00000000 		.4byte	0
 21251 099c 00000000 		.4byte	0
 21252 09a0 90050000 		.4byte	.LBB823-.Ltext0
 21253 09a4 92050000 		.4byte	.LBE823-.Ltext0
 21254 09a8 96050000 		.4byte	.LBB835-.Ltext0
 21255 09ac 96050000 		.4byte	.LBE835-.Ltext0
 21256 09b0 96050000 		.4byte	.LBB836-.Ltext0
 21257 09b4 96050000 		.4byte	.LBE836-.Ltext0
 21258 09b8 96050000 		.4byte	.LBB837-.Ltext0
 21259 09bc 96050000 		.4byte	.LBE837-.Ltext0
 21260 09c0 96050000 		.4byte	.LBB838-.Ltext0
 21261 09c4 9A050000 		.4byte	.LBE838-.Ltext0
 21262 09c8 00000000 		.4byte	0
 21263 09cc 00000000 		.4byte	0
 21264 09d0 90050000 		.4byte	.LBB824-.Ltext0
 21265 09d4 92050000 		.4byte	.LBE824-.Ltext0
 21266 09d8 96050000 		.4byte	.LBB832-.Ltext0
 21267 09dc 96050000 		.4byte	.LBE832-.Ltext0
 21268 09e0 96050000 		.4byte	.LBB833-.Ltext0
 21269 09e4 96050000 		.4byte	.LBE833-.Ltext0
 21270 09e8 96050000 		.4byte	.LBB834-.Ltext0
 21271 09ec 9A050000 		.4byte	.LBE834-.Ltext0
 21272 09f0 00000000 		.4byte	0
 21273 09f4 00000000 		.4byte	0
 21274 09f8 90050000 		.4byte	.LBB825-.Ltext0
 21275 09fc 92050000 		.4byte	.LBE825-.Ltext0
 21276 0a00 96050000 		.4byte	.LBB830-.Ltext0
 21277 0a04 96050000 		.4byte	.LBE830-.Ltext0
 21278 0a08 96050000 		.4byte	.LBB831-.Ltext0
 21279 0a0c 9A050000 		.4byte	.LBE831-.Ltext0
 21280 0a10 00000000 		.4byte	0
 21281 0a14 00000000 		.4byte	0
 21282 0a18 90050000 		.4byte	.LBB826-.Ltext0
 21283 0a1c 92050000 		.4byte	.LBE826-.Ltext0
 21284 0a20 96050000 		.4byte	.LBB829-.Ltext0
 21285 0a24 9A050000 		.4byte	.LBE829-.Ltext0
 21286 0a28 00000000 		.4byte	0
 21287 0a2c 00000000 		.4byte	0
 21288 0a30 9A050000 		.4byte	.LBB844-.Ltext0
 21289 0a34 A6050000 		.4byte	.LBE844-.Ltext0
 21290 0a38 A8050000 		.4byte	.LBB848-.Ltext0
ARM GAS  /tmp/ccpnbTSa.s 			page 375


 21291 0a3c AE050000 		.4byte	.LBE848-.Ltext0
 21292 0a40 B0050000 		.4byte	.LBB849-.Ltext0
 21293 0a44 BA050000 		.4byte	.LBE849-.Ltext0
 21294 0a48 00000000 		.4byte	0
 21295 0a4c 00000000 		.4byte	0
 21296 0a50 BA050000 		.4byte	.LBB850-.Ltext0
 21297 0a54 BA050000 		.4byte	.LBE850-.Ltext0
 21298 0a58 BA050000 		.4byte	.LBB862-.Ltext0
 21299 0a5c BA050000 		.4byte	.LBE862-.Ltext0
 21300 0a60 BA050000 		.4byte	.LBB863-.Ltext0
 21301 0a64 BA050000 		.4byte	.LBE863-.Ltext0
 21302 0a68 BA050000 		.4byte	.LBB864-.Ltext0
 21303 0a6c BA050000 		.4byte	.LBE864-.Ltext0
 21304 0a70 BA050000 		.4byte	.LBB865-.Ltext0
 21305 0a74 BE050000 		.4byte	.LBE865-.Ltext0
 21306 0a78 00000000 		.4byte	0
 21307 0a7c 00000000 		.4byte	0
 21308 0a80 C2050000 		.4byte	.LBB866-.Ltext0
 21309 0a84 C4050000 		.4byte	.LBE866-.Ltext0
 21310 0a88 C8050000 		.4byte	.LBB883-.Ltext0
 21311 0a8c C8050000 		.4byte	.LBE883-.Ltext0
 21312 0a90 C8050000 		.4byte	.LBB884-.Ltext0
 21313 0a94 C8050000 		.4byte	.LBE884-.Ltext0
 21314 0a98 C8050000 		.4byte	.LBB885-.Ltext0
 21315 0a9c C8050000 		.4byte	.LBE885-.Ltext0
 21316 0aa0 C8050000 		.4byte	.LBB886-.Ltext0
 21317 0aa4 C8050000 		.4byte	.LBE886-.Ltext0
 21318 0aa8 C8050000 		.4byte	.LBB887-.Ltext0
 21319 0aac CC050000 		.4byte	.LBE887-.Ltext0
 21320 0ab0 00000000 		.4byte	0
 21321 0ab4 00000000 		.4byte	0
 21322 0ab8 C2050000 		.4byte	.LBB867-.Ltext0
 21323 0abc C4050000 		.4byte	.LBE867-.Ltext0
 21324 0ac0 C8050000 		.4byte	.LBB879-.Ltext0
 21325 0ac4 C8050000 		.4byte	.LBE879-.Ltext0
 21326 0ac8 C8050000 		.4byte	.LBB880-.Ltext0
 21327 0acc C8050000 		.4byte	.LBE880-.Ltext0
 21328 0ad0 C8050000 		.4byte	.LBB881-.Ltext0
 21329 0ad4 C8050000 		.4byte	.LBE881-.Ltext0
 21330 0ad8 C8050000 		.4byte	.LBB882-.Ltext0
 21331 0adc CC050000 		.4byte	.LBE882-.Ltext0
 21332 0ae0 00000000 		.4byte	0
 21333 0ae4 00000000 		.4byte	0
 21334 0ae8 C2050000 		.4byte	.LBB868-.Ltext0
 21335 0aec C4050000 		.4byte	.LBE868-.Ltext0
 21336 0af0 C8050000 		.4byte	.LBB876-.Ltext0
 21337 0af4 C8050000 		.4byte	.LBE876-.Ltext0
 21338 0af8 C8050000 		.4byte	.LBB877-.Ltext0
 21339 0afc C8050000 		.4byte	.LBE877-.Ltext0
 21340 0b00 C8050000 		.4byte	.LBB878-.Ltext0
 21341 0b04 CC050000 		.4byte	.LBE878-.Ltext0
 21342 0b08 00000000 		.4byte	0
 21343 0b0c 00000000 		.4byte	0
 21344 0b10 C2050000 		.4byte	.LBB869-.Ltext0
 21345 0b14 C4050000 		.4byte	.LBE869-.Ltext0
 21346 0b18 C8050000 		.4byte	.LBB874-.Ltext0
 21347 0b1c C8050000 		.4byte	.LBE874-.Ltext0
ARM GAS  /tmp/ccpnbTSa.s 			page 376


 21348 0b20 C8050000 		.4byte	.LBB875-.Ltext0
 21349 0b24 CC050000 		.4byte	.LBE875-.Ltext0
 21350 0b28 00000000 		.4byte	0
 21351 0b2c 00000000 		.4byte	0
 21352 0b30 C2050000 		.4byte	.LBB870-.Ltext0
 21353 0b34 C4050000 		.4byte	.LBE870-.Ltext0
 21354 0b38 C8050000 		.4byte	.LBB873-.Ltext0
 21355 0b3c CC050000 		.4byte	.LBE873-.Ltext0
 21356 0b40 00000000 		.4byte	0
 21357 0b44 00000000 		.4byte	0
 21358 0b48 EA050000 		.4byte	.LBB890-.Ltext0
 21359 0b4c EA050000 		.4byte	.LBE890-.Ltext0
 21360 0b50 EA050000 		.4byte	.LBB902-.Ltext0
 21361 0b54 EA050000 		.4byte	.LBE902-.Ltext0
 21362 0b58 EA050000 		.4byte	.LBB903-.Ltext0
 21363 0b5c EA050000 		.4byte	.LBE903-.Ltext0
 21364 0b60 EA050000 		.4byte	.LBB904-.Ltext0
 21365 0b64 EA050000 		.4byte	.LBE904-.Ltext0
 21366 0b68 EA050000 		.4byte	.LBB905-.Ltext0
 21367 0b6c EE050000 		.4byte	.LBE905-.Ltext0
 21368 0b70 00000000 		.4byte	0
 21369 0b74 00000000 		.4byte	0
 21370 0b78 D8070000 		.4byte	.LBB916-.Ltext0
 21371 0b7c D8070000 		.4byte	.LBE916-.Ltext0
 21372 0b80 D8070000 		.4byte	.LBB919-.Ltext0
 21373 0b84 E0070000 		.4byte	.LBE919-.Ltext0
 21374 0b88 00000000 		.4byte	0
 21375 0b8c 00000000 		.4byte	0
 21376 0b90 FA070000 		.4byte	.LBB920-.Ltext0
 21377 0b94 FC070000 		.4byte	.LBE920-.Ltext0
 21378 0b98 00080000 		.4byte	.LBB937-.Ltext0
 21379 0b9c 00080000 		.4byte	.LBE937-.Ltext0
 21380 0ba0 00080000 		.4byte	.LBB938-.Ltext0
 21381 0ba4 00080000 		.4byte	.LBE938-.Ltext0
 21382 0ba8 00080000 		.4byte	.LBB939-.Ltext0
 21383 0bac 00080000 		.4byte	.LBE939-.Ltext0
 21384 0bb0 00080000 		.4byte	.LBB940-.Ltext0
 21385 0bb4 00080000 		.4byte	.LBE940-.Ltext0
 21386 0bb8 00080000 		.4byte	.LBB941-.Ltext0
 21387 0bbc 04080000 		.4byte	.LBE941-.Ltext0
 21388 0bc0 00000000 		.4byte	0
 21389 0bc4 00000000 		.4byte	0
 21390 0bc8 FA070000 		.4byte	.LBB921-.Ltext0
 21391 0bcc FC070000 		.4byte	.LBE921-.Ltext0
 21392 0bd0 00080000 		.4byte	.LBB933-.Ltext0
 21393 0bd4 00080000 		.4byte	.LBE933-.Ltext0
 21394 0bd8 00080000 		.4byte	.LBB934-.Ltext0
 21395 0bdc 00080000 		.4byte	.LBE934-.Ltext0
 21396 0be0 00080000 		.4byte	.LBB935-.Ltext0
 21397 0be4 00080000 		.4byte	.LBE935-.Ltext0
 21398 0be8 00080000 		.4byte	.LBB936-.Ltext0
 21399 0bec 04080000 		.4byte	.LBE936-.Ltext0
 21400 0bf0 00000000 		.4byte	0
 21401 0bf4 00000000 		.4byte	0
 21402 0bf8 FA070000 		.4byte	.LBB922-.Ltext0
 21403 0bfc FC070000 		.4byte	.LBE922-.Ltext0
 21404 0c00 00080000 		.4byte	.LBB930-.Ltext0
ARM GAS  /tmp/ccpnbTSa.s 			page 377


 21405 0c04 00080000 		.4byte	.LBE930-.Ltext0
 21406 0c08 00080000 		.4byte	.LBB931-.Ltext0
 21407 0c0c 00080000 		.4byte	.LBE931-.Ltext0
 21408 0c10 00080000 		.4byte	.LBB932-.Ltext0
 21409 0c14 04080000 		.4byte	.LBE932-.Ltext0
 21410 0c18 00000000 		.4byte	0
 21411 0c1c 00000000 		.4byte	0
 21412 0c20 FA070000 		.4byte	.LBB923-.Ltext0
 21413 0c24 FC070000 		.4byte	.LBE923-.Ltext0
 21414 0c28 00080000 		.4byte	.LBB928-.Ltext0
 21415 0c2c 00080000 		.4byte	.LBE928-.Ltext0
 21416 0c30 00080000 		.4byte	.LBB929-.Ltext0
 21417 0c34 04080000 		.4byte	.LBE929-.Ltext0
 21418 0c38 00000000 		.4byte	0
 21419 0c3c 00000000 		.4byte	0
 21420 0c40 FA070000 		.4byte	.LBB924-.Ltext0
 21421 0c44 FC070000 		.4byte	.LBE924-.Ltext0
 21422 0c48 00080000 		.4byte	.LBB927-.Ltext0
 21423 0c4c 04080000 		.4byte	.LBE927-.Ltext0
 21424 0c50 00000000 		.4byte	0
 21425 0c54 00000000 		.4byte	0
 21426 0c58 22080000 		.4byte	.LBB944-.Ltext0
 21427 0c5c 22080000 		.4byte	.LBE944-.Ltext0
 21428 0c60 22080000 		.4byte	.LBB956-.Ltext0
 21429 0c64 22080000 		.4byte	.LBE956-.Ltext0
 21430 0c68 22080000 		.4byte	.LBB957-.Ltext0
 21431 0c6c 22080000 		.4byte	.LBE957-.Ltext0
 21432 0c70 22080000 		.4byte	.LBB958-.Ltext0
 21433 0c74 22080000 		.4byte	.LBE958-.Ltext0
 21434 0c78 22080000 		.4byte	.LBB959-.Ltext0
 21435 0c7c 26080000 		.4byte	.LBE959-.Ltext0
 21436 0c80 00000000 		.4byte	0
 21437 0c84 00000000 		.4byte	0
 21438 0c88 36080000 		.4byte	.LBB960-.Ltext0
 21439 0c8c 36080000 		.4byte	.LBE960-.Ltext0
 21440 0c90 36080000 		.4byte	.LBB972-.Ltext0
 21441 0c94 36080000 		.4byte	.LBE972-.Ltext0
 21442 0c98 36080000 		.4byte	.LBB973-.Ltext0
 21443 0c9c 36080000 		.4byte	.LBE973-.Ltext0
 21444 0ca0 36080000 		.4byte	.LBB974-.Ltext0
 21445 0ca4 36080000 		.4byte	.LBE974-.Ltext0
 21446 0ca8 36080000 		.4byte	.LBB975-.Ltext0
 21447 0cac 3C080000 		.4byte	.LBE975-.Ltext0
 21448 0cb0 00000000 		.4byte	0
 21449 0cb4 00000000 		.4byte	0
 21450 0cb8 56080000 		.4byte	.LBB978-.Ltext0
 21451 0cbc 56080000 		.4byte	.LBE978-.Ltext0
 21452 0cc0 56080000 		.4byte	.LBB990-.Ltext0
 21453 0cc4 56080000 		.4byte	.LBE990-.Ltext0
 21454 0cc8 56080000 		.4byte	.LBB991-.Ltext0
 21455 0ccc 56080000 		.4byte	.LBE991-.Ltext0
 21456 0cd0 56080000 		.4byte	.LBB992-.Ltext0
 21457 0cd4 56080000 		.4byte	.LBE992-.Ltext0
 21458 0cd8 56080000 		.4byte	.LBB993-.Ltext0
 21459 0cdc 5A080000 		.4byte	.LBE993-.Ltext0
 21460 0ce0 00000000 		.4byte	0
 21461 0ce4 00000000 		.4byte	0
ARM GAS  /tmp/ccpnbTSa.s 			page 378


 21462 0ce8 AC080000 		.4byte	.LBB994-.Ltext0
 21463 0cec AE080000 		.4byte	.LBE994-.Ltext0
 21464 0cf0 B2080000 		.4byte	.LBB1011-.Ltext0
 21465 0cf4 B2080000 		.4byte	.LBE1011-.Ltext0
 21466 0cf8 B2080000 		.4byte	.LBB1012-.Ltext0
 21467 0cfc B2080000 		.4byte	.LBE1012-.Ltext0
 21468 0d00 B2080000 		.4byte	.LBB1013-.Ltext0
 21469 0d04 B2080000 		.4byte	.LBE1013-.Ltext0
 21470 0d08 B2080000 		.4byte	.LBB1014-.Ltext0
 21471 0d0c B2080000 		.4byte	.LBE1014-.Ltext0
 21472 0d10 B2080000 		.4byte	.LBB1015-.Ltext0
 21473 0d14 B6080000 		.4byte	.LBE1015-.Ltext0
 21474 0d18 00000000 		.4byte	0
 21475 0d1c 00000000 		.4byte	0
 21476 0d20 AC080000 		.4byte	.LBB995-.Ltext0
 21477 0d24 AE080000 		.4byte	.LBE995-.Ltext0
 21478 0d28 B2080000 		.4byte	.LBB1007-.Ltext0
 21479 0d2c B2080000 		.4byte	.LBE1007-.Ltext0
 21480 0d30 B2080000 		.4byte	.LBB1008-.Ltext0
 21481 0d34 B2080000 		.4byte	.LBE1008-.Ltext0
 21482 0d38 B2080000 		.4byte	.LBB1009-.Ltext0
 21483 0d3c B2080000 		.4byte	.LBE1009-.Ltext0
 21484 0d40 B2080000 		.4byte	.LBB1010-.Ltext0
 21485 0d44 B6080000 		.4byte	.LBE1010-.Ltext0
 21486 0d48 00000000 		.4byte	0
 21487 0d4c 00000000 		.4byte	0
 21488 0d50 AC080000 		.4byte	.LBB996-.Ltext0
 21489 0d54 AE080000 		.4byte	.LBE996-.Ltext0
 21490 0d58 B2080000 		.4byte	.LBB1004-.Ltext0
 21491 0d5c B2080000 		.4byte	.LBE1004-.Ltext0
 21492 0d60 B2080000 		.4byte	.LBB1005-.Ltext0
 21493 0d64 B2080000 		.4byte	.LBE1005-.Ltext0
 21494 0d68 B2080000 		.4byte	.LBB1006-.Ltext0
 21495 0d6c B6080000 		.4byte	.LBE1006-.Ltext0
 21496 0d70 00000000 		.4byte	0
 21497 0d74 00000000 		.4byte	0
 21498 0d78 AC080000 		.4byte	.LBB997-.Ltext0
 21499 0d7c AE080000 		.4byte	.LBE997-.Ltext0
 21500 0d80 B2080000 		.4byte	.LBB1002-.Ltext0
 21501 0d84 B2080000 		.4byte	.LBE1002-.Ltext0
 21502 0d88 B2080000 		.4byte	.LBB1003-.Ltext0
 21503 0d8c B6080000 		.4byte	.LBE1003-.Ltext0
 21504 0d90 00000000 		.4byte	0
 21505 0d94 00000000 		.4byte	0
 21506 0d98 AC080000 		.4byte	.LBB998-.Ltext0
 21507 0d9c AE080000 		.4byte	.LBE998-.Ltext0
 21508 0da0 B2080000 		.4byte	.LBB1001-.Ltext0
 21509 0da4 B6080000 		.4byte	.LBE1001-.Ltext0
 21510 0da8 00000000 		.4byte	0
 21511 0dac 00000000 		.4byte	0
 21512 0db0 D0080000 		.4byte	.LBB1018-.Ltext0
 21513 0db4 D0080000 		.4byte	.LBE1018-.Ltext0
 21514 0db8 D0080000 		.4byte	.LBB1030-.Ltext0
 21515 0dbc D0080000 		.4byte	.LBE1030-.Ltext0
 21516 0dc0 D0080000 		.4byte	.LBB1031-.Ltext0
 21517 0dc4 D0080000 		.4byte	.LBE1031-.Ltext0
 21518 0dc8 D0080000 		.4byte	.LBB1032-.Ltext0
ARM GAS  /tmp/ccpnbTSa.s 			page 379


 21519 0dcc D0080000 		.4byte	.LBE1032-.Ltext0
 21520 0dd0 D0080000 		.4byte	.LBB1033-.Ltext0
 21521 0dd4 D4080000 		.4byte	.LBE1033-.Ltext0
 21522 0dd8 00000000 		.4byte	0
 21523 0ddc 00000000 		.4byte	0
 21524              		.section	.debug_line,"",%progbits
 21525              	.Ldebug_line0:
 21526 0000 19200000 		.section	.debug_str,"MS",%progbits,1
 21526      0300CC08 
 21526      00000201 
 21526      FB0E0D00 
 21526      01010101 
 21527              	.LASF50:
 21528 0000 5F6F6E5F 		.ascii	"_on_exit_args_ptr\000"
 21528      65786974 
 21528      5F617267 
 21528      735F7074 
 21528      7200
 21529              	.LASF352:
 21530 0012 63685F6D 		.ascii	"ch_memcore\000"
 21530      656D636F 
 21530      726500
 21531              	.LASF312:
 21532 001d 73656E74 		.ascii	"sentmsg\000"
 21532      6D736700 
 21533              	.LASF293:
 21534 0025 706F7274 		.ascii	"port_intctx\000"
 21534      5F696E74 
 21534      63747800 
 21535              	.LASF306:
 21536 0031 63685F74 		.ascii	"ch_trace_buffer_t\000"
 21536      72616365 
 21536      5F627566 
 21536      6665725F 
 21536      7400
 21537              	.LASF529:
 21538 0043 6576656E 		.ascii	"event\000"
 21538      7400
 21539              	.LASF785:
 21540 0049 75736249 		.ascii	"usbInitEndpointI\000"
 21540      6E697445 
 21540      6E64706F 
 21540      696E7449 
 21540      00
 21541              	.LASF835:
 21542 005a 2F686F6D 		.ascii	"/home/nicolas/source/akso-sub/axoloti/firmware/moun"
 21542      652F6E69 
 21542      636F6C61 
 21542      732F736F 
 21542      75726365 
 21543 008d 74657200 		.ascii	"ter\000"
 21544              	.LASF772:
 21545 0091 5F5F6675 		.ascii	"__func__\000"
 21545      6E635F5F 
 21545      00
 21546              	.LASF140:
 21547 009a 6D73675F 		.ascii	"msg_t\000"
ARM GAS  /tmp/ccpnbTSa.s 			page 380


 21547      7400
 21548              	.LASF762:
 21549 00a0 53445241 		.ascii	"SDRAM_READY\000"
 21549      4D5F5245 
 21549      41445900 
 21550              	.LASF586:
 21551 00ac 68616C5F 		.ascii	"hal_trng_driver\000"
 21551      74726E67 
 21551      5F647269 
 21551      76657200 
 21552              	.LASF807:
 21553 00bc 706F7274 		.ascii	"port_unlock_from_isr\000"
 21553      5F756E6C 
 21553      6F636B5F 
 21553      66726F6D 
 21553      5F697372 
 21554              	.LASF588:
 21555 00d1 68616C5F 		.ascii	"hal_trng_config\000"
 21555      74726E67 
 21555      5F636F6E 
 21555      66696700 
 21556              	.LASF774:
 21557 00e1 5F757362 		.ascii	"_usb_wakeup\000"
 21557      5F77616B 
 21557      65757000 
 21558              	.LASF547:
 21559 00ed 73646366 		.ascii	"sdcflags_t\000"
 21559      6C616773 
 21559      5F7400
 21560              	.LASF628:
 21561 00f8 5553425F 		.ascii	"USB_EVENT_UNCONFIGURED\000"
 21561      4556454E 
 21561      545F554E 
 21561      434F4E46 
 21561      49475552 
 21562              	.LASF672:
 21563 010f 44494550 		.ascii	"DIEPTXF0\000"
 21563      54584630 
 21563      00
 21564              	.LASF744:
 21565 0118 55534244 		.ascii	"USBD1\000"
 21565      3100
 21566              	.LASF528:
 21567 011e 53657269 		.ascii	"SerialDriver\000"
 21567      616C4472 
 21567      69766572 
 21567      00
 21568              	.LASF184:
 21569 012b 63685F73 		.ascii	"ch_system_t\000"
 21569      79737465 
 21569      6D5F7400 
 21570              	.LASF6:
 21571 0137 5F5F7569 		.ascii	"__uint8_t\000"
 21571      6E74385F 
 21571      7400
 21572              	.LASF313:
 21573 0141 77747365 		.ascii	"wtsemp\000"
ARM GAS  /tmp/ccpnbTSa.s 			page 381


 21573      6D7000
 21574              	.LASF347:
 21575 0148 5F426F6F 		.ascii	"_Bool\000"
 21575      6C00
 21576              	.LASF771:
 21577 014e 5F757362 		.ascii	"_usb_ep0in\000"
 21577      5F657030 
 21577      696E00
 21578              	.LASF158:
 21579 0159 6570656E 		.ascii	"epending\000"
 21579      64696E67 
 21579      00
 21580              	.LASF92:
 21581 0162 5F6D6273 		.ascii	"_mbstate\000"
 21581      74617465 
 21581      00
 21582              	.LASF47:
 21583 016b 5F617465 		.ascii	"_atexit\000"
 21583      78697400 
 21584              	.LASF356:
 21585 0173 70726F76 		.ascii	"provider\000"
 21585      69646572 
 21585      00
 21586              	.LASF371:
 21587 017c 6F626A65 		.ascii	"objects_factory_t\000"
 21587      6374735F 
 21587      66616374 
 21587      6F72795F 
 21587      7400
 21588              	.LASF801:
 21589 018e 6F73616C 		.ascii	"osalSysUnlock\000"
 21589      53797355 
 21589      6E6C6F63 
 21589      6B00
 21590              	.LASF348:
 21591 019c 6D656D67 		.ascii	"memgetfunc_t\000"
 21591      65746675 
 21591      6E635F74 
 21591      00
 21592              	.LASF702:
 21593 01a9 44564255 		.ascii	"DVBUSDIS\000"
 21593      53444953 
 21593      00
 21594              	.LASF493:
 21595 01b2 6572726F 		.ascii	"errors\000"
 21595      727300
 21596              	.LASF535:
 21597 01b9 696E7374 		.ascii	"instance_offset\000"
 21597      616E6365 
 21597      5F6F6666 
 21597      73657400 
 21598              	.LASF577:
 21599 01c9 73706963 		.ascii	"spicallback_t\000"
 21599      616C6C62 
 21599      61636B5F 
 21599      7400
 21600              	.LASF148:
ARM GAS  /tmp/ccpnbTSa.s 			page 382


 21601 01d7 7072696F 		.ascii	"prio\000"
 21601      00
 21602              	.LASF585:
 21603 01dc 54524E47 		.ascii	"TRNGDriver\000"
 21603      44726976 
 21603      657200
 21604              	.LASF587:
 21605 01e7 54524E47 		.ascii	"TRNGConfig\000"
 21605      436F6E66 
 21605      696700
 21606              	.LASF37:
 21607 01f2 5F5F746D 		.ascii	"__tm_mon\000"
 21607      5F6D6F6E 
 21607      00
 21608              	.LASF45:
 21609 01fb 5F666E74 		.ascii	"_fntypes\000"
 21609      79706573 
 21609      00
 21610              	.LASF128:
 21611 0204 5F676C6F 		.ascii	"_global_atexit\000"
 21611      62616C5F 
 21611      61746578 
 21611      697400
 21612              	.LASF64:
 21613 0213 5F696E63 		.ascii	"_inc\000"
 21613      00
 21614              	.LASF48:
 21615 0218 5F696E64 		.ascii	"_ind\000"
 21615      00
 21616              	.LASF269:
 21617 021d 4D41534B 		.ascii	"MASK\000"
 21617      00
 21618              	.LASF441:
 21619 0222 73616D70 		.ascii	"samples\000"
 21619      6C657300 
 21620              	.LASF676:
 21621 022a 47434346 		.ascii	"GCCFG\000"
 21621      4700
 21622              	.LASF389:
 21623 0230 42445452 		.ascii	"BDTR\000"
 21623      00
 21624              	.LASF491:
 21625 0235 49324343 		.ascii	"I2CConfig\000"
 21625      6F6E6669 
 21625      6700
 21626              	.LASF130:
 21627 023f 75696E74 		.ascii	"uint16_t\000"
 21627      31365F74 
 21627      00
 21628              	.LASF302:
 21629 0248 63685F74 		.ascii	"ch_trace_event_t\000"
 21629      72616365 
 21629      5F657665 
 21629      6E745F74 
 21629      00
 21630              	.LASF742:
 21631 0259 736F665F 		.ascii	"sof_cb\000"
ARM GAS  /tmp/ccpnbTSa.s 			page 383


 21631      636200
 21632              	.LASF362:
 21633 0260 63685F6F 		.ascii	"ch_objects_factory\000"
 21633      626A6563 
 21633      74735F66 
 21633      6163746F 
 21633      727900
 21634              	.LASF788:
 21635 0273 75736253 		.ascii	"usbStart\000"
 21635      74617274 
 21635      00
 21636              	.LASF300:
 21637 027c 72747374 		.ascii	"rtstamp\000"
 21637      616D7000 
 21638              	.LASF55:
 21639 0284 5F666C61 		.ascii	"_flags\000"
 21639      677300
 21640              	.LASF783:
 21641 028b 75736253 		.ascii	"usbStartReceiveI\000"
 21641      74617274 
 21641      52656365 
 21641      69766549 
 21641      00
 21642              	.LASF165:
 21643 029c 6E657874 		.ascii	"next\000"
 21643      00
 21644              	.LASF150:
 21645 02a1 6F6C6465 		.ascii	"older\000"
 21645      7200
 21646              	.LASF358:
 21647 02a7 63685F64 		.ascii	"ch_dyn_element\000"
 21647      796E5F65 
 21647      6C656D65 
 21647      6E7400
 21648              	.LASF812:
 21649 02b6 62617365 		.ascii	"basePri\000"
 21649      50726900 
 21650              	.LASF679:
 21651 02be 44494550 		.ascii	"DIEPTXF\000"
 21651      54584600 
 21652              	.LASF619:
 21653 02c6 5553425F 		.ascii	"USB_EP0_IN_WAITING_TX0\000"
 21653      4550305F 
 21653      494E5F57 
 21653      41495449 
 21653      4E475F54 
 21654              	.LASF473:
 21655 02dd 4144435F 		.ascii	"ADC_ERR_OVERFLOW\000"
 21655      4552525F 
 21655      4F564552 
 21655      464C4F57 
 21655      00
 21656              	.LASF71:
 21657 02ee 5F637674 		.ascii	"_cvtlen\000"
 21657      6C656E00 
 21658              	.LASF167:
 21659 02f6 63685F74 		.ascii	"ch_threads_queue\000"
ARM GAS  /tmp/ccpnbTSa.s 			page 384


 21659      68726561 
 21659      64735F71 
 21659      75657565 
 21659      00
 21660              	.LASF830:
 21661 0307 7573625F 		.ascii	"usb_lld_stop\000"
 21661      6C6C645F 
 21661      73746F70 
 21661      00
 21662              	.LASF76:
 21663 0314 5F736967 		.ascii	"_sig_func\000"
 21663      5F66756E 
 21663      6300
 21664              	.LASF689:
 21665 031e 48505254 		.ascii	"HPRT\000"
 21665      00
 21666              	.LASF643:
 21667 0323 4843494E 		.ascii	"HCINT\000"
 21667      5400
 21668              	.LASF198:
 21669 0329 534D5052 		.ascii	"SMPR1\000"
 21669      3100
 21670              	.LASF199:
 21671 032f 534D5052 		.ascii	"SMPR2\000"
 21671      3200
 21672              	.LASF91:
 21673 0335 5F6C6F63 		.ascii	"_lock\000"
 21673      6B00
 21674              	.LASF88:
 21675 033b 5F6E6275 		.ascii	"_nbuf\000"
 21675      6600
 21676              	.LASF564:
 21677 0341 5350495F 		.ascii	"SPI_STOP\000"
 21677      53544F50 
 21677      00
 21678              	.LASF511:
 21679 034a 70776D63 		.ascii	"pwmchnmsk_t\000"
 21679      686E6D73 
 21679      6B5F7400 
 21680              	.LASF224:
 21681 0356 41574433 		.ascii	"AWD3CR\000"
 21681      435200
 21682              	.LASF582:
 21683 035d 54524E47 		.ascii	"TRNG_READY\000"
 21683      5F524541 
 21683      445900
 21684              	.LASF646:
 21685 0368 72657376 		.ascii	"resvd14\000"
 21685      64313400 
 21686              	.LASF685:
 21687 0370 48505458 		.ascii	"HPTXSTS\000"
 21687      53545300 
 21688              	.LASF765:
 21689 0378 53445241 		.ascii	"SDRAMD1\000"
 21689      4D443100 
 21690              	.LASF422:
 21691 0380 4F545950 		.ascii	"OTYPER\000"
ARM GAS  /tmp/ccpnbTSa.s 			page 385


 21691      455200
 21692              	.LASF568:
 21693 0387 73706973 		.ascii	"spistate_t\000"
 21693      74617465 
 21693      5F7400
 21694              	.LASF542:
 21695 0392 5344435F 		.ascii	"SDC_MODE_1BIT\000"
 21695      4D4F4445 
 21695      5F314249 
 21695      5400
 21696              	.LASF641:
 21697 03a0 48434348 		.ascii	"HCCHAR\000"
 21697      415200
 21698              	.LASF253:
 21699 03a7 54494D45 		.ascii	"TIMEOUTR\000"
 21699      4F555452 
 21699      00
 21700              	.LASF486:
 21701 03b0 4932435F 		.ascii	"I2C_ACTIVE_RX\000"
 21701      41435449 
 21701      56455F52 
 21701      5800
 21702              	.LASF145:
 21703 03be 74687265 		.ascii	"thread_t\000"
 21703      61645F74 
 21703      00
 21704              	.LASF502:
 21705 03c7 70776D73 		.ascii	"pwmstate_t\000"
 21705      74617465 
 21705      5F7400
 21706              	.LASF178:
 21707 03d2 63685F76 		.ascii	"ch_virtual_timers_list\000"
 21707      69727475 
 21707      616C5F74 
 21707      696D6572 
 21707      735F6C69 
 21708              	.LASF377:
 21709 03e9 76656374 		.ascii	"vector\000"
 21709      6F7200
 21710              	.LASF667:
 21711 03f0 47494E54 		.ascii	"GINTSTS\000"
 21711      53545300 
 21712              	.LASF131:
 21713 03f8 696E7433 		.ascii	"int32_t\000"
 21713      325F7400 
 21714              	.LASF189:
 21715 0400 73797374 		.ascii	"systime_t\000"
 21715      696D655F 
 21715      7400
 21716              	.LASF796:
 21717 040a 6F73616C 		.ascii	"osalThreadSleep\000"
 21717      54687265 
 21717      6164536C 
 21717      65657000 
 21718              	.LASF95:
 21719 041a 5F5F4649 		.ascii	"__FILE\000"
 21719      4C4500
ARM GAS  /tmp/ccpnbTSa.s 			page 386


 21720              	.LASF54:
 21721 0421 5F5F7346 		.ascii	"__sFILE_fake\000"
 21721      494C455F 
 21721      66616B65 
 21721      00
 21722              	.LASF239:
 21723 042e 4D304152 		.ascii	"M0AR\000"
 21723      00
 21724              	.LASF648:
 21725 0433 72657376 		.ascii	"resvd1c\000"
 21725      64316300 
 21726              	.LASF489:
 21727 043b 69326366 		.ascii	"i2cflags_t\000"
 21727      6C616773 
 21727      5F7400
 21728              	.LASF686:
 21729 0446 4841494E 		.ascii	"HAINT\000"
 21729      5400
 21730              	.LASF324:
 21731 044c 74696D65 		.ascii	"timesize\000"
 21731      73697A65 
 21731      00
 21732              	.LASF616:
 21733 0455 45505F53 		.ascii	"EP_STATUS_ACTIVE\000"
 21733      54415455 
 21733      535F4143 
 21733      54495645 
 21733      00
 21734              	.LASF750:
 21735 0466 53445254 		.ascii	"SDRTR\000"
 21735      5200
 21736              	.LASF794:
 21737 046c 6F73616C 		.ascii	"osalThreadResumeI\000"
 21737      54687265 
 21737      61645265 
 21737      73756D65 
 21737      4900
 21738              	.LASF683:
 21739 047e 48464E55 		.ascii	"HFNUM\000"
 21739      4D00
 21740              	.LASF570:
 21741 0484 68616C5F 		.ascii	"hal_spi_driver\000"
 21741      7370695F 
 21741      64726976 
 21741      657200
 21742              	.LASF417:
 21743 0493 716E6F74 		.ascii	"qnotify_t\000"
 21743      6966795F 
 21743      7400
 21744              	.LASF437:
 21745 049d 61646373 		.ascii	"adcstate_t\000"
 21745      74617465 
 21745      5F7400
 21746              	.LASF747:
 21747 04a8 53445452 		.ascii	"SDTR1\000"
 21747      3100
 21748              	.LASF748:
ARM GAS  /tmp/ccpnbTSa.s 			page 387


 21749 04ae 53445452 		.ascii	"SDTR2\000"
 21749      3200
 21750              	.LASF593:
 21751 04b4 696E5F70 		.ascii	"in_params\000"
 21751      6172616D 
 21751      7300
 21752              	.LASF767:
 21753 04be 61637469 		.ascii	"active_status\000"
 21753      76655F73 
 21753      74617475 
 21753      7300
 21754              	.LASF412:
 21755 04cc 715F746F 		.ascii	"q_top\000"
 21755      7000
 21756              	.LASF57:
 21757 04d2 5F6C6266 		.ascii	"_lbfsize\000"
 21757      73697A65 
 21757      00
 21758              	.LASF634:
 21759 04db 75645F73 		.ascii	"ud_string\000"
 21759      7472696E 
 21759      6700
 21760              	.LASF492:
 21761 04e5 49324344 		.ascii	"I2CDriver\000"
 21761      72697665 
 21761      7200
 21762              	.LASF485:
 21763 04ef 4932435F 		.ascii	"I2C_ACTIVE_TX\000"
 21763      41435449 
 21763      56455F54 
 21763      5800
 21764              	.LASF155:
 21765 04fd 72656673 		.ascii	"refs\000"
 21765      00
 21766              	.LASF537:
 21767 0502 72656164 		.ascii	"read\000"
 21767      00
 21768              	.LASF598:
 21769 0507 65703065 		.ascii	"ep0endcb\000"
 21769      6E646362 
 21769      00
 21770              	.LASF695:
 21771 0510 72657376 		.ascii	"resvd80C\000"
 21771      64383043 
 21771      00
 21772              	.LASF159:
 21773 0519 6D74786C 		.ascii	"mtxlist\000"
 21773      69737400 
 21774              	.LASF662:
 21775 0521 474F5447 		.ascii	"GOTGCTL\000"
 21775      43544C00 
 21776              	.LASF637:
 21777 0529 75736265 		.ascii	"usbepcallback_t\000"
 21777      7063616C 
 21777      6C626163 
 21777      6B5F7400 
 21778              	.LASF58:
ARM GAS  /tmp/ccpnbTSa.s 			page 388


 21779 0539 5F646174 		.ascii	"_data\000"
 21779      6100
 21780              	.LASF187:
 21781 053f 76746C69 		.ascii	"vtlist\000"
 21781      737400
 21782              	.LASF581:
 21783 0546 54524E47 		.ascii	"TRNG_STOP\000"
 21783      5F53544F 
 21783      5000
 21784              	.LASF701:
 21785 0550 72657376 		.ascii	"resvd824\000"
 21785      64383234 
 21785      00
 21786              	.LASF409:
 21787 0559 715F7761 		.ascii	"q_waiting\000"
 21787      6974696E 
 21787      6700
 21788              	.LASF186:
 21789 0563 726C6973 		.ascii	"rlist\000"
 21789      7400
 21790              	.LASF163:
 21791 0569 74687265 		.ascii	"threads_list_t\000"
 21791      6164735F 
 21791      6C697374 
 21791      5F7400
 21792              	.LASF308:
 21793 0578 746D5F63 		.ascii	"tm_calibration_t\000"
 21793      616C6962 
 21793      72617469 
 21793      6F6E5F74 
 21793      00
 21794              	.LASF418:
 21795 0589 696E7075 		.ascii	"input_queue_t\000"
 21795      745F7175 
 21795      6575655F 
 21795      7400
 21796              	.LASF454:
 21797 0597 41444343 		.ascii	"ADCConversionGroup\000"
 21797      6F6E7665 
 21797      7273696F 
 21797      6E47726F 
 21797      757000
 21798              	.LASF121:
 21799 05aa 5F5F6C6F 		.ascii	"__lock\000"
 21799      636B00
 21800              	.LASF59:
 21801 05b1 5F726565 		.ascii	"_reent\000"
 21801      6E7400
 21802              	.LASF730:
 21803 05b8 696E5F63 		.ascii	"in_cb\000"
 21803      6200
 21804              	.LASF813:
 21805 05be 7573625F 		.ascii	"usb_lld_start_in\000"
 21805      6C6C645F 
 21805      73746172 
 21805      745F696E 
 21805      00
ARM GAS  /tmp/ccpnbTSa.s 			page 389


 21806              	.LASF78:
 21807 05cf 5F5F7366 		.ascii	"__sf\000"
 21807      00
 21808              	.LASF700:
 21809 05d4 72657376 		.ascii	"resvd820\000"
 21809      64383230 
 21809      00
 21810              	.LASF52:
 21811 05dd 5F626173 		.ascii	"_base\000"
 21811      6500
 21812              	.LASF261:
 21813 05e3 52455350 		.ascii	"RESP1\000"
 21813      3100
 21814              	.LASF262:
 21815 05e9 52455350 		.ascii	"RESP2\000"
 21815      3200
 21816              	.LASF263:
 21817 05ef 52455350 		.ascii	"RESP3\000"
 21817      3300
 21818              	.LASF264:
 21819 05f5 52455350 		.ascii	"RESP4\000"
 21819      3400
 21820              	.LASF113:
 21821 05fb 5F6D6274 		.ascii	"_mbtowc_state\000"
 21821      6F77635F 
 21821      73746174 
 21821      6500
 21822              	.LASF433:
 21823 0609 4144435F 		.ascii	"ADC_READY\000"
 21823      52454144 
 21823      5900
 21824              	.LASF799:
 21825 0613 6F73616C 		.ascii	"osalSysUnlockFromISR\000"
 21825      53797355 
 21825      6E6C6F63 
 21825      6B46726F 
 21825      6D495352 
 21826              	.LASF482:
 21827 0628 4932435F 		.ascii	"I2C_UNINIT\000"
 21827      554E494E 
 21827      495400
 21828              	.LASF639:
 21829 0633 75736272 		.ascii	"usbreqhandler_t\000"
 21829      65716861 
 21829      6E646C65 
 21829      725F7400 
 21830              	.LASF435:
 21831 0643 4144435F 		.ascii	"ADC_COMPLETE\000"
 21831      434F4D50 
 21831      4C455445 
 21831      00
 21832              	.LASF524:
 21833 0650 53445F55 		.ascii	"SD_UNINIT\000"
 21833      4E494E49 
 21833      5400
 21834              	.LASF778:
 21835 065a 75736253 		.ascii	"usbStallTransmitI\000"
ARM GAS  /tmp/ccpnbTSa.s 			page 390


 21835      74616C6C 
 21835      5472616E 
 21835      736D6974 
 21835      4900
 21836              	.LASF139:
 21837 066c 74707269 		.ascii	"tprio_t\000"
 21837      6F5F7400 
 21838              	.LASF603:
 21839 0674 73617665 		.ascii	"saved_state\000"
 21839      645F7374 
 21839      61746500 
 21840              	.LASF452:
 21841 0680 64696673 		.ascii	"difsel\000"
 21841      656C00
 21842              	.LASF704:
 21843 0687 72657376 		.ascii	"resvd830\000"
 21843      64383330 
 21843      00
 21844              	.LASF32:
 21845 0690 5F5F746D 		.ascii	"__tm\000"
 21845      00
 21846              	.LASF360:
 21847 0695 63685F64 		.ascii	"ch_dyn_list\000"
 21847      796E5F6C 
 21847      69737400 
 21848              	.LASF754:
 21849 06a1 73647261 		.ascii	"sdram\000"
 21849      6D00
 21850              	.LASF706:
 21851 06a7 72657376 		.ascii	"resvd838\000"
 21851      64383338 
 21851      00
 21852              	.LASF451:
 21853 06b0 68616C5F 		.ascii	"hal_adc_config\000"
 21853      6164635F 
 21853      636F6E66 
 21853      696700
 21854              	.LASF252:
 21855 06bf 54494D49 		.ascii	"TIMINGR\000"
 21855      4E475200 
 21856              	.LASF231:
 21857 06c7 44494653 		.ascii	"DIFSEL\000"
 21857      454C00
 21858              	.LASF444:
 21859 06ce 74687265 		.ascii	"thread\000"
 21859      616400
 21860              	.LASF599:
 21861 06d5 73657475 		.ascii	"setup\000"
 21861      7000
 21862              	.LASF563:
 21863 06db 5350495F 		.ascii	"SPI_UNINIT\000"
 21863      554E494E 
 21863      495400
 21864              	.LASF321:
 21865 06e6 7A65726F 		.ascii	"zero\000"
 21865      00
 21866              	.LASF404:
ARM GAS  /tmp/ccpnbTSa.s 			page 391


 21867 06eb 626C6B5F 		.ascii	"blk_size\000"
 21867      73697A65 
 21867      00
 21868              	.LASF484:
 21869 06f4 4932435F 		.ascii	"I2C_READY\000"
 21869      52454144 
 21869      5900
 21870              	.LASF194:
 21871 06fe 53797374 		.ascii	"SystemD2Clock\000"
 21871      656D4432 
 21871      436C6F63 
 21871      6B00
 21872              	.LASF707:
 21873 070c 72657376 		.ascii	"resvd83C\000"
 21873      64383343 
 21873      00
 21874              	.LASF40:
 21875 0715 5F5F746D 		.ascii	"__tm_yday\000"
 21875      5F796461 
 21875      7900
 21876              	.LASF388:
 21877 071f 43434552 		.ascii	"CCER\000"
 21877      00
 21878              	.LASF499:
 21879 0724 50574D5F 		.ascii	"PWM_UNINIT\000"
 21879      554E494E 
 21879      495400
 21880              	.LASF299:
 21881 072f 74797065 		.ascii	"type\000"
 21881      00
 21882              	.LASF664:
 21883 0734 47414842 		.ascii	"GAHBCFG\000"
 21883      43464700 
 21884              	.LASF25:
 21885 073c 5F4C4F43 		.ascii	"_LOCK_T\000"
 21885      4B5F5400 
 21886              	.LASF708:
 21887 0744 72657376 		.ascii	"resvd840\000"
 21887      64383430 
 21887      00
 21888              	.LASF399:
 21889 074d 424C4B5F 		.ascii	"BLK_READY\000"
 21889      52454144 
 21889      5900
 21890              	.LASF9:
 21891 0757 5F5F7569 		.ascii	"__uint16_t\000"
 21891      6E743136 
 21891      5F7400
 21892              	.LASF270:
 21893 0762 41434B54 		.ascii	"ACKTIME\000"
 21893      494D4500 
 21894              	.LASF661:
 21895 076a 73746D33 		.ascii	"stm32_otg_out_ep_t\000"
 21895      325F6F74 
 21895      675F6F75 
 21895      745F6570 
 21895      5F7400
ARM GAS  /tmp/ccpnbTSa.s 			page 392


 21896              	.LASF670:
 21897 077d 47525853 		.ascii	"GRXSTSP\000"
 21897      54535000 
 21898              	.LASF669:
 21899 0785 47525853 		.ascii	"GRXSTSR\000"
 21899      54535200 
 21900              	.LASF823:
 21901 078d 63685468 		.ascii	"chThdResumeI\000"
 21901      64526573 
 21901      756D6549 
 21901      00
 21902              	.LASF240:
 21903 079a 4D314152 		.ascii	"M1AR\000"
 21903      00
 21904              	.LASF241:
 21905 079f 444D415F 		.ascii	"DMA_Stream_TypeDef\000"
 21905      53747265 
 21905      616D5F54 
 21905      79706544 
 21905      656600
 21906              	.LASF776:
 21907 07b2 5F757362 		.ascii	"_usb_reset\000"
 21907      5F726573 
 21907      657400
 21908              	.LASF611:
 21909 07bd 5553425F 		.ascii	"USB_ACTIVE\000"
 21909      41435449 
 21909      564500
 21910              	.LASF608:
 21911 07c8 5553425F 		.ascii	"USB_STOP\000"
 21911      53544F50 
 21911      00
 21912              	.LASF149:
 21913 07d1 6E657765 		.ascii	"newer\000"
 21913      7200
 21914              	.LASF580:
 21915 07d7 54524E47 		.ascii	"TRNG_UNINIT\000"
 21915      5F554E49 
 21915      4E495400 
 21916              	.LASF657:
 21917 07e3 73746D33 		.ascii	"stm32_otg_in_ep_t\000"
 21917      325F6F74 
 21917      675F696E 
 21917      5F65705F 
 21917      7400
 21918              	.LASF431:
 21919 07f5 4144435F 		.ascii	"ADC_UNINIT\000"
 21919      554E494E 
 21919      495400
 21920              	.LASF496:
 21921 0800 7278646D 		.ascii	"rxdmamode\000"
 21921      616D6F64 
 21921      6500
 21922              	.LASF106:
 21923 080a 5F726573 		.ascii	"_result_k\000"
 21923      756C745F 
 21923      6B00
ARM GAS  /tmp/ccpnbTSa.s 			page 393


 21924              	.LASF513:
 21925 0814 6D6F6465 		.ascii	"mode\000"
 21925      00
 21926              	.LASF63:
 21927 0819 5F737464 		.ascii	"_stderr\000"
 21927      65727200 
 21928              	.LASF105:
 21929 0821 5F726573 		.ascii	"_result\000"
 21929      756C7400 
 21930              	.LASF44:
 21931 0829 5F64736F 		.ascii	"_dso_handle\000"
 21931      5F68616E 
 21931      646C6500 
 21932              	.LASF677:
 21933 0835 72657376 		.ascii	"resvd58\000"
 21933      64353800 
 21934              	.LASF574:
 21935 083d 73737061 		.ascii	"sspad\000"
 21935      6400
 21936              	.LASF497:
 21937 0843 7478646D 		.ascii	"txdmamode\000"
 21937      616D6F64 
 21937      6500
 21938              	.LASF39:
 21939 084d 5F5F746D 		.ascii	"__tm_wday\000"
 21939      5F776461 
 21939      7900
 21940              	.LASF41:
 21941 0857 5F5F746D 		.ascii	"__tm_isdst\000"
 21941      5F697364 
 21941      737400
 21942              	.LASF715:
 21943 0862 72785F66 		.ascii	"rx_fifo_size\000"
 21943      69666F5F 
 21943      73697A65 
 21943      00
 21944              	.LASF292:
 21945 086f 73746B61 		.ascii	"stkalign_t\000"
 21945      6C69676E 
 21945      5F7400
 21946              	.LASF495:
 21947 087a 72786279 		.ascii	"rxbytes\000"
 21947      74657300 
 21948              	.LASF458:
 21949 0882 656E645F 		.ascii	"end_cb\000"
 21949      636200
 21950              	.LASF729:
 21951 0889 73657475 		.ascii	"setup_cb\000"
 21951      705F6362 
 21951      00
 21952              	.LASF7:
 21953 0892 756E7369 		.ascii	"unsigned char\000"
 21953      676E6564 
 21953      20636861 
 21953      7200
 21954              	.LASF62:
 21955 08a0 5F737464 		.ascii	"_stdout\000"
ARM GAS  /tmp/ccpnbTSa.s 			page 394


 21955      6F757400 
 21956              	.LASF288:
 21957 08a8 52544F52 		.ascii	"RTOR\000"
 21957      00
 21958              	.LASF276:
 21959 08ad 4649464F 		.ascii	"FIFO\000"
 21959      00
 21960              	.LASF169:
 21961 08b2 72656164 		.ascii	"ready_list_t\000"
 21961      795F6C69 
 21961      73745F74 
 21961      00
 21962              	.LASF146:
 21963 08bf 63685F74 		.ascii	"ch_thread\000"
 21963      68726561 
 21963      6400
 21964              	.LASF393:
 21965 08c9 73746D33 		.ascii	"stm32_tim_t\000"
 21965      325F7469 
 21965      6D5F7400 
 21966              	.LASF595:
 21967 08d5 65703073 		.ascii	"ep0state\000"
 21967      74617465 
 21967      00
 21968              	.LASF118:
 21969 08de 5F6D6273 		.ascii	"_mbsrtowcs_state\000"
 21969      72746F77 
 21969      63735F73 
 21969      74617465 
 21969      00
 21970              	.LASF827:
 21971 08ef 7573625F 		.ascii	"usb_lld_disable_endpoints\000"
 21971      6C6C645F 
 21971      64697361 
 21971      626C655F 
 21971      656E6470 
 21972              	.LASF30:
 21973 0909 5F776473 		.ascii	"_wds\000"
 21973      00
 21974              	.LASF79:
 21975 090e 5F6D6973 		.ascii	"_misc\000"
 21975      6300
 21976              	.LASF123:
 21977 0914 5F5F7366 		.ascii	"__sf_fake_stdin\000"
 21977      5F66616B 
 21977      655F7374 
 21977      64696E00 
 21978              	.LASF53:
 21979 0924 5F73697A 		.ascii	"_size\000"
 21979      6500
 21980              	.LASF353:
 21981 092a 706F6F6C 		.ascii	"pool_header\000"
 21981      5F686561 
 21981      64657200 
 21982              	.LASF180:
 21983 0936 73797374 		.ascii	"system_debug_t\000"
 21983      656D5F64 
ARM GAS  /tmp/ccpnbTSa.s 			page 395


 21983      65627567 
 21983      5F7400
 21984              	.LASF385:
 21985 0945 44494552 		.ascii	"DIER\000"
 21985      00
 21986              	.LASF350:
 21987 094a 746F706D 		.ascii	"topmem\000"
 21987      656D00
 21988              	.LASF527:
 21989 0951 73647374 		.ascii	"sdstate_t\000"
 21989      6174655F 
 21989      7400
 21990              	.LASF175:
 21991 095b 64656C74 		.ascii	"delta\000"
 21991      6100
 21992              	.LASF552:
 21993 0961 636C6B66 		.ascii	"clkfreq\000"
 21993      72657100 
 21994              	.LASF84:
 21995 0969 5F777269 		.ascii	"_write\000"
 21995      746500
 21996              	.LASF246:
 21997 0970 42444D41 		.ascii	"BDMA_Channel_TypeDef\000"
 21997      5F436861 
 21997      6E6E656C 
 21997      5F547970 
 21997      65446566 
 21998              	.LASF784:
 21999 0985 75736244 		.ascii	"usbDisableEndpointsI\000"
 21999      69736162 
 21999      6C65456E 
 21999      64706F69 
 21999      6E747349 
 22000              	.LASF822:
 22001 099a 7573625F 		.ascii	"usb_lld_read_setup\000"
 22001      6C6C645F 
 22001      72656164 
 22001      5F736574 
 22001      757000
 22002              	.LASF816:
 22003 09ad 7573625F 		.ascii	"usb_lld_start_out\000"
 22003      6C6C645F 
 22003      73746172 
 22003      745F6F75 
 22003      7400
 22004              	.LASF133:
 22005 09bf 75696E74 		.ascii	"uint64_t\000"
 22005      36345F74 
 22005      00
 22006              	.LASF338:
 22007 09c8 63685F64 		.ascii	"ch_debug\000"
 22007      65627567 
 22007      00
 22008              	.LASF725:
 22009 09d1 7278636E 		.ascii	"rxcnt\000"
 22009      7400
 22010              	.LASF720:
ARM GAS  /tmp/ccpnbTSa.s 			page 396


 22011 09d7 7478636E 		.ascii	"txcnt\000"
 22011      7400
 22012              	.LASF638:
 22013 09dd 75736265 		.ascii	"usbeventcb_t\000"
 22013      76656E74 
 22013      63625F74 
 22013      00
 22014              	.LASF396:
 22015 09ea 424C4B5F 		.ascii	"BLK_ACTIVE\000"
 22015      41435449 
 22015      564500
 22016              	.LASF38:
 22017 09f5 5F5F746D 		.ascii	"__tm_year\000"
 22017      5F796561 
 22017      7200
 22018              	.LASF340:
 22019 09ff 6576656E 		.ascii	"event_listener_t\000"
 22019      745F6C69 
 22019      7374656E 
 22019      65725F74 
 22019      00
 22020              	.LASF716:
 22021 0a10 6F74675F 		.ascii	"otg_ram_size\000"
 22021      72616D5F 
 22021      73697A65 
 22021      00
 22022              	.LASF759:
 22023 0a1d 46534D43 		.ascii	"FSMCD1\000"
 22023      443100
 22024              	.LASF718:
 22025 0a24 73746D33 		.ascii	"stm32_otg_params_t\000"
 22025      325F6F74 
 22025      675F7061 
 22025      72616D73 
 22025      5F7400
 22026              	.LASF711:
 22027 0a37 72657376 		.ascii	"resvdD00\000"
 22027      64443030 
 22027      00
 22028              	.LASF726:
 22029 0a40 72786275 		.ascii	"rxbuf\000"
 22029      6600
 22030              	.LASF101:
 22031 0a46 5F6D756C 		.ascii	"_mult\000"
 22031      7400
 22032              	.LASF317:
 22033 0a4c 63685F6D 		.ascii	"ch_mutex\000"
 22033      75746578 
 22033      00
 22034              	.LASF770:
 22035 0a55 5F757362 		.ascii	"_usb_ep0out\000"
 22035      5F657030 
 22035      6F757400 
 22036              	.LASF503:
 22037 0a61 50574D44 		.ascii	"PWMDriver\000"
 22037      72697665 
 22037      7200
ARM GAS  /tmp/ccpnbTSa.s 			page 397


 22038              	.LASF518:
 22039 0a6b 50574D43 		.ascii	"PWMConfig\000"
 22039      6F6E6669 
 22039      6700
 22040              	.LASF116:
 22041 0a75 5F6D6272 		.ascii	"_mbrlen_state\000"
 22041      6C656E5F 
 22041      73746174 
 22041      6500
 22042              	.LASF696:
 22043 0a83 44494550 		.ascii	"DIEPMSK\000"
 22043      4D534B00 
 22044              	.LASF739:
 22045 0a8b 6576656E 		.ascii	"event_cb\000"
 22045      745F6362 
 22045      00
 22046              	.LASF731:
 22047 0a94 6F75745F 		.ascii	"out_cb\000"
 22047      636200
 22048              	.LASF687:
 22049 0a9b 4841494E 		.ascii	"HAINTMSK\000"
 22049      544D534B 
 22049      00
 22050              	.LASF594:
 22051 0aa4 6F75745F 		.ascii	"out_params\000"
 22051      70617261 
 22051      6D7300
 22052              	.LASF694:
 22053 0aaf 44535453 		.ascii	"DSTS\000"
 22053      00
 22054              	.LASF211:
 22055 0ab4 4A535152 		.ascii	"JSQR\000"
 22055      00
 22056              	.LASF821:
 22057 0ab9 7573625F 		.ascii	"usb_lld_clear_in\000"
 22057      6C6C645F 
 22057      636C6561 
 22057      725F696E 
 22057      00
 22058              	.LASF61:
 22059 0aca 5F737464 		.ascii	"_stdin\000"
 22059      696E00
 22060              	.LASF363:
 22061 0ad1 6F626A5F 		.ascii	"obj_list\000"
 22061      6C697374 
 22061      00
 22062              	.LASF517:
 22063 0ada 64696572 		.ascii	"dier\000"
 22063      00
 22064              	.LASF557:
 22065 0adf 69735F70 		.ascii	"is_protected\000"
 22065      726F7465 
 22065      63746564 
 22065      00
 22066              	.LASF367:
 22067 0aec 73656D5F 		.ascii	"sem_pool\000"
 22067      706F6F6C 
ARM GAS  /tmp/ccpnbTSa.s 			page 398


 22067      00
 22068              	.LASF173:
 22069 0af5 76697274 		.ascii	"virtual_timer_t\000"
 22069      75616C5F 
 22069      74696D65 
 22069      725F7400 
 22070              	.LASF500:
 22071 0b05 50574D5F 		.ascii	"PWM_STOP\000"
 22071      53544F50 
 22071      00
 22072              	.LASF375:
 22073 0b0e 73686966 		.ascii	"shift\000"
 22073      7400
 22074              	.LASF135:
 22075 0b14 7274636E 		.ascii	"rtcnt_t\000"
 22075      745F7400 
 22076              	.LASF445:
 22077 0b1c 6D757465 		.ascii	"mutex\000"
 22077      7800
 22078              	.LASF304:
 22079 0b22 73697A65 		.ascii	"size\000"
 22079      00
 22080              	.LASF319:
 22081 0b27 63685F69 		.ascii	"ch_idle_thread_wa\000"
 22081      646C655F 
 22081      74687265 
 22081      61645F77 
 22081      6100
 22082              	.LASF274:
 22083 0b39 49444D41 		.ascii	"IDMABASE0\000"
 22083      42415345 
 22083      3000
 22084              	.LASF275:
 22085 0b43 49444D41 		.ascii	"IDMABASE1\000"
 22085      42415345 
 22085      3100
 22086              	.LASF507:
 22087 0b4d 636C6F63 		.ascii	"clock\000"
 22087      6B00
 22088              	.LASF318:
 22089 0b53 6F776E65 		.ascii	"owner\000"
 22089      7200
 22090              	.LASF392:
 22091 0b59 43435852 		.ascii	"CCXR\000"
 22091      00
 22092              	.LASF488:
 22093 0b5e 69326373 		.ascii	"i2cstate_t\000"
 22093      74617465 
 22093      5F7400
 22094              	.LASF284:
 22095 0b69 55445244 		.ascii	"UDRDR\000"
 22095      5200
 22096              	.LASF17:
 22097 0b6f 5F6F6666 		.ascii	"_off_t\000"
 22097      5F7400
 22098              	.LASF775:
 22099 0b76 5F757362 		.ascii	"_usb_suspend\000"
ARM GAS  /tmp/ccpnbTSa.s 			page 399


 22099      5F737573 
 22099      70656E64 
 22099      00
 22100              	.LASF651:
 22101 0b83 72657376 		.ascii	"resvd4\000"
 22101      643400
 22102              	.LASF525:
 22103 0b8a 53445F53 		.ascii	"SD_STOP\000"
 22103      544F5000 
 22104              	.LASF247:
 22105 0b92 49464352 		.ascii	"IFCR\000"
 22105      00
 22106              	.LASF642:
 22107 0b97 72657376 		.ascii	"resvd8\000"
 22107      643800
 22108              	.LASF3:
 22109 0b9e 73697A65 		.ascii	"size_t\000"
 22109      5F7400
 22110              	.LASF74:
 22111 0ba5 5F6C6F63 		.ascii	"_localtime_buf\000"
 22111      616C7469 
 22111      6D655F62 
 22111      756600
 22112              	.LASF709:
 22113 0bb4 72657376 		.ascii	"resvd880\000"
 22113      64383830 
 22113      00
 22114              	.LASF758:
 22115 0bbd 66736D63 		.ascii	"fsmcstate_t\000"
 22115      73746174 
 22115      655F7400 
 22116              	.LASF21:
 22117 0bc9 5F5F636F 		.ascii	"__count\000"
 22117      756E7400 
 22118              	.LASF320:
 22119 0bd1 6964656E 		.ascii	"identifier\000"
 22119      74696669 
 22119      657200
 22120              	.LASF129:
 22121 0bdc 75696E74 		.ascii	"uint8_t\000"
 22121      385F7400 
 22122              	.LASF447:
 22123 0be4 61646363 		.ascii	"adcc\000"
 22123      00
 22124              	.LASF647:
 22125 0be9 72657376 		.ascii	"resvd18\000"
 22125      64313800 
 22126              	.LASF446:
 22127 0bf1 6164636D 		.ascii	"adcm\000"
 22127      00
 22128              	.LASF656:
 22129 0bf6 72657376 		.ascii	"resvd1C\000"
 22129      64314300 
 22130              	.LASF515:
 22131 0bfe 50574D43 		.ascii	"PWMChannelConfig\000"
 22131      68616E6E 
 22131      656C436F 
ARM GAS  /tmp/ccpnbTSa.s 			page 400


 22131      6E666967 
 22131      00
 22132              	.LASF512:
 22133 0c0f 70776D63 		.ascii	"pwmcnt_t\000"
 22133      6E745F74 
 22133      00
 22134              	.LASF354:
 22135 0c18 6F626A65 		.ascii	"object_size\000"
 22135      63745F73 
 22135      697A6500 
 22136              	.LASF705:
 22137 0c24 44494550 		.ascii	"DIEPEMPMSK\000"
 22137      454D504D 
 22137      534B00
 22138              	.LASF615:
 22139 0c2f 45505F53 		.ascii	"EP_STATUS_STALLED\000"
 22139      54415455 
 22139      535F5354 
 22139      414C4C45 
 22139      4400
 22140              	.LASF650:
 22141 0c41 44494550 		.ascii	"DIEPCTL\000"
 22141      43544C00 
 22142              	.LASF604:
 22143 0c49 6F746770 		.ascii	"otgparams\000"
 22143      6172616D 
 22143      7300
 22144              	.LASF310:
 22145 0c53 65786974 		.ascii	"exitcode\000"
 22145      636F6465 
 22145      00
 22146              	.LASF817:
 22147 0c5c 7573625F 		.ascii	"usb_lld_set_address\000"
 22147      6C6C645F 
 22147      7365745F 
 22147      61646472 
 22147      65737300 
 22148              	.LASF72:
 22149 0c70 5F637674 		.ascii	"_cvtbuf\000"
 22149      62756600 
 22150              	.LASF735:
 22151 0c78 6F75745F 		.ascii	"out_state\000"
 22151      73746174 
 22151      6500
 22152              	.LASF407:
 22153 0c82 696F5F71 		.ascii	"io_queue_t\000"
 22153      75657565 
 22153      5F7400
 22154              	.LASF831:
 22155 0c8d 7573625F 		.ascii	"usb_lld_start\000"
 22155      6C6C645F 
 22155      73746172 
 22155      7400
 22156              	.LASF369:
 22157 0c9b 6669666F 		.ascii	"fifo_list\000"
 22157      5F6C6973 
 22157      7400
ARM GAS  /tmp/ccpnbTSa.s 			page 401


 22158              	.LASF483:
 22159 0ca5 4932435F 		.ascii	"I2C_STOP\000"
 22159      53544F50 
 22159      00
 22160              	.LASF795:
 22161 0cae 6F73616C 		.ascii	"osalThreadSuspendS\000"
 22161      54687265 
 22161      61645375 
 22161      7370656E 
 22161      645300
 22162              	.LASF472:
 22163 0cc1 4144435F 		.ascii	"ADC_ERR_DMAFAILURE\000"
 22163      4552525F 
 22163      444D4146 
 22163      41494C55 
 22163      524500
 22164              	.LASF566:
 22165 0cd4 5350495F 		.ascii	"SPI_ACTIVE\000"
 22165      41435449 
 22165      564500
 22166              	.LASF413:
 22167 0cdf 715F7772 		.ascii	"q_wrptr\000"
 22167      70747200 
 22168              	.LASF342:
 22169 0ce7 6C697374 		.ascii	"listener\000"
 22169      656E6572 
 22169      00
 22170              	.LASF751:
 22171 0cf0 53445352 		.ascii	"SDSR\000"
 22171      00
 22172              	.LASF287:
 22173 0cf5 47545052 		.ascii	"GTPR\000"
 22173      00
 22174              	.LASF826:
 22175 0cfa 63685468 		.ascii	"chThdSuspendTimeoutS\000"
 22175      64537573 
 22175      70656E64 
 22175      54696D65 
 22175      6F757453 
 22176              	.LASF423:
 22177 0d0f 4F535045 		.ascii	"OSPEEDR\000"
 22177      45445200 
 22178              	.LASF674:
 22179 0d17 72657376 		.ascii	"resvd30\000"
 22179      64333000 
 22180              	.LASF20:
 22181 0d1f 5F5F7763 		.ascii	"__wchb\000"
 22181      686200
 22182              	.LASF117:
 22183 0d26 5F6D6272 		.ascii	"_mbrtowc_state\000"
 22183      746F7763 
 22183      5F737461 
 22183      746500
 22184              	.LASF703:
 22185 0d35 44564255 		.ascii	"DVBUSPULSE\000"
 22185      5350554C 
 22185      534500
ARM GAS  /tmp/ccpnbTSa.s 			page 402


 22186              	.LASF35:
 22187 0d40 5F5F746D 		.ascii	"__tm_hour\000"
 22187      5F686F75 
 22187      7200
 22188              	.LASF201:
 22189 0d4a 4C545231 		.ascii	"LTR1\000"
 22189      00
 22190              	.LASF227:
 22191 0d4f 4C545232 		.ascii	"LTR2\000"
 22191      00
 22192              	.LASF229:
 22193 0d54 4C545233 		.ascii	"LTR3\000"
 22193      00
 22194              	.LASF534:
 22195 0d59 53657269 		.ascii	"SerialDriverVMT\000"
 22195      616C4472 
 22195      69766572 
 22195      564D5400 
 22196              	.LASF243:
 22197 0d69 43504152 		.ascii	"CPAR\000"
 22197      00
 22198              	.LASF323:
 22199 0d6e 70747273 		.ascii	"ptrsize\000"
 22199      697A6500 
 22200              	.LASF623:
 22201 0d76 5553425F 		.ascii	"USB_EP0_ERROR\000"
 22201      4550305F 
 22201      4552524F 
 22201      5200
 22202              	.LASF622:
 22203 0d84 5553425F 		.ascii	"USB_EP0_OUT_RX\000"
 22203      4550305F 
 22203      4F55545F 
 22203      525800
 22204              	.LASF4:
 22205 0d93 77696E74 		.ascii	"wint_t\000"
 22205      5F7400
 22206              	.LASF558:
 22207 0d9a 636F6E6E 		.ascii	"connect\000"
 22207      65637400 
 22208              	.LASF438:
 22209 0da2 41444344 		.ascii	"ADCDriver\000"
 22209      72697665 
 22209      7200
 22210              	.LASF717:
 22211 0dac 6E756D5F 		.ascii	"num_endpoints\000"
 22211      656E6470 
 22211      6F696E74 
 22211      7300
 22212              	.LASF450:
 22213 0dba 41444343 		.ascii	"ADCConfig\000"
 22213      6F6E6669 
 22213      6700
 22214              	.LASF722:
 22215 0dc4 746F7473 		.ascii	"totsize\000"
 22215      697A6500 
 22216              	.LASF97:
ARM GAS  /tmp/ccpnbTSa.s 			page 403


 22217 0dcc 5F6E696F 		.ascii	"_niobs\000"
 22217      627300
 22218              	.LASF273:
 22219 0dd3 49444D41 		.ascii	"IDMABSIZE\000"
 22219      4253495A 
 22219      4500
 22220              	.LASF583:
 22221 0ddd 54524E47 		.ascii	"TRNG_RUNNING\000"
 22221      5F52554E 
 22221      4E494E47 
 22221      00
 22222              	.LASF640:
 22223 0dea 75736267 		.ascii	"usbgetdescriptor_t\000"
 22223      65746465 
 22223      73637269 
 22223      70746F72 
 22223      5F7400
 22224              	.LASF60:
 22225 0dfd 5F657272 		.ascii	"_errno\000"
 22225      6E6F00
 22226              	.LASF200:
 22227 0e04 50435345 		.ascii	"PCSEL\000"
 22227      4C00
 22228              	.LASF351:
 22229 0e0a 6D656D63 		.ascii	"memcore_t\000"
 22229      6F72655F 
 22229      7400
 22230              	.LASF36:
 22231 0e14 5F5F746D 		.ascii	"__tm_mday\000"
 22231      5F6D6461 
 22231      7900
 22232              	.LASF374:
 22233 0e1e 69666372 		.ascii	"ifcr\000"
 22233      00
 22234              	.LASF733:
 22235 0e23 6F75745F 		.ascii	"out_maxsize\000"
 22235      6D617873 
 22235      697A6500 
 22236              	.LASF790:
 22237 0e2f 75736249 		.ascii	"usbInit\000"
 22237      6E697400 
 22238              	.LASF256:
 22239 0e37 54584452 		.ascii	"TXDR\000"
 22239      00
 22240              	.LASF429:
 22241 0e3c 73746D33 		.ascii	"stm32_gpio_t\000"
 22241      325F6770 
 22241      696F5F74 
 22241      00
 22242              	.LASF309:
 22243 0e49 7264796D 		.ascii	"rdymsg\000"
 22243      736700
 22244              	.LASF43:
 22245 0e50 5F666E61 		.ascii	"_fnargs\000"
 22245      72677300 
 22246              	.LASF501:
 22247 0e58 50574D5F 		.ascii	"PWM_READY\000"
ARM GAS  /tmp/ccpnbTSa.s 			page 404


 22247      52454144 
 22247      5900
 22248              	.LASF457:
 22249 0e62 6E756D5F 		.ascii	"num_channels\000"
 22249      6368616E 
 22249      6E656C73 
 22249      00
 22250              	.LASF370:
 22251 0e6f 70697065 		.ascii	"pipe_list\000"
 22251      5F6C6973 
 22251      7400
 22252              	.LASF723:
 22253 0e79 55534249 		.ascii	"USBInEndpointState\000"
 22253      6E456E64 
 22253      706F696E 
 22253      74537461 
 22253      746500
 22254              	.LASF531:
 22255 0e8c 6F717565 		.ascii	"oqueue\000"
 22255      756500
 22256              	.LASF757:
 22257 0e93 46534D43 		.ascii	"FSMC_READY\000"
 22257      5F524541 
 22257      445900
 22258              	.LASF408:
 22259 0e9e 696F5F71 		.ascii	"io_queue\000"
 22259      75657565 
 22259      00
 22260              	.LASF15:
 22261 0ea7 5F5F7569 		.ascii	"__uint64_t\000"
 22261      6E743634 
 22261      5F7400
 22262              	.LASF326:
 22263 0eb2 6F66665F 		.ascii	"off_prio\000"
 22263      7072696F 
 22263      00
 22264              	.LASF814:
 22265 0ebb 7573625F 		.ascii	"usb_lld_stall_in\000"
 22265      6C6C645F 
 22265      7374616C 
 22265      6C5F696E 
 22265      00
 22266              	.LASF361:
 22267 0ecc 64796E5F 		.ascii	"dyn_list_t\000"
 22267      6C697374 
 22267      5F7400
 22268              	.LASF27:
 22269 0ed7 5F6E6578 		.ascii	"_next\000"
 22269      7400
 22270              	.LASF508:
 22271 0edd 70776D63 		.ascii	"pwmcallback_t\000"
 22271      616C6C62 
 22271      61636B5F 
 22271      7400
 22272              	.LASF228:
 22273 0eeb 48545232 		.ascii	"HTR2\000"
 22273      00
ARM GAS  /tmp/ccpnbTSa.s 			page 405


 22274              	.LASF248:
 22275 0ef0 42444D41 		.ascii	"BDMA_TypeDef\000"
 22275      5F547970 
 22275      65446566 
 22275      00
 22276              	.LASF80:
 22277 0efd 5F736967 		.ascii	"_signal_buf\000"
 22277      6E616C5F 
 22277      62756600 
 22278              	.LASF792:
 22279 0f09 6765745F 		.ascii	"get_hword\000"
 22279      68776F72 
 22279      6400
 22280              	.LASF242:
 22281 0f13 434E4454 		.ascii	"CNDTR\000"
 22281      5200
 22282              	.LASF82:
 22283 0f19 5F636F6F 		.ascii	"_cookie\000"
 22283      6B696500 
 22284              	.LASF463:
 22285 0f21 6C747231 		.ascii	"ltr1\000"
 22285      00
 22286              	.LASF465:
 22287 0f26 6C747232 		.ascii	"ltr2\000"
 22287      00
 22288              	.LASF467:
 22289 0f2b 6C747233 		.ascii	"ltr3\000"
 22289      00
 22290              	.LASF624:
 22291 0f30 75736265 		.ascii	"usbep0state_t\000"
 22291      70307374 
 22291      6174655F 
 22291      7400
 22292              	.LASF470:
 22293 0f3e 61646373 		.ascii	"adcsample_t\000"
 22293      616D706C 
 22293      655F7400 
 22294              	.LASF548:
 22295 0f4a 53444344 		.ascii	"SDCDriver\000"
 22295      72697665 
 22295      7200
 22296              	.LASF411:
 22297 0f54 715F6275 		.ascii	"q_buffer\000"
 22297      66666572 
 22297      00
 22298              	.LASF554:
 22299 0f5d 53444343 		.ascii	"SDCConfig\000"
 22299      6F6E6669 
 22299      6700
 22300              	.LASF498:
 22301 0f67 49324344 		.ascii	"I2CD1\000"
 22301      3100
 22302              	.LASF294:
 22303 0f6d 706F7274 		.ascii	"port_context\000"
 22303      5F636F6E 
 22303      74657874 
 22303      00
ARM GAS  /tmp/ccpnbTSa.s 			page 406


 22304              	.LASF255:
 22305 0f7a 52584452 		.ascii	"RXDR\000"
 22305      00
 22306              	.LASF786:
 22307 0f7f 65706370 		.ascii	"epcp\000"
 22307      00
 22308              	.LASF590:
 22309 0f84 55534244 		.ascii	"USBDriver\000"
 22309      72697665 
 22309      7200
 22310              	.LASF710:
 22311 0f8e 72657376 		.ascii	"resvd8C0\000"
 22311      64384330 
 22311      00
 22312              	.LASF743:
 22313 0f97 55534243 		.ascii	"USBConfig\000"
 22313      6F6E6669 
 22313      6700
 22314              	.LASF653:
 22315 0fa1 72657376 		.ascii	"resvdC\000"
 22315      644300
 22316              	.LASF519:
 22317 0fa8 50574D44 		.ascii	"PWMD1\000"
 22317      3100
 22318              	.LASF381:
 22319 0fae 6368616E 		.ascii	"channel\000"
 22319      6E656C00 
 22320              	.LASF521:
 22321 0fb6 50574D44 		.ascii	"PWMD4\000"
 22321      3400
 22322              	.LASF522:
 22323 0fbc 50574D44 		.ascii	"PWMD5\000"
 22323      3500
 22324              	.LASF282:
 22325 0fc2 54584352 		.ascii	"TXCRC\000"
 22325      4300
 22326              	.LASF523:
 22327 0fc8 50574D44 		.ascii	"PWMD8\000"
 22327      3800
 22328              	.LASF773:
 22329 0fce 5F757362 		.ascii	"_usb_ep0setup\000"
 22329      5F657030 
 22329      73657475 
 22329      7000
 22330              	.LASF380:
 22331 0fdc 62646D61 		.ascii	"bdma\000"
 22331      00
 22332              	.LASF202:
 22333 0fe1 48545231 		.ascii	"HTR1\000"
 22333      00
 22334              	.LASF138:
 22335 0fe6 74726566 		.ascii	"trefs_t\000"
 22335      735F7400 
 22336              	.LASF230:
 22337 0fee 48545233 		.ascii	"HTR3\000"
 22337      00
 22338              	.LASF257:
ARM GAS  /tmp/ccpnbTSa.s 			page 407


 22339 0ff3 4932435F 		.ascii	"I2C_TypeDef\000"
 22339      54797065 
 22339      44656600 
 22340              	.LASF191:
 22341 0fff 74696D65 		.ascii	"time_conv_t\000"
 22341      5F636F6E 
 22341      765F7400 
 22342              	.LASF33:
 22343 100b 5F5F746D 		.ascii	"__tm_sec\000"
 22343      5F736563 
 22343      00
 22344              	.LASF736:
 22345 1014 696E5F6D 		.ascii	"in_multiplier\000"
 22345      756C7469 
 22345      706C6965 
 22345      7200
 22346              	.LASF436:
 22347 1022 4144435F 		.ascii	"ADC_ERROR\000"
 22347      4552524F 
 22347      5200
 22348              	.LASF42:
 22349 102c 5F6F6E5F 		.ascii	"_on_exit_args\000"
 22349      65786974 
 22349      5F617267 
 22349      7300
 22350              	.LASF763:
 22351 103a 73647261 		.ascii	"sdramstate_t\000"
 22351      6D737461 
 22351      74655F74 
 22351      00
 22352              	.LASF136:
 22353 1047 746D6F64 		.ascii	"tmode_t\000"
 22353      655F7400 
 22354              	.LASF434:
 22355 104f 4144435F 		.ascii	"ADC_ACTIVE\000"
 22355      41435449 
 22355      564500
 22356              	.LASF205:
 22357 105a 53515231 		.ascii	"SQR1\000"
 22357      00
 22358              	.LASF206:
 22359 105f 53515232 		.ascii	"SQR2\000"
 22359      00
 22360              	.LASF207:
 22361 1064 53515233 		.ascii	"SQR3\000"
 22361      00
 22362              	.LASF208:
 22363 1069 53515234 		.ascii	"SQR4\000"
 22363      00
 22364              	.LASF425:
 22365 106e 42535252 		.ascii	"BSRR\000"
 22365      00
 22366              	.LASF378:
 22367 1073 73746D33 		.ascii	"stm32_dma_stream_t\000"
 22367      325F646D 
 22367      615F7374 
 22367      7265616D 
ARM GAS  /tmp/ccpnbTSa.s 			page 408


 22367      5F7400
 22368              	.LASF741:
 22369 1086 72657175 		.ascii	"requests_hook_cb\000"
 22369      65737473 
 22369      5F686F6F 
 22369      6B5F6362 
 22369      00
 22370              	.LASF119:
 22371 1097 5F776372 		.ascii	"_wcrtomb_state\000"
 22371      746F6D62 
 22371      5F737461 
 22371      746500
 22372              	.LASF544:
 22373 10a6 5344435F 		.ascii	"SDC_MODE_8BIT\000"
 22373      4D4F4445 
 22373      5F384249 
 22373      5400
 22374              	.LASF213:
 22375 10b4 4F465231 		.ascii	"OFR1\000"
 22375      00
 22376              	.LASF214:
 22377 10b9 4F465232 		.ascii	"OFR2\000"
 22377      00
 22378              	.LASF215:
 22379 10be 4F465233 		.ascii	"OFR3\000"
 22379      00
 22380              	.LASF216:
 22381 10c3 4F465234 		.ascii	"OFR4\000"
 22381      00
 22382              	.LASF719:
 22383 10c8 74787369 		.ascii	"txsize\000"
 22383      7A6500
 22384              	.LASF768:
 22385 10cf 68616C74 		.ascii	"halted_status\000"
 22385      65645F73 
 22385      74617475 
 22385      7300
 22386              	.LASF745:
 22387 10dd 53444352 		.ascii	"SDCR1\000"
 22387      3100
 22388              	.LASF746:
 22389 10e3 53444352 		.ascii	"SDCR2\000"
 22389      3200
 22390              	.LASF455:
 22391 10e9 68616C5F 		.ascii	"hal_adc_configuration_group\000"
 22391      6164635F 
 22391      636F6E66 
 22391      69677572 
 22391      6174696F 
 22392              	.LASF504:
 22393 1105 70657269 		.ascii	"period\000"
 22393      6F6400
 22394              	.LASF462:
 22395 110c 70637365 		.ascii	"pcsel\000"
 22395      6C00
 22396              	.LASF487:
 22397 1112 4932435F 		.ascii	"I2C_LOCKED\000"
ARM GAS  /tmp/ccpnbTSa.s 			page 409


 22397      4C4F434B 
 22397      454400
 22398              	.LASF426:
 22399 111d 4C4F434B 		.ascii	"LOCKR\000"
 22399      5200
 22400              	.LASF609:
 22401 1123 5553425F 		.ascii	"USB_READY\000"
 22401      52454144 
 22401      5900
 22402              	.LASF541:
 22403 112d 72656164 		.ascii	"readt\000"
 22403      7400
 22404              	.LASF151:
 22405 1133 6E616D65 		.ascii	"name\000"
 22405      00
 22406              	.LASF236:
 22407 1138 43445232 		.ascii	"CDR2\000"
 22407      00
 22408              	.LASF24:
 22409 113d 5F5F554C 		.ascii	"__ULong\000"
 22409      6F6E6700 
 22410              	.LASF182:
 22411 1145 70616E69 		.ascii	"panic_msg\000"
 22411      635F6D73 
 22411      6700
 22412              	.LASF567:
 22413 114f 5350495F 		.ascii	"SPI_COMPLETE\000"
 22413      434F4D50 
 22413      4C455445 
 22413      00
 22414              	.LASF265:
 22415 115c 4454494D 		.ascii	"DTIMER\000"
 22415      455200
 22416              	.LASF631:
 22417 1163 5553425F 		.ascii	"USB_EVENT_STALLED\000"
 22417      4556454E 
 22417      545F5354 
 22417      414C4C45 
 22417      4400
 22418              	.LASF337:
 22419 1175 63686465 		.ascii	"chdebug_t\000"
 22419      6275675F 
 22419      7400
 22420              	.LASF808:
 22421 117f 706F7274 		.ascii	"port_lock_from_isr\000"
 22421      5F6C6F63 
 22421      6B5F6672 
 22421      6F6D5F69 
 22421      737200
 22422              	.LASF724:
 22423 1192 72787369 		.ascii	"rxsize\000"
 22423      7A6500
 22424              	.LASF464:
 22425 1199 68747231 		.ascii	"htr1\000"
 22425      00
 22426              	.LASF466:
 22427 119e 68747232 		.ascii	"htr2\000"
ARM GAS  /tmp/ccpnbTSa.s 			page 410


 22427      00
 22428              	.LASF468:
 22429 11a3 68747233 		.ascii	"htr3\000"
 22429      00
 22430              	.LASF279:
 22431 11a8 43464731 		.ascii	"CFG1\000"
 22431      00
 22432              	.LASF280:
 22433 11ad 43464732 		.ascii	"CFG2\000"
 22433      00
 22434              	.LASF627:
 22435 11b2 5553425F 		.ascii	"USB_EVENT_CONFIGURED\000"
 22435      4556454E 
 22435      545F434F 
 22435      4E464947 
 22435      55524544 
 22436              	.LASF559:
 22437 11c7 64697363 		.ascii	"disconnect\000"
 22437      6F6E6E65 
 22437      637400
 22438              	.LASF289:
 22439 11d2 50524553 		.ascii	"PRESC\000"
 22439      4300
 22440              	.LASF538:
 22441 11d8 70757474 		.ascii	"putt\000"
 22441      00
 22442              	.LASF110:
 22443 11dd 5F737472 		.ascii	"_strtok_last\000"
 22443      746F6B5F 
 22443      6C617374 
 22443      00
 22444              	.LASF645:
 22445 11ea 48435453 		.ascii	"HCTSIZ\000"
 22445      495A00
 22446              	.LASF824:
 22447 11f1 7573625F 		.ascii	"usb_lld_reset\000"
 22447      6C6C645F 
 22447      72657365 
 22447      7400
 22448              	.LASF196:
 22449 11ff 43464752 		.ascii	"CFGR\000"
 22449      00
 22450              	.LASF520:
 22451 1204 50574D44 		.ascii	"PWMD3\000"
 22451      3300
 22452              	.LASF346:
 22453 120a 6576656E 		.ascii	"event_source_t\000"
 22453      745F736F 
 22453      75726365 
 22453      5F7400
 22454              	.LASF680:
 22455 1219 72657376 		.ascii	"resvd140\000"
 22455      64313430 
 22455      00
 22456              	.LASF820:
 22457 1222 7573625F 		.ascii	"usb_lld_get_status_in\000"
 22457      6C6C645F 
ARM GAS  /tmp/ccpnbTSa.s 			page 411


 22457      6765745F 
 22457      73746174 
 22457      75735F69 
 22458              	.LASF100:
 22459 1238 5F736565 		.ascii	"_seed\000"
 22459      6400
 22460              	.LASF85:
 22461 123e 5F736565 		.ascii	"_seek\000"
 22461      6B00
 22462              	.LASF629:
 22463 1244 5553425F 		.ascii	"USB_EVENT_SUSPEND\000"
 22463      4556454E 
 22463      545F5355 
 22463      5350454E 
 22463      4400
 22464              	.LASF474:
 22465 1256 4144435F 		.ascii	"ADC_ERR_AWD1\000"
 22465      4552525F 
 22465      41574431 
 22465      00
 22466              	.LASF475:
 22467 1263 4144435F 		.ascii	"ADC_ERR_AWD2\000"
 22467      4552525F 
 22467      41574432 
 22467      00
 22468              	.LASF476:
 22469 1270 4144435F 		.ascii	"ADC_ERR_AWD3\000"
 22469      4552525F 
 22469      41574433 
 22469      00
 22470              	.LASF233:
 22471 127d 43414C46 		.ascii	"CALFACT2\000"
 22471      41435432 
 22471      00
 22472              	.LASF234:
 22473 1286 4144435F 		.ascii	"ADC_TypeDef\000"
 22473      54797065 
 22473      44656600 
 22474              	.LASF658:
 22475 1292 444F4550 		.ascii	"DOEPCTL\000"
 22475      43544C00 
 22476              	.LASF10:
 22477 129a 73686F72 		.ascii	"short unsigned int\000"
 22477      7420756E 
 22477      7369676E 
 22477      65642069 
 22477      6E7400
 22478              	.LASF5:
 22479 12ad 7369676E 		.ascii	"signed char\000"
 22479      65642063 
 22479      68617200 
 22480              	.LASF550:
 22481 12b9 63617264 		.ascii	"cardmode\000"
 22481      6D6F6465 
 22481      00
 22482              	.LASF144:
 22483 12c2 75636E74 		.ascii	"ucnt_t\000"
ARM GAS  /tmp/ccpnbTSa.s 			page 412


 22483      5F7400
 22484              	.LASF432:
 22485 12c9 4144435F 		.ascii	"ADC_STOP\000"
 22485      53544F50 
 22485      00
 22486              	.LASF755:
 22487 12d2 46534D43 		.ascii	"FSMC_UNINIT\000"
 22487      5F554E49 
 22487      4E495400 
 22488              	.LASF171:
 22489 12de 63757272 		.ascii	"current\000"
 22489      656E7400 
 22490              	.LASF756:
 22491 12e6 46534D43 		.ascii	"FSMC_STOP\000"
 22491      5F53544F 
 22491      5000
 22492              	.LASF509:
 22493 12f0 70776D6D 		.ascii	"pwmmode_t\000"
 22493      6F64655F 
 22493      7400
 22494              	.LASF600:
 22495 12fa 73746174 		.ascii	"status\000"
 22495      757300
 22496              	.LASF336:
 22497 1301 6F66665F 		.ascii	"off_time\000"
 22497      74696D65 
 22497      00
 22498              	.LASF266:
 22499 130a 444C454E 		.ascii	"DLEN\000"
 22499      00
 22500              	.LASF543:
 22501 130f 5344435F 		.ascii	"SDC_MODE_4BIT\000"
 22501      4D4F4445 
 22501      5F344249 
 22501      5400
 22502              	.LASF327:
 22503 131d 6F66665F 		.ascii	"off_ctx\000"
 22503      63747800 
 22504              	.LASF749:
 22505 1325 5344434D 		.ascii	"SDCMR\000"
 22505      5200
 22506              	.LASF179:
 22507 132b 6C617374 		.ascii	"lasttime\000"
 22507      74696D65 
 22507      00
 22508              	.LASF108:
 22509 1334 5F667265 		.ascii	"_freelist\000"
 22509      656C6973 
 22509      7400
 22510              	.LASF601:
 22511 133e 61646472 		.ascii	"address\000"
 22511      65737300 
 22512              	.LASF469:
 22513 1346 736D7072 		.ascii	"smpr\000"
 22513      00
 22514              	.LASF157:
 22515 134b 6D736771 		.ascii	"msgqueue\000"
ARM GAS  /tmp/ccpnbTSa.s 			page 413


 22515      75657565 
 22515      00
 22516              	.LASF334:
 22517 1354 6F66665F 		.ascii	"off_refs\000"
 22517      72656673 
 22517      00
 22518              	.LASF834:
 22519 135d 2E2E2F2E 		.ascii	"../../../external/ChibiOS/os/hal/src/hal_usb.c\000"
 22519      2E2F2E2E 
 22519      2F657874 
 22519      65726E61 
 22519      6C2F4368 
 22520              	.LASF90:
 22521 138c 5F6F6666 		.ascii	"_offset\000"
 22521      73657400 
 22522              	.LASF575:
 22523 1394 63666731 		.ascii	"cfg1\000"
 22523      00
 22524              	.LASF193:
 22525 1399 53797374 		.ascii	"SystemCoreClock\000"
 22525      656D436F 
 22525      7265436C 
 22525      6F636B00 
 22526              	.LASF481:
 22527 13a9 61646365 		.ascii	"adcerrorcallback_t\000"
 22527      72726F72 
 22527      63616C6C 
 22527      6261636B 
 22527      5F7400
 22528              	.LASF789:
 22529 13bc 7573624F 		.ascii	"usbObjectInit\000"
 22529      626A6563 
 22529      74496E69 
 22529      7400
 22530              	.LASF153:
 22531 13ca 73746174 		.ascii	"state\000"
 22531      6500
 22532              	.LASF51:
 22533 13d0 5F5F7362 		.ascii	"__sbuf\000"
 22533      756600
 22534              	.LASF114:
 22535 13d7 5F6C3634 		.ascii	"_l64a_buf\000"
 22535      615F6275 
 22535      6600
 22536              	.LASF832:
 22537 13e1 7573625F 		.ascii	"usb_lld_init\000"
 22537      6C6C645F 
 22537      696E6974 
 22537      00
 22538              	.LASF102:
 22539 13ee 5F616464 		.ascii	"_add\000"
 22539      00
 22540              	.LASF460:
 22541 13f3 63666772 		.ascii	"cfgr\000"
 22541      00
 22542              	.LASF390:
 22543 13f8 444D4152 		.ascii	"DMAR\000"
ARM GAS  /tmp/ccpnbTSa.s 			page 414


 22543      00
 22544              	.LASF514:
 22545 13fd 63616C6C 		.ascii	"callback\000"
 22545      6261636B 
 22545      00
 22546              	.LASF185:
 22547 1406 63685F73 		.ascii	"ch_system\000"
 22547      79737465 
 22547      6D00
 22548              	.LASF258:
 22549 1410 504F5745 		.ascii	"POWER\000"
 22549      5200
 22550              	.LASF152:
 22551 1416 77616261 		.ascii	"wabase\000"
 22551      736500
 22552              	.LASF75:
 22553 141d 5F617363 		.ascii	"_asctime_buf\000"
 22553      74696D65 
 22553      5F627566 
 22553      00
 22554              	.LASF176:
 22555 142a 66756E63 		.ascii	"func\000"
 22555      00
 22556              	.LASF781:
 22557 142f 75736252 		.ascii	"usbReceive\000"
 22557      65636569 
 22557      766500
 22558              	.LASF19:
 22559 143a 5F5F7763 		.ascii	"__wch\000"
 22559      6800
 22560              	.LASF297:
 22561 1440 68616C74 		.ascii	"halt\000"
 22561      00
 22562              	.LASF316:
 22563 1445 63685F73 		.ascii	"ch_semaphore\000"
 22563      656D6170 
 22563      686F7265 
 22563      00
 22564              	.LASF120:
 22565 1452 5F776373 		.ascii	"_wcsrtombs_state\000"
 22565      72746F6D 
 22565      62735F73 
 22565      74617465 
 22565      00
 22566              	.LASF394:
 22567 1463 424C4B5F 		.ascii	"BLK_UNINIT\000"
 22567      554E494E 
 22567      495400
 22568              	.LASF333:
 22569 146e 6F66665F 		.ascii	"off_flags\000"
 22569      666C6167 
 22569      7300
 22570              	.LASF359:
 22571 1478 64796E5F 		.ascii	"dyn_element_t\000"
 22571      656C656D 
 22571      656E745F 
 22571      7400
ARM GAS  /tmp/ccpnbTSa.s 			page 415


 22572              	.LASF654:
 22573 1486 44494550 		.ascii	"DIEPTSIZ\000"
 22573      5453495A 
 22573      00
 22574              	.LASF753:
 22575 148f 46534D43 		.ascii	"FSMCDriver\000"
 22575      44726976 
 22575      657200
 22576              	.LASF161:
 22577 149a 6D706F6F 		.ascii	"mpool\000"
 22577      6C00
 22578              	.LASF809:
 22579 14a0 706F7274 		.ascii	"port_unlock\000"
 22579      5F756E6C 
 22579      6F636B00 
 22580              	.LASF761:
 22581 14ac 53445241 		.ascii	"SDRAM_STOP\000"
 22581      4D5F5354 
 22581      4F5000
 22582              	.LASF166:
 22583 14b7 74687265 		.ascii	"threads_queue_t\000"
 22583      6164735F 
 22583      71756575 
 22583      655F7400 
 22584              	.LASF403:
 22585 14c7 626C6B73 		.ascii	"blkstate_t\000"
 22585      74617465 
 22585      5F7400
 22586              	.LASF301:
 22587 14d2 74696D65 		.ascii	"time\000"
 22587      00
 22588              	.LASF806:
 22589 14d7 63685379 		.ascii	"chSysLock\000"
 22589      734C6F63 
 22589      6B00
 22590              	.LASF291:
 22591 14e1 524E475F 		.ascii	"RNG_TypeDef\000"
 22591      54797065 
 22591      44656600 
 22592              	.LASF290:
 22593 14ed 55534152 		.ascii	"USART_TypeDef\000"
 22593      545F5479 
 22593      70654465 
 22593      6600
 22594              	.LASF728:
 22595 14fb 65705F6D 		.ascii	"ep_mode\000"
 22595      6F646500 
 22596              	.LASF510:
 22597 1503 70776D63 		.ascii	"pwmchannel_t\000"
 22597      68616E6E 
 22597      656C5F74 
 22597      00
 22598              	.LASF12:
 22599 1510 6C6F6E67 		.ascii	"long int\000"
 22599      20696E74 
 22599      00
 22600              	.LASF188:
ARM GAS  /tmp/ccpnbTSa.s 			page 416


 22601 1519 6D61696E 		.ascii	"mainthread\000"
 22601      74687265 
 22601      616400
 22602              	.LASF237:
 22603 1524 4144435F 		.ascii	"ADC_Common_TypeDef\000"
 22603      436F6D6D 
 22603      6F6E5F54 
 22603      79706544 
 22603      656600
 22604              	.LASF597:
 22605 1537 6570306E 		.ascii	"ep0n\000"
 22605      00
 22606              	.LASF713:
 22607 153c 72657376 		.ascii	"resvdE04\000"
 22607      64453034 
 22607      00
 22608              	.LASF112:
 22609 1545 5F776374 		.ascii	"_wctomb_state\000"
 22609      6F6D625F 
 22609      73746174 
 22609      6500
 22610              	.LASF410:
 22611 1553 715F636F 		.ascii	"q_counter\000"
 22611      756E7465 
 22611      7200
 22612              	.LASF430:
 22613 155d 696F706F 		.ascii	"ioportid_t\000"
 22613      72746964 
 22613      5F7400
 22614              	.LASF479:
 22615 1568 41444344 		.ascii	"ADCD1\000"
 22615      3100
 22616              	.LASF681:
 22617 156e 48434647 		.ascii	"HCFG\000"
 22617      00
 22618              	.LASF249:
 22619 1573 444D414D 		.ascii	"DMAMUX_Channel_TypeDef\000"
 22619      55585F43 
 22619      68616E6E 
 22619      656C5F54 
 22619      79706544 
 22620              	.LASF449:
 22621 158a 646D616D 		.ascii	"dmamode\000"
 22621      6F646500 
 22622              	.LASF576:
 22623 1592 63666732 		.ascii	"cfg2\000"
 22623      00
 22624              	.LASF98:
 22625 1597 5F696F62 		.ascii	"_iobs\000"
 22625      7300
 22626              	.LASF65:
 22627 159d 5F656D65 		.ascii	"_emergency\000"
 22627      7267656E 
 22627      637900
 22628              	.LASF539:
 22629 15a8 67657474 		.ascii	"gett\000"
 22629      00
ARM GAS  /tmp/ccpnbTSa.s 			page 417


 22630              	.LASF277:
 22631 15ad 49505652 		.ascii	"IPVR\000"
 22631      00
 22632              	.LASF254:
 22633 15b2 50454352 		.ascii	"PECR\000"
 22633      00
 22634              	.LASF311:
 22635 15b7 77747472 		.ascii	"wttrp\000"
 22635      7000
 22636              	.LASF414:
 22637 15bd 715F7264 		.ascii	"q_rdptr\000"
 22637      70747200 
 22638              	.LASF663:
 22639 15c5 474F5447 		.ascii	"GOTGINT\000"
 22639      494E5400 
 22640              	.LASF536:
 22641 15cd 77726974 		.ascii	"write\000"
 22641      6500
 22642              	.LASF103:
 22643 15d3 5F72616E 		.ascii	"_rand_next\000"
 22643      645F6E65 
 22643      787400
 22644              	.LASF530:
 22645 15de 69717565 		.ascii	"iqueue\000"
 22645      756500
 22646              	.LASF584:
 22647 15e5 74726E67 		.ascii	"trngstate_t\000"
 22647      73746174 
 22647      655F7400 
 22648              	.LASF232:
 22649 15f1 43414C46 		.ascii	"CALFACT\000"
 22649      41435400 
 22650              	.LASF659:
 22651 15f9 444F4550 		.ascii	"DOEPINT\000"
 22651      494E5400 
 22652              	.LASF365:
 22653 1601 6275665F 		.ascii	"buf_list\000"
 22653      6C697374 
 22653      00
 22654              	.LASF132:
 22655 160a 75696E74 		.ascii	"uint32_t\000"
 22655      33325F74 
 22655      00
 22656              	.LASF777:
 22657 1613 75736257 		.ascii	"usbWakeupHost\000"
 22657      616B6575 
 22657      70486F73 
 22657      7400
 22658              	.LASF589:
 22659 1621 54524E47 		.ascii	"TRNGD1\000"
 22659      443100
 22660              	.LASF331:
 22661 1628 6F66665F 		.ascii	"off_stklimit\000"
 22661      73746B6C 
 22661      696D6974 
 22661      00
 22662              	.LASF28:
ARM GAS  /tmp/ccpnbTSa.s 			page 418


 22663 1635 5F6D6178 		.ascii	"_maxwds\000"
 22663      77647300 
 22664              	.LASF401:
 22665 163d 424C4B5F 		.ascii	"BLK_WRITING\000"
 22665      57524954 
 22665      494E4700 
 22666              	.LASF800:
 22667 1649 6F73616C 		.ascii	"osalSysLockFromISR\000"
 22667      5379734C 
 22667      6F636B46 
 22667      726F6D49 
 22667      535200
 22668              	.LASF382:
 22669 165c 73746D33 		.ascii	"stm32_bdma_stream_t\000"
 22669      325F6264 
 22669      6D615F73 
 22669      74726561 
 22669      6D5F7400 
 22670              	.LASF810:
 22671 1670 706F7274 		.ascii	"port_lock\000"
 22671      5F6C6F63 
 22671      6B00
 22672              	.LASF2:
 22673 167a 6C6F6E67 		.ascii	"long double\000"
 22673      20646F75 
 22673      626C6500 
 22674              	.LASF335:
 22675 1686 6F66665F 		.ascii	"off_preempt\000"
 22675      70726565 
 22675      6D707400 
 22676              	.LASF141:
 22677 1692 6576656E 		.ascii	"eventmask_t\000"
 22677      746D6173 
 22677      6B5F7400 
 22678              	.LASF442:
 22679 169e 64657074 		.ascii	"depth\000"
 22679      6800
 22680              	.LASF764:
 22681 16a4 53445241 		.ascii	"SDRAMDriver\000"
 22681      4D447269 
 22681      76657200 
 22682              	.LASF610:
 22683 16b0 5553425F 		.ascii	"USB_SELECTED\000"
 22683      53454C45 
 22683      43544544 
 22683      00
 22684              	.LASF829:
 22685 16bd 63685363 		.ascii	"chSchRescheduleS\000"
 22685      68526573 
 22685      63686564 
 22685      756C6553 
 22685      00
 22686              	.LASF14:
 22687 16ce 6C6F6E67 		.ascii	"long unsigned int\000"
 22687      20756E73 
 22687      69676E65 
 22687      6420696E 
ARM GAS  /tmp/ccpnbTSa.s 			page 419


 22687      7400
 22688              	.LASF494:
 22689 16e0 74786279 		.ascii	"txbytes\000"
 22689      74657300 
 22690              	.LASF349:
 22691 16e8 62617365 		.ascii	"basemem\000"
 22691      6D656D00 
 22692              	.LASF296:
 22693 16f0 72656173 		.ascii	"reason\000"
 22693      6F6E00
 22694              	.LASF626:
 22695 16f7 5553425F 		.ascii	"USB_EVENT_ADDRESS\000"
 22695      4556454E 
 22695      545F4144 
 22695      44524553 
 22695      5300
 22696              	.LASF260:
 22697 1709 52455350 		.ascii	"RESPCMD\000"
 22697      434D4400 
 22698              	.LASF562:
 22699 1711 53444344 		.ascii	"SDCD1\000"
 22699      3100
 22700              	.LASF329:
 22701 1717 6F66665F 		.ascii	"off_older\000"
 22701      6F6C6465 
 22701      7200
 22702              	.LASF632:
 22703 1721 75736265 		.ascii	"usbevent_t\000"
 22703      76656E74 
 22703      5F7400
 22704              	.LASF86:
 22705 172c 5F636C6F 		.ascii	"_close\000"
 22705      736500
 22706              	.LASF94:
 22707 1733 63686172 		.ascii	"char\000"
 22707      00
 22708              	.LASF96:
 22709 1738 5F676C75 		.ascii	"_glue\000"
 22709      6500
 22710              	.LASF635:
 22711 173e 55534244 		.ascii	"USBDescriptor\000"
 22711      65736372 
 22711      6970746F 
 22711      7200
 22712              	.LASF803:
 22713 174c 63685379 		.ascii	"chSysUnlockFromISR\000"
 22713      73556E6C 
 22713      6F636B46 
 22713      726F6D49 
 22713      535200
 22714              	.LASF505:
 22715 175f 656E6162 		.ascii	"enabled\000"
 22715      6C656400 
 22716              	.LASF671:
 22717 1767 47525846 		.ascii	"GRXFSIZ\000"
 22717      53495A00 
 22718              	.LASF560:
ARM GAS  /tmp/ccpnbTSa.s 			page 420


 22719 176f 73796E63 		.ascii	"sync\000"
 22719      00
 22720              	.LASF532:
 22721 1774 75736172 		.ascii	"usart\000"
 22721      7400
 22722              	.LASF546:
 22723 177a 7364636D 		.ascii	"sdcmode_t\000"
 22723      6F64655F 
 22723      7400
 22724              	.LASF416:
 22725 1784 715F6C69 		.ascii	"q_link\000"
 22725      6E6B00
 22726              	.LASF383:
 22727 178b 5F73746D 		.ascii	"_stm32_bdma_streams\000"
 22727      33325F62 
 22727      646D615F 
 22727      73747265 
 22727      616D7300 
 22728              	.LASF791:
 22729 179f 64656661 		.ascii	"default_handler\000"
 22729      756C745F 
 22729      68616E64 
 22729      6C657200 
 22730              	.LASF692:
 22731 17af 44434647 		.ascii	"DCFG\000"
 22731      00
 22732              	.LASF31:
 22733 17b4 5F426967 		.ascii	"_Bigint\000"
 22733      696E7400 
 22734              	.LASF109:
 22735 17bc 5F6D6973 		.ascii	"_misc_reent\000"
 22735      635F7265 
 22735      656E7400 
 22736              	.LASF668:
 22737 17c8 47494E54 		.ascii	"GINTMSK\000"
 22737      4D534B00 
 22738              	.LASF673:
 22739 17d0 484E5054 		.ascii	"HNPTXSTS\000"
 22739      58535453 
 22739      00
 22740              	.LASF602:
 22741 17d9 636F6E66 		.ascii	"configuration\000"
 22741      69677572 
 22741      6174696F 
 22741      6E00
 22742              	.LASF621:
 22743 17e7 5553425F 		.ascii	"USB_EP0_OUT_WAITING_STS\000"
 22743      4550305F 
 22743      4F55545F 
 22743      57414954 
 22743      494E475F 
 22744              	.LASF355:
 22745 17ff 616C6967 		.ascii	"align\000"
 22745      6E00
 22746              	.LASF244:
 22747 1805 434D3041 		.ascii	"CM0AR\000"
 22747      5200
ARM GAS  /tmp/ccpnbTSa.s 			page 421


 22748              	.LASF782:
 22749 180b 75736253 		.ascii	"usbStartTransmitI\000"
 22749      74617274 
 22749      5472616E 
 22749      736D6974 
 22749      4900
 22750              	.LASF379:
 22751 181d 5F73746D 		.ascii	"_stm32_dma_streams\000"
 22751      33325F64 
 22751      6D615F73 
 22751      74726561 
 22751      6D7300
 22752              	.LASF305:
 22753 1830 62756666 		.ascii	"buffer\000"
 22753      657200
 22754              	.LASF115:
 22755 1837 5F676574 		.ascii	"_getdate_err\000"
 22755      64617465 
 22755      5F657272 
 22755      00
 22756              	.LASF545:
 22757 1844 73646362 		.ascii	"sdcbusmode_t\000"
 22757      75736D6F 
 22757      64655F74 
 22757      00
 22758              	.LASF655:
 22759 1851 44545846 		.ascii	"DTXFSTS\000"
 22759      53545300 
 22760              	.LASF480:
 22761 1859 61646363 		.ascii	"adccallback_t\000"
 22761      616C6C62 
 22761      61636B5F 
 22761      7400
 22762              	.LASF143:
 22763 1867 636E745F 		.ascii	"cnt_t\000"
 22763      7400
 22764              	.LASF596:
 22765 186d 6570306E 		.ascii	"ep0next\000"
 22765      65787400 
 22766              	.LASF533:
 22767 1875 72786D61 		.ascii	"rxmask\000"
 22767      736B00
 22768              	.LASF649:
 22769 187c 73746D33 		.ascii	"stm32_otg_host_chn_t\000"
 22769      325F6F74 
 22769      675F686F 
 22769      73745F63 
 22769      686E5F74 
 22770              	.LASF617:
 22771 1891 5553425F 		.ascii	"USB_EP0_STP_WAITING\000"
 22771      4550305F 
 22771      5354505F 
 22771      57414954 
 22771      494E4700 
 22772              	.LASF802:
 22773 18a5 6F73616C 		.ascii	"osalSysLock\000"
 22773      5379734C 
ARM GAS  /tmp/ccpnbTSa.s 			page 422


 22773      6F636B00 
 22774              	.LASF428:
 22775 18b1 41465248 		.ascii	"AFRH\000"
 22775      00
 22776              	.LASF427:
 22777 18b6 4146524C 		.ascii	"AFRL\000"
 22777      00
 22778              	.LASF332:
 22779 18bb 6F66665F 		.ascii	"off_state\000"
 22779      73746174 
 22779      6500
 22780              	.LASF183:
 22781 18c5 74726163 		.ascii	"trace_buffer\000"
 22781      655F6275 
 22781      66666572 
 22781      00
 22782              	.LASF281:
 22783 18d2 43524350 		.ascii	"CRCPOLY\000"
 22783      4F4C5900 
 22784              	.LASF126:
 22785 18da 5F696D70 		.ascii	"_impure_ptr\000"
 22785      7572655F 
 22785      70747200 
 22786              	.LASF89:
 22787 18e6 5F626C6B 		.ascii	"_blksize\000"
 22787      73697A65 
 22787      00
 22788              	.LASF644:
 22789 18ef 4843494E 		.ascii	"HCINTMSK\000"
 22789      544D534B 
 22789      00
 22790              	.LASF87:
 22791 18f8 5F756275 		.ascii	"_ubuf\000"
 22791      6600
 22792              	.LASF440:
 22793 18fe 636F6E66 		.ascii	"config\000"
 22793      696700
 22794              	.LASF111:
 22795 1905 5F6D626C 		.ascii	"_mblen_state\000"
 22795      656E5F73 
 22795      74617465 
 22795      00
 22796              	.LASF77:
 22797 1912 5F5F7367 		.ascii	"__sglue\000"
 22797      6C756500 
 22798              	.LASF122:
 22799 191a 5F5F6C6F 		.ascii	"__locale_t\000"
 22799      63616C65 
 22799      5F7400
 22800              	.LASF272:
 22801 1925 49444D41 		.ascii	"IDMACTRL\000"
 22801      4354524C 
 22801      00
 22802              	.LASF397:
 22803 192e 424C4B5F 		.ascii	"BLK_CONNECTING\000"
 22803      434F4E4E 
 22803      45435449 
ARM GAS  /tmp/ccpnbTSa.s 			page 423


 22803      4E4700
 22804              	.LASF69:
 22805 193d 5F5F636C 		.ascii	"__cleanup\000"
 22805      65616E75 
 22805      7000
 22806              	.LASF471:
 22807 1947 6164635F 		.ascii	"adc_channels_num_t\000"
 22807      6368616E 
 22807      6E656C73 
 22807      5F6E756D 
 22807      5F7400
 22808              	.LASF172:
 22809 195a 76746675 		.ascii	"vtfunc_t\000"
 22809      6E635F74 
 22809      00
 22810              	.LASF295:
 22811 1963 77746F62 		.ascii	"wtobjp\000"
 22811      6A7000
 22812              	.LASF18:
 22813 196a 5F66706F 		.ascii	"_fpos_t\000"
 22813      735F7400 
 22814              	.LASF56:
 22815 1972 5F66696C 		.ascii	"_file\000"
 22815      6500
 22816              	.LASF439:
 22817 1978 68616C5F 		.ascii	"hal_adc_driver\000"
 22817      6164635F 
 22817      64726976 
 22817      657200
 22818              	.LASF549:
 22819 1987 63617061 		.ascii	"capacity\000"
 22819      63697479 
 22819      00
 22820              	.LASF364:
 22821 1990 6F626A5F 		.ascii	"obj_pool\000"
 22821      706F6F6C 
 22821      00
 22822              	.LASF372:
 22823 1999 63685F66 		.ascii	"ch_factory\000"
 22823      6163746F 
 22823      727900
 22824              	.LASF793:
 22825 19a4 7365745F 		.ascii	"set_address\000"
 22825      61646472 
 22825      65737300 
 22826              	.LASF415:
 22827 19b0 715F6E6F 		.ascii	"q_notify\000"
 22827      74696679 
 22827      00
 22828              	.LASF314:
 22829 19b9 77746D74 		.ascii	"wtmtxp\000"
 22829      787000
 22830              	.LASF81:
 22831 19c0 5F5F7346 		.ascii	"__sFILE\000"
 22831      494C4500 
 22832              	.LASF49:
 22833 19c8 5F666E73 		.ascii	"_fns\000"
ARM GAS  /tmp/ccpnbTSa.s 			page 424


 22833      00
 22834              	.LASF738:
 22835 19cd 55534245 		.ascii	"USBEndpointConfig\000"
 22835      6E64706F 
 22835      696E7443 
 22835      6F6E6669 
 22835      6700
 22836              	.LASF727:
 22837 19df 5553424F 		.ascii	"USBOutEndpointState\000"
 22837      7574456E 
 22837      64706F69 
 22837      6E745374 
 22837      61746500 
 22838              	.LASF688:
 22839 19f3 72657376 		.ascii	"resvd41C\000"
 22839      64343143 
 22839      00
 22840              	.LASF23:
 22841 19fc 5F6D6273 		.ascii	"_mbstate_t\000"
 22841      74617465 
 22841      5F7400
 22842              	.LASF779:
 22843 1a07 75736253 		.ascii	"usbStallReceiveI\000"
 22843      74616C6C 
 22843      52656365 
 22843      69766549 
 22843      00
 22844              	.LASF190:
 22845 1a18 73797369 		.ascii	"sysinterval_t\000"
 22845      6E746572 
 22845      76616C5F 
 22845      7400
 22846              	.LASF405:
 22847 1a26 626C6B5F 		.ascii	"blk_num\000"
 22847      6E756D00 
 22848              	.LASF620:
 22849 1a2e 5553425F 		.ascii	"USB_EP0_IN_SENDING_STS\000"
 22849      4550305F 
 22849      494E5F53 
 22849      454E4449 
 22849      4E475F53 
 22850              	.LASF625:
 22851 1a45 5553425F 		.ascii	"USB_EVENT_RESET\000"
 22851      4556454E 
 22851      545F5245 
 22851      53455400 
 22852              	.LASF344:
 22853 1a55 77666C61 		.ascii	"wflags\000"
 22853      677300
 22854              	.LASF156:
 22855 1a5c 77616974 		.ascii	"waiting\000"
 22855      696E6700 
 22856              	.LASF170:
 22857 1a64 63685F72 		.ascii	"ch_ready_list\000"
 22857      65616479 
 22857      5F6C6973 
 22857      7400
ARM GAS  /tmp/ccpnbTSa.s 			page 425


 22858              	.LASF424:
 22859 1a72 50555044 		.ascii	"PUPDR\000"
 22859      5200
 22860              	.LASF11:
 22861 1a78 5F5F696E 		.ascii	"__int32_t\000"
 22861      7433325F 
 22861      7400
 22862              	.LASF13:
 22863 1a82 5F5F7569 		.ascii	"__uint32_t\000"
 22863      6E743332 
 22863      5F7400
 22864              	.LASF181:
 22865 1a8d 63685F73 		.ascii	"ch_system_debug\000"
 22865      79737465 
 22865      6D5F6465 
 22865      62756700 
 22866              	.LASF448:
 22867 1a9d 64617461 		.ascii	"data\000"
 22867      00
 22868              	.LASF699:
 22869 1aa2 4441494E 		.ascii	"DAINTMSK\000"
 22869      544D534B 
 22869      00
 22870              	.LASF22:
 22871 1aab 5F5F7661 		.ascii	"__value\000"
 22871      6C756500 
 22872              	.LASF46:
 22873 1ab3 5F69735F 		.ascii	"_is_cxa\000"
 22873      63786100 
 22874              	.LASF400:
 22875 1abb 424C4B5F 		.ascii	"BLK_READING\000"
 22875      52454144 
 22875      494E4700 
 22876              	.LASF104:
 22877 1ac7 5F6D7072 		.ascii	"_mprec\000"
 22877      656300
 22878              	.LASF766:
 22879 1ace 7A65726F 		.ascii	"zero_status\000"
 22879      5F737461 
 22879      74757300 
 22880              	.LASF376:
 22881 1ada 73656C66 		.ascii	"selfindex\000"
 22881      696E6465 
 22881      7800
 22882              	.LASF339:
 22883 1ae4 6D757465 		.ascii	"mutex_t\000"
 22883      785F7400 
 22884              	.LASF107:
 22885 1aec 5F703573 		.ascii	"_p5s\000"
 22885      00
 22886              	.LASF614:
 22887 1af1 45505F53 		.ascii	"EP_STATUS_DISABLED\000"
 22887      54415455 
 22887      535F4449 
 22887      5341424C 
 22887      454400
 22888              	.LASF420:
ARM GAS  /tmp/ccpnbTSa.s 			page 426


 22889 1b04 636C6561 		.ascii	"clear\000"
 22889      7200
 22890              	.LASF245:
 22891 1b0a 434D3141 		.ascii	"CM1AR\000"
 22891      5200
 22892              	.LASF421:
 22893 1b10 4D4F4445 		.ascii	"MODER\000"
 22893      5200
 22894              	.LASF798:
 22895 1b16 6F73616C 		.ascii	"osalOsRescheduleS\000"
 22895      4F735265 
 22895      73636865 
 22895      64756C65 
 22895      5300
 22896              	.LASF478:
 22897 1b28 6164635F 		.ascii	"adc_ldd_dma_reference_t\000"
 22897      6C64645F 
 22897      646D615F 
 22897      72656665 
 22897      72656E63 
 22898              	.LASF271:
 22899 1b40 52455345 		.ascii	"RESERVED0\000"
 22899      52564544 
 22899      3000
 22900              	.LASF203:
 22901 1b4a 52455345 		.ascii	"RESERVED1\000"
 22901      52564544 
 22901      3100
 22902              	.LASF204:
 22903 1b54 52455345 		.ascii	"RESERVED2\000"
 22903      52564544 
 22903      3200
 22904              	.LASF209:
 22905 1b5e 52455345 		.ascii	"RESERVED3\000"
 22905      52564544 
 22905      3300
 22906              	.LASF210:
 22907 1b68 52455345 		.ascii	"RESERVED4\000"
 22907      52564544 
 22907      3400
 22908              	.LASF212:
 22909 1b72 52455345 		.ascii	"RESERVED5\000"
 22909      52564544 
 22909      3500
 22910              	.LASF217:
 22911 1b7c 52455345 		.ascii	"RESERVED6\000"
 22911      52564544 
 22911      3600
 22912              	.LASF222:
 22913 1b86 52455345 		.ascii	"RESERVED7\000"
 22913      52564544 
 22913      3700
 22914              	.LASF225:
 22915 1b90 52455345 		.ascii	"RESERVED8\000"
 22915      52564544 
 22915      3800
 22916              	.LASF226:
ARM GAS  /tmp/ccpnbTSa.s 			page 427


 22917 1b9a 52455345 		.ascii	"RESERVED9\000"
 22917      52564544 
 22917      3900
 22918              	.LASF690:
 22919 1ba4 72657376 		.ascii	"resvd444\000"
 22919      64343434 
 22919      00
 22920              	.LASF556:
 22921 1bad 69735F69 		.ascii	"is_inserted\000"
 22921      6E736572 
 22921      74656400 
 22922              	.LASF443:
 22923 1bb9 67727070 		.ascii	"grpp\000"
 22923      00
 22924              	.LASF278:
 22925 1bbe 53444D4D 		.ascii	"SDMMC_TypeDef\000"
 22925      435F5479 
 22925      70654465 
 22925      6600
 22926              	.LASF328:
 22927 1bcc 6F66665F 		.ascii	"off_newer\000"
 22927      6E657765 
 22927      7200
 22928              	.LASF825:
 22929 1bd6 63685468 		.ascii	"chThdSleep\000"
 22929      64536C65 
 22929      657000
 22930              	.LASF283:
 22931 1be1 52584352 		.ascii	"RXCRC\000"
 22931      4300
 22932              	.LASF197:
 22933 1be7 43464752 		.ascii	"CFGR2\000"
 22933      3200
 22934              	.LASF147:
 22935 1bed 71756575 		.ascii	"queue\000"
 22935      6500
 22936              	.LASF605:
 22937 1bf3 706D6E65 		.ascii	"pmnext\000"
 22937      787400
 22938              	.LASF192:
 22939 1bfa 49544D5F 		.ascii	"ITM_RxBuffer\000"
 22939      52784275 
 22939      66666572 
 22939      00
 22940              	.LASF406:
 22941 1c07 426C6F63 		.ascii	"BlockDeviceInfo\000"
 22941      6B446576 
 22941      69636549 
 22941      6E666F00 
 22942              	.LASF16:
 22943 1c17 6C6F6E67 		.ascii	"long long unsigned int\000"
 22943      206C6F6E 
 22943      6720756E 
 22943      7369676E 
 22943      65642069 
 22944              	.LASF307:
 22945 1c2e 6F666673 		.ascii	"offset\000"
ARM GAS  /tmp/ccpnbTSa.s 			page 428


 22945      657400
 22946              	.LASF578:
 22947 1c35 53504944 		.ascii	"SPID1\000"
 22947      3100
 22948              	.LASF579:
 22949 1c3b 53504944 		.ascii	"SPID3\000"
 22949      3300
 22950              	.LASF805:
 22951 1c41 63685379 		.ascii	"chSysUnlock\000"
 22951      73556E6C 
 22951      6F636B00 
 22952              	.LASF238:
 22953 1c4d 4E445452 		.ascii	"NDTR\000"
 22953      00
 22954              	.LASF70:
 22955 1c52 5F67616D 		.ascii	"_gamma_signgam\000"
 22955      6D615F73 
 22955      69676E67 
 22955      616D00
 22956              	.LASF652:
 22957 1c61 44494550 		.ascii	"DIEPINT\000"
 22957      494E5400 
 22958              	.LASF286:
 22959 1c69 5350495F 		.ascii	"SPI_TypeDef\000"
 22959      54797065 
 22959      44656600 
 22960              	.LASF384:
 22961 1c75 534D4352 		.ascii	"SMCR\000"
 22961      00
 22962              	.LASF325:
 22963 1c7a 74687265 		.ascii	"threadsize\000"
 22963      61647369 
 22963      7A6500
 22964              	.LASF697:
 22965 1c85 444F4550 		.ascii	"DOEPMSK\000"
 22965      4D534B00 
 22966              	.LASF235:
 22967 1c8d 52455345 		.ascii	"RESERVED\000"
 22967      52564544 
 22967      00
 22968              	.LASF174:
 22969 1c96 63685F76 		.ascii	"ch_virtual_timer\000"
 22969      69727475 
 22969      616C5F74 
 22969      696D6572 
 22969      00
 22970              	.LASF315:
 22971 1ca7 65776D61 		.ascii	"ewmask\000"
 22971      736B00
 22972              	.LASF345:
 22973 1cae 6576656E 		.ascii	"event_source\000"
 22973      745F736F 
 22973      75726365 
 22973      00
 22974              	.LASF137:
 22975 1cbb 74737461 		.ascii	"tstate_t\000"
 22975      74655F74 
ARM GAS  /tmp/ccpnbTSa.s 			page 429


 22975      00
 22976              	.LASF127:
 22977 1cc4 5F676C6F 		.ascii	"_global_impure_ptr\000"
 22977      62616C5F 
 22977      696D7075 
 22977      72655F70 
 22977      747200
 22978              	.LASF698:
 22979 1cd7 4441494E 		.ascii	"DAINT\000"
 22979      5400
 22980              	.LASF571:
 22981 1cdd 53504943 		.ascii	"SPIConfig\000"
 22981      6F6E6669 
 22981      6700
 22982              	.LASF67:
 22983 1ce7 5F756E73 		.ascii	"_unspecified_locale_info\000"
 22983      70656369 
 22983      66696564 
 22983      5F6C6F63 
 22983      616C655F 
 22984              	.LASF125:
 22985 1d00 5F5F7366 		.ascii	"__sf_fake_stderr\000"
 22985      5F66616B 
 22985      655F7374 
 22985      64657272 
 22985      00
 22986              	.LASF591:
 22987 1d11 7472616E 		.ascii	"transmitting\000"
 22987      736D6974 
 22987      74696E67 
 22987      00
 22988              	.LASF303:
 22989 1d1e 73757370 		.ascii	"suspended\000"
 22989      656E6465 
 22989      6400
 22990              	.LASF259:
 22991 1d28 434C4B43 		.ascii	"CLKCR\000"
 22991      5200
 22992              	.LASF818:
 22993 1d2e 7573625F 		.ascii	"usb_lld_get_status_out\000"
 22993      6C6C645F 
 22993      6765745F 
 22993      73746174 
 22993      75735F6F 
 22994              	.LASF66:
 22995 1d45 5F5F7364 		.ascii	"__sdidinit\000"
 22995      6964696E 
 22995      697400
 22996              	.LASF218:
 22997 1d50 4A445231 		.ascii	"JDR1\000"
 22997      00
 22998              	.LASF219:
 22999 1d55 4A445232 		.ascii	"JDR2\000"
 22999      00
 23000              	.LASF220:
 23001 1d5a 4A445233 		.ascii	"JDR3\000"
 23001      00
ARM GAS  /tmp/ccpnbTSa.s 			page 430


 23002              	.LASF221:
 23003 1d5f 4A445234 		.ascii	"JDR4\000"
 23003      00
 23004              	.LASF660:
 23005 1d64 444F4550 		.ascii	"DOEPTSIZ\000"
 23005      5453495A 
 23005      00
 23006              	.LASF490:
 23007 1d6d 74696D69 		.ascii	"timingr\000"
 23007      6E677200 
 23008              	.LASF366:
 23009 1d75 73656D5F 		.ascii	"sem_list\000"
 23009      6C697374 
 23009      00
 23010              	.LASF368:
 23011 1d7e 6D62785F 		.ascii	"mbx_list\000"
 23011      6C697374 
 23011      00
 23012              	.LASF330:
 23013 1d87 6F66665F 		.ascii	"off_name\000"
 23013      6E616D65 
 23013      00
 23014              	.LASF760:
 23015 1d90 53445241 		.ascii	"SDRAM_UNINIT\000"
 23015      4D5F554E 
 23015      494E4954 
 23015      00
 23016              	.LASF26:
 23017 1d9d 5F666C6F 		.ascii	"_flock_t\000"
 23017      636B5F74 
 23017      00
 23018              	.LASF177:
 23019 1da6 76697274 		.ascii	"virtual_timers_list_t\000"
 23019      75616C5F 
 23019      74696D65 
 23019      72735F6C 
 23019      6973745F 
 23020              	.LASF124:
 23021 1dbc 5F5F7366 		.ascii	"__sf_fake_stdout\000"
 23021      5F66616B 
 23021      655F7374 
 23021      646F7574 
 23021      00
 23022              	.LASF195:
 23023 1dcd 4431436F 		.ascii	"D1CorePrescTable\000"
 23023      72655072 
 23023      65736354 
 23023      61626C65 
 23023      00
 23024              	.LASF780:
 23025 1dde 75736254 		.ascii	"usbTransmit\000"
 23025      72616E73 
 23025      6D697400 
 23026              	.LASF684:
 23027 1dea 72657376 		.ascii	"resvd40C\000"
 23027      64343043 
 23027      00
ARM GAS  /tmp/ccpnbTSa.s 			page 431


 23028              	.LASF612:
 23029 1df3 5553425F 		.ascii	"USB_SUSPENDED\000"
 23029      53555350 
 23029      454E4445 
 23029      4400
 23030              	.LASF666:
 23031 1e01 47525354 		.ascii	"GRSTCTL\000"
 23031      43544C00 
 23032              	.LASF456:
 23033 1e09 63697263 		.ascii	"circular\000"
 23033      756C6172 
 23033      00
 23034              	.LASF569:
 23035 1e12 53504944 		.ascii	"SPIDriver\000"
 23035      72697665 
 23035      7200
 23036              	.LASF691:
 23037 1e1c 72657376 		.ascii	"resvd700\000"
 23037      64373030 
 23037      00
 23038              	.LASF285:
 23039 1e25 49325343 		.ascii	"I2SCFGR\000"
 23039      46475200 
 23040              	.LASF769:
 23041 1e2d 75736270 		.ascii	"usbp\000"
 23041      00
 23042              	.LASF540:
 23043 1e32 77726974 		.ascii	"writet\000"
 23043      657400
 23044              	.LASF551:
 23045 1e39 73646D6D 		.ascii	"sdmmc\000"
 23045      6300
 23046              	.LASF1:
 23047 1e3f 6C6F6E67 		.ascii	"long long int\000"
 23047      206C6F6E 
 23047      6720696E 
 23047      7400
 23048              	.LASF678:
 23049 1e4d 48505458 		.ascii	"HPTXFSIZ\000"
 23049      4653495A 
 23049      00
 23050              	.LASF819:
 23051 1e56 7573625F 		.ascii	"usb_lld_clear_out\000"
 23051      6C6C645F 
 23051      636C6561 
 23051      725F6F75 
 23051      7400
 23052              	.LASF93:
 23053 1e68 5F666C61 		.ascii	"_flags2\000"
 23053      67733200 
 23054              	.LASF461:
 23055 1e70 63666772 		.ascii	"cfgr2\000"
 23055      3200
 23056              	.LASF804:
 23057 1e76 63685379 		.ascii	"chSysLockFromISR\000"
 23057      734C6F63 
 23057      6B46726F 
ARM GAS  /tmp/ccpnbTSa.s 			page 432


 23057      6D495352 
 23057      00
 23058              	.LASF561:
 23059 1e87 6765745F 		.ascii	"get_info\000"
 23059      696E666F 
 23059      00
 23060              	.LASF477:
 23061 1e90 61646365 		.ascii	"adcerror_t\000"
 23061      72726F72 
 23061      5F7400
 23062              	.LASF787:
 23063 1e9b 75736253 		.ascii	"usbStop\000"
 23063      746F7000 
 23064              	.LASF740:
 23065 1ea3 6765745F 		.ascii	"get_descriptor_cb\000"
 23065      64657363 
 23065      72697074 
 23065      6F725F63 
 23065      6200
 23066              	.LASF68:
 23067 1eb5 5F6C6F63 		.ascii	"_locale\000"
 23067      616C6500 
 23068              	.LASF142:
 23069 1ebd 6576656E 		.ascii	"eventflags_t\000"
 23069      74666C61 
 23069      67735F74 
 23069      00
 23070              	.LASF565:
 23071 1eca 5350495F 		.ascii	"SPI_READY\000"
 23071      52454144 
 23071      5900
 23072              	.LASF618:
 23073 1ed4 5553425F 		.ascii	"USB_EP0_IN_TX\000"
 23073      4550305F 
 23073      494E5F54 
 23073      5800
 23074              	.LASF828:
 23075 1ee2 7573625F 		.ascii	"usb_lld_init_endpoint\000"
 23075      6C6C645F 
 23075      696E6974 
 23075      5F656E64 
 23075      706F696E 
 23076              	.LASF553:
 23077 1ef8 6275735F 		.ascii	"bus_width\000"
 23077      77696474 
 23077      6800
 23078              	.LASF693:
 23079 1f02 4443544C 		.ascii	"DCTL\000"
 23079      00
 23080              	.LASF555:
 23081 1f07 53444344 		.ascii	"SDCDriverVMT\000"
 23081      72697665 
 23081      72564D54 
 23081      00
 23082              	.LASF298:
 23083 1f14 75736572 		.ascii	"user\000"
 23083      00
ARM GAS  /tmp/ccpnbTSa.s 			page 433


 23084              	.LASF721:
 23085 1f19 74786275 		.ascii	"txbuf\000"
 23085      6600
 23086              	.LASF712:
 23087 1f1f 50434743 		.ascii	"PCGCCTL\000"
 23087      43544C00 
 23088              	.LASF630:
 23089 1f27 5553425F 		.ascii	"USB_EVENT_WAKEUP\000"
 23089      4556454E 
 23089      545F5741 
 23089      4B455550 
 23089      00
 23090              	.LASF395:
 23091 1f38 424C4B5F 		.ascii	"BLK_STOP\000"
 23091      53544F50 
 23091      00
 23092              	.LASF811:
 23093 1f41 5F5F7365 		.ascii	"__set_BASEPRI\000"
 23093      745F4241 
 23093      53455052 
 23093      4900
 23094              	.LASF402:
 23095 1f4f 424C4B5F 		.ascii	"BLK_SYNCING\000"
 23095      53594E43 
 23095      494E4700 
 23096              	.LASF737:
 23097 1f5b 73657475 		.ascii	"setup_buf\000"
 23097      705F6275 
 23097      6600
 23098              	.LASF675:
 23099 1f65 72657376 		.ascii	"resvd34\000"
 23099      64333400 
 23100              	.LASF459:
 23101 1f6d 6572726F 		.ascii	"error_cb\000"
 23101      725F6362 
 23101      00
 23102              	.LASF398:
 23103 1f76 424C4B5F 		.ascii	"BLK_DISCONNECTING\000"
 23103      44495343 
 23103      4F4E4E45 
 23103      4354494E 
 23103      4700
 23104              	.LASF506:
 23105 1f88 6368616E 		.ascii	"channels\000"
 23105      6E656C73 
 23105      00
 23106              	.LASF573:
 23107 1f91 7373706F 		.ascii	"ssport\000"
 23107      727400
 23108              	.LASF162:
 23109 1f98 74687265 		.ascii	"thread_reference_t\000"
 23109      61645F72 
 23109      65666572 
 23109      656E6365 
 23109      5F7400
 23110              	.LASF592:
 23111 1fab 72656365 		.ascii	"receiving\000"
ARM GAS  /tmp/ccpnbTSa.s 			page 434


 23111      6976696E 
 23111      6700
 23112              	.LASF833:
 23113 1fb5 474E5520 		.ascii	"GNU C17 8.3.1 20190703 (release) [gcc-8-branch revi"
 23113      43313720 
 23113      382E332E 
 23113      31203230 
 23113      31393037 
 23114 1fe8 73696F6E 		.ascii	"sion 273027] -mcpu=cortex-m7 -mthumb -mfloat-abi=ha"
 23114      20323733 
 23114      3032375D 
 23114      202D6D63 
 23114      70753D63 
 23115 201b 7264202D 		.ascii	"rd -mfpu=fpv4-sp-d16 -march=armv7e-m+fp -ggdb -O2 -"
 23115      6D667075 
 23115      3D667076 
 23115      342D7370 
 23115      2D643136 
 23116 204e 666F6D69 		.ascii	"fomit-frame-pointer -falign-functions=16 -fno-math-"
 23116      742D6672 
 23116      616D652D 
 23116      706F696E 
 23116      74657220 
 23117 2081 6572726E 		.ascii	"errno\000"
 23117      6F00
 23118              	.LASF606:
 23119 2087 75736265 		.ascii	"usbep_t\000"
 23119      705F7400 
 23120              	.LASF516:
 23121 208f 66726571 		.ascii	"frequency\000"
 23121      75656E63 
 23121      7900
 23122              	.LASF572:
 23123 2099 68616C5F 		.ascii	"hal_spi_config\000"
 23123      7370695F 
 23123      636F6E66 
 23123      696700
 23124              	.LASF29:
 23125 20a8 5F736967 		.ascii	"_sign\000"
 23125      6E00
 23126              	.LASF734:
 23127 20ae 696E5F73 		.ascii	"in_state\000"
 23127      74617465 
 23127      00
 23128              	.LASF34:
 23129 20b7 5F5F746D 		.ascii	"__tm_min\000"
 23129      5F6D696E 
 23129      00
 23130              	.LASF752:
 23131 20c0 46534D43 		.ascii	"FSMC_SDRAM_TypeDef\000"
 23131      5F534452 
 23131      414D5F54 
 23131      79706544 
 23131      656600
 23132              	.LASF797:
 23133 20d3 64656C61 		.ascii	"delay\000"
 23133      7900
ARM GAS  /tmp/ccpnbTSa.s 			page 435


 23134              	.LASF322:
 23135 20d9 76657273 		.ascii	"version\000"
 23135      696F6E00 
 23136              	.LASF267:
 23137 20e1 44435452 		.ascii	"DCTRL\000"
 23137      4C00
 23138              	.LASF343:
 23139 20e7 6576656E 		.ascii	"events\000"
 23139      747300
 23140              	.LASF386:
 23141 20ee 43434D52 		.ascii	"CCMR1\000"
 23141      3100
 23142              	.LASF387:
 23143 20f4 43434D52 		.ascii	"CCMR2\000"
 23143      3200
 23144              	.LASF391:
 23145 20fa 43434D52 		.ascii	"CCMR3\000"
 23145      3300
 23146              	.LASF0:
 23147 2100 756E7369 		.ascii	"unsigned int\000"
 23147      676E6564 
 23147      20696E74 
 23147      00
 23148              	.LASF73:
 23149 210d 5F723438 		.ascii	"_r48\000"
 23149      00
 23150              	.LASF682:
 23151 2112 48464952 		.ascii	"HFIR\000"
 23151      00
 23152              	.LASF607:
 23153 2117 5553425F 		.ascii	"USB_UNINIT\000"
 23153      554E494E 
 23153      495400
 23154              	.LASF373:
 23155 2122 73747265 		.ascii	"stream\000"
 23155      616D00
 23156              	.LASF134:
 23157 2129 75696E74 		.ascii	"uint_fast8_t\000"
 23157      5F666173 
 23157      74385F74 
 23157      00
 23158              	.LASF453:
 23159 2136 63616C69 		.ascii	"calibration\000"
 23159      62726174 
 23159      696F6E00 
 23160              	.LASF341:
 23161 2142 6576656E 		.ascii	"event_listener\000"
 23161      745F6C69 
 23161      7374656E 
 23161      657200
 23162              	.LASF8:
 23163 2151 73686F72 		.ascii	"short int\000"
 23163      7420696E 
 23163      7400
 23164              	.LASF636:
 23165 215b 75736263 		.ascii	"usbcallback_t\000"
 23165      616C6C62 
ARM GAS  /tmp/ccpnbTSa.s 			page 436


 23165      61636B5F 
 23165      7400
 23166              	.LASF357:
 23167 2169 6D656D6F 		.ascii	"memory_pool_t\000"
 23167      72795F70 
 23167      6F6F6C5F 
 23167      7400
 23168              	.LASF83:
 23169 2177 5F726561 		.ascii	"_read\000"
 23169      6400
 23170              	.LASF665:
 23171 217d 47555342 		.ascii	"GUSBCFG\000"
 23171      43464700 
 23172              	.LASF168:
 23173 2185 70726576 		.ascii	"prev\000"
 23173      00
 23174              	.LASF419:
 23175 218a 6F757470 		.ascii	"output_queue_t\000"
 23175      75745F71 
 23175      75657565 
 23175      5F7400
 23176              	.LASF99:
 23177 2199 5F72616E 		.ascii	"_rand48\000"
 23177      64343800 
 23178              	.LASF714:
 23179 21a1 73746D33 		.ascii	"stm32_otg_t\000"
 23179      325F6F74 
 23179      675F7400 
 23180              	.LASF815:
 23181 21ad 7573625F 		.ascii	"usb_lld_stall_out\000"
 23181      6C6C645F 
 23181      7374616C 
 23181      6C5F6F75 
 23181      7400
 23182              	.LASF633:
 23183 21bf 75645F73 		.ascii	"ud_size\000"
 23183      697A6500 
 23184              	.LASF160:
 23185 21c7 7265616C 		.ascii	"realprio\000"
 23185      7072696F 
 23185      00
 23186              	.LASF732:
 23187 21d0 696E5F6D 		.ascii	"in_maxsize\000"
 23187      61787369 
 23187      7A6500
 23188              	.LASF154:
 23189 21db 666C6167 		.ascii	"flags\000"
 23189      7300
 23190              	.LASF223:
 23191 21e1 41574432 		.ascii	"AWD2CR\000"
 23191      435200
 23192              	.LASF164:
 23193 21e8 63685F74 		.ascii	"ch_threads_list\000"
 23193      68726561 
 23193      64735F6C 
 23193      69737400 
 23194              	.LASF268:
ARM GAS  /tmp/ccpnbTSa.s 			page 437


 23195 21f8 44434F55 		.ascii	"DCOUNT\000"
 23195      4E5400
 23196              	.LASF250:
 23197 21ff 4F415231 		.ascii	"OAR1\000"
 23197      00
 23198              	.LASF251:
 23199 2204 4F415232 		.ascii	"OAR2\000"
 23199      00
 23200              	.LASF526:
 23201 2209 53445F52 		.ascii	"SD_READY\000"
 23201      45414459 
 23201      00
 23202              	.LASF613:
 23203 2212 75736273 		.ascii	"usbstate_t\000"
 23203      74617465 
 23203      5F7400
 23204              		.ident	"GCC: (GNU Tools for Arm Embedded Processors 8-2019-q3-update) 8.3.1 20190703 (release) [gc
ARM GAS  /tmp/ccpnbTSa.s 			page 438


DEFINED SYMBOLS
                            *ABS*:0000000000000000 hal_usb.c
     /tmp/ccpnbTSa.s:17     .text:0000000000000000 $t
     /tmp/ccpnbTSa.s:26     .text:0000000000000000 usbInit
     /tmp/ccpnbTSa.s:48     .text:0000000000000010 usbObjectInit
     /tmp/ccpnbTSa.s:110    .text:0000000000000040 usbStart
     /tmp/ccpnbTSa.s:280    .text:0000000000000070 usbStop
     /tmp/ccpnbTSa.s:518    .text:00000000000000d0 usbInitEndpointI
     /tmp/ccpnbTSa.s:589    .text:0000000000000100 usbDisableEndpointsI
     /tmp/ccpnbTSa.s:721    .text:0000000000000160 usbStartReceiveI
     /tmp/ccpnbTSa.s:796    .text:0000000000000190 usbStartTransmitI
     /tmp/ccpnbTSa.s:871    .text:00000000000001c0 usbReceive
     /tmp/ccpnbTSa.s:1141   .text:0000000000000220 usbTransmit
     /tmp/ccpnbTSa.s:1411   .text:0000000000000280 usbStallReceiveI
     /tmp/ccpnbTSa.s:1461   .text:00000000000002a0 usbStallTransmitI
     /tmp/ccpnbTSa.s:1511   .text:00000000000002c0 usbWakeupHost
     /tmp/ccpnbTSa.s:1572   .text:0000000000000300 _usb_reset
     /tmp/ccpnbTSa.s:1887   .text:0000000000000380 _usb_suspend
     /tmp/ccpnbTSa.s:2200   .text:00000000000003e0 _usb_wakeup
     /tmp/ccpnbTSa.s:2237   .text:0000000000000400 _usb_ep0setup
     /tmp/ccpnbTSa.s:3757   .text:0000000000000778 $d
     /tmp/ccpnbTSa.s:3765   .text:0000000000000784 $t
     /tmp/ccpnbTSa.s:3773   .text:0000000000000790 _usb_ep0in
     /tmp/ccpnbTSa.s:3799   .text:00000000000007a0 $d
     /tmp/ccpnbTSa.s:3821   .text:00000000000007b6 $t
     /tmp/ccpnbTSa.s:4276   .text:0000000000000870 _usb_ep0out
     /tmp/ccpnbTSa.s:4561   .rodata:0000000000000000 $d
     /tmp/ccpnbTSa.s:4565   .rodata:0000000000000000 zero_status
     /tmp/ccpnbTSa.s:4570   .rodata:0000000000000004 halted_status
     /tmp/ccpnbTSa.s:4576   .rodata:0000000000000008 active_status

UNDEFINED SYMBOLS
usb_lld_init
usb_lld_start
usb_lld_stop
chThdResumeI
chSchRescheduleS
usb_lld_init_endpoint
usb_lld_disable_endpoints
usb_lld_start_out
usb_lld_start_in
chThdSuspendTimeoutS
usb_lld_stall_out
usb_lld_stall_in
chThdSleep
usb_lld_reset
usb_lld_read_setup
usb_lld_set_address
usb_lld_get_status_out
usb_lld_clear_out
usb_lld_get_status_in
usb_lld_clear_in
