ARM GAS  /tmp/ccDQUTww.s 			page 1


   1              		.cpu cortex-m7
   2              		.eabi_attribute 27, 1
   3              		.eabi_attribute 28, 1
   4              		.eabi_attribute 20, 1
   5              		.eabi_attribute 21, 1
   6              		.eabi_attribute 23, 3
   7              		.eabi_attribute 24, 1
   8              		.eabi_attribute 25, 1
   9              		.eabi_attribute 26, 1
  10              		.eabi_attribute 30, 2
  11              		.eabi_attribute 34, 1
  12              		.eabi_attribute 18, 4
  13              		.file	"hal_buffers.c"
  14              		.text
  15              	.Ltext0:
  16              		.cfi_sections	.debug_frame
  17              		.align	1
  18              		.p2align 4,,15
  19              		.global	ibqObjectInit
  20              		.arch armv7e-m
  21              		.syntax unified
  22              		.thumb
  23              		.thumb_func
  24              		.fpu fpv4-sp-d16
  25              		.type	ibqObjectInit, %function
  26              	ibqObjectInit:
  27              	.LVL0:
  28              	.LFB362:
  29              		.file 1 "../../../external/ChibiOS/os/hal/src/hal_buffers.c"
  30              		.loc 1 77 72 view -0
  31              		.cfi_startproc
  32              		@ args = 12, pretend = 0, frame = 0
  33              		@ frame_needed = 0, uses_anonymous_args = 0
  34              		@ link register save eliminated.
  35              		.loc 1 79 3 view .LVU1
  36              		.loc 1 79 3 view .LVU2
  37              		.loc 1 81 3 view .LVU3
  38              		.loc 1 77 72 is_stmt 0 view .LVU4
  39 0000 70B4     		push	{r4, r5, r6}
  40              		.cfi_def_cfa_offset 12
  41              		.cfi_offset 4, -12
  42              		.cfi_offset 5, -8
  43              		.cfi_offset 6, -4
  44              		.loc 1 86 33 view .LVU5
  45 0002 0433     		adds	r3, r3, #4
  46              	.LVL1:
  47              		.loc 1 83 19 view .LVU6
  48 0004 0024     		movs	r4, #0
  49              		.loc 1 82 19 view .LVU7
  50 0006 0172     		strb	r1, [r0, #8]
  51              		.loc 1 87 19 view .LVU8
  52 0008 C361     		str	r3, [r0, #28]
  53              		.loc 1 77 72 view .LVU9
  54 000a 0599     		ldr	r1, [sp, #20]
  55              	.LVL2:
  56              		.loc 1 83 19 view .LVU10
  57 000c C460     		str	r4, [r0, #12]
ARM GAS  /tmp/ccDQUTww.s 			page 2


  58              		.loc 1 89 19 view .LVU11
  59 000e 4262     		str	r2, [r0, #36]
  60              		.loc 1 77 72 view .LVU12
  61 0010 DDE90356 		ldrd	r5, r6, [sp, #12]
  62              		.loc 1 91 19 view .LVU13
  63 0014 C0E90A44 		strd	r4, r4, [r0, #40]
  64              		.loc 1 86 24 view .LVU14
  65 0018 05FB0323 		mla	r3, r5, r3, r2
  66              	.LVL3:
  67              		.loc 1 88 19 view .LVU15
  68 001c 0562     		str	r5, [r0, #32]
  69              		.loc 1 86 19 view .LVU16
  70 001e 8361     		str	r3, [r0, #24]
  71              		.loc 1 93 19 view .LVU17
  72 0020 C0E90C61 		strd	r6, r1, [r0, #48]
  73              	.LBB236:
  74              	.LBB237:
  75              	.LBB238:
  76              	.LBB239:
  77              		.file 2 "../../../external/ChibiOS/os/rt/include/chschd.h"
  78              		.loc 2 540 13 view .LVU18
  79 0024 C0E90000 		strd	r0, r0, [r0]
  80              	.LBE239:
  81              	.LBE238:
  82              	.LBE237:
  83              	.LBE236:
  84              		.loc 1 82 3 is_stmt 1 view .LVU19
  85              		.loc 1 83 3 view .LVU20
  86              		.loc 1 84 3 view .LVU21
  87              		.loc 1 85 3 view .LVU22
  88              		.loc 1 86 3 view .LVU23
  89              		.loc 1 87 3 view .LVU24
  90              		.loc 1 88 3 view .LVU25
  91              		.loc 1 89 3 view .LVU26
  92              		.loc 1 90 3 view .LVU27
  93              		.loc 1 92 3 view .LVU28
  94              		.loc 1 93 3 view .LVU29
  95              		.loc 1 85 19 is_stmt 0 view .LVU30
  96 0028 C0E90422 		strd	r2, r2, [r0, #16]
  97              		.loc 1 94 1 view .LVU31
  98 002c 70BC     		pop	{r4, r5, r6}
  99              		.cfi_restore 6
 100              		.cfi_restore 5
 101              		.cfi_restore 4
 102              		.cfi_def_cfa_offset 0
 103              	.LVL4:
 104              		.loc 1 94 1 view .LVU32
 105 002e 7047     		bx	lr
 106              		.cfi_endproc
 107              	.LFE362:
 108              		.size	ibqObjectInit, .-ibqObjectInit
 109              		.align	1
 110              		.p2align 4,,15
 111              		.global	ibqResetI
 112              		.syntax unified
 113              		.thumb
 114              		.thumb_func
ARM GAS  /tmp/ccDQUTww.s 			page 3


 115              		.fpu fpv4-sp-d16
 116              		.type	ibqResetI, %function
 117              	ibqResetI:
 118              	.LVL5:
 119              	.LFB363:
 120              		.loc 1 107 45 is_stmt 1 view -0
 121              		.cfi_startproc
 122              		@ args = 0, pretend = 0, frame = 0
 123              		@ frame_needed = 0, uses_anonymous_args = 0
 124              		@ link register save eliminated.
 125              		.loc 1 109 23 view .LVU34
 126              		.loc 1 111 3 view .LVU35
 127              		.loc 1 107 45 is_stmt 0 view .LVU36
 128 0030 10B4     		push	{r4}
 129              		.cfi_def_cfa_offset 4
 130              		.cfi_offset 4, -4
 131              		.loc 1 111 19 view .LVU37
 132 0032 0022     		movs	r2, #0
 133              		.loc 1 112 25 view .LVU38
 134 0034 446A     		ldr	r4, [r0, #36]
 135              	.LBB240:
 136              	.LBB241:
 137              		.file 3 "../../../external/ChibiOS/os/hal/osal/rt-nil/osal.h"
 138              		.loc 3 857 3 view .LVU39
 139 0036 6FF00101 		mvn	r1, #1
 140              	.LBE241:
 141              	.LBE240:
 142              		.loc 1 111 19 view .LVU40
 143 003a C260     		str	r2, [r0, #12]
 144              		.loc 1 112 3 is_stmt 1 view .LVU41
 145              		.loc 1 113 19 is_stmt 0 view .LVU42
 146 003c C0E90444 		strd	r4, r4, [r0, #16]
 147              		.loc 1 114 3 is_stmt 1 view .LVU43
 148              		.loc 1 115 19 is_stmt 0 view .LVU44
 149 0040 C0E90A22 		strd	r2, r2, [r0, #40]
 150              		.loc 1 116 3 is_stmt 1 view .LVU45
 151              	.LVL6:
 152              	.LBB244:
 153              	.LBI240:
 154              		.loc 3 855 20 view .LVU46
 155              	.LBB242:
 156              		.loc 3 857 3 view .LVU47
 157              	.LBE242:
 158              	.LBE244:
 159              		.loc 1 117 1 is_stmt 0 view .LVU48
 160 0044 5DF8044B 		ldr	r4, [sp], #4
 161              		.cfi_restore 4
 162              		.cfi_def_cfa_offset 0
 163              	.LBB245:
 164              	.LBB243:
 165              		.loc 3 857 3 view .LVU49
 166 0048 FFF7FEBF 		b	chThdDequeueAllI
 167              	.LVL7:
 168              		.loc 3 857 3 view .LVU50
 169              	.LBE243:
 170              	.LBE245:
 171              		.cfi_endproc
ARM GAS  /tmp/ccDQUTww.s 			page 4


 172              	.LFE363:
 173              		.size	ibqResetI, .-ibqResetI
 174              		.align	1
 175 004c AFF30080 		.p2align 4,,15
 176              		.global	ibqGetEmptyBufferI
 177              		.syntax unified
 178              		.thumb
 179              		.thumb_func
 180              		.fpu fpv4-sp-d16
 181              		.type	ibqGetEmptyBufferI, %function
 182              	ibqGetEmptyBufferI:
 183              	.LVL8:
 184              	.LFB364:
 185              		.loc 1 129 58 is_stmt 1 view -0
 186              		.cfi_startproc
 187              		@ args = 0, pretend = 0, frame = 0
 188              		@ frame_needed = 0, uses_anonymous_args = 0
 189              		@ link register save eliminated.
 190              		.loc 1 131 23 view .LVU52
 191              		.loc 1 133 3 view .LVU53
 192              		.loc 1 133 7 is_stmt 0 view .LVU54
 193 0050 D0E90432 		ldrd	r3, r2, [r0, #16]
 194 0054 9342     		cmp	r3, r2
 195 0056 01D0     		beq	.L12
 196              	.L7:
 197              		.loc 1 137 3 is_stmt 1 view .LVU55
 198              		.loc 1 137 23 is_stmt 0 view .LVU56
 199 0058 181D     		adds	r0, r3, #4
 200              	.LVL9:
 201              		.loc 1 138 1 view .LVU57
 202 005a 7047     		bx	lr
 203              	.LVL10:
 204              	.L12:
 205              		.loc 1 133 7 discriminator 1 view .LVU58
 206 005c C268     		ldr	r2, [r0, #12]
 207 005e 002A     		cmp	r2, #0
 208 0060 FAD0     		beq	.L7
 209              		.loc 1 134 12 view .LVU59
 210 0062 0020     		movs	r0, #0
 211              	.LVL11:
 212              		.loc 1 134 12 view .LVU60
 213 0064 7047     		bx	lr
 214              		.cfi_endproc
 215              	.LFE364:
 216              		.size	ibqGetEmptyBufferI, .-ibqGetEmptyBufferI
 217              		.align	1
 218 0066 00BFAFF3 		.p2align 4,,15
 218      0080AFF3 
 218      0080
 219              		.global	ibqPostFullBufferI
 220              		.syntax unified
 221              		.thumb
 222              		.thumb_func
 223              		.fpu fpv4-sp-d16
 224              		.type	ibqPostFullBufferI, %function
 225              	ibqPostFullBufferI:
 226              	.LVL12:
ARM GAS  /tmp/ccDQUTww.s 			page 5


 227              	.LFB365:
 228              		.loc 1 148 67 is_stmt 1 view -0
 229              		.cfi_startproc
 230              		@ args = 0, pretend = 0, frame = 0
 231              		@ frame_needed = 0, uses_anonymous_args = 0
 232              		@ link register save eliminated.
 233              		.loc 1 150 23 view .LVU62
 234              		.loc 1 152 3 view .LVU63
 235              		.loc 1 152 3 view .LVU64
 236              		.loc 1 153 3 view .LVU65
 237              		.loc 1 153 3 view .LVU66
 238              		.loc 1 156 3 view .LVU67
 239              		.loc 1 156 19 is_stmt 0 view .LVU68
 240 0070 0369     		ldr	r3, [r0, #16]
 241              		.loc 1 148 67 view .LVU69
 242 0072 10B4     		push	{r4}
 243              		.cfi_def_cfa_offset 4
 244              		.cfi_offset 4, -4
 245              		.loc 1 161 6 view .LVU70
 246 0074 8469     		ldr	r4, [r0, #24]
 247              		.loc 1 156 29 view .LVU71
 248 0076 1960     		str	r1, [r3]
 249              		.loc 1 159 3 is_stmt 1 view .LVU72
 250              		.loc 1 160 16 is_stmt 0 view .LVU73
 251 0078 C169     		ldr	r1, [r0, #28]
 252              	.LVL13:
 253              		.loc 1 159 7 view .LVU74
 254 007a C268     		ldr	r2, [r0, #12]
 255              		.loc 1 160 16 view .LVU75
 256 007c 0B44     		add	r3, r3, r1
 257              	.LVL14:
 258              		.loc 1 159 17 view .LVU76
 259 007e 0132     		adds	r2, r2, #1
 260              		.loc 1 161 6 view .LVU77
 261 0080 A342     		cmp	r3, r4
 262              		.loc 1 160 16 view .LVU78
 263 0082 0361     		str	r3, [r0, #16]
 264              	.LVL15:
 265              		.loc 1 159 17 view .LVU79
 266 0084 C260     		str	r2, [r0, #12]
 267              		.loc 1 160 3 is_stmt 1 view .LVU80
 268              		.loc 1 161 3 view .LVU81
 269              		.loc 1 161 6 is_stmt 0 view .LVU82
 270 0086 01D3     		bcc	.L14
 271              		.loc 1 162 5 is_stmt 1 view .LVU83
 272              		.loc 1 162 18 is_stmt 0 view .LVU84
 273 0088 436A     		ldr	r3, [r0, #36]
 274 008a 0361     		str	r3, [r0, #16]
 275              	.L14:
 276              		.loc 1 166 3 is_stmt 1 view .LVU85
 277              	.LVL16:
 278              	.LBB246:
 279              	.LBI246:
 280              		.loc 3 842 20 view .LVU86
 281              	.LBB247:
 282              		.loc 3 844 3 view .LVU87
 283 008c 0021     		movs	r1, #0
ARM GAS  /tmp/ccDQUTww.s 			page 6


 284              	.LBE247:
 285              	.LBE246:
 286              		.loc 1 167 1 is_stmt 0 view .LVU88
 287 008e 5DF8044B 		ldr	r4, [sp], #4
 288              		.cfi_restore 4
 289              		.cfi_def_cfa_offset 0
 290              	.LBB249:
 291              	.LBB248:
 292              		.loc 3 844 3 view .LVU89
 293 0092 FFF7FEBF 		b	chThdDequeueNextI
 294              	.LVL17:
 295              		.loc 3 844 3 view .LVU90
 296              	.LBE248:
 297              	.LBE249:
 298              		.cfi_endproc
 299              	.LFE365:
 300              		.size	ibqPostFullBufferI, .-ibqPostFullBufferI
 301              		.align	1
 302 0096 00BFAFF3 		.p2align 4,,15
 302      0080AFF3 
 302      0080
 303              		.global	ibqGetFullBufferTimeoutS
 304              		.syntax unified
 305              		.thumb
 306              		.thumb_func
 307              		.fpu fpv4-sp-d16
 308              		.type	ibqGetFullBufferTimeoutS, %function
 309              	ibqGetFullBufferTimeoutS:
 310              	.LVL18:
 311              	.LFB367:
 312              		.loc 1 223 57 is_stmt 1 view -0
 313              		.cfi_startproc
 314              		@ args = 0, pretend = 0, frame = 0
 315              		@ frame_needed = 0, uses_anonymous_args = 0
 316              		.loc 1 223 57 is_stmt 0 view .LVU92
 317 00a0 38B5     		push	{r3, r4, r5, lr}
 318              		.cfi_def_cfa_offset 16
 319              		.cfi_offset 3, -16
 320              		.cfi_offset 4, -12
 321              		.cfi_offset 5, -8
 322              		.cfi_offset 14, -4
 323              		.loc 1 223 57 view .LVU93
 324 00a2 0446     		mov	r4, r0
 325              		.loc 1 225 23 is_stmt 1 view .LVU94
 326              		.loc 1 227 3 view .LVU95
 327              		.loc 1 223 57 is_stmt 0 view .LVU96
 328 00a4 0D46     		mov	r5, r1
 329              		.loc 1 227 9 view .LVU97
 330 00a6 05E0     		b	.L17
 331              	.LVL19:
 332              	.L19:
 333              	.LBB258:
 334              		.loc 1 228 8 view .LVU98
 335 00a8 237A     		ldrb	r3, [r4, #8]	@ zero_extendqisi2
 336 00aa 83B9     		cbnz	r3, .L20
 337              	.LBB259:
 338              	.LBB260:
ARM GAS  /tmp/ccDQUTww.s 			page 7


 339              		.loc 3 831 10 view .LVU99
 340 00ac FFF7FEFF 		bl	chThdEnqueueTimeoutS
 341              	.LVL20:
 342              		.loc 3 831 10 view .LVU100
 343              	.LBE260:
 344              	.LBE259:
 345              		.loc 1 232 5 is_stmt 1 view .LVU101
 346              		.loc 1 232 8 is_stmt 0 view .LVU102
 347 00b0 0028     		cmp	r0, #0
 348              		.loc 1 232 8 view .LVU103
 349 00b2 0BDB     		blt	.L16
 350              	.LVL21:
 351              	.L17:
 352              		.loc 1 228 5 is_stmt 1 view .LVU104
 353              		.loc 1 231 5 view .LVU105
 354              	.LBB263:
 355              	.LBI259:
 356              		.loc 3 828 21 view .LVU106
 357              	.LBB261:
 358              		.loc 3 831 3 view .LVU107
 359              	.LBE261:
 360              	.LBE263:
 361              	.LBE258:
 362              		.loc 1 227 10 is_stmt 0 view .LVU108
 363 00b4 E368     		ldr	r3, [r4, #12]
 364              	.LBB265:
 365              	.LBB264:
 366              	.LBB262:
 367              		.loc 3 831 10 view .LVU109
 368 00b6 2946     		mov	r1, r5
 369 00b8 2046     		mov	r0, r4
 370              	.LBE262:
 371              	.LBE264:
 372              	.LBE265:
 373              		.loc 1 227 9 view .LVU110
 374 00ba 002B     		cmp	r3, #0
 375 00bc F4D0     		beq	.L19
 376              	.LVL22:
 377              	.LBB266:
 378              	.LBI266:
 379              		.loc 1 222 9 is_stmt 1 view .LVU111
 380              	.LBB267:
 381              		.loc 1 237 3 view .LVU112
 382              		.loc 1 237 3 view .LVU113
 383              		.loc 1 240 3 view .LVU114
 384              		.loc 1 240 19 is_stmt 0 view .LVU115
 385 00be 6369     		ldr	r3, [r4, #20]
 386              		.loc 1 241 13 view .LVU116
 387 00c0 0020     		movs	r0, #0
 388              	.LVL23:
 389              		.loc 1 240 28 view .LVU117
 390 00c2 1A1D     		adds	r2, r3, #4
 391              		.loc 1 241 25 view .LVU118
 392 00c4 1B68     		ldr	r3, [r3]
 393 00c6 1344     		add	r3, r3, r2
 394              		.loc 1 241 13 view .LVU119
 395 00c8 C4E90A23 		strd	r2, r3, [r4, #40]
ARM GAS  /tmp/ccDQUTww.s 			page 8


 396              		.loc 1 243 3 is_stmt 1 view .LVU120
 397              	.LVL24:
 398              	.L16:
 399              		.loc 1 243 3 is_stmt 0 view .LVU121
 400              	.LBE267:
 401              	.LBE266:
 402              		.loc 1 244 1 view .LVU122
 403 00cc 38BD     		pop	{r3, r4, r5, pc}
 404              	.LVL25:
 405              	.L20:
 406              	.LBB268:
 407              		.loc 1 229 14 view .LVU123
 408 00ce 6FF00100 		mvn	r0, #1
 409              	.LVL26:
 410              		.loc 1 229 14 view .LVU124
 411              	.LBE268:
 412              		.loc 1 244 1 view .LVU125
 413 00d2 38BD     		pop	{r3, r4, r5, pc}
 414              		.loc 1 244 1 view .LVU126
 415              		.cfi_endproc
 416              	.LFE367:
 417              		.size	ibqGetFullBufferTimeoutS, .-ibqGetFullBufferTimeoutS
 418              		.align	1
 419 00d4 AFF30080 		.p2align 4,,15
 419      AFF30080 
 419      AFF30080 
 420              		.global	ibqGetFullBufferTimeout
 421              		.syntax unified
 422              		.thumb
 423              		.thumb_func
 424              		.fpu fpv4-sp-d16
 425              		.type	ibqGetFullBufferTimeout, %function
 426              	ibqGetFullBufferTimeout:
 427              	.LVL27:
 428              	.LFB366:
 429              		.loc 1 191 54 is_stmt 1 view -0
 430              		.cfi_startproc
 431              		@ args = 0, pretend = 0, frame = 0
 432              		@ frame_needed = 0, uses_anonymous_args = 0
 433              		.loc 1 192 3 view .LVU128
 434              		.loc 1 194 3 view .LVU129
 435              	.LBB269:
 436              	.LBI269:
 437              		.loc 3 509 20 view .LVU130
 438              	.LBE269:
 439              		.loc 3 511 3 view .LVU131
 440              	.LBB281:
 441              	.LBB270:
 442              	.LBI270:
 443              		.file 4 "../../../external/ChibiOS/os/rt/include/chsys.h"
 444              		.loc 4 353 20 view .LVU132
 445              	.LBE270:
 446              	.LBE281:
 447              		.loc 4 355 3 view .LVU133
 448              	.LBB282:
 449              	.LBB278:
 450              	.LBB271:
ARM GAS  /tmp/ccDQUTww.s 			page 9


 451              	.LBI271:
 452              		.file 5 "../../../external/ChibiOS/os/common/ports/ARMCMx/chcore_v7m.h"
 453              		.loc 5 669 27 view .LVU134
 454              	.LBE271:
 455              	.LBE278:
 456              	.LBE282:
 457              		.loc 5 677 3 view .LVU135
 458              	.LBB283:
 459              	.LBB279:
 460              	.LBB276:
 461              	.LBB272:
 462              	.LBI272:
 463              		.file 6 "../../../external/ChibiOS/os/common/ext/ARM/CMSIS/Core/Include/cmsis_gcc.h"
 464              		.loc 6 491 27 view .LVU136
 465              	.LBB273:
 466              		.loc 6 493 3 view .LVU137
 467              	.LBE273:
 468              	.LBE272:
 469              	.LBE276:
 470              	.LBE279:
 471              	.LBE283:
 472              		.loc 1 191 54 is_stmt 0 view .LVU138
 473 00e0 08B5     		push	{r3, lr}
 474              		.cfi_def_cfa_offset 8
 475              		.cfi_offset 3, -8
 476              		.cfi_offset 14, -4
 477              	.LBB284:
 478              	.LBB280:
 479              	.LBB277:
 480              	.LBB275:
 481              	.LBB274:
 482              		.loc 6 493 3 view .LVU139
 483 00e2 2023     		movs	r3, #32
 484              		.syntax unified
 485              	@ 493 "../../../external/ChibiOS/os/common/ext/ARM/CMSIS/Core/Include/cmsis_gcc.h" 1
 486 00e4 83F31188 		MSR basepri, r3
 487              	@ 0 "" 2
 488              	.LVL28:
 489              		.loc 6 493 3 view .LVU140
 490              		.thumb
 491              		.syntax unified
 492              	.LBE274:
 493              	.LBE275:
 494              	.LBE277:
 495              	.LBE280:
 496              	.LBE284:
 497              		.loc 4 356 34 is_stmt 1 view .LVU141
 498              		.loc 4 357 20 view .LVU142
 499              		.loc 1 195 3 view .LVU143
 500              		.loc 1 195 9 is_stmt 0 view .LVU144
 501 00e8 FFF7FEFF 		bl	ibqGetFullBufferTimeoutS
 502              	.LVL29:
 503              		.loc 1 196 3 is_stmt 1 view .LVU145
 504              	.LBB285:
 505              	.LBI285:
 506              		.loc 3 520 20 view .LVU146
 507              	.LBE285:
ARM GAS  /tmp/ccDQUTww.s 			page 10


 508              		.loc 3 522 3 view .LVU147
 509              	.LBB294:
 510              	.LBB286:
 511              	.LBI286:
 512              		.loc 4 365 20 view .LVU148
 513              	.LBB287:
 514              		.loc 4 367 22 view .LVU149
 515              		.loc 4 368 33 view .LVU150
 516              		.loc 4 374 3 view .LVU151
 517              		.loc 4 374 3 view .LVU152
 518              		.loc 4 378 3 view .LVU153
 519              	.LBB288:
 520              	.LBI288:
 521              		.loc 5 693 27 view .LVU154
 522              	.LBE288:
 523              	.LBE287:
 524              	.LBE286:
 525              	.LBE294:
 526              		.loc 5 696 3 view .LVU155
 527              	.LBB295:
 528              	.LBB293:
 529              	.LBB292:
 530              	.LBB291:
 531              	.LBB289:
 532              	.LBI289:
 533              		.loc 6 491 27 view .LVU156
 534              	.LBB290:
 535              		.loc 6 493 3 view .LVU157
 536 00ec 0023     		movs	r3, #0
 537              		.syntax unified
 538              	@ 493 "../../../external/ChibiOS/os/common/ext/ARM/CMSIS/Core/Include/cmsis_gcc.h" 1
 539 00ee 83F31188 		MSR basepri, r3
 540              	@ 0 "" 2
 541              	.LVL30:
 542              		.loc 6 493 3 is_stmt 0 view .LVU158
 543              		.thumb
 544              		.syntax unified
 545              	.LBE290:
 546              	.LBE289:
 547              	.LBE291:
 548              	.LBE292:
 549              	.LBE293:
 550              	.LBE295:
 551              		.loc 1 198 3 is_stmt 1 view .LVU159
 552              		.loc 1 199 1 is_stmt 0 view .LVU160
 553 00f2 08BD     		pop	{r3, pc}
 554              		.cfi_endproc
 555              	.LFE366:
 556              		.size	ibqGetFullBufferTimeout, .-ibqGetFullBufferTimeout
 557              		.align	1
 558 00f4 AFF30080 		.p2align 4,,15
 558      AFF30080 
 558      AFF30080 
 559              		.global	ibqReleaseEmptyBuffer
 560              		.syntax unified
 561              		.thumb
 562              		.thumb_func
ARM GAS  /tmp/ccDQUTww.s 			page 11


 563              		.fpu fpv4-sp-d16
 564              		.type	ibqReleaseEmptyBuffer, %function
 565              	ibqReleaseEmptyBuffer:
 566              	.LVL31:
 567              	.LFB368:
 568              		.loc 1 254 57 is_stmt 1 view -0
 569              		.cfi_startproc
 570              		@ args = 0, pretend = 0, frame = 0
 571              		@ frame_needed = 0, uses_anonymous_args = 0
 572              		.loc 1 256 3 view .LVU162
 573              	.LBB296:
 574              	.LBI296:
 575              		.loc 3 509 20 view .LVU163
 576              	.LBE296:
 577              		.loc 3 511 3 view .LVU164
 578              	.LBB308:
 579              	.LBB297:
 580              	.LBI297:
 581              		.loc 4 353 20 view .LVU165
 582              	.LBE297:
 583              	.LBE308:
 584              		.loc 4 355 3 view .LVU166
 585              	.LBB309:
 586              	.LBB305:
 587              	.LBB298:
 588              	.LBI298:
 589              		.loc 5 669 27 view .LVU167
 590              	.LBE298:
 591              	.LBE305:
 592              	.LBE309:
 593              		.loc 5 677 3 view .LVU168
 594              	.LBB310:
 595              	.LBB306:
 596              	.LBB303:
 597              	.LBB299:
 598              	.LBI299:
 599              		.loc 6 491 27 view .LVU169
 600              	.LBB300:
 601              		.loc 6 493 3 view .LVU170
 602              	.LBE300:
 603              	.LBE299:
 604              	.LBE303:
 605              	.LBE306:
 606              	.LBE310:
 607              		.loc 1 254 57 is_stmt 0 view .LVU171
 608 0100 10B5     		push	{r4, lr}
 609              		.cfi_def_cfa_offset 8
 610              		.cfi_offset 4, -8
 611              		.cfi_offset 14, -4
 612              	.LBB311:
 613              	.LBB307:
 614              	.LBB304:
 615              	.LBB302:
 616              	.LBB301:
 617              		.loc 6 493 3 view .LVU172
 618 0102 2023     		movs	r3, #32
 619              		.syntax unified
ARM GAS  /tmp/ccDQUTww.s 			page 12


 620              	@ 493 "../../../external/ChibiOS/os/common/ext/ARM/CMSIS/Core/Include/cmsis_gcc.h" 1
 621 0104 83F31188 		MSR basepri, r3
 622              	@ 0 "" 2
 623              	.LVL32:
 624              		.loc 6 493 3 view .LVU173
 625              		.thumb
 626              		.syntax unified
 627              	.LBE301:
 628              	.LBE302:
 629              	.LBE304:
 630              	.LBE307:
 631              	.LBE311:
 632              		.loc 4 356 34 is_stmt 1 view .LVU174
 633              		.loc 4 357 20 view .LVU175
 634              		.loc 1 257 3 view .LVU176
 635              	.LBB312:
 636              	.LBI312:
 637              		.loc 1 269 8 view .LVU177
 638              	.LBB313:
 639              		.loc 1 271 23 view .LVU178
 640              		.loc 1 272 3 view .LVU179
 641              		.loc 1 272 3 view .LVU180
 642              		.loc 1 275 3 view .LVU181
 643              		.loc 1 276 16 is_stmt 0 view .LVU182
 644 0108 4369     		ldr	r3, [r0, #20]
 645 010a C469     		ldr	r4, [r0, #28]
 646              		.loc 1 275 7 view .LVU183
 647 010c C268     		ldr	r2, [r0, #12]
 648              		.loc 1 276 16 view .LVU184
 649 010e 2344     		add	r3, r3, r4
 650              		.loc 1 277 6 view .LVU185
 651 0110 8169     		ldr	r1, [r0, #24]
 652              		.loc 1 275 17 view .LVU186
 653 0112 013A     		subs	r2, r2, #1
 654              		.loc 1 277 6 view .LVU187
 655 0114 8B42     		cmp	r3, r1
 656              		.loc 1 276 16 view .LVU188
 657 0116 4361     		str	r3, [r0, #20]
 658              		.loc 1 275 17 view .LVU189
 659 0118 C260     		str	r2, [r0, #12]
 660              		.loc 1 276 3 is_stmt 1 view .LVU190
 661              		.loc 1 277 3 view .LVU191
 662              		.loc 1 277 6 is_stmt 0 view .LVU192
 663 011a 01D3     		bcc	.L25
 664              		.loc 1 278 5 is_stmt 1 view .LVU193
 665              		.loc 1 278 18 is_stmt 0 view .LVU194
 666 011c 436A     		ldr	r3, [r0, #36]
 667 011e 4361     		str	r3, [r0, #20]
 668              	.L25:
 669              		.loc 1 282 3 is_stmt 1 view .LVU195
 670              		.loc 1 282 13 is_stmt 0 view .LVU196
 671 0120 0022     		movs	r2, #0
 672              		.loc 1 285 11 view .LVU197
 673 0122 036B     		ldr	r3, [r0, #48]
 674              		.loc 1 282 13 view .LVU198
 675 0124 8262     		str	r2, [r0, #40]
 676              		.loc 1 285 3 is_stmt 1 view .LVU199
ARM GAS  /tmp/ccDQUTww.s 			page 13


 677              		.loc 1 285 6 is_stmt 0 view .LVU200
 678 0126 03B1     		cbz	r3, .L26
 679              		.loc 1 286 5 is_stmt 1 view .LVU201
 680 0128 9847     		blx	r3
 681              	.LVL33:
 682              	.L26:
 683              		.loc 1 286 5 is_stmt 0 view .LVU202
 684              	.LBE313:
 685              	.LBE312:
 686              		.loc 1 258 3 is_stmt 1 view .LVU203
 687              	.LBB314:
 688              	.LBI314:
 689              		.loc 3 520 20 view .LVU204
 690              	.LBE314:
 691              		.loc 3 522 3 view .LVU205
 692              	.LBB323:
 693              	.LBB315:
 694              	.LBI315:
 695              		.loc 4 365 20 view .LVU206
 696              	.LBB316:
 697              		.loc 4 367 22 view .LVU207
 698              		.loc 4 368 33 view .LVU208
 699              		.loc 4 374 3 view .LVU209
 700              		.loc 4 374 3 view .LVU210
 701              		.loc 4 378 3 view .LVU211
 702              	.LBB317:
 703              	.LBI317:
 704              		.loc 5 693 27 view .LVU212
 705              	.LBE317:
 706              	.LBE316:
 707              	.LBE315:
 708              	.LBE323:
 709              		.loc 5 696 3 view .LVU213
 710              	.LBB324:
 711              	.LBB322:
 712              	.LBB321:
 713              	.LBB320:
 714              	.LBB318:
 715              	.LBI318:
 716              		.loc 6 491 27 view .LVU214
 717              	.LBB319:
 718              		.loc 6 493 3 view .LVU215
 719 012a 0023     		movs	r3, #0
 720              		.syntax unified
 721              	@ 493 "../../../external/ChibiOS/os/common/ext/ARM/CMSIS/Core/Include/cmsis_gcc.h" 1
 722 012c 83F31188 		MSR basepri, r3
 723              	@ 0 "" 2
 724              	.LVL34:
 725              		.loc 6 493 3 is_stmt 0 view .LVU216
 726              		.thumb
 727              		.syntax unified
 728              	.LBE319:
 729              	.LBE318:
 730              	.LBE320:
 731              	.LBE321:
 732              	.LBE322:
 733              	.LBE324:
ARM GAS  /tmp/ccDQUTww.s 			page 14


 734              		.loc 1 259 1 view .LVU217
 735 0130 10BD     		pop	{r4, pc}
 736              		.cfi_endproc
 737              	.LFE368:
 738              		.size	ibqReleaseEmptyBuffer, .-ibqReleaseEmptyBuffer
 739              		.align	1
 740 0132 00BFAFF3 		.p2align 4,,15
 740      0080AFF3 
 740      0080AFF3 
 740      0080
 741              		.global	ibqReleaseEmptyBufferS
 742              		.syntax unified
 743              		.thumb
 744              		.thumb_func
 745              		.fpu fpv4-sp-d16
 746              		.type	ibqReleaseEmptyBufferS, %function
 747              	ibqReleaseEmptyBufferS:
 748              	.LVL35:
 749              	.LFB369:
 750              		.loc 1 269 60 is_stmt 1 view -0
 751              		.cfi_startproc
 752              		@ args = 0, pretend = 0, frame = 0
 753              		@ frame_needed = 0, uses_anonymous_args = 0
 754              		@ link register save eliminated.
 755              		.loc 1 271 23 view .LVU219
 756              		.loc 1 272 3 view .LVU220
 757              		.loc 1 272 3 view .LVU221
 758              		.loc 1 275 3 view .LVU222
 759              		.loc 1 276 16 is_stmt 0 view .LVU223
 760 0140 4369     		ldr	r3, [r0, #20]
 761              		.loc 1 275 7 view .LVU224
 762 0142 C268     		ldr	r2, [r0, #12]
 763              		.loc 1 277 6 view .LVU225
 764 0144 8169     		ldr	r1, [r0, #24]
 765              		.loc 1 275 17 view .LVU226
 766 0146 013A     		subs	r2, r2, #1
 767              		.loc 1 269 60 view .LVU227
 768 0148 10B4     		push	{r4}
 769              		.cfi_def_cfa_offset 4
 770              		.cfi_offset 4, -4
 771              		.loc 1 276 16 view .LVU228
 772 014a C469     		ldr	r4, [r0, #28]
 773              		.loc 1 275 17 view .LVU229
 774 014c C260     		str	r2, [r0, #12]
 775              		.loc 1 276 3 is_stmt 1 view .LVU230
 776              		.loc 1 276 16 is_stmt 0 view .LVU231
 777 014e 2344     		add	r3, r3, r4
 778              		.loc 1 277 6 view .LVU232
 779 0150 8B42     		cmp	r3, r1
 780              		.loc 1 276 16 view .LVU233
 781 0152 4361     		str	r3, [r0, #20]
 782              		.loc 1 277 3 is_stmt 1 view .LVU234
 783              		.loc 1 277 6 is_stmt 0 view .LVU235
 784 0154 01D3     		bcc	.L32
 785              		.loc 1 278 5 is_stmt 1 view .LVU236
 786              		.loc 1 278 18 is_stmt 0 view .LVU237
 787 0156 436A     		ldr	r3, [r0, #36]
ARM GAS  /tmp/ccDQUTww.s 			page 15


 788 0158 4361     		str	r3, [r0, #20]
 789              	.L32:
 790              		.loc 1 282 3 is_stmt 1 view .LVU238
 791              		.loc 1 282 13 is_stmt 0 view .LVU239
 792 015a 0022     		movs	r2, #0
 793              		.loc 1 285 11 view .LVU240
 794 015c 036B     		ldr	r3, [r0, #48]
 795              		.loc 1 282 13 view .LVU241
 796 015e 8262     		str	r2, [r0, #40]
 797              		.loc 1 285 3 is_stmt 1 view .LVU242
 798              		.loc 1 285 6 is_stmt 0 view .LVU243
 799 0160 13B1     		cbz	r3, .L31
 800              		.loc 1 286 5 is_stmt 1 view .LVU244
 801              		.loc 1 288 1 is_stmt 0 view .LVU245
 802 0162 5DF8044B 		ldr	r4, [sp], #4
 803              		.cfi_remember_state
 804              		.cfi_restore 4
 805              		.cfi_def_cfa_offset 0
 806              		.loc 1 286 5 view .LVU246
 807 0166 1847     		bx	r3	@ indirect register sibling call
 808              	.LVL36:
 809              	.L31:
 810              		.cfi_restore_state
 811              		.loc 1 288 1 view .LVU247
 812 0168 5DF8044B 		ldr	r4, [sp], #4
 813              		.cfi_restore 4
 814              		.cfi_def_cfa_offset 0
 815 016c 7047     		bx	lr
 816              		.cfi_endproc
 817              	.LFE369:
 818              		.size	ibqReleaseEmptyBufferS, .-ibqReleaseEmptyBufferS
 819              		.align	1
 820 016e 00BF     		.p2align 4,,15
 821              		.global	ibqGetTimeout
 822              		.syntax unified
 823              		.thumb
 824              		.thumb_func
 825              		.fpu fpv4-sp-d16
 826              		.type	ibqGetTimeout, %function
 827              	ibqGetTimeout:
 828              	.LVL37:
 829              	.LFB370:
 830              		.loc 1 309 73 is_stmt 1 view -0
 831              		.cfi_startproc
 832              		@ args = 0, pretend = 0, frame = 0
 833              		@ frame_needed = 0, uses_anonymous_args = 0
 834              		.loc 1 310 3 view .LVU249
 835              		.loc 1 312 3 view .LVU250
 836              	.LBB325:
 837              	.LBI325:
 838              		.loc 3 509 20 view .LVU251
 839              	.LBE325:
 840              		.loc 3 511 3 view .LVU252
 841              	.LBB341:
 842              	.LBB326:
 843              	.LBI326:
 844              		.loc 4 353 20 view .LVU253
ARM GAS  /tmp/ccDQUTww.s 			page 16


 845              	.LBE326:
 846              	.LBE341:
 847              		.loc 4 355 3 view .LVU254
 848              	.LBB342:
 849              	.LBB337:
 850              	.LBB327:
 851              	.LBI327:
 852              		.loc 5 669 27 view .LVU255
 853              	.LBE327:
 854              	.LBE337:
 855              	.LBE342:
 856              		.loc 5 677 3 view .LVU256
 857              	.LBB343:
 858              	.LBB338:
 859              	.LBB334:
 860              	.LBB328:
 861              	.LBI328:
 862              		.loc 6 491 27 view .LVU257
 863              	.LBB329:
 864              		.loc 6 493 3 view .LVU258
 865              	.LBE329:
 866              	.LBE328:
 867              	.LBE334:
 868              	.LBE338:
 869              	.LBE343:
 870              		.loc 1 309 73 is_stmt 0 view .LVU259
 871 0170 70B5     		push	{r4, r5, r6, lr}
 872              		.cfi_def_cfa_offset 16
 873              		.cfi_offset 4, -16
 874              		.cfi_offset 5, -12
 875              		.cfi_offset 6, -8
 876              		.cfi_offset 14, -4
 877              	.LBB344:
 878              	.LBB339:
 879              	.LBB335:
 880              	.LBB332:
 881              	.LBB330:
 882              		.loc 6 493 3 view .LVU260
 883 0172 2023     		movs	r3, #32
 884              	.LBE330:
 885              	.LBE332:
 886              	.LBE335:
 887              	.LBE339:
 888              	.LBE344:
 889              		.loc 1 309 73 view .LVU261
 890 0174 0446     		mov	r4, r0
 891              	.LBB345:
 892              	.LBB340:
 893              	.LBB336:
 894              	.LBB333:
 895              	.LBB331:
 896              		.loc 6 493 3 view .LVU262
 897              		.syntax unified
 898              	@ 493 "../../../external/ChibiOS/os/common/ext/ARM/CMSIS/Core/Include/cmsis_gcc.h" 1
 899 0176 83F31188 		MSR basepri, r3
 900              	@ 0 "" 2
 901              	.LVL38:
ARM GAS  /tmp/ccDQUTww.s 			page 17


 902              		.loc 6 493 3 view .LVU263
 903              		.thumb
 904              		.syntax unified
 905              	.LBE331:
 906              	.LBE333:
 907              	.LBE336:
 908              	.LBE340:
 909              	.LBE345:
 910              		.loc 4 356 34 is_stmt 1 view .LVU264
 911              		.loc 4 357 20 view .LVU265
 912              		.loc 1 315 3 view .LVU266
 913              		.loc 1 315 11 is_stmt 0 view .LVU267
 914 017a 856A     		ldr	r5, [r0, #40]
 915              		.loc 1 315 6 view .LVU268
 916 017c E5B1     		cbz	r5, .L47
 917              	.LVL39:
 918              	.L36:
 919              		.loc 1 324 3 is_stmt 1 view .LVU269
 920              		.loc 1 324 7 is_stmt 0 view .LVU270
 921 017e 15F8016B 		ldrb	r6, [r5], #1	@ zero_extendqisi2
 922              	.LVL40:
 923              		.loc 1 325 3 is_stmt 1 view .LVU271
 924              		.loc 1 329 6 is_stmt 0 view .LVU272
 925 0182 E26A     		ldr	r2, [r4, #44]
 926              		.loc 1 325 12 view .LVU273
 927 0184 A562     		str	r5, [r4, #40]
 928              		.loc 1 329 3 is_stmt 1 view .LVU274
 929              		.loc 1 329 6 is_stmt 0 view .LVU275
 930 0186 9542     		cmp	r5, r2
 931 0188 11D3     		bcc	.L40
 932              		.loc 1 330 5 is_stmt 1 view .LVU276
 933              	.LVL41:
 934              	.LBB346:
 935              	.LBI346:
 936              		.loc 1 269 8 view .LVU277
 937              	.LBB347:
 938              		.loc 1 271 23 view .LVU278
 939              		.loc 1 272 3 view .LVU279
 940              		.loc 1 272 3 view .LVU280
 941              		.loc 1 275 3 view .LVU281
 942              		.loc 1 276 16 is_stmt 0 view .LVU282
 943 018a 6369     		ldr	r3, [r4, #20]
 944 018c E069     		ldr	r0, [r4, #28]
 945              		.loc 1 275 7 view .LVU283
 946 018e E268     		ldr	r2, [r4, #12]
 947              		.loc 1 276 16 view .LVU284
 948 0190 0344     		add	r3, r3, r0
 949              		.loc 1 277 6 view .LVU285
 950 0192 A169     		ldr	r1, [r4, #24]
 951              		.loc 1 275 17 view .LVU286
 952 0194 013A     		subs	r2, r2, #1
 953              		.loc 1 277 6 view .LVU287
 954 0196 8B42     		cmp	r3, r1
 955              		.loc 1 276 16 view .LVU288
 956 0198 6361     		str	r3, [r4, #20]
 957              		.loc 1 275 17 view .LVU289
 958 019a E260     		str	r2, [r4, #12]
ARM GAS  /tmp/ccDQUTww.s 			page 18


 959              		.loc 1 276 3 is_stmt 1 view .LVU290
 960              		.loc 1 277 3 view .LVU291
 961              		.loc 1 277 6 is_stmt 0 view .LVU292
 962 019c 01D3     		bcc	.L41
 963              		.loc 1 278 5 is_stmt 1 view .LVU293
 964              		.loc 1 278 18 is_stmt 0 view .LVU294
 965 019e 636A     		ldr	r3, [r4, #36]
 966 01a0 6361     		str	r3, [r4, #20]
 967              	.L41:
 968              		.loc 1 282 3 is_stmt 1 view .LVU295
 969              		.loc 1 282 13 is_stmt 0 view .LVU296
 970 01a2 0022     		movs	r2, #0
 971              		.loc 1 285 11 view .LVU297
 972 01a4 236B     		ldr	r3, [r4, #48]
 973              		.loc 1 282 13 view .LVU298
 974 01a6 A262     		str	r2, [r4, #40]
 975              		.loc 1 285 3 is_stmt 1 view .LVU299
 976              		.loc 1 285 6 is_stmt 0 view .LVU300
 977 01a8 0BB1     		cbz	r3, .L40
 978              		.loc 1 286 5 is_stmt 1 view .LVU301
 979 01aa 2046     		mov	r0, r4
 980 01ac 9847     		blx	r3
 981              	.LVL42:
 982              	.L40:
 983              		.loc 1 286 5 is_stmt 0 view .LVU302
 984              	.LBE347:
 985              	.LBE346:
 986              		.loc 1 333 3 is_stmt 1 view .LVU303
 987              	.LBB348:
 988              	.LBI348:
 989              		.loc 3 520 20 view .LVU304
 990              	.LBE348:
 991              		.loc 3 522 3 view .LVU305
 992              	.LBB357:
 993              	.LBB349:
 994              	.LBI349:
 995              		.loc 4 365 20 view .LVU306
 996              	.LBB350:
 997              		.loc 4 367 22 view .LVU307
 998              		.loc 4 368 33 view .LVU308
 999              		.loc 4 374 3 view .LVU309
 1000              		.loc 4 374 3 view .LVU310
 1001              		.loc 4 378 3 view .LVU311
 1002              	.LBB351:
 1003              	.LBI351:
 1004              		.loc 5 693 27 view .LVU312
 1005              	.LBE351:
 1006              	.LBE350:
 1007              	.LBE349:
 1008              	.LBE357:
 1009              		.loc 5 696 3 view .LVU313
 1010              	.LBB358:
 1011              	.LBB356:
 1012              	.LBB355:
 1013              	.LBB354:
 1014              	.LBB352:
 1015              	.LBI352:
ARM GAS  /tmp/ccDQUTww.s 			page 19


 1016              		.loc 6 491 27 view .LVU314
 1017              	.LBB353:
 1018              		.loc 6 493 3 view .LVU315
 1019 01ae 0023     		movs	r3, #0
 1020              		.syntax unified
 1021              	@ 493 "../../../external/ChibiOS/os/common/ext/ARM/CMSIS/Core/Include/cmsis_gcc.h" 1
 1022 01b0 83F31188 		MSR basepri, r3
 1023              	@ 0 "" 2
 1024              	.LVL43:
 1025              		.loc 6 493 3 is_stmt 0 view .LVU316
 1026              		.thumb
 1027              		.syntax unified
 1028              	.LBE353:
 1029              	.LBE352:
 1030              	.LBE354:
 1031              	.LBE355:
 1032              	.LBE356:
 1033              	.LBE358:
 1034              		.loc 1 334 3 is_stmt 1 view .LVU317
 1035              	.L35:
 1036              		.loc 1 335 1 is_stmt 0 view .LVU318
 1037 01b4 3046     		mov	r0, r6
 1038 01b6 70BD     		pop	{r4, r5, r6, pc}
 1039              	.LVL44:
 1040              	.L47:
 1041              		.loc 1 316 5 is_stmt 1 view .LVU319
 1042              		.loc 1 316 11 is_stmt 0 view .LVU320
 1043 01b8 FFF7FEFF 		bl	ibqGetFullBufferTimeoutS
 1044              	.LVL45:
 1045              		.loc 1 317 5 is_stmt 1 view .LVU321
 1046              		.loc 1 317 8 is_stmt 0 view .LVU322
 1047 01bc 0646     		mov	r6, r0
 1048 01be 08B9     		cbnz	r0, .L37
 1049 01c0 A56A     		ldr	r5, [r4, #40]
 1050 01c2 DCE7     		b	.L36
 1051              	.L37:
 1052              		.loc 1 318 7 is_stmt 1 view .LVU323
 1053              	.LBB359:
 1054              	.LBI359:
 1055              		.loc 3 520 20 view .LVU324
 1056              	.LBE359:
 1057              		.loc 3 522 3 view .LVU325
 1058              	.LBB368:
 1059              	.LBB360:
 1060              	.LBI360:
 1061              		.loc 4 365 20 view .LVU326
 1062              	.LBB361:
 1063              		.loc 4 367 22 view .LVU327
 1064              		.loc 4 368 33 view .LVU328
 1065              		.loc 4 374 3 view .LVU329
 1066              		.loc 4 374 3 view .LVU330
 1067              		.loc 4 378 3 view .LVU331
 1068              	.LBB362:
 1069              	.LBI362:
 1070              		.loc 5 693 27 view .LVU332
 1071              	.LBE362:
 1072              	.LBE361:
ARM GAS  /tmp/ccDQUTww.s 			page 20


 1073              	.LBE360:
 1074              	.LBE368:
 1075              		.loc 5 696 3 view .LVU333
 1076              	.LVL46:
 1077              	.LBB369:
 1078              	.LBB367:
 1079              	.LBB366:
 1080              	.LBB365:
 1081              	.LBB363:
 1082              	.LBI363:
 1083              		.loc 6 491 27 view .LVU334
 1084              	.LBB364:
 1085              		.loc 6 493 3 view .LVU335
 1086              		.syntax unified
 1087              	@ 493 "../../../external/ChibiOS/os/common/ext/ARM/CMSIS/Core/Include/cmsis_gcc.h" 1
 1088 01c4 85F31188 		MSR basepri, r5
 1089              	@ 0 "" 2
 1090              	.LVL47:
 1091              		.loc 6 493 3 is_stmt 0 view .LVU336
 1092              		.thumb
 1093              		.syntax unified
 1094              	.LBE364:
 1095              	.LBE363:
 1096              	.LBE365:
 1097              	.LBE366:
 1098              	.LBE367:
 1099              	.LBE369:
 1100              		.loc 1 319 7 is_stmt 1 view .LVU337
 1101              		.loc 1 319 14 is_stmt 0 view .LVU338
 1102 01c8 F4E7     		b	.L35
 1103              		.cfi_endproc
 1104              	.LFE370:
 1105              		.size	ibqGetTimeout, .-ibqGetTimeout
 1106              		.align	1
 1107 01ca 00BFAFF3 		.p2align 4,,15
 1107      0080
 1108              		.global	ibqReadTimeout
 1109              		.syntax unified
 1110              		.thumb
 1111              		.thumb_func
 1112              		.fpu fpv4-sp-d16
 1113              		.type	ibqReadTimeout, %function
 1114              	ibqReadTimeout:
 1115              	.LVL48:
 1116              	.LFB371:
 1117              		.loc 1 359 56 is_stmt 1 view -0
 1118              		.cfi_startproc
 1119              		@ args = 0, pretend = 0, frame = 8
 1120              		@ frame_needed = 0, uses_anonymous_args = 0
 1121              		.loc 1 360 3 view .LVU340
 1122              		.loc 1 362 3 view .LVU341
 1123              		.loc 1 362 3 view .LVU342
 1124              		.loc 1 364 3 view .LVU343
 1125              	.LBB370:
 1126              	.LBI370:
 1127              		.loc 3 509 20 view .LVU344
 1128              	.LBE370:
ARM GAS  /tmp/ccDQUTww.s 			page 21


 1129              		.loc 3 511 3 view .LVU345
 1130              	.LBB382:
 1131              	.LBB371:
 1132              	.LBI371:
 1133              		.loc 4 353 20 view .LVU346
 1134              	.LBE371:
 1135              	.LBE382:
 1136              		.loc 4 355 3 view .LVU347
 1137              	.LBB383:
 1138              	.LBB379:
 1139              	.LBB372:
 1140              	.LBI372:
 1141              		.loc 5 669 27 view .LVU348
 1142              	.LBE372:
 1143              	.LBE379:
 1144              	.LBE383:
 1145              		.loc 5 677 3 view .LVU349
 1146              	.LBB384:
 1147              	.LBB380:
 1148              	.LBB377:
 1149              	.LBB373:
 1150              	.LBI373:
 1151              		.loc 6 491 27 view .LVU350
 1152              	.LBB374:
 1153              		.loc 6 493 3 view .LVU351
 1154              	.LBE374:
 1155              	.LBE373:
 1156              	.LBE377:
 1157              	.LBE380:
 1158              	.LBE384:
 1159              		.loc 1 359 56 is_stmt 0 view .LVU352
 1160 01d0 2DE9F04F 		push	{r4, r5, r6, r7, r8, r9, r10, fp, lr}
 1161              		.cfi_def_cfa_offset 36
 1162              		.cfi_offset 4, -36
 1163              		.cfi_offset 5, -32
 1164              		.cfi_offset 6, -28
 1165              		.cfi_offset 7, -24
 1166              		.cfi_offset 8, -20
 1167              		.cfi_offset 9, -16
 1168              		.cfi_offset 10, -12
 1169              		.cfi_offset 11, -8
 1170              		.cfi_offset 14, -4
 1171 01d4 83B0     		sub	sp, sp, #12
 1172              		.cfi_def_cfa_offset 48
 1173              		.loc 1 359 56 view .LVU353
 1174 01d6 0546     		mov	r5, r0
 1175 01d8 0E46     		mov	r6, r1
 1176 01da 1746     		mov	r7, r2
 1177 01dc 0193     		str	r3, [sp, #4]
 1178              	.LBB385:
 1179              	.LBB381:
 1180              	.LBB378:
 1181              	.LBB376:
 1182              	.LBB375:
 1183              		.loc 6 493 3 view .LVU354
 1184 01de 4FF02009 		mov	r9, #32
 1185              		.syntax unified
ARM GAS  /tmp/ccDQUTww.s 			page 22


 1186              	@ 493 "../../../external/ChibiOS/os/common/ext/ARM/CMSIS/Core/Include/cmsis_gcc.h" 1
 1187 01e2 89F31188 		MSR basepri, r9
 1188              	@ 0 "" 2
 1189              	.LVL49:
 1190              		.loc 6 493 3 view .LVU355
 1191              		.thumb
 1192              		.syntax unified
 1193              	.LBE375:
 1194              	.LBE376:
 1195              	.LBE378:
 1196              	.LBE381:
 1197              	.LBE385:
 1198              		.loc 4 356 34 is_stmt 1 view .LVU356
 1199              		.loc 4 357 20 view .LVU357
 1200              		.loc 1 360 10 is_stmt 0 view .LVU358
 1201 01e6 4FF0000B 		mov	fp, #0
 1202              	.LVL50:
 1203              		.loc 1 366 3 is_stmt 1 view .LVU359
 1204              	.LBB386:
 1205              		.loc 1 367 5 view .LVU360
 1206              		.loc 1 370 5 view .LVU361
 1207              		.loc 1 370 13 is_stmt 0 view .LVU362
 1208 01ea AC6A     		ldr	r4, [r5, #40]
 1209              	.LBB387:
 1210              	.LBB388:
 1211              		.loc 1 282 13 view .LVU363
 1212 01ec D846     		mov	r8, fp
 1213              	.LBE388:
 1214              	.LBE387:
 1215              		.loc 1 370 8 view .LVU364
 1216 01ee 002C     		cmp	r4, #0
 1217 01f0 45D0     		beq	.L65
 1218              	.LVL51:
 1219              	.L49:
 1220              		.loc 1 384 5 is_stmt 1 view .LVU365
 1221              		.loc 1 384 10 is_stmt 0 view .LVU366
 1222 01f2 EA6A     		ldr	r2, [r5, #44]
 1223              		.loc 1 385 19 view .LVU367
 1224 01f4 A7EB0B03 		sub	r3, r7, fp
 1225              		.loc 1 393 7 view .LVU368
 1226 01f8 2146     		mov	r1, r4
 1227              		.loc 1 384 10 view .LVU369
 1228 01fa 121B     		subs	r2, r2, r4
 1229              	.LVL52:
 1230              		.loc 1 385 5 is_stmt 1 view .LVU370
 1231 01fc 9342     		cmp	r3, r2
 1232 01fe 28BF     		it	cs
 1233 0200 1346     		movcs	r3, r2
 1234              		.loc 1 391 8 is_stmt 0 view .LVU371
 1235 0202 402B     		cmp	r3, #64
 1236 0204 9A46     		mov	r10, r3
 1237              	.LVL53:
 1238              		.loc 1 391 5 is_stmt 1 view .LVU372
 1239              		.loc 1 391 8 is_stmt 0 view .LVU373
 1240 0206 41D9     		bls	.L52
 1241              		.loc 1 393 7 is_stmt 1 view .LVU374
 1242 0208 3346     		mov	r3, r6
ARM GAS  /tmp/ccDQUTww.s 			page 23


 1243              	.LVL54:
 1244              		.loc 1 393 7 is_stmt 0 view .LVU375
 1245 020a 04F1400E 		add	lr, r4, #64
 1246              	.L53:
 1247              		.loc 1 393 7 view .LVU376
 1248 020e D1F800C0 		ldr	ip, [r1]	@ unaligned
 1249 0212 1031     		adds	r1, r1, #16
 1250 0214 51F80C4C 		ldr	r4, [r1, #-12]	@ unaligned
 1251 0218 1033     		adds	r3, r3, #16
 1252 021a 51F8080C 		ldr	r0, [r1, #-8]	@ unaligned
 1253 021e 51F8042C 		ldr	r2, [r1, #-4]	@ unaligned
 1254 0222 7145     		cmp	r1, lr
 1255 0224 43F810CC 		str	ip, [r3, #-16]	@ unaligned
 1256 0228 43F80C4C 		str	r4, [r3, #-12]	@ unaligned
 1257 022c 43F8080C 		str	r0, [r3, #-8]	@ unaligned
 1258 0230 43F8042C 		str	r2, [r3, #-4]	@ unaligned
 1259 0234 EBD1     		bne	.L53
 1260              		.loc 1 394 7 is_stmt 1 view .LVU377
 1261              		.loc 1 395 17 is_stmt 0 view .LVU378
 1262 0236 AB6A     		ldr	r3, [r5, #40]
 1263              		.loc 1 394 17 view .LVU379
 1264 0238 4036     		adds	r6, r6, #64
 1265              	.LVL55:
 1266              		.loc 1 395 7 is_stmt 1 view .LVU380
 1267              		.loc 1 396 17 is_stmt 0 view .LVU381
 1268 023a 0BF1400B 		add	fp, fp, #64
 1269              	.LVL56:
 1270              		.loc 1 395 17 view .LVU382
 1271 023e 4033     		adds	r3, r3, #64
 1272 0240 AB62     		str	r3, [r5, #40]
 1273              		.loc 1 396 7 is_stmt 1 view .LVU383
 1274              	.LVL57:
 1275              	.L54:
 1276              		.loc 1 406 5 view .LVU384
 1277              		.loc 1 406 8 is_stmt 0 view .LVU385
 1278 0242 EA6A     		ldr	r2, [r5, #44]
 1279 0244 9A42     		cmp	r2, r3
 1280 0246 11D8     		bhi	.L56
 1281              		.loc 1 407 7 is_stmt 1 view .LVU386
 1282              	.LVL58:
 1283              	.LBB390:
 1284              	.LBI387:
 1285              		.loc 1 269 8 view .LVU387
 1286              	.LBB389:
 1287              		.loc 1 271 23 view .LVU388
 1288              		.loc 1 272 3 view .LVU389
 1289              		.loc 1 272 3 view .LVU390
 1290              		.loc 1 275 3 view .LVU391
 1291              		.loc 1 276 16 is_stmt 0 view .LVU392
 1292 0248 6B69     		ldr	r3, [r5, #20]
 1293 024a E969     		ldr	r1, [r5, #28]
 1294              		.loc 1 275 7 view .LVU393
 1295 024c E868     		ldr	r0, [r5, #12]
 1296              		.loc 1 276 16 view .LVU394
 1297 024e 0B44     		add	r3, r3, r1
 1298              		.loc 1 277 6 view .LVU395
 1299 0250 AA69     		ldr	r2, [r5, #24]
ARM GAS  /tmp/ccDQUTww.s 			page 24


 1300              		.loc 1 275 17 view .LVU396
 1301 0252 0138     		subs	r0, r0, #1
 1302              		.loc 1 277 6 view .LVU397
 1303 0254 9342     		cmp	r3, r2
 1304              		.loc 1 276 16 view .LVU398
 1305 0256 6B61     		str	r3, [r5, #20]
 1306              		.loc 1 275 17 view .LVU399
 1307 0258 E860     		str	r0, [r5, #12]
 1308              		.loc 1 276 3 is_stmt 1 view .LVU400
 1309              		.loc 1 277 3 view .LVU401
 1310              		.loc 1 277 6 is_stmt 0 view .LVU402
 1311 025a 01D3     		bcc	.L57
 1312              		.loc 1 278 5 is_stmt 1 view .LVU403
 1313              		.loc 1 278 18 is_stmt 0 view .LVU404
 1314 025c 6B6A     		ldr	r3, [r5, #36]
 1315 025e 6B61     		str	r3, [r5, #20]
 1316              	.L57:
 1317              		.loc 1 282 3 is_stmt 1 view .LVU405
 1318              		.loc 1 285 11 is_stmt 0 view .LVU406
 1319 0260 2B6B     		ldr	r3, [r5, #48]
 1320              		.loc 1 282 13 view .LVU407
 1321 0262 C5F82880 		str	r8, [r5, #40]
 1322              		.loc 1 285 3 is_stmt 1 view .LVU408
 1323              		.loc 1 285 6 is_stmt 0 view .LVU409
 1324 0266 0BB1     		cbz	r3, .L56
 1325              		.loc 1 286 5 is_stmt 1 view .LVU410
 1326 0268 2846     		mov	r0, r5
 1327 026a 9847     		blx	r3
 1328              	.LVL59:
 1329              	.L56:
 1330              		.loc 1 286 5 is_stmt 0 view .LVU411
 1331              	.LBE389:
 1332              	.LBE390:
 1333              		.loc 1 411 5 is_stmt 1 view .LVU412
 1334              	.LBB391:
 1335              	.LBI391:
 1336              		.loc 3 520 20 view .LVU413
 1337              	.LBE391:
 1338              	.LBE386:
 1339              		.loc 3 522 3 view .LVU414
 1340              	.LBB428:
 1341              	.LBB400:
 1342              	.LBB392:
 1343              	.LBI392:
 1344              		.loc 4 365 20 view .LVU415
 1345              	.LBB393:
 1346              		.loc 4 367 22 view .LVU416
 1347              		.loc 4 368 33 view .LVU417
 1348              		.loc 4 374 3 view .LVU418
 1349              		.loc 4 374 3 view .LVU419
 1350              		.loc 4 378 3 view .LVU420
 1351              	.LBB394:
 1352              	.LBI394:
 1353              		.loc 5 693 27 view .LVU421
 1354              	.LBE394:
 1355              	.LBE393:
 1356              	.LBE392:
ARM GAS  /tmp/ccDQUTww.s 			page 25


 1357              	.LBE400:
 1358              	.LBE428:
 1359              		.loc 5 696 3 view .LVU422
 1360              	.LBB429:
 1361              	.LBB401:
 1362              	.LBB399:
 1363              	.LBB398:
 1364              	.LBB397:
 1365              	.LBB395:
 1366              	.LBI395:
 1367              		.loc 6 491 27 view .LVU423
 1368              	.LBB396:
 1369              		.loc 6 493 3 view .LVU424
 1370              		.syntax unified
 1371              	@ 493 "../../../external/ChibiOS/os/common/ext/ARM/CMSIS/Core/Include/cmsis_gcc.h" 1
 1372 026c 88F31188 		MSR basepri, r8
 1373              	@ 0 "" 2
 1374              	.LVL60:
 1375              		.loc 6 493 3 is_stmt 0 view .LVU425
 1376              		.thumb
 1377              		.syntax unified
 1378              	.LBE396:
 1379              	.LBE395:
 1380              	.LBE397:
 1381              	.LBE398:
 1382              	.LBE399:
 1383              	.LBE401:
 1384              		.loc 1 412 5 is_stmt 1 view .LVU426
 1385              		.loc 1 412 8 is_stmt 0 view .LVU427
 1386 0270 BB45     		cmp	fp, r7
 1387 0272 18D2     		bcs	.L48
 1388              		.loc 1 415 5 is_stmt 1 view .LVU428
 1389              	.LBB402:
 1390              	.LBI402:
 1391              		.loc 3 509 20 view .LVU429
 1392              	.LBE402:
 1393              	.LBE429:
 1394              		.loc 3 511 3 view .LVU430
 1395              	.LBB430:
 1396              	.LBB410:
 1397              	.LBB403:
 1398              	.LBI403:
 1399              		.loc 4 353 20 view .LVU431
 1400              	.LBE403:
 1401              	.LBE410:
 1402              	.LBE430:
 1403              		.loc 4 355 3 view .LVU432
 1404              	.LBB431:
 1405              	.LBB411:
 1406              	.LBB408:
 1407              	.LBB404:
 1408              	.LBI404:
 1409              		.loc 5 669 27 view .LVU433
 1410              	.LBE404:
 1411              	.LBE408:
 1412              	.LBE411:
 1413              	.LBE431:
ARM GAS  /tmp/ccDQUTww.s 			page 26


 1414              		.loc 5 677 3 view .LVU434
 1415              	.LVL61:
 1416              	.LBB432:
 1417              	.LBB412:
 1418              	.LBB409:
 1419              	.LBB407:
 1420              	.LBB405:
 1421              	.LBI405:
 1422              		.loc 6 491 27 view .LVU435
 1423              	.LBB406:
 1424              		.loc 6 493 3 view .LVU436
 1425              		.syntax unified
 1426              	@ 493 "../../../external/ChibiOS/os/common/ext/ARM/CMSIS/Core/Include/cmsis_gcc.h" 1
 1427 0274 89F31188 		MSR basepri, r9
 1428              	@ 0 "" 2
 1429              	.LVL62:
 1430              		.loc 6 493 3 is_stmt 0 view .LVU437
 1431              		.thumb
 1432              		.syntax unified
 1433              	.LBE406:
 1434              	.LBE405:
 1435              	.LBE407:
 1436              	.LBE409:
 1437              	.LBE412:
 1438              	.LBE432:
 1439              		.loc 4 356 34 is_stmt 1 view .LVU438
 1440              		.loc 4 357 20 view .LVU439
 1441              		.loc 1 366 3 view .LVU440
 1442              	.LBB433:
 1443              		.loc 1 367 5 view .LVU441
 1444              		.loc 1 370 5 view .LVU442
 1445              		.loc 1 370 13 is_stmt 0 view .LVU443
 1446 0278 AC6A     		ldr	r4, [r5, #40]
 1447              		.loc 1 370 8 view .LVU444
 1448 027a 002C     		cmp	r4, #0
 1449 027c B9D1     		bne	.L49
 1450              	.LVL63:
 1451              	.L65:
 1452              	.LBB413:
 1453              		.loc 1 371 7 is_stmt 1 view .LVU445
 1454              		.loc 1 374 7 view .LVU446
 1455              		.loc 1 374 13 is_stmt 0 view .LVU447
 1456 027e 0199     		ldr	r1, [sp, #4]
 1457 0280 2846     		mov	r0, r5
 1458 0282 FFF7FEFF 		bl	ibqGetFullBufferTimeoutS
 1459              	.LVL64:
 1460              		.loc 1 377 7 is_stmt 1 view .LVU448
 1461              		.loc 1 377 10 is_stmt 0 view .LVU449
 1462 0286 60B9     		cbnz	r0, .L50
 1463 0288 AC6A     		ldr	r4, [r5, #40]
 1464 028a B2E7     		b	.L49
 1465              	.LVL65:
 1466              	.L52:
 1467              		.loc 1 377 10 view .LVU450
 1468              	.LBE413:
 1469              		.loc 1 399 7 is_stmt 1 view .LVU451
 1470 028c 1A46     		mov	r2, r3
ARM GAS  /tmp/ccDQUTww.s 			page 27


 1471 028e 3046     		mov	r0, r6
 1472              		.loc 1 402 17 is_stmt 0 view .LVU452
 1473 0290 9B44     		add	fp, fp, r3
 1474              	.LVL66:
 1475              		.loc 1 399 7 view .LVU453
 1476 0292 FFF7FEFF 		bl	memcpy
 1477              	.LVL67:
 1478              		.loc 1 400 7 is_stmt 1 view .LVU454
 1479              		.loc 1 401 17 is_stmt 0 view .LVU455
 1480 0296 AA6A     		ldr	r2, [r5, #40]
 1481              		.loc 1 400 17 view .LVU456
 1482 0298 5644     		add	r6, r6, r10
 1483              	.LVL68:
 1484              		.loc 1 401 7 is_stmt 1 view .LVU457
 1485              		.loc 1 401 17 is_stmt 0 view .LVU458
 1486 029a 02EB0A03 		add	r3, r2, r10
 1487 029e AB62     		str	r3, [r5, #40]
 1488              		.loc 1 402 7 is_stmt 1 view .LVU459
 1489              	.LVL69:
 1490              		.loc 1 402 7 is_stmt 0 view .LVU460
 1491 02a0 CFE7     		b	.L54
 1492              	.LVL70:
 1493              	.L50:
 1494              	.LBB425:
 1495              		.loc 1 378 9 is_stmt 1 view .LVU461
 1496              	.LBB414:
 1497              	.LBI414:
 1498              		.loc 3 520 20 view .LVU462
 1499              	.LBE414:
 1500              	.LBE425:
 1501              	.LBE433:
 1502              		.loc 3 522 3 view .LVU463
 1503              	.LBB434:
 1504              	.LBB426:
 1505              	.LBB423:
 1506              	.LBB415:
 1507              	.LBI415:
 1508              		.loc 4 365 20 view .LVU464
 1509              	.LBB416:
 1510              		.loc 4 367 22 view .LVU465
 1511              		.loc 4 368 33 view .LVU466
 1512              		.loc 4 374 3 view .LVU467
 1513              		.loc 4 374 3 view .LVU468
 1514              		.loc 4 378 3 view .LVU469
 1515              	.LBB417:
 1516              	.LBI417:
 1517              		.loc 5 693 27 view .LVU470
 1518              	.LBE417:
 1519              	.LBE416:
 1520              	.LBE415:
 1521              	.LBE423:
 1522              	.LBE426:
 1523              	.LBE434:
 1524              		.loc 5 696 3 view .LVU471
 1525              	.LBB435:
 1526              	.LBB427:
 1527              	.LBB424:
ARM GAS  /tmp/ccDQUTww.s 			page 28


 1528              	.LBB422:
 1529              	.LBB421:
 1530              	.LBB420:
 1531              	.LBB418:
 1532              	.LBI418:
 1533              		.loc 6 491 27 view .LVU472
 1534              	.LBB419:
 1535              		.loc 6 493 3 view .LVU473
 1536              		.syntax unified
 1537              	@ 493 "../../../external/ChibiOS/os/common/ext/ARM/CMSIS/Core/Include/cmsis_gcc.h" 1
 1538 02a2 84F31188 		MSR basepri, r4
 1539              	@ 0 "" 2
 1540              	.LVL71:
 1541              		.loc 6 493 3 is_stmt 0 view .LVU474
 1542              		.thumb
 1543              		.syntax unified
 1544              	.LBE419:
 1545              	.LBE418:
 1546              	.LBE420:
 1547              	.LBE421:
 1548              	.LBE422:
 1549              	.LBE424:
 1550              		.loc 1 379 9 is_stmt 1 view .LVU475
 1551              	.L48:
 1552              		.loc 1 379 9 is_stmt 0 view .LVU476
 1553              	.LBE427:
 1554              	.LBE435:
 1555              		.loc 1 417 1 view .LVU477
 1556 02a6 5846     		mov	r0, fp
 1557 02a8 03B0     		add	sp, sp, #12
 1558              		.cfi_def_cfa_offset 36
 1559              		@ sp needed
 1560 02aa BDE8F08F 		pop	{r4, r5, r6, r7, r8, r9, r10, fp, pc}
 1561              		.loc 1 417 1 view .LVU478
 1562              		.cfi_endproc
 1563              	.LFE371:
 1564              		.size	ibqReadTimeout, .-ibqReadTimeout
 1565              		.align	1
 1566 02ae 00BF     		.p2align 4,,15
 1567              		.global	obqObjectInit
 1568              		.syntax unified
 1569              		.thumb
 1570              		.thumb_func
 1571              		.fpu fpv4-sp-d16
 1572              		.type	obqObjectInit, %function
 1573              	obqObjectInit:
 1574              	.LVL72:
 1575              	.LFB372:
 1576              		.loc 1 433 72 is_stmt 1 view -0
 1577              		.cfi_startproc
 1578              		@ args = 12, pretend = 0, frame = 0
 1579              		@ frame_needed = 0, uses_anonymous_args = 0
 1580              		@ link register save eliminated.
 1581              		.loc 1 435 3 view .LVU480
 1582              		.loc 1 435 3 view .LVU481
 1583              		.loc 1 437 3 view .LVU482
 1584              		.loc 1 433 72 is_stmt 0 view .LVU483
ARM GAS  /tmp/ccDQUTww.s 			page 29


 1585 02b0 70B4     		push	{r4, r5, r6}
 1586              		.cfi_def_cfa_offset 12
 1587              		.cfi_offset 4, -12
 1588              		.cfi_offset 5, -8
 1589              		.cfi_offset 6, -4
 1590              		.loc 1 442 33 view .LVU484
 1591 02b2 0433     		adds	r3, r3, #4
 1592              	.LVL73:
 1593              		.loc 1 446 19 view .LVU485
 1594 02b4 0025     		movs	r5, #0
 1595              		.loc 1 438 19 view .LVU486
 1596 02b6 0172     		strb	r1, [r0, #8]
 1597              		.loc 1 443 19 view .LVU487
 1598 02b8 C361     		str	r3, [r0, #28]
 1599              		.loc 1 433 72 view .LVU488
 1600 02ba 0599     		ldr	r1, [sp, #20]
 1601              	.LVL74:
 1602              		.loc 1 445 19 view .LVU489
 1603 02bc 4262     		str	r2, [r0, #36]
 1604              		.loc 1 433 72 view .LVU490
 1605 02be DDE90346 		ldrd	r4, r6, [sp, #12]
 1606              		.loc 1 447 19 view .LVU491
 1607 02c2 C0E90A55 		strd	r5, r5, [r0, #40]
 1608              		.loc 1 442 24 view .LVU492
 1609 02c6 04FB0323 		mla	r3, r4, r3, r2
 1610              	.LVL75:
 1611              		.loc 1 439 19 view .LVU493
 1612 02ca C460     		str	r4, [r0, #12]
 1613              		.loc 1 444 19 view .LVU494
 1614 02cc 0462     		str	r4, [r0, #32]
 1615              		.loc 1 442 19 view .LVU495
 1616 02ce 8361     		str	r3, [r0, #24]
 1617              		.loc 1 449 19 view .LVU496
 1618 02d0 C0E90C61 		strd	r6, r1, [r0, #48]
 1619              	.LBB436:
 1620              	.LBB437:
 1621              	.LBB438:
 1622              	.LBB439:
 1623              		.loc 2 540 13 view .LVU497
 1624 02d4 C0E90000 		strd	r0, r0, [r0]
 1625              	.LBE439:
 1626              	.LBE438:
 1627              	.LBE437:
 1628              	.LBE436:
 1629              		.loc 1 438 3 is_stmt 1 view .LVU498
 1630              		.loc 1 439 3 view .LVU499
 1631              		.loc 1 440 3 view .LVU500
 1632              		.loc 1 441 3 view .LVU501
 1633              		.loc 1 442 3 view .LVU502
 1634              		.loc 1 443 3 view .LVU503
 1635              		.loc 1 444 3 view .LVU504
 1636              		.loc 1 445 3 view .LVU505
 1637              		.loc 1 446 3 view .LVU506
 1638              		.loc 1 448 3 view .LVU507
 1639              		.loc 1 449 3 view .LVU508
 1640              		.loc 1 441 19 is_stmt 0 view .LVU509
 1641 02d8 C0E90422 		strd	r2, r2, [r0, #16]
ARM GAS  /tmp/ccDQUTww.s 			page 30


 1642              		.loc 1 450 1 view .LVU510
 1643 02dc 70BC     		pop	{r4, r5, r6}
 1644              		.cfi_restore 6
 1645              		.cfi_restore 5
 1646              		.cfi_restore 4
 1647              		.cfi_def_cfa_offset 0
 1648              	.LVL76:
 1649              		.loc 1 450 1 view .LVU511
 1650 02de 7047     		bx	lr
 1651              		.cfi_endproc
 1652              	.LFE372:
 1653              		.size	obqObjectInit, .-obqObjectInit
 1654              		.align	1
 1655              		.p2align 4,,15
 1656              		.global	obqResetI
 1657              		.syntax unified
 1658              		.thumb
 1659              		.thumb_func
 1660              		.fpu fpv4-sp-d16
 1661              		.type	obqResetI, %function
 1662              	obqResetI:
 1663              	.LVL77:
 1664              	.LFB373:
 1665              		.loc 1 463 46 is_stmt 1 view -0
 1666              		.cfi_startproc
 1667              		@ args = 0, pretend = 0, frame = 0
 1668              		@ frame_needed = 0, uses_anonymous_args = 0
 1669              		@ link register save eliminated.
 1670              		.loc 1 465 23 view .LVU513
 1671              		.loc 1 467 3 view .LVU514
 1672              		.loc 1 463 46 is_stmt 0 view .LVU515
 1673 02e0 30B4     		push	{r4, r5}
 1674              		.cfi_def_cfa_offset 8
 1675              		.cfi_offset 4, -8
 1676              		.cfi_offset 5, -4
 1677              		.loc 1 470 19 view .LVU516
 1678 02e2 0022     		movs	r2, #0
 1679              	.LBB440:
 1680              	.LBB441:
 1681              		.loc 3 857 3 view .LVU517
 1682 02e4 6FF00101 		mvn	r1, #1
 1683              	.LBE441:
 1684              	.LBE440:
 1685              		.loc 1 468 25 view .LVU518
 1686 02e8 D0E90854 		ldrd	r5, r4, [r0, #32]
 1687              		.loc 1 471 19 view .LVU519
 1688 02ec C0E90A22 		strd	r2, r2, [r0, #40]
 1689              		.loc 1 467 19 view .LVU520
 1690 02f0 C560     		str	r5, [r0, #12]
 1691              		.loc 1 468 3 is_stmt 1 view .LVU521
 1692              		.loc 1 469 19 is_stmt 0 view .LVU522
 1693 02f2 C0E90444 		strd	r4, r4, [r0, #16]
 1694              		.loc 1 470 3 is_stmt 1 view .LVU523
 1695              		.loc 1 472 3 view .LVU524
 1696              	.LVL78:
 1697              	.LBB444:
 1698              	.LBI440:
ARM GAS  /tmp/ccDQUTww.s 			page 31


 1699              		.loc 3 855 20 view .LVU525
 1700              	.LBB442:
 1701              		.loc 3 857 3 view .LVU526
 1702              	.LBE442:
 1703              	.LBE444:
 1704              		.loc 1 473 1 is_stmt 0 view .LVU527
 1705 02f6 30BC     		pop	{r4, r5}
 1706              		.cfi_restore 5
 1707              		.cfi_restore 4
 1708              		.cfi_def_cfa_offset 0
 1709              	.LBB445:
 1710              	.LBB443:
 1711              		.loc 3 857 3 view .LVU528
 1712 02f8 FFF7FEBF 		b	chThdDequeueAllI
 1713              	.LVL79:
 1714              		.loc 3 857 3 view .LVU529
 1715              	.LBE443:
 1716              	.LBE445:
 1717              		.cfi_endproc
 1718              	.LFE373:
 1719              		.size	obqResetI, .-obqResetI
 1720              		.align	1
 1721 02fc AFF30080 		.p2align 4,,15
 1722              		.global	obqGetFullBufferI
 1723              		.syntax unified
 1724              		.thumb
 1725              		.thumb_func
 1726              		.fpu fpv4-sp-d16
 1727              		.type	obqGetFullBufferI, %function
 1728              	obqGetFullBufferI:
 1729              	.LVL80:
 1730              	.LFB374:
 1731              		.loc 1 487 43 is_stmt 1 view -0
 1732              		.cfi_startproc
 1733              		@ args = 0, pretend = 0, frame = 0
 1734              		@ frame_needed = 0, uses_anonymous_args = 0
 1735              		@ link register save eliminated.
 1736              		.loc 1 489 23 view .LVU531
 1737              		.loc 1 491 3 view .LVU532
 1738              		.loc 1 491 7 is_stmt 0 view .LVU533
 1739 0300 D0E90423 		ldrd	r2, r3, [r0, #16]
 1740 0304 9A42     		cmp	r2, r3
 1741 0306 04D0     		beq	.L76
 1742              	.L71:
 1743              		.loc 1 496 3 is_stmt 1 view .LVU534
 1744              		.loc 1 496 12 is_stmt 0 view .LVU535
 1745 0308 1846     		mov	r0, r3
 1746              	.LVL81:
 1747              		.loc 1 496 12 view .LVU536
 1748 030a 50F8043B 		ldr	r3, [r0], #4
 1749              		.loc 1 496 10 view .LVU537
 1750 030e 0B60     		str	r3, [r1]
 1751              		.loc 1 498 3 is_stmt 1 view .LVU538
 1752              		.loc 1 499 1 is_stmt 0 view .LVU539
 1753 0310 7047     		bx	lr
 1754              	.LVL82:
 1755              	.L76:
ARM GAS  /tmp/ccDQUTww.s 			page 32


 1756              		.loc 1 491 7 discriminator 1 view .LVU540
 1757 0312 C268     		ldr	r2, [r0, #12]
 1758 0314 002A     		cmp	r2, #0
 1759 0316 F7D0     		beq	.L71
 1760              		.loc 1 492 12 view .LVU541
 1761 0318 0020     		movs	r0, #0
 1762              	.LVL83:
 1763              		.loc 1 492 12 view .LVU542
 1764 031a 7047     		bx	lr
 1765              		.cfi_endproc
 1766              	.LFE374:
 1767              		.size	obqGetFullBufferI, .-obqGetFullBufferI
 1768              		.align	1
 1769 031c AFF30080 		.p2align 4,,15
 1770              		.global	obqReleaseEmptyBufferI
 1771              		.syntax unified
 1772              		.thumb
 1773              		.thumb_func
 1774              		.fpu fpv4-sp-d16
 1775              		.type	obqReleaseEmptyBufferI, %function
 1776              	obqReleaseEmptyBufferI:
 1777              	.LVL84:
 1778              	.LFB375:
 1779              		.loc 1 508 59 is_stmt 1 view -0
 1780              		.cfi_startproc
 1781              		@ args = 0, pretend = 0, frame = 0
 1782              		@ frame_needed = 0, uses_anonymous_args = 0
 1783              		@ link register save eliminated.
 1784              		.loc 1 510 23 view .LVU544
 1785              		.loc 1 511 3 view .LVU545
 1786              		.loc 1 511 3 view .LVU546
 1787              		.loc 1 514 3 view .LVU547
 1788              		.loc 1 515 16 is_stmt 0 view .LVU548
 1789 0320 4369     		ldr	r3, [r0, #20]
 1790              		.loc 1 514 7 view .LVU549
 1791 0322 C268     		ldr	r2, [r0, #12]
 1792              		.loc 1 516 6 view .LVU550
 1793 0324 8169     		ldr	r1, [r0, #24]
 1794              		.loc 1 514 17 view .LVU551
 1795 0326 0132     		adds	r2, r2, #1
 1796              		.loc 1 508 59 view .LVU552
 1797 0328 10B4     		push	{r4}
 1798              		.cfi_def_cfa_offset 4
 1799              		.cfi_offset 4, -4
 1800              		.loc 1 515 16 view .LVU553
 1801 032a C469     		ldr	r4, [r0, #28]
 1802              		.loc 1 514 17 view .LVU554
 1803 032c C260     		str	r2, [r0, #12]
 1804              		.loc 1 515 3 is_stmt 1 view .LVU555
 1805              		.loc 1 515 16 is_stmt 0 view .LVU556
 1806 032e 2344     		add	r3, r3, r4
 1807              		.loc 1 516 6 view .LVU557
 1808 0330 8B42     		cmp	r3, r1
 1809              		.loc 1 515 16 view .LVU558
 1810 0332 4361     		str	r3, [r0, #20]
 1811              		.loc 1 516 3 is_stmt 1 view .LVU559
 1812              		.loc 1 516 6 is_stmt 0 view .LVU560
ARM GAS  /tmp/ccDQUTww.s 			page 33


 1813 0334 01D3     		bcc	.L78
 1814              		.loc 1 517 5 is_stmt 1 view .LVU561
 1815              		.loc 1 517 18 is_stmt 0 view .LVU562
 1816 0336 436A     		ldr	r3, [r0, #36]
 1817 0338 4361     		str	r3, [r0, #20]
 1818              	.L78:
 1819              		.loc 1 521 3 is_stmt 1 view .LVU563
 1820              	.LVL85:
 1821              	.LBB446:
 1822              	.LBI446:
 1823              		.loc 3 842 20 view .LVU564
 1824              	.LBB447:
 1825              		.loc 3 844 3 view .LVU565
 1826 033a 0021     		movs	r1, #0
 1827              	.LBE447:
 1828              	.LBE446:
 1829              		.loc 1 522 1 is_stmt 0 view .LVU566
 1830 033c 5DF8044B 		ldr	r4, [sp], #4
 1831              		.cfi_restore 4
 1832              		.cfi_def_cfa_offset 0
 1833              	.LBB449:
 1834              	.LBB448:
 1835              		.loc 3 844 3 view .LVU567
 1836 0340 FFF7FEBF 		b	chThdDequeueNextI
 1837              	.LVL86:
 1838              		.loc 3 844 3 view .LVU568
 1839              	.LBE448:
 1840              	.LBE449:
 1841              		.cfi_endproc
 1842              	.LFE375:
 1843              		.size	obqReleaseEmptyBufferI, .-obqReleaseEmptyBufferI
 1844              		.align	1
 1845 0344 AFF30080 		.p2align 4,,15
 1845      AFF30080 
 1845      AFF30080 
 1846              		.global	obqGetEmptyBufferTimeoutS
 1847              		.syntax unified
 1848              		.thumb
 1849              		.thumb_func
 1850              		.fpu fpv4-sp-d16
 1851              		.type	obqGetEmptyBufferTimeoutS, %function
 1852              	obqGetEmptyBufferTimeoutS:
 1853              	.LVL87:
 1854              	.LFB377:
 1855              		.loc 1 578 56 is_stmt 1 view -0
 1856              		.cfi_startproc
 1857              		@ args = 0, pretend = 0, frame = 0
 1858              		@ frame_needed = 0, uses_anonymous_args = 0
 1859              		.loc 1 578 56 is_stmt 0 view .LVU570
 1860 0350 38B5     		push	{r3, r4, r5, lr}
 1861              		.cfi_def_cfa_offset 16
 1862              		.cfi_offset 3, -16
 1863              		.cfi_offset 4, -12
 1864              		.cfi_offset 5, -8
 1865              		.cfi_offset 14, -4
 1866              		.loc 1 578 56 view .LVU571
 1867 0352 0446     		mov	r4, r0
ARM GAS  /tmp/ccDQUTww.s 			page 34


 1868              		.loc 1 580 23 is_stmt 1 view .LVU572
 1869              		.loc 1 582 3 view .LVU573
 1870              		.loc 1 578 56 is_stmt 0 view .LVU574
 1871 0354 0D46     		mov	r5, r1
 1872              		.loc 1 582 9 view .LVU575
 1873 0356 05E0     		b	.L81
 1874              	.LVL88:
 1875              	.L83:
 1876              	.LBB458:
 1877              		.loc 1 583 8 view .LVU576
 1878 0358 237A     		ldrb	r3, [r4, #8]	@ zero_extendqisi2
 1879 035a 83B9     		cbnz	r3, .L84
 1880              	.LBB459:
 1881              	.LBB460:
 1882              		.loc 3 831 10 view .LVU577
 1883 035c FFF7FEFF 		bl	chThdEnqueueTimeoutS
 1884              	.LVL89:
 1885              		.loc 3 831 10 view .LVU578
 1886              	.LBE460:
 1887              	.LBE459:
 1888              		.loc 1 587 5 is_stmt 1 view .LVU579
 1889              		.loc 1 587 8 is_stmt 0 view .LVU580
 1890 0360 0028     		cmp	r0, #0
 1891              		.loc 1 587 8 view .LVU581
 1892 0362 0BDB     		blt	.L80
 1893              	.LVL90:
 1894              	.L81:
 1895              		.loc 1 583 5 is_stmt 1 view .LVU582
 1896              		.loc 1 586 5 view .LVU583
 1897              	.LBB463:
 1898              	.LBI459:
 1899              		.loc 3 828 21 view .LVU584
 1900              	.LBB461:
 1901              		.loc 3 831 3 view .LVU585
 1902              	.LBE461:
 1903              	.LBE463:
 1904              	.LBE458:
 1905              		.loc 1 582 10 is_stmt 0 view .LVU586
 1906 0364 E368     		ldr	r3, [r4, #12]
 1907              	.LBB465:
 1908              	.LBB464:
 1909              	.LBB462:
 1910              		.loc 3 831 10 view .LVU587
 1911 0366 2946     		mov	r1, r5
 1912 0368 2046     		mov	r0, r4
 1913              	.LBE462:
 1914              	.LBE464:
 1915              	.LBE465:
 1916              		.loc 1 582 9 view .LVU588
 1917 036a 002B     		cmp	r3, #0
 1918 036c F4D0     		beq	.L83
 1919              	.LVL91:
 1920              	.LBB466:
 1921              	.LBI466:
 1922              		.loc 1 577 7 is_stmt 1 view .LVU589
 1923              	.LBB467:
 1924              		.loc 1 592 3 view .LVU590
ARM GAS  /tmp/ccDQUTww.s 			page 35


 1925              		.loc 1 592 3 view .LVU591
 1926              		.loc 1 595 3 view .LVU592
 1927              		.loc 1 595 19 is_stmt 0 view .LVU593
 1928 036e 2369     		ldr	r3, [r4, #16]
 1929              		.loc 1 596 13 view .LVU594
 1930 0370 0020     		movs	r0, #0
 1931              	.LVL92:
 1932              		.loc 1 596 28 view .LVU595
 1933 0372 E169     		ldr	r1, [r4, #28]
 1934              	.LVL93:
 1935              		.loc 1 595 28 view .LVU596
 1936 0374 1A1D     		adds	r2, r3, #4
 1937              		.loc 1 596 28 view .LVU597
 1938 0376 0B44     		add	r3, r3, r1
 1939              		.loc 1 596 13 view .LVU598
 1940 0378 C4E90A23 		strd	r2, r3, [r4, #40]
 1941              		.loc 1 598 3 is_stmt 1 view .LVU599
 1942              	.LVL94:
 1943              	.L80:
 1944              		.loc 1 598 3 is_stmt 0 view .LVU600
 1945              	.LBE467:
 1946              	.LBE466:
 1947              		.loc 1 599 1 view .LVU601
 1948 037c 38BD     		pop	{r3, r4, r5, pc}
 1949              	.LVL95:
 1950              	.L84:
 1951              	.LBB468:
 1952              		.loc 1 584 14 view .LVU602
 1953 037e 6FF00100 		mvn	r0, #1
 1954              	.LVL96:
 1955              		.loc 1 584 14 view .LVU603
 1956              	.LBE468:
 1957              		.loc 1 599 1 view .LVU604
 1958 0382 38BD     		pop	{r3, r4, r5, pc}
 1959              		.loc 1 599 1 view .LVU605
 1960              		.cfi_endproc
 1961              	.LFE377:
 1962              		.size	obqGetEmptyBufferTimeoutS, .-obqGetEmptyBufferTimeoutS
 1963              		.align	1
 1964 0384 AFF30080 		.p2align 4,,15
 1964      AFF30080 
 1964      AFF30080 
 1965              		.global	obqGetEmptyBufferTimeout
 1966              		.syntax unified
 1967              		.thumb
 1968              		.thumb_func
 1969              		.fpu fpv4-sp-d16
 1970              		.type	obqGetEmptyBufferTimeout, %function
 1971              	obqGetEmptyBufferTimeout:
 1972              	.LVL97:
 1973              	.LFB376:
 1974              		.loc 1 546 55 is_stmt 1 view -0
 1975              		.cfi_startproc
 1976              		@ args = 0, pretend = 0, frame = 0
 1977              		@ frame_needed = 0, uses_anonymous_args = 0
 1978              		.loc 1 547 3 view .LVU607
 1979              		.loc 1 549 3 view .LVU608
ARM GAS  /tmp/ccDQUTww.s 			page 36


 1980              	.LBB469:
 1981              	.LBI469:
 1982              		.loc 3 509 20 view .LVU609
 1983              	.LBE469:
 1984              		.loc 3 511 3 view .LVU610
 1985              	.LBB481:
 1986              	.LBB470:
 1987              	.LBI470:
 1988              		.loc 4 353 20 view .LVU611
 1989              	.LBE470:
 1990              	.LBE481:
 1991              		.loc 4 355 3 view .LVU612
 1992              	.LBB482:
 1993              	.LBB478:
 1994              	.LBB471:
 1995              	.LBI471:
 1996              		.loc 5 669 27 view .LVU613
 1997              	.LBE471:
 1998              	.LBE478:
 1999              	.LBE482:
 2000              		.loc 5 677 3 view .LVU614
 2001              	.LBB483:
 2002              	.LBB479:
 2003              	.LBB476:
 2004              	.LBB472:
 2005              	.LBI472:
 2006              		.loc 6 491 27 view .LVU615
 2007              	.LBB473:
 2008              		.loc 6 493 3 view .LVU616
 2009              	.LBE473:
 2010              	.LBE472:
 2011              	.LBE476:
 2012              	.LBE479:
 2013              	.LBE483:
 2014              		.loc 1 546 55 is_stmt 0 view .LVU617
 2015 0390 08B5     		push	{r3, lr}
 2016              		.cfi_def_cfa_offset 8
 2017              		.cfi_offset 3, -8
 2018              		.cfi_offset 14, -4
 2019              	.LBB484:
 2020              	.LBB480:
 2021              	.LBB477:
 2022              	.LBB475:
 2023              	.LBB474:
 2024              		.loc 6 493 3 view .LVU618
 2025 0392 2023     		movs	r3, #32
 2026              		.syntax unified
 2027              	@ 493 "../../../external/ChibiOS/os/common/ext/ARM/CMSIS/Core/Include/cmsis_gcc.h" 1
 2028 0394 83F31188 		MSR basepri, r3
 2029              	@ 0 "" 2
 2030              	.LVL98:
 2031              		.loc 6 493 3 view .LVU619
 2032              		.thumb
 2033              		.syntax unified
 2034              	.LBE474:
 2035              	.LBE475:
 2036              	.LBE477:
ARM GAS  /tmp/ccDQUTww.s 			page 37


 2037              	.LBE480:
 2038              	.LBE484:
 2039              		.loc 4 356 34 is_stmt 1 view .LVU620
 2040              		.loc 4 357 20 view .LVU621
 2041              		.loc 1 550 3 view .LVU622
 2042              		.loc 1 550 9 is_stmt 0 view .LVU623
 2043 0398 FFF7FEFF 		bl	obqGetEmptyBufferTimeoutS
 2044              	.LVL99:
 2045              		.loc 1 551 3 is_stmt 1 view .LVU624
 2046              	.LBB485:
 2047              	.LBI485:
 2048              		.loc 3 520 20 view .LVU625
 2049              	.LBE485:
 2050              		.loc 3 522 3 view .LVU626
 2051              	.LBB494:
 2052              	.LBB486:
 2053              	.LBI486:
 2054              		.loc 4 365 20 view .LVU627
 2055              	.LBB487:
 2056              		.loc 4 367 22 view .LVU628
 2057              		.loc 4 368 33 view .LVU629
 2058              		.loc 4 374 3 view .LVU630
 2059              		.loc 4 374 3 view .LVU631
 2060              		.loc 4 378 3 view .LVU632
 2061              	.LBB488:
 2062              	.LBI488:
 2063              		.loc 5 693 27 view .LVU633
 2064              	.LBE488:
 2065              	.LBE487:
 2066              	.LBE486:
 2067              	.LBE494:
 2068              		.loc 5 696 3 view .LVU634
 2069              	.LBB495:
 2070              	.LBB493:
 2071              	.LBB492:
 2072              	.LBB491:
 2073              	.LBB489:
 2074              	.LBI489:
 2075              		.loc 6 491 27 view .LVU635
 2076              	.LBB490:
 2077              		.loc 6 493 3 view .LVU636
 2078 039c 0023     		movs	r3, #0
 2079              		.syntax unified
 2080              	@ 493 "../../../external/ChibiOS/os/common/ext/ARM/CMSIS/Core/Include/cmsis_gcc.h" 1
 2081 039e 83F31188 		MSR basepri, r3
 2082              	@ 0 "" 2
 2083              	.LVL100:
 2084              		.loc 6 493 3 is_stmt 0 view .LVU637
 2085              		.thumb
 2086              		.syntax unified
 2087              	.LBE490:
 2088              	.LBE489:
 2089              	.LBE491:
 2090              	.LBE492:
 2091              	.LBE493:
 2092              	.LBE495:
 2093              		.loc 1 553 3 is_stmt 1 view .LVU638
ARM GAS  /tmp/ccDQUTww.s 			page 38


 2094              		.loc 1 554 1 is_stmt 0 view .LVU639
 2095 03a2 08BD     		pop	{r3, pc}
 2096              		.cfi_endproc
 2097              	.LFE376:
 2098              		.size	obqGetEmptyBufferTimeout, .-obqGetEmptyBufferTimeout
 2099              		.align	1
 2100 03a4 AFF30080 		.p2align 4,,15
 2100      AFF30080 
 2100      AFF30080 
 2101              		.global	obqPostFullBuffer
 2102              		.syntax unified
 2103              		.thumb
 2104              		.thumb_func
 2105              		.fpu fpv4-sp-d16
 2106              		.type	obqPostFullBuffer, %function
 2107              	obqPostFullBuffer:
 2108              	.LVL101:
 2109              	.LFB378:
 2110              		.loc 1 610 67 is_stmt 1 view -0
 2111              		.cfi_startproc
 2112              		@ args = 0, pretend = 0, frame = 0
 2113              		@ frame_needed = 0, uses_anonymous_args = 0
 2114              		.loc 1 612 3 view .LVU641
 2115              	.LBB496:
 2116              	.LBI496:
 2117              		.loc 3 509 20 view .LVU642
 2118              	.LBE496:
 2119              		.loc 3 511 3 view .LVU643
 2120              	.LBB508:
 2121              	.LBB497:
 2122              	.LBI497:
 2123              		.loc 4 353 20 view .LVU644
 2124              	.LBE497:
 2125              	.LBE508:
 2126              		.loc 4 355 3 view .LVU645
 2127              	.LBB509:
 2128              	.LBB505:
 2129              	.LBB498:
 2130              	.LBI498:
 2131              		.loc 5 669 27 view .LVU646
 2132              	.LBE498:
 2133              	.LBE505:
 2134              	.LBE509:
 2135              		.loc 5 677 3 view .LVU647
 2136              	.LBB510:
 2137              	.LBB506:
 2138              	.LBB503:
 2139              	.LBB499:
 2140              	.LBI499:
 2141              		.loc 6 491 27 view .LVU648
 2142              	.LBB500:
 2143              		.loc 6 493 3 view .LVU649
 2144              	.LBE500:
 2145              	.LBE499:
 2146              	.LBE503:
 2147              	.LBE506:
 2148              	.LBE510:
ARM GAS  /tmp/ccDQUTww.s 			page 39


 2149              		.loc 1 610 67 is_stmt 0 view .LVU650
 2150 03b0 10B5     		push	{r4, lr}
 2151              		.cfi_def_cfa_offset 8
 2152              		.cfi_offset 4, -8
 2153              		.cfi_offset 14, -4
 2154              	.LBB511:
 2155              	.LBB507:
 2156              	.LBB504:
 2157              	.LBB502:
 2158              	.LBB501:
 2159              		.loc 6 493 3 view .LVU651
 2160 03b2 2023     		movs	r3, #32
 2161              		.syntax unified
 2162              	@ 493 "../../../external/ChibiOS/os/common/ext/ARM/CMSIS/Core/Include/cmsis_gcc.h" 1
 2163 03b4 83F31188 		MSR basepri, r3
 2164              	@ 0 "" 2
 2165              	.LVL102:
 2166              		.loc 6 493 3 view .LVU652
 2167              		.thumb
 2168              		.syntax unified
 2169              	.LBE501:
 2170              	.LBE502:
 2171              	.LBE504:
 2172              	.LBE507:
 2173              	.LBE511:
 2174              		.loc 4 356 34 is_stmt 1 view .LVU653
 2175              		.loc 4 357 20 view .LVU654
 2176              		.loc 1 613 3 view .LVU655
 2177              	.LBB512:
 2178              	.LBI512:
 2179              		.loc 1 626 6 view .LVU656
 2180              	.LBB513:
 2181              		.loc 1 628 23 view .LVU657
 2182              		.loc 1 629 3 view .LVU658
 2183              		.loc 1 629 3 view .LVU659
 2184              		.loc 1 630 3 view .LVU660
 2185              		.loc 1 630 3 view .LVU661
 2186              		.loc 1 633 3 view .LVU662
 2187              		.loc 1 633 19 is_stmt 0 view .LVU663
 2188 03b8 0369     		ldr	r3, [r0, #16]
 2189              		.loc 1 638 6 view .LVU664
 2190 03ba 8469     		ldr	r4, [r0, #24]
 2191              		.loc 1 633 29 view .LVU665
 2192 03bc 1960     		str	r1, [r3]
 2193              		.loc 1 636 3 is_stmt 1 view .LVU666
 2194              		.loc 1 637 16 is_stmt 0 view .LVU667
 2195 03be C169     		ldr	r1, [r0, #28]
 2196              	.LVL103:
 2197              		.loc 1 636 7 view .LVU668
 2198 03c0 C268     		ldr	r2, [r0, #12]
 2199              		.loc 1 637 16 view .LVU669
 2200 03c2 0B44     		add	r3, r3, r1
 2201              	.LVL104:
 2202              		.loc 1 636 17 view .LVU670
 2203 03c4 013A     		subs	r2, r2, #1
 2204              		.loc 1 638 6 view .LVU671
 2205 03c6 A342     		cmp	r3, r4
ARM GAS  /tmp/ccDQUTww.s 			page 40


 2206              		.loc 1 637 16 view .LVU672
 2207 03c8 0361     		str	r3, [r0, #16]
 2208              	.LVL105:
 2209              		.loc 1 636 17 view .LVU673
 2210 03ca C260     		str	r2, [r0, #12]
 2211              		.loc 1 637 3 is_stmt 1 view .LVU674
 2212              		.loc 1 638 3 view .LVU675
 2213              		.loc 1 638 6 is_stmt 0 view .LVU676
 2214 03cc 01D3     		bcc	.L89
 2215              		.loc 1 639 5 is_stmt 1 view .LVU677
 2216              		.loc 1 639 18 is_stmt 0 view .LVU678
 2217 03ce 436A     		ldr	r3, [r0, #36]
 2218 03d0 0361     		str	r3, [r0, #16]
 2219              	.L89:
 2220              		.loc 1 643 3 is_stmt 1 view .LVU679
 2221              		.loc 1 643 13 is_stmt 0 view .LVU680
 2222 03d2 0022     		movs	r2, #0
 2223              		.loc 1 646 11 view .LVU681
 2224 03d4 036B     		ldr	r3, [r0, #48]
 2225              		.loc 1 643 13 view .LVU682
 2226 03d6 8262     		str	r2, [r0, #40]
 2227              		.loc 1 646 3 is_stmt 1 view .LVU683
 2228              		.loc 1 646 6 is_stmt 0 view .LVU684
 2229 03d8 03B1     		cbz	r3, .L90
 2230              		.loc 1 647 5 is_stmt 1 view .LVU685
 2231 03da 9847     		blx	r3
 2232              	.LVL106:
 2233              	.L90:
 2234              		.loc 1 647 5 is_stmt 0 view .LVU686
 2235              	.LBE513:
 2236              	.LBE512:
 2237              		.loc 1 614 3 is_stmt 1 view .LVU687
 2238              	.LBB514:
 2239              	.LBI514:
 2240              		.loc 3 520 20 view .LVU688
 2241              	.LBE514:
 2242              		.loc 3 522 3 view .LVU689
 2243              	.LBB523:
 2244              	.LBB515:
 2245              	.LBI515:
 2246              		.loc 4 365 20 view .LVU690
 2247              	.LBB516:
 2248              		.loc 4 367 22 view .LVU691
 2249              		.loc 4 368 33 view .LVU692
 2250              		.loc 4 374 3 view .LVU693
 2251              		.loc 4 374 3 view .LVU694
 2252              		.loc 4 378 3 view .LVU695
 2253              	.LBB517:
 2254              	.LBI517:
 2255              		.loc 5 693 27 view .LVU696
 2256              	.LBE517:
 2257              	.LBE516:
 2258              	.LBE515:
 2259              	.LBE523:
 2260              		.loc 5 696 3 view .LVU697
 2261              	.LBB524:
 2262              	.LBB522:
ARM GAS  /tmp/ccDQUTww.s 			page 41


 2263              	.LBB521:
 2264              	.LBB520:
 2265              	.LBB518:
 2266              	.LBI518:
 2267              		.loc 6 491 27 view .LVU698
 2268              	.LBB519:
 2269              		.loc 6 493 3 view .LVU699
 2270 03dc 0023     		movs	r3, #0
 2271              		.syntax unified
 2272              	@ 493 "../../../external/ChibiOS/os/common/ext/ARM/CMSIS/Core/Include/cmsis_gcc.h" 1
 2273 03de 83F31188 		MSR basepri, r3
 2274              	@ 0 "" 2
 2275              	.LVL107:
 2276              		.loc 6 493 3 is_stmt 0 view .LVU700
 2277              		.thumb
 2278              		.syntax unified
 2279              	.LBE519:
 2280              	.LBE518:
 2281              	.LBE520:
 2282              	.LBE521:
 2283              	.LBE522:
 2284              	.LBE524:
 2285              		.loc 1 615 1 view .LVU701
 2286 03e2 10BD     		pop	{r4, pc}
 2287              		.cfi_endproc
 2288              	.LFE378:
 2289              		.size	obqPostFullBuffer, .-obqPostFullBuffer
 2290              		.align	1
 2291 03e4 AFF30080 		.p2align 4,,15
 2291      AFF30080 
 2291      AFF30080 
 2292              		.global	obqPostFullBufferS
 2293              		.syntax unified
 2294              		.thumb
 2295              		.thumb_func
 2296              		.fpu fpv4-sp-d16
 2297              		.type	obqPostFullBufferS, %function
 2298              	obqPostFullBufferS:
 2299              	.LVL108:
 2300              	.LFB379:
 2301              		.loc 1 626 68 is_stmt 1 view -0
 2302              		.cfi_startproc
 2303              		@ args = 0, pretend = 0, frame = 0
 2304              		@ frame_needed = 0, uses_anonymous_args = 0
 2305              		@ link register save eliminated.
 2306              		.loc 1 628 23 view .LVU703
 2307              		.loc 1 629 3 view .LVU704
 2308              		.loc 1 629 3 view .LVU705
 2309              		.loc 1 630 3 view .LVU706
 2310              		.loc 1 630 3 view .LVU707
 2311              		.loc 1 633 3 view .LVU708
 2312              		.loc 1 633 19 is_stmt 0 view .LVU709
 2313 03f0 0369     		ldr	r3, [r0, #16]
 2314              		.loc 1 626 68 view .LVU710
 2315 03f2 10B4     		push	{r4}
 2316              		.cfi_def_cfa_offset 4
 2317              		.cfi_offset 4, -4
ARM GAS  /tmp/ccDQUTww.s 			page 42


 2318              		.loc 1 638 6 view .LVU711
 2319 03f4 8469     		ldr	r4, [r0, #24]
 2320              		.loc 1 633 29 view .LVU712
 2321 03f6 1960     		str	r1, [r3]
 2322              		.loc 1 636 3 is_stmt 1 view .LVU713
 2323              		.loc 1 637 16 is_stmt 0 view .LVU714
 2324 03f8 C169     		ldr	r1, [r0, #28]
 2325              	.LVL109:
 2326              		.loc 1 636 7 view .LVU715
 2327 03fa C268     		ldr	r2, [r0, #12]
 2328              		.loc 1 637 16 view .LVU716
 2329 03fc 0B44     		add	r3, r3, r1
 2330              	.LVL110:
 2331              		.loc 1 636 17 view .LVU717
 2332 03fe 013A     		subs	r2, r2, #1
 2333              		.loc 1 638 6 view .LVU718
 2334 0400 A342     		cmp	r3, r4
 2335              		.loc 1 637 16 view .LVU719
 2336 0402 0361     		str	r3, [r0, #16]
 2337              	.LVL111:
 2338              		.loc 1 636 17 view .LVU720
 2339 0404 C260     		str	r2, [r0, #12]
 2340              		.loc 1 637 3 is_stmt 1 view .LVU721
 2341              		.loc 1 638 3 view .LVU722
 2342              		.loc 1 638 6 is_stmt 0 view .LVU723
 2343 0406 01D3     		bcc	.L96
 2344              		.loc 1 639 5 is_stmt 1 view .LVU724
 2345              		.loc 1 639 18 is_stmt 0 view .LVU725
 2346 0408 436A     		ldr	r3, [r0, #36]
 2347 040a 0361     		str	r3, [r0, #16]
 2348              	.L96:
 2349              		.loc 1 643 3 is_stmt 1 view .LVU726
 2350              		.loc 1 643 13 is_stmt 0 view .LVU727
 2351 040c 0022     		movs	r2, #0
 2352              		.loc 1 646 11 view .LVU728
 2353 040e 036B     		ldr	r3, [r0, #48]
 2354              		.loc 1 643 13 view .LVU729
 2355 0410 8262     		str	r2, [r0, #40]
 2356              		.loc 1 646 3 is_stmt 1 view .LVU730
 2357              		.loc 1 646 6 is_stmt 0 view .LVU731
 2358 0412 13B1     		cbz	r3, .L95
 2359              		.loc 1 647 5 is_stmt 1 view .LVU732
 2360              		.loc 1 649 1 is_stmt 0 view .LVU733
 2361 0414 5DF8044B 		ldr	r4, [sp], #4
 2362              		.cfi_remember_state
 2363              		.cfi_restore 4
 2364              		.cfi_def_cfa_offset 0
 2365              		.loc 1 647 5 view .LVU734
 2366 0418 1847     		bx	r3	@ indirect register sibling call
 2367              	.LVL112:
 2368              	.L95:
 2369              		.cfi_restore_state
 2370              		.loc 1 649 1 view .LVU735
 2371 041a 5DF8044B 		ldr	r4, [sp], #4
 2372              		.cfi_restore 4
 2373              		.cfi_def_cfa_offset 0
 2374 041e 7047     		bx	lr
ARM GAS  /tmp/ccDQUTww.s 			page 43


 2375              		.cfi_endproc
 2376              	.LFE379:
 2377              		.size	obqPostFullBufferS, .-obqPostFullBufferS
 2378              		.align	1
 2379              		.p2align 4,,15
 2380              		.global	obqPutTimeout
 2381              		.syntax unified
 2382              		.thumb
 2383              		.thumb_func
 2384              		.fpu fpv4-sp-d16
 2385              		.type	obqPutTimeout, %function
 2386              	obqPutTimeout:
 2387              	.LVL113:
 2388              	.LFB380:
 2389              		.loc 1 672 44 is_stmt 1 view -0
 2390              		.cfi_startproc
 2391              		@ args = 0, pretend = 0, frame = 0
 2392              		@ frame_needed = 0, uses_anonymous_args = 0
 2393              		.loc 1 673 3 view .LVU737
 2394              		.loc 1 675 3 view .LVU738
 2395              	.LBB525:
 2396              	.LBI525:
 2397              		.loc 3 509 20 view .LVU739
 2398              	.LBE525:
 2399              		.loc 3 511 3 view .LVU740
 2400              	.LBB541:
 2401              	.LBB526:
 2402              	.LBI526:
 2403              		.loc 4 353 20 view .LVU741
 2404              	.LBE526:
 2405              	.LBE541:
 2406              		.loc 4 355 3 view .LVU742
 2407              	.LBB542:
 2408              	.LBB537:
 2409              	.LBB527:
 2410              	.LBI527:
 2411              		.loc 5 669 27 view .LVU743
 2412              	.LBE527:
 2413              	.LBE537:
 2414              	.LBE542:
 2415              		.loc 5 677 3 view .LVU744
 2416              	.LBB543:
 2417              	.LBB538:
 2418              	.LBB534:
 2419              	.LBB528:
 2420              	.LBI528:
 2421              		.loc 6 491 27 view .LVU745
 2422              	.LBB529:
 2423              		.loc 6 493 3 view .LVU746
 2424              	.LBE529:
 2425              	.LBE528:
 2426              	.LBE534:
 2427              	.LBE538:
 2428              	.LBE543:
 2429              		.loc 1 672 44 is_stmt 0 view .LVU747
 2430 0420 70B5     		push	{r4, r5, r6, lr}
 2431              		.cfi_def_cfa_offset 16
ARM GAS  /tmp/ccDQUTww.s 			page 44


 2432              		.cfi_offset 4, -16
 2433              		.cfi_offset 5, -12
 2434              		.cfi_offset 6, -8
 2435              		.cfi_offset 14, -4
 2436              	.LBB544:
 2437              	.LBB539:
 2438              	.LBB535:
 2439              	.LBB532:
 2440              	.LBB530:
 2441              		.loc 6 493 3 view .LVU748
 2442 0422 2023     		movs	r3, #32
 2443              	.LBE530:
 2444              	.LBE532:
 2445              	.LBE535:
 2446              	.LBE539:
 2447              	.LBE544:
 2448              		.loc 1 672 44 view .LVU749
 2449 0424 0E46     		mov	r6, r1
 2450 0426 0446     		mov	r4, r0
 2451              	.LBB545:
 2452              	.LBB540:
 2453              	.LBB536:
 2454              	.LBB533:
 2455              	.LBB531:
 2456              		.loc 6 493 3 view .LVU750
 2457              		.syntax unified
 2458              	@ 493 "../../../external/ChibiOS/os/common/ext/ARM/CMSIS/Core/Include/cmsis_gcc.h" 1
 2459 0428 83F31188 		MSR basepri, r3
 2460              	@ 0 "" 2
 2461              	.LVL114:
 2462              		.loc 6 493 3 view .LVU751
 2463              		.thumb
 2464              		.syntax unified
 2465              	.LBE531:
 2466              	.LBE533:
 2467              	.LBE536:
 2468              	.LBE540:
 2469              	.LBE545:
 2470              		.loc 4 356 34 is_stmt 1 view .LVU752
 2471              		.loc 4 357 20 view .LVU753
 2472              		.loc 1 678 3 view .LVU754
 2473              		.loc 1 678 11 is_stmt 0 view .LVU755
 2474 042c 856A     		ldr	r5, [r0, #40]
 2475              		.loc 1 678 6 view .LVU756
 2476 042e FDB1     		cbz	r5, .L111
 2477              	.LVL115:
 2478              	.L100:
 2479              		.loc 1 687 3 is_stmt 1 view .LVU757
 2480              		.loc 1 687 14 is_stmt 0 view .LVU758
 2481 0430 2E70     		strb	r6, [r5]
 2482              		.loc 1 688 3 is_stmt 1 view .LVU759
 2483              		.loc 1 692 6 is_stmt 0 view .LVU760
 2484 0432 D4E90A32 		ldrd	r3, r2, [r4, #40]
 2485              		.loc 1 688 12 view .LVU761
 2486 0436 0133     		adds	r3, r3, #1
 2487              		.loc 1 692 6 view .LVU762
 2488 0438 9342     		cmp	r3, r2
ARM GAS  /tmp/ccDQUTww.s 			page 45


 2489              		.loc 1 688 12 view .LVU763
 2490 043a A362     		str	r3, [r4, #40]
 2491              		.loc 1 692 3 is_stmt 1 view .LVU764
 2492              		.loc 1 692 6 is_stmt 0 view .LVU765
 2493 043c 14D3     		bcc	.L104
 2494              		.loc 1 693 5 is_stmt 1 view .LVU766
 2495              	.LVL116:
 2496              	.LBB546:
 2497              	.LBI546:
 2498              		.loc 1 626 6 view .LVU767
 2499              	.LBB547:
 2500              		.loc 1 628 23 view .LVU768
 2501              		.loc 1 629 3 view .LVU769
 2502              		.loc 1 629 3 view .LVU770
 2503              		.loc 1 630 3 view .LVU771
 2504              		.loc 1 630 3 view .LVU772
 2505              		.loc 1 633 3 view .LVU773
 2506              	.LBE547:
 2507              	.LBE546:
 2508              		.loc 1 693 5 is_stmt 0 view .LVU774
 2509 043e E269     		ldr	r2, [r4, #28]
 2510              	.LBB550:
 2511              	.LBB548:
 2512              		.loc 1 633 19 view .LVU775
 2513 0440 2369     		ldr	r3, [r4, #16]
 2514              	.LBE548:
 2515              	.LBE550:
 2516              		.loc 1 693 5 view .LVU776
 2517 0442 043A     		subs	r2, r2, #4
 2518              	.LVL117:
 2519              	.LBB551:
 2520              	.LBB549:
 2521              		.loc 1 638 6 view .LVU777
 2522 0444 A169     		ldr	r1, [r4, #24]
 2523              		.loc 1 633 29 view .LVU778
 2524 0446 1A60     		str	r2, [r3]
 2525              		.loc 1 636 3 is_stmt 1 view .LVU779
 2526              		.loc 1 637 16 is_stmt 0 view .LVU780
 2527 0448 E069     		ldr	r0, [r4, #28]
 2528              		.loc 1 636 7 view .LVU781
 2529 044a E268     		ldr	r2, [r4, #12]
 2530              	.LVL118:
 2531              		.loc 1 637 16 view .LVU782
 2532 044c 0344     		add	r3, r3, r0
 2533              	.LVL119:
 2534              		.loc 1 636 17 view .LVU783
 2535 044e 013A     		subs	r2, r2, #1
 2536              		.loc 1 638 6 view .LVU784
 2537 0450 8B42     		cmp	r3, r1
 2538              		.loc 1 637 16 view .LVU785
 2539 0452 2361     		str	r3, [r4, #16]
 2540              	.LVL120:
 2541              		.loc 1 636 17 view .LVU786
 2542 0454 E260     		str	r2, [r4, #12]
 2543              		.loc 1 637 3 is_stmt 1 view .LVU787
 2544              		.loc 1 638 3 view .LVU788
 2545              		.loc 1 638 6 is_stmt 0 view .LVU789
ARM GAS  /tmp/ccDQUTww.s 			page 46


 2546 0456 01D3     		bcc	.L105
 2547              		.loc 1 639 5 is_stmt 1 view .LVU790
 2548              		.loc 1 639 18 is_stmt 0 view .LVU791
 2549 0458 636A     		ldr	r3, [r4, #36]
 2550 045a 2361     		str	r3, [r4, #16]
 2551              	.L105:
 2552              		.loc 1 643 3 is_stmt 1 view .LVU792
 2553              		.loc 1 643 13 is_stmt 0 view .LVU793
 2554 045c 0022     		movs	r2, #0
 2555              		.loc 1 646 11 view .LVU794
 2556 045e 236B     		ldr	r3, [r4, #48]
 2557              		.loc 1 643 13 view .LVU795
 2558 0460 A262     		str	r2, [r4, #40]
 2559              		.loc 1 646 3 is_stmt 1 view .LVU796
 2560              		.loc 1 646 6 is_stmt 0 view .LVU797
 2561 0462 0BB1     		cbz	r3, .L104
 2562              		.loc 1 647 5 is_stmt 1 view .LVU798
 2563 0464 2046     		mov	r0, r4
 2564 0466 9847     		blx	r3
 2565              	.LVL121:
 2566              	.L104:
 2567              		.loc 1 647 5 is_stmt 0 view .LVU799
 2568              	.LBE549:
 2569              	.LBE551:
 2570              		.loc 1 696 3 is_stmt 1 view .LVU800
 2571              	.LBB552:
 2572              	.LBI552:
 2573              		.loc 3 520 20 view .LVU801
 2574              	.LBE552:
 2575              		.loc 3 522 3 view .LVU802
 2576              	.LBB561:
 2577              	.LBB553:
 2578              	.LBI553:
 2579              		.loc 4 365 20 view .LVU803
 2580              	.LBB554:
 2581              		.loc 4 367 22 view .LVU804
 2582              		.loc 4 368 33 view .LVU805
 2583              		.loc 4 374 3 view .LVU806
 2584              		.loc 4 374 3 view .LVU807
 2585              		.loc 4 378 3 view .LVU808
 2586              	.LBB555:
 2587              	.LBI555:
 2588              		.loc 5 693 27 view .LVU809
 2589              	.LBE555:
 2590              	.LBE554:
 2591              	.LBE553:
 2592              	.LBE561:
 2593              		.loc 5 696 3 view .LVU810
 2594              	.LBB562:
 2595              	.LBB560:
 2596              	.LBB559:
 2597              	.LBB558:
 2598              	.LBB556:
 2599              	.LBI556:
 2600              		.loc 6 491 27 view .LVU811
 2601              	.LBB557:
 2602              		.loc 6 493 3 view .LVU812
ARM GAS  /tmp/ccDQUTww.s 			page 47


 2603 0468 0020     		movs	r0, #0
 2604              		.syntax unified
 2605              	@ 493 "../../../external/ChibiOS/os/common/ext/ARM/CMSIS/Core/Include/cmsis_gcc.h" 1
 2606 046a 80F31188 		MSR basepri, r0
 2607              	@ 0 "" 2
 2608              	.LVL122:
 2609              		.loc 6 493 3 is_stmt 0 view .LVU813
 2610              		.thumb
 2611              		.syntax unified
 2612              	.LBE557:
 2613              	.LBE556:
 2614              	.LBE558:
 2615              	.LBE559:
 2616              	.LBE560:
 2617              	.LBE562:
 2618              		.loc 1 697 3 is_stmt 1 view .LVU814
 2619              		.loc 1 698 1 is_stmt 0 view .LVU815
 2620 046e 70BD     		pop	{r4, r5, r6, pc}
 2621              	.LVL123:
 2622              	.L111:
 2623              		.loc 1 679 5 is_stmt 1 view .LVU816
 2624              		.loc 1 679 11 is_stmt 0 view .LVU817
 2625 0470 1146     		mov	r1, r2
 2626              	.LVL124:
 2627              		.loc 1 679 11 view .LVU818
 2628 0472 FFF7FEFF 		bl	obqGetEmptyBufferTimeoutS
 2629              	.LVL125:
 2630              		.loc 1 680 5 is_stmt 1 view .LVU819
 2631              		.loc 1 680 8 is_stmt 0 view .LVU820
 2632 0476 08B9     		cbnz	r0, .L101
 2633 0478 A56A     		ldr	r5, [r4, #40]
 2634 047a D9E7     		b	.L100
 2635              	.L101:
 2636              		.loc 1 681 7 is_stmt 1 view .LVU821
 2637              	.LBB563:
 2638              	.LBI563:
 2639              		.loc 3 520 20 view .LVU822
 2640              	.LBE563:
 2641              		.loc 3 522 3 view .LVU823
 2642              	.LBB572:
 2643              	.LBB564:
 2644              	.LBI564:
 2645              		.loc 4 365 20 view .LVU824
 2646              	.LBB565:
 2647              		.loc 4 367 22 view .LVU825
 2648              		.loc 4 368 33 view .LVU826
 2649              		.loc 4 374 3 view .LVU827
 2650              		.loc 4 374 3 view .LVU828
 2651              		.loc 4 378 3 view .LVU829
 2652              	.LBB566:
 2653              	.LBI566:
 2654              		.loc 5 693 27 view .LVU830
 2655              	.LBE566:
 2656              	.LBE565:
 2657              	.LBE564:
 2658              	.LBE572:
 2659              		.loc 5 696 3 view .LVU831
ARM GAS  /tmp/ccDQUTww.s 			page 48


 2660              	.LVL126:
 2661              	.LBB573:
 2662              	.LBB571:
 2663              	.LBB570:
 2664              	.LBB569:
 2665              	.LBB567:
 2666              	.LBI567:
 2667              		.loc 6 491 27 view .LVU832
 2668              	.LBB568:
 2669              		.loc 6 493 3 view .LVU833
 2670              		.syntax unified
 2671              	@ 493 "../../../external/ChibiOS/os/common/ext/ARM/CMSIS/Core/Include/cmsis_gcc.h" 1
 2672 047c 85F31188 		MSR basepri, r5
 2673              	@ 0 "" 2
 2674              	.LVL127:
 2675              		.loc 6 493 3 is_stmt 0 view .LVU834
 2676              		.thumb
 2677              		.syntax unified
 2678              	.LBE568:
 2679              	.LBE567:
 2680              	.LBE569:
 2681              	.LBE570:
 2682              	.LBE571:
 2683              	.LBE573:
 2684              		.loc 1 682 7 is_stmt 1 view .LVU835
 2685              		.loc 1 698 1 is_stmt 0 view .LVU836
 2686 0480 70BD     		pop	{r4, r5, r6, pc}
 2687              		.loc 1 698 1 view .LVU837
 2688              		.cfi_endproc
 2689              	.LFE380:
 2690              		.size	obqPutTimeout, .-obqPutTimeout
 2691              		.align	1
 2692 0482 00BFAFF3 		.p2align 4,,15
 2692      0080AFF3 
 2692      0080AFF3 
 2692      0080
 2693              		.global	obqWriteTimeout
 2694              		.syntax unified
 2695              		.thumb
 2696              		.thumb_func
 2697              		.fpu fpv4-sp-d16
 2698              		.type	obqWriteTimeout, %function
 2699              	obqWriteTimeout:
 2700              	.LVL128:
 2701              	.LFB381:
 2702              		.loc 1 722 57 is_stmt 1 view -0
 2703              		.cfi_startproc
 2704              		@ args = 0, pretend = 0, frame = 8
 2705              		@ frame_needed = 0, uses_anonymous_args = 0
 2706              		.loc 1 723 3 view .LVU839
 2707              		.loc 1 725 3 view .LVU840
 2708              		.loc 1 725 3 view .LVU841
 2709              		.loc 1 727 3 view .LVU842
 2710              	.LBB574:
 2711              	.LBI574:
 2712              		.loc 3 509 20 view .LVU843
 2713              	.LBE574:
ARM GAS  /tmp/ccDQUTww.s 			page 49


 2714              		.loc 3 511 3 view .LVU844
 2715              	.LBB586:
 2716              	.LBB575:
 2717              	.LBI575:
 2718              		.loc 4 353 20 view .LVU845
 2719              	.LBE575:
 2720              	.LBE586:
 2721              		.loc 4 355 3 view .LVU846
 2722              	.LBB587:
 2723              	.LBB583:
 2724              	.LBB576:
 2725              	.LBI576:
 2726              		.loc 5 669 27 view .LVU847
 2727              	.LBE576:
 2728              	.LBE583:
 2729              	.LBE587:
 2730              		.loc 5 677 3 view .LVU848
 2731              	.LBB588:
 2732              	.LBB584:
 2733              	.LBB581:
 2734              	.LBB577:
 2735              	.LBI577:
 2736              		.loc 6 491 27 view .LVU849
 2737              	.LBB578:
 2738              		.loc 6 493 3 view .LVU850
 2739              	.LBE578:
 2740              	.LBE577:
 2741              	.LBE581:
 2742              	.LBE584:
 2743              	.LBE588:
 2744              		.loc 1 722 57 is_stmt 0 view .LVU851
 2745 0490 2DE9F04F 		push	{r4, r5, r6, r7, r8, r9, r10, fp, lr}
 2746              		.cfi_def_cfa_offset 36
 2747              		.cfi_offset 4, -36
 2748              		.cfi_offset 5, -32
 2749              		.cfi_offset 6, -28
 2750              		.cfi_offset 7, -24
 2751              		.cfi_offset 8, -20
 2752              		.cfi_offset 9, -16
 2753              		.cfi_offset 10, -12
 2754              		.cfi_offset 11, -8
 2755              		.cfi_offset 14, -4
 2756 0494 0546     		mov	r5, r0
 2757 0496 83B0     		sub	sp, sp, #12
 2758              		.cfi_def_cfa_offset 48
 2759              		.loc 1 722 57 view .LVU852
 2760 0498 0C46     		mov	r4, r1
 2761 049a 1646     		mov	r6, r2
 2762 049c 9946     		mov	r9, r3
 2763              	.LBB589:
 2764              	.LBB585:
 2765              	.LBB582:
 2766              	.LBB580:
 2767              	.LBB579:
 2768              		.loc 6 493 3 view .LVU853
 2769 049e 4FF02008 		mov	r8, #32
 2770              		.syntax unified
ARM GAS  /tmp/ccDQUTww.s 			page 50


 2771              	@ 493 "../../../external/ChibiOS/os/common/ext/ARM/CMSIS/Core/Include/cmsis_gcc.h" 1
 2772 04a2 88F31188 		MSR basepri, r8
 2773              	@ 0 "" 2
 2774              	.LVL129:
 2775              		.loc 6 493 3 view .LVU854
 2776              		.thumb
 2777              		.syntax unified
 2778              	.LBE579:
 2779              	.LBE580:
 2780              	.LBE582:
 2781              	.LBE585:
 2782              	.LBE589:
 2783              		.loc 4 356 34 is_stmt 1 view .LVU855
 2784              		.loc 4 357 20 view .LVU856
 2785              		.loc 1 723 10 is_stmt 0 view .LVU857
 2786 04a6 4FF0000A 		mov	r10, #0
 2787              	.LVL130:
 2788              		.loc 1 729 3 is_stmt 1 view .LVU858
 2789              	.LBB590:
 2790              		.loc 1 730 5 view .LVU859
 2791              		.loc 1 733 5 view .LVU860
 2792              		.loc 1 733 13 is_stmt 0 view .LVU861
 2793 04aa AB6A     		ldr	r3, [r5, #40]
 2794              	.LVL131:
 2795              	.LBB591:
 2796              	.LBB592:
 2797              		.loc 1 643 13 view .LVU862
 2798 04ac 5746     		mov	r7, r10
 2799              	.LBE592:
 2800              	.LBE591:
 2801              		.loc 1 733 8 view .LVU863
 2802 04ae 002B     		cmp	r3, #0
 2803 04b0 47D0     		beq	.L129
 2804              	.LVL132:
 2805              	.L113:
 2806              		.loc 1 747 5 is_stmt 1 view .LVU864
 2807              		.loc 1 747 10 is_stmt 0 view .LVU865
 2808 04b2 EA6A     		ldr	r2, [r5, #44]
 2809              		.loc 1 748 19 view .LVU866
 2810 04b4 A6EB0A0B 		sub	fp, r6, r10
 2811              		.loc 1 747 10 view .LVU867
 2812 04b8 D21A     		subs	r2, r2, r3
 2813              	.LVL133:
 2814              		.loc 1 748 5 is_stmt 1 view .LVU868
 2815 04ba 9345     		cmp	fp, r2
 2816 04bc 28BF     		it	cs
 2817 04be 9346     		movcs	fp, r2
 2818              	.LVL134:
 2819              		.loc 1 754 5 view .LVU869
 2820              		.loc 1 754 8 is_stmt 0 view .LVU870
 2821 04c0 BBF1400F 		cmp	fp, #64
 2822 04c4 46D9     		bls	.L116
 2823              		.loc 1 756 7 is_stmt 1 view .LVU871
 2824 04c6 2146     		mov	r1, r4
 2825 04c8 1846     		mov	r0, r3
 2826 04ca 04F1400E 		add	lr, r4, #64
 2827              	.LVL135:
ARM GAS  /tmp/ccDQUTww.s 			page 51


 2828              	.L117:
 2829              		.loc 1 756 7 is_stmt 0 view .LVU872
 2830 04ce D1F800C0 		ldr	ip, [r1]	@ unaligned
 2831 04d2 1031     		adds	r1, r1, #16
 2832 04d4 51F80C4C 		ldr	r4, [r1, #-12]	@ unaligned
 2833 04d8 1030     		adds	r0, r0, #16
 2834 04da 51F8082C 		ldr	r2, [r1, #-8]	@ unaligned
 2835 04de 51F8043C 		ldr	r3, [r1, #-4]	@ unaligned
 2836 04e2 7145     		cmp	r1, lr
 2837 04e4 40F810CC 		str	ip, [r0, #-16]	@ unaligned
 2838 04e8 40F80C4C 		str	r4, [r0, #-12]	@ unaligned
 2839 04ec 40F8082C 		str	r2, [r0, #-8]	@ unaligned
 2840 04f0 40F8043C 		str	r3, [r0, #-4]	@ unaligned
 2841 04f4 EBD1     		bne	.L117
 2842              		.loc 1 757 7 is_stmt 1 view .LVU873
 2843              		.loc 1 758 17 is_stmt 0 view .LVU874
 2844 04f6 AB6A     		ldr	r3, [r5, #40]
 2845              		.loc 1 757 17 view .LVU875
 2846 04f8 0C46     		mov	r4, r1
 2847              	.LVL136:
 2848              		.loc 1 758 7 is_stmt 1 view .LVU876
 2849              		.loc 1 759 17 is_stmt 0 view .LVU877
 2850 04fa 0AF1400A 		add	r10, r10, #64
 2851              	.LVL137:
 2852              		.loc 1 758 17 view .LVU878
 2853 04fe 4033     		adds	r3, r3, #64
 2854 0500 AB62     		str	r3, [r5, #40]
 2855              		.loc 1 759 7 is_stmt 1 view .LVU879
 2856              	.LVL138:
 2857              	.L118:
 2858              		.loc 1 769 5 view .LVU880
 2859              		.loc 1 769 8 is_stmt 0 view .LVU881
 2860 0502 EA6A     		ldr	r2, [r5, #44]
 2861 0504 9A42     		cmp	r2, r3
 2862 0506 13D8     		bhi	.L120
 2863              		.loc 1 770 7 is_stmt 1 view .LVU882
 2864              	.LVL139:
 2865              	.LBB596:
 2866              	.LBI591:
 2867              		.loc 1 626 6 view .LVU883
 2868              	.LBB593:
 2869              		.loc 1 628 23 view .LVU884
 2870              		.loc 1 629 3 view .LVU885
 2871              		.loc 1 629 3 view .LVU886
 2872              		.loc 1 630 3 view .LVU887
 2873              		.loc 1 630 3 view .LVU888
 2874              		.loc 1 633 3 view .LVU889
 2875              	.LBE593:
 2876              	.LBE596:
 2877              		.loc 1 770 7 is_stmt 0 view .LVU890
 2878 0508 EA69     		ldr	r2, [r5, #28]
 2879              	.LBB597:
 2880              	.LBB594:
 2881              		.loc 1 633 19 view .LVU891
 2882 050a 2B69     		ldr	r3, [r5, #16]
 2883              	.LBE594:
 2884              	.LBE597:
ARM GAS  /tmp/ccDQUTww.s 			page 52


 2885              		.loc 1 770 7 view .LVU892
 2886 050c 043A     		subs	r2, r2, #4
 2887              	.LVL140:
 2888              	.LBB598:
 2889              	.LBB595:
 2890              		.loc 1 638 6 view .LVU893
 2891 050e A869     		ldr	r0, [r5, #24]
 2892              		.loc 1 633 29 view .LVU894
 2893 0510 1A60     		str	r2, [r3]
 2894              		.loc 1 636 3 is_stmt 1 view .LVU895
 2895              		.loc 1 637 16 is_stmt 0 view .LVU896
 2896 0512 E969     		ldr	r1, [r5, #28]
 2897              		.loc 1 636 7 view .LVU897
 2898 0514 EA68     		ldr	r2, [r5, #12]
 2899              	.LVL141:
 2900              		.loc 1 637 16 view .LVU898
 2901 0516 0B44     		add	r3, r3, r1
 2902              	.LVL142:
 2903              		.loc 1 636 17 view .LVU899
 2904 0518 013A     		subs	r2, r2, #1
 2905              		.loc 1 638 6 view .LVU900
 2906 051a 8342     		cmp	r3, r0
 2907              		.loc 1 637 16 view .LVU901
 2908 051c 2B61     		str	r3, [r5, #16]
 2909              	.LVL143:
 2910              		.loc 1 636 17 view .LVU902
 2911 051e EA60     		str	r2, [r5, #12]
 2912              		.loc 1 637 3 is_stmt 1 view .LVU903
 2913              		.loc 1 638 3 view .LVU904
 2914              		.loc 1 638 6 is_stmt 0 view .LVU905
 2915 0520 01D3     		bcc	.L121
 2916              		.loc 1 639 5 is_stmt 1 view .LVU906
 2917              		.loc 1 639 18 is_stmt 0 view .LVU907
 2918 0522 6B6A     		ldr	r3, [r5, #36]
 2919 0524 2B61     		str	r3, [r5, #16]
 2920              	.L121:
 2921              		.loc 1 643 3 is_stmt 1 view .LVU908
 2922              		.loc 1 646 11 is_stmt 0 view .LVU909
 2923 0526 2B6B     		ldr	r3, [r5, #48]
 2924              		.loc 1 643 13 view .LVU910
 2925 0528 AF62     		str	r7, [r5, #40]
 2926              		.loc 1 646 3 is_stmt 1 view .LVU911
 2927              		.loc 1 646 6 is_stmt 0 view .LVU912
 2928 052a 0BB1     		cbz	r3, .L120
 2929              		.loc 1 647 5 is_stmt 1 view .LVU913
 2930 052c 2846     		mov	r0, r5
 2931 052e 9847     		blx	r3
 2932              	.LVL144:
 2933              	.L120:
 2934              		.loc 1 647 5 is_stmt 0 view .LVU914
 2935              	.LBE595:
 2936              	.LBE598:
 2937              		.loc 1 774 5 is_stmt 1 view .LVU915
 2938              	.LBB599:
 2939              	.LBI599:
 2940              		.loc 3 520 20 view .LVU916
 2941              	.LBE599:
ARM GAS  /tmp/ccDQUTww.s 			page 53


 2942              	.LBE590:
 2943              		.loc 3 522 3 view .LVU917
 2944              	.LBB636:
 2945              	.LBB608:
 2946              	.LBB600:
 2947              	.LBI600:
 2948              		.loc 4 365 20 view .LVU918
 2949              	.LBB601:
 2950              		.loc 4 367 22 view .LVU919
 2951              		.loc 4 368 33 view .LVU920
 2952              		.loc 4 374 3 view .LVU921
 2953              		.loc 4 374 3 view .LVU922
 2954              		.loc 4 378 3 view .LVU923
 2955              	.LBB602:
 2956              	.LBI602:
 2957              		.loc 5 693 27 view .LVU924
 2958              	.LBE602:
 2959              	.LBE601:
 2960              	.LBE600:
 2961              	.LBE608:
 2962              	.LBE636:
 2963              		.loc 5 696 3 view .LVU925
 2964              	.LBB637:
 2965              	.LBB609:
 2966              	.LBB607:
 2967              	.LBB606:
 2968              	.LBB605:
 2969              	.LBB603:
 2970              	.LBI603:
 2971              		.loc 6 491 27 view .LVU926
 2972              	.LBB604:
 2973              		.loc 6 493 3 view .LVU927
 2974              		.syntax unified
 2975              	@ 493 "../../../external/ChibiOS/os/common/ext/ARM/CMSIS/Core/Include/cmsis_gcc.h" 1
 2976 0530 87F31188 		MSR basepri, r7
 2977              	@ 0 "" 2
 2978              	.LVL145:
 2979              		.loc 6 493 3 is_stmt 0 view .LVU928
 2980              		.thumb
 2981              		.syntax unified
 2982              	.LBE604:
 2983              	.LBE603:
 2984              	.LBE605:
 2985              	.LBE606:
 2986              	.LBE607:
 2987              	.LBE609:
 2988              		.loc 1 775 5 is_stmt 1 view .LVU929
 2989              		.loc 1 775 8 is_stmt 0 view .LVU930
 2990 0534 B245     		cmp	r10, r6
 2991 0536 1AD2     		bcs	.L112
 2992              		.loc 1 778 5 is_stmt 1 view .LVU931
 2993              	.LBB610:
 2994              	.LBI610:
 2995              		.loc 3 509 20 view .LVU932
 2996              	.LBE610:
 2997              	.LBE637:
 2998              		.loc 3 511 3 view .LVU933
ARM GAS  /tmp/ccDQUTww.s 			page 54


 2999              	.LBB638:
 3000              	.LBB618:
 3001              	.LBB611:
 3002              	.LBI611:
 3003              		.loc 4 353 20 view .LVU934
 3004              	.LBE611:
 3005              	.LBE618:
 3006              	.LBE638:
 3007              		.loc 4 355 3 view .LVU935
 3008              	.LBB639:
 3009              	.LBB619:
 3010              	.LBB616:
 3011              	.LBB612:
 3012              	.LBI612:
 3013              		.loc 5 669 27 view .LVU936
 3014              	.LBE612:
 3015              	.LBE616:
 3016              	.LBE619:
 3017              	.LBE639:
 3018              		.loc 5 677 3 view .LVU937
 3019              	.LVL146:
 3020              	.LBB640:
 3021              	.LBB620:
 3022              	.LBB617:
 3023              	.LBB615:
 3024              	.LBB613:
 3025              	.LBI613:
 3026              		.loc 6 491 27 view .LVU938
 3027              	.LBB614:
 3028              		.loc 6 493 3 view .LVU939
 3029              		.syntax unified
 3030              	@ 493 "../../../external/ChibiOS/os/common/ext/ARM/CMSIS/Core/Include/cmsis_gcc.h" 1
 3031 0538 88F31188 		MSR basepri, r8
 3032              	@ 0 "" 2
 3033              	.LVL147:
 3034              		.loc 6 493 3 is_stmt 0 view .LVU940
 3035              		.thumb
 3036              		.syntax unified
 3037              	.LBE614:
 3038              	.LBE613:
 3039              	.LBE615:
 3040              	.LBE617:
 3041              	.LBE620:
 3042              	.LBE640:
 3043              		.loc 4 356 34 is_stmt 1 view .LVU941
 3044              		.loc 4 357 20 view .LVU942
 3045              		.loc 1 729 3 view .LVU943
 3046              	.LBB641:
 3047              		.loc 1 730 5 view .LVU944
 3048              		.loc 1 733 5 view .LVU945
 3049              		.loc 1 733 13 is_stmt 0 view .LVU946
 3050 053c AB6A     		ldr	r3, [r5, #40]
 3051              		.loc 1 733 8 view .LVU947
 3052 053e 002B     		cmp	r3, #0
 3053 0540 B7D1     		bne	.L113
 3054              	.LVL148:
 3055              	.L129:
ARM GAS  /tmp/ccDQUTww.s 			page 55


 3056              	.LBB621:
 3057              		.loc 1 734 7 is_stmt 1 view .LVU948
 3058              		.loc 1 737 7 view .LVU949
 3059              		.loc 1 737 13 is_stmt 0 view .LVU950
 3060 0542 4946     		mov	r1, r9
 3061 0544 2846     		mov	r0, r5
 3062 0546 0193     		str	r3, [sp, #4]
 3063 0548 FFF7FEFF 		bl	obqGetEmptyBufferTimeoutS
 3064              	.LVL149:
 3065              		.loc 1 740 7 is_stmt 1 view .LVU951
 3066              		.loc 1 740 10 is_stmt 0 view .LVU952
 3067 054c 019B     		ldr	r3, [sp, #4]
 3068 054e 60B9     		cbnz	r0, .L114
 3069 0550 AB6A     		ldr	r3, [r5, #40]
 3070 0552 AEE7     		b	.L113
 3071              	.LVL150:
 3072              	.L116:
 3073              		.loc 1 740 10 view .LVU953
 3074              	.LBE621:
 3075              		.loc 1 762 7 is_stmt 1 view .LVU954
 3076 0554 1846     		mov	r0, r3
 3077 0556 2146     		mov	r1, r4
 3078 0558 5A46     		mov	r2, fp
 3079              		.loc 1 765 17 is_stmt 0 view .LVU955
 3080 055a DA44     		add	r10, r10, fp
 3081              	.LVL151:
 3082              		.loc 1 762 7 view .LVU956
 3083 055c FFF7FEFF 		bl	memcpy
 3084              	.LVL152:
 3085              		.loc 1 763 7 is_stmt 1 view .LVU957
 3086              		.loc 1 764 17 is_stmt 0 view .LVU958
 3087 0560 AB6A     		ldr	r3, [r5, #40]
 3088              		.loc 1 763 17 view .LVU959
 3089 0562 5C44     		add	r4, r4, fp
 3090              	.LVL153:
 3091              		.loc 1 764 7 is_stmt 1 view .LVU960
 3092              		.loc 1 764 17 is_stmt 0 view .LVU961
 3093 0564 5B44     		add	r3, r3, fp
 3094 0566 AB62     		str	r3, [r5, #40]
 3095              		.loc 1 765 7 is_stmt 1 view .LVU962
 3096              	.LVL154:
 3097              		.loc 1 765 7 is_stmt 0 view .LVU963
 3098 0568 CBE7     		b	.L118
 3099              	.LVL155:
 3100              	.L114:
 3101              	.LBB633:
 3102              		.loc 1 741 9 is_stmt 1 view .LVU964
 3103              	.LBB622:
 3104              	.LBI622:
 3105              		.loc 3 520 20 view .LVU965
 3106              	.LBE622:
 3107              	.LBE633:
 3108              	.LBE641:
 3109              		.loc 3 522 3 view .LVU966
 3110              	.LBB642:
 3111              	.LBB634:
 3112              	.LBB631:
ARM GAS  /tmp/ccDQUTww.s 			page 56


 3113              	.LBB623:
 3114              	.LBI623:
 3115              		.loc 4 365 20 view .LVU967
 3116              	.LBB624:
 3117              		.loc 4 367 22 view .LVU968
 3118              		.loc 4 368 33 view .LVU969
 3119              		.loc 4 374 3 view .LVU970
 3120              		.loc 4 374 3 view .LVU971
 3121              		.loc 4 378 3 view .LVU972
 3122              	.LBB625:
 3123              	.LBI625:
 3124              		.loc 5 693 27 view .LVU973
 3125              	.LBE625:
 3126              	.LBE624:
 3127              	.LBE623:
 3128              	.LBE631:
 3129              	.LBE634:
 3130              	.LBE642:
 3131              		.loc 5 696 3 view .LVU974
 3132              	.LBB643:
 3133              	.LBB635:
 3134              	.LBB632:
 3135              	.LBB630:
 3136              	.LBB629:
 3137              	.LBB628:
 3138              	.LBB626:
 3139              	.LBI626:
 3140              		.loc 6 491 27 view .LVU975
 3141              	.LBB627:
 3142              		.loc 6 493 3 view .LVU976
 3143              		.syntax unified
 3144              	@ 493 "../../../external/ChibiOS/os/common/ext/ARM/CMSIS/Core/Include/cmsis_gcc.h" 1
 3145 056a 83F31188 		MSR basepri, r3
 3146              	@ 0 "" 2
 3147              	.LVL156:
 3148              		.loc 6 493 3 is_stmt 0 view .LVU977
 3149              		.thumb
 3150              		.syntax unified
 3151              	.LBE627:
 3152              	.LBE626:
 3153              	.LBE628:
 3154              	.LBE629:
 3155              	.LBE630:
 3156              	.LBE632:
 3157              		.loc 1 742 9 is_stmt 1 view .LVU978
 3158              	.L112:
 3159              		.loc 1 742 9 is_stmt 0 view .LVU979
 3160              	.LBE635:
 3161              	.LBE643:
 3162              		.loc 1 780 1 view .LVU980
 3163 056e 5046     		mov	r0, r10
 3164 0570 03B0     		add	sp, sp, #12
 3165              		.cfi_def_cfa_offset 36
 3166              		@ sp needed
 3167 0572 BDE8F08F 		pop	{r4, r5, r6, r7, r8, r9, r10, fp, pc}
 3168              		.loc 1 780 1 view .LVU981
 3169              		.cfi_endproc
ARM GAS  /tmp/ccDQUTww.s 			page 57


 3170              	.LFE381:
 3171              		.size	obqWriteTimeout, .-obqWriteTimeout
 3172              		.align	1
 3173 0576 00BFAFF3 		.p2align 4,,15
 3173      0080AFF3 
 3173      0080
 3174              		.global	obqTryFlushI
 3175              		.syntax unified
 3176              		.thumb
 3177              		.thumb_func
 3178              		.fpu fpv4-sp-d16
 3179              		.type	obqTryFlushI, %function
 3180              	obqTryFlushI:
 3181              	.LVL157:
 3182              	.LFB382:
 3183              		.loc 1 795 49 is_stmt 1 view -0
 3184              		.cfi_startproc
 3185              		@ args = 0, pretend = 0, frame = 0
 3186              		@ frame_needed = 0, uses_anonymous_args = 0
 3187              		@ link register save eliminated.
 3188              		.loc 1 797 23 view .LVU983
 3189              		.loc 1 801 3 view .LVU984
 3190              		.loc 1 801 7 is_stmt 0 view .LVU985
 3191 0580 D0E90413 		ldrd	r1, r3, [r0, #16]
 3192 0584 9942     		cmp	r1, r3
 3193 0586 01D0     		beq	.L142
 3194              		.loc 1 822 10 view .LVU986
 3195 0588 0020     		movs	r0, #0
 3196              	.LVL158:
 3197              		.loc 1 822 10 view .LVU987
 3198 058a 7047     		bx	lr
 3199              	.LVL159:
 3200              	.L142:
 3201              		.loc 1 822 10 view .LVU988
 3202 058c 0246     		mov	r2, r0
 3203              		.loc 1 801 7 discriminator 1 view .LVU989
 3204 058e C068     		ldr	r0, [r0, #12]
 3205              	.LVL160:
 3206              		.loc 1 801 7 discriminator 1 view .LVU990
 3207 0590 28B1     		cbz	r0, .L143
 3208              		.loc 1 801 33 view .LVU991
 3209 0592 906A     		ldr	r0, [r2, #40]
 3210              		.loc 1 801 25 view .LVU992
 3211 0594 20B1     		cbz	r0, .L144
 3212              	.LBB644:
 3213              		.loc 1 802 5 is_stmt 1 view .LVU993
 3214              		.loc 1 802 12 is_stmt 0 view .LVU994
 3215 0596 031F     		subs	r3, r0, #4
 3216              	.LVL161:
 3217              		.loc 1 804 5 is_stmt 1 view .LVU995
 3218              		.loc 1 804 8 is_stmt 0 view .LVU996
 3219 0598 581A     		subs	r0, r3, r1
 3220              	.LVL162:
 3221              		.loc 1 804 8 view .LVU997
 3222 059a 02D1     		bne	.L145
 3223              	.LBE644:
 3224              		.loc 1 823 1 view .LVU998
ARM GAS  /tmp/ccDQUTww.s 			page 58


 3225 059c 7047     		bx	lr
 3226              	.LVL163:
 3227              	.L143:
 3228              		.loc 1 823 1 view .LVU999
 3229 059e 7047     		bx	lr
 3230              	.L144:
 3231              	.LBB645:
 3232 05a0 7047     		bx	lr
 3233              	.LVL164:
 3234              	.L145:
 3235              		.loc 1 807 7 is_stmt 1 view .LVU1000
 3236              	.LBE645:
 3237              		.loc 1 795 49 is_stmt 0 view .LVU1001
 3238 05a2 10B4     		push	{r4}
 3239              		.cfi_def_cfa_offset 4
 3240              		.cfi_offset 4, -4
 3241              	.LBB646:
 3242              		.loc 1 807 33 view .LVU1002
 3243 05a4 0860     		str	r0, [r1]
 3244              		.loc 1 810 7 is_stmt 1 view .LVU1003
 3245              		.loc 1 811 20 is_stmt 0 view .LVU1004
 3246 05a6 D469     		ldr	r4, [r2, #28]
 3247              		.loc 1 810 11 view .LVU1005
 3248 05a8 D368     		ldr	r3, [r2, #12]
 3249              		.loc 1 811 20 view .LVU1006
 3250 05aa 2144     		add	r1, r1, r4
 3251              		.loc 1 812 10 view .LVU1007
 3252 05ac 9069     		ldr	r0, [r2, #24]
 3253              	.LVL165:
 3254              		.loc 1 810 21 view .LVU1008
 3255 05ae 013B     		subs	r3, r3, #1
 3256              		.loc 1 812 10 view .LVU1009
 3257 05b0 8142     		cmp	r1, r0
 3258              		.loc 1 811 20 view .LVU1010
 3259 05b2 1161     		str	r1, [r2, #16]
 3260              	.LVL166:
 3261              		.loc 1 810 21 view .LVU1011
 3262 05b4 D360     		str	r3, [r2, #12]
 3263              		.loc 1 811 7 is_stmt 1 view .LVU1012
 3264              		.loc 1 812 7 view .LVU1013
 3265              		.loc 1 812 10 is_stmt 0 view .LVU1014
 3266 05b6 01D3     		bcc	.L133
 3267              		.loc 1 813 9 is_stmt 1 view .LVU1015
 3268              		.loc 1 813 22 is_stmt 0 view .LVU1016
 3269 05b8 536A     		ldr	r3, [r2, #36]
 3270 05ba 1361     		str	r3, [r2, #16]
 3271              	.L133:
 3272              		.loc 1 817 7 is_stmt 1 view .LVU1017
 3273              		.loc 1 817 17 is_stmt 0 view .LVU1018
 3274 05bc 0023     		movs	r3, #0
 3275              		.loc 1 819 14 view .LVU1019
 3276 05be 0120     		movs	r0, #1
 3277              	.LBE646:
 3278              		.loc 1 823 1 view .LVU1020
 3279 05c0 5DF8044B 		ldr	r4, [sp], #4
 3280              		.cfi_restore 4
 3281              		.cfi_def_cfa_offset 0
ARM GAS  /tmp/ccDQUTww.s 			page 59


 3282              	.LBB647:
 3283              		.loc 1 817 17 view .LVU1021
 3284 05c4 9362     		str	r3, [r2, #40]
 3285              		.loc 1 819 7 is_stmt 1 view .LVU1022
 3286              	.LBE647:
 3287              		.loc 1 823 1 is_stmt 0 view .LVU1023
 3288 05c6 7047     		bx	lr
 3289              		.cfi_endproc
 3290              	.LFE382:
 3291              		.size	obqTryFlushI, .-obqTryFlushI
 3292              		.align	1
 3293 05c8 AFF30080 		.p2align 4,,15
 3293      AFF30080 
 3294              		.global	obqFlush
 3295              		.syntax unified
 3296              		.thumb
 3297              		.thumb_func
 3298              		.fpu fpv4-sp-d16
 3299              		.type	obqFlush, %function
 3300              	obqFlush:
 3301              	.LVL167:
 3302              	.LFB383:
 3303              		.loc 1 832 45 is_stmt 1 view -0
 3304              		.cfi_startproc
 3305              		@ args = 0, pretend = 0, frame = 0
 3306              		@ frame_needed = 0, uses_anonymous_args = 0
 3307              		.loc 1 834 3 view .LVU1025
 3308              	.LBB648:
 3309              	.LBI648:
 3310              		.loc 3 509 20 view .LVU1026
 3311              	.LBE648:
 3312              		.loc 3 511 3 view .LVU1027
 3313              	.LBB656:
 3314              	.LBB649:
 3315              	.LBI649:
 3316              		.loc 4 353 20 view .LVU1028
 3317              	.LBE649:
 3318              	.LBE656:
 3319              		.loc 4 355 3 view .LVU1029
 3320              	.LBB657:
 3321              	.LBB654:
 3322              	.LBB650:
 3323              	.LBI650:
 3324              		.loc 5 669 27 view .LVU1030
 3325              	.LBE650:
 3326              	.LBE654:
 3327              	.LBE657:
 3328              		.loc 5 677 3 view .LVU1031
 3329              	.LBB658:
 3330              	.LBB655:
 3331              	.LBB653:
 3332              	.LBB651:
 3333              	.LBI651:
 3334              		.loc 6 491 27 view .LVU1032
 3335              	.LBB652:
 3336              		.loc 6 493 3 view .LVU1033
 3337 05d0 2023     		movs	r3, #32
ARM GAS  /tmp/ccDQUTww.s 			page 60


 3338              		.syntax unified
 3339              	@ 493 "../../../external/ChibiOS/os/common/ext/ARM/CMSIS/Core/Include/cmsis_gcc.h" 1
 3340 05d2 83F31188 		MSR basepri, r3
 3341              	@ 0 "" 2
 3342              	.LVL168:
 3343              		.loc 6 493 3 is_stmt 0 view .LVU1034
 3344              		.thumb
 3345              		.syntax unified
 3346              	.LBE652:
 3347              	.LBE651:
 3348              	.LBE653:
 3349              	.LBE655:
 3350              	.LBE658:
 3351              		.loc 4 356 34 is_stmt 1 view .LVU1035
 3352              		.loc 4 357 20 view .LVU1036
 3353              		.loc 1 837 3 view .LVU1037
 3354              		.loc 1 837 11 is_stmt 0 view .LVU1038
 3355 05d6 836A     		ldr	r3, [r0, #40]
 3356              		.loc 1 837 6 view .LVU1039
 3357 05d8 BBB1     		cbz	r3, .L158
 3358              	.LBB659:
 3359              		.loc 1 838 5 is_stmt 1 view .LVU1040
 3360              		.loc 1 838 12 is_stmt 0 view .LVU1041
 3361 05da 043B     		subs	r3, r3, #4
 3362              		.loc 1 838 52 view .LVU1042
 3363 05dc 0269     		ldr	r2, [r0, #16]
 3364              	.LVL169:
 3365              		.loc 1 840 5 is_stmt 1 view .LVU1043
 3366              		.loc 1 840 8 is_stmt 0 view .LVU1044
 3367 05de 9B1A     		subs	r3, r3, r2
 3368              	.LVL170:
 3369              		.loc 1 840 8 view .LVU1045
 3370 05e0 13D0     		beq	.L158
 3371              		.loc 1 841 7 is_stmt 1 view .LVU1046
 3372              	.LVL171:
 3373              	.LBB660:
 3374              	.LBI660:
 3375              		.loc 1 626 6 view .LVU1047
 3376              	.LBB661:
 3377              		.loc 1 628 23 view .LVU1048
 3378              		.loc 1 629 3 view .LVU1049
 3379              		.loc 1 629 3 view .LVU1050
 3380              		.loc 1 630 3 view .LVU1051
 3381              		.loc 1 630 3 view .LVU1052
 3382              		.loc 1 633 3 view .LVU1053
 3383              		.loc 1 638 6 is_stmt 0 view .LVU1054
 3384 05e2 8169     		ldr	r1, [r0, #24]
 3385              	.LBE661:
 3386              	.LBE660:
 3387              	.LBE659:
 3388              		.loc 1 832 45 view .LVU1055
 3389 05e4 10B5     		push	{r4, lr}
 3390              		.cfi_def_cfa_offset 8
 3391              		.cfi_offset 4, -8
 3392              		.cfi_offset 14, -4
 3393              	.LBB666:
 3394              	.LBB664:
ARM GAS  /tmp/ccDQUTww.s 			page 61


 3395              	.LBB662:
 3396              		.loc 1 633 29 view .LVU1056
 3397 05e6 1360     		str	r3, [r2]
 3398              		.loc 1 636 3 is_stmt 1 view .LVU1057
 3399              		.loc 1 637 16 is_stmt 0 view .LVU1058
 3400 05e8 C469     		ldr	r4, [r0, #28]
 3401              		.loc 1 636 7 view .LVU1059
 3402 05ea C368     		ldr	r3, [r0, #12]
 3403              	.LVL172:
 3404              		.loc 1 637 16 view .LVU1060
 3405 05ec 2244     		add	r2, r2, r4
 3406              	.LVL173:
 3407              		.loc 1 636 17 view .LVU1061
 3408 05ee 013B     		subs	r3, r3, #1
 3409              		.loc 1 638 6 view .LVU1062
 3410 05f0 8A42     		cmp	r2, r1
 3411              		.loc 1 637 16 view .LVU1063
 3412 05f2 0261     		str	r2, [r0, #16]
 3413              	.LVL174:
 3414              		.loc 1 636 17 view .LVU1064
 3415 05f4 C360     		str	r3, [r0, #12]
 3416              		.loc 1 637 3 is_stmt 1 view .LVU1065
 3417              		.loc 1 638 3 view .LVU1066
 3418              		.loc 1 638 6 is_stmt 0 view .LVU1067
 3419 05f6 0CD2     		bcs	.L161
 3420              	.L150:
 3421              		.loc 1 643 3 is_stmt 1 view .LVU1068
 3422              		.loc 1 643 13 is_stmt 0 view .LVU1069
 3423 05f8 0022     		movs	r2, #0
 3424              		.loc 1 646 11 view .LVU1070
 3425 05fa 036B     		ldr	r3, [r0, #48]
 3426              		.loc 1 643 13 view .LVU1071
 3427 05fc 8262     		str	r2, [r0, #40]
 3428              		.loc 1 646 3 is_stmt 1 view .LVU1072
 3429              		.loc 1 646 6 is_stmt 0 view .LVU1073
 3430 05fe 03B1     		cbz	r3, .L148
 3431              		.loc 1 647 5 is_stmt 1 view .LVU1074
 3432 0600 9847     		blx	r3
 3433              	.LVL175:
 3434              	.L148:
 3435              		.loc 1 647 5 is_stmt 0 view .LVU1075
 3436              	.LBE662:
 3437              	.LBE664:
 3438              	.LBE666:
 3439              		.loc 1 845 3 is_stmt 1 view .LVU1076
 3440              	.LBB667:
 3441              	.LBI667:
 3442              		.loc 3 520 20 view .LVU1077
 3443              	.LBE667:
 3444              		.loc 3 522 3 view .LVU1078
 3445              	.LBB684:
 3446              	.LBB668:
 3447              	.LBI668:
 3448              		.loc 4 365 20 view .LVU1079
 3449              	.LBB669:
 3450              		.loc 4 367 22 view .LVU1080
 3451              		.loc 4 368 33 view .LVU1081
ARM GAS  /tmp/ccDQUTww.s 			page 62


 3452              		.loc 4 374 3 view .LVU1082
 3453              		.loc 4 374 3 view .LVU1083
 3454              		.loc 4 378 3 view .LVU1084
 3455              	.LBB670:
 3456              	.LBI670:
 3457              		.loc 5 693 27 view .LVU1085
 3458              	.LBE670:
 3459              	.LBE669:
 3460              	.LBE668:
 3461              	.LBE684:
 3462              		.loc 5 696 3 view .LVU1086
 3463              	.LBB685:
 3464              	.LBB681:
 3465              	.LBB678:
 3466              	.LBB675:
 3467              	.LBB671:
 3468              	.LBI671:
 3469              		.loc 6 491 27 view .LVU1087
 3470              	.LBB672:
 3471              		.loc 6 493 3 view .LVU1088
 3472 0602 0023     		movs	r3, #0
 3473              		.syntax unified
 3474              	@ 493 "../../../external/ChibiOS/os/common/ext/ARM/CMSIS/Core/Include/cmsis_gcc.h" 1
 3475 0604 83F31188 		MSR basepri, r3
 3476              	@ 0 "" 2
 3477              	.LVL176:
 3478              		.loc 6 493 3 is_stmt 0 view .LVU1089
 3479              		.thumb
 3480              		.syntax unified
 3481              	.LBE672:
 3482              	.LBE671:
 3483              	.LBE675:
 3484              	.LBE678:
 3485              	.LBE681:
 3486              	.LBE685:
 3487              		.loc 1 846 1 view .LVU1090
 3488 0608 10BD     		pop	{r4, pc}
 3489              	.LVL177:
 3490              	.L158:
 3491              		.cfi_def_cfa_offset 0
 3492              		.cfi_restore 4
 3493              		.cfi_restore 14
 3494              		.loc 1 845 3 is_stmt 1 view .LVU1091
 3495              	.LBB686:
 3496              		.loc 3 520 20 view .LVU1092
 3497              	.LBE686:
 3498              		.loc 3 522 3 view .LVU1093
 3499              	.LBB687:
 3500              	.LBB682:
 3501              		.loc 4 365 20 view .LVU1094
 3502              	.LBB679:
 3503              		.loc 4 367 22 view .LVU1095
 3504              		.loc 4 368 33 view .LVU1096
 3505              		.loc 4 374 3 view .LVU1097
 3506              		.loc 4 374 3 view .LVU1098
 3507              		.loc 4 378 3 view .LVU1099
 3508              	.LBB676:
ARM GAS  /tmp/ccDQUTww.s 			page 63


 3509              		.loc 5 693 27 view .LVU1100
 3510              	.LBE676:
 3511              	.LBE679:
 3512              	.LBE682:
 3513              	.LBE687:
 3514              		.loc 5 696 3 view .LVU1101
 3515              	.LBB688:
 3516              	.LBB683:
 3517              	.LBB680:
 3518              	.LBB677:
 3519              	.LBB674:
 3520              		.loc 6 491 27 view .LVU1102
 3521              	.LBB673:
 3522              		.loc 6 493 3 view .LVU1103
 3523 060a 0023     		movs	r3, #0
 3524              		.syntax unified
 3525              	@ 493 "../../../external/ChibiOS/os/common/ext/ARM/CMSIS/Core/Include/cmsis_gcc.h" 1
 3526 060c 83F31188 		MSR basepri, r3
 3527              	@ 0 "" 2
 3528              	.LVL178:
 3529              		.loc 6 493 3 is_stmt 0 view .LVU1104
 3530              		.thumb
 3531              		.syntax unified
 3532 0610 7047     		bx	lr
 3533              	.LVL179:
 3534              	.L161:
 3535              		.cfi_def_cfa_offset 8
 3536              		.cfi_offset 4, -8
 3537              		.cfi_offset 14, -4
 3538              		.loc 6 493 3 view .LVU1105
 3539              	.LBE673:
 3540              	.LBE674:
 3541              	.LBE677:
 3542              	.LBE680:
 3543              	.LBE683:
 3544              	.LBE688:
 3545              	.LBB689:
 3546              	.LBB665:
 3547              	.LBB663:
 3548              		.loc 1 639 5 is_stmt 1 view .LVU1106
 3549              		.loc 1 639 18 is_stmt 0 view .LVU1107
 3550 0612 436A     		ldr	r3, [r0, #36]
 3551 0614 0361     		str	r3, [r0, #16]
 3552 0616 EFE7     		b	.L150
 3553              	.LBE663:
 3554              	.LBE665:
 3555              	.LBE689:
 3556              		.cfi_endproc
 3557              	.LFE383:
 3558              		.size	obqFlush, .-obqFlush
 3559              	.Letext0:
 3560              		.file 7 "/home/nicolas/arm/gcc-arm-none-eabi-8-2019-q3-update/lib/gcc/arm-none-eabi/8.3.1/include/
 3561              		.file 8 "/home/nicolas/arm/gcc-arm-none-eabi-8-2019-q3-update/arm-none-eabi/include/machine/_defau
 3562              		.file 9 "/home/nicolas/arm/gcc-arm-none-eabi-8-2019-q3-update/arm-none-eabi/include/sys/_types.h"
 3563              		.file 10 "/home/nicolas/arm/gcc-arm-none-eabi-8-2019-q3-update/arm-none-eabi/include/sys/reent.h"
 3564              		.file 11 "/home/nicolas/arm/gcc-arm-none-eabi-8-2019-q3-update/arm-none-eabi/include/sys/lock.h"
 3565              		.file 12 "/home/nicolas/arm/gcc-arm-none-eabi-8-2019-q3-update/arm-none-eabi/include/sys/_stdint.h
ARM GAS  /tmp/ccDQUTww.s 			page 64


 3566              		.file 13 "/home/nicolas/arm/gcc-arm-none-eabi-8-2019-q3-update/arm-none-eabi/include/stdint.h"
 3567              		.file 14 "../../../external/ChibiOS/os/common/ports/ARMCMx/compilers/GCC/chtypes.h"
 3568              		.file 15 "../../../external/ChibiOS/os/rt/include/chsystypes.h"
 3569              		.file 16 "../../../external/ChibiOS/os/rt/include/chtime.h"
 3570              		.file 17 "../../../external/ChibiOS/os/common/ext/ARM/CMSIS/Core/Include/core_cm7.h"
 3571              		.file 18 "../../../external/ChibiOS/os/common/ext/ST/STM32H7xx/system_stm32h7xx.h"
 3572              		.file 19 "../../../external/ChibiOS/os/common/ext/ST/STM32H7xx/stm32h753xx.h"
 3573              		.file 20 "../../../external/ChibiOS/os/common/ports/ARMCMx/chcore.h"
 3574              		.file 21 "../../../external/ChibiOS/os/rt/include/chtrace.h"
 3575              		.file 22 "../../../external/ChibiOS/os/rt/include/chtm.h"
 3576              		.file 23 "../../../external/ChibiOS/os/rt/include/chsem.h"
 3577              		.file 24 "../../../external/ChibiOS/os/rt/include/chmtx.h"
 3578              		.file 25 "../../../external/ChibiOS/os/rt/include/chregistry.h"
 3579              		.file 26 "../../../external/ChibiOS/os/rt/include/chevents.h"
 3580              		.file 27 "../../../external/ChibiOS/os/oslib/include/chmemcore.h"
 3581              		.file 28 "../../../external/ChibiOS/os/oslib/include/chmempools.h"
 3582              		.file 29 "../../../external/ChibiOS/os/oslib/include/chfactory.h"
 3583              		.file 30 "../../../external/ChibiOS/os/hal/ports/STM32/LLD/DMAv2/stm32_dma.h"
 3584              		.file 31 "../../../external/ChibiOS/os/hal/ports/STM32/LLD/BDMAv1/stm32_bdma.h"
 3585              		.file 32 "../../../external/ChibiOS/os/hal/ports/STM32/LLD/TIMv1/stm32_tim.h"
 3586              		.file 33 "../../../external/ChibiOS/os/hal/include/hal_ioblock.h"
 3587              		.file 34 "../../../external/ChibiOS/os/hal/include/hal_buffers.h"
 3588              		.file 35 "../../../external/ChibiOS/os/hal/include/hal_queues.h"
 3589              		.file 36 "../../../external/ChibiOS/os/hal/ports/STM32/LLD/GPIOv2/stm32_gpio.h"
 3590              		.file 37 "../../../external/ChibiOS/os/hal/ports/STM32/LLD/GPIOv2/hal_pal_lld.h"
 3591              		.file 38 "../../../external/ChibiOS/os/hal/include/hal_adc.h"
 3592              		.file 39 "../../../external/ChibiOS/os/hal/ports/STM32/LLD/ADCv4/hal_adc_lld.h"
 3593              		.file 40 "../../../external/ChibiOS/os/hal/include/hal_i2c.h"
 3594              		.file 41 "../../../external/ChibiOS/os/hal/ports/STM32/LLD/I2Cv3/hal_i2c_lld.h"
 3595              		.file 42 "../../../external/ChibiOS/os/hal/include/hal_pwm.h"
 3596              		.file 43 "../../../external/ChibiOS/os/hal/ports/STM32/LLD/TIMv1/hal_pwm_lld.h"
 3597              		.file 44 "../../../external/ChibiOS/os/hal/include/hal_serial.h"
 3598              		.file 45 "../../../external/ChibiOS/os/hal/ports/STM32/LLD/USARTv2/hal_serial_lld.h"
 3599              		.file 46 "../../../external/ChibiOS/os/hal/include/hal_sdc.h"
 3600              		.file 47 "../../../external/ChibiOS/os/hal/ports/STM32/LLD/SDMMCv2/hal_sdc_lld.h"
 3601              		.file 48 "../../../external/ChibiOS/os/hal/include/hal_spi.h"
 3602              		.file 49 "../../../external/ChibiOS/os/hal/ports/STM32/LLD/SPIv3/hal_spi_lld.h"
 3603              		.file 50 "../../../external/ChibiOS/os/hal/include/hal_trng.h"
 3604              		.file 51 "../../../external/ChibiOS/os/hal/ports/STM32/LLD/RNGv1/hal_trng_lld.h"
 3605              		.file 52 "../../../external/ChibiOS/os/hal/include/hal_usb.h"
 3606              		.file 53 "../../../external/ChibiOS/os/hal/ports/STM32/LLD/OTGv1/hal_usb_lld.h"
 3607              		.file 54 "../../../external/ChibiOS/os/hal/ports/STM32/LLD/OTGv1/stm32_otg.h"
 3608              		.file 55 "../../../external/ChibiOS-Contrib/os/hal/include/hal_fsmc.h"
 3609              		.file 56 "../../../external/ChibiOS-Contrib/os/hal/include/hal_sdram.h"
 3610              		.file 57 "../../../external/ChibiOS/os/rt/include/chthreads.h"
 3611              		.file 58 "<built-in>"
 3612              		.section	.debug_info,"",%progbits
 3613              	.Ldebug_info0:
 3614 0000 8B560000 		.4byte	0x568b
 3615 0004 0400     		.2byte	0x4
 3616 0006 00000000 		.4byte	.Ldebug_abbrev0
 3617 000a 04       		.byte	0x4
 3618 000b 01       		.uleb128 0x1
 3619 000c 011F0000 		.4byte	.LASF820
 3620 0010 0C       		.byte	0xc
 3621 0011 1B0C0000 		.4byte	.LASF821
 3622 0015 49000000 		.4byte	.LASF822
ARM GAS  /tmp/ccDQUTww.s 			page 65


 3623 0019 00000000 		.4byte	.Ltext0
 3624 001d 18060000 		.4byte	.Letext0-.Ltext0
 3625 0021 00000000 		.4byte	.Ldebug_line0
 3626 0025 02       		.uleb128 0x2
 3627 0026 04       		.byte	0x4
 3628 0027 05       		.byte	0x5
 3629 0028 696E7400 		.ascii	"int\000"
 3630 002c 03       		.uleb128 0x3
 3631 002d 7B0B0000 		.4byte	.LASF3
 3632 0031 07       		.byte	0x7
 3633 0032 D8       		.byte	0xd8
 3634 0033 17       		.byte	0x17
 3635 0034 3D000000 		.4byte	0x3d
 3636 0038 04       		.uleb128 0x4
 3637 0039 2C000000 		.4byte	0x2c
 3638 003d 05       		.uleb128 0x5
 3639 003e 04       		.byte	0x4
 3640 003f 07       		.byte	0x7
 3641 0040 51200000 		.4byte	.LASF0
 3642 0044 05       		.uleb128 0x5
 3643 0045 08       		.byte	0x8
 3644 0046 05       		.byte	0x5
 3645 0047 B41D0000 		.4byte	.LASF1
 3646 004b 05       		.uleb128 0x5
 3647 004c 08       		.byte	0x8
 3648 004d 04       		.byte	0x4
 3649 004e FF150000 		.4byte	.LASF2
 3650 0052 06       		.uleb128 0x6
 3651 0053 6D0D0000 		.4byte	.LASF4
 3652 0057 07       		.byte	0x7
 3653 0058 6501     		.2byte	0x165
 3654 005a 17       		.byte	0x17
 3655 005b 3D000000 		.4byte	0x3d
 3656 005f 05       		.uleb128 0x5
 3657 0060 01       		.byte	0x1
 3658 0061 06       		.byte	0x6
 3659 0062 5F120000 		.4byte	.LASF5
 3660 0066 03       		.uleb128 0x3
 3661 0067 26010000 		.4byte	.LASF6
 3662 006b 08       		.byte	0x8
 3663 006c 2B       		.byte	0x2b
 3664 006d 18       		.byte	0x18
 3665 006e 72000000 		.4byte	0x72
 3666 0072 05       		.uleb128 0x5
 3667 0073 01       		.byte	0x1
 3668 0074 08       		.byte	0x8
 3669 0075 9B080000 		.4byte	.LASF7
 3670 0079 05       		.uleb128 0x5
 3671 007a 02       		.byte	0x2
 3672 007b 05       		.byte	0x5
 3673 007c A2200000 		.4byte	.LASF8
 3674 0080 03       		.uleb128 0x3
 3675 0081 3C070000 		.4byte	.LASF9
 3676 0085 08       		.byte	0x8
 3677 0086 39       		.byte	0x39
 3678 0087 19       		.byte	0x19
 3679 0088 8C000000 		.4byte	0x8c
ARM GAS  /tmp/ccDQUTww.s 			page 66


 3680 008c 05       		.uleb128 0x5
 3681 008d 02       		.byte	0x2
 3682 008e 07       		.byte	0x7
 3683 008f 4C120000 		.4byte	.LASF10
 3684 0093 03       		.uleb128 0x3
 3685 0094 031A0000 		.4byte	.LASF11
 3686 0098 08       		.byte	0x8
 3687 0099 4D       		.byte	0x4d
 3688 009a 18       		.byte	0x18
 3689 009b 9F000000 		.4byte	0x9f
 3690 009f 05       		.uleb128 0x5
 3691 00a0 04       		.byte	0x4
 3692 00a1 05       		.byte	0x5
 3693 00a2 9B140000 		.4byte	.LASF12
 3694 00a6 03       		.uleb128 0x3
 3695 00a7 0D1A0000 		.4byte	.LASF13
 3696 00ab 08       		.byte	0x8
 3697 00ac 4F       		.byte	0x4f
 3698 00ad 19       		.byte	0x19
 3699 00ae B2000000 		.4byte	0xb2
 3700 00b2 05       		.uleb128 0x5
 3701 00b3 04       		.byte	0x4
 3702 00b4 07       		.byte	0x7
 3703 00b5 42160000 		.4byte	.LASF14
 3704 00b9 03       		.uleb128 0x3
 3705 00ba 790E0000 		.4byte	.LASF15
 3706 00be 08       		.byte	0x8
 3707 00bf 69       		.byte	0x69
 3708 00c0 19       		.byte	0x19
 3709 00c1 C5000000 		.4byte	0xc5
 3710 00c5 05       		.uleb128 0x5
 3711 00c6 08       		.byte	0x8
 3712 00c7 07       		.byte	0x7
 3713 00c8 661B0000 		.4byte	.LASF16
 3714 00cc 03       		.uleb128 0x3
 3715 00cd 590B0000 		.4byte	.LASF17
 3716 00d1 09       		.byte	0x9
 3717 00d2 2E       		.byte	0x2e
 3718 00d3 0E       		.byte	0xe
 3719 00d4 9F000000 		.4byte	0x9f
 3720 00d8 03       		.uleb128 0x3
 3721 00d9 EB180000 		.4byte	.LASF18
 3722 00dd 09       		.byte	0x9
 3723 00de 74       		.byte	0x74
 3724 00df 0E       		.byte	0xe
 3725 00e0 9F000000 		.4byte	0x9f
 3726 00e4 07       		.uleb128 0x7
 3727 00e5 04       		.byte	0x4
 3728 00e6 09       		.byte	0x9
 3729 00e7 A5       		.byte	0xa5
 3730 00e8 03       		.byte	0x3
 3731 00e9 06010000 		.4byte	0x106
 3732 00ed 08       		.uleb128 0x8
 3733 00ee C5130000 		.4byte	.LASF19
 3734 00f2 09       		.byte	0x9
 3735 00f3 A7       		.byte	0xa7
 3736 00f4 0C       		.byte	0xc
ARM GAS  /tmp/ccDQUTww.s 			page 67


 3737 00f5 52000000 		.4byte	0x52
 3738 00f9 08       		.uleb128 0x8
 3739 00fa F90C0000 		.4byte	.LASF20
 3740 00fe 09       		.byte	0x9
 3741 00ff A8       		.byte	0xa8
 3742 0100 13       		.byte	0x13
 3743 0101 06010000 		.4byte	0x106
 3744 0105 00       		.byte	0
 3745 0106 09       		.uleb128 0x9
 3746 0107 72000000 		.4byte	0x72
 3747 010b 16010000 		.4byte	0x116
 3748 010f 0A       		.uleb128 0xa
 3749 0110 3D000000 		.4byte	0x3d
 3750 0114 03       		.byte	0x3
 3751 0115 00       		.byte	0
 3752 0116 0B       		.uleb128 0xb
 3753 0117 08       		.byte	0x8
 3754 0118 09       		.byte	0x9
 3755 0119 A2       		.byte	0xa2
 3756 011a 09       		.byte	0x9
 3757 011b 3A010000 		.4byte	0x13a
 3758 011f 0C       		.uleb128 0xc
 3759 0120 A60B0000 		.4byte	.LASF21
 3760 0124 09       		.byte	0x9
 3761 0125 A4       		.byte	0xa4
 3762 0126 07       		.byte	0x7
 3763 0127 25000000 		.4byte	0x25
 3764 012b 00       		.byte	0
 3765 012c 0C       		.uleb128 0xc
 3766 012d 361A0000 		.4byte	.LASF22
 3767 0131 09       		.byte	0x9
 3768 0132 A9       		.byte	0xa9
 3769 0133 05       		.byte	0x5
 3770 0134 E4000000 		.4byte	0xe4
 3771 0138 04       		.byte	0x4
 3772 0139 00       		.byte	0
 3773 013a 03       		.uleb128 0x3
 3774 013b 98190000 		.4byte	.LASF23
 3775 013f 09       		.byte	0x9
 3776 0140 AA       		.byte	0xaa
 3777 0141 03       		.byte	0x3
 3778 0142 16010000 		.4byte	0x116
 3779 0146 0D       		.uleb128 0xd
 3780 0147 04       		.byte	0x4
 3781 0148 03       		.uleb128 0x3
 3782 0149 E9100000 		.4byte	.LASF24
 3783 014d 0A       		.byte	0xa
 3784 014e 16       		.byte	0x16
 3785 014f 19       		.byte	0x19
 3786 0150 B2000000 		.4byte	0xb2
 3787 0154 03       		.uleb128 0x3
 3788 0155 21070000 		.4byte	.LASF25
 3789 0159 0B       		.byte	0xb
 3790 015a 22       		.byte	0x22
 3791 015b 19       		.byte	0x19
 3792 015c 60010000 		.4byte	0x160
 3793 0160 0E       		.uleb128 0xe
ARM GAS  /tmp/ccDQUTww.s 			page 68


 3794 0161 04       		.byte	0x4
 3795 0162 66010000 		.4byte	0x166
 3796 0166 0F       		.uleb128 0xf
 3797 0167 C1050000 		.4byte	.LASF121
 3798 016b 03       		.uleb128 0x3
 3799 016c 101D0000 		.4byte	.LASF26
 3800 0170 0A       		.byte	0xa
 3801 0171 23       		.byte	0x23
 3802 0172 1B       		.byte	0x1b
 3803 0173 54010000 		.4byte	0x154
 3804 0177 10       		.uleb128 0x10
 3805 0178 05170000 		.4byte	.LASF31
 3806 017c 18       		.byte	0x18
 3807 017d 0A       		.byte	0xa
 3808 017e 34       		.byte	0x34
 3809 017f 08       		.byte	0x8
 3810 0180 D1010000 		.4byte	0x1d1
 3811 0184 0C       		.uleb128 0xc
 3812 0185 980E0000 		.4byte	.LASF27
 3813 0189 0A       		.byte	0xa
 3814 018a 36       		.byte	0x36
 3815 018b 13       		.byte	0x13
 3816 018c D1010000 		.4byte	0x1d1
 3817 0190 00       		.byte	0
 3818 0191 11       		.uleb128 0x11
 3819 0192 5F6B00   		.ascii	"_k\000"
 3820 0195 0A       		.byte	0xa
 3821 0196 37       		.byte	0x37
 3822 0197 07       		.byte	0x7
 3823 0198 25000000 		.4byte	0x25
 3824 019c 04       		.byte	0x4
 3825 019d 0C       		.uleb128 0xc
 3826 019e CD150000 		.4byte	.LASF28
 3827 01a2 0A       		.byte	0xa
 3828 01a3 37       		.byte	0x37
 3829 01a4 0B       		.byte	0xb
 3830 01a5 25000000 		.4byte	0x25
 3831 01a9 08       		.byte	0x8
 3832 01aa 0C       		.uleb128 0xc
 3833 01ab F41F0000 		.4byte	.LASF29
 3834 01af 0A       		.byte	0xa
 3835 01b0 37       		.byte	0x37
 3836 01b1 14       		.byte	0x14
 3837 01b2 25000000 		.4byte	0x25
 3838 01b6 0C       		.byte	0xc
 3839 01b7 0C       		.uleb128 0xc
 3840 01b8 F8080000 		.4byte	.LASF30
 3841 01bc 0A       		.byte	0xa
 3842 01bd 37       		.byte	0x37
 3843 01be 1B       		.byte	0x1b
 3844 01bf 25000000 		.4byte	0x25
 3845 01c3 10       		.byte	0x10
 3846 01c4 11       		.uleb128 0x11
 3847 01c5 5F7800   		.ascii	"_x\000"
 3848 01c8 0A       		.byte	0xa
 3849 01c9 38       		.byte	0x38
 3850 01ca 0B       		.byte	0xb
ARM GAS  /tmp/ccDQUTww.s 			page 69


 3851 01cb D7010000 		.4byte	0x1d7
 3852 01cf 14       		.byte	0x14
 3853 01d0 00       		.byte	0
 3854 01d1 0E       		.uleb128 0xe
 3855 01d2 04       		.byte	0x4
 3856 01d3 77010000 		.4byte	0x177
 3857 01d7 09       		.uleb128 0x9
 3858 01d8 48010000 		.4byte	0x148
 3859 01dc E7010000 		.4byte	0x1e7
 3860 01e0 0A       		.uleb128 0xa
 3861 01e1 3D000000 		.4byte	0x3d
 3862 01e5 00       		.byte	0
 3863 01e6 00       		.byte	0
 3864 01e7 10       		.uleb128 0x10
 3865 01e8 6F060000 		.4byte	.LASF32
 3866 01ec 24       		.byte	0x24
 3867 01ed 0A       		.byte	0xa
 3868 01ee 3C       		.byte	0x3c
 3869 01ef 08       		.byte	0x8
 3870 01f0 6A020000 		.4byte	0x26a
 3871 01f4 0C       		.uleb128 0xc
 3872 01f5 C90F0000 		.4byte	.LASF33
 3873 01f9 0A       		.byte	0xa
 3874 01fa 3E       		.byte	0x3e
 3875 01fb 09       		.byte	0x9
 3876 01fc 25000000 		.4byte	0x25
 3877 0200 00       		.byte	0
 3878 0201 0C       		.uleb128 0xc
 3879 0202 03200000 		.4byte	.LASF34
 3880 0206 0A       		.byte	0xa
 3881 0207 3F       		.byte	0x3f
 3882 0208 09       		.byte	0x9
 3883 0209 25000000 		.4byte	0x25
 3884 020d 04       		.byte	0x4
 3885 020e 0C       		.uleb128 0xc
 3886 020f 1A0D0000 		.4byte	.LASF35
 3887 0213 0A       		.byte	0xa
 3888 0214 40       		.byte	0x40
 3889 0215 09       		.byte	0x9
 3890 0216 25000000 		.4byte	0x25
 3891 021a 08       		.byte	0x8
 3892 021b 0C       		.uleb128 0xc
 3893 021c EE0D0000 		.4byte	.LASF36
 3894 0220 0A       		.byte	0xa
 3895 0221 41       		.byte	0x41
 3896 0222 09       		.byte	0x9
 3897 0223 25000000 		.4byte	0x25
 3898 0227 0C       		.byte	0xc
 3899 0228 0C       		.uleb128 0xc
 3900 0229 F0010000 		.4byte	.LASF37
 3901 022d 0A       		.byte	0xa
 3902 022e 42       		.byte	0x42
 3903 022f 09       		.byte	0x9
 3904 0230 25000000 		.4byte	0x25
 3905 0234 10       		.byte	0x10
 3906 0235 0C       		.uleb128 0xc
 3907 0236 B7090000 		.4byte	.LASF38
ARM GAS  /tmp/ccDQUTww.s 			page 70


 3908 023a 0A       		.byte	0xa
 3909 023b 43       		.byte	0x43
 3910 023c 09       		.byte	0x9
 3911 023d 25000000 		.4byte	0x25
 3912 0241 14       		.byte	0x14
 3913 0242 0C       		.uleb128 0xc
 3914 0243 51080000 		.4byte	.LASF39
 3915 0247 0A       		.byte	0xa
 3916 0248 44       		.byte	0x44
 3917 0249 09       		.byte	0x9
 3918 024a 25000000 		.4byte	0x25
 3919 024e 18       		.byte	0x18
 3920 024f 0C       		.uleb128 0xc
 3921 0250 F4060000 		.4byte	.LASF40
 3922 0254 0A       		.byte	0xa
 3923 0255 45       		.byte	0x45
 3924 0256 09       		.byte	0x9
 3925 0257 25000000 		.4byte	0x25
 3926 025b 1C       		.byte	0x1c
 3927 025c 0C       		.uleb128 0xc
 3928 025d 5B080000 		.4byte	.LASF41
 3929 0261 0A       		.byte	0xa
 3930 0262 46       		.byte	0x46
 3931 0263 09       		.byte	0x9
 3932 0264 25000000 		.4byte	0x25
 3933 0268 20       		.byte	0x20
 3934 0269 00       		.byte	0
 3935 026a 12       		.uleb128 0x12
 3936 026b EA0F0000 		.4byte	.LASF42
 3937 026f 0801     		.2byte	0x108
 3938 0271 0A       		.byte	0xa
 3939 0272 4F       		.byte	0x4f
 3940 0273 08       		.byte	0x8
 3941 0274 AF020000 		.4byte	0x2af
 3942 0278 0C       		.uleb128 0xc
 3943 0279 220E0000 		.4byte	.LASF43
 3944 027d 0A       		.byte	0xa
 3945 027e 50       		.byte	0x50
 3946 027f 0A       		.byte	0xa
 3947 0280 AF020000 		.4byte	0x2af
 3948 0284 00       		.byte	0
 3949 0285 0C       		.uleb128 0xc
 3950 0286 17080000 		.4byte	.LASF44
 3951 028a 0A       		.byte	0xa
 3952 028b 51       		.byte	0x51
 3953 028c 09       		.byte	0x9
 3954 028d AF020000 		.4byte	0x2af
 3955 0291 80       		.byte	0x80
 3956 0292 13       		.uleb128 0x13
 3957 0293 F9010000 		.4byte	.LASF45
 3958 0297 0A       		.byte	0xa
 3959 0298 53       		.byte	0x53
 3960 0299 0A       		.byte	0xa
 3961 029a 48010000 		.4byte	0x148
 3962 029e 0001     		.2byte	0x100
 3963 02a0 13       		.uleb128 0x13
 3964 02a1 3E1A0000 		.4byte	.LASF46
ARM GAS  /tmp/ccDQUTww.s 			page 71


 3965 02a5 0A       		.byte	0xa
 3966 02a6 56       		.byte	0x56
 3967 02a7 0A       		.byte	0xa
 3968 02a8 48010000 		.4byte	0x148
 3969 02ac 0401     		.2byte	0x104
 3970 02ae 00       		.byte	0
 3971 02af 09       		.uleb128 0x9
 3972 02b0 46010000 		.4byte	0x146
 3973 02b4 BF020000 		.4byte	0x2bf
 3974 02b8 0A       		.uleb128 0xa
 3975 02b9 3D000000 		.4byte	0x3d
 3976 02bd 1F       		.byte	0x1f
 3977 02be 00       		.byte	0
 3978 02bf 10       		.uleb128 0x10
 3979 02c0 4F010000 		.4byte	.LASF47
 3980 02c4 8C       		.byte	0x8c
 3981 02c5 0A       		.byte	0xa
 3982 02c6 5A       		.byte	0x5a
 3983 02c7 08       		.byte	0x8
 3984 02c8 01030000 		.4byte	0x301
 3985 02cc 0C       		.uleb128 0xc
 3986 02cd 980E0000 		.4byte	.LASF27
 3987 02d1 0A       		.byte	0xa
 3988 02d2 5B       		.byte	0x5b
 3989 02d3 12       		.byte	0x12
 3990 02d4 01030000 		.4byte	0x301
 3991 02d8 00       		.byte	0
 3992 02d9 0C       		.uleb128 0xc
 3993 02da 16020000 		.4byte	.LASF48
 3994 02de 0A       		.byte	0xa
 3995 02df 5C       		.byte	0x5c
 3996 02e0 06       		.byte	0x6
 3997 02e1 25000000 		.4byte	0x25
 3998 02e5 04       		.byte	0x4
 3999 02e6 0C       		.uleb128 0xc
 4000 02e7 53190000 		.4byte	.LASF49
 4001 02eb 0A       		.byte	0xa
 4002 02ec 5D       		.byte	0x5d
 4003 02ed 09       		.byte	0x9
 4004 02ee 07030000 		.4byte	0x307
 4005 02f2 08       		.byte	0x8
 4006 02f3 0C       		.uleb128 0xc
 4007 02f4 00000000 		.4byte	.LASF50
 4008 02f8 0A       		.byte	0xa
 4009 02f9 5E       		.byte	0x5e
 4010 02fa 20       		.byte	0x20
 4011 02fb 1E030000 		.4byte	0x31e
 4012 02ff 88       		.byte	0x88
 4013 0300 00       		.byte	0
 4014 0301 0E       		.uleb128 0xe
 4015 0302 04       		.byte	0x4
 4016 0303 BF020000 		.4byte	0x2bf
 4017 0307 09       		.uleb128 0x9
 4018 0308 17030000 		.4byte	0x317
 4019 030c 17030000 		.4byte	0x317
 4020 0310 0A       		.uleb128 0xa
 4021 0311 3D000000 		.4byte	0x3d
ARM GAS  /tmp/ccDQUTww.s 			page 72


 4022 0315 1F       		.byte	0x1f
 4023 0316 00       		.byte	0
 4024 0317 0E       		.uleb128 0xe
 4025 0318 04       		.byte	0x4
 4026 0319 1D030000 		.4byte	0x31d
 4027 031d 14       		.uleb128 0x14
 4028 031e 0E       		.uleb128 0xe
 4029 031f 04       		.byte	0x4
 4030 0320 6A020000 		.4byte	0x26a
 4031 0324 10       		.uleb128 0x10
 4032 0325 60130000 		.4byte	.LASF51
 4033 0329 08       		.byte	0x8
 4034 032a 0A       		.byte	0xa
 4035 032b 7A       		.byte	0x7a
 4036 032c 08       		.byte	0x8
 4037 032d 4C030000 		.4byte	0x34c
 4038 0331 0C       		.uleb128 0xc
 4039 0332 E3050000 		.4byte	.LASF52
 4040 0336 0A       		.byte	0xa
 4041 0337 7B       		.byte	0x7b
 4042 0338 11       		.byte	0x11
 4043 0339 4C030000 		.4byte	0x34c
 4044 033d 00       		.byte	0
 4045 033e 0C       		.uleb128 0xc
 4046 033f 18090000 		.4byte	.LASF53
 4047 0343 0A       		.byte	0xa
 4048 0344 7C       		.byte	0x7c
 4049 0345 06       		.byte	0x6
 4050 0346 25000000 		.4byte	0x25
 4051 034a 04       		.byte	0x4
 4052 034b 00       		.byte	0
 4053 034c 0E       		.uleb128 0xe
 4054 034d 04       		.byte	0x4
 4055 034e 72000000 		.4byte	0x72
 4056 0352 10       		.uleb128 0x10
 4057 0353 4A040000 		.4byte	.LASF54
 4058 0357 20       		.byte	0x20
 4059 0358 0A       		.byte	0xa
 4060 0359 9E       		.byte	0x9e
 4061 035a 08       		.byte	0x8
 4062 035b C5030000 		.4byte	0x3c5
 4063 035f 11       		.uleb128 0x11
 4064 0360 5F7000   		.ascii	"_p\000"
 4065 0363 0A       		.byte	0xa
 4066 0364 9F       		.byte	0x9f
 4067 0365 12       		.byte	0x12
 4068 0366 4C030000 		.4byte	0x34c
 4069 036a 00       		.byte	0
 4070 036b 11       		.uleb128 0x11
 4071 036c 5F7200   		.ascii	"_r\000"
 4072 036f 0A       		.byte	0xa
 4073 0370 A0       		.byte	0xa0
 4074 0371 07       		.byte	0x7
 4075 0372 25000000 		.4byte	0x25
 4076 0376 04       		.byte	0x4
 4077 0377 11       		.uleb128 0x11
 4078 0378 5F7700   		.ascii	"_w\000"
ARM GAS  /tmp/ccDQUTww.s 			page 73


 4079 037b 0A       		.byte	0xa
 4080 037c A1       		.byte	0xa1
 4081 037d 07       		.byte	0x7
 4082 037e 25000000 		.4byte	0x25
 4083 0382 08       		.byte	0x8
 4084 0383 0C       		.uleb128 0xc
 4085 0384 92020000 		.4byte	.LASF55
 4086 0388 0A       		.byte	0xa
 4087 0389 A2       		.byte	0xa2
 4088 038a 09       		.byte	0x9
 4089 038b 79000000 		.4byte	0x79
 4090 038f 0C       		.byte	0xc
 4091 0390 0C       		.uleb128 0xc
 4092 0391 F3180000 		.4byte	.LASF56
 4093 0395 0A       		.byte	0xa
 4094 0396 A3       		.byte	0xa3
 4095 0397 09       		.byte	0x9
 4096 0398 79000000 		.4byte	0x79
 4097 039c 0E       		.byte	0xe
 4098 039d 11       		.uleb128 0x11
 4099 039e 5F626600 		.ascii	"_bf\000"
 4100 03a2 0A       		.byte	0xa
 4101 03a3 A4       		.byte	0xa4
 4102 03a4 11       		.byte	0x11
 4103 03a5 24030000 		.4byte	0x324
 4104 03a9 10       		.byte	0x10
 4105 03aa 0C       		.uleb128 0xc
 4106 03ab E9040000 		.4byte	.LASF57
 4107 03af 0A       		.byte	0xa
 4108 03b0 A5       		.byte	0xa5
 4109 03b1 07       		.byte	0x7
 4110 03b2 25000000 		.4byte	0x25
 4111 03b6 18       		.byte	0x18
 4112 03b7 0C       		.uleb128 0xc
 4113 03b8 50050000 		.4byte	.LASF58
 4114 03bc 0A       		.byte	0xa
 4115 03bd A7       		.byte	0xa7
 4116 03be 12       		.byte	0x12
 4117 03bf 0D050000 		.4byte	0x50d
 4118 03c3 1C       		.byte	0x1c
 4119 03c4 00       		.byte	0
 4120 03c5 15       		.uleb128 0x15
 4121 03c6 52030000 		.4byte	0x352
 4122 03ca 16       		.uleb128 0x16
 4123 03cb C8050000 		.4byte	.LASF59
 4124 03cf 60       		.byte	0x60
 4125 03d0 0A       		.byte	0xa
 4126 03d1 7901     		.2byte	0x179
 4127 03d3 08       		.byte	0x8
 4128 03d4 0D050000 		.4byte	0x50d
 4129 03d8 17       		.uleb128 0x17
 4130 03d9 D70D0000 		.4byte	.LASF60
 4131 03dd 0A       		.byte	0xa
 4132 03de 7D01     		.2byte	0x17d
 4133 03e0 07       		.byte	0x7
 4134 03e1 25000000 		.4byte	0x25
 4135 03e5 00       		.byte	0
ARM GAS  /tmp/ccDQUTww.s 			page 74


 4136 03e6 17       		.uleb128 0x17
 4137 03e7 880A0000 		.4byte	.LASF61
 4138 03eb 0A       		.byte	0xa
 4139 03ec 8201     		.2byte	0x182
 4140 03ee 0B       		.byte	0xb
 4141 03ef 6A070000 		.4byte	0x76a
 4142 03f3 04       		.byte	0x4
 4143 03f4 17       		.uleb128 0x17
 4144 03f5 A9080000 		.4byte	.LASF62
 4145 03f9 0A       		.byte	0xa
 4146 03fa 8201     		.2byte	0x182
 4147 03fc 14       		.byte	0x14
 4148 03fd 6A070000 		.4byte	0x76a
 4149 0401 08       		.byte	0x8
 4150 0402 17       		.uleb128 0x17
 4151 0403 FC070000 		.4byte	.LASF63
 4152 0407 0A       		.byte	0xa
 4153 0408 8201     		.2byte	0x182
 4154 040a 1E       		.byte	0x1e
 4155 040b 6A070000 		.4byte	0x76a
 4156 040f 0C       		.byte	0xc
 4157 0410 17       		.uleb128 0x17
 4158 0411 11020000 		.4byte	.LASF64
 4159 0415 0A       		.byte	0xa
 4160 0416 8401     		.2byte	0x184
 4161 0418 08       		.byte	0x8
 4162 0419 25000000 		.4byte	0x25
 4163 041d 10       		.byte	0x10
 4164 041e 17       		.uleb128 0x17
 4165 041f 43150000 		.4byte	.LASF65
 4166 0423 0A       		.byte	0xa
 4167 0424 8601     		.2byte	0x186
 4168 0426 09       		.byte	0x9
 4169 0427 79060000 		.4byte	0x679
 4170 042b 14       		.byte	0x14
 4171 042c 17       		.uleb128 0x17
 4172 042d B81C0000 		.4byte	.LASF66
 4173 0431 0A       		.byte	0xa
 4174 0432 8801     		.2byte	0x188
 4175 0434 07       		.byte	0x7
 4176 0435 25000000 		.4byte	0x25
 4177 0439 18       		.byte	0x18
 4178 043a 17       		.uleb128 0x17
 4179 043b 711C0000 		.4byte	.LASF67
 4180 043f 0A       		.byte	0xa
 4181 0440 8A01     		.2byte	0x18a
 4182 0442 07       		.byte	0x7
 4183 0443 25000000 		.4byte	0x25
 4184 0447 1C       		.byte	0x1c
 4185 0448 17       		.uleb128 0x17
 4186 0449 FF1D0000 		.4byte	.LASF68
 4187 044d 0A       		.byte	0xa
 4188 044e 8B01     		.2byte	0x18b
 4189 0450 16       		.byte	0x16
 4190 0451 D2080000 		.4byte	0x8d2
 4191 0455 20       		.byte	0x20
 4192 0456 18       		.uleb128 0x18
ARM GAS  /tmp/ccDQUTww.s 			page 75


 4193 0457 5F6D7000 		.ascii	"_mp\000"
 4194 045b 0A       		.byte	0xa
 4195 045c 8D01     		.2byte	0x18d
 4196 045e 12       		.byte	0x12
 4197 045f D8080000 		.4byte	0x8d8
 4198 0463 24       		.byte	0x24
 4199 0464 17       		.uleb128 0x17
 4200 0465 A7180000 		.4byte	.LASF69
 4201 0469 0A       		.byte	0xa
 4202 046a 8F01     		.2byte	0x18f
 4203 046c 0A       		.byte	0xa
 4204 046d E9080000 		.4byte	0x8e9
 4205 0471 28       		.byte	0x28
 4206 0472 17       		.uleb128 0x17
 4207 0473 B81B0000 		.4byte	.LASF70
 4208 0477 0A       		.byte	0xa
 4209 0478 9101     		.2byte	0x191
 4210 047a 07       		.byte	0x7
 4211 047b 25000000 		.4byte	0x25
 4212 047f 2C       		.byte	0x2c
 4213 0480 17       		.uleb128 0x17
 4214 0481 FA020000 		.4byte	.LASF71
 4215 0485 0A       		.byte	0xa
 4216 0486 9401     		.2byte	0x194
 4217 0488 07       		.byte	0x7
 4218 0489 25000000 		.4byte	0x25
 4219 048d 30       		.byte	0x30
 4220 048e 17       		.uleb128 0x17
 4221 048f 690C0000 		.4byte	.LASF72
 4222 0493 0A       		.byte	0xa
 4223 0494 9501     		.2byte	0x195
 4224 0496 09       		.byte	0x9
 4225 0497 79060000 		.4byte	0x679
 4226 049b 34       		.byte	0x34
 4227 049c 17       		.uleb128 0x17
 4228 049d 5E200000 		.4byte	.LASF73
 4229 04a1 0A       		.byte	0xa
 4230 04a2 9701     		.2byte	0x197
 4231 04a4 13       		.byte	0x13
 4232 04a5 EF080000 		.4byte	0x8ef
 4233 04a9 38       		.byte	0x38
 4234 04aa 17       		.uleb128 0x17
 4235 04ab 820B0000 		.4byte	.LASF74
 4236 04af 0A       		.byte	0xa
 4237 04b0 9801     		.2byte	0x198
 4238 04b2 10       		.byte	0x10
 4239 04b3 F5080000 		.4byte	0x8f5
 4240 04b7 3C       		.byte	0x3c
 4241 04b8 17       		.uleb128 0x17
 4242 04b9 B3130000 		.4byte	.LASF75
 4243 04bd 0A       		.byte	0xa
 4244 04be 9901     		.2byte	0x199
 4245 04c0 09       		.byte	0x9
 4246 04c1 79060000 		.4byte	0x679
 4247 04c5 40       		.byte	0x40
 4248 04c6 17       		.uleb128 0x17
 4249 04c7 13030000 		.4byte	.LASF76
ARM GAS  /tmp/ccDQUTww.s 			page 76


 4250 04cb 0A       		.byte	0xa
 4251 04cc 9C01     		.2byte	0x19c
 4252 04ce 0C       		.byte	0xc
 4253 04cf 06090000 		.4byte	0x906
 4254 04d3 44       		.byte	0x44
 4255 04d4 17       		.uleb128 0x17
 4256 04d5 7C180000 		.4byte	.LASF77
 4257 04d9 0A       		.byte	0xa
 4258 04da A401     		.2byte	0x1a4
 4259 04dc 10       		.byte	0x10
 4260 04dd 2B070000 		.4byte	0x72b
 4261 04e1 48       		.byte	0x48
 4262 04e2 17       		.uleb128 0x17
 4263 04e3 D5050000 		.4byte	.LASF78
 4264 04e7 0A       		.byte	0xa
 4265 04e8 A501     		.2byte	0x1a5
 4266 04ea 0B       		.byte	0xb
 4267 04eb 6A070000 		.4byte	0x76a
 4268 04ef 54       		.byte	0x54
 4269 04f0 17       		.uleb128 0x17
 4270 04f1 FD080000 		.4byte	.LASF79
 4271 04f5 0A       		.byte	0xa
 4272 04f6 A601     		.2byte	0x1a6
 4273 04f8 17       		.byte	0x17
 4274 04f9 12090000 		.4byte	0x912
 4275 04fd 58       		.byte	0x58
 4276 04fe 17       		.uleb128 0x17
 4277 04ff BE0E0000 		.4byte	.LASF80
 4278 0503 0A       		.byte	0xa
 4279 0504 A701     		.2byte	0x1a7
 4280 0506 09       		.byte	0x9
 4281 0507 79060000 		.4byte	0x679
 4282 050b 5C       		.byte	0x5c
 4283 050c 00       		.byte	0
 4284 050d 0E       		.uleb128 0xe
 4285 050e 04       		.byte	0x4
 4286 050f CA030000 		.4byte	0x3ca
 4287 0513 15       		.uleb128 0x15
 4288 0514 0D050000 		.4byte	0x50d
 4289 0518 10       		.uleb128 0x10
 4290 0519 35190000 		.4byte	.LASF81
 4291 051d 68       		.byte	0x68
 4292 051e 0A       		.byte	0xa
 4293 051f BA       		.byte	0xba
 4294 0520 08       		.byte	0x8
 4295 0521 5B060000 		.4byte	0x65b
 4296 0525 11       		.uleb128 0x11
 4297 0526 5F7000   		.ascii	"_p\000"
 4298 0529 0A       		.byte	0xa
 4299 052a BB       		.byte	0xbb
 4300 052b 12       		.byte	0x12
 4301 052c 4C030000 		.4byte	0x34c
 4302 0530 00       		.byte	0
 4303 0531 11       		.uleb128 0x11
 4304 0532 5F7200   		.ascii	"_r\000"
 4305 0535 0A       		.byte	0xa
 4306 0536 BC       		.byte	0xbc
ARM GAS  /tmp/ccDQUTww.s 			page 77


 4307 0537 07       		.byte	0x7
 4308 0538 25000000 		.4byte	0x25
 4309 053c 04       		.byte	0x4
 4310 053d 11       		.uleb128 0x11
 4311 053e 5F7700   		.ascii	"_w\000"
 4312 0541 0A       		.byte	0xa
 4313 0542 BD       		.byte	0xbd
 4314 0543 07       		.byte	0x7
 4315 0544 25000000 		.4byte	0x25
 4316 0548 08       		.byte	0x8
 4317 0549 0C       		.uleb128 0xc
 4318 054a 92020000 		.4byte	.LASF55
 4319 054e 0A       		.byte	0xa
 4320 054f BE       		.byte	0xbe
 4321 0550 09       		.byte	0x9
 4322 0551 79000000 		.4byte	0x79
 4323 0555 0C       		.byte	0xc
 4324 0556 0C       		.uleb128 0xc
 4325 0557 F3180000 		.4byte	.LASF56
 4326 055b 0A       		.byte	0xa
 4327 055c BF       		.byte	0xbf
 4328 055d 09       		.byte	0x9
 4329 055e 79000000 		.4byte	0x79
 4330 0562 0E       		.byte	0xe
 4331 0563 11       		.uleb128 0x11
 4332 0564 5F626600 		.ascii	"_bf\000"
 4333 0568 0A       		.byte	0xa
 4334 0569 C0       		.byte	0xc0
 4335 056a 11       		.byte	0x11
 4336 056b 24030000 		.4byte	0x324
 4337 056f 10       		.byte	0x10
 4338 0570 0C       		.uleb128 0xc
 4339 0571 E9040000 		.4byte	.LASF57
 4340 0575 0A       		.byte	0xa
 4341 0576 C1       		.byte	0xc1
 4342 0577 07       		.byte	0x7
 4343 0578 25000000 		.4byte	0x25
 4344 057c 18       		.byte	0x18
 4345 057d 0C       		.uleb128 0xc
 4346 057e 50050000 		.4byte	.LASF58
 4347 0582 0A       		.byte	0xa
 4348 0583 C4       		.byte	0xc4
 4349 0584 12       		.byte	0x12
 4350 0585 0D050000 		.4byte	0x50d
 4351 0589 1C       		.byte	0x1c
 4352 058a 0C       		.uleb128 0xc
 4353 058b D00E0000 		.4byte	.LASF82
 4354 058f 0A       		.byte	0xa
 4355 0590 C8       		.byte	0xc8
 4356 0591 0A       		.byte	0xa
 4357 0592 46010000 		.4byte	0x146
 4358 0596 20       		.byte	0x20
 4359 0597 0C       		.uleb128 0xc
 4360 0598 C8200000 		.4byte	.LASF83
 4361 059c 0A       		.byte	0xa
 4362 059d CA       		.byte	0xca
 4363 059e 1D       		.byte	0x1d
ARM GAS  /tmp/ccDQUTww.s 			page 78


 4364 059f 8B060000 		.4byte	0x68b
 4365 05a3 24       		.byte	0x24
 4366 05a4 0C       		.uleb128 0xc
 4367 05a5 5D090000 		.4byte	.LASF84
 4368 05a9 0A       		.byte	0xa
 4369 05aa CC       		.byte	0xcc
 4370 05ab 1D       		.byte	0x1d
 4371 05ac BA060000 		.4byte	0x6ba
 4372 05b0 28       		.byte	0x28
 4373 05b1 0C       		.uleb128 0xc
 4374 05b2 F0110000 		.4byte	.LASF85
 4375 05b6 0A       		.byte	0xa
 4376 05b7 CF       		.byte	0xcf
 4377 05b8 0D       		.byte	0xd
 4378 05b9 DE060000 		.4byte	0x6de
 4379 05bd 2C       		.byte	0x2c
 4380 05be 0C       		.uleb128 0xc
 4381 05bf A0160000 		.4byte	.LASF86
 4382 05c3 0A       		.byte	0xa
 4383 05c4 D0       		.byte	0xd0
 4384 05c5 09       		.byte	0x9
 4385 05c6 F8060000 		.4byte	0x6f8
 4386 05ca 30       		.byte	0x30
 4387 05cb 11       		.uleb128 0x11
 4388 05cc 5F756200 		.ascii	"_ub\000"
 4389 05d0 0A       		.byte	0xa
 4390 05d1 D3       		.byte	0xd3
 4391 05d2 11       		.byte	0x11
 4392 05d3 24030000 		.4byte	0x324
 4393 05d7 34       		.byte	0x34
 4394 05d8 11       		.uleb128 0x11
 4395 05d9 5F757000 		.ascii	"_up\000"
 4396 05dd 0A       		.byte	0xa
 4397 05de D4       		.byte	0xd4
 4398 05df 12       		.byte	0x12
 4399 05e0 4C030000 		.4byte	0x34c
 4400 05e4 3C       		.byte	0x3c
 4401 05e5 11       		.uleb128 0x11
 4402 05e6 5F757200 		.ascii	"_ur\000"
 4403 05ea 0A       		.byte	0xa
 4404 05eb D5       		.byte	0xd5
 4405 05ec 07       		.byte	0x7
 4406 05ed 25000000 		.4byte	0x25
 4407 05f1 40       		.byte	0x40
 4408 05f2 0C       		.uleb128 0xc
 4409 05f3 4A180000 		.4byte	.LASF87
 4410 05f7 0A       		.byte	0xa
 4411 05f8 D8       		.byte	0xd8
 4412 05f9 11       		.byte	0x11
 4413 05fa FE060000 		.4byte	0x6fe
 4414 05fe 44       		.byte	0x44
 4415 05ff 0C       		.uleb128 0xc
 4416 0600 4F030000 		.4byte	.LASF88
 4417 0604 0A       		.byte	0xa
 4418 0605 D9       		.byte	0xd9
 4419 0606 11       		.byte	0x11
 4420 0607 0E070000 		.4byte	0x70e
ARM GAS  /tmp/ccDQUTww.s 			page 79


 4421 060b 47       		.byte	0x47
 4422 060c 11       		.uleb128 0x11
 4423 060d 5F6C6200 		.ascii	"_lb\000"
 4424 0611 0A       		.byte	0xa
 4425 0612 DC       		.byte	0xdc
 4426 0613 11       		.byte	0x11
 4427 0614 24030000 		.4byte	0x324
 4428 0618 48       		.byte	0x48
 4429 0619 0C       		.uleb128 0xc
 4430 061a 38180000 		.4byte	.LASF89
 4431 061e 0A       		.byte	0xa
 4432 061f DF       		.byte	0xdf
 4433 0620 07       		.byte	0x7
 4434 0621 25000000 		.4byte	0x25
 4435 0625 50       		.byte	0x50
 4436 0626 0C       		.uleb128 0xc
 4437 0627 21130000 		.4byte	.LASF90
 4438 062b 0A       		.byte	0xa
 4439 062c E0       		.byte	0xe0
 4440 062d 0A       		.byte	0xa
 4441 062e CC000000 		.4byte	0xcc
 4442 0632 54       		.byte	0x54
 4443 0633 0C       		.uleb128 0xc
 4444 0634 49030000 		.4byte	.LASF91
 4445 0638 0A       		.byte	0xa
 4446 0639 E7       		.byte	0xe7
 4447 063a 0C       		.byte	0xc
 4448 063b 6B010000 		.4byte	0x16b
 4449 063f 58       		.byte	0x58
 4450 0640 0C       		.uleb128 0xc
 4451 0641 46010000 		.4byte	.LASF92
 4452 0645 0A       		.byte	0xa
 4453 0646 E9       		.byte	0xe9
 4454 0647 0E       		.byte	0xe
 4455 0648 3A010000 		.4byte	0x13a
 4456 064c 5C       		.byte	0x5c
 4457 064d 0C       		.uleb128 0xc
 4458 064e CB1D0000 		.4byte	.LASF93
 4459 0652 0A       		.byte	0xa
 4460 0653 EA       		.byte	0xea
 4461 0654 09       		.byte	0x9
 4462 0655 25000000 		.4byte	0x25
 4463 0659 64       		.byte	0x64
 4464 065a 00       		.byte	0
 4465 065b 19       		.uleb128 0x19
 4466 065c 25000000 		.4byte	0x25
 4467 0660 79060000 		.4byte	0x679
 4468 0664 1A       		.uleb128 0x1a
 4469 0665 0D050000 		.4byte	0x50d
 4470 0669 1A       		.uleb128 0x1a
 4471 066a 46010000 		.4byte	0x146
 4472 066e 1A       		.uleb128 0x1a
 4473 066f 79060000 		.4byte	0x679
 4474 0673 1A       		.uleb128 0x1a
 4475 0674 25000000 		.4byte	0x25
 4476 0678 00       		.byte	0
 4477 0679 0E       		.uleb128 0xe
ARM GAS  /tmp/ccDQUTww.s 			page 80


 4478 067a 04       		.byte	0x4
 4479 067b 7F060000 		.4byte	0x67f
 4480 067f 05       		.uleb128 0x5
 4481 0680 01       		.byte	0x1
 4482 0681 08       		.byte	0x8
 4483 0682 A7160000 		.4byte	.LASF94
 4484 0686 15       		.uleb128 0x15
 4485 0687 7F060000 		.4byte	0x67f
 4486 068b 0E       		.uleb128 0xe
 4487 068c 04       		.byte	0x4
 4488 068d 5B060000 		.4byte	0x65b
 4489 0691 19       		.uleb128 0x19
 4490 0692 25000000 		.4byte	0x25
 4491 0696 AF060000 		.4byte	0x6af
 4492 069a 1A       		.uleb128 0x1a
 4493 069b 0D050000 		.4byte	0x50d
 4494 069f 1A       		.uleb128 0x1a
 4495 06a0 46010000 		.4byte	0x146
 4496 06a4 1A       		.uleb128 0x1a
 4497 06a5 AF060000 		.4byte	0x6af
 4498 06a9 1A       		.uleb128 0x1a
 4499 06aa 25000000 		.4byte	0x25
 4500 06ae 00       		.byte	0
 4501 06af 0E       		.uleb128 0xe
 4502 06b0 04       		.byte	0x4
 4503 06b1 86060000 		.4byte	0x686
 4504 06b5 04       		.uleb128 0x4
 4505 06b6 AF060000 		.4byte	0x6af
 4506 06ba 0E       		.uleb128 0xe
 4507 06bb 04       		.byte	0x4
 4508 06bc 91060000 		.4byte	0x691
 4509 06c0 19       		.uleb128 0x19
 4510 06c1 D8000000 		.4byte	0xd8
 4511 06c5 DE060000 		.4byte	0x6de
 4512 06c9 1A       		.uleb128 0x1a
 4513 06ca 0D050000 		.4byte	0x50d
 4514 06ce 1A       		.uleb128 0x1a
 4515 06cf 46010000 		.4byte	0x146
 4516 06d3 1A       		.uleb128 0x1a
 4517 06d4 D8000000 		.4byte	0xd8
 4518 06d8 1A       		.uleb128 0x1a
 4519 06d9 25000000 		.4byte	0x25
 4520 06dd 00       		.byte	0
 4521 06de 0E       		.uleb128 0xe
 4522 06df 04       		.byte	0x4
 4523 06e0 C0060000 		.4byte	0x6c0
 4524 06e4 19       		.uleb128 0x19
 4525 06e5 25000000 		.4byte	0x25
 4526 06e9 F8060000 		.4byte	0x6f8
 4527 06ed 1A       		.uleb128 0x1a
 4528 06ee 0D050000 		.4byte	0x50d
 4529 06f2 1A       		.uleb128 0x1a
 4530 06f3 46010000 		.4byte	0x146
 4531 06f7 00       		.byte	0
 4532 06f8 0E       		.uleb128 0xe
 4533 06f9 04       		.byte	0x4
 4534 06fa E4060000 		.4byte	0x6e4
ARM GAS  /tmp/ccDQUTww.s 			page 81


 4535 06fe 09       		.uleb128 0x9
 4536 06ff 72000000 		.4byte	0x72
 4537 0703 0E070000 		.4byte	0x70e
 4538 0707 0A       		.uleb128 0xa
 4539 0708 3D000000 		.4byte	0x3d
 4540 070c 02       		.byte	0x2
 4541 070d 00       		.byte	0
 4542 070e 09       		.uleb128 0x9
 4543 070f 72000000 		.4byte	0x72
 4544 0713 1E070000 		.4byte	0x71e
 4545 0717 0A       		.uleb128 0xa
 4546 0718 3D000000 		.4byte	0x3d
 4547 071c 00       		.byte	0
 4548 071d 00       		.byte	0
 4549 071e 06       		.uleb128 0x6
 4550 071f 43040000 		.4byte	.LASF95
 4551 0723 0A       		.byte	0xa
 4552 0724 2401     		.2byte	0x124
 4553 0726 1A       		.byte	0x1a
 4554 0727 18050000 		.4byte	0x518
 4555 072b 16       		.uleb128 0x16
 4556 072c AC160000 		.4byte	.LASF96
 4557 0730 0C       		.byte	0xc
 4558 0731 0A       		.byte	0xa
 4559 0732 2801     		.2byte	0x128
 4560 0734 08       		.byte	0x8
 4561 0735 64070000 		.4byte	0x764
 4562 0739 17       		.uleb128 0x17
 4563 073a 980E0000 		.4byte	.LASF27
 4564 073e 0A       		.byte	0xa
 4565 073f 2A01     		.2byte	0x12a
 4566 0741 11       		.byte	0x11
 4567 0742 64070000 		.4byte	0x764
 4568 0746 00       		.byte	0
 4569 0747 17       		.uleb128 0x17
 4570 0748 A60D0000 		.4byte	.LASF97
 4571 074c 0A       		.byte	0xa
 4572 074d 2B01     		.2byte	0x12b
 4573 074f 07       		.byte	0x7
 4574 0750 25000000 		.4byte	0x25
 4575 0754 04       		.byte	0x4
 4576 0755 17       		.uleb128 0x17
 4577 0756 3D150000 		.4byte	.LASF98
 4578 075a 0A       		.byte	0xa
 4579 075b 2C01     		.2byte	0x12c
 4580 075d 0B       		.byte	0xb
 4581 075e 6A070000 		.4byte	0x76a
 4582 0762 08       		.byte	0x8
 4583 0763 00       		.byte	0
 4584 0764 0E       		.uleb128 0xe
 4585 0765 04       		.byte	0x4
 4586 0766 2B070000 		.4byte	0x72b
 4587 076a 0E       		.uleb128 0xe
 4588 076b 04       		.byte	0x4
 4589 076c 1E070000 		.4byte	0x71e
 4590 0770 16       		.uleb128 0x16
 4591 0771 EA200000 		.4byte	.LASF99
ARM GAS  /tmp/ccDQUTww.s 			page 82


 4592 0775 18       		.byte	0x18
 4593 0776 0A       		.byte	0xa
 4594 0777 4401     		.2byte	0x144
 4595 0779 08       		.byte	0x8
 4596 077a B7070000 		.4byte	0x7b7
 4597 077e 17       		.uleb128 0x17
 4598 077f D8110000 		.4byte	.LASF100
 4599 0783 0A       		.byte	0xa
 4600 0784 4501     		.2byte	0x145
 4601 0786 12       		.byte	0x12
 4602 0787 B7070000 		.4byte	0x7b7
 4603 078b 00       		.byte	0
 4604 078c 17       		.uleb128 0x17
 4605 078d 130A0000 		.4byte	.LASF101
 4606 0791 0A       		.byte	0xa
 4607 0792 4601     		.2byte	0x146
 4608 0794 12       		.byte	0x12
 4609 0795 B7070000 		.4byte	0x7b7
 4610 0799 06       		.byte	0x6
 4611 079a 17       		.uleb128 0x17
 4612 079b 7F130000 		.4byte	.LASF102
 4613 079f 0A       		.byte	0xa
 4614 07a0 4701     		.2byte	0x147
 4615 07a2 12       		.byte	0x12
 4616 07a3 8C000000 		.4byte	0x8c
 4617 07a7 0C       		.byte	0xc
 4618 07a8 17       		.uleb128 0x17
 4619 07a9 79150000 		.4byte	.LASF103
 4620 07ad 0A       		.byte	0xa
 4621 07ae 4A01     		.2byte	0x14a
 4622 07b0 24       		.byte	0x24
 4623 07b1 C5000000 		.4byte	0xc5
 4624 07b5 10       		.byte	0x10
 4625 07b6 00       		.byte	0
 4626 07b7 09       		.uleb128 0x9
 4627 07b8 8C000000 		.4byte	0x8c
 4628 07bc C7070000 		.4byte	0x7c7
 4629 07c0 0A       		.uleb128 0xa
 4630 07c1 3D000000 		.4byte	0x3d
 4631 07c5 02       		.byte	0x2
 4632 07c6 00       		.byte	0
 4633 07c7 16       		.uleb128 0x16
 4634 07c8 521A0000 		.4byte	.LASF104
 4635 07cc 10       		.byte	0x10
 4636 07cd 0A       		.byte	0xa
 4637 07ce 5D01     		.2byte	0x15d
 4638 07d0 08       		.byte	0x8
 4639 07d1 0E080000 		.4byte	0x80e
 4640 07d5 17       		.uleb128 0x17
 4641 07d6 04080000 		.4byte	.LASF105
 4642 07da 0A       		.byte	0xa
 4643 07db 6001     		.2byte	0x160
 4644 07dd 13       		.byte	0x13
 4645 07de D1010000 		.4byte	0x1d1
 4646 07e2 00       		.byte	0
 4647 07e3 17       		.uleb128 0x17
 4648 07e4 ED070000 		.4byte	.LASF106
ARM GAS  /tmp/ccDQUTww.s 			page 83


 4649 07e8 0A       		.byte	0xa
 4650 07e9 6101     		.2byte	0x161
 4651 07eb 07       		.byte	0x7
 4652 07ec 25000000 		.4byte	0x25
 4653 07f0 04       		.byte	0x4
 4654 07f1 17       		.uleb128 0x17
 4655 07f2 6B1A0000 		.4byte	.LASF107
 4656 07f6 0A       		.byte	0xa
 4657 07f7 6201     		.2byte	0x162
 4658 07f9 13       		.byte	0x13
 4659 07fa D1010000 		.4byte	0x1d1
 4660 07fe 08       		.byte	0x8
 4661 07ff 17       		.uleb128 0x17
 4662 0800 E6120000 		.4byte	.LASF108
 4663 0804 0A       		.byte	0xa
 4664 0805 6301     		.2byte	0x163
 4665 0807 14       		.byte	0x14
 4666 0808 0E080000 		.4byte	0x80e
 4667 080c 0C       		.byte	0xc
 4668 080d 00       		.byte	0
 4669 080e 0E       		.uleb128 0xe
 4670 080f 04       		.byte	0x4
 4671 0810 D1010000 		.4byte	0x1d1
 4672 0814 16       		.uleb128 0x16
 4673 0815 0D170000 		.4byte	.LASF109
 4674 0819 50       		.byte	0x50
 4675 081a 0A       		.byte	0xa
 4676 081b 6701     		.2byte	0x167
 4677 081d 08       		.byte	0x8
 4678 081e BD080000 		.4byte	0x8bd
 4679 0822 17       		.uleb128 0x17
 4680 0823 8F110000 		.4byte	.LASF110
 4681 0827 0A       		.byte	0xa
 4682 0828 6A01     		.2byte	0x16a
 4683 082a 09       		.byte	0x9
 4684 082b 79060000 		.4byte	0x679
 4685 082f 00       		.byte	0
 4686 0830 17       		.uleb128 0x17
 4687 0831 6F180000 		.4byte	.LASF111
 4688 0835 0A       		.byte	0xa
 4689 0836 6B01     		.2byte	0x16b
 4690 0838 0E       		.byte	0xe
 4691 0839 3A010000 		.4byte	0x13a
 4692 083d 04       		.byte	0x4
 4693 083e 17       		.uleb128 0x17
 4694 083f D0140000 		.4byte	.LASF112
 4695 0843 0A       		.byte	0xa
 4696 0844 6C01     		.2byte	0x16c
 4697 0846 0E       		.byte	0xe
 4698 0847 3A010000 		.4byte	0x13a
 4699 084b 0C       		.byte	0xc
 4700 084c 17       		.uleb128 0x17
 4701 084d 01060000 		.4byte	.LASF113
 4702 0851 0A       		.byte	0xa
 4703 0852 6D01     		.2byte	0x16d
 4704 0854 0E       		.byte	0xe
 4705 0855 3A010000 		.4byte	0x13a
ARM GAS  /tmp/ccDQUTww.s 			page 84


 4706 0859 14       		.byte	0x14
 4707 085a 17       		.uleb128 0x17
 4708 085b 67130000 		.4byte	.LASF114
 4709 085f 0A       		.byte	0xa
 4710 0860 6E01     		.2byte	0x16e
 4711 0862 08       		.byte	0x8
 4712 0863 BD080000 		.4byte	0x8bd
 4713 0867 1C       		.byte	0x1c
 4714 0868 17       		.uleb128 0x17
 4715 0869 76170000 		.4byte	.LASF115
 4716 086d 0A       		.byte	0xa
 4717 086e 6F01     		.2byte	0x16f
 4718 0870 07       		.byte	0x7
 4719 0871 25000000 		.4byte	0x25
 4720 0875 24       		.byte	0x24
 4721 0876 17       		.uleb128 0x17
 4722 0877 360A0000 		.4byte	.LASF116
 4723 087b 0A       		.byte	0xa
 4724 087c 7001     		.2byte	0x170
 4725 087e 0E       		.byte	0xe
 4726 087f 3A010000 		.4byte	0x13a
 4727 0883 28       		.byte	0x28
 4728 0884 17       		.uleb128 0x17
 4729 0885 000D0000 		.4byte	.LASF117
 4730 0889 0A       		.byte	0xa
 4731 088a 7101     		.2byte	0x171
 4732 088c 0E       		.byte	0xe
 4733 088d 3A010000 		.4byte	0x13a
 4734 0891 30       		.byte	0x30
 4735 0892 17       		.uleb128 0x17
 4736 0893 E7080000 		.4byte	.LASF118
 4737 0897 0A       		.byte	0xa
 4738 0898 7201     		.2byte	0x172
 4739 089a 0E       		.byte	0xe
 4740 089b 3A010000 		.4byte	0x13a
 4741 089f 38       		.byte	0x38
 4742 08a0 17       		.uleb128 0x17
 4743 08a1 51100000 		.4byte	.LASF119
 4744 08a5 0A       		.byte	0xa
 4745 08a6 7301     		.2byte	0x173
 4746 08a8 0E       		.byte	0xe
 4747 08a9 3A010000 		.4byte	0x13a
 4748 08ad 40       		.byte	0x40
 4749 08ae 17       		.uleb128 0x17
 4750 08af DD130000 		.4byte	.LASF120
 4751 08b3 0A       		.byte	0xa
 4752 08b4 7401     		.2byte	0x174
 4753 08b6 0E       		.byte	0xe
 4754 08b7 3A010000 		.4byte	0x13a
 4755 08bb 48       		.byte	0x48
 4756 08bc 00       		.byte	0
 4757 08bd 09       		.uleb128 0x9
 4758 08be 7F060000 		.4byte	0x67f
 4759 08c2 CD080000 		.4byte	0x8cd
 4760 08c6 0A       		.uleb128 0xa
 4761 08c7 3D000000 		.4byte	0x3d
 4762 08cb 07       		.byte	0x7
ARM GAS  /tmp/ccDQUTww.s 			page 85


 4763 08cc 00       		.byte	0
 4764 08cd 0F       		.uleb128 0xf
 4765 08ce 84180000 		.4byte	.LASF122
 4766 08d2 0E       		.uleb128 0xe
 4767 08d3 04       		.byte	0x4
 4768 08d4 CD080000 		.4byte	0x8cd
 4769 08d8 0E       		.uleb128 0xe
 4770 08d9 04       		.byte	0x4
 4771 08da C7070000 		.4byte	0x7c7
 4772 08de 1B       		.uleb128 0x1b
 4773 08df E9080000 		.4byte	0x8e9
 4774 08e3 1A       		.uleb128 0x1a
 4775 08e4 0D050000 		.4byte	0x50d
 4776 08e8 00       		.byte	0
 4777 08e9 0E       		.uleb128 0xe
 4778 08ea 04       		.byte	0x4
 4779 08eb DE080000 		.4byte	0x8de
 4780 08ef 0E       		.uleb128 0xe
 4781 08f0 04       		.byte	0x4
 4782 08f1 70070000 		.4byte	0x770
 4783 08f5 0E       		.uleb128 0xe
 4784 08f6 04       		.byte	0x4
 4785 08f7 E7010000 		.4byte	0x1e7
 4786 08fb 1B       		.uleb128 0x1b
 4787 08fc 06090000 		.4byte	0x906
 4788 0900 1A       		.uleb128 0x1a
 4789 0901 25000000 		.4byte	0x25
 4790 0905 00       		.byte	0
 4791 0906 0E       		.uleb128 0xe
 4792 0907 04       		.byte	0x4
 4793 0908 0C090000 		.4byte	0x90c
 4794 090c 0E       		.uleb128 0xe
 4795 090d 04       		.byte	0x4
 4796 090e FB080000 		.4byte	0x8fb
 4797 0912 0E       		.uleb128 0xe
 4798 0913 04       		.byte	0x4
 4799 0914 14080000 		.4byte	0x814
 4800 0918 1C       		.uleb128 0x1c
 4801 0919 08090000 		.4byte	.LASF123
 4802 091d 0A       		.byte	0xa
 4803 091e CF01     		.2byte	0x1cf
 4804 0920 22       		.byte	0x22
 4805 0921 C5030000 		.4byte	0x3c5
 4806 0925 1C       		.uleb128 0x1c
 4807 0926 2F1D0000 		.4byte	.LASF124
 4808 092a 0A       		.byte	0xa
 4809 092b D001     		.2byte	0x1d0
 4810 092d 22       		.byte	0x22
 4811 092e C5030000 		.4byte	0x3c5
 4812 0932 1C       		.uleb128 0x1c
 4813 0933 8A1C0000 		.4byte	.LASF125
 4814 0937 0A       		.byte	0xa
 4815 0938 D101     		.2byte	0x1d1
 4816 093a 22       		.byte	0x22
 4817 093b C5030000 		.4byte	0x3c5
 4818 093f 1C       		.uleb128 0x1c
 4819 0940 2C180000 		.4byte	.LASF126
ARM GAS  /tmp/ccDQUTww.s 			page 86


 4820 0944 0A       		.byte	0xa
 4821 0945 3303     		.2byte	0x333
 4822 0947 17       		.byte	0x17
 4823 0948 0D050000 		.4byte	0x50d
 4824 094c 1C       		.uleb128 0x1c
 4825 094d 431C0000 		.4byte	.LASF127
 4826 0951 0A       		.byte	0xa
 4827 0952 3403     		.2byte	0x334
 4828 0954 1D       		.byte	0x1d
 4829 0955 13050000 		.4byte	0x513
 4830 0959 1C       		.uleb128 0x1c
 4831 095a 02020000 		.4byte	.LASF128
 4832 095e 0A       		.byte	0xa
 4833 095f 4603     		.2byte	0x346
 4834 0961 18       		.byte	0x18
 4835 0962 01030000 		.4byte	0x301
 4836 0966 03       		.uleb128 0x3
 4837 0967 B90B0000 		.4byte	.LASF129
 4838 096b 0C       		.byte	0xc
 4839 096c 18       		.byte	0x18
 4840 096d 13       		.byte	0x13
 4841 096e 66000000 		.4byte	0x66
 4842 0972 15       		.uleb128 0x15
 4843 0973 66090000 		.4byte	0x966
 4844 0977 03       		.uleb128 0x3
 4845 0978 56020000 		.4byte	.LASF130
 4846 097c 0C       		.byte	0xc
 4847 097d 24       		.byte	0x24
 4848 097e 14       		.byte	0x14
 4849 097f 80000000 		.4byte	0x80
 4850 0983 03       		.uleb128 0x3
 4851 0984 31040000 		.4byte	.LASF131
 4852 0988 0C       		.byte	0xc
 4853 0989 2C       		.byte	0x2c
 4854 098a 13       		.byte	0x13
 4855 098b 93000000 		.4byte	0x93
 4856 098f 04       		.uleb128 0x4
 4857 0990 83090000 		.4byte	0x983
 4858 0994 03       		.uleb128 0x3
 4859 0995 B0150000 		.4byte	.LASF132
 4860 0999 0C       		.byte	0xc
 4861 099a 30       		.byte	0x30
 4862 099b 14       		.byte	0x14
 4863 099c A6000000 		.4byte	0xa6
 4864 09a0 04       		.uleb128 0x4
 4865 09a1 94090000 		.4byte	0x994
 4866 09a5 15       		.uleb128 0x15
 4867 09a6 A0090000 		.4byte	0x9a0
 4868 09aa 03       		.uleb128 0x3
 4869 09ab 81090000 		.4byte	.LASF133
 4870 09af 0C       		.byte	0xc
 4871 09b0 3C       		.byte	0x3c
 4872 09b1 14       		.byte	0x14
 4873 09b2 B9000000 		.4byte	0xb9
 4874 09b6 03       		.uleb128 0x3
 4875 09b7 7A200000 		.4byte	.LASF134
 4876 09bb 0D       		.byte	0xd
ARM GAS  /tmp/ccDQUTww.s 			page 87


 4877 09bc 34       		.byte	0x34
 4878 09bd 1F       		.byte	0x1f
 4879 09be 3D000000 		.4byte	0x3d
 4880 09c2 03       		.uleb128 0x3
 4881 09c3 D70A0000 		.4byte	.LASF135
 4882 09c7 0E       		.byte	0xe
 4883 09c8 27       		.byte	0x27
 4884 09c9 1D       		.byte	0x1d
 4885 09ca 94090000 		.4byte	0x994
 4886 09ce 03       		.uleb128 0x3
 4887 09cf 05100000 		.4byte	.LASF136
 4888 09d3 0E       		.byte	0xe
 4889 09d4 2A       		.byte	0x2a
 4890 09d5 1D       		.byte	0x1d
 4891 09d6 66090000 		.4byte	0x966
 4892 09da 03       		.uleb128 0x3
 4893 09db 3A1C0000 		.4byte	.LASF137
 4894 09df 0E       		.byte	0xe
 4895 09e0 2B       		.byte	0x2b
 4896 09e1 1D       		.byte	0x1d
 4897 09e2 66090000 		.4byte	0x966
 4898 09e6 03       		.uleb128 0x3
 4899 09e7 A60F0000 		.4byte	.LASF138
 4900 09eb 0E       		.byte	0xe
 4901 09ec 2C       		.byte	0x2c
 4902 09ed 1D       		.byte	0x1d
 4903 09ee 66090000 		.4byte	0x966
 4904 09f2 03       		.uleb128 0x3
 4905 09f3 4B060000 		.4byte	.LASF139
 4906 09f7 0E       		.byte	0xe
 4907 09f8 2E       		.byte	0x2e
 4908 09f9 1D       		.byte	0x1d
 4909 09fa 94090000 		.4byte	0x994
 4910 09fe 03       		.uleb128 0x3
 4911 09ff 89000000 		.4byte	.LASF140
 4912 0a03 0E       		.byte	0xe
 4913 0a04 2F       		.byte	0x2f
 4914 0a05 1D       		.byte	0x1d
 4915 0a06 83090000 		.4byte	0x983
 4916 0a0a 03       		.uleb128 0x3
 4917 0a0b 17160000 		.4byte	.LASF141
 4918 0a0f 0E       		.byte	0xe
 4919 0a10 31       		.byte	0x31
 4920 0a11 1D       		.byte	0x1d
 4921 0a12 94090000 		.4byte	0x994
 4922 0a16 03       		.uleb128 0x3
 4923 0a17 071E0000 		.4byte	.LASF142
 4924 0a1b 0E       		.byte	0xe
 4925 0a1c 32       		.byte	0x32
 4926 0a1d 1D       		.byte	0x1d
 4927 0a1e 94090000 		.4byte	0x994
 4928 0a22 03       		.uleb128 0x3
 4929 0a23 B9170000 		.4byte	.LASF143
 4930 0a27 0E       		.byte	0xe
 4931 0a28 33       		.byte	0x33
 4932 0a29 1D       		.byte	0x1d
 4933 0a2a 83090000 		.4byte	0x983
ARM GAS  /tmp/ccDQUTww.s 			page 88


 4934 0a2e 03       		.uleb128 0x3
 4935 0a2f 74120000 		.4byte	.LASF144
 4936 0a33 0E       		.byte	0xe
 4937 0a34 34       		.byte	0x34
 4938 0a35 1D       		.byte	0x1d
 4939 0a36 94090000 		.4byte	0x994
 4940 0a3a 03       		.uleb128 0x3
 4941 0a3b E2030000 		.4byte	.LASF145
 4942 0a3f 0F       		.byte	0xf
 4943 0a40 34       		.byte	0x34
 4944 0a41 1A       		.byte	0x1a
 4945 0a42 460A0000 		.4byte	0xa46
 4946 0a46 10       		.uleb128 0x10
 4947 0a47 C8080000 		.4byte	.LASF146
 4948 0a4b 44       		.byte	0x44
 4949 0a4c 02       		.byte	0x2
 4950 0a4d 8E       		.byte	0x8e
 4951 0a4e 08       		.byte	0x8
 4952 0a4f 360B0000 		.4byte	0xb36
 4953 0a53 0C       		.uleb128 0xc
 4954 0a54 3C1B0000 		.4byte	.LASF147
 4955 0a58 02       		.byte	0x2
 4956 0a59 8F       		.byte	0x8f
 4957 0a5a 19       		.byte	0x19
 4958 0a5b 6F0B0000 		.4byte	0xb6f
 4959 0a5f 00       		.byte	0
 4960 0a60 0C       		.uleb128 0xc
 4961 0a61 D5010000 		.4byte	.LASF148
 4962 0a65 02       		.byte	0x2
 4963 0a66 90       		.byte	0x90
 4964 0a67 19       		.byte	0x19
 4965 0a68 F2090000 		.4byte	0x9f2
 4966 0a6c 08       		.byte	0x8
 4967 0a6d 11       		.uleb128 0x11
 4968 0a6e 63747800 		.ascii	"ctx\000"
 4969 0a72 02       		.byte	0x2
 4970 0a73 91       		.byte	0x91
 4971 0a74 19       		.byte	0x19
 4972 0a75 07180000 		.4byte	0x1807
 4973 0a79 0C       		.byte	0xc
 4974 0a7a 0C       		.uleb128 0xc
 4975 0a7b B4070000 		.4byte	.LASF149
 4976 0a7f 02       		.byte	0x2
 4977 0a80 93       		.byte	0x93
 4978 0a81 1A       		.byte	0x1a
 4979 0a82 420B0000 		.4byte	0xb42
 4980 0a86 10       		.byte	0x10
 4981 0a87 0C       		.uleb128 0xc
 4982 0a88 AD020000 		.4byte	.LASF150
 4983 0a8c 02       		.byte	0x2
 4984 0a8d 94       		.byte	0x94
 4985 0a8e 1A       		.byte	0x1a
 4986 0a8f 420B0000 		.4byte	0xb42
 4987 0a93 14       		.byte	0x14
 4988 0a94 0C       		.uleb128 0xc
 4989 0a95 DF100000 		.4byte	.LASF151
 4990 0a99 02       		.byte	0x2
ARM GAS  /tmp/ccDQUTww.s 			page 89


 4991 0a9a 9B       		.byte	0x9b
 4992 0a9b 1A       		.byte	0x1a
 4993 0a9c AF060000 		.4byte	0x6af
 4994 0aa0 18       		.byte	0x18
 4995 0aa1 0C       		.uleb128 0xc
 4996 0aa2 AC130000 		.4byte	.LASF152
 4997 0aa6 02       		.byte	0x2
 4998 0aa7 A4       		.byte	0xa4
 4999 0aa8 1A       		.byte	0x1a
 5000 0aa9 941A0000 		.4byte	0x1a94
 5001 0aad 1C       		.byte	0x1c
 5002 0aae 0C       		.uleb128 0xc
 5003 0aaf 5A130000 		.4byte	.LASF153
 5004 0ab3 02       		.byte	0x2
 5005 0ab4 A9       		.byte	0xa9
 5006 0ab5 19       		.byte	0x19
 5007 0ab6 DA090000 		.4byte	0x9da
 5008 0aba 20       		.byte	0x20
 5009 0abb 0C       		.uleb128 0xc
 5010 0abc 2D210000 		.4byte	.LASF154
 5011 0ac0 02       		.byte	0x2
 5012 0ac1 AD       		.byte	0xad
 5013 0ac2 19       		.byte	0x19
 5014 0ac3 CE090000 		.4byte	0x9ce
 5015 0ac7 21       		.byte	0x21
 5016 0ac8 0C       		.uleb128 0xc
 5017 0ac9 14050000 		.4byte	.LASF155
 5018 0acd 02       		.byte	0x2
 5019 0ace B2       		.byte	0xb2
 5020 0acf 19       		.byte	0x19
 5021 0ad0 E6090000 		.4byte	0x9e6
 5022 0ad4 22       		.byte	0x22
 5023 0ad5 18       		.uleb128 0x18
 5024 0ad6 7500     		.ascii	"u\000"
 5025 0ad8 02       		.byte	0x2
 5026 0ad9 0301     		.2byte	0x103
 5027 0adb 19       		.byte	0x19
 5028 0adc BA190000 		.4byte	0x19ba
 5029 0ae0 24       		.byte	0x24
 5030 0ae1 17       		.uleb128 0x17
 5031 0ae2 E7190000 		.4byte	.LASF156
 5032 0ae6 02       		.byte	0x2
 5033 0ae7 0801     		.2byte	0x108
 5034 0ae9 19       		.byte	0x19
 5035 0aea 480B0000 		.4byte	0xb48
 5036 0aee 28       		.byte	0x28
 5037 0aef 17       		.uleb128 0x17
 5038 0af0 0F130000 		.4byte	.LASF157
 5039 0af4 02       		.byte	0x2
 5040 0af5 0E01     		.2byte	0x10e
 5041 0af7 19       		.byte	0x19
 5042 0af8 6F0B0000 		.4byte	0xb6f
 5043 0afc 2C       		.byte	0x2c
 5044 0afd 17       		.uleb128 0x17
 5045 0afe 3D010000 		.4byte	.LASF158
 5046 0b02 02       		.byte	0x2
 5047 0b03 1401     		.2byte	0x114
ARM GAS  /tmp/ccDQUTww.s 			page 90


 5048 0b05 19       		.byte	0x19
 5049 0b06 0A0A0000 		.4byte	0xa0a
 5050 0b0a 34       		.byte	0x34
 5051 0b0b 17       		.uleb128 0x17
 5052 0b0c 30050000 		.4byte	.LASF159
 5053 0b10 02       		.byte	0x2
 5054 0b11 1B01     		.2byte	0x11b
 5055 0b13 1A       		.byte	0x1a
 5056 0b14 8E1A0000 		.4byte	0x1a8e
 5057 0b18 38       		.byte	0x38
 5058 0b19 17       		.uleb128 0x17
 5059 0b1a 19210000 		.4byte	.LASF160
 5060 0b1e 02       		.byte	0x2
 5061 0b1f 1F01     		.2byte	0x11f
 5062 0b21 19       		.byte	0x19
 5063 0b22 F2090000 		.4byte	0x9f2
 5064 0b26 3C       		.byte	0x3c
 5065 0b27 17       		.uleb128 0x17
 5066 0b28 25140000 		.4byte	.LASF161
 5067 0b2c 02       		.byte	0x2
 5068 0b2d 2601     		.2byte	0x126
 5069 0b2f 1A       		.byte	0x1a
 5070 0b30 46010000 		.4byte	0x146
 5071 0b34 40       		.byte	0x40
 5072 0b35 00       		.byte	0
 5073 0b36 03       		.uleb128 0x3
 5074 0b37 DA1E0000 		.4byte	.LASF162
 5075 0b3b 0F       		.byte	0xf
 5076 0b3c 39       		.byte	0x39
 5077 0b3d 14       		.byte	0x14
 5078 0b3e 420B0000 		.4byte	0xb42
 5079 0b42 0E       		.uleb128 0xe
 5080 0b43 04       		.byte	0x4
 5081 0b44 3A0A0000 		.4byte	0xa3a
 5082 0b48 03       		.uleb128 0x3
 5083 0b49 80050000 		.4byte	.LASF163
 5084 0b4d 0F       		.byte	0xf
 5085 0b4e 3E       		.byte	0x3e
 5086 0b4f 20       		.byte	0x20
 5087 0b50 540B0000 		.4byte	0xb54
 5088 0b54 10       		.uleb128 0x10
 5089 0b55 3A210000 		.4byte	.LASF164
 5090 0b59 04       		.byte	0x4
 5091 0b5a 02       		.byte	0x2
 5092 0b5b 7C       		.byte	0x7c
 5093 0b5c 08       		.byte	0x8
 5094 0b5d 6F0B0000 		.4byte	0xb6f
 5095 0b61 0C       		.uleb128 0xc
 5096 0b62 A8020000 		.4byte	.LASF165
 5097 0b66 02       		.byte	0x2
 5098 0b67 7D       		.byte	0x7d
 5099 0b68 1A       		.byte	0x1a
 5100 0b69 420B0000 		.4byte	0xb42
 5101 0b6d 00       		.byte	0
 5102 0b6e 00       		.byte	0
 5103 0b6f 03       		.uleb128 0x3
 5104 0b70 42140000 		.4byte	.LASF166
ARM GAS  /tmp/ccDQUTww.s 			page 91


 5105 0b74 0F       		.byte	0xf
 5106 0b75 45       		.byte	0x45
 5107 0b76 21       		.byte	0x21
 5108 0b77 7B0B0000 		.4byte	0xb7b
 5109 0b7b 10       		.uleb128 0x10
 5110 0b7c 02030000 		.4byte	.LASF167
 5111 0b80 08       		.byte	0x8
 5112 0b81 02       		.byte	0x2
 5113 0b82 83       		.byte	0x83
 5114 0b83 08       		.byte	0x8
 5115 0b84 A30B0000 		.4byte	0xba3
 5116 0b88 0C       		.uleb128 0xc
 5117 0b89 A8020000 		.4byte	.LASF165
 5118 0b8d 02       		.byte	0x2
 5119 0b8e 84       		.byte	0x84
 5120 0b8f 1A       		.byte	0x1a
 5121 0b90 420B0000 		.4byte	0xb42
 5122 0b94 00       		.byte	0
 5123 0b95 0C       		.uleb128 0xc
 5124 0b96 D6200000 		.4byte	.LASF168
 5125 0b9a 02       		.byte	0x2
 5126 0b9b 85       		.byte	0x85
 5127 0b9c 1A       		.byte	0x1a
 5128 0b9d 420B0000 		.4byte	0xb42
 5129 0ba1 04       		.byte	0x4
 5130 0ba2 00       		.byte	0
 5131 0ba3 03       		.uleb128 0x3
 5132 0ba4 BB080000 		.4byte	.LASF169
 5133 0ba8 0F       		.byte	0xf
 5134 0ba9 4C       		.byte	0x4c
 5135 0baa 1E       		.byte	0x1e
 5136 0bab AF0B0000 		.4byte	0xbaf
 5137 0baf 16       		.uleb128 0x16
 5138 0bb0 EF190000 		.4byte	.LASF170
 5139 0bb4 1C       		.byte	0x1c
 5140 0bb5 02       		.byte	0x2
 5141 0bb6 5E01     		.2byte	0x15e
 5142 0bb8 08       		.byte	0x8
 5143 0bb9 120C0000 		.4byte	0xc12
 5144 0bbd 17       		.uleb128 0x17
 5145 0bbe 3C1B0000 		.4byte	.LASF147
 5146 0bc2 02       		.byte	0x2
 5147 0bc3 5F01     		.2byte	0x15f
 5148 0bc5 19       		.byte	0x19
 5149 0bc6 6F0B0000 		.4byte	0xb6f
 5150 0bca 00       		.byte	0
 5151 0bcb 17       		.uleb128 0x17
 5152 0bcc D5010000 		.4byte	.LASF148
 5153 0bd0 02       		.byte	0x2
 5154 0bd1 6001     		.2byte	0x160
 5155 0bd3 19       		.byte	0x19
 5156 0bd4 F2090000 		.4byte	0x9f2
 5157 0bd8 08       		.byte	0x8
 5158 0bd9 18       		.uleb128 0x18
 5159 0bda 63747800 		.ascii	"ctx\000"
 5160 0bde 02       		.byte	0x2
 5161 0bdf 6201     		.2byte	0x162
ARM GAS  /tmp/ccDQUTww.s 			page 92


 5162 0be1 19       		.byte	0x19
 5163 0be2 07180000 		.4byte	0x1807
 5164 0be6 0C       		.byte	0xc
 5165 0be7 17       		.uleb128 0x17
 5166 0be8 B4070000 		.4byte	.LASF149
 5167 0bec 02       		.byte	0x2
 5168 0bed 6501     		.2byte	0x165
 5169 0bef 1A       		.byte	0x1a
 5170 0bf0 420B0000 		.4byte	0xb42
 5171 0bf4 10       		.byte	0x10
 5172 0bf5 17       		.uleb128 0x17
 5173 0bf6 AD020000 		.4byte	.LASF150
 5174 0bfa 02       		.byte	0x2
 5175 0bfb 6601     		.2byte	0x166
 5176 0bfd 1A       		.byte	0x1a
 5177 0bfe 420B0000 		.4byte	0xb42
 5178 0c02 14       		.byte	0x14
 5179 0c03 17       		.uleb128 0x17
 5180 0c04 90120000 		.4byte	.LASF171
 5181 0c08 02       		.byte	0x2
 5182 0c09 6901     		.2byte	0x169
 5183 0c0b 1A       		.byte	0x1a
 5184 0c0c 420B0000 		.4byte	0xb42
 5185 0c10 18       		.byte	0x18
 5186 0c11 00       		.byte	0
 5187 0c12 03       		.uleb128 0x3
 5188 0c13 DB180000 		.4byte	.LASF172
 5189 0c17 0F       		.byte	0xf
 5190 0c18 51       		.byte	0x51
 5191 0c19 10       		.byte	0x10
 5192 0c1a 1E0C0000 		.4byte	0xc1e
 5193 0c1e 0E       		.uleb128 0xe
 5194 0c1f 04       		.byte	0x4
 5195 0c20 240C0000 		.4byte	0xc24
 5196 0c24 1B       		.uleb128 0x1b
 5197 0c25 2F0C0000 		.4byte	0xc2f
 5198 0c29 1A       		.uleb128 0x1a
 5199 0c2a 46010000 		.4byte	0x146
 5200 0c2e 00       		.byte	0
 5201 0c2f 03       		.uleb128 0x3
 5202 0c30 B80A0000 		.4byte	.LASF173
 5203 0c34 0F       		.byte	0xf
 5204 0c35 56       		.byte	0x56
 5205 0c36 21       		.byte	0x21
 5206 0c37 3B0C0000 		.4byte	0xc3b
 5207 0c3b 16       		.uleb128 0x16
 5208 0c3c 0C1C0000 		.4byte	.LASF174
 5209 0c40 14       		.byte	0x14
 5210 0c41 02       		.byte	0x2
 5211 0c42 3901     		.2byte	0x139
 5212 0c44 08       		.byte	0x8
 5213 0c45 900C0000 		.4byte	0xc90
 5214 0c49 17       		.uleb128 0x17
 5215 0c4a A8020000 		.4byte	.LASF165
 5216 0c4e 02       		.byte	0x2
 5217 0c4f 3A01     		.2byte	0x13a
 5218 0c51 1A       		.byte	0x1a
ARM GAS  /tmp/ccDQUTww.s 			page 93


 5219 0c52 9A1A0000 		.4byte	0x1a9a
 5220 0c56 00       		.byte	0
 5221 0c57 17       		.uleb128 0x17
 5222 0c58 D6200000 		.4byte	.LASF168
 5223 0c5c 02       		.byte	0x2
 5224 0c5d 3B01     		.2byte	0x13b
 5225 0c5f 1A       		.byte	0x1a
 5226 0c60 9A1A0000 		.4byte	0x1a9a
 5227 0c64 04       		.byte	0x4
 5228 0c65 17       		.uleb128 0x17
 5229 0c66 4F090000 		.4byte	.LASF175
 5230 0c6a 02       		.byte	0x2
 5231 0c6b 3C01     		.2byte	0x13c
 5232 0c6d 19       		.byte	0x19
 5233 0c6e 8A0D0000 		.4byte	0xd8a
 5234 0c72 08       		.byte	0x8
 5235 0c73 17       		.uleb128 0x17
 5236 0c74 C0130000 		.4byte	.LASF176
 5237 0c78 02       		.byte	0x2
 5238 0c79 3D01     		.2byte	0x13d
 5239 0c7b 19       		.byte	0x19
 5240 0c7c 120C0000 		.4byte	0xc12
 5241 0c80 0C       		.byte	0xc
 5242 0c81 18       		.uleb128 0x18
 5243 0c82 70617200 		.ascii	"par\000"
 5244 0c86 02       		.byte	0x2
 5245 0c87 3F01     		.2byte	0x13f
 5246 0c89 1A       		.byte	0x1a
 5247 0c8a 46010000 		.4byte	0x146
 5248 0c8e 10       		.byte	0x10
 5249 0c8f 00       		.byte	0
 5250 0c90 03       		.uleb128 0x3
 5251 0c91 191D0000 		.4byte	.LASF177
 5252 0c95 0F       		.byte	0xf
 5253 0c96 5B       		.byte	0x5b
 5254 0c97 28       		.byte	0x28
 5255 0c98 9C0C0000 		.4byte	0xc9c
 5256 0c9c 16       		.uleb128 0x16
 5257 0c9d 0B040000 		.4byte	.LASF178
 5258 0ca1 10       		.byte	0x10
 5259 0ca2 02       		.byte	0x2
 5260 0ca3 4901     		.2byte	0x149
 5261 0ca5 08       		.byte	0x8
 5262 0ca6 E30C0000 		.4byte	0xce3
 5263 0caa 17       		.uleb128 0x17
 5264 0cab A8020000 		.4byte	.LASF165
 5265 0caf 02       		.byte	0x2
 5266 0cb0 4A01     		.2byte	0x14a
 5267 0cb2 1A       		.byte	0x1a
 5268 0cb3 9A1A0000 		.4byte	0x1a9a
 5269 0cb7 00       		.byte	0
 5270 0cb8 17       		.uleb128 0x17
 5271 0cb9 D6200000 		.4byte	.LASF168
 5272 0cbd 02       		.byte	0x2
 5273 0cbe 4C01     		.2byte	0x14c
 5274 0cc0 1A       		.byte	0x1a
 5275 0cc1 9A1A0000 		.4byte	0x1a9a
ARM GAS  /tmp/ccDQUTww.s 			page 94


 5276 0cc5 04       		.byte	0x4
 5277 0cc6 17       		.uleb128 0x17
 5278 0cc7 4F090000 		.4byte	.LASF175
 5279 0ccb 02       		.byte	0x2
 5280 0ccc 4E01     		.2byte	0x14e
 5281 0cce 19       		.byte	0x19
 5282 0ccf 8A0D0000 		.4byte	0xd8a
 5283 0cd3 08       		.byte	0x8
 5284 0cd4 17       		.uleb128 0x17
 5285 0cd5 DD120000 		.4byte	.LASF179
 5286 0cd9 02       		.byte	0x2
 5287 0cda 5601     		.2byte	0x156
 5288 0cdc 19       		.byte	0x19
 5289 0cdd 7E0D0000 		.4byte	0xd7e
 5290 0ce1 0C       		.byte	0xc
 5291 0ce2 00       		.byte	0
 5292 0ce3 03       		.uleb128 0x3
 5293 0ce4 2A090000 		.4byte	.LASF180
 5294 0ce8 0F       		.byte	0xf
 5295 0ce9 60       		.byte	0x60
 5296 0cea 20       		.byte	0x20
 5297 0ceb EF0C0000 		.4byte	0xcef
 5298 0cef 1D       		.uleb128 0x1d
 5299 0cf0 181A0000 		.4byte	.LASF181
 5300 0cf4 0C08     		.2byte	0x80c
 5301 0cf6 02       		.byte	0x2
 5302 0cf7 7001     		.2byte	0x170
 5303 0cf9 08       		.byte	0x8
 5304 0cfa 1B0D0000 		.4byte	0xd1b
 5305 0cfe 17       		.uleb128 0x17
 5306 0cff F1100000 		.4byte	.LASF182
 5307 0d03 02       		.byte	0x2
 5308 0d04 7801     		.2byte	0x178
 5309 0d06 24       		.byte	0x24
 5310 0d07 B5060000 		.4byte	0x6b5
 5311 0d0b 00       		.byte	0
 5312 0d0c 17       		.uleb128 0x17
 5313 0d0d 17180000 		.4byte	.LASF183
 5314 0d11 02       		.byte	0x2
 5315 0d12 8701     		.2byte	0x187
 5316 0d14 19       		.byte	0x19
 5317 0d15 8B190000 		.4byte	0x198b
 5318 0d19 04       		.byte	0x4
 5319 0d1a 00       		.byte	0
 5320 0d1b 03       		.uleb128 0x3
 5321 0d1c 1A010000 		.4byte	.LASF184
 5322 0d20 0F       		.byte	0xf
 5323 0d21 65       		.byte	0x65
 5324 0d22 1A       		.byte	0x1a
 5325 0d23 270D0000 		.4byte	0xd27
 5326 0d27 1D       		.uleb128 0x1d
 5327 0d28 97130000 		.4byte	.LASF185
 5328 0d2c 8008     		.2byte	0x880
 5329 0d2e 02       		.byte	0x2
 5330 0d2f 9001     		.2byte	0x190
 5331 0d31 08       		.byte	0x8
 5332 0d32 7E0D0000 		.4byte	0xd7e
ARM GAS  /tmp/ccDQUTww.s 			page 95


 5333 0d36 17       		.uleb128 0x17
 5334 0d37 7A050000 		.4byte	.LASF186
 5335 0d3b 02       		.byte	0x2
 5336 0d3c 9401     		.2byte	0x194
 5337 0d3e 19       		.byte	0x19
 5338 0d3f A30B0000 		.4byte	0xba3
 5339 0d43 00       		.byte	0
 5340 0d44 17       		.uleb128 0x17
 5341 0d45 56050000 		.4byte	.LASF187
 5342 0d49 02       		.byte	0x2
 5343 0d4a 9801     		.2byte	0x198
 5344 0d4c 19       		.byte	0x19
 5345 0d4d 900C0000 		.4byte	0xc90
 5346 0d51 1C       		.byte	0x1c
 5347 0d52 18       		.uleb128 0x18
 5348 0d53 64626700 		.ascii	"dbg\000"
 5349 0d57 02       		.byte	0x2
 5350 0d58 9C01     		.2byte	0x19c
 5351 0d5a 19       		.byte	0x19
 5352 0d5b E30C0000 		.4byte	0xce3
 5353 0d5f 2C       		.byte	0x2c
 5354 0d60 1E       		.uleb128 0x1e
 5355 0d61 A4140000 		.4byte	.LASF188
 5356 0d65 02       		.byte	0x2
 5357 0d66 A001     		.2byte	0x1a0
 5358 0d68 19       		.byte	0x19
 5359 0d69 3A0A0000 		.4byte	0xa3a
 5360 0d6d 3808     		.2byte	0x838
 5361 0d6f 1F       		.uleb128 0x1f
 5362 0d70 746D00   		.ascii	"tm\000"
 5363 0d73 02       		.byte	0x2
 5364 0d74 A501     		.2byte	0x1a5
 5365 0d76 19       		.byte	0x19
 5366 0d77 AE190000 		.4byte	0x19ae
 5367 0d7b 7C08     		.2byte	0x87c
 5368 0d7d 00       		.byte	0
 5369 0d7e 03       		.uleb128 0x3
 5370 0d7f 39040000 		.4byte	.LASF189
 5371 0d83 10       		.byte	0x10
 5372 0d84 6D       		.byte	0x6d
 5373 0d85 12       		.byte	0x12
 5374 0d86 94090000 		.4byte	0x994
 5375 0d8a 03       		.uleb128 0x3
 5376 0d8b A3190000 		.4byte	.LASF190
 5377 0d8f 10       		.byte	0x10
 5378 0d90 79       		.byte	0x79
 5379 0d91 12       		.byte	0x12
 5380 0d92 94090000 		.4byte	0x994
 5381 0d96 09       		.uleb128 0x9
 5382 0d97 94090000 		.4byte	0x994
 5383 0d9b A60D0000 		.4byte	0xda6
 5384 0d9f 0A       		.uleb128 0xa
 5385 0da0 3D000000 		.4byte	0x3d
 5386 0da4 01       		.byte	0x1
 5387 0da5 00       		.byte	0
 5388 0da6 09       		.uleb128 0x9
 5389 0da7 94090000 		.4byte	0x994
ARM GAS  /tmp/ccDQUTww.s 			page 96


 5390 0dab B60D0000 		.4byte	0xdb6
 5391 0daf 0A       		.uleb128 0xa
 5392 0db0 3D000000 		.4byte	0x3d
 5393 0db4 07       		.byte	0x7
 5394 0db5 00       		.byte	0
 5395 0db6 1C       		.uleb128 0x1c
 5396 0db7 491B0000 		.4byte	.LASF191
 5397 0dbb 11       		.byte	0x11
 5398 0dbc 220A     		.2byte	0xa22
 5399 0dbe 19       		.byte	0x19
 5400 0dbf 8F090000 		.4byte	0x98f
 5401 0dc3 20       		.uleb128 0x20
 5402 0dc4 2E130000 		.4byte	.LASF192
 5403 0dc8 12       		.byte	0x12
 5404 0dc9 3A       		.byte	0x3a
 5405 0dca 11       		.byte	0x11
 5406 0dcb 94090000 		.4byte	0x994
 5407 0dcf 20       		.uleb128 0x20
 5408 0dd0 DD060000 		.4byte	.LASF193
 5409 0dd4 12       		.byte	0x12
 5410 0dd5 3B       		.byte	0x3b
 5411 0dd6 11       		.byte	0x11
 5412 0dd7 94090000 		.4byte	0x994
 5413 0ddb 09       		.uleb128 0x9
 5414 0ddc 72090000 		.4byte	0x972
 5415 0de0 EB0D0000 		.4byte	0xdeb
 5416 0de4 0A       		.uleb128 0xa
 5417 0de5 3D000000 		.4byte	0x3d
 5418 0de9 0F       		.byte	0xf
 5419 0dea 00       		.byte	0
 5420 0deb 15       		.uleb128 0x15
 5421 0dec DB0D0000 		.4byte	0xddb
 5422 0df0 20       		.uleb128 0x20
 5423 0df1 401D0000 		.4byte	.LASF194
 5424 0df5 12       		.byte	0x12
 5425 0df6 3C       		.byte	0x3c
 5426 0df7 17       		.byte	0x17
 5427 0df8 EB0D0000 		.4byte	0xdeb
 5428 0dfc 0B       		.uleb128 0xb
 5429 0dfd CC       		.byte	0xcc
 5430 0dfe 13       		.byte	0x13
 5431 0dff F5       		.byte	0xf5
 5432 0e00 09       		.byte	0x9
 5433 0e01 47100000 		.4byte	0x1047
 5434 0e05 11       		.uleb128 0x11
 5435 0e06 49535200 		.ascii	"ISR\000"
 5436 0e0a 13       		.byte	0x13
 5437 0e0b F7       		.byte	0xf7
 5438 0e0c 11       		.byte	0x11
 5439 0e0d A0090000 		.4byte	0x9a0
 5440 0e11 00       		.byte	0
 5441 0e12 11       		.uleb128 0x11
 5442 0e13 49455200 		.ascii	"IER\000"
 5443 0e17 13       		.byte	0x13
 5444 0e18 F8       		.byte	0xf8
 5445 0e19 11       		.byte	0x11
 5446 0e1a A0090000 		.4byte	0x9a0
ARM GAS  /tmp/ccDQUTww.s 			page 97


 5447 0e1e 04       		.byte	0x4
 5448 0e1f 11       		.uleb128 0x11
 5449 0e20 435200   		.ascii	"CR\000"
 5450 0e23 13       		.byte	0x13
 5451 0e24 F9       		.byte	0xf9
 5452 0e25 11       		.byte	0x11
 5453 0e26 A0090000 		.4byte	0x9a0
 5454 0e2a 08       		.byte	0x8
 5455 0e2b 0C       		.uleb128 0xc
 5456 0e2c A3110000 		.4byte	.LASF195
 5457 0e30 13       		.byte	0x13
 5458 0e31 FA       		.byte	0xfa
 5459 0e32 11       		.byte	0x11
 5460 0e33 A0090000 		.4byte	0x9a0
 5461 0e37 0C       		.byte	0xc
 5462 0e38 0C       		.uleb128 0xc
 5463 0e39 361B0000 		.4byte	.LASF196
 5464 0e3d 13       		.byte	0x13
 5465 0e3e FB       		.byte	0xfb
 5466 0e3f 11       		.byte	0x11
 5467 0e40 A0090000 		.4byte	0x9a0
 5468 0e44 10       		.byte	0x10
 5469 0e45 0C       		.uleb128 0xc
 5470 0e46 28030000 		.4byte	.LASF197
 5471 0e4a 13       		.byte	0x13
 5472 0e4b FC       		.byte	0xfc
 5473 0e4c 11       		.byte	0x11
 5474 0e4d A0090000 		.4byte	0x9a0
 5475 0e51 14       		.byte	0x14
 5476 0e52 0C       		.uleb128 0xc
 5477 0e53 2E030000 		.4byte	.LASF198
 5478 0e57 13       		.byte	0x13
 5479 0e58 FD       		.byte	0xfd
 5480 0e59 11       		.byte	0x11
 5481 0e5a A0090000 		.4byte	0x9a0
 5482 0e5e 18       		.byte	0x18
 5483 0e5f 0C       		.uleb128 0xc
 5484 0e60 DE0D0000 		.4byte	.LASF199
 5485 0e64 13       		.byte	0x13
 5486 0e65 FE       		.byte	0xfe
 5487 0e66 11       		.byte	0x11
 5488 0e67 A0090000 		.4byte	0x9a0
 5489 0e6b 1C       		.byte	0x1c
 5490 0e6c 0C       		.uleb128 0xc
 5491 0e6d 240D0000 		.4byte	.LASF200
 5492 0e71 13       		.byte	0x13
 5493 0e72 FF       		.byte	0xff
 5494 0e73 11       		.byte	0x11
 5495 0e74 A0090000 		.4byte	0x9a0
 5496 0e78 20       		.byte	0x20
 5497 0e79 17       		.uleb128 0x17
 5498 0e7a A10F0000 		.4byte	.LASF201
 5499 0e7e 13       		.byte	0x13
 5500 0e7f 0001     		.2byte	0x100
 5501 0e81 11       		.byte	0x11
 5502 0e82 A0090000 		.4byte	0x9a0
 5503 0e86 24       		.byte	0x24
ARM GAS  /tmp/ccDQUTww.s 			page 98


 5504 0e87 17       		.uleb128 0x17
 5505 0e88 A41A0000 		.4byte	.LASF202
 5506 0e8c 13       		.byte	0x13
 5507 0e8d 0101     		.2byte	0x101
 5508 0e8f 11       		.byte	0x11
 5509 0e90 94090000 		.4byte	0x994
 5510 0e94 28       		.byte	0x28
 5511 0e95 17       		.uleb128 0x17
 5512 0e96 AE1A0000 		.4byte	.LASF203
 5513 0e9a 13       		.byte	0x13
 5514 0e9b 0201     		.2byte	0x102
 5515 0e9d 11       		.byte	0x11
 5516 0e9e 94090000 		.4byte	0x994
 5517 0ea2 2C       		.byte	0x2c
 5518 0ea3 17       		.uleb128 0x17
 5519 0ea4 14100000 		.4byte	.LASF204
 5520 0ea8 13       		.byte	0x13
 5521 0ea9 0301     		.2byte	0x103
 5522 0eab 11       		.byte	0x11
 5523 0eac A0090000 		.4byte	0x9a0
 5524 0eb0 30       		.byte	0x30
 5525 0eb1 17       		.uleb128 0x17
 5526 0eb2 19100000 		.4byte	.LASF205
 5527 0eb6 13       		.byte	0x13
 5528 0eb7 0401     		.2byte	0x104
 5529 0eb9 11       		.byte	0x11
 5530 0eba A0090000 		.4byte	0x9a0
 5531 0ebe 34       		.byte	0x34
 5532 0ebf 17       		.uleb128 0x17
 5533 0ec0 1E100000 		.4byte	.LASF206
 5534 0ec4 13       		.byte	0x13
 5535 0ec5 0501     		.2byte	0x105
 5536 0ec7 11       		.byte	0x11
 5537 0ec8 A0090000 		.4byte	0x9a0
 5538 0ecc 38       		.byte	0x38
 5539 0ecd 17       		.uleb128 0x17
 5540 0ece 23100000 		.4byte	.LASF207
 5541 0ed2 13       		.byte	0x13
 5542 0ed3 0601     		.2byte	0x106
 5543 0ed5 11       		.byte	0x11
 5544 0ed6 A0090000 		.4byte	0x9a0
 5545 0eda 3C       		.byte	0x3c
 5546 0edb 18       		.uleb128 0x18
 5547 0edc 445200   		.ascii	"DR\000"
 5548 0edf 13       		.byte	0x13
 5549 0ee0 0701     		.2byte	0x107
 5550 0ee2 11       		.byte	0x11
 5551 0ee3 A0090000 		.4byte	0x9a0
 5552 0ee7 40       		.byte	0x40
 5553 0ee8 17       		.uleb128 0x17
 5554 0ee9 B81A0000 		.4byte	.LASF208
 5555 0eed 13       		.byte	0x13
 5556 0eee 0801     		.2byte	0x108
 5557 0ef0 11       		.byte	0x11
 5558 0ef1 94090000 		.4byte	0x994
 5559 0ef5 44       		.byte	0x44
 5560 0ef6 17       		.uleb128 0x17
ARM GAS  /tmp/ccDQUTww.s 			page 99


 5561 0ef7 C21A0000 		.4byte	.LASF209
 5562 0efb 13       		.byte	0x13
 5563 0efc 0901     		.2byte	0x109
 5564 0efe 11       		.byte	0x11
 5565 0eff 94090000 		.4byte	0x994
 5566 0f03 48       		.byte	0x48
 5567 0f04 17       		.uleb128 0x17
 5568 0f05 830A0000 		.4byte	.LASF210
 5569 0f09 13       		.byte	0x13
 5570 0f0a 0A01     		.2byte	0x10a
 5571 0f0c 11       		.byte	0x11
 5572 0f0d A0090000 		.4byte	0x9a0
 5573 0f11 4C       		.byte	0x4c
 5574 0f12 17       		.uleb128 0x17
 5575 0f13 CC1A0000 		.4byte	.LASF211
 5576 0f17 13       		.byte	0x13
 5577 0f18 0B01     		.2byte	0x10b
 5578 0f1a 11       		.byte	0x11
 5579 0f1b 47100000 		.4byte	0x1047
 5580 0f1f 50       		.byte	0x50
 5581 0f20 17       		.uleb128 0x17
 5582 0f21 6E100000 		.4byte	.LASF212
 5583 0f25 13       		.byte	0x13
 5584 0f26 0C01     		.2byte	0x10c
 5585 0f28 11       		.byte	0x11
 5586 0f29 A0090000 		.4byte	0x9a0
 5587 0f2d 60       		.byte	0x60
 5588 0f2e 17       		.uleb128 0x17
 5589 0f2f 73100000 		.4byte	.LASF213
 5590 0f33 13       		.byte	0x13
 5591 0f34 0D01     		.2byte	0x10d
 5592 0f36 11       		.byte	0x11
 5593 0f37 A0090000 		.4byte	0x9a0
 5594 0f3b 64       		.byte	0x64
 5595 0f3c 17       		.uleb128 0x17
 5596 0f3d 78100000 		.4byte	.LASF214
 5597 0f41 13       		.byte	0x13
 5598 0f42 0E01     		.2byte	0x10e
 5599 0f44 11       		.byte	0x11
 5600 0f45 A0090000 		.4byte	0x9a0
 5601 0f49 68       		.byte	0x68
 5602 0f4a 17       		.uleb128 0x17
 5603 0f4b 7D100000 		.4byte	.LASF215
 5604 0f4f 13       		.byte	0x13
 5605 0f50 0F01     		.2byte	0x10f
 5606 0f52 11       		.byte	0x11
 5607 0f53 A0090000 		.4byte	0x9a0
 5608 0f57 6C       		.byte	0x6c
 5609 0f58 17       		.uleb128 0x17
 5610 0f59 D61A0000 		.4byte	.LASF216
 5611 0f5d 13       		.byte	0x13
 5612 0f5e 1001     		.2byte	0x110
 5613 0f60 11       		.byte	0x11
 5614 0f61 47100000 		.4byte	0x1047
 5615 0f65 70       		.byte	0x70
 5616 0f66 17       		.uleb128 0x17
 5617 0f67 C31C0000 		.4byte	.LASF217
ARM GAS  /tmp/ccDQUTww.s 			page 100


 5618 0f6b 13       		.byte	0x13
 5619 0f6c 1101     		.2byte	0x111
 5620 0f6e 11       		.byte	0x11
 5621 0f6f A0090000 		.4byte	0x9a0
 5622 0f73 80       		.byte	0x80
 5623 0f74 17       		.uleb128 0x17
 5624 0f75 C81C0000 		.4byte	.LASF218
 5625 0f79 13       		.byte	0x13
 5626 0f7a 1201     		.2byte	0x112
 5627 0f7c 11       		.byte	0x11
 5628 0f7d A0090000 		.4byte	0x9a0
 5629 0f81 84       		.byte	0x84
 5630 0f82 17       		.uleb128 0x17
 5631 0f83 CD1C0000 		.4byte	.LASF219
 5632 0f87 13       		.byte	0x13
 5633 0f88 1301     		.2byte	0x113
 5634 0f8a 11       		.byte	0x11
 5635 0f8b A0090000 		.4byte	0x9a0
 5636 0f8f 88       		.byte	0x88
 5637 0f90 17       		.uleb128 0x17
 5638 0f91 D21C0000 		.4byte	.LASF220
 5639 0f95 13       		.byte	0x13
 5640 0f96 1401     		.2byte	0x114
 5641 0f98 11       		.byte	0x11
 5642 0f99 A0090000 		.4byte	0x9a0
 5643 0f9d 8C       		.byte	0x8c
 5644 0f9e 17       		.uleb128 0x17
 5645 0f9f E01A0000 		.4byte	.LASF221
 5646 0fa3 13       		.byte	0x13
 5647 0fa4 1501     		.2byte	0x115
 5648 0fa6 11       		.byte	0x11
 5649 0fa7 47100000 		.4byte	0x1047
 5650 0fab 90       		.byte	0x90
 5651 0fac 17       		.uleb128 0x17
 5652 0fad 33210000 		.4byte	.LASF222
 5653 0fb1 13       		.byte	0x13
 5654 0fb2 1601     		.2byte	0x116
 5655 0fb4 11       		.byte	0x11
 5656 0fb5 A0090000 		.4byte	0x9a0
 5657 0fb9 A0       		.byte	0xa0
 5658 0fba 17       		.uleb128 0x17
 5659 0fbb 6A030000 		.4byte	.LASF223
 5660 0fbf 13       		.byte	0x13
 5661 0fc0 1701     		.2byte	0x117
 5662 0fc2 11       		.byte	0x11
 5663 0fc3 A0090000 		.4byte	0x9a0
 5664 0fc7 A4       		.byte	0xa4
 5665 0fc8 17       		.uleb128 0x17
 5666 0fc9 EA1A0000 		.4byte	.LASF224
 5667 0fcd 13       		.byte	0x13
 5668 0fce 1801     		.2byte	0x118
 5669 0fd0 11       		.byte	0x11
 5670 0fd1 94090000 		.4byte	0x994
 5671 0fd5 A8       		.byte	0xa8
 5672 0fd6 17       		.uleb128 0x17
 5673 0fd7 F41A0000 		.4byte	.LASF225
 5674 0fdb 13       		.byte	0x13
ARM GAS  /tmp/ccDQUTww.s 			page 101


 5675 0fdc 1901     		.2byte	0x119
 5676 0fde 11       		.byte	0x11
 5677 0fdf 94090000 		.4byte	0x994
 5678 0fe3 AC       		.byte	0xac
 5679 0fe4 17       		.uleb128 0x17
 5680 0fe5 290D0000 		.4byte	.LASF226
 5681 0fe9 13       		.byte	0x13
 5682 0fea 1A01     		.2byte	0x11a
 5683 0fec 11       		.byte	0x11
 5684 0fed A0090000 		.4byte	0x9a0
 5685 0ff1 B0       		.byte	0xb0
 5686 0ff2 17       		.uleb128 0x17
 5687 0ff3 AC0E0000 		.4byte	.LASF227
 5688 0ff7 13       		.byte	0x13
 5689 0ff8 1B01     		.2byte	0x11b
 5690 0ffa 11       		.byte	0x11
 5691 0ffb A0090000 		.4byte	0x9a0
 5692 0fff B4       		.byte	0xb4
 5693 1000 17       		.uleb128 0x17
 5694 1001 2E0D0000 		.4byte	.LASF228
 5695 1005 13       		.byte	0x13
 5696 1006 1C01     		.2byte	0x11c
 5697 1008 11       		.byte	0x11
 5698 1009 A0090000 		.4byte	0x9a0
 5699 100d B8       		.byte	0xb8
 5700 100e 17       		.uleb128 0x17
 5701 100f AE0F0000 		.4byte	.LASF229
 5702 1013 13       		.byte	0x13
 5703 1014 1D01     		.2byte	0x11d
 5704 1016 11       		.byte	0x11
 5705 1017 A0090000 		.4byte	0x9a0
 5706 101b BC       		.byte	0xbc
 5707 101c 17       		.uleb128 0x17
 5708 101d A6060000 		.4byte	.LASF230
 5709 1021 13       		.byte	0x13
 5710 1022 1E01     		.2byte	0x11e
 5711 1024 11       		.byte	0x11
 5712 1025 A0090000 		.4byte	0x9a0
 5713 1029 C0       		.byte	0xc0
 5714 102a 17       		.uleb128 0x17
 5715 102b 97150000 		.4byte	.LASF231
 5716 102f 13       		.byte	0x13
 5717 1030 1F01     		.2byte	0x11f
 5718 1032 11       		.byte	0x11
 5719 1033 A0090000 		.4byte	0x9a0
 5720 1037 C4       		.byte	0xc4
 5721 1038 17       		.uleb128 0x17
 5722 1039 2F120000 		.4byte	.LASF232
 5723 103d 13       		.byte	0x13
 5724 103e 2001     		.2byte	0x120
 5725 1040 11       		.byte	0x11
 5726 1041 A0090000 		.4byte	0x9a0
 5727 1045 C8       		.byte	0xc8
 5728 1046 00       		.byte	0
 5729 1047 09       		.uleb128 0x9
 5730 1048 94090000 		.4byte	0x994
 5731 104c 57100000 		.4byte	0x1057
ARM GAS  /tmp/ccDQUTww.s 			page 102


 5732 1050 0A       		.uleb128 0xa
 5733 1051 3D000000 		.4byte	0x3d
 5734 1055 03       		.byte	0x3
 5735 1056 00       		.byte	0
 5736 1057 06       		.uleb128 0x6
 5737 1058 38120000 		.4byte	.LASF233
 5738 105c 13       		.byte	0x13
 5739 105d 2101     		.2byte	0x121
 5740 105f 03       		.byte	0x3
 5741 1060 FC0D0000 		.4byte	0xdfc
 5742 1064 21       		.uleb128 0x21
 5743 1065 14       		.byte	0x14
 5744 1066 13       		.byte	0x13
 5745 1067 2401     		.2byte	0x124
 5746 1069 09       		.byte	0x9
 5747 106a B5100000 		.4byte	0x10b5
 5748 106e 18       		.uleb128 0x18
 5749 106f 43535200 		.ascii	"CSR\000"
 5750 1073 13       		.byte	0x13
 5751 1074 2601     		.2byte	0x126
 5752 1076 0F       		.byte	0xf
 5753 1077 A0090000 		.4byte	0x9a0
 5754 107b 00       		.byte	0
 5755 107c 17       		.uleb128 0x17
 5756 107d 031C0000 		.4byte	.LASF234
 5757 1081 13       		.byte	0x13
 5758 1082 2701     		.2byte	0x127
 5759 1084 0A       		.byte	0xa
 5760 1085 94090000 		.4byte	0x994
 5761 1089 04       		.byte	0x4
 5762 108a 18       		.uleb128 0x18
 5763 108b 43435200 		.ascii	"CCR\000"
 5764 108f 13       		.byte	0x13
 5765 1090 2801     		.2byte	0x128
 5766 1092 0F       		.byte	0xf
 5767 1093 A0090000 		.4byte	0x9a0
 5768 1097 08       		.byte	0x8
 5769 1098 18       		.uleb128 0x18
 5770 1099 43445200 		.ascii	"CDR\000"
 5771 109d 13       		.byte	0x13
 5772 109e 2901     		.2byte	0x129
 5773 10a0 0F       		.byte	0xf
 5774 10a1 A0090000 		.4byte	0x9a0
 5775 10a5 0C       		.byte	0xc
 5776 10a6 17       		.uleb128 0x17
 5777 10a7 E4100000 		.4byte	.LASF235
 5778 10ab 13       		.byte	0x13
 5779 10ac 2A01     		.2byte	0x12a
 5780 10ae 0F       		.byte	0xf
 5781 10af A0090000 		.4byte	0x9a0
 5782 10b3 10       		.byte	0x10
 5783 10b4 00       		.byte	0
 5784 10b5 06       		.uleb128 0x6
 5785 10b6 AF140000 		.4byte	.LASF236
 5786 10ba 13       		.byte	0x13
 5787 10bb 2C01     		.2byte	0x12c
 5788 10bd 03       		.byte	0x3
ARM GAS  /tmp/ccDQUTww.s 			page 103


 5789 10be 64100000 		.4byte	0x1064
 5790 10c2 09       		.uleb128 0x9
 5791 10c3 A0090000 		.4byte	0x9a0
 5792 10c7 D2100000 		.4byte	0x10d2
 5793 10cb 0A       		.uleb128 0xa
 5794 10cc 3D000000 		.4byte	0x3d
 5795 10d0 03       		.byte	0x3
 5796 10d1 00       		.byte	0
 5797 10d2 04       		.uleb128 0x4
 5798 10d3 C2100000 		.4byte	0x10c2
 5799 10d7 09       		.uleb128 0x9
 5800 10d8 A0090000 		.4byte	0x9a0
 5801 10dc E7100000 		.4byte	0x10e7
 5802 10e0 0A       		.uleb128 0xa
 5803 10e1 3D000000 		.4byte	0x3d
 5804 10e5 01       		.byte	0x1
 5805 10e6 00       		.byte	0
 5806 10e7 04       		.uleb128 0x4
 5807 10e8 D7100000 		.4byte	0x10d7
 5808 10ec 21       		.uleb128 0x21
 5809 10ed 18       		.byte	0x18
 5810 10ee 13       		.byte	0x13
 5811 10ef 3202     		.2byte	0x232
 5812 10f1 09       		.byte	0x9
 5813 10f2 4A110000 		.4byte	0x114a
 5814 10f6 18       		.uleb128 0x18
 5815 10f7 435200   		.ascii	"CR\000"
 5816 10fa 13       		.byte	0x13
 5817 10fb 3402     		.2byte	0x234
 5818 10fd 11       		.byte	0x11
 5819 10fe A0090000 		.4byte	0x9a0
 5820 1102 00       		.byte	0
 5821 1103 17       		.uleb128 0x17
 5822 1104 B31B0000 		.4byte	.LASF237
 5823 1108 13       		.byte	0x13
 5824 1109 3502     		.2byte	0x235
 5825 110b 11       		.byte	0x11
 5826 110c A0090000 		.4byte	0x9a0
 5827 1110 04       		.byte	0x4
 5828 1111 18       		.uleb128 0x18
 5829 1112 50415200 		.ascii	"PAR\000"
 5830 1116 13       		.byte	0x13
 5831 1117 3602     		.2byte	0x236
 5832 1119 11       		.byte	0x11
 5833 111a A0090000 		.4byte	0x9a0
 5834 111e 08       		.byte	0x8
 5835 111f 17       		.uleb128 0x17
 5836 1120 57040000 		.4byte	.LASF238
 5837 1124 13       		.byte	0x13
 5838 1125 3702     		.2byte	0x237
 5839 1127 11       		.byte	0x11
 5840 1128 A0090000 		.4byte	0x9a0
 5841 112c 0C       		.byte	0xc
 5842 112d 17       		.uleb128 0x17
 5843 112e 83070000 		.4byte	.LASF239
 5844 1132 13       		.byte	0x13
 5845 1133 3802     		.2byte	0x238
ARM GAS  /tmp/ccDQUTww.s 			page 104


 5846 1135 11       		.byte	0x11
 5847 1136 A0090000 		.4byte	0x9a0
 5848 113a 10       		.byte	0x10
 5849 113b 18       		.uleb128 0x18
 5850 113c 46435200 		.ascii	"FCR\000"
 5851 1140 13       		.byte	0x13
 5852 1141 3902     		.2byte	0x239
 5853 1143 11       		.byte	0x11
 5854 1144 A0090000 		.4byte	0x9a0
 5855 1148 14       		.byte	0x14
 5856 1149 00       		.byte	0
 5857 114a 06       		.uleb128 0x6
 5858 114b 8D070000 		.4byte	.LASF240
 5859 114f 13       		.byte	0x13
 5860 1150 3A02     		.2byte	0x23a
 5861 1152 03       		.byte	0x3
 5862 1153 EC100000 		.4byte	0x10ec
 5863 1157 21       		.uleb128 0x21
 5864 1158 14       		.byte	0x14
 5865 1159 13       		.byte	0x13
 5866 115a 4402     		.2byte	0x244
 5867 115c 09       		.byte	0x9
 5868 115d A8110000 		.4byte	0x11a8
 5869 1161 18       		.uleb128 0x18
 5870 1162 43435200 		.ascii	"CCR\000"
 5871 1166 13       		.byte	0x13
 5872 1167 4602     		.2byte	0x246
 5873 1169 11       		.byte	0x11
 5874 116a A0090000 		.4byte	0x9a0
 5875 116e 00       		.byte	0
 5876 116f 17       		.uleb128 0x17
 5877 1170 CA0E0000 		.4byte	.LASF241
 5878 1174 13       		.byte	0x13
 5879 1175 4702     		.2byte	0x247
 5880 1177 11       		.byte	0x11
 5881 1178 A0090000 		.4byte	0x9a0
 5882 117c 04       		.byte	0x4
 5883 117d 17       		.uleb128 0x17
 5884 117e 430D0000 		.4byte	.LASF242
 5885 1182 13       		.byte	0x13
 5886 1183 4802     		.2byte	0x248
 5887 1185 11       		.byte	0x11
 5888 1186 A0090000 		.4byte	0x9a0
 5889 118a 08       		.byte	0x8
 5890 118b 17       		.uleb128 0x17
 5891 118c 56170000 		.4byte	.LASF243
 5892 1190 13       		.byte	0x13
 5893 1191 4902     		.2byte	0x249
 5894 1193 11       		.byte	0x11
 5895 1194 A0090000 		.4byte	0x9a0
 5896 1198 0C       		.byte	0xc
 5897 1199 17       		.uleb128 0x17
 5898 119a 761A0000 		.4byte	.LASF244
 5899 119e 13       		.byte	0x13
 5900 119f 4A02     		.2byte	0x24a
 5901 11a1 11       		.byte	0x11
 5902 11a2 A0090000 		.4byte	0x9a0
ARM GAS  /tmp/ccDQUTww.s 			page 105


 5903 11a6 10       		.byte	0x10
 5904 11a7 00       		.byte	0
 5905 11a8 06       		.uleb128 0x6
 5906 11a9 64090000 		.4byte	.LASF245
 5907 11ad 13       		.byte	0x13
 5908 11ae 4B02     		.2byte	0x24b
 5909 11b0 03       		.byte	0x3
 5910 11b1 57110000 		.4byte	0x1157
 5911 11b5 21       		.uleb128 0x21
 5912 11b6 08       		.byte	0x8
 5913 11b7 13       		.byte	0x13
 5914 11b8 4D02     		.2byte	0x24d
 5915 11ba 09       		.byte	0x9
 5916 11bb DC110000 		.4byte	0x11dc
 5917 11bf 18       		.uleb128 0x18
 5918 11c0 49535200 		.ascii	"ISR\000"
 5919 11c4 13       		.byte	0x13
 5920 11c5 4F02     		.2byte	0x24f
 5921 11c7 11       		.byte	0x11
 5922 11c8 A0090000 		.4byte	0x9a0
 5923 11cc 00       		.byte	0
 5924 11cd 17       		.uleb128 0x17
 5925 11ce 6F0B0000 		.4byte	.LASF246
 5926 11d2 13       		.byte	0x13
 5927 11d3 5002     		.2byte	0x250
 5928 11d5 11       		.byte	0x11
 5929 11d6 A0090000 		.4byte	0x9a0
 5930 11da 04       		.byte	0x4
 5931 11db 00       		.byte	0
 5932 11dc 06       		.uleb128 0x6
 5933 11dd B10E0000 		.4byte	.LASF247
 5934 11e1 13       		.byte	0x13
 5935 11e2 5102     		.2byte	0x251
 5936 11e4 03       		.byte	0x3
 5937 11e5 B5110000 		.4byte	0x11b5
 5938 11e9 21       		.uleb128 0x21
 5939 11ea 04       		.byte	0x4
 5940 11eb 13       		.byte	0x13
 5941 11ec 5302     		.2byte	0x253
 5942 11ee 09       		.byte	0x9
 5943 11ef 02120000 		.4byte	0x1202
 5944 11f3 18       		.uleb128 0x18
 5945 11f4 43435200 		.ascii	"CCR\000"
 5946 11f8 13       		.byte	0x13
 5947 11f9 5502     		.2byte	0x255
 5948 11fb 12       		.byte	0x12
 5949 11fc A0090000 		.4byte	0x9a0
 5950 1200 00       		.byte	0
 5951 1201 00       		.byte	0
 5952 1202 06       		.uleb128 0x6
 5953 1203 19150000 		.4byte	.LASF248
 5954 1207 13       		.byte	0x13
 5955 1208 5602     		.2byte	0x256
 5956 120a 02       		.byte	0x2
 5957 120b E9110000 		.4byte	0x11e9
 5958 120f 09       		.uleb128 0x9
 5959 1210 94090000 		.4byte	0x994
ARM GAS  /tmp/ccDQUTww.s 			page 106


 5960 1214 1F120000 		.4byte	0x121f
 5961 1218 0A       		.uleb128 0xa
 5962 1219 3D000000 		.4byte	0x3d
 5963 121d 02       		.byte	0x2
 5964 121e 00       		.byte	0
 5965 121f 21       		.uleb128 0x21
 5966 1220 2C       		.byte	0x2c
 5967 1221 13       		.byte	0x13
 5968 1222 3E04     		.2byte	0x43e
 5969 1224 09       		.byte	0x9
 5970 1225 C4120000 		.4byte	0x12c4
 5971 1229 18       		.uleb128 0x18
 5972 122a 43523100 		.ascii	"CR1\000"
 5973 122e 13       		.byte	0x13
 5974 122f 4004     		.2byte	0x440
 5975 1231 11       		.byte	0x11
 5976 1232 A0090000 		.4byte	0x9a0
 5977 1236 00       		.byte	0
 5978 1237 18       		.uleb128 0x18
 5979 1238 43523200 		.ascii	"CR2\000"
 5980 123c 13       		.byte	0x13
 5981 123d 4104     		.2byte	0x441
 5982 123f 11       		.byte	0x11
 5983 1240 A0090000 		.4byte	0x9a0
 5984 1244 04       		.byte	0x4
 5985 1245 17       		.uleb128 0x17
 5986 1246 51210000 		.4byte	.LASF249
 5987 124a 13       		.byte	0x13
 5988 124b 4204     		.2byte	0x442
 5989 124d 11       		.byte	0x11
 5990 124e A0090000 		.4byte	0x9a0
 5991 1252 08       		.byte	0x8
 5992 1253 17       		.uleb128 0x17
 5993 1254 56210000 		.4byte	.LASF250
 5994 1258 13       		.byte	0x13
 5995 1259 4304     		.2byte	0x443
 5996 125b 11       		.byte	0x11
 5997 125c A0090000 		.4byte	0x9a0
 5998 1260 0C       		.byte	0xc
 5999 1261 17       		.uleb128 0x17
 6000 1262 9E060000 		.4byte	.LASF251
 6001 1266 13       		.byte	0x13
 6002 1267 4404     		.2byte	0x444
 6003 1269 11       		.byte	0x11
 6004 126a A0090000 		.4byte	0x9a0
 6005 126e 10       		.byte	0x10
 6006 126f 17       		.uleb128 0x17
 6007 1270 CB030000 		.4byte	.LASF252
 6008 1274 13       		.byte	0x13
 6009 1275 4504     		.2byte	0x445
 6010 1277 11       		.byte	0x11
 6011 1278 A0090000 		.4byte	0x9a0
 6012 127c 14       		.byte	0x14
 6013 127d 18       		.uleb128 0x18
 6014 127e 49535200 		.ascii	"ISR\000"
 6015 1282 13       		.byte	0x13
 6016 1283 4604     		.2byte	0x446
ARM GAS  /tmp/ccDQUTww.s 			page 107


 6017 1285 11       		.byte	0x11
 6018 1286 A0090000 		.4byte	0x9a0
 6019 128a 18       		.byte	0x18
 6020 128b 18       		.uleb128 0x18
 6021 128c 49435200 		.ascii	"ICR\000"
 6022 1290 13       		.byte	0x13
 6023 1291 4704     		.2byte	0x447
 6024 1293 11       		.byte	0x11
 6025 1294 A0090000 		.4byte	0x9a0
 6026 1298 1C       		.byte	0x1c
 6027 1299 17       		.uleb128 0x17
 6028 129a 58150000 		.4byte	.LASF253
 6029 129e 13       		.byte	0x13
 6030 129f 4804     		.2byte	0x448
 6031 12a1 11       		.byte	0x11
 6032 12a2 A0090000 		.4byte	0x9a0
 6033 12a6 20       		.byte	0x20
 6034 12a7 17       		.uleb128 0x17
 6035 12a8 4D0F0000 		.4byte	.LASF254
 6036 12ac 13       		.byte	0x13
 6037 12ad 4904     		.2byte	0x449
 6038 12af 11       		.byte	0x11
 6039 12b0 A0090000 		.4byte	0x9a0
 6040 12b4 24       		.byte	0x24
 6041 12b5 17       		.uleb128 0x17
 6042 12b6 090E0000 		.4byte	.LASF255
 6043 12ba 13       		.byte	0x13
 6044 12bb 4A04     		.2byte	0x44a
 6045 12bd 11       		.byte	0x11
 6046 12be A0090000 		.4byte	0x9a0
 6047 12c2 28       		.byte	0x28
 6048 12c3 00       		.byte	0
 6049 12c4 06       		.uleb128 0x6
 6050 12c5 B30F0000 		.4byte	.LASF256
 6051 12c9 13       		.byte	0x13
 6052 12ca 4B04     		.2byte	0x44b
 6053 12cc 03       		.byte	0x3
 6054 12cd 1F120000 		.4byte	0x121f
 6055 12d1 09       		.uleb128 0x9
 6056 12d2 A0090000 		.4byte	0x9a0
 6057 12d6 E1120000 		.4byte	0x12e1
 6058 12da 0A       		.uleb128 0xa
 6059 12db 3D000000 		.4byte	0x3d
 6060 12df 0F       		.byte	0xf
 6061 12e0 00       		.byte	0
 6062 12e1 04       		.uleb128 0x4
 6063 12e2 D1120000 		.4byte	0x12d1
 6064 12e6 22       		.uleb128 0x22
 6065 12e7 0004     		.2byte	0x400
 6066 12e9 13       		.byte	0x13
 6067 12ea 7605     		.2byte	0x576
 6068 12ec 09       		.byte	0x9
 6069 12ed 5F140000 		.4byte	0x145f
 6070 12f1 17       		.uleb128 0x17
 6071 12f2 A1130000 		.4byte	.LASF257
 6072 12f6 13       		.byte	0x13
 6073 12f7 7805     		.2byte	0x578
ARM GAS  /tmp/ccDQUTww.s 			page 108


 6074 12f9 11       		.byte	0x11
 6075 12fa A0090000 		.4byte	0x9a0
 6076 12fe 00       		.byte	0
 6077 12ff 17       		.uleb128 0x17
 6078 1300 B21C0000 		.4byte	.LASF258
 6079 1304 13       		.byte	0x13
 6080 1305 7905     		.2byte	0x579
 6081 1307 11       		.byte	0x11
 6082 1308 A0090000 		.4byte	0x9a0
 6083 130c 04       		.byte	0x4
 6084 130d 18       		.uleb128 0x18
 6085 130e 41524700 		.ascii	"ARG\000"
 6086 1312 13       		.byte	0x13
 6087 1313 7A05     		.2byte	0x57a
 6088 1315 11       		.byte	0x11
 6089 1316 A0090000 		.4byte	0x9a0
 6090 131a 08       		.byte	0x8
 6091 131b 18       		.uleb128 0x18
 6092 131c 434D4400 		.ascii	"CMD\000"
 6093 1320 13       		.byte	0x13
 6094 1321 7B05     		.2byte	0x57b
 6095 1323 11       		.byte	0x11
 6096 1324 A0090000 		.4byte	0x9a0
 6097 1328 0C       		.byte	0xc
 6098 1329 17       		.uleb128 0x17
 6099 132a 7D160000 		.4byte	.LASF259
 6100 132e 13       		.byte	0x13
 6101 132f 7C05     		.2byte	0x57c
 6102 1331 11       		.byte	0x11
 6103 1332 A5090000 		.4byte	0x9a5
 6104 1336 10       		.byte	0x10
 6105 1337 17       		.uleb128 0x17
 6106 1338 E9050000 		.4byte	.LASF260
 6107 133c 13       		.byte	0x13
 6108 133d 7D05     		.2byte	0x57d
 6109 133f 11       		.byte	0x11
 6110 1340 A5090000 		.4byte	0x9a5
 6111 1344 14       		.byte	0x14
 6112 1345 17       		.uleb128 0x17
 6113 1346 EF050000 		.4byte	.LASF261
 6114 134a 13       		.byte	0x13
 6115 134b 7E05     		.2byte	0x57e
 6116 134d 11       		.byte	0x11
 6117 134e A5090000 		.4byte	0x9a5
 6118 1352 18       		.byte	0x18
 6119 1353 17       		.uleb128 0x17
 6120 1354 F5050000 		.4byte	.LASF262
 6121 1358 13       		.byte	0x13
 6122 1359 7F05     		.2byte	0x57f
 6123 135b 11       		.byte	0x11
 6124 135c A5090000 		.4byte	0x9a5
 6125 1360 1C       		.byte	0x1c
 6126 1361 17       		.uleb128 0x17
 6127 1362 FB050000 		.4byte	.LASF263
 6128 1366 13       		.byte	0x13
 6129 1367 8005     		.2byte	0x580
 6130 1369 11       		.byte	0x11
ARM GAS  /tmp/ccDQUTww.s 			page 109


 6131 136a A5090000 		.4byte	0x9a5
 6132 136e 20       		.byte	0x20
 6133 136f 17       		.uleb128 0x17
 6134 1370 08110000 		.4byte	.LASF264
 6135 1374 13       		.byte	0x13
 6136 1375 8105     		.2byte	0x581
 6137 1377 11       		.byte	0x11
 6138 1378 A0090000 		.4byte	0x9a0
 6139 137c 24       		.byte	0x24
 6140 137d 17       		.uleb128 0x17
 6141 137e BC120000 		.4byte	.LASF265
 6142 1382 13       		.byte	0x13
 6143 1383 8205     		.2byte	0x582
 6144 1385 11       		.byte	0x11
 6145 1386 A0090000 		.4byte	0x9a0
 6146 138a 28       		.byte	0x28
 6147 138b 17       		.uleb128 0x17
 6148 138c 32200000 		.4byte	.LASF266
 6149 1390 13       		.byte	0x13
 6150 1391 8305     		.2byte	0x583
 6151 1393 11       		.byte	0x11
 6152 1394 A0090000 		.4byte	0x9a0
 6153 1398 2C       		.byte	0x2c
 6154 1399 17       		.uleb128 0x17
 6155 139a 4A210000 		.4byte	.LASF267
 6156 139e 13       		.byte	0x13
 6157 139f 8405     		.2byte	0x584
 6158 13a1 11       		.byte	0x11
 6159 13a2 A5090000 		.4byte	0x9a5
 6160 13a6 30       		.byte	0x30
 6161 13a7 18       		.uleb128 0x18
 6162 13a8 53544100 		.ascii	"STA\000"
 6163 13ac 13       		.byte	0x13
 6164 13ad 8505     		.2byte	0x585
 6165 13af 11       		.byte	0x11
 6166 13b0 A5090000 		.4byte	0x9a5
 6167 13b4 34       		.byte	0x34
 6168 13b5 18       		.uleb128 0x18
 6169 13b6 49435200 		.ascii	"ICR\000"
 6170 13ba 13       		.byte	0x13
 6171 13bb 8605     		.2byte	0x586
 6172 13bd 11       		.byte	0x11
 6173 13be A0090000 		.4byte	0x9a0
 6174 13c2 38       		.byte	0x38
 6175 13c3 17       		.uleb128 0x17
 6176 13c4 1B020000 		.4byte	.LASF268
 6177 13c8 13       		.byte	0x13
 6178 13c9 8705     		.2byte	0x587
 6179 13cb 11       		.byte	0x11
 6180 13cc A0090000 		.4byte	0x9a0
 6181 13d0 3C       		.byte	0x3c
 6182 13d1 17       		.uleb128 0x17
 6183 13d2 47070000 		.4byte	.LASF269
 6184 13d6 13       		.byte	0x13
 6185 13d7 8805     		.2byte	0x588
 6186 13d9 11       		.byte	0x11
 6187 13da A0090000 		.4byte	0x9a0
ARM GAS  /tmp/ccDQUTww.s 			page 110


 6188 13de 40       		.byte	0x40
 6189 13df 17       		.uleb128 0x17
 6190 13e0 9A1A0000 		.4byte	.LASF270
 6191 13e4 13       		.byte	0x13
 6192 13e5 8905     		.2byte	0x589
 6193 13e7 11       		.byte	0x11
 6194 13e8 0F120000 		.4byte	0x120f
 6195 13ec 44       		.byte	0x44
 6196 13ed 17       		.uleb128 0x17
 6197 13ee 8F180000 		.4byte	.LASF271
 6198 13f2 13       		.byte	0x13
 6199 13f3 8A05     		.2byte	0x58a
 6200 13f5 11       		.byte	0x11
 6201 13f6 A0090000 		.4byte	0x9a0
 6202 13fa 50       		.byte	0x50
 6203 13fb 17       		.uleb128 0x17
 6204 13fc AD0D0000 		.4byte	.LASF272
 6205 1400 13       		.byte	0x13
 6206 1401 8B05     		.2byte	0x58b
 6207 1403 11       		.byte	0x11
 6208 1404 A0090000 		.4byte	0x9a0
 6209 1408 54       		.byte	0x54
 6210 1409 17       		.uleb128 0x17
 6211 140a 270B0000 		.4byte	.LASF273
 6212 140e 13       		.byte	0x13
 6213 140f 8C05     		.2byte	0x58c
 6214 1411 11       		.byte	0x11
 6215 1412 A0090000 		.4byte	0x9a0
 6216 1416 58       		.byte	0x58
 6217 1417 17       		.uleb128 0x17
 6218 1418 310B0000 		.4byte	.LASF274
 6219 141c 13       		.byte	0x13
 6220 141d 8D05     		.2byte	0x58d
 6221 141f 11       		.byte	0x11
 6222 1420 A0090000 		.4byte	0x9a0
 6223 1424 5C       		.byte	0x5c
 6224 1425 17       		.uleb128 0x17
 6225 1426 A41A0000 		.4byte	.LASF202
 6226 142a 13       		.byte	0x13
 6227 142b 8E05     		.2byte	0x58e
 6228 142d 11       		.byte	0x11
 6229 142e A60D0000 		.4byte	0xda6
 6230 1432 60       		.byte	0x60
 6231 1433 17       		.uleb128 0x17
 6232 1434 B6080000 		.4byte	.LASF275
 6233 1438 13       		.byte	0x13
 6234 1439 8F05     		.2byte	0x58f
 6235 143b 11       		.byte	0x11
 6236 143c A0090000 		.4byte	0x9a0
 6237 1440 80       		.byte	0x80
 6238 1441 17       		.uleb128 0x17
 6239 1442 AE1A0000 		.4byte	.LASF203
 6240 1446 13       		.byte	0x13
 6241 1447 9005     		.2byte	0x590
 6242 1449 11       		.byte	0x11
 6243 144a 5F140000 		.4byte	0x145f
 6244 144e 84       		.byte	0x84
ARM GAS  /tmp/ccDQUTww.s 			page 111


 6245 144f 1E       		.uleb128 0x1e
 6246 1450 53150000 		.4byte	.LASF276
 6247 1454 13       		.byte	0x13
 6248 1455 9105     		.2byte	0x591
 6249 1457 11       		.byte	0x11
 6250 1458 A0090000 		.4byte	0x9a0
 6251 145c FC03     		.2byte	0x3fc
 6252 145e 00       		.byte	0
 6253 145f 09       		.uleb128 0x9
 6254 1460 94090000 		.4byte	0x994
 6255 1464 6F140000 		.4byte	0x146f
 6256 1468 0A       		.uleb128 0xa
 6257 1469 3D000000 		.4byte	0x3d
 6258 146d DD       		.byte	0xdd
 6259 146e 00       		.byte	0
 6260 146f 06       		.uleb128 0x6
 6261 1470 181B0000 		.4byte	.LASF277
 6262 1474 13       		.byte	0x13
 6263 1475 9205     		.2byte	0x592
 6264 1477 03       		.byte	0x3
 6265 1478 E6120000 		.4byte	0x12e6
 6266 147c 21       		.uleb128 0x21
 6267 147d 54       		.byte	0x54
 6268 147e 13       		.byte	0x13
 6269 147f BD05     		.2byte	0x5bd
 6270 1481 09       		.byte	0x9
 6271 1482 74150000 		.4byte	0x1574
 6272 1486 18       		.uleb128 0x18
 6273 1487 43523100 		.ascii	"CR1\000"
 6274 148b 13       		.byte	0x13
 6275 148c BF05     		.2byte	0x5bf
 6276 148e 11       		.byte	0x11
 6277 148f A0090000 		.4byte	0x9a0
 6278 1493 00       		.byte	0
 6279 1494 18       		.uleb128 0x18
 6280 1495 43523200 		.ascii	"CR2\000"
 6281 1499 13       		.byte	0x13
 6282 149a C005     		.2byte	0x5c0
 6283 149c 11       		.byte	0x11
 6284 149d A0090000 		.4byte	0x9a0
 6285 14a1 04       		.byte	0x4
 6286 14a2 17       		.uleb128 0x17
 6287 14a3 5A110000 		.4byte	.LASF278
 6288 14a7 13       		.byte	0x13
 6289 14a8 C105     		.2byte	0x5c1
 6290 14aa 11       		.byte	0x11
 6291 14ab A0090000 		.4byte	0x9a0
 6292 14af 08       		.byte	0x8
 6293 14b0 17       		.uleb128 0x17
 6294 14b1 5F110000 		.4byte	.LASF279
 6295 14b5 13       		.byte	0x13
 6296 14b6 C205     		.2byte	0x5c2
 6297 14b8 11       		.byte	0x11
 6298 14b9 A0090000 		.4byte	0x9a0
 6299 14bd 0C       		.byte	0xc
 6300 14be 18       		.uleb128 0x18
 6301 14bf 49455200 		.ascii	"IER\000"
ARM GAS  /tmp/ccDQUTww.s 			page 112


 6302 14c3 13       		.byte	0x13
 6303 14c4 C305     		.2byte	0x5c3
 6304 14c6 11       		.byte	0x11
 6305 14c7 A0090000 		.4byte	0x9a0
 6306 14cb 10       		.byte	0x10
 6307 14cc 18       		.uleb128 0x18
 6308 14cd 535200   		.ascii	"SR\000"
 6309 14d0 13       		.byte	0x13
 6310 14d1 C405     		.2byte	0x5c4
 6311 14d3 11       		.byte	0x11
 6312 14d4 A0090000 		.4byte	0x9a0
 6313 14d8 14       		.byte	0x14
 6314 14d9 17       		.uleb128 0x17
 6315 14da 6F0B0000 		.4byte	.LASF246
 6316 14de 13       		.byte	0x13
 6317 14df C505     		.2byte	0x5c5
 6318 14e1 11       		.byte	0x11
 6319 14e2 A0090000 		.4byte	0x9a0
 6320 14e6 18       		.byte	0x18
 6321 14e7 17       		.uleb128 0x17
 6322 14e8 9A1A0000 		.4byte	.LASF270
 6323 14ec 13       		.byte	0x13
 6324 14ed C605     		.2byte	0x5c6
 6325 14ef 11       		.byte	0x11
 6326 14f0 94090000 		.4byte	0x994
 6327 14f4 1C       		.byte	0x1c
 6328 14f5 17       		.uleb128 0x17
 6329 14f6 090E0000 		.4byte	.LASF255
 6330 14fa 13       		.byte	0x13
 6331 14fb C705     		.2byte	0x5c7
 6332 14fd 11       		.byte	0x11
 6333 14fe A0090000 		.4byte	0x9a0
 6334 1502 20       		.byte	0x20
 6335 1503 17       		.uleb128 0x17
 6336 1504 A41A0000 		.4byte	.LASF202
 6337 1508 13       		.byte	0x13
 6338 1509 C805     		.2byte	0x5c8
 6339 150b 11       		.byte	0x11
 6340 150c 0F120000 		.4byte	0x120f
 6341 1510 24       		.byte	0x24
 6342 1511 17       		.uleb128 0x17
 6343 1512 4D0F0000 		.4byte	.LASF254
 6344 1516 13       		.byte	0x13
 6345 1517 C905     		.2byte	0x5c9
 6346 1519 11       		.byte	0x11
 6347 151a A0090000 		.4byte	0x9a0
 6348 151e 30       		.byte	0x30
 6349 151f 17       		.uleb128 0x17
 6350 1520 AE1A0000 		.4byte	.LASF203
 6351 1524 13       		.byte	0x13
 6352 1525 CA05     		.2byte	0x5ca
 6353 1527 11       		.byte	0x11
 6354 1528 0F120000 		.4byte	0x120f
 6355 152c 34       		.byte	0x34
 6356 152d 17       		.uleb128 0x17
 6357 152e 24180000 		.4byte	.LASF280
 6358 1532 13       		.byte	0x13
ARM GAS  /tmp/ccDQUTww.s 			page 113


 6359 1533 CB05     		.2byte	0x5cb
 6360 1535 11       		.byte	0x11
 6361 1536 A0090000 		.4byte	0x9a0
 6362 153a 40       		.byte	0x40
 6363 153b 17       		.uleb128 0x17
 6364 153c 900F0000 		.4byte	.LASF281
 6365 1540 13       		.byte	0x13
 6366 1541 CC05     		.2byte	0x5cc
 6367 1543 11       		.byte	0x11
 6368 1544 A0090000 		.4byte	0x9a0
 6369 1548 44       		.byte	0x44
 6370 1549 17       		.uleb128 0x17
 6371 154a 301B0000 		.4byte	.LASF282
 6372 154e 13       		.byte	0x13
 6373 154f CD05     		.2byte	0x5cd
 6374 1551 11       		.byte	0x11
 6375 1552 A0090000 		.4byte	0x9a0
 6376 1556 48       		.byte	0x48
 6377 1557 17       		.uleb128 0x17
 6378 1558 530B0000 		.4byte	.LASF283
 6379 155c 13       		.byte	0x13
 6380 155d CE05     		.2byte	0x5ce
 6381 155f 11       		.byte	0x11
 6382 1560 A0090000 		.4byte	0x9a0
 6383 1564 4C       		.byte	0x4c
 6384 1565 17       		.uleb128 0x17
 6385 1566 9F1D0000 		.4byte	.LASF284
 6386 156a 13       		.byte	0x13
 6387 156b CF05     		.2byte	0x5cf
 6388 156d 11       		.byte	0x11
 6389 156e A0090000 		.4byte	0x9a0
 6390 1572 50       		.byte	0x50
 6391 1573 00       		.byte	0
 6392 1574 06       		.uleb128 0x6
 6393 1575 D71B0000 		.4byte	.LASF285
 6394 1579 13       		.byte	0x13
 6395 157a D105     		.2byte	0x5d1
 6396 157c 03       		.byte	0x3
 6397 157d 7C140000 		.4byte	0x147c
 6398 1581 21       		.uleb128 0x21
 6399 1582 30       		.byte	0x30
 6400 1583 13       		.byte	0x13
 6401 1584 3206     		.2byte	0x632
 6402 1586 09       		.byte	0x9
 6403 1587 34160000 		.4byte	0x1634
 6404 158b 18       		.uleb128 0x18
 6405 158c 43523100 		.ascii	"CR1\000"
 6406 1590 13       		.byte	0x13
 6407 1591 3406     		.2byte	0x634
 6408 1593 11       		.byte	0x11
 6409 1594 A0090000 		.4byte	0x9a0
 6410 1598 00       		.byte	0
 6411 1599 18       		.uleb128 0x18
 6412 159a 43523200 		.ascii	"CR2\000"
 6413 159e 13       		.byte	0x13
 6414 159f 3506     		.2byte	0x635
 6415 15a1 11       		.byte	0x11
ARM GAS  /tmp/ccDQUTww.s 			page 114


 6416 15a2 A0090000 		.4byte	0x9a0
 6417 15a6 04       		.byte	0x4
 6418 15a7 18       		.uleb128 0x18
 6419 15a8 43523300 		.ascii	"CR3\000"
 6420 15ac 13       		.byte	0x13
 6421 15ad 3606     		.2byte	0x636
 6422 15af 11       		.byte	0x11
 6423 15b0 A0090000 		.4byte	0x9a0
 6424 15b4 08       		.byte	0x8
 6425 15b5 18       		.uleb128 0x18
 6426 15b6 42525200 		.ascii	"BRR\000"
 6427 15ba 13       		.byte	0x13
 6428 15bb 3706     		.2byte	0x637
 6429 15bd 11       		.byte	0x11
 6430 15be A0090000 		.4byte	0x9a0
 6431 15c2 0C       		.byte	0xc
 6432 15c3 17       		.uleb128 0x17
 6433 15c4 CD0C0000 		.4byte	.LASF286
 6434 15c8 13       		.byte	0x13
 6435 15c9 3806     		.2byte	0x638
 6436 15cb 11       		.byte	0x11
 6437 15cc A0090000 		.4byte	0x9a0
 6438 15d0 10       		.byte	0x10
 6439 15d1 17       		.uleb128 0x17
 6440 15d2 B1080000 		.4byte	.LASF287
 6441 15d6 13       		.byte	0x13
 6442 15d7 3906     		.2byte	0x639
 6443 15d9 11       		.byte	0x11
 6444 15da A0090000 		.4byte	0x9a0
 6445 15de 14       		.byte	0x14
 6446 15df 18       		.uleb128 0x18
 6447 15e0 52515200 		.ascii	"RQR\000"
 6448 15e4 13       		.byte	0x13
 6449 15e5 3A06     		.2byte	0x63a
 6450 15e7 11       		.byte	0x11
 6451 15e8 A0090000 		.4byte	0x9a0
 6452 15ec 18       		.byte	0x18
 6453 15ed 18       		.uleb128 0x18
 6454 15ee 49535200 		.ascii	"ISR\000"
 6455 15f2 13       		.byte	0x13
 6456 15f3 3B06     		.2byte	0x63b
 6457 15f5 11       		.byte	0x11
 6458 15f6 A0090000 		.4byte	0x9a0
 6459 15fa 1C       		.byte	0x1c
 6460 15fb 18       		.uleb128 0x18
 6461 15fc 49435200 		.ascii	"ICR\000"
 6462 1600 13       		.byte	0x13
 6463 1601 3C06     		.2byte	0x63c
 6464 1603 11       		.byte	0x11
 6465 1604 A0090000 		.4byte	0x9a0
 6466 1608 20       		.byte	0x20
 6467 1609 18       		.uleb128 0x18
 6468 160a 52445200 		.ascii	"RDR\000"
 6469 160e 13       		.byte	0x13
 6470 160f 3D06     		.2byte	0x63d
 6471 1611 11       		.byte	0x11
 6472 1612 A0090000 		.4byte	0x9a0
ARM GAS  /tmp/ccDQUTww.s 			page 115


 6473 1616 24       		.byte	0x24
 6474 1617 18       		.uleb128 0x18
 6475 1618 54445200 		.ascii	"TDR\000"
 6476 161c 13       		.byte	0x13
 6477 161d 3E06     		.2byte	0x63e
 6478 161f 11       		.byte	0x11
 6479 1620 A0090000 		.4byte	0x9a0
 6480 1624 28       		.byte	0x28
 6481 1625 17       		.uleb128 0x17
 6482 1626 84110000 		.4byte	.LASF288
 6483 162a 13       		.byte	0x13
 6484 162b 3F06     		.2byte	0x63f
 6485 162d 11       		.byte	0x11
 6486 162e A0090000 		.4byte	0x9a0
 6487 1632 2C       		.byte	0x2c
 6488 1633 00       		.byte	0
 6489 1634 06       		.uleb128 0x6
 6490 1635 78140000 		.4byte	.LASF289
 6491 1639 13       		.byte	0x13
 6492 163a 4006     		.2byte	0x640
 6493 163c 03       		.byte	0x3
 6494 163d 81150000 		.4byte	0x1581
 6495 1641 21       		.uleb128 0x21
 6496 1642 0C       		.byte	0xc
 6497 1643 13       		.byte	0x13
 6498 1644 1E07     		.2byte	0x71e
 6499 1646 09       		.byte	0x9
 6500 1647 73160000 		.4byte	0x1673
 6501 164b 18       		.uleb128 0x18
 6502 164c 435200   		.ascii	"CR\000"
 6503 164f 13       		.byte	0x13
 6504 1650 2007     		.2byte	0x720
 6505 1652 11       		.byte	0x11
 6506 1653 A0090000 		.4byte	0x9a0
 6507 1657 00       		.byte	0
 6508 1658 18       		.uleb128 0x18
 6509 1659 535200   		.ascii	"SR\000"
 6510 165c 13       		.byte	0x13
 6511 165d 2107     		.2byte	0x721
 6512 165f 11       		.byte	0x11
 6513 1660 A0090000 		.4byte	0x9a0
 6514 1664 04       		.byte	0x4
 6515 1665 18       		.uleb128 0x18
 6516 1666 445200   		.ascii	"DR\000"
 6517 1669 13       		.byte	0x13
 6518 166a 2207     		.2byte	0x722
 6519 166c 11       		.byte	0x11
 6520 166d A0090000 		.4byte	0x9a0
 6521 1671 08       		.byte	0x8
 6522 1672 00       		.byte	0
 6523 1673 06       		.uleb128 0x6
 6524 1674 6C140000 		.4byte	.LASF290
 6525 1678 13       		.byte	0x13
 6526 1679 2307     		.2byte	0x723
 6527 167b 03       		.byte	0x3
 6528 167c 41160000 		.4byte	0x1641
 6529 1680 09       		.uleb128 0x9
ARM GAS  /tmp/ccDQUTww.s 			page 116


 6530 1681 A0090000 		.4byte	0x9a0
 6531 1685 90160000 		.4byte	0x1690
 6532 1689 0A       		.uleb128 0xa
 6533 168a 3D000000 		.4byte	0x3d
 6534 168e 0E       		.byte	0xe
 6535 168f 00       		.byte	0
 6536 1690 04       		.uleb128 0x4
 6537 1691 80160000 		.4byte	0x1680
 6538 1695 03       		.uleb128 0x3
 6539 1696 73080000 		.4byte	.LASF291
 6540 169a 14       		.byte	0x14
 6541 169b 68       		.byte	0x68
 6542 169c 12       		.byte	0x12
 6543 169d AA090000 		.4byte	0x9aa
 6544 16a1 16       		.uleb128 0x16
 6545 16a2 25000000 		.4byte	.LASF292
 6546 16a6 64       		.byte	0x64
 6547 16a7 05       		.byte	0x5
 6548 16a8 8501     		.2byte	0x185
 6549 16aa 08       		.byte	0x8
 6550 16ab 07180000 		.4byte	0x1807
 6551 16af 18       		.uleb128 0x18
 6552 16b0 73313600 		.ascii	"s16\000"
 6553 16b4 05       		.byte	0x5
 6554 16b5 8D01     		.2byte	0x18d
 6555 16b7 11       		.byte	0x11
 6556 16b8 94090000 		.4byte	0x994
 6557 16bc 00       		.byte	0
 6558 16bd 18       		.uleb128 0x18
 6559 16be 73313700 		.ascii	"s17\000"
 6560 16c2 05       		.byte	0x5
 6561 16c3 8E01     		.2byte	0x18e
 6562 16c5 11       		.byte	0x11
 6563 16c6 94090000 		.4byte	0x994
 6564 16ca 04       		.byte	0x4
 6565 16cb 18       		.uleb128 0x18
 6566 16cc 73313800 		.ascii	"s18\000"
 6567 16d0 05       		.byte	0x5
 6568 16d1 8F01     		.2byte	0x18f
 6569 16d3 11       		.byte	0x11
 6570 16d4 94090000 		.4byte	0x994
 6571 16d8 08       		.byte	0x8
 6572 16d9 18       		.uleb128 0x18
 6573 16da 73313900 		.ascii	"s19\000"
 6574 16de 05       		.byte	0x5
 6575 16df 9001     		.2byte	0x190
 6576 16e1 11       		.byte	0x11
 6577 16e2 94090000 		.4byte	0x994
 6578 16e6 0C       		.byte	0xc
 6579 16e7 18       		.uleb128 0x18
 6580 16e8 73323000 		.ascii	"s20\000"
 6581 16ec 05       		.byte	0x5
 6582 16ed 9101     		.2byte	0x191
 6583 16ef 11       		.byte	0x11
 6584 16f0 94090000 		.4byte	0x994
 6585 16f4 10       		.byte	0x10
 6586 16f5 18       		.uleb128 0x18
ARM GAS  /tmp/ccDQUTww.s 			page 117


 6587 16f6 73323100 		.ascii	"s21\000"
 6588 16fa 05       		.byte	0x5
 6589 16fb 9201     		.2byte	0x192
 6590 16fd 11       		.byte	0x11
 6591 16fe 94090000 		.4byte	0x994
 6592 1702 14       		.byte	0x14
 6593 1703 18       		.uleb128 0x18
 6594 1704 73323200 		.ascii	"s22\000"
 6595 1708 05       		.byte	0x5
 6596 1709 9301     		.2byte	0x193
 6597 170b 11       		.byte	0x11
 6598 170c 94090000 		.4byte	0x994
 6599 1710 18       		.byte	0x18
 6600 1711 18       		.uleb128 0x18
 6601 1712 73323300 		.ascii	"s23\000"
 6602 1716 05       		.byte	0x5
 6603 1717 9401     		.2byte	0x194
 6604 1719 11       		.byte	0x11
 6605 171a 94090000 		.4byte	0x994
 6606 171e 1C       		.byte	0x1c
 6607 171f 18       		.uleb128 0x18
 6608 1720 73323400 		.ascii	"s24\000"
 6609 1724 05       		.byte	0x5
 6610 1725 9501     		.2byte	0x195
 6611 1727 11       		.byte	0x11
 6612 1728 94090000 		.4byte	0x994
 6613 172c 20       		.byte	0x20
 6614 172d 18       		.uleb128 0x18
 6615 172e 73323500 		.ascii	"s25\000"
 6616 1732 05       		.byte	0x5
 6617 1733 9601     		.2byte	0x196
 6618 1735 11       		.byte	0x11
 6619 1736 94090000 		.4byte	0x994
 6620 173a 24       		.byte	0x24
 6621 173b 18       		.uleb128 0x18
 6622 173c 73323600 		.ascii	"s26\000"
 6623 1740 05       		.byte	0x5
 6624 1741 9701     		.2byte	0x197
 6625 1743 11       		.byte	0x11
 6626 1744 94090000 		.4byte	0x994
 6627 1748 28       		.byte	0x28
 6628 1749 18       		.uleb128 0x18
 6629 174a 73323700 		.ascii	"s27\000"
 6630 174e 05       		.byte	0x5
 6631 174f 9801     		.2byte	0x198
 6632 1751 11       		.byte	0x11
 6633 1752 94090000 		.4byte	0x994
 6634 1756 2C       		.byte	0x2c
 6635 1757 18       		.uleb128 0x18
 6636 1758 73323800 		.ascii	"s28\000"
 6637 175c 05       		.byte	0x5
 6638 175d 9901     		.2byte	0x199
 6639 175f 11       		.byte	0x11
 6640 1760 94090000 		.4byte	0x994
 6641 1764 30       		.byte	0x30
 6642 1765 18       		.uleb128 0x18
 6643 1766 73323900 		.ascii	"s29\000"
ARM GAS  /tmp/ccDQUTww.s 			page 118


 6644 176a 05       		.byte	0x5
 6645 176b 9A01     		.2byte	0x19a
 6646 176d 11       		.byte	0x11
 6647 176e 94090000 		.4byte	0x994
 6648 1772 34       		.byte	0x34
 6649 1773 18       		.uleb128 0x18
 6650 1774 73333000 		.ascii	"s30\000"
 6651 1778 05       		.byte	0x5
 6652 1779 9B01     		.2byte	0x19b
 6653 177b 11       		.byte	0x11
 6654 177c 94090000 		.4byte	0x994
 6655 1780 38       		.byte	0x38
 6656 1781 18       		.uleb128 0x18
 6657 1782 73333100 		.ascii	"s31\000"
 6658 1786 05       		.byte	0x5
 6659 1787 9C01     		.2byte	0x19c
 6660 1789 11       		.byte	0x11
 6661 178a 94090000 		.4byte	0x994
 6662 178e 3C       		.byte	0x3c
 6663 178f 18       		.uleb128 0x18
 6664 1790 723400   		.ascii	"r4\000"
 6665 1793 05       		.byte	0x5
 6666 1794 9E01     		.2byte	0x19e
 6667 1796 11       		.byte	0x11
 6668 1797 94090000 		.4byte	0x994
 6669 179b 40       		.byte	0x40
 6670 179c 18       		.uleb128 0x18
 6671 179d 723500   		.ascii	"r5\000"
 6672 17a0 05       		.byte	0x5
 6673 17a1 9F01     		.2byte	0x19f
 6674 17a3 11       		.byte	0x11
 6675 17a4 94090000 		.4byte	0x994
 6676 17a8 44       		.byte	0x44
 6677 17a9 18       		.uleb128 0x18
 6678 17aa 723600   		.ascii	"r6\000"
 6679 17ad 05       		.byte	0x5
 6680 17ae A001     		.2byte	0x1a0
 6681 17b0 11       		.byte	0x11
 6682 17b1 94090000 		.4byte	0x994
 6683 17b5 48       		.byte	0x48
 6684 17b6 18       		.uleb128 0x18
 6685 17b7 723700   		.ascii	"r7\000"
 6686 17ba 05       		.byte	0x5
 6687 17bb A101     		.2byte	0x1a1
 6688 17bd 11       		.byte	0x11
 6689 17be 94090000 		.4byte	0x994
 6690 17c2 4C       		.byte	0x4c
 6691 17c3 18       		.uleb128 0x18
 6692 17c4 723800   		.ascii	"r8\000"
 6693 17c7 05       		.byte	0x5
 6694 17c8 A201     		.2byte	0x1a2
 6695 17ca 11       		.byte	0x11
 6696 17cb 94090000 		.4byte	0x994
 6697 17cf 50       		.byte	0x50
 6698 17d0 18       		.uleb128 0x18
 6699 17d1 723900   		.ascii	"r9\000"
 6700 17d4 05       		.byte	0x5
ARM GAS  /tmp/ccDQUTww.s 			page 119


 6701 17d5 A301     		.2byte	0x1a3
 6702 17d7 11       		.byte	0x11
 6703 17d8 94090000 		.4byte	0x994
 6704 17dc 54       		.byte	0x54
 6705 17dd 18       		.uleb128 0x18
 6706 17de 72313000 		.ascii	"r10\000"
 6707 17e2 05       		.byte	0x5
 6708 17e3 A401     		.2byte	0x1a4
 6709 17e5 11       		.byte	0x11
 6710 17e6 94090000 		.4byte	0x994
 6711 17ea 58       		.byte	0x58
 6712 17eb 18       		.uleb128 0x18
 6713 17ec 72313100 		.ascii	"r11\000"
 6714 17f0 05       		.byte	0x5
 6715 17f1 A501     		.2byte	0x1a5
 6716 17f3 11       		.byte	0x11
 6717 17f4 94090000 		.4byte	0x994
 6718 17f8 5C       		.byte	0x5c
 6719 17f9 18       		.uleb128 0x18
 6720 17fa 6C7200   		.ascii	"lr\000"
 6721 17fd 05       		.byte	0x5
 6722 17fe A601     		.2byte	0x1a6
 6723 1800 11       		.byte	0x11
 6724 1801 94090000 		.4byte	0x994
 6725 1805 60       		.byte	0x60
 6726 1806 00       		.byte	0
 6727 1807 16       		.uleb128 0x16
 6728 1808 400F0000 		.4byte	.LASF293
 6729 180c 04       		.byte	0x4
 6730 180d 05       		.byte	0x5
 6731 180e A901     		.2byte	0x1a9
 6732 1810 08       		.byte	0x8
 6733 1811 23180000 		.4byte	0x1823
 6734 1815 18       		.uleb128 0x18
 6735 1816 737000   		.ascii	"sp\000"
 6736 1819 05       		.byte	0x5
 6737 181a AA01     		.2byte	0x1aa
 6738 181c 1A       		.byte	0x1a
 6739 181d 23180000 		.4byte	0x1823
 6740 1821 00       		.byte	0
 6741 1822 00       		.byte	0
 6742 1823 0E       		.uleb128 0xe
 6743 1824 04       		.byte	0x4
 6744 1825 A1160000 		.4byte	0x16a1
 6745 1829 0B       		.uleb128 0xb
 6746 182a 08       		.byte	0x8
 6747 182b 15       		.byte	0x15
 6748 182c 7F       		.byte	0x7f
 6749 182d 05       		.byte	0x5
 6750 182e 4D180000 		.4byte	0x184d
 6751 1832 11       		.uleb128 0x11
 6752 1833 6E747000 		.ascii	"ntp\000"
 6753 1837 15       		.byte	0x15
 6754 1838 83       		.byte	0x83
 6755 1839 1E       		.byte	0x1e
 6756 183a 420B0000 		.4byte	0xb42
 6757 183e 00       		.byte	0
ARM GAS  /tmp/ccDQUTww.s 			page 120


 6758 183f 0C       		.uleb128 0xc
 6759 1840 E4180000 		.4byte	.LASF294
 6760 1844 15       		.byte	0x15
 6761 1845 87       		.byte	0x87
 6762 1846 1E       		.byte	0x1e
 6763 1847 46010000 		.4byte	0x146
 6764 184b 04       		.byte	0x4
 6765 184c 00       		.byte	0
 6766 184d 0B       		.uleb128 0xb
 6767 184e 04       		.byte	0x4
 6768 184f 15       		.byte	0x15
 6769 1850 8C       		.byte	0x8c
 6770 1851 05       		.byte	0x5
 6771 1852 64180000 		.4byte	0x1864
 6772 1856 0C       		.uleb128 0xc
 6773 1857 DF100000 		.4byte	.LASF151
 6774 185b 15       		.byte	0x15
 6775 185c 90       		.byte	0x90
 6776 185d 1E       		.byte	0x1e
 6777 185e AF060000 		.4byte	0x6af
 6778 1862 00       		.byte	0
 6779 1863 00       		.byte	0
 6780 1864 0B       		.uleb128 0xb
 6781 1865 04       		.byte	0x4
 6782 1866 15       		.byte	0x15
 6783 1867 95       		.byte	0x95
 6784 1868 05       		.byte	0x5
 6785 1869 7B180000 		.4byte	0x187b
 6786 186d 0C       		.uleb128 0xc
 6787 186e 64160000 		.4byte	.LASF295
 6788 1872 15       		.byte	0x15
 6789 1873 99       		.byte	0x99
 6790 1874 1E       		.byte	0x1e
 6791 1875 AF060000 		.4byte	0x6af
 6792 1879 00       		.byte	0
 6793 187a 00       		.byte	0
 6794 187b 0B       		.uleb128 0xb
 6795 187c 08       		.byte	0x8
 6796 187d 15       		.byte	0x15
 6797 187e 9E       		.byte	0x9e
 6798 187f 05       		.byte	0x5
 6799 1880 9F180000 		.4byte	0x189f
 6800 1884 11       		.uleb128 0x11
 6801 1885 75703100 		.ascii	"up1\000"
 6802 1889 15       		.byte	0x15
 6803 188a A2       		.byte	0xa2
 6804 188b 1E       		.byte	0x1e
 6805 188c 46010000 		.4byte	0x146
 6806 1890 00       		.byte	0
 6807 1891 11       		.uleb128 0x11
 6808 1892 75703200 		.ascii	"up2\000"
 6809 1896 15       		.byte	0x15
 6810 1897 A6       		.byte	0xa6
 6811 1898 1E       		.byte	0x1e
 6812 1899 46010000 		.4byte	0x146
 6813 189d 04       		.byte	0x4
 6814 189e 00       		.byte	0
ARM GAS  /tmp/ccDQUTww.s 			page 121


 6815 189f 07       		.uleb128 0x7
 6816 18a0 08       		.byte	0x8
 6817 18a1 15       		.byte	0x15
 6818 18a2 7B       		.byte	0x7b
 6819 18a3 03       		.byte	0x3
 6820 18a4 D8180000 		.4byte	0x18d8
 6821 18a8 23       		.uleb128 0x23
 6822 18a9 737700   		.ascii	"sw\000"
 6823 18ac 15       		.byte	0x15
 6824 18ad 88       		.byte	0x88
 6825 18ae 07       		.byte	0x7
 6826 18af 29180000 		.4byte	0x1829
 6827 18b3 23       		.uleb128 0x23
 6828 18b4 69737200 		.ascii	"isr\000"
 6829 18b8 15       		.byte	0x15
 6830 18b9 91       		.byte	0x91
 6831 18ba 07       		.byte	0x7
 6832 18bb 4D180000 		.4byte	0x184d
 6833 18bf 08       		.uleb128 0x8
 6834 18c0 CB130000 		.4byte	.LASF296
 6835 18c4 15       		.byte	0x15
 6836 18c5 9A       		.byte	0x9a
 6837 18c6 07       		.byte	0x7
 6838 18c7 64180000 		.4byte	0x1864
 6839 18cb 08       		.uleb128 0x8
 6840 18cc 561E0000 		.4byte	.LASF297
 6841 18d0 15       		.byte	0x15
 6842 18d1 A7       		.byte	0xa7
 6843 18d2 07       		.byte	0x7
 6844 18d3 7B180000 		.4byte	0x187b
 6845 18d7 00       		.byte	0
 6846 18d8 0B       		.uleb128 0xb
 6847 18d9 10       		.byte	0x10
 6848 18da 15       		.byte	0x15
 6849 18db 68       		.byte	0x68
 6850 18dc 09       		.byte	0x9
 6851 18dd 2A190000 		.4byte	0x192a
 6852 18e1 24       		.uleb128 0x24
 6853 18e2 14070000 		.4byte	.LASF298
 6854 18e6 15       		.byte	0x15
 6855 18e7 6C       		.byte	0x6c
 6856 18e8 19       		.byte	0x19
 6857 18e9 94090000 		.4byte	0x994
 6858 18ed 04       		.byte	0x4
 6859 18ee 03       		.byte	0x3
 6860 18ef 1D       		.byte	0x1d
 6861 18f0 00       		.byte	0
 6862 18f1 24       		.uleb128 0x24
 6863 18f2 5A130000 		.4byte	.LASF153
 6864 18f6 15       		.byte	0x15
 6865 18f7 70       		.byte	0x70
 6866 18f8 19       		.byte	0x19
 6867 18f9 94090000 		.4byte	0x994
 6868 18fd 04       		.byte	0x4
 6869 18fe 05       		.byte	0x5
 6870 18ff 18       		.byte	0x18
 6871 1900 00       		.byte	0
ARM GAS  /tmp/ccDQUTww.s 			page 122


 6872 1901 24       		.uleb128 0x24
 6873 1902 8A020000 		.4byte	.LASF299
 6874 1906 15       		.byte	0x15
 6875 1907 76       		.byte	0x76
 6876 1908 19       		.byte	0x19
 6877 1909 94090000 		.4byte	0x994
 6878 190d 04       		.byte	0x4
 6879 190e 18       		.byte	0x18
 6880 190f 00       		.byte	0
 6881 1910 00       		.byte	0
 6882 1911 0C       		.uleb128 0xc
 6883 1912 5D140000 		.4byte	.LASF300
 6884 1916 15       		.byte	0x15
 6885 1917 7A       		.byte	0x7a
 6886 1918 19       		.byte	0x19
 6887 1919 7E0D0000 		.4byte	0xd7e
 6888 191d 04       		.byte	0x4
 6889 191e 11       		.uleb128 0x11
 6890 191f 7500     		.ascii	"u\000"
 6891 1921 15       		.byte	0x15
 6892 1922 A8       		.byte	0xa8
 6893 1923 05       		.byte	0x5
 6894 1924 9F180000 		.4byte	0x189f
 6895 1928 08       		.byte	0x8
 6896 1929 00       		.byte	0
 6897 192a 03       		.uleb128 0x3
 6898 192b 5F020000 		.4byte	.LASF301
 6899 192f 15       		.byte	0x15
 6900 1930 A9       		.byte	0xa9
 6901 1931 03       		.byte	0x3
 6902 1932 D8180000 		.4byte	0x18d8
 6903 1936 25       		.uleb128 0x25
 6904 1937 0808     		.2byte	0x808
 6905 1939 15       		.byte	0x15
 6906 193a AF       		.byte	0xaf
 6907 193b 09       		.byte	0x9
 6908 193c 75190000 		.4byte	0x1975
 6909 1940 0C       		.uleb128 0xc
 6910 1941 A81C0000 		.4byte	.LASF302
 6911 1945 15       		.byte	0x15
 6912 1946 B3       		.byte	0xb3
 6913 1947 19       		.byte	0x19
 6914 1948 77090000 		.4byte	0x977
 6915 194c 00       		.byte	0
 6916 194d 0C       		.uleb128 0xc
 6917 194e E50A0000 		.4byte	.LASF303
 6918 1952 15       		.byte	0x15
 6919 1953 B7       		.byte	0xb7
 6920 1954 19       		.byte	0x19
 6921 1955 77090000 		.4byte	0x977
 6922 1959 02       		.byte	0x2
 6923 195a 11       		.uleb128 0x11
 6924 195b 70747200 		.ascii	"ptr\000"
 6925 195f 15       		.byte	0x15
 6926 1960 BB       		.byte	0xbb
 6927 1961 1A       		.byte	0x1a
 6928 1962 75190000 		.4byte	0x1975
ARM GAS  /tmp/ccDQUTww.s 			page 123


 6929 1966 04       		.byte	0x4
 6930 1967 0C       		.uleb128 0xc
 6931 1968 6F170000 		.4byte	.LASF304
 6932 196c 15       		.byte	0x15
 6933 196d BF       		.byte	0xbf
 6934 196e 19       		.byte	0x19
 6935 196f 7B190000 		.4byte	0x197b
 6936 1973 08       		.byte	0x8
 6937 1974 00       		.byte	0
 6938 1975 0E       		.uleb128 0xe
 6939 1976 04       		.byte	0x4
 6940 1977 2A190000 		.4byte	0x192a
 6941 197b 09       		.uleb128 0x9
 6942 197c 2A190000 		.4byte	0x192a
 6943 1980 8B190000 		.4byte	0x198b
 6944 1984 0A       		.uleb128 0xa
 6945 1985 3D000000 		.4byte	0x3d
 6946 1989 7F       		.byte	0x7f
 6947 198a 00       		.byte	0
 6948 198b 03       		.uleb128 0x3
 6949 198c 31000000 		.4byte	.LASF305
 6950 1990 15       		.byte	0x15
 6951 1991 C0       		.byte	0xc0
 6952 1992 03       		.byte	0x3
 6953 1993 36190000 		.4byte	0x1936
 6954 1997 0B       		.uleb128 0xb
 6955 1998 04       		.byte	0x4
 6956 1999 16       		.byte	0x16
 6957 199a 38       		.byte	0x38
 6958 199b 09       		.byte	0x9
 6959 199c AE190000 		.4byte	0x19ae
 6960 19a0 0C       		.uleb128 0xc
 6961 19a1 7D1B0000 		.4byte	.LASF306
 6962 19a5 16       		.byte	0x16
 6963 19a6 3C       		.byte	0x3c
 6964 19a7 19       		.byte	0x19
 6965 19a8 C2090000 		.4byte	0x9c2
 6966 19ac 00       		.byte	0
 6967 19ad 00       		.byte	0
 6968 19ae 03       		.uleb128 0x3
 6969 19af 8F050000 		.4byte	.LASF307
 6970 19b3 16       		.byte	0x16
 6971 19b4 3D       		.byte	0x3d
 6972 19b5 03       		.byte	0x3
 6973 19b6 97190000 		.4byte	0x1997
 6974 19ba 07       		.uleb128 0x7
 6975 19bb 04       		.byte	0x4
 6976 19bc 02       		.byte	0x2
 6977 19bd C6       		.byte	0xc6
 6978 19be 03       		.byte	0x3
 6979 19bf 251A0000 		.4byte	0x1a25
 6980 19c3 08       		.uleb128 0x8
 6981 19c4 1B0E0000 		.4byte	.LASF308
 6982 19c8 02       		.byte	0x2
 6983 19c9 CD       		.byte	0xcd
 6984 19ca 19       		.byte	0x19
 6985 19cb FE090000 		.4byte	0x9fe
ARM GAS  /tmp/ccDQUTww.s 			page 124


 6986 19cf 08       		.uleb128 0x8
 6987 19d0 600C0000 		.4byte	.LASF309
 6988 19d4 02       		.byte	0x2
 6989 19d5 D4       		.byte	0xd4
 6990 19d6 19       		.byte	0x19
 6991 19d7 FE090000 		.4byte	0x9fe
 6992 19db 08       		.uleb128 0x8
 6993 19dc E4180000 		.4byte	.LASF294
 6994 19e0 02       		.byte	0x2
 6995 19e1 DB       		.byte	0xdb
 6996 19e2 1A       		.byte	0x1a
 6997 19e3 46010000 		.4byte	0x146
 6998 19e7 08       		.uleb128 0x8
 6999 19e8 5D150000 		.4byte	.LASF310
 7000 19ec 02       		.byte	0x2
 7001 19ed E2       		.byte	0xe2
 7002 19ee 1A       		.byte	0x1a
 7003 19ef 251A0000 		.4byte	0x1a25
 7004 19f3 08       		.uleb128 0x8
 7005 19f4 1D000000 		.4byte	.LASF311
 7006 19f8 02       		.byte	0x2
 7007 19f9 E7       		.byte	0xe7
 7008 19fa 19       		.byte	0x19
 7009 19fb FE090000 		.4byte	0x9fe
 7010 19ff 08       		.uleb128 0x8
 7011 1a00 30010000 		.4byte	.LASF312
 7012 1a04 02       		.byte	0x2
 7013 1a05 F0       		.byte	0xf0
 7014 1a06 1A       		.byte	0x1a
 7015 1a07 531A0000 		.4byte	0x1a53
 7016 1a0b 08       		.uleb128 0x8
 7017 1a0c 2E190000 		.4byte	.LASF313
 7018 1a10 02       		.byte	0x2
 7019 1a11 F9       		.byte	0xf9
 7020 1a12 1A       		.byte	0x1a
 7021 1a13 8E1A0000 		.4byte	0x1a8e
 7022 1a17 26       		.uleb128 0x26
 7023 1a18 1D1C0000 		.4byte	.LASF314
 7024 1a1c 02       		.byte	0x2
 7025 1a1d 0101     		.2byte	0x101
 7026 1a1f 19       		.byte	0x19
 7027 1a20 0A0A0000 		.4byte	0xa0a
 7028 1a24 00       		.byte	0
 7029 1a25 0E       		.uleb128 0xe
 7030 1a26 04       		.byte	0x4
 7031 1a27 360B0000 		.4byte	0xb36
 7032 1a2b 10       		.uleb128 0x10
 7033 1a2c D0130000 		.4byte	.LASF315
 7034 1a30 0C       		.byte	0xc
 7035 1a31 17       		.byte	0x17
 7036 1a32 34       		.byte	0x34
 7037 1a33 10       		.byte	0x10
 7038 1a34 531A0000 		.4byte	0x1a53
 7039 1a38 0C       		.uleb128 0xc
 7040 1a39 3C1B0000 		.4byte	.LASF147
 7041 1a3d 17       		.byte	0x17
 7042 1a3e 35       		.byte	0x35
ARM GAS  /tmp/ccDQUTww.s 			page 125


 7043 1a3f 19       		.byte	0x19
 7044 1a40 6F0B0000 		.4byte	0xb6f
 7045 1a44 00       		.byte	0
 7046 1a45 11       		.uleb128 0x11
 7047 1a46 636E7400 		.ascii	"cnt\000"
 7048 1a4a 17       		.byte	0x17
 7049 1a4b 37       		.byte	0x37
 7050 1a4c 19       		.byte	0x19
 7051 1a4d 220A0000 		.4byte	0xa22
 7052 1a51 08       		.byte	0x8
 7053 1a52 00       		.byte	0
 7054 1a53 0E       		.uleb128 0xe
 7055 1a54 04       		.byte	0x4
 7056 1a55 2B1A0000 		.4byte	0x1a2b
 7057 1a59 10       		.uleb128 0x10
 7058 1a5a 190A0000 		.4byte	.LASF316
 7059 1a5e 10       		.byte	0x10
 7060 1a5f 18       		.byte	0x18
 7061 1a60 39       		.byte	0x39
 7062 1a61 08       		.byte	0x8
 7063 1a62 8E1A0000 		.4byte	0x1a8e
 7064 1a66 0C       		.uleb128 0xc
 7065 1a67 3C1B0000 		.4byte	.LASF147
 7066 1a6b 18       		.byte	0x18
 7067 1a6c 3A       		.byte	0x3a
 7068 1a6d 19       		.byte	0x19
 7069 1a6e 6F0B0000 		.4byte	0xb6f
 7070 1a72 00       		.byte	0
 7071 1a73 0C       		.uleb128 0xc
 7072 1a74 410B0000 		.4byte	.LASF317
 7073 1a78 18       		.byte	0x18
 7074 1a79 3C       		.byte	0x3c
 7075 1a7a 1A       		.byte	0x1a
 7076 1a7b 420B0000 		.4byte	0xb42
 7077 1a7f 08       		.byte	0x8
 7078 1a80 0C       		.uleb128 0xc
 7079 1a81 A8020000 		.4byte	.LASF165
 7080 1a85 18       		.byte	0x18
 7081 1a86 3E       		.byte	0x3e
 7082 1a87 1A       		.byte	0x1a
 7083 1a88 F11B0000 		.4byte	0x1bf1
 7084 1a8c 0C       		.byte	0xc
 7085 1a8d 00       		.byte	0
 7086 1a8e 0E       		.uleb128 0xe
 7087 1a8f 04       		.byte	0x4
 7088 1a90 591A0000 		.4byte	0x1a59
 7089 1a94 0E       		.uleb128 0xe
 7090 1a95 04       		.byte	0x4
 7091 1a96 95160000 		.4byte	0x1695
 7092 1a9a 0E       		.uleb128 0xe
 7093 1a9b 04       		.byte	0x4
 7094 1a9c 2F0C0000 		.4byte	0xc2f
 7095 1aa0 27       		.uleb128 0x27
 7096 1aa1 636800   		.ascii	"ch\000"
 7097 1aa4 02       		.byte	0x2
 7098 1aa5 C701     		.2byte	0x1c7
 7099 1aa7 14       		.byte	0x14
ARM GAS  /tmp/ccDQUTww.s 			page 126


 7100 1aa8 1B0D0000 		.4byte	0xd1b
 7101 1aac 09       		.uleb128 0x9
 7102 1aad 95160000 		.4byte	0x1695
 7103 1ab1 B71A0000 		.4byte	0x1ab7
 7104 1ab5 28       		.uleb128 0x28
 7105 1ab6 00       		.byte	0
 7106 1ab7 1C       		.uleb128 0x1c
 7107 1ab8 040B0000 		.4byte	.LASF318
 7108 1abc 04       		.byte	0x4
 7109 1abd 1701     		.2byte	0x117
 7110 1abf 13       		.byte	0x13
 7111 1ac0 AC1A0000 		.4byte	0x1aac
 7112 1ac4 0B       		.uleb128 0xb
 7113 1ac5 16       		.byte	0x16
 7114 1ac6 19       		.byte	0x19
 7115 1ac7 34       		.byte	0x34
 7116 1ac8 09       		.byte	0x9
 7117 1ac9 B81B0000 		.4byte	0x1bb8
 7118 1acd 0C       		.uleb128 0xc
 7119 1ace AE0B0000 		.4byte	.LASF319
 7120 1ad2 19       		.byte	0x19
 7121 1ad3 35       		.byte	0x35
 7122 1ad4 0D       		.byte	0xd
 7123 1ad5 B81B0000 		.4byte	0x1bb8
 7124 1ad9 00       		.byte	0
 7125 1ada 0C       		.uleb128 0xc
 7126 1adb C5060000 		.4byte	.LASF320
 7127 1adf 19       		.byte	0x19
 7128 1ae0 36       		.byte	0x36
 7129 1ae1 0D       		.byte	0xd
 7130 1ae2 66090000 		.4byte	0x966
 7131 1ae6 04       		.byte	0x4
 7132 1ae7 0C       		.uleb128 0xc
 7133 1ae8 E50A0000 		.4byte	.LASF303
 7134 1aec 19       		.byte	0x19
 7135 1aed 37       		.byte	0x37
 7136 1aee 0D       		.byte	0xd
 7137 1aef 66090000 		.4byte	0x966
 7138 1af3 05       		.byte	0x5
 7139 1af4 0C       		.uleb128 0xc
 7140 1af5 2A200000 		.4byte	.LASF321
 7141 1af9 19       		.byte	0x19
 7142 1afa 38       		.byte	0x38
 7143 1afb 0D       		.byte	0xd
 7144 1afc 77090000 		.4byte	0x977
 7145 1b00 06       		.byte	0x6
 7146 1b01 0C       		.uleb128 0xc
 7147 1b02 480D0000 		.4byte	.LASF322
 7148 1b06 19       		.byte	0x19
 7149 1b07 39       		.byte	0x39
 7150 1b08 0D       		.byte	0xd
 7151 1b09 66090000 		.4byte	0x966
 7152 1b0d 08       		.byte	0x8
 7153 1b0e 0C       		.uleb128 0xc
 7154 1b0f 75040000 		.4byte	.LASF323
 7155 1b13 19       		.byte	0x19
 7156 1b14 3A       		.byte	0x3a
ARM GAS  /tmp/ccDQUTww.s 			page 127


 7157 1b15 0D       		.byte	0xd
 7158 1b16 66090000 		.4byte	0x966
 7159 1b1a 09       		.byte	0x9
 7160 1b1b 0C       		.uleb128 0xc
 7161 1b1c F01B0000 		.4byte	.LASF324
 7162 1b20 19       		.byte	0x19
 7163 1b21 3B       		.byte	0x3b
 7164 1b22 0D       		.byte	0xd
 7165 1b23 66090000 		.4byte	0x966
 7166 1b27 0A       		.byte	0xa
 7167 1b28 0C       		.uleb128 0xc
 7168 1b29 840E0000 		.4byte	.LASF325
 7169 1b2d 19       		.byte	0x19
 7170 1b2e 3C       		.byte	0x3c
 7171 1b2f 0D       		.byte	0xd
 7172 1b30 66090000 		.4byte	0x966
 7173 1b34 0B       		.byte	0xb
 7174 1b35 0C       		.uleb128 0xc
 7175 1b36 CF120000 		.4byte	.LASF326
 7176 1b3a 19       		.byte	0x19
 7177 1b3b 3D       		.byte	0x3d
 7178 1b3c 0D       		.byte	0xd
 7179 1b3d 66090000 		.4byte	0x966
 7180 1b41 0C       		.byte	0xc
 7181 1b42 0C       		.uleb128 0xc
 7182 1b43 261B0000 		.4byte	.LASF327
 7183 1b47 19       		.byte	0x19
 7184 1b48 3E       		.byte	0x3e
 7185 1b49 0D       		.byte	0xd
 7186 1b4a 66090000 		.4byte	0x966
 7187 1b4e 0D       		.byte	0xd
 7188 1b4f 0C       		.uleb128 0xc
 7189 1b50 8B160000 		.4byte	.LASF328
 7190 1b54 19       		.byte	0x19
 7191 1b55 3F       		.byte	0x3f
 7192 1b56 0D       		.byte	0xd
 7193 1b57 66090000 		.4byte	0x966
 7194 1b5b 0E       		.byte	0xe
 7195 1b5c 0C       		.uleb128 0xc
 7196 1b5d FA1C0000 		.4byte	.LASF329
 7197 1b61 19       		.byte	0x19
 7198 1b62 40       		.byte	0x40
 7199 1b63 0D       		.byte	0xd
 7200 1b64 66090000 		.4byte	0x966
 7201 1b68 0F       		.byte	0xf
 7202 1b69 0C       		.uleb128 0xc
 7203 1b6a C0150000 		.4byte	.LASF330
 7204 1b6e 19       		.byte	0x19
 7205 1b6f 41       		.byte	0x41
 7206 1b70 0D       		.byte	0xd
 7207 1b71 66090000 		.4byte	0x966
 7208 1b75 10       		.byte	0x10
 7209 1b76 0C       		.uleb128 0xc
 7210 1b77 0D180000 		.4byte	.LASF331
 7211 1b7b 19       		.byte	0x19
 7212 1b7c 42       		.byte	0x42
 7213 1b7d 0D       		.byte	0xd
ARM GAS  /tmp/ccDQUTww.s 			page 128


 7214 1b7e 66090000 		.4byte	0x966
 7215 1b82 11       		.byte	0x11
 7216 1b83 0C       		.uleb128 0xc
 7217 1b84 F9130000 		.4byte	.LASF332
 7218 1b88 19       		.byte	0x19
 7219 1b89 43       		.byte	0x43
 7220 1b8a 0D       		.byte	0xd
 7221 1b8b 66090000 		.4byte	0x966
 7222 1b8f 12       		.byte	0x12
 7223 1b90 0C       		.uleb128 0xc
 7224 1b91 18130000 		.4byte	.LASF333
 7225 1b95 19       		.byte	0x19
 7226 1b96 44       		.byte	0x44
 7227 1b97 0D       		.byte	0xd
 7228 1b98 66090000 		.4byte	0x966
 7229 1b9c 13       		.byte	0x13
 7230 1b9d 0C       		.uleb128 0xc
 7231 1b9e 0B160000 		.4byte	.LASF334
 7232 1ba2 19       		.byte	0x19
 7233 1ba3 45       		.byte	0x45
 7234 1ba4 0D       		.byte	0xd
 7235 1ba5 66090000 		.4byte	0x966
 7236 1ba9 14       		.byte	0x14
 7237 1baa 0C       		.uleb128 0xc
 7238 1bab B3120000 		.4byte	.LASF335
 7239 1baf 19       		.byte	0x19
 7240 1bb0 46       		.byte	0x46
 7241 1bb1 0D       		.byte	0xd
 7242 1bb2 66090000 		.4byte	0x966
 7243 1bb6 15       		.byte	0x15
 7244 1bb7 00       		.byte	0
 7245 1bb8 09       		.uleb128 0x9
 7246 1bb9 7F060000 		.4byte	0x67f
 7247 1bbd C81B0000 		.4byte	0x1bc8
 7248 1bc1 0A       		.uleb128 0xa
 7249 1bc2 3D000000 		.4byte	0x3d
 7250 1bc6 03       		.byte	0x3
 7251 1bc7 00       		.byte	0
 7252 1bc8 03       		.uleb128 0x3
 7253 1bc9 3A110000 		.4byte	.LASF336
 7254 1bcd 19       		.byte	0x19
 7255 1bce 47       		.byte	0x47
 7256 1bcf 03       		.byte	0x3
 7257 1bd0 C41A0000 		.4byte	0x1ac4
 7258 1bd4 15       		.uleb128 0x15
 7259 1bd5 C81B0000 		.4byte	0x1bc8
 7260 1bd9 20       		.uleb128 0x20
 7261 1bda 8A090000 		.4byte	.LASF337
 7262 1bde 19       		.byte	0x19
 7263 1bdf 6C       		.byte	0x6c
 7264 1be0 1D       		.byte	0x1d
 7265 1be1 D41B0000 		.4byte	0x1bd4
 7266 1be5 03       		.uleb128 0x3
 7267 1be6 631A0000 		.4byte	.LASF338
 7268 1bea 18       		.byte	0x18
 7269 1beb 34       		.byte	0x34
 7270 1bec 19       		.byte	0x19
ARM GAS  /tmp/ccDQUTww.s 			page 129


 7271 1bed 591A0000 		.4byte	0x1a59
 7272 1bf1 0E       		.uleb128 0xe
 7273 1bf2 04       		.byte	0x4
 7274 1bf3 E51B0000 		.4byte	0x1be5
 7275 1bf7 03       		.uleb128 0x3
 7276 1bf8 C1090000 		.4byte	.LASF339
 7277 1bfc 1A       		.byte	0x1a
 7278 1bfd 34       		.byte	0x34
 7279 1bfe 1F       		.byte	0x1f
 7280 1bff 031C0000 		.4byte	0x1c03
 7281 1c03 10       		.uleb128 0x10
 7282 1c04 93200000 		.4byte	.LASF340
 7283 1c08 14       		.byte	0x14
 7284 1c09 1A       		.byte	0x1a
 7285 1c0a 39       		.byte	0x39
 7286 1c0b 08       		.byte	0x8
 7287 1c0c 521C0000 		.4byte	0x1c52
 7288 1c10 0C       		.uleb128 0xc
 7289 1c11 A8020000 		.4byte	.LASF165
 7290 1c15 1A       		.byte	0x1a
 7291 1c16 3A       		.byte	0x3a
 7292 1c17 1A       		.byte	0x1a
 7293 1c18 521C0000 		.4byte	0x1c52
 7294 1c1c 00       		.byte	0
 7295 1c1d 0C       		.uleb128 0xc
 7296 1c1e BF0C0000 		.4byte	.LASF341
 7297 1c22 1A       		.byte	0x1a
 7298 1c23 3D       		.byte	0x3d
 7299 1c24 1A       		.byte	0x1a
 7300 1c25 420B0000 		.4byte	0xb42
 7301 1c29 04       		.byte	0x4
 7302 1c2a 0C       		.uleb128 0xc
 7303 1c2b 38200000 		.4byte	.LASF342
 7304 1c2f 1A       		.byte	0x1a
 7305 1c30 3F       		.byte	0x3f
 7306 1c31 19       		.byte	0x19
 7307 1c32 0A0A0000 		.4byte	0xa0a
 7308 1c36 08       		.byte	0x8
 7309 1c37 0C       		.uleb128 0xc
 7310 1c38 2D210000 		.4byte	.LASF154
 7311 1c3c 1A       		.byte	0x1a
 7312 1c3d 41       		.byte	0x41
 7313 1c3e 19       		.byte	0x19
 7314 1c3f 160A0000 		.4byte	0xa16
 7315 1c43 0C       		.byte	0xc
 7316 1c44 0C       		.uleb128 0xc
 7317 1c45 E0190000 		.4byte	.LASF343
 7318 1c49 1A       		.byte	0x1a
 7319 1c4a 43       		.byte	0x43
 7320 1c4b 19       		.byte	0x19
 7321 1c4c 160A0000 		.4byte	0xa16
 7322 1c50 10       		.byte	0x10
 7323 1c51 00       		.byte	0
 7324 1c52 0E       		.uleb128 0xe
 7325 1c53 04       		.byte	0x4
 7326 1c54 F71B0000 		.4byte	0x1bf7
 7327 1c58 10       		.uleb128 0x10
ARM GAS  /tmp/ccDQUTww.s 			page 130


 7328 1c59 2D1C0000 		.4byte	.LASF344
 7329 1c5d 04       		.byte	0x4
 7330 1c5e 1A       		.byte	0x1a
 7331 1c5f 4A       		.byte	0x4a
 7332 1c60 10       		.byte	0x10
 7333 1c61 731C0000 		.4byte	0x1c73
 7334 1c65 0C       		.uleb128 0xc
 7335 1c66 A8020000 		.4byte	.LASF165
 7336 1c6a 1A       		.byte	0x1a
 7337 1c6b 4B       		.byte	0x4b
 7338 1c6c 1A       		.byte	0x1a
 7339 1c6d 521C0000 		.4byte	0x1c52
 7340 1c71 00       		.byte	0
 7341 1c72 00       		.byte	0
 7342 1c73 03       		.uleb128 0x3
 7343 1c74 C0110000 		.4byte	.LASF345
 7344 1c78 1A       		.byte	0x1a
 7345 1c79 4E       		.byte	0x4e
 7346 1c7a 03       		.byte	0x3
 7347 1c7b 581C0000 		.4byte	0x1c58
 7348 1c7f 05       		.uleb128 0x5
 7349 1c80 01       		.byte	0x1
 7350 1c81 02       		.byte	0x2
 7351 1c82 37010000 		.4byte	.LASF346
 7352 1c86 03       		.uleb128 0x3
 7353 1c87 9A010000 		.4byte	.LASF347
 7354 1c8b 1B       		.byte	0x1b
 7355 1c8c 47       		.byte	0x47
 7356 1c8d 11       		.byte	0x11
 7357 1c8e 921C0000 		.4byte	0x1c92
 7358 1c92 0E       		.uleb128 0xe
 7359 1c93 04       		.byte	0x4
 7360 1c94 981C0000 		.4byte	0x1c98
 7361 1c98 19       		.uleb128 0x19
 7362 1c99 46010000 		.4byte	0x146
 7363 1c9d AC1C0000 		.4byte	0x1cac
 7364 1ca1 1A       		.uleb128 0x1a
 7365 1ca2 2C000000 		.4byte	0x2c
 7366 1ca6 1A       		.uleb128 0x1a
 7367 1ca7 3D000000 		.4byte	0x3d
 7368 1cab 00       		.byte	0
 7369 1cac 0B       		.uleb128 0xb
 7370 1cad 08       		.byte	0x8
 7371 1cae 1B       		.byte	0x1b
 7372 1caf 51       		.byte	0x51
 7373 1cb0 09       		.byte	0x9
 7374 1cb1 D01C0000 		.4byte	0x1cd0
 7375 1cb5 0C       		.uleb128 0xc
 7376 1cb6 5C160000 		.4byte	.LASF348
 7377 1cba 1B       		.byte	0x1b
 7378 1cbb 55       		.byte	0x55
 7379 1cbc 0C       		.byte	0xc
 7380 1cbd D01C0000 		.4byte	0x1cd0
 7381 1cc1 00       		.byte	0
 7382 1cc2 0C       		.uleb128 0xc
 7383 1cc3 3E090000 		.4byte	.LASF349
 7384 1cc7 1B       		.byte	0x1b
ARM GAS  /tmp/ccDQUTww.s 			page 131


 7385 1cc8 59       		.byte	0x59
 7386 1cc9 0C       		.byte	0xc
 7387 1cca D01C0000 		.4byte	0x1cd0
 7388 1cce 04       		.byte	0x4
 7389 1ccf 00       		.byte	0
 7390 1cd0 0E       		.uleb128 0xe
 7391 1cd1 04       		.byte	0x4
 7392 1cd2 66090000 		.4byte	0x966
 7393 1cd6 03       		.uleb128 0x3
 7394 1cd7 E40D0000 		.4byte	.LASF350
 7395 1cdb 1B       		.byte	0x1b
 7396 1cdc 5A       		.byte	0x5a
 7397 1cdd 03       		.byte	0x3
 7398 1cde AC1C0000 		.4byte	0x1cac
 7399 1ce2 20       		.uleb128 0x20
 7400 1ce3 12000000 		.4byte	.LASF351
 7401 1ce7 1B       		.byte	0x1b
 7402 1ce8 75       		.byte	0x75
 7403 1ce9 12       		.byte	0x12
 7404 1cea D61C0000 		.4byte	0x1cd6
 7405 1cee 10       		.uleb128 0x10
 7406 1cef 1E090000 		.4byte	.LASF352
 7407 1cf3 04       		.byte	0x4
 7408 1cf4 1C       		.byte	0x1c
 7409 1cf5 38       		.byte	0x38
 7410 1cf6 08       		.byte	0x8
 7411 1cf7 091D0000 		.4byte	0x1d09
 7412 1cfb 0C       		.uleb128 0xc
 7413 1cfc A8020000 		.4byte	.LASF165
 7414 1d00 1C       		.byte	0x1c
 7415 1d01 39       		.byte	0x39
 7416 1d02 1A       		.byte	0x1a
 7417 1d03 091D0000 		.4byte	0x1d09
 7418 1d07 00       		.byte	0
 7419 1d08 00       		.byte	0
 7420 1d09 0E       		.uleb128 0xe
 7421 1d0a 04       		.byte	0x4
 7422 1d0b EE1C0000 		.4byte	0x1cee
 7423 1d0f 0B       		.uleb128 0xb
 7424 1d10 10       		.byte	0x10
 7425 1d11 1C       		.byte	0x1c
 7426 1d12 40       		.byte	0x40
 7427 1d13 09       		.byte	0x9
 7428 1d14 4D1D0000 		.4byte	0x1d4d
 7429 1d18 0C       		.uleb128 0xc
 7430 1d19 A8020000 		.4byte	.LASF165
 7431 1d1d 1C       		.byte	0x1c
 7432 1d1e 41       		.byte	0x41
 7433 1d1f 1A       		.byte	0x1a
 7434 1d20 091D0000 		.4byte	0x1d09
 7435 1d24 00       		.byte	0
 7436 1d25 0C       		.uleb128 0xc
 7437 1d26 040C0000 		.4byte	.LASF353
 7438 1d2a 1C       		.byte	0x1c
 7439 1d2b 42       		.byte	0x42
 7440 1d2c 19       		.byte	0x19
 7441 1d2d 2C000000 		.4byte	0x2c
ARM GAS  /tmp/ccDQUTww.s 			page 132


 7442 1d31 04       		.byte	0x4
 7443 1d32 0C       		.uleb128 0xc
 7444 1d33 50170000 		.4byte	.LASF354
 7445 1d37 1C       		.byte	0x1c
 7446 1d38 44       		.byte	0x44
 7447 1d39 19       		.byte	0x19
 7448 1d3a 3D000000 		.4byte	0x3d
 7449 1d3e 08       		.byte	0x8
 7450 1d3f 0C       		.uleb128 0xc
 7451 1d40 57010000 		.4byte	.LASF355
 7452 1d44 1C       		.byte	0x1c
 7453 1d45 45       		.byte	0x45
 7454 1d46 19       		.byte	0x19
 7455 1d47 861C0000 		.4byte	0x1c86
 7456 1d4b 0C       		.byte	0xc
 7457 1d4c 00       		.byte	0
 7458 1d4d 03       		.uleb128 0x3
 7459 1d4e BA200000 		.4byte	.LASF356
 7460 1d52 1C       		.byte	0x1c
 7461 1d53 47       		.byte	0x47
 7462 1d54 03       		.byte	0x3
 7463 1d55 0F1D0000 		.4byte	0x1d0f
 7464 1d59 10       		.uleb128 0x10
 7465 1d5a B3020000 		.4byte	.LASF357
 7466 1d5e 10       		.byte	0x10
 7467 1d5f 1D       		.byte	0x1d
 7468 1d60 A9       		.byte	0xa9
 7469 1d61 10       		.byte	0x10
 7470 1d62 8E1D0000 		.4byte	0x1d8e
 7471 1d66 0C       		.uleb128 0xc
 7472 1d67 A8020000 		.4byte	.LASF165
 7473 1d6b 1D       		.byte	0x1d
 7474 1d6c AD       		.byte	0xad
 7475 1d6d 1A       		.byte	0x1a
 7476 1d6e 8E1D0000 		.4byte	0x1d8e
 7477 1d72 00       		.byte	0
 7478 1d73 0C       		.uleb128 0xc
 7479 1d74 14050000 		.4byte	.LASF155
 7480 1d78 1D       		.byte	0x1d
 7481 1d79 B1       		.byte	0xb1
 7482 1d7a 19       		.byte	0x19
 7483 1d7b 2E0A0000 		.4byte	0xa2e
 7484 1d7f 04       		.byte	0x4
 7485 1d80 0C       		.uleb128 0xc
 7486 1d81 DF100000 		.4byte	.LASF151
 7487 1d85 1D       		.byte	0x1d
 7488 1d86 B3       		.byte	0xb3
 7489 1d87 19       		.byte	0x19
 7490 1d88 BD080000 		.4byte	0x8bd
 7491 1d8c 08       		.byte	0x8
 7492 1d8d 00       		.byte	0
 7493 1d8e 0E       		.uleb128 0xe
 7494 1d8f 04       		.byte	0x4
 7495 1d90 591D0000 		.4byte	0x1d59
 7496 1d94 03       		.uleb128 0x3
 7497 1d95 03140000 		.4byte	.LASF358
 7498 1d99 1D       		.byte	0x1d
ARM GAS  /tmp/ccDQUTww.s 			page 133


 7499 1d9a B7       		.byte	0xb7
 7500 1d9b 03       		.byte	0x3
 7501 1d9c 591D0000 		.4byte	0x1d59
 7502 1da0 10       		.uleb128 0x10
 7503 1da1 74060000 		.4byte	.LASF359
 7504 1da5 04       		.byte	0x4
 7505 1da6 1D       		.byte	0x1d
 7506 1da7 BC       		.byte	0xbc
 7507 1da8 10       		.byte	0x10
 7508 1da9 BB1D0000 		.4byte	0x1dbb
 7509 1dad 0C       		.uleb128 0xc
 7510 1dae A8020000 		.4byte	.LASF165
 7511 1db2 1D       		.byte	0x1d
 7512 1db3 BD       		.byte	0xbd
 7513 1db4 1A       		.byte	0x1a
 7514 1db5 BB1D0000 		.4byte	0x1dbb
 7515 1db9 00       		.byte	0
 7516 1dba 00       		.byte	0
 7517 1dbb 0E       		.uleb128 0xe
 7518 1dbc 04       		.byte	0x4
 7519 1dbd 941D0000 		.4byte	0x1d94
 7520 1dc1 03       		.uleb128 0x3
 7521 1dc2 8D0E0000 		.4byte	.LASF360
 7522 1dc6 1D       		.byte	0x1d
 7523 1dc7 BE       		.byte	0xbe
 7524 1dc8 03       		.byte	0x3
 7525 1dc9 A01D0000 		.4byte	0x1da0
 7526 1dcd 16       		.uleb128 0x16
 7527 1dce 77020000 		.4byte	.LASF361
 7528 1dd2 48       		.byte	0x48
 7529 1dd3 1D       		.byte	0x1d
 7530 1dd4 2001     		.2byte	0x120
 7531 1dd6 10       		.byte	0x10
 7532 1dd7 5A1E0000 		.4byte	0x1e5a
 7533 1ddb 18       		.uleb128 0x18
 7534 1ddc 6D747800 		.ascii	"mtx\000"
 7535 1de0 1D       		.byte	0x1d
 7536 1de1 2501     		.2byte	0x125
 7537 1de3 19       		.byte	0x19
 7538 1de4 E51B0000 		.4byte	0x1be5
 7539 1de8 00       		.byte	0
 7540 1de9 17       		.uleb128 0x17
 7541 1dea 8F0A0000 		.4byte	.LASF362
 7542 1dee 1D       		.byte	0x1d
 7543 1def 2C01     		.2byte	0x12c
 7544 1df1 19       		.byte	0x19
 7545 1df2 C11D0000 		.4byte	0x1dc1
 7546 1df6 10       		.byte	0x10
 7547 1df7 17       		.uleb128 0x17
 7548 1df8 11190000 		.4byte	.LASF363
 7549 1dfc 1D       		.byte	0x1d
 7550 1dfd 3001     		.2byte	0x130
 7551 1dff 19       		.byte	0x19
 7552 1e00 4D1D0000 		.4byte	0x1d4d
 7553 1e04 14       		.byte	0x14
 7554 1e05 17       		.uleb128 0x17
 7555 1e06 A7150000 		.4byte	.LASF364
ARM GAS  /tmp/ccDQUTww.s 			page 134


 7556 1e0a 1D       		.byte	0x1d
 7557 1e0b 3501     		.2byte	0x135
 7558 1e0d 19       		.byte	0x19
 7559 1e0e C11D0000 		.4byte	0x1dc1
 7560 1e12 24       		.byte	0x24
 7561 1e13 17       		.uleb128 0x17
 7562 1e14 E81C0000 		.4byte	.LASF365
 7563 1e18 1D       		.byte	0x1d
 7564 1e19 3B01     		.2byte	0x13b
 7565 1e1b 19       		.byte	0x19
 7566 1e1c C11D0000 		.4byte	0x1dc1
 7567 1e20 28       		.byte	0x28
 7568 1e21 17       		.uleb128 0x17
 7569 1e22 AA0A0000 		.4byte	.LASF366
 7570 1e26 1D       		.byte	0x1d
 7571 1e27 3F01     		.2byte	0x13f
 7572 1e29 19       		.byte	0x19
 7573 1e2a 4D1D0000 		.4byte	0x1d4d
 7574 1e2e 2C       		.byte	0x2c
 7575 1e2f 17       		.uleb128 0x17
 7576 1e30 F11C0000 		.4byte	.LASF367
 7577 1e34 1D       		.byte	0x1d
 7578 1e35 4501     		.2byte	0x145
 7579 1e37 19       		.byte	0x19
 7580 1e38 C11D0000 		.4byte	0x1dc1
 7581 1e3c 3C       		.byte	0x3c
 7582 1e3d 17       		.uleb128 0x17
 7583 1e3e 860C0000 		.4byte	.LASF368
 7584 1e42 1D       		.byte	0x1d
 7585 1e43 4B01     		.2byte	0x14b
 7586 1e45 19       		.byte	0x19
 7587 1e46 C11D0000 		.4byte	0x1dc1
 7588 1e4a 40       		.byte	0x40
 7589 1e4b 17       		.uleb128 0x17
 7590 1e4c 410E0000 		.4byte	.LASF369
 7591 1e50 1D       		.byte	0x1d
 7592 1e51 5101     		.2byte	0x151
 7593 1e53 19       		.byte	0x19
 7594 1e54 C11D0000 		.4byte	0x1dc1
 7595 1e58 44       		.byte	0x44
 7596 1e59 00       		.byte	0
 7597 1e5a 06       		.uleb128 0x6
 7598 1e5b 60010000 		.4byte	.LASF370
 7599 1e5f 1D       		.byte	0x1d
 7600 1e60 5301     		.2byte	0x153
 7601 1e62 03       		.byte	0x3
 7602 1e63 CD1D0000 		.4byte	0x1dcd
 7603 1e67 1C       		.uleb128 0x1c
 7604 1e68 1A190000 		.4byte	.LASF371
 7605 1e6c 1D       		.byte	0x1d
 7606 1e6d 5E01     		.2byte	0x15e
 7607 1e6f 1A       		.byte	0x1a
 7608 1e70 5A1E0000 		.4byte	0x1e5a
 7609 1e74 21       		.uleb128 0x21
 7610 1e75 10       		.byte	0x10
 7611 1e76 1E       		.byte	0x1e
 7612 1e77 A201     		.2byte	0x1a2
ARM GAS  /tmp/ccDQUTww.s 			page 135


 7613 1e79 09       		.byte	0x9
 7614 1e7a D31E0000 		.4byte	0x1ed3
 7615 1e7e 17       		.uleb128 0x17
 7616 1e7f 73200000 		.4byte	.LASF372
 7617 1e83 1E       		.byte	0x1e
 7618 1e84 A301     		.2byte	0x1a3
 7619 1e86 1A       		.byte	0x1a
 7620 1e87 D31E0000 		.4byte	0x1ed3
 7621 1e8b 00       		.byte	0
 7622 1e8c 17       		.uleb128 0x17
 7623 1e8d F80D0000 		.4byte	.LASF373
 7624 1e91 1E       		.byte	0x1e
 7625 1e92 A401     		.2byte	0x1a4
 7626 1e94 1A       		.byte	0x1a
 7627 1e95 D91E0000 		.4byte	0x1ed9
 7628 1e99 04       		.byte	0x4
 7629 1e9a 18       		.uleb128 0x18
 7630 1e9b 6D757800 		.ascii	"mux\000"
 7631 1e9f 1E       		.byte	0x1e
 7632 1ea0 A601     		.2byte	0x1a6
 7633 1ea2 1B       		.byte	0x1b
 7634 1ea3 DF1E0000 		.4byte	0x1edf
 7635 1ea7 08       		.byte	0x8
 7636 1ea8 17       		.uleb128 0x17
 7637 1ea9 D10A0000 		.4byte	.LASF374
 7638 1ead 1E       		.byte	0x1e
 7639 1eae AA01     		.2byte	0x1aa
 7640 1eb0 19       		.byte	0x19
 7641 1eb1 66090000 		.4byte	0x966
 7642 1eb5 0C       		.byte	0xc
 7643 1eb6 17       		.uleb128 0x17
 7644 1eb7 591A0000 		.4byte	.LASF375
 7645 1ebb 1E       		.byte	0x1e
 7646 1ebc AC01     		.2byte	0x1ac
 7647 1ebe 19       		.byte	0x19
 7648 1ebf 66090000 		.4byte	0x966
 7649 1ec3 0D       		.byte	0xd
 7650 1ec4 17       		.uleb128 0x17
 7651 1ec5 22040000 		.4byte	.LASF376
 7652 1ec9 1E       		.byte	0x1e
 7653 1eca AD01     		.2byte	0x1ad
 7654 1ecc 19       		.byte	0x19
 7655 1ecd 66090000 		.4byte	0x966
 7656 1ed1 0E       		.byte	0xe
 7657 1ed2 00       		.byte	0
 7658 1ed3 0E       		.uleb128 0xe
 7659 1ed4 04       		.byte	0x4
 7660 1ed5 4A110000 		.4byte	0x114a
 7661 1ed9 0E       		.uleb128 0xe
 7662 1eda 04       		.byte	0x4
 7663 1edb A0090000 		.4byte	0x9a0
 7664 1edf 0E       		.uleb128 0xe
 7665 1ee0 04       		.byte	0x4
 7666 1ee1 02120000 		.4byte	0x1202
 7667 1ee5 06       		.uleb128 0x6
 7668 1ee6 2D100000 		.4byte	.LASF377
 7669 1eea 1E       		.byte	0x1e
ARM GAS  /tmp/ccDQUTww.s 			page 136


 7670 1eeb AE01     		.2byte	0x1ae
 7671 1eed 03       		.byte	0x3
 7672 1eee 741E0000 		.4byte	0x1e74
 7673 1ef2 15       		.uleb128 0x15
 7674 1ef3 E51E0000 		.4byte	0x1ee5
 7675 1ef7 09       		.uleb128 0x9
 7676 1ef8 F21E0000 		.4byte	0x1ef2
 7677 1efc 071F0000 		.4byte	0x1f07
 7678 1f00 0A       		.uleb128 0xa
 7679 1f01 3D000000 		.4byte	0x3d
 7680 1f05 0F       		.byte	0xf
 7681 1f06 00       		.byte	0
 7682 1f07 15       		.uleb128 0x15
 7683 1f08 F71E0000 		.4byte	0x1ef7
 7684 1f0c 1C       		.uleb128 0x1c
 7685 1f0d 5C170000 		.4byte	.LASF378
 7686 1f11 1E       		.byte	0x1e
 7687 1f12 9002     		.2byte	0x290
 7688 1f14 21       		.byte	0x21
 7689 1f15 071F0000 		.4byte	0x1f07
 7690 1f19 0B       		.uleb128 0xb
 7691 1f1a 14       		.byte	0x14
 7692 1f1b 1F       		.byte	0x1f
 7693 1f1c E7       		.byte	0xe7
 7694 1f1d 09       		.byte	0x9
 7695 1f1e 711F0000 		.4byte	0x1f71
 7696 1f22 0C       		.uleb128 0xc
 7697 1f23 9C0F0000 		.4byte	.LASF379
 7698 1f27 1F       		.byte	0x1f
 7699 1f28 E8       		.byte	0xe8
 7700 1f29 1E       		.byte	0x1e
 7701 1f2a 711F0000 		.4byte	0x1f71
 7702 1f2e 00       		.byte	0
 7703 1f2f 0C       		.uleb128 0xc
 7704 1f30 7C0F0000 		.4byte	.LASF380
 7705 1f34 1F       		.byte	0x1f
 7706 1f35 E9       		.byte	0xe9
 7707 1f36 1E       		.byte	0x1e
 7708 1f37 771F0000 		.4byte	0x1f77
 7709 1f3b 04       		.byte	0x4
 7710 1f3c 0C       		.uleb128 0xc
 7711 1f3d D10A0000 		.4byte	.LASF374
 7712 1f41 1F       		.byte	0x1f
 7713 1f42 EA       		.byte	0xea
 7714 1f43 1D       		.byte	0x1d
 7715 1f44 66090000 		.4byte	0x966
 7716 1f48 08       		.byte	0x8
 7717 1f49 11       		.uleb128 0x11
 7718 1f4a 6D757800 		.ascii	"mux\000"
 7719 1f4e 1F       		.byte	0x1f
 7720 1f4f EC       		.byte	0xec
 7721 1f50 1E       		.byte	0x1e
 7722 1f51 DF1E0000 		.4byte	0x1edf
 7723 1f55 0C       		.byte	0xc
 7724 1f56 0C       		.uleb128 0xc
 7725 1f57 591A0000 		.4byte	.LASF375
 7726 1f5b 1F       		.byte	0x1f
ARM GAS  /tmp/ccDQUTww.s 			page 137


 7727 1f5c ED       		.byte	0xed
 7728 1f5d 1D       		.byte	0x1d
 7729 1f5e 66090000 		.4byte	0x966
 7730 1f62 10       		.byte	0x10
 7731 1f63 0C       		.uleb128 0xc
 7732 1f64 22040000 		.4byte	.LASF376
 7733 1f68 1F       		.byte	0x1f
 7734 1f69 EE       		.byte	0xee
 7735 1f6a 1D       		.byte	0x1d
 7736 1f6b 66090000 		.4byte	0x966
 7737 1f6f 11       		.byte	0x11
 7738 1f70 00       		.byte	0
 7739 1f71 0E       		.uleb128 0xe
 7740 1f72 04       		.byte	0x4
 7741 1f73 DC110000 		.4byte	0x11dc
 7742 1f77 0E       		.uleb128 0xe
 7743 1f78 04       		.byte	0x4
 7744 1f79 A8110000 		.4byte	0x11a8
 7745 1f7d 03       		.uleb128 0x3
 7746 1f7e E1150000 		.4byte	.LASF381
 7747 1f82 1F       		.byte	0x1f
 7748 1f83 EF       		.byte	0xef
 7749 1f84 03       		.byte	0x3
 7750 1f85 191F0000 		.4byte	0x1f19
 7751 1f89 15       		.uleb128 0x15
 7752 1f8a 7D1F0000 		.4byte	0x1f7d
 7753 1f8e 09       		.uleb128 0x9
 7754 1f8f 891F0000 		.4byte	0x1f89
 7755 1f93 9E1F0000 		.4byte	0x1f9e
 7756 1f97 0A       		.uleb128 0xa
 7757 1f98 3D000000 		.4byte	0x3d
 7758 1f9c 07       		.byte	0x7
 7759 1f9d 00       		.byte	0
 7760 1f9e 15       		.uleb128 0x15
 7761 1f9f 8E1F0000 		.4byte	0x1f8e
 7762 1fa3 1C       		.uleb128 0x1c
 7763 1fa4 EC160000 		.4byte	.LASF382
 7764 1fa8 1F       		.byte	0x1f
 7765 1fa9 A101     		.2byte	0x1a1
 7766 1fab 22       		.byte	0x22
 7767 1fac 9E1F0000 		.4byte	0x1f9e
 7768 1fb0 21       		.uleb128 0x21
 7769 1fb1 60       		.byte	0x60
 7770 1fb2 20       		.byte	0x20
 7771 1fb3 F601     		.2byte	0x1f6
 7772 1fb5 09       		.byte	0x9
 7773 1fb6 D1200000 		.4byte	0x20d1
 7774 1fba 18       		.uleb128 0x18
 7775 1fbb 43523100 		.ascii	"CR1\000"
 7776 1fbf 20       		.byte	0x20
 7777 1fc0 F701     		.2byte	0x1f7
 7778 1fc2 19       		.byte	0x19
 7779 1fc3 A0090000 		.4byte	0x9a0
 7780 1fc7 00       		.byte	0
 7781 1fc8 18       		.uleb128 0x18
 7782 1fc9 43523200 		.ascii	"CR2\000"
 7783 1fcd 20       		.byte	0x20
ARM GAS  /tmp/ccDQUTww.s 			page 138


 7784 1fce F801     		.2byte	0x1f8
 7785 1fd0 19       		.byte	0x19
 7786 1fd1 A0090000 		.4byte	0x9a0
 7787 1fd5 04       		.byte	0x4
 7788 1fd6 17       		.uleb128 0x17
 7789 1fd7 E31B0000 		.4byte	.LASF383
 7790 1fdb 20       		.byte	0x20
 7791 1fdc F901     		.2byte	0x1f9
 7792 1fde 19       		.byte	0x19
 7793 1fdf A0090000 		.4byte	0x9a0
 7794 1fe3 08       		.byte	0x8
 7795 1fe4 17       		.uleb128 0x17
 7796 1fe5 39090000 		.4byte	.LASF384
 7797 1fe9 20       		.byte	0x20
 7798 1fea FA01     		.2byte	0x1fa
 7799 1fec 19       		.byte	0x19
 7800 1fed A0090000 		.4byte	0x9a0
 7801 1ff1 0C       		.byte	0xc
 7802 1ff2 18       		.uleb128 0x18
 7803 1ff3 535200   		.ascii	"SR\000"
 7804 1ff6 20       		.byte	0x20
 7805 1ff7 FB01     		.2byte	0x1fb
 7806 1ff9 19       		.byte	0x19
 7807 1ffa A0090000 		.4byte	0x9a0
 7808 1ffe 10       		.byte	0x10
 7809 1fff 18       		.uleb128 0x18
 7810 2000 45475200 		.ascii	"EGR\000"
 7811 2004 20       		.byte	0x20
 7812 2005 FC01     		.2byte	0x1fc
 7813 2007 19       		.byte	0x19
 7814 2008 A0090000 		.4byte	0x9a0
 7815 200c 14       		.byte	0x14
 7816 200d 17       		.uleb128 0x17
 7817 200e 3F200000 		.4byte	.LASF385
 7818 2012 20       		.byte	0x20
 7819 2013 FD01     		.2byte	0x1fd
 7820 2015 19       		.byte	0x19
 7821 2016 A0090000 		.4byte	0x9a0
 7822 201a 18       		.byte	0x18
 7823 201b 17       		.uleb128 0x17
 7824 201c 45200000 		.4byte	.LASF386
 7825 2020 20       		.byte	0x20
 7826 2021 FE01     		.2byte	0x1fe
 7827 2023 19       		.byte	0x19
 7828 2024 A0090000 		.4byte	0x9a0
 7829 2028 1C       		.byte	0x1c
 7830 2029 17       		.uleb128 0x17
 7831 202a FE060000 		.4byte	.LASF387
 7832 202e 20       		.byte	0x20
 7833 202f FF01     		.2byte	0x1ff
 7834 2031 19       		.byte	0x19
 7835 2032 A0090000 		.4byte	0x9a0
 7836 2036 20       		.byte	0x20
 7837 2037 18       		.uleb128 0x18
 7838 2038 434E5400 		.ascii	"CNT\000"
 7839 203c 20       		.byte	0x20
 7840 203d 0002     		.2byte	0x200
ARM GAS  /tmp/ccDQUTww.s 			page 139


 7841 203f 19       		.byte	0x19
 7842 2040 A0090000 		.4byte	0x9a0
 7843 2044 24       		.byte	0x24
 7844 2045 18       		.uleb128 0x18
 7845 2046 50534300 		.ascii	"PSC\000"
 7846 204a 20       		.byte	0x20
 7847 204b 0102     		.2byte	0x201
 7848 204d 19       		.byte	0x19
 7849 204e A0090000 		.4byte	0x9a0
 7850 2052 28       		.byte	0x28
 7851 2053 18       		.uleb128 0x18
 7852 2054 41525200 		.ascii	"ARR\000"
 7853 2058 20       		.byte	0x20
 7854 2059 0202     		.2byte	0x202
 7855 205b 19       		.byte	0x19
 7856 205c A0090000 		.4byte	0x9a0
 7857 2060 2C       		.byte	0x2c
 7858 2061 18       		.uleb128 0x18
 7859 2062 52435200 		.ascii	"RCR\000"
 7860 2066 20       		.byte	0x20
 7861 2067 0302     		.2byte	0x203
 7862 2069 19       		.byte	0x19
 7863 206a A0090000 		.4byte	0x9a0
 7864 206e 30       		.byte	0x30
 7865 206f 18       		.uleb128 0x18
 7866 2070 43435200 		.ascii	"CCR\000"
 7867 2074 20       		.byte	0x20
 7868 2075 0402     		.2byte	0x204
 7869 2077 19       		.byte	0x19
 7870 2078 D2100000 		.4byte	0x10d2
 7871 207c 34       		.byte	0x34
 7872 207d 17       		.uleb128 0x17
 7873 207e 47020000 		.4byte	.LASF388
 7874 2082 20       		.byte	0x20
 7875 2083 0502     		.2byte	0x205
 7876 2085 19       		.byte	0x19
 7877 2086 A0090000 		.4byte	0x9a0
 7878 208a 44       		.byte	0x44
 7879 208b 18       		.uleb128 0x18
 7880 208c 44435200 		.ascii	"DCR\000"
 7881 2090 20       		.byte	0x20
 7882 2091 0602     		.2byte	0x206
 7883 2093 19       		.byte	0x19
 7884 2094 A0090000 		.4byte	0x9a0
 7885 2098 48       		.byte	0x48
 7886 2099 17       		.uleb128 0x17
 7887 209a 89130000 		.4byte	.LASF389
 7888 209e 20       		.byte	0x20
 7889 209f 0702     		.2byte	0x207
 7890 20a1 19       		.byte	0x19
 7891 20a2 A0090000 		.4byte	0x9a0
 7892 20a6 4C       		.byte	0x4c
 7893 20a7 18       		.uleb128 0x18
 7894 20a8 4F5200   		.ascii	"OR\000"
 7895 20ab 20       		.byte	0x20
 7896 20ac 0802     		.2byte	0x208
 7897 20ae 19       		.byte	0x19
ARM GAS  /tmp/ccDQUTww.s 			page 140


 7898 20af A0090000 		.4byte	0x9a0
 7899 20b3 50       		.byte	0x50
 7900 20b4 17       		.uleb128 0x17
 7901 20b5 4B200000 		.4byte	.LASF390
 7902 20b9 20       		.byte	0x20
 7903 20ba 0902     		.2byte	0x209
 7904 20bc 19       		.byte	0x19
 7905 20bd A0090000 		.4byte	0x9a0
 7906 20c1 54       		.byte	0x54
 7907 20c2 17       		.uleb128 0x17
 7908 20c3 470B0000 		.4byte	.LASF391
 7909 20c7 20       		.byte	0x20
 7910 20c8 0A02     		.2byte	0x20a
 7911 20ca 19       		.byte	0x19
 7912 20cb E7100000 		.4byte	0x10e7
 7913 20cf 58       		.byte	0x58
 7914 20d0 00       		.byte	0
 7915 20d1 06       		.uleb128 0x6
 7916 20d2 D2080000 		.4byte	.LASF392
 7917 20d6 20       		.byte	0x20
 7918 20d7 0B02     		.2byte	0x20b
 7919 20d9 03       		.byte	0x3
 7920 20da B01F0000 		.4byte	0x1fb0
 7921 20de 19       		.uleb128 0x19
 7922 20df 2C000000 		.4byte	0x2c
 7923 20e3 F7200000 		.4byte	0x20f7
 7924 20e7 1A       		.uleb128 0x1a
 7925 20e8 46010000 		.4byte	0x146
 7926 20ec 1A       		.uleb128 0x1a
 7927 20ed F7200000 		.4byte	0x20f7
 7928 20f1 1A       		.uleb128 0x1a
 7929 20f2 2C000000 		.4byte	0x2c
 7930 20f6 00       		.byte	0
 7931 20f7 0E       		.uleb128 0xe
 7932 20f8 04       		.byte	0x4
 7933 20f9 72090000 		.4byte	0x972
 7934 20fd 0E       		.uleb128 0xe
 7935 20fe 04       		.byte	0x4
 7936 20ff DE200000 		.4byte	0x20de
 7937 2103 19       		.uleb128 0x19
 7938 2104 2C000000 		.4byte	0x2c
 7939 2108 1C210000 		.4byte	0x211c
 7940 210c 1A       		.uleb128 0x1a
 7941 210d 46010000 		.4byte	0x146
 7942 2111 1A       		.uleb128 0x1a
 7943 2112 D01C0000 		.4byte	0x1cd0
 7944 2116 1A       		.uleb128 0x1a
 7945 2117 2C000000 		.4byte	0x2c
 7946 211b 00       		.byte	0
 7947 211c 0E       		.uleb128 0xe
 7948 211d 04       		.byte	0x4
 7949 211e 03210000 		.4byte	0x2103
 7950 2122 19       		.uleb128 0x19
 7951 2123 FE090000 		.4byte	0x9fe
 7952 2127 36210000 		.4byte	0x2136
 7953 212b 1A       		.uleb128 0x1a
 7954 212c 46010000 		.4byte	0x146
ARM GAS  /tmp/ccDQUTww.s 			page 141


 7955 2130 1A       		.uleb128 0x1a
 7956 2131 66090000 		.4byte	0x966
 7957 2135 00       		.byte	0
 7958 2136 0E       		.uleb128 0xe
 7959 2137 04       		.byte	0x4
 7960 2138 22210000 		.4byte	0x2122
 7961 213c 19       		.uleb128 0x19
 7962 213d FE090000 		.4byte	0x9fe
 7963 2141 4B210000 		.4byte	0x214b
 7964 2145 1A       		.uleb128 0x1a
 7965 2146 46010000 		.4byte	0x146
 7966 214a 00       		.byte	0
 7967 214b 0E       		.uleb128 0xe
 7968 214c 04       		.byte	0x4
 7969 214d 3C210000 		.4byte	0x213c
 7970 2151 19       		.uleb128 0x19
 7971 2152 FE090000 		.4byte	0x9fe
 7972 2156 6A210000 		.4byte	0x216a
 7973 215a 1A       		.uleb128 0x1a
 7974 215b 46010000 		.4byte	0x146
 7975 215f 1A       		.uleb128 0x1a
 7976 2160 66090000 		.4byte	0x966
 7977 2164 1A       		.uleb128 0x1a
 7978 2165 8A0D0000 		.4byte	0xd8a
 7979 2169 00       		.byte	0
 7980 216a 0E       		.uleb128 0xe
 7981 216b 04       		.byte	0x4
 7982 216c 51210000 		.4byte	0x2151
 7983 2170 19       		.uleb128 0x19
 7984 2171 FE090000 		.4byte	0x9fe
 7985 2175 84210000 		.4byte	0x2184
 7986 2179 1A       		.uleb128 0x1a
 7987 217a 46010000 		.4byte	0x146
 7988 217e 1A       		.uleb128 0x1a
 7989 217f 8A0D0000 		.4byte	0xd8a
 7990 2183 00       		.byte	0
 7991 2184 0E       		.uleb128 0xe
 7992 2185 04       		.byte	0x4
 7993 2186 70210000 		.4byte	0x2170
 7994 218a 19       		.uleb128 0x19
 7995 218b 2C000000 		.4byte	0x2c
 7996 218f A8210000 		.4byte	0x21a8
 7997 2193 1A       		.uleb128 0x1a
 7998 2194 46010000 		.4byte	0x146
 7999 2198 1A       		.uleb128 0x1a
 8000 2199 F7200000 		.4byte	0x20f7
 8001 219d 1A       		.uleb128 0x1a
 8002 219e 2C000000 		.4byte	0x2c
 8003 21a2 1A       		.uleb128 0x1a
 8004 21a3 8A0D0000 		.4byte	0xd8a
 8005 21a7 00       		.byte	0
 8006 21a8 0E       		.uleb128 0xe
 8007 21a9 04       		.byte	0x4
 8008 21aa 8A210000 		.4byte	0x218a
 8009 21ae 19       		.uleb128 0x19
 8010 21af 2C000000 		.4byte	0x2c
 8011 21b3 CC210000 		.4byte	0x21cc
ARM GAS  /tmp/ccDQUTww.s 			page 142


 8012 21b7 1A       		.uleb128 0x1a
 8013 21b8 46010000 		.4byte	0x146
 8014 21bc 1A       		.uleb128 0x1a
 8015 21bd D01C0000 		.4byte	0x1cd0
 8016 21c1 1A       		.uleb128 0x1a
 8017 21c2 2C000000 		.4byte	0x2c
 8018 21c6 1A       		.uleb128 0x1a
 8019 21c7 8A0D0000 		.4byte	0xd8a
 8020 21cb 00       		.byte	0
 8021 21cc 0E       		.uleb128 0xe
 8022 21cd 04       		.byte	0x4
 8023 21ce AE210000 		.4byte	0x21ae
 8024 21d2 19       		.uleb128 0x19
 8025 21d3 FE090000 		.4byte	0x9fe
 8026 21d7 EB210000 		.4byte	0x21eb
 8027 21db 1A       		.uleb128 0x1a
 8028 21dc 46010000 		.4byte	0x146
 8029 21e0 1A       		.uleb128 0x1a
 8030 21e1 3D000000 		.4byte	0x3d
 8031 21e5 1A       		.uleb128 0x1a
 8032 21e6 46010000 		.4byte	0x146
 8033 21ea 00       		.byte	0
 8034 21eb 0E       		.uleb128 0xe
 8035 21ec 04       		.byte	0x4
 8036 21ed D2210000 		.4byte	0x21d2
 8037 21f1 29       		.uleb128 0x29
 8038 21f2 07       		.byte	0x7
 8039 21f3 01       		.byte	0x1
 8040 21f4 72000000 		.4byte	0x72
 8041 21f8 21       		.byte	0x21
 8042 21f9 28       		.byte	0x28
 8043 21fa 0E       		.byte	0xe
 8044 21fb 36220000 		.4byte	0x2236
 8045 21ff 2A       		.uleb128 0x2a
 8046 2200 EE130000 		.4byte	.LASF393
 8047 2204 00       		.byte	0
 8048 2205 2A       		.uleb128 0x2a
 8049 2206 7A1E0000 		.4byte	.LASF394
 8050 220a 01       		.byte	0x1
 8051 220b 2A       		.uleb128 0x2a
 8052 220c AC090000 		.4byte	.LASF395
 8053 2210 02       		.byte	0x2
 8054 2211 2A       		.uleb128 0x2a
 8055 2212 98180000 		.4byte	.LASF396
 8056 2216 03       		.byte	0x3
 8057 2217 2A       		.uleb128 0x2a
 8058 2218 B81E0000 		.4byte	.LASF397
 8059 221c 04       		.byte	0x4
 8060 221d 2A       		.uleb128 0x2a
 8061 221e 32070000 		.4byte	.LASF398
 8062 2222 05       		.byte	0x5
 8063 2223 2A       		.uleb128 0x2a
 8064 2224 461A0000 		.4byte	.LASF399
 8065 2228 06       		.byte	0x6
 8066 2229 2A       		.uleb128 0x2a
 8067 222a D5150000 		.4byte	.LASF400
 8068 222e 07       		.byte	0x7
ARM GAS  /tmp/ccDQUTww.s 			page 143


 8069 222f 2A       		.uleb128 0x2a
 8070 2230 911E0000 		.4byte	.LASF401
 8071 2234 08       		.byte	0x8
 8072 2235 00       		.byte	0
 8073 2236 03       		.uleb128 0x3
 8074 2237 52140000 		.4byte	.LASF402
 8075 223b 21       		.byte	0x21
 8076 223c 32       		.byte	0x32
 8077 223d 03       		.byte	0x3
 8078 223e F1210000 		.4byte	0x21f1
 8079 2242 0B       		.uleb128 0xb
 8080 2243 08       		.byte	0x8
 8081 2244 21       		.byte	0x21
 8082 2245 37       		.byte	0x37
 8083 2246 09       		.byte	0x9
 8084 2247 66220000 		.4byte	0x2266
 8085 224b 0C       		.uleb128 0xc
 8086 224c CA060000 		.4byte	.LASF403
 8087 2250 21       		.byte	0x21
 8088 2251 38       		.byte	0x38
 8089 2252 11       		.byte	0x11
 8090 2253 94090000 		.4byte	0x994
 8091 2257 00       		.byte	0
 8092 2258 0C       		.uleb128 0xc
 8093 2259 B1190000 		.4byte	.LASF404
 8094 225d 21       		.byte	0x21
 8095 225e 39       		.byte	0x39
 8096 225f 11       		.byte	0x11
 8097 2260 94090000 		.4byte	0x994
 8098 2264 04       		.byte	0x4
 8099 2265 00       		.byte	0
 8100 2266 03       		.uleb128 0x3
 8101 2267 561B0000 		.4byte	.LASF405
 8102 226b 21       		.byte	0x21
 8103 226c 3A       		.byte	0x3a
 8104 226d 03       		.byte	0x3
 8105 226e 42220000 		.4byte	0x2242
 8106 2272 19       		.uleb128 0x19
 8107 2273 7F1C0000 		.4byte	0x1c7f
 8108 2277 81220000 		.4byte	0x2281
 8109 227b 1A       		.uleb128 0x1a
 8110 227c 46010000 		.4byte	0x146
 8111 2280 00       		.byte	0
 8112 2281 0E       		.uleb128 0xe
 8113 2282 04       		.byte	0x4
 8114 2283 72220000 		.4byte	0x2272
 8115 2287 19       		.uleb128 0x19
 8116 2288 7F1C0000 		.4byte	0x1c7f
 8117 228c A5220000 		.4byte	0x22a5
 8118 2290 1A       		.uleb128 0x1a
 8119 2291 46010000 		.4byte	0x146
 8120 2295 1A       		.uleb128 0x1a
 8121 2296 94090000 		.4byte	0x994
 8122 229a 1A       		.uleb128 0x1a
 8123 229b D01C0000 		.4byte	0x1cd0
 8124 229f 1A       		.uleb128 0x1a
 8125 22a0 94090000 		.4byte	0x994
ARM GAS  /tmp/ccDQUTww.s 			page 144


 8126 22a4 00       		.byte	0
 8127 22a5 0E       		.uleb128 0xe
 8128 22a6 04       		.byte	0x4
 8129 22a7 87220000 		.4byte	0x2287
 8130 22ab 19       		.uleb128 0x19
 8131 22ac 7F1C0000 		.4byte	0x1c7f
 8132 22b0 C9220000 		.4byte	0x22c9
 8133 22b4 1A       		.uleb128 0x1a
 8134 22b5 46010000 		.4byte	0x146
 8135 22b9 1A       		.uleb128 0x1a
 8136 22ba 94090000 		.4byte	0x994
 8137 22be 1A       		.uleb128 0x1a
 8138 22bf F7200000 		.4byte	0x20f7
 8139 22c3 1A       		.uleb128 0x1a
 8140 22c4 94090000 		.4byte	0x994
 8141 22c8 00       		.byte	0
 8142 22c9 0E       		.uleb128 0xe
 8143 22ca 04       		.byte	0x4
 8144 22cb AB220000 		.4byte	0x22ab
 8145 22cf 19       		.uleb128 0x19
 8146 22d0 7F1C0000 		.4byte	0x1c7f
 8147 22d4 E3220000 		.4byte	0x22e3
 8148 22d8 1A       		.uleb128 0x1a
 8149 22d9 46010000 		.4byte	0x146
 8150 22dd 1A       		.uleb128 0x1a
 8151 22de E3220000 		.4byte	0x22e3
 8152 22e2 00       		.byte	0
 8153 22e3 0E       		.uleb128 0xe
 8154 22e4 04       		.byte	0x4
 8155 22e5 66220000 		.4byte	0x2266
 8156 22e9 0E       		.uleb128 0xe
 8157 22ea 04       		.byte	0x4
 8158 22eb CF220000 		.4byte	0x22cf
 8159 22ef 03       		.uleb128 0x3
 8160 22f0 90170000 		.4byte	.LASF406
 8161 22f4 22       		.byte	0x22
 8162 22f5 3F       		.byte	0x3f
 8163 22f6 21       		.byte	0x21
 8164 22f7 FB220000 		.4byte	0x22fb
 8165 22fb 10       		.uleb128 0x10
 8166 22fc 160B0000 		.4byte	.LASF407
 8167 2300 38       		.byte	0x38
 8168 2301 22       		.byte	0x22
 8169 2302 4B       		.byte	0x4b
 8170 2303 08       		.byte	0x8
 8171 2304 B1230000 		.4byte	0x23b1
 8172 2308 0C       		.uleb128 0xc
 8173 2309 E7190000 		.4byte	.LASF156
 8174 230d 22       		.byte	0x22
 8175 230e 4F       		.byte	0x4f
 8176 230f 19       		.byte	0x19
 8177 2310 6F0B0000 		.4byte	0xb6f
 8178 2314 00       		.byte	0
 8179 2315 0C       		.uleb128 0xc
 8180 2316 A81C0000 		.4byte	.LASF302
 8181 231a 22       		.byte	0x22
 8182 231b 53       		.byte	0x53
ARM GAS  /tmp/ccDQUTww.s 			page 145


 8183 231c 19       		.byte	0x19
 8184 231d 7F1C0000 		.4byte	0x1c7f
 8185 2321 08       		.byte	0x8
 8186 2322 0C       		.uleb128 0xc
 8187 2323 241C0000 		.4byte	.LASF408
 8188 2327 22       		.byte	0x22
 8189 2328 57       		.byte	0x57
 8190 2329 19       		.byte	0x19
 8191 232a 38000000 		.4byte	0x38
 8192 232e 0C       		.byte	0xc
 8193 232f 0C       		.uleb128 0xc
 8194 2330 4C0B0000 		.4byte	.LASF409
 8195 2334 22       		.byte	0x22
 8196 2335 5B       		.byte	0x5b
 8197 2336 1A       		.byte	0x1a
 8198 2337 D01C0000 		.4byte	0x1cd0
 8199 233b 10       		.byte	0x10
 8200 233c 0C       		.uleb128 0xc
 8201 233d 13010000 		.4byte	.LASF410
 8202 2341 22       		.byte	0x22
 8203 2342 5F       		.byte	0x5f
 8204 2343 1A       		.byte	0x1a
 8205 2344 D01C0000 		.4byte	0x1cd0
 8206 2348 14       		.byte	0x14
 8207 2349 0C       		.uleb128 0xc
 8208 234a A7130000 		.4byte	.LASF411
 8209 234e 22       		.byte	0x22
 8210 234f 63       		.byte	0x63
 8211 2350 1A       		.byte	0x1a
 8212 2351 D01C0000 		.4byte	0x1cd0
 8213 2355 18       		.byte	0x18
 8214 2356 0C       		.uleb128 0xc
 8215 2357 03070000 		.4byte	.LASF412
 8216 235b 22       		.byte	0x22
 8217 235c 6A       		.byte	0x6a
 8218 235d 19       		.byte	0x19
 8219 235e 2C000000 		.4byte	0x2c
 8220 2362 1C       		.byte	0x1c
 8221 2363 11       		.uleb128 0x11
 8222 2364 626E00   		.ascii	"bn\000"
 8223 2367 22       		.byte	0x22
 8224 2368 6E       		.byte	0x6e
 8225 2369 19       		.byte	0x19
 8226 236a 2C000000 		.4byte	0x2c
 8227 236e 20       		.byte	0x20
 8228 236f 0C       		.uleb128 0xc
 8229 2370 E81B0000 		.4byte	.LASF413
 8230 2374 22       		.byte	0x22
 8231 2375 72       		.byte	0x72
 8232 2376 1A       		.byte	0x1a
 8233 2377 D01C0000 		.4byte	0x1cd0
 8234 237b 24       		.byte	0x24
 8235 237c 11       		.uleb128 0x11
 8236 237d 70747200 		.ascii	"ptr\000"
 8237 2381 22       		.byte	0x22
 8238 2382 77       		.byte	0x77
 8239 2383 1A       		.byte	0x1a
ARM GAS  /tmp/ccDQUTww.s 			page 146


 8240 2384 D01C0000 		.4byte	0x1cd0
 8241 2388 28       		.byte	0x28
 8242 2389 11       		.uleb128 0x11
 8243 238a 746F7000 		.ascii	"top\000"
 8244 238e 22       		.byte	0x22
 8245 238f 7B       		.byte	0x7b
 8246 2390 1A       		.byte	0x1a
 8247 2391 D01C0000 		.4byte	0x1cd0
 8248 2395 2C       		.byte	0x2c
 8249 2396 0C       		.uleb128 0xc
 8250 2397 0D100000 		.4byte	.LASF414
 8251 239b 22       		.byte	0x22
 8252 239c 7F       		.byte	0x7f
 8253 239d 19       		.byte	0x19
 8254 239e B1230000 		.4byte	0x23b1
 8255 23a2 30       		.byte	0x30
 8256 23a3 0C       		.uleb128 0xc
 8257 23a4 B30A0000 		.4byte	.LASF415
 8258 23a8 22       		.byte	0x22
 8259 23a9 83       		.byte	0x83
 8260 23aa 1A       		.byte	0x1a
 8261 23ab 46010000 		.4byte	0x146
 8262 23af 34       		.byte	0x34
 8263 23b0 00       		.byte	0
 8264 23b1 03       		.uleb128 0x3
 8265 23b2 5C1C0000 		.4byte	.LASF416
 8266 23b6 22       		.byte	0x22
 8267 23b7 46       		.byte	0x46
 8268 23b8 10       		.byte	0x10
 8269 23b9 BD230000 		.4byte	0x23bd
 8270 23bd 0E       		.uleb128 0xe
 8271 23be 04       		.byte	0x4
 8272 23bf C3230000 		.4byte	0x23c3
 8273 23c3 1B       		.uleb128 0x1b
 8274 23c4 CE230000 		.4byte	0x23ce
 8275 23c8 1A       		.uleb128 0x1a
 8276 23c9 CE230000 		.4byte	0x23ce
 8277 23cd 00       		.byte	0
 8278 23ce 0E       		.uleb128 0xe
 8279 23cf 04       		.byte	0x4
 8280 23d0 EF220000 		.4byte	0x22ef
 8281 23d4 03       		.uleb128 0x3
 8282 23d5 3B080000 		.4byte	.LASF417
 8283 23d9 22       		.byte	0x22
 8284 23da 89       		.byte	0x89
 8285 23db 1C       		.byte	0x1c
 8286 23dc EF220000 		.4byte	0x22ef
 8287 23e0 03       		.uleb128 0x3
 8288 23e1 D30B0000 		.4byte	.LASF418
 8289 23e5 22       		.byte	0x22
 8290 23e6 8E       		.byte	0x8e
 8291 23e7 1C       		.byte	0x1c
 8292 23e8 EF220000 		.4byte	0x22ef
 8293 23ec 03       		.uleb128 0x3
 8294 23ed 7B0C0000 		.4byte	.LASF419
 8295 23f1 23       		.byte	0x23
 8296 23f2 3A       		.byte	0x3a
ARM GAS  /tmp/ccDQUTww.s 			page 147


 8297 23f3 19       		.byte	0x19
 8298 23f4 F8230000 		.4byte	0x23f8
 8299 23f8 10       		.uleb128 0x10
 8300 23f9 700E0000 		.4byte	.LASF420
 8301 23fd 24       		.byte	0x24
 8302 23fe 23       		.byte	0x23
 8303 23ff 4B       		.byte	0x4b
 8304 2400 08       		.byte	0x8
 8305 2401 6E240000 		.4byte	0x246e
 8306 2405 0C       		.uleb128 0xc
 8307 2406 70050000 		.4byte	.LASF421
 8308 240a 23       		.byte	0x23
 8309 240b 4C       		.byte	0x4c
 8310 240c 19       		.byte	0x19
 8311 240d 6F0B0000 		.4byte	0xb6f
 8312 2411 00       		.byte	0
 8313 2412 0C       		.uleb128 0xc
 8314 2413 DE140000 		.4byte	.LASF422
 8315 2417 23       		.byte	0x23
 8316 2418 4D       		.byte	0x4d
 8317 2419 19       		.byte	0x19
 8318 241a 38000000 		.4byte	0x38
 8319 241e 08       		.byte	0x8
 8320 241f 0C       		.uleb128 0xc
 8321 2420 270F0000 		.4byte	.LASF423
 8322 2424 23       		.byte	0x23
 8323 2425 4E       		.byte	0x4e
 8324 2426 1A       		.byte	0x1a
 8325 2427 D01C0000 		.4byte	0x1cd0
 8326 242b 0C       		.byte	0xc
 8327 242c 0C       		.uleb128 0xc
 8328 242d E3040000 		.4byte	.LASF424
 8329 2431 23       		.byte	0x23
 8330 2432 4F       		.byte	0x4f
 8331 2433 1A       		.byte	0x1a
 8332 2434 D01C0000 		.4byte	0x1cd0
 8333 2438 10       		.byte	0x10
 8334 2439 0C       		.uleb128 0xc
 8335 243a B70C0000 		.4byte	.LASF425
 8336 243e 23       		.byte	0x23
 8337 243f 51       		.byte	0x51
 8338 2440 1A       		.byte	0x1a
 8339 2441 D01C0000 		.4byte	0x1cd0
 8340 2445 14       		.byte	0x14
 8341 2446 0C       		.uleb128 0xc
 8342 2447 63150000 		.4byte	.LASF426
 8343 244b 23       		.byte	0x23
 8344 244c 52       		.byte	0x52
 8345 244d 1A       		.byte	0x1a
 8346 244e D01C0000 		.4byte	0x1cd0
 8347 2452 18       		.byte	0x18
 8348 2453 0C       		.uleb128 0xc
 8349 2454 25190000 		.4byte	.LASF427
 8350 2458 23       		.byte	0x23
 8351 2459 53       		.byte	0x53
 8352 245a 19       		.byte	0x19
 8353 245b 6E240000 		.4byte	0x246e
ARM GAS  /tmp/ccDQUTww.s 			page 148


 8354 245f 1C       		.byte	0x1c
 8355 2460 0C       		.uleb128 0xc
 8356 2461 E5160000 		.4byte	.LASF428
 8357 2465 23       		.byte	0x23
 8358 2466 54       		.byte	0x54
 8359 2467 1A       		.byte	0x1a
 8360 2468 46010000 		.4byte	0x146
 8361 246c 20       		.byte	0x20
 8362 246d 00       		.byte	0
 8363 246e 03       		.uleb128 0x3
 8364 246f B8040000 		.4byte	.LASF429
 8365 2473 23       		.byte	0x23
 8366 2474 41       		.byte	0x41
 8367 2475 10       		.byte	0x10
 8368 2476 7A240000 		.4byte	0x247a
 8369 247a 0E       		.uleb128 0xe
 8370 247b 04       		.byte	0x4
 8371 247c 80240000 		.4byte	0x2480
 8372 2480 1B       		.uleb128 0x1b
 8373 2481 8B240000 		.4byte	0x248b
 8374 2485 1A       		.uleb128 0x1a
 8375 2486 8B240000 		.4byte	0x248b
 8376 248a 00       		.byte	0
 8377 248b 0E       		.uleb128 0xe
 8378 248c 04       		.byte	0x4
 8379 248d EC230000 		.4byte	0x23ec
 8380 2491 03       		.uleb128 0x3
 8381 2492 A0050000 		.4byte	.LASF430
 8382 2496 23       		.byte	0x23
 8383 2497 61       		.byte	0x61
 8384 2498 14       		.byte	0x14
 8385 2499 EC230000 		.4byte	0x23ec
 8386 249d 03       		.uleb128 0x3
 8387 249e DB200000 		.4byte	.LASF431
 8388 24a2 23       		.byte	0x23
 8389 24a3 6D       		.byte	0x6d
 8390 24a4 14       		.byte	0x14
 8391 24a5 EC230000 		.4byte	0x23ec
 8392 24a9 0B       		.uleb128 0xb
 8393 24aa 04       		.byte	0x4
 8394 24ab 24       		.byte	0x24
 8395 24ac 5B       		.byte	0x5b
 8396 24ad 05       		.byte	0x5
 8397 24ae CD240000 		.4byte	0x24cd
 8398 24b2 11       		.uleb128 0x11
 8399 24b3 73657400 		.ascii	"set\000"
 8400 24b7 24       		.byte	0x24
 8401 24b8 5C       		.byte	0x5c
 8402 24b9 19       		.byte	0x19
 8403 24ba 77090000 		.4byte	0x977
 8404 24be 00       		.byte	0
 8405 24bf 0C       		.uleb128 0xc
 8406 24c0 701A0000 		.4byte	.LASF432
 8407 24c4 24       		.byte	0x24
 8408 24c5 5D       		.byte	0x5d
 8409 24c6 19       		.byte	0x19
 8410 24c7 77090000 		.4byte	0x977
ARM GAS  /tmp/ccDQUTww.s 			page 149


 8411 24cb 02       		.byte	0x2
 8412 24cc 00       		.byte	0
 8413 24cd 07       		.uleb128 0x7
 8414 24ce 04       		.byte	0x4
 8415 24cf 24       		.byte	0x24
 8416 24d0 59       		.byte	0x59
 8417 24d1 0C       		.byte	0xc
 8418 24d2 EB240000 		.4byte	0x24eb
 8419 24d6 23       		.uleb128 0x23
 8420 24d7 5700     		.ascii	"W\000"
 8421 24d9 24       		.byte	0x24
 8422 24da 5A       		.byte	0x5a
 8423 24db 19       		.byte	0x19
 8424 24dc 94090000 		.4byte	0x994
 8425 24e0 23       		.uleb128 0x23
 8426 24e1 4800     		.ascii	"H\000"
 8427 24e3 24       		.byte	0x24
 8428 24e4 5E       		.byte	0x5e
 8429 24e5 07       		.byte	0x7
 8430 24e6 A9240000 		.4byte	0x24a9
 8431 24ea 00       		.byte	0
 8432 24eb 04       		.uleb128 0x4
 8433 24ec CD240000 		.4byte	0x24cd
 8434 24f0 0B       		.uleb128 0xb
 8435 24f1 28       		.byte	0x28
 8436 24f2 24       		.byte	0x24
 8437 24f3 51       		.byte	0x51
 8438 24f4 09       		.byte	0x9
 8439 24f5 7C250000 		.4byte	0x257c
 8440 24f9 0C       		.uleb128 0xc
 8441 24fa 7C1A0000 		.4byte	.LASF433
 8442 24fe 24       		.byte	0x24
 8443 24ff 53       		.byte	0x53
 8444 2500 19       		.byte	0x19
 8445 2501 A0090000 		.4byte	0x9a0
 8446 2505 00       		.byte	0
 8447 2506 0C       		.uleb128 0xc
 8448 2507 A4030000 		.4byte	.LASF434
 8449 250b 24       		.byte	0x24
 8450 250c 54       		.byte	0x54
 8451 250d 19       		.byte	0x19
 8452 250e A0090000 		.4byte	0x9a0
 8453 2512 04       		.byte	0x4
 8454 2513 0C       		.uleb128 0xc
 8455 2514 E90C0000 		.4byte	.LASF435
 8456 2518 24       		.byte	0x24
 8457 2519 55       		.byte	0x55
 8458 251a 19       		.byte	0x19
 8459 251b A0090000 		.4byte	0x9a0
 8460 251f 08       		.byte	0x8
 8461 2520 0C       		.uleb128 0xc
 8462 2521 FD190000 		.4byte	.LASF436
 8463 2525 24       		.byte	0x24
 8464 2526 56       		.byte	0x56
 8465 2527 19       		.byte	0x19
 8466 2528 A0090000 		.4byte	0x9a0
 8467 252c 0C       		.byte	0xc
ARM GAS  /tmp/ccDQUTww.s 			page 150


 8468 252d 11       		.uleb128 0x11
 8469 252e 49445200 		.ascii	"IDR\000"
 8470 2532 24       		.byte	0x24
 8471 2533 57       		.byte	0x57
 8472 2534 19       		.byte	0x19
 8473 2535 A0090000 		.4byte	0x9a0
 8474 2539 10       		.byte	0x10
 8475 253a 11       		.uleb128 0x11
 8476 253b 4F445200 		.ascii	"ODR\000"
 8477 253f 24       		.byte	0x24
 8478 2540 58       		.byte	0x58
 8479 2541 19       		.byte	0x19
 8480 2542 A0090000 		.4byte	0x9a0
 8481 2546 14       		.byte	0x14
 8482 2547 0C       		.uleb128 0xc
 8483 2548 28100000 		.4byte	.LASF437
 8484 254c 24       		.byte	0x24
 8485 254d 5F       		.byte	0x5f
 8486 254e 05       		.byte	0x5
 8487 254f EB240000 		.4byte	0x24eb
 8488 2553 18       		.byte	0x18
 8489 2554 0C       		.uleb128 0xc
 8490 2555 C9100000 		.4byte	.LASF438
 8491 2559 24       		.byte	0x24
 8492 255a 60       		.byte	0x60
 8493 255b 19       		.byte	0x19
 8494 255c A0090000 		.4byte	0x9a0
 8495 2560 1C       		.byte	0x1c
 8496 2561 0C       		.uleb128 0xc
 8497 2562 08180000 		.4byte	.LASF439
 8498 2566 24       		.byte	0x24
 8499 2567 61       		.byte	0x61
 8500 2568 19       		.byte	0x19
 8501 2569 A0090000 		.4byte	0x9a0
 8502 256d 20       		.byte	0x20
 8503 256e 0C       		.uleb128 0xc
 8504 256f 03180000 		.4byte	.LASF440
 8505 2573 24       		.byte	0x24
 8506 2574 62       		.byte	0x62
 8507 2575 19       		.byte	0x19
 8508 2576 A0090000 		.4byte	0x9a0
 8509 257a 24       		.byte	0x24
 8510 257b 00       		.byte	0
 8511 257c 03       		.uleb128 0x3
 8512 257d 0E0E0000 		.4byte	.LASF441
 8513 2581 24       		.byte	0x24
 8514 2582 63       		.byte	0x63
 8515 2583 03       		.byte	0x3
 8516 2584 F0240000 		.4byte	0x24f0
 8517 2588 03       		.uleb128 0x3
 8518 2589 E8140000 		.4byte	.LASF442
 8519 258d 25       		.byte	0x25
 8520 258e D9       		.byte	0xd9
 8521 258f 18       		.byte	0x18
 8522 2590 94250000 		.4byte	0x2594
 8523 2594 0E       		.uleb128 0xe
 8524 2595 04       		.byte	0x4
ARM GAS  /tmp/ccDQUTww.s 			page 151


 8525 2596 7C250000 		.4byte	0x257c
 8526 259a 29       		.uleb128 0x29
 8527 259b 07       		.byte	0x7
 8528 259c 01       		.byte	0x1
 8529 259d 72000000 		.4byte	0x72
 8530 25a1 26       		.byte	0x26
 8531 25a2 46       		.byte	0x46
 8532 25a3 0E       		.byte	0xe
 8533 25a4 CD250000 		.4byte	0x25cd
 8534 25a8 2A       		.uleb128 0x2a
 8535 25a9 D8070000 		.4byte	.LASF443
 8536 25ad 00       		.byte	0
 8537 25ae 2A       		.uleb128 0x2a
 8538 25af 7B120000 		.4byte	.LASF444
 8539 25b3 01       		.byte	0x1
 8540 25b4 2A       		.uleb128 0x2a
 8541 25b5 0F060000 		.4byte	.LASF445
 8542 25b9 02       		.byte	0x2
 8543 25ba 2A       		.uleb128 0x2a
 8544 25bb 0C200000 		.4byte	.LASF446
 8545 25bf 03       		.byte	0x3
 8546 25c0 2A       		.uleb128 0x2a
 8547 25c1 34060000 		.4byte	.LASF447
 8548 25c5 04       		.byte	0x4
 8549 25c6 2A       		.uleb128 0x2a
 8550 25c7 E00F0000 		.4byte	.LASF448
 8551 25cb 05       		.byte	0x5
 8552 25cc 00       		.byte	0
 8553 25cd 03       		.uleb128 0x3
 8554 25ce C2040000 		.4byte	.LASF449
 8555 25d2 26       		.byte	0x26
 8556 25d3 4D       		.byte	0x4d
 8557 25d4 03       		.byte	0x3
 8558 25d5 9A250000 		.4byte	0x259a
 8559 25d9 03       		.uleb128 0x3
 8560 25da 7C0D0000 		.4byte	.LASF450
 8561 25de 26       		.byte	0x26
 8562 25df 52       		.byte	0x52
 8563 25e0 1F       		.byte	0x1f
 8564 25e1 E5250000 		.4byte	0x25e5
 8565 25e5 10       		.uleb128 0x10
 8566 25e6 F9180000 		.4byte	.LASF451
 8567 25ea 38       		.byte	0x38
 8568 25eb 26       		.byte	0x26
 8569 25ec A0       		.byte	0xa0
 8570 25ed 08       		.byte	0x8
 8571 25ee 82260000 		.4byte	0x2682
 8572 25f2 0C       		.uleb128 0xc
 8573 25f3 5A130000 		.4byte	.LASF153
 8574 25f7 26       		.byte	0x26
 8575 25f8 A4       		.byte	0xa4
 8576 25f9 1D       		.byte	0x1d
 8577 25fa CD250000 		.4byte	0x25cd
 8578 25fe 00       		.byte	0
 8579 25ff 0C       		.uleb128 0xc
 8580 2600 68180000 		.4byte	.LASF452
 8581 2604 26       		.byte	0x26
ARM GAS  /tmp/ccDQUTww.s 			page 152


 8582 2605 A8       		.byte	0xa8
 8583 2606 1E       		.byte	0x1e
 8584 2607 7C280000 		.4byte	0x287c
 8585 260b 04       		.byte	0x4
 8586 260c 0C       		.uleb128 0xc
 8587 260d 20020000 		.4byte	.LASF453
 8588 2611 26       		.byte	0x26
 8589 2612 AC       		.byte	0xac
 8590 2613 1E       		.byte	0x1e
 8591 2614 82280000 		.4byte	0x2882
 8592 2618 08       		.byte	0x8
 8593 2619 0C       		.uleb128 0xc
 8594 261a 23160000 		.4byte	.LASF454
 8595 261e 26       		.byte	0x26
 8596 261f B0       		.byte	0xb0
 8597 2620 1D       		.byte	0x1d
 8598 2621 2C000000 		.4byte	0x2c
 8599 2625 0C       		.byte	0xc
 8600 2626 0C       		.uleb128 0xc
 8601 2627 131B0000 		.4byte	.LASF455
 8602 262b 26       		.byte	0x26
 8603 262c B4       		.byte	0xb4
 8604 262d 1E       		.byte	0x1e
 8605 262e 88280000 		.4byte	0x2888
 8606 2632 10       		.byte	0x10
 8607 2633 0C       		.uleb128 0xc
 8608 2634 AD060000 		.4byte	.LASF456
 8609 2638 26       		.byte	0x26
 8610 2639 B9       		.byte	0xb9
 8611 263a 1D       		.byte	0x1d
 8612 263b 360B0000 		.4byte	0xb36
 8613 263f 14       		.byte	0x14
 8614 2640 0C       		.uleb128 0xc
 8615 2641 DF0A0000 		.4byte	.LASF457
 8616 2645 26       		.byte	0x26
 8617 2646 BF       		.byte	0xbf
 8618 2647 1D       		.byte	0x1d
 8619 2648 E51B0000 		.4byte	0x1be5
 8620 264c 18       		.byte	0x18
 8621 264d 0C       		.uleb128 0xc
 8622 264e CE0B0000 		.4byte	.LASF458
 8623 2652 26       		.byte	0x26
 8624 2653 C5       		.byte	0xc5
 8625 2654 03       		.byte	0x3
 8626 2655 8E280000 		.4byte	0x288e
 8627 2659 28       		.byte	0x28
 8628 265a 0C       		.uleb128 0xc
 8629 265b C10B0000 		.4byte	.LASF459
 8630 265f 26       		.byte	0x26
 8631 2660 C5       		.byte	0xc5
 8632 2661 03       		.byte	0x3
 8633 2662 94280000 		.4byte	0x2894
 8634 2666 2C       		.byte	0x2c
 8635 2667 0C       		.uleb128 0xc
 8636 2668 281A0000 		.4byte	.LASF460
 8637 266c 26       		.byte	0x26
 8638 266d C5       		.byte	0xc5
ARM GAS  /tmp/ccDQUTww.s 			page 153


 8639 266e 03       		.byte	0x3
 8640 266f 1D280000 		.4byte	0x281d
 8641 2673 30       		.byte	0x30
 8642 2674 0C       		.uleb128 0xc
 8643 2675 30150000 		.4byte	.LASF461
 8644 2679 26       		.byte	0x26
 8645 267a C5       		.byte	0xc5
 8646 267b 03       		.byte	0x3
 8647 267c 94090000 		.4byte	0x994
 8648 2680 34       		.byte	0x34
 8649 2681 00       		.byte	0
 8650 2682 03       		.uleb128 0x3
 8651 2683 940D0000 		.4byte	.LASF462
 8652 2687 26       		.byte	0x26
 8653 2688 57       		.byte	0x57
 8654 2689 1F       		.byte	0x1f
 8655 268a 93260000 		.4byte	0x2693
 8656 268e 15       		.uleb128 0x15
 8657 268f 82260000 		.4byte	0x2682
 8658 2693 10       		.uleb128 0x10
 8659 2694 8F060000 		.4byte	.LASF463
 8660 2698 08       		.byte	0x8
 8661 2699 26       		.byte	0x26
 8662 269a 98       		.byte	0x98
 8663 269b 08       		.byte	0x8
 8664 269c BB260000 		.4byte	0x26bb
 8665 26a0 0C       		.uleb128 0xc
 8666 26a1 5F060000 		.4byte	.LASF464
 8667 26a5 26       		.byte	0x26
 8668 26a6 9A       		.byte	0x9a
 8669 26a7 03       		.byte	0x3
 8670 26a8 94090000 		.4byte	0x994
 8671 26ac 00       		.byte	0
 8672 26ad 0C       		.uleb128 0xc
 8673 26ae 87200000 		.4byte	.LASF465
 8674 26b2 26       		.byte	0x26
 8675 26b3 9A       		.byte	0x9a
 8676 26b4 03       		.byte	0x3
 8677 26b5 94090000 		.4byte	0x994
 8678 26b9 04       		.byte	0x4
 8679 26ba 00       		.byte	0
 8680 26bb 03       		.uleb128 0x3
 8681 26bc AE050000 		.4byte	.LASF466
 8682 26c0 26       		.byte	0x26
 8683 26c1 61       		.byte	0x61
 8684 26c2 2C       		.byte	0x2c
 8685 26c3 CC260000 		.4byte	0x26cc
 8686 26c7 15       		.uleb128 0x15
 8687 26c8 BB260000 		.4byte	0x26bb
 8688 26cc 10       		.uleb128 0x10
 8689 26cd 95100000 		.4byte	.LASF467
 8690 26d1 50       		.byte	0x50
 8691 26d2 26       		.byte	0x26
 8692 26d3 80       		.byte	0x80
 8693 26d4 08       		.byte	0x8
 8694 26d5 AA270000 		.4byte	0x27aa
 8695 26d9 0C       		.uleb128 0xc
ARM GAS  /tmp/ccDQUTww.s 			page 154


 8696 26da 701D0000 		.4byte	.LASF468
 8697 26de 26       		.byte	0x26
 8698 26df 84       		.byte	0x84
 8699 26e0 1D       		.byte	0x1d
 8700 26e1 7F1C0000 		.4byte	0x1c7f
 8701 26e5 00       		.byte	0
 8702 26e6 0C       		.uleb128 0xc
 8703 26e7 340E0000 		.4byte	.LASF469
 8704 26eb 26       		.byte	0x26
 8705 26ec 88       		.byte	0x88
 8706 26ed 1D       		.byte	0x1d
 8707 26ee B7270000 		.4byte	0x27b7
 8708 26f2 04       		.byte	0x4
 8709 26f3 0C       		.uleb128 0xc
 8710 26f4 8B080000 		.4byte	.LASF470
 8711 26f8 26       		.byte	0x26
 8712 26f9 8C       		.byte	0x8c
 8713 26fa 1D       		.byte	0x1d
 8714 26fb 37280000 		.4byte	0x2837
 8715 26ff 08       		.byte	0x8
 8716 2700 0C       		.uleb128 0xc
 8717 2701 AF1E0000 		.4byte	.LASF471
 8718 2705 26       		.byte	0x26
 8719 2706 90       		.byte	0x90
 8720 2707 1D       		.byte	0x1d
 8721 2708 5A280000 		.4byte	0x285a
 8722 270c 0C       		.byte	0xc
 8723 270d 0C       		.uleb128 0xc
 8724 270e 84130000 		.4byte	.LASF472
 8725 2712 26       		.byte	0x26
 8726 2713 92       		.byte	0x92
 8727 2714 03       		.byte	0x3
 8728 2715 94090000 		.4byte	0x994
 8729 2719 10       		.byte	0x10
 8730 271a 0C       		.uleb128 0xc
 8731 271b D31D0000 		.4byte	.LASF473
 8732 271f 26       		.byte	0x26
 8733 2720 92       		.byte	0x92
 8734 2721 03       		.byte	0x3
 8735 2722 94090000 		.4byte	0x994
 8736 2726 14       		.byte	0x14
 8737 2727 11       		.uleb128 0x11
 8738 2728 63637200 		.ascii	"ccr\000"
 8739 272c 26       		.byte	0x26
 8740 272d 92       		.byte	0x92
 8741 272e 03       		.byte	0x3
 8742 272f 94090000 		.4byte	0x994
 8743 2733 18       		.byte	0x18
 8744 2734 0C       		.uleb128 0xc
 8745 2735 B8100000 		.4byte	.LASF474
 8746 2739 26       		.byte	0x26
 8747 273a 92       		.byte	0x92
 8748 273b 03       		.byte	0x3
 8749 273c 94090000 		.4byte	0x994
 8750 2740 1C       		.byte	0x1c
 8751 2741 0C       		.uleb128 0xc
 8752 2742 F40E0000 		.4byte	.LASF475
ARM GAS  /tmp/ccDQUTww.s 			page 155


 8753 2746 26       		.byte	0x26
 8754 2747 92       		.byte	0x92
 8755 2748 03       		.byte	0x3
 8756 2749 94090000 		.4byte	0x994
 8757 274d 20       		.byte	0x20
 8758 274e 0C       		.uleb128 0xc
 8759 274f 4B110000 		.4byte	.LASF476
 8760 2753 26       		.byte	0x26
 8761 2754 92       		.byte	0x92
 8762 2755 03       		.byte	0x3
 8763 2756 94090000 		.4byte	0x994
 8764 275a 24       		.byte	0x24
 8765 275b 0C       		.uleb128 0xc
 8766 275c F90E0000 		.4byte	.LASF477
 8767 2760 26       		.byte	0x26
 8768 2761 92       		.byte	0x92
 8769 2762 03       		.byte	0x3
 8770 2763 94090000 		.4byte	0x994
 8771 2767 28       		.byte	0x28
 8772 2768 0C       		.uleb128 0xc
 8773 2769 50110000 		.4byte	.LASF478
 8774 276d 26       		.byte	0x26
 8775 276e 92       		.byte	0x92
 8776 276f 03       		.byte	0x3
 8777 2770 94090000 		.4byte	0x994
 8778 2774 2C       		.byte	0x2c
 8779 2775 0C       		.uleb128 0xc
 8780 2776 FE0E0000 		.4byte	.LASF479
 8781 277a 26       		.byte	0x26
 8782 277b 92       		.byte	0x92
 8783 277c 03       		.byte	0x3
 8784 277d 94090000 		.4byte	0x994
 8785 2781 30       		.byte	0x30
 8786 2782 0C       		.uleb128 0xc
 8787 2783 55110000 		.4byte	.LASF480
 8788 2787 26       		.byte	0x26
 8789 2788 92       		.byte	0x92
 8790 2789 03       		.byte	0x3
 8791 278a 94090000 		.4byte	0x994
 8792 278e 34       		.byte	0x34
 8793 278f 0C       		.uleb128 0xc
 8794 2790 F8120000 		.4byte	.LASF481
 8795 2794 26       		.byte	0x26
 8796 2795 92       		.byte	0x92
 8797 2796 03       		.byte	0x3
 8798 2797 960D0000 		.4byte	0xd96
 8799 279b 38       		.byte	0x38
 8800 279c 11       		.uleb128 0x11
 8801 279d 73717200 		.ascii	"sqr\000"
 8802 27a1 26       		.byte	0x26
 8803 27a2 92       		.byte	0x92
 8804 27a3 03       		.byte	0x3
 8805 27a4 47100000 		.4byte	0x1047
 8806 27a8 40       		.byte	0x40
 8807 27a9 00       		.byte	0
 8808 27aa 06       		.uleb128 0x6
 8809 27ab 110F0000 		.4byte	.LASF482
ARM GAS  /tmp/ccDQUTww.s 			page 156


 8810 27af 27       		.byte	0x27
 8811 27b0 EE01     		.2byte	0x1ee
 8812 27b2 12       		.byte	0x12
 8813 27b3 77090000 		.4byte	0x977
 8814 27b7 06       		.uleb128 0x6
 8815 27b8 C8180000 		.4byte	.LASF483
 8816 27bc 27       		.byte	0x27
 8817 27bd F601     		.2byte	0x1f6
 8818 27bf 12       		.byte	0x12
 8819 27c0 94090000 		.4byte	0x994
 8820 27c4 2B       		.uleb128 0x2b
 8821 27c5 07       		.byte	0x7
 8822 27c6 01       		.byte	0x1
 8823 27c7 72000000 		.4byte	0x72
 8824 27cb 27       		.byte	0x27
 8825 27cc FD01     		.2byte	0x1fd
 8826 27ce 0E       		.byte	0xe
 8827 27cf F2270000 		.4byte	0x27f2
 8828 27d3 2A       		.uleb128 0x2a
 8829 27d4 990C0000 		.4byte	.LASF484
 8830 27d8 00       		.byte	0
 8831 27d9 2A       		.uleb128 0x2a
 8832 27da E9020000 		.4byte	.LASF485
 8833 27de 01       		.byte	0x1
 8834 27df 2A       		.uleb128 0x2a
 8835 27e0 08120000 		.4byte	.LASF486
 8836 27e4 02       		.byte	0x2
 8837 27e5 2A       		.uleb128 0x2a
 8838 27e6 15120000 		.4byte	.LASF487
 8839 27ea 03       		.byte	0x3
 8840 27eb 2A       		.uleb128 0x2a
 8841 27ec 22120000 		.4byte	.LASF488
 8842 27f0 04       		.byte	0x4
 8843 27f1 00       		.byte	0
 8844 27f2 06       		.uleb128 0x6
 8845 27f3 E21D0000 		.4byte	.LASF489
 8846 27f7 27       		.byte	0x27
 8847 27f8 0302     		.2byte	0x203
 8848 27fa 03       		.byte	0x3
 8849 27fb C4270000 		.4byte	0x27c4
 8850 27ff 2C       		.uleb128 0x2c
 8851 2800 04       		.byte	0x4
 8852 2801 27       		.byte	0x27
 8853 2802 0802     		.2byte	0x208
 8854 2804 09       		.byte	0x9
 8855 2805 17280000 		.4byte	0x2817
 8856 2809 2D       		.uleb128 0x2d
 8857 280a 646D6100 		.ascii	"dma\000"
 8858 280e 27       		.byte	0x27
 8859 280f 0D02     		.2byte	0x20d
 8860 2811 20       		.byte	0x20
 8861 2812 17280000 		.4byte	0x2817
 8862 2816 00       		.byte	0
 8863 2817 0E       		.uleb128 0xe
 8864 2818 04       		.byte	0x4
 8865 2819 F21E0000 		.4byte	0x1ef2
 8866 281d 06       		.uleb128 0x6
ARM GAS  /tmp/ccDQUTww.s 			page 157


 8867 281e 821A0000 		.4byte	.LASF490
 8868 2822 27       		.byte	0x27
 8869 2823 1502     		.2byte	0x215
 8870 2825 03       		.byte	0x3
 8871 2826 FF270000 		.4byte	0x27ff
 8872 282a 1C       		.uleb128 0x1c
 8873 282b 01150000 		.4byte	.LASF491
 8874 282f 27       		.byte	0x27
 8875 2830 B302     		.2byte	0x2b3
 8876 2832 12       		.byte	0x12
 8877 2833 D9250000 		.4byte	0x25d9
 8878 2837 03       		.uleb128 0x3
 8879 2838 AB170000 		.4byte	.LASF492
 8880 283c 26       		.byte	0x26
 8881 283d 6D       		.byte	0x6d
 8882 283e 10       		.byte	0x10
 8883 283f 43280000 		.4byte	0x2843
 8884 2843 0E       		.uleb128 0xe
 8885 2844 04       		.byte	0x4
 8886 2845 49280000 		.4byte	0x2849
 8887 2849 1B       		.uleb128 0x1b
 8888 284a 54280000 		.4byte	0x2854
 8889 284e 1A       		.uleb128 0x1a
 8890 284f 54280000 		.4byte	0x2854
 8891 2853 00       		.byte	0
 8892 2854 0E       		.uleb128 0xe
 8893 2855 04       		.byte	0x4
 8894 2856 D9250000 		.4byte	0x25d9
 8895 285a 03       		.uleb128 0x3
 8896 285b 3E130000 		.4byte	.LASF493
 8897 285f 26       		.byte	0x26
 8898 2860 76       		.byte	0x76
 8899 2861 10       		.byte	0x10
 8900 2862 66280000 		.4byte	0x2866
 8901 2866 0E       		.uleb128 0xe
 8902 2867 04       		.byte	0x4
 8903 2868 6C280000 		.4byte	0x286c
 8904 286c 1B       		.uleb128 0x1b
 8905 286d 7C280000 		.4byte	0x287c
 8906 2871 1A       		.uleb128 0x1a
 8907 2872 54280000 		.4byte	0x2854
 8908 2876 1A       		.uleb128 0x1a
 8909 2877 F2270000 		.4byte	0x27f2
 8910 287b 00       		.byte	0
 8911 287c 0E       		.uleb128 0xe
 8912 287d 04       		.byte	0x4
 8913 287e 8E260000 		.4byte	0x268e
 8914 2882 0E       		.uleb128 0xe
 8915 2883 04       		.byte	0x4
 8916 2884 AA270000 		.4byte	0x27aa
 8917 2888 0E       		.uleb128 0xe
 8918 2889 04       		.byte	0x4
 8919 288a C7260000 		.4byte	0x26c7
 8920 288e 0E       		.uleb128 0xe
 8921 288f 04       		.byte	0x4
 8922 2890 57100000 		.4byte	0x1057
 8923 2894 0E       		.uleb128 0xe
ARM GAS  /tmp/ccDQUTww.s 			page 158


 8924 2895 04       		.byte	0x4
 8925 2896 B5100000 		.4byte	0x10b5
 8926 289a 29       		.uleb128 0x29
 8927 289b 07       		.byte	0x7
 8928 289c 01       		.byte	0x1
 8929 289d 72000000 		.4byte	0x72
 8930 28a1 28       		.byte	0x28
 8931 28a2 4C       		.byte	0x4c
 8932 28a3 0E       		.byte	0xe
 8933 28a4 CD280000 		.4byte	0x28cd
 8934 28a8 2A       		.uleb128 0x2a
 8935 28a9 19060000 		.4byte	.LASF494
 8936 28ad 00       		.byte	0
 8937 28ae 2A       		.uleb128 0x2a
 8938 28af 900C0000 		.4byte	.LASF495
 8939 28b3 01       		.byte	0x1
 8940 28b4 2A       		.uleb128 0x2a
 8941 28b5 D3060000 		.4byte	.LASF496
 8942 28b9 02       		.byte	0x2
 8943 28ba 2A       		.uleb128 0x2a
 8944 28bb 06050000 		.4byte	.LASF497
 8945 28bf 03       		.byte	0x3
 8946 28c0 2A       		.uleb128 0x2a
 8947 28c1 D4030000 		.4byte	.LASF498
 8948 28c5 04       		.byte	0x4
 8949 28c6 2A       		.uleb128 0x2a
 8950 28c7 BE100000 		.4byte	.LASF499
 8951 28cb 05       		.byte	0x5
 8952 28cc 00       		.byte	0
 8953 28cd 03       		.uleb128 0x3
 8954 28ce E6090000 		.4byte	.LASF500
 8955 28d2 28       		.byte	0x28
 8956 28d3 53       		.byte	0x53
 8957 28d4 03       		.byte	0x3
 8958 28d5 9A280000 		.4byte	0x289a
 8959 28d9 06       		.uleb128 0x6
 8960 28da 64040000 		.4byte	.LASF501
 8961 28de 29       		.byte	0x29
 8962 28df 9D01     		.2byte	0x19d
 8963 28e1 12       		.byte	0x12
 8964 28e2 94090000 		.4byte	0x994
 8965 28e6 21       		.uleb128 0x21
 8966 28e7 0C       		.byte	0xc
 8967 28e8 29       		.byte	0x29
 8968 28e9 A201     		.2byte	0x1a2
 8969 28eb 09       		.byte	0x9
 8970 28ec 1B290000 		.4byte	0x291b
 8971 28f0 17       		.uleb128 0x17
 8972 28f1 E01C0000 		.4byte	.LASF502
 8973 28f5 29       		.byte	0x29
 8974 28f6 A801     		.2byte	0x1a8
 8975 28f8 13       		.byte	0x13
 8976 28f9 94090000 		.4byte	0x994
 8977 28fd 00       		.byte	0
 8978 28fe 18       		.uleb128 0x18
 8979 28ff 63723100 		.ascii	"cr1\000"
 8980 2903 29       		.byte	0x29
ARM GAS  /tmp/ccDQUTww.s 			page 159


 8981 2904 AD01     		.2byte	0x1ad
 8982 2906 13       		.byte	0x13
 8983 2907 94090000 		.4byte	0x994
 8984 290b 04       		.byte	0x4
 8985 290c 18       		.uleb128 0x18
 8986 290d 63723200 		.ascii	"cr2\000"
 8987 2911 29       		.byte	0x29
 8988 2912 B201     		.2byte	0x1b2
 8989 2914 13       		.byte	0x13
 8990 2915 94090000 		.4byte	0x994
 8991 2919 08       		.byte	0x8
 8992 291a 00       		.byte	0
 8993 291b 06       		.uleb128 0x6
 8994 291c 4C020000 		.4byte	.LASF503
 8995 2920 29       		.byte	0x29
 8996 2921 B301     		.2byte	0x1b3
 8997 2923 03       		.byte	0x3
 8998 2924 E6280000 		.4byte	0x28e6
 8999 2928 15       		.uleb128 0x15
 9000 2929 1B290000 		.4byte	0x291b
 9001 292d 06       		.uleb128 0x6
 9002 292e FC040000 		.4byte	.LASF504
 9003 2932 29       		.byte	0x29
 9004 2933 B801     		.2byte	0x1b8
 9005 2935 1A       		.byte	0x1a
 9006 2936 3A290000 		.4byte	0x293a
 9007 293a 16       		.uleb128 0x16
 9008 293b FC040000 		.4byte	.LASF504
 9009 293f 3C       		.byte	0x3c
 9010 2940 29       		.byte	0x29
 9011 2941 BD01     		.2byte	0x1bd
 9012 2943 08       		.byte	0x8
 9013 2944 EF290000 		.4byte	0x29ef
 9014 2948 17       		.uleb128 0x17
 9015 2949 5A130000 		.4byte	.LASF153
 9016 294d 29       		.byte	0x29
 9017 294e C101     		.2byte	0x1c1
 9018 2950 1D       		.byte	0x1d
 9019 2951 CD280000 		.4byte	0x28cd
 9020 2955 00       		.byte	0
 9021 2956 17       		.uleb128 0x17
 9022 2957 68180000 		.4byte	.LASF452
 9023 295b 29       		.byte	0x29
 9024 295c C501     		.2byte	0x1c5
 9025 295e 1E       		.byte	0x1e
 9026 295f 1F2A0000 		.4byte	0x2a1f
 9027 2963 04       		.byte	0x4
 9028 2964 17       		.uleb128 0x17
 9029 2965 B0010000 		.4byte	.LASF505
 9030 2969 29       		.byte	0x29
 9031 296a C901     		.2byte	0x1c9
 9032 296c 1D       		.byte	0x1d
 9033 296d D9280000 		.4byte	0x28d9
 9034 2971 08       		.byte	0x8
 9035 2972 17       		.uleb128 0x17
 9036 2973 DF0A0000 		.4byte	.LASF457
 9037 2977 29       		.byte	0x29
ARM GAS  /tmp/ccDQUTww.s 			page 160


 9038 2978 CB01     		.2byte	0x1cb
 9039 297a 1D       		.byte	0x1d
 9040 297b E51B0000 		.4byte	0x1be5
 9041 297f 0C       		.byte	0xc
 9042 2980 17       		.uleb128 0x17
 9043 2981 AD060000 		.4byte	.LASF456
 9044 2985 29       		.byte	0x29
 9045 2986 D401     		.2byte	0x1d4
 9046 2988 1D       		.byte	0x1d
 9047 2989 360B0000 		.4byte	0xb36
 9048 298d 1C       		.byte	0x1c
 9049 298e 17       		.uleb128 0x17
 9050 298f 54160000 		.4byte	.LASF506
 9051 2993 29       		.byte	0x29
 9052 2994 D801     		.2byte	0x1d8
 9053 2996 1D       		.byte	0x1d
 9054 2997 2C000000 		.4byte	0x2c
 9055 299b 20       		.byte	0x20
 9056 299c 17       		.uleb128 0x17
 9057 299d 83080000 		.4byte	.LASF507
 9058 29a1 29       		.byte	0x29
 9059 29a2 DC01     		.2byte	0x1dc
 9060 29a4 1D       		.byte	0x1d
 9061 29a5 2C000000 		.4byte	0x2c
 9062 29a9 24       		.byte	0x24
 9063 29aa 17       		.uleb128 0x17
 9064 29ab E3070000 		.4byte	.LASF508
 9065 29af 29       		.byte	0x29
 9066 29b0 E101     		.2byte	0x1e1
 9067 29b2 1D       		.byte	0x1d
 9068 29b3 94090000 		.4byte	0x994
 9069 29b7 28       		.byte	0x28
 9070 29b8 17       		.uleb128 0x17
 9071 29b9 31080000 		.4byte	.LASF509
 9072 29bd 29       		.byte	0x29
 9073 29be E501     		.2byte	0x1e5
 9074 29c0 1D       		.byte	0x1d
 9075 29c1 94090000 		.4byte	0x994
 9076 29c5 2C       		.byte	0x2c
 9077 29c6 18       		.uleb128 0x18
 9078 29c7 727800   		.ascii	"rx\000"
 9079 29ca 29       		.byte	0x29
 9080 29cb FE01     		.2byte	0x1fe
 9081 29cd 05       		.byte	0x5
 9082 29ce EF290000 		.4byte	0x29ef
 9083 29d2 30       		.byte	0x30
 9084 29d3 18       		.uleb128 0x18
 9085 29d4 747800   		.ascii	"tx\000"
 9086 29d7 29       		.byte	0x29
 9087 29d8 1102     		.2byte	0x211
 9088 29da 05       		.byte	0x5
 9089 29db 072A0000 		.4byte	0x2a07
 9090 29df 34       		.byte	0x34
 9091 29e0 18       		.uleb128 0x18
 9092 29e1 69326300 		.ascii	"i2c\000"
 9093 29e5 29       		.byte	0x29
 9094 29e6 1F02     		.2byte	0x21f
ARM GAS  /tmp/ccDQUTww.s 			page 161


 9095 29e8 1E       		.byte	0x1e
 9096 29e9 252A0000 		.4byte	0x2a25
 9097 29ed 38       		.byte	0x38
 9098 29ee 00       		.byte	0
 9099 29ef 2C       		.uleb128 0x2c
 9100 29f0 04       		.byte	0x4
 9101 29f1 29       		.byte	0x29
 9102 29f2 EF01     		.2byte	0x1ef
 9103 29f4 03       		.byte	0x3
 9104 29f5 072A0000 		.4byte	0x2a07
 9105 29f9 2D       		.uleb128 0x2d
 9106 29fa 646D6100 		.ascii	"dma\000"
 9107 29fe 29       		.byte	0x29
 9108 29ff F401     		.2byte	0x1f4
 9109 2a01 20       		.byte	0x20
 9110 2a02 17280000 		.4byte	0x2817
 9111 2a06 00       		.byte	0
 9112 2a07 2C       		.uleb128 0x2c
 9113 2a08 04       		.byte	0x4
 9114 2a09 29       		.byte	0x29
 9115 2a0a 0202     		.2byte	0x202
 9116 2a0c 03       		.byte	0x3
 9117 2a0d 1F2A0000 		.4byte	0x2a1f
 9118 2a11 2D       		.uleb128 0x2d
 9119 2a12 646D6100 		.ascii	"dma\000"
 9120 2a16 29       		.byte	0x29
 9121 2a17 0702     		.2byte	0x207
 9122 2a19 20       		.byte	0x20
 9123 2a1a 17280000 		.4byte	0x2817
 9124 2a1e 00       		.byte	0
 9125 2a1f 0E       		.uleb128 0xe
 9126 2a20 04       		.byte	0x4
 9127 2a21 28290000 		.4byte	0x2928
 9128 2a25 0E       		.uleb128 0xe
 9129 2a26 04       		.byte	0x4
 9130 2a27 C4120000 		.4byte	0x12c4
 9131 2a2b 1C       		.uleb128 0x1c
 9132 2a2c 3A0F0000 		.4byte	.LASF510
 9133 2a30 29       		.byte	0x29
 9134 2a31 3502     		.2byte	0x235
 9135 2a33 12       		.byte	0x12
 9136 2a34 2D290000 		.4byte	0x292d
 9137 2a38 29       		.uleb128 0x29
 9138 2a39 07       		.byte	0x7
 9139 2a3a 01       		.byte	0x1
 9140 2a3b 72000000 		.4byte	0x72
 9141 2a3f 2A       		.byte	0x2a
 9142 2a40 4A       		.byte	0x4a
 9143 2a41 0E       		.byte	0xe
 9144 2a42 592A0000 		.4byte	0x2a59
 9145 2a46 2A       		.uleb128 0x2a
 9146 2a47 09070000 		.4byte	.LASF511
 9147 2a4b 00       		.byte	0
 9148 2a4c 2A       		.uleb128 0x2a
 9149 2a4d C80A0000 		.4byte	.LASF512
 9150 2a51 01       		.byte	0x1
 9151 2a52 2A       		.uleb128 0x2a
ARM GAS  /tmp/ccDQUTww.s 			page 162


 9152 2a53 2A0E0000 		.4byte	.LASF513
 9153 2a57 02       		.byte	0x2
 9154 2a58 00       		.byte	0
 9155 2a59 03       		.uleb128 0x3
 9156 2a5a 00040000 		.4byte	.LASF514
 9157 2a5e 2A       		.byte	0x2a
 9158 2a5f 4E       		.byte	0x4e
 9159 2a60 03       		.byte	0x3
 9160 2a61 382A0000 		.4byte	0x2a38
 9161 2a65 03       		.uleb128 0x3
 9162 2a66 220A0000 		.4byte	.LASF515
 9163 2a6a 2A       		.byte	0x2a
 9164 2a6b 53       		.byte	0x53
 9165 2a6c 1A       		.byte	0x1a
 9166 2a6d 712A0000 		.4byte	0x2a71
 9167 2a71 16       		.uleb128 0x16
 9168 2a72 220A0000 		.4byte	.LASF515
 9169 2a76 1C       		.byte	0x1c
 9170 2a77 2B       		.byte	0x2b
 9171 2a78 6B03     		.2byte	0x36b
 9172 2a7a 08       		.byte	0x8
 9173 2a7b E22A0000 		.4byte	0x2ae2
 9174 2a7f 17       		.uleb128 0x17
 9175 2a80 5A130000 		.4byte	.LASF153
 9176 2a84 2B       		.byte	0x2b
 9177 2a85 6F03     		.2byte	0x36f
 9178 2a87 1D       		.byte	0x1d
 9179 2a88 592A0000 		.4byte	0x2a59
 9180 2a8c 00       		.byte	0
 9181 2a8d 17       		.uleb128 0x17
 9182 2a8e 68180000 		.4byte	.LASF452
 9183 2a92 2B       		.byte	0x2b
 9184 2a93 7303     		.2byte	0x373
 9185 2a95 1E       		.byte	0x1e
 9186 2a96 EE2B0000 		.4byte	0x2bee
 9187 2a9a 04       		.byte	0x4
 9188 2a9b 17       		.uleb128 0x17
 9189 2a9c B1100000 		.4byte	.LASF516
 9190 2aa0 2B       		.byte	0x2b
 9191 2aa1 7703     		.2byte	0x377
 9192 2aa3 1D       		.byte	0x1d
 9193 2aa4 2C2B0000 		.4byte	0x2b2c
 9194 2aa8 08       		.byte	0x8
 9195 2aa9 17       		.uleb128 0x17
 9196 2aaa C0160000 		.4byte	.LASF517
 9197 2aae 2B       		.byte	0x2b
 9198 2aaf 7B03     		.2byte	0x37b
 9199 2ab1 1D       		.byte	0x1d
 9200 2ab2 1F2B0000 		.4byte	0x2b1f
 9201 2ab6 0C       		.byte	0xc
 9202 2ab7 17       		.uleb128 0x17
 9203 2ab8 CA1E0000 		.4byte	.LASF518
 9204 2abc 2B       		.byte	0x2b
 9205 2abd 7F03     		.2byte	0x37f
 9206 2abf 1D       		.byte	0x1d
 9207 2ac0 122B0000 		.4byte	0x2b12
 9208 2ac4 10       		.byte	0x10
ARM GAS  /tmp/ccDQUTww.s 			page 163


 9209 2ac5 17       		.uleb128 0x17
 9210 2ac6 3B0B0000 		.4byte	.LASF519
 9211 2aca 2B       		.byte	0x2b
 9212 2acb 8703     		.2byte	0x387
 9213 2acd 1D       		.byte	0x1d
 9214 2ace 94090000 		.4byte	0x994
 9215 2ad2 14       		.byte	0x14
 9216 2ad3 18       		.uleb128 0x18
 9217 2ad4 74696D00 		.ascii	"tim\000"
 9218 2ad8 2B       		.byte	0x2b
 9219 2ad9 8B03     		.2byte	0x38b
 9220 2adb 1E       		.byte	0x1e
 9221 2adc F42B0000 		.4byte	0x2bf4
 9222 2ae0 18       		.byte	0x18
 9223 2ae1 00       		.byte	0
 9224 2ae2 03       		.uleb128 0x3
 9225 2ae3 9E0E0000 		.4byte	.LASF520
 9226 2ae7 2A       		.byte	0x2a
 9227 2ae8 5A       		.byte	0x5a
 9228 2ae9 10       		.byte	0x10
 9229 2aea EE2A0000 		.4byte	0x2aee
 9230 2aee 0E       		.uleb128 0xe
 9231 2aef 04       		.byte	0x4
 9232 2af0 F42A0000 		.4byte	0x2af4
 9233 2af4 1B       		.uleb128 0x1b
 9234 2af5 FF2A0000 		.4byte	0x2aff
 9235 2af9 1A       		.uleb128 0x1a
 9236 2afa FF2A0000 		.4byte	0x2aff
 9237 2afe 00       		.byte	0
 9238 2aff 0E       		.uleb128 0xe
 9239 2b00 04       		.byte	0x4
 9240 2b01 652A0000 		.4byte	0x2a65
 9241 2b05 06       		.uleb128 0x6
 9242 2b06 A2120000 		.4byte	.LASF521
 9243 2b0a 2B       		.byte	0x2b
 9244 2b0b 1703     		.2byte	0x317
 9245 2b0d 12       		.byte	0x12
 9246 2b0e 94090000 		.4byte	0x994
 9247 2b12 06       		.uleb128 0x6
 9248 2b13 8E140000 		.4byte	.LASF522
 9249 2b17 2B       		.byte	0x2b
 9250 2b18 1C03     		.2byte	0x31c
 9251 2b1a 11       		.byte	0x11
 9252 2b1b 66090000 		.4byte	0x966
 9253 2b1f 06       		.uleb128 0x6
 9254 2b20 5E030000 		.4byte	.LASF523
 9255 2b24 2B       		.byte	0x2b
 9256 2b25 2103     		.2byte	0x321
 9257 2b27 12       		.byte	0x12
 9258 2b28 94090000 		.4byte	0x994
 9259 2b2c 06       		.uleb128 0x6
 9260 2b2d FB0B0000 		.4byte	.LASF524
 9261 2b31 2B       		.byte	0x2b
 9262 2b32 2603     		.2byte	0x326
 9263 2b34 12       		.byte	0x12
 9264 2b35 94090000 		.4byte	0x994
 9265 2b39 21       		.uleb128 0x21
ARM GAS  /tmp/ccDQUTww.s 			page 164


 9266 2b3a 08       		.byte	0x8
 9267 2b3b 2B       		.byte	0x2b
 9268 2b3c 2B03     		.2byte	0x32b
 9269 2b3e 09       		.byte	0x9
 9270 2b3f 602B0000 		.4byte	0x2b60
 9271 2b43 17       		.uleb128 0x17
 9272 2b44 F7070000 		.4byte	.LASF525
 9273 2b48 2B       		.byte	0x2b
 9274 2b49 2F03     		.2byte	0x32f
 9275 2b4b 1D       		.byte	0x1d
 9276 2b4c 052B0000 		.4byte	0x2b05
 9277 2b50 00       		.byte	0
 9278 2b51 17       		.uleb128 0x17
 9279 2b52 8E130000 		.4byte	.LASF526
 9280 2b56 2B       		.byte	0x2b
 9281 2b57 3503     		.2byte	0x335
 9282 2b59 1D       		.byte	0x1d
 9283 2b5a E22A0000 		.4byte	0x2ae2
 9284 2b5e 04       		.byte	0x4
 9285 2b5f 00       		.byte	0
 9286 2b60 06       		.uleb128 0x6
 9287 2b61 EA0B0000 		.4byte	.LASF527
 9288 2b65 2B       		.byte	0x2b
 9289 2b66 3703     		.2byte	0x337
 9290 2b68 03       		.byte	0x3
 9291 2b69 392B0000 		.4byte	0x2b39
 9292 2b6d 21       		.uleb128 0x21
 9293 2b6e 44       		.byte	0x44
 9294 2b6f 2B       		.byte	0x2b
 9295 2b70 3C03     		.2byte	0x33c
 9296 2b72 09       		.byte	0x9
 9297 2b73 CC2B0000 		.4byte	0x2bcc
 9298 2b77 17       		.uleb128 0x17
 9299 2b78 DB1F0000 		.4byte	.LASF528
 9300 2b7c 2B       		.byte	0x2b
 9301 2b7d 4203     		.2byte	0x342
 9302 2b7f 1D       		.byte	0x1d
 9303 2b80 94090000 		.4byte	0x994
 9304 2b84 00       		.byte	0
 9305 2b85 17       		.uleb128 0x17
 9306 2b86 B1100000 		.4byte	.LASF516
 9307 2b8a 2B       		.byte	0x2b
 9308 2b8b 4803     		.2byte	0x348
 9309 2b8d 1D       		.byte	0x1d
 9310 2b8e 2C2B0000 		.4byte	0x2b2c
 9311 2b92 04       		.byte	0x4
 9312 2b93 17       		.uleb128 0x17
 9313 2b94 8E130000 		.4byte	.LASF526
 9314 2b98 2B       		.byte	0x2b
 9315 2b99 4E03     		.2byte	0x34e
 9316 2b9b 1D       		.byte	0x1d
 9317 2b9c E22A0000 		.4byte	0x2ae2
 9318 2ba0 08       		.byte	0x8
 9319 2ba1 17       		.uleb128 0x17
 9320 2ba2 CA1E0000 		.4byte	.LASF518
 9321 2ba6 2B       		.byte	0x2b
 9322 2ba7 5203     		.2byte	0x352
ARM GAS  /tmp/ccDQUTww.s 			page 165


 9323 2ba9 1D       		.byte	0x1d
 9324 2baa CC2B0000 		.4byte	0x2bcc
 9325 2bae 0C       		.byte	0xc
 9326 2baf 18       		.uleb128 0x18
 9327 2bb0 63723200 		.ascii	"cr2\000"
 9328 2bb4 2B       		.byte	0x2b
 9329 2bb5 5803     		.2byte	0x358
 9330 2bb7 1D       		.byte	0x1d
 9331 2bb8 94090000 		.4byte	0x994
 9332 2bbc 3C       		.byte	0x3c
 9333 2bbd 17       		.uleb128 0x17
 9334 2bbe 980A0000 		.4byte	.LASF529
 9335 2bc2 2B       		.byte	0x2b
 9336 2bc3 6503     		.2byte	0x365
 9337 2bc5 1D       		.byte	0x1d
 9338 2bc6 94090000 		.4byte	0x994
 9339 2bca 40       		.byte	0x40
 9340 2bcb 00       		.byte	0
 9341 2bcc 09       		.uleb128 0x9
 9342 2bcd 602B0000 		.4byte	0x2b60
 9343 2bd1 DC2B0000 		.4byte	0x2bdc
 9344 2bd5 0A       		.uleb128 0xa
 9345 2bd6 3D000000 		.4byte	0x3d
 9346 2bda 05       		.byte	0x5
 9347 2bdb 00       		.byte	0
 9348 2bdc 06       		.uleb128 0x6
 9349 2bdd 2C0A0000 		.4byte	.LASF530
 9350 2be1 2B       		.byte	0x2b
 9351 2be2 6603     		.2byte	0x366
 9352 2be4 03       		.byte	0x3
 9353 2be5 6D2B0000 		.4byte	0x2b6d
 9354 2be9 15       		.uleb128 0x15
 9355 2bea DC2B0000 		.4byte	0x2bdc
 9356 2bee 0E       		.uleb128 0xe
 9357 2bef 04       		.byte	0x4
 9358 2bf0 E92B0000 		.4byte	0x2be9
 9359 2bf4 0E       		.uleb128 0xe
 9360 2bf5 04       		.byte	0x4
 9361 2bf6 D1200000 		.4byte	0x20d1
 9362 2bfa 1C       		.uleb128 0x1c
 9363 2bfb 760F0000 		.4byte	.LASF531
 9364 2bff 2B       		.byte	0x2b
 9365 2c00 AA03     		.2byte	0x3aa
 9366 2c02 12       		.byte	0x12
 9367 2c03 652A0000 		.4byte	0x2a65
 9368 2c07 1C       		.uleb128 0x1c
 9369 2c08 BA110000 		.4byte	.LASF532
 9370 2c0c 2B       		.byte	0x2b
 9371 2c0d B203     		.2byte	0x3b2
 9372 2c0f 12       		.byte	0x12
 9373 2c10 652A0000 		.4byte	0x2a65
 9374 2c14 1C       		.uleb128 0x1c
 9375 2c15 840F0000 		.4byte	.LASF533
 9376 2c19 2B       		.byte	0x2b
 9377 2c1a B603     		.2byte	0x3b6
 9378 2c1c 12       		.byte	0x12
 9379 2c1d 652A0000 		.4byte	0x2a65
ARM GAS  /tmp/ccDQUTww.s 			page 166


 9380 2c21 1C       		.uleb128 0x1c
 9381 2c22 8A0F0000 		.4byte	.LASF534
 9382 2c26 2B       		.byte	0x2b
 9383 2c27 BA03     		.2byte	0x3ba
 9384 2c29 12       		.byte	0x12
 9385 2c2a 652A0000 		.4byte	0x2a65
 9386 2c2e 1C       		.uleb128 0x1c
 9387 2c2f 960F0000 		.4byte	.LASF535
 9388 2c33 2B       		.byte	0x2b
 9389 2c34 BE03     		.2byte	0x3be
 9390 2c36 12       		.byte	0x12
 9391 2c37 652A0000 		.4byte	0x2a65
 9392 2c3b 29       		.uleb128 0x29
 9393 2c3c 07       		.byte	0x7
 9394 2c3d 01       		.byte	0x1
 9395 2c3e 72000000 		.4byte	0x72
 9396 2c42 2C       		.byte	0x2c
 9397 2c43 58       		.byte	0x58
 9398 2c44 0E       		.byte	0xe
 9399 2c45 5C2C0000 		.4byte	0x2c5c
 9400 2c49 2A       		.uleb128 0x2a
 9401 2c4a 41060000 		.4byte	.LASF536
 9402 2c4e 00       		.byte	0
 9403 2c4f 2A       		.uleb128 0x2a
 9404 2c50 670B0000 		.4byte	.LASF537
 9405 2c54 01       		.byte	0x1
 9406 2c55 2A       		.uleb128 0x2a
 9407 2c56 5B210000 		.4byte	.LASF538
 9408 2c5a 02       		.byte	0x2
 9409 2c5b 00       		.byte	0
 9410 2c5c 03       		.uleb128 0x3
 9411 2c5d 45090000 		.4byte	.LASF539
 9412 2c61 2C       		.byte	0x2c
 9413 2c62 5C       		.byte	0x5c
 9414 2c63 03       		.byte	0x3
 9415 2c64 3B2C0000 		.4byte	0x2c3b
 9416 2c68 03       		.uleb128 0x3
 9417 2c69 06010000 		.4byte	.LASF540
 9418 2c6d 2C       		.byte	0x2c
 9419 2c6e 61       		.byte	0x61
 9420 2c6f 1D       		.byte	0x1d
 9421 2c70 742C0000 		.4byte	0x2c74
 9422 2c74 10       		.uleb128 0x10
 9423 2c75 06010000 		.4byte	.LASF540
 9424 2c79 60       		.byte	0x60
 9425 2c7a 2C       		.byte	0x2c
 9426 2c7b 7B       		.byte	0x7b
 9427 2c7c 08       		.byte	0x8
 9428 2c7d EA2C0000 		.4byte	0x2cea
 9429 2c81 11       		.uleb128 0x11
 9430 2c82 766D7400 		.ascii	"vmt\000"
 9431 2c86 2C       		.byte	0x2c
 9432 2c87 7D       		.byte	0x7d
 9433 2c88 21       		.byte	0x21
 9434 2c89 B32D0000 		.4byte	0x2db3
 9435 2c8d 00       		.byte	0
 9436 2c8e 0C       		.uleb128 0xc
ARM GAS  /tmp/ccDQUTww.s 			page 167


 9437 2c8f 43000000 		.4byte	.LASF541
 9438 2c93 2C       		.byte	0x2c
 9439 2c94 7E       		.byte	0x7e
 9440 2c95 03       		.byte	0x3
 9441 2c96 731C0000 		.4byte	0x1c73
 9442 2c9a 04       		.byte	0x4
 9443 2c9b 0C       		.uleb128 0xc
 9444 2c9c 5A130000 		.4byte	.LASF153
 9445 2ca0 2C       		.byte	0x2c
 9446 2ca1 7E       		.byte	0x7e
 9447 2ca2 03       		.byte	0x3
 9448 2ca3 5C2C0000 		.4byte	0x2c5c
 9449 2ca7 08       		.byte	0x8
 9450 2ca8 0C       		.uleb128 0xc
 9451 2ca9 84150000 		.4byte	.LASF542
 9452 2cad 2C       		.byte	0x2c
 9453 2cae 7E       		.byte	0x7e
 9454 2caf 03       		.byte	0x3
 9455 2cb0 91240000 		.4byte	0x2491
 9456 2cb4 0C       		.byte	0xc
 9457 2cb5 0C       		.uleb128 0xc
 9458 2cb6 5E0E0000 		.4byte	.LASF543
 9459 2cba 2C       		.byte	0x2c
 9460 2cbb 7E       		.byte	0x7e
 9461 2cbc 03       		.byte	0x3
 9462 2cbd 9D240000 		.4byte	0x249d
 9463 2cc1 30       		.byte	0x30
 9464 2cc2 0C       		.uleb128 0xc
 9465 2cc3 D5160000 		.4byte	.LASF544
 9466 2cc7 2C       		.byte	0x2c
 9467 2cc8 7E       		.byte	0x7e
 9468 2cc9 03       		.byte	0x3
 9469 2cca B92D0000 		.4byte	0x2db9
 9470 2cce 54       		.byte	0x54
 9471 2ccf 0C       		.uleb128 0xc
 9472 2cd0 3B0B0000 		.4byte	.LASF519
 9473 2cd4 2C       		.byte	0x2c
 9474 2cd5 7E       		.byte	0x7e
 9475 2cd6 03       		.byte	0x3
 9476 2cd7 94090000 		.4byte	0x994
 9477 2cdb 58       		.byte	0x58
 9478 2cdc 0C       		.uleb128 0xc
 9479 2cdd C7170000 		.4byte	.LASF545
 9480 2ce1 2C       		.byte	0x2c
 9481 2ce2 7E       		.byte	0x7e
 9482 2ce3 03       		.byte	0x3
 9483 2ce4 66090000 		.4byte	0x966
 9484 2ce8 5C       		.byte	0x5c
 9485 2ce9 00       		.byte	0
 9486 2cea 27       		.uleb128 0x27
 9487 2ceb 53443100 		.ascii	"SD1\000"
 9488 2cef 2D       		.byte	0x2d
 9489 2cf0 EC01     		.2byte	0x1ec
 9490 2cf2 15       		.byte	0x15
 9491 2cf3 682C0000 		.4byte	0x2c68
 9492 2cf7 27       		.uleb128 0x27
 9493 2cf8 53443200 		.ascii	"SD2\000"
ARM GAS  /tmp/ccDQUTww.s 			page 168


 9494 2cfc 2D       		.byte	0x2d
 9495 2cfd EF01     		.2byte	0x1ef
 9496 2cff 15       		.byte	0x15
 9497 2d00 682C0000 		.4byte	0x2c68
 9498 2d04 27       		.uleb128 0x27
 9499 2d05 53443300 		.ascii	"SD3\000"
 9500 2d09 2D       		.byte	0x2d
 9501 2d0a F201     		.2byte	0x1f2
 9502 2d0c 15       		.byte	0x15
 9503 2d0d 682C0000 		.4byte	0x2c68
 9504 2d11 27       		.uleb128 0x27
 9505 2d12 53443600 		.ascii	"SD6\000"
 9506 2d16 2D       		.byte	0x2d
 9507 2d17 FB01     		.2byte	0x1fb
 9508 2d19 15       		.byte	0x15
 9509 2d1a 682C0000 		.4byte	0x2c68
 9510 2d1e 10       		.uleb128 0x10
 9511 2d1f 330D0000 		.4byte	.LASF546
 9512 2d23 28       		.byte	0x28
 9513 2d24 2C       		.byte	0x2c
 9514 2d25 70       		.byte	0x70
 9515 2d26 08       		.byte	0x8
 9516 2d27 AE2D0000 		.4byte	0x2dae
 9517 2d2b 0C       		.uleb128 0xc
 9518 2d2c B7010000 		.4byte	.LASF547
 9519 2d30 2C       		.byte	0x2c
 9520 2d31 71       		.byte	0x71
 9521 2d32 03       		.byte	0x3
 9522 2d33 2C000000 		.4byte	0x2c
 9523 2d37 00       		.byte	0
 9524 2d38 0C       		.uleb128 0xc
 9525 2d39 73150000 		.4byte	.LASF548
 9526 2d3d 2C       		.byte	0x2c
 9527 2d3e 71       		.byte	0x71
 9528 2d3f 03       		.byte	0x3
 9529 2d40 FD200000 		.4byte	0x20fd
 9530 2d44 04       		.byte	0x4
 9531 2d45 0C       		.uleb128 0xc
 9532 2d46 19050000 		.4byte	.LASF549
 9533 2d4a 2C       		.byte	0x2c
 9534 2d4b 71       		.byte	0x71
 9535 2d4c 03       		.byte	0x3
 9536 2d4d 1C210000 		.4byte	0x211c
 9537 2d51 08       		.byte	0x8
 9538 2d52 11       		.uleb128 0x11
 9539 2d53 70757400 		.ascii	"put\000"
 9540 2d57 2C       		.byte	0x2c
 9541 2d58 71       		.byte	0x71
 9542 2d59 03       		.byte	0x3
 9543 2d5a 36210000 		.4byte	0x2136
 9544 2d5e 0C       		.byte	0xc
 9545 2d5f 11       		.uleb128 0x11
 9546 2d60 67657400 		.ascii	"get\000"
 9547 2d64 2C       		.byte	0x2c
 9548 2d65 71       		.byte	0x71
 9549 2d66 03       		.byte	0x3
 9550 2d67 4B210000 		.4byte	0x214b
ARM GAS  /tmp/ccDQUTww.s 			page 169


 9551 2d6b 10       		.byte	0x10
 9552 2d6c 0C       		.uleb128 0xc
 9553 2d6d 8A110000 		.4byte	.LASF550
 9554 2d71 2C       		.byte	0x2c
 9555 2d72 71       		.byte	0x71
 9556 2d73 03       		.byte	0x3
 9557 2d74 6A210000 		.4byte	0x216a
 9558 2d78 14       		.byte	0x14
 9559 2d79 0C       		.uleb128 0xc
 9560 2d7a 4E150000 		.4byte	.LASF551
 9561 2d7e 2C       		.byte	0x2c
 9562 2d7f 71       		.byte	0x71
 9563 2d80 03       		.byte	0x3
 9564 2d81 84210000 		.4byte	0x2184
 9565 2d85 18       		.byte	0x18
 9566 2d86 0C       		.uleb128 0xc
 9567 2d87 A71D0000 		.4byte	.LASF552
 9568 2d8b 2C       		.byte	0x2c
 9569 2d8c 71       		.byte	0x71
 9570 2d8d 03       		.byte	0x3
 9571 2d8e A8210000 		.4byte	0x21a8
 9572 2d92 1C       		.byte	0x1c
 9573 2d93 0C       		.uleb128 0xc
 9574 2d94 D9100000 		.4byte	.LASF553
 9575 2d98 2C       		.byte	0x2c
 9576 2d99 71       		.byte	0x71
 9577 2d9a 03       		.byte	0x3
 9578 2d9b CC210000 		.4byte	0x21cc
 9579 2d9f 20       		.byte	0x20
 9580 2da0 11       		.uleb128 0x11
 9581 2da1 63746C00 		.ascii	"ctl\000"
 9582 2da5 2C       		.byte	0x2c
 9583 2da6 71       		.byte	0x71
 9584 2da7 03       		.byte	0x3
 9585 2da8 EB210000 		.4byte	0x21eb
 9586 2dac 24       		.byte	0x24
 9587 2dad 00       		.byte	0
 9588 2dae 15       		.uleb128 0x15
 9589 2daf 1E2D0000 		.4byte	0x2d1e
 9590 2db3 0E       		.uleb128 0xe
 9591 2db4 04       		.byte	0x4
 9592 2db5 AE2D0000 		.4byte	0x2dae
 9593 2db9 0E       		.uleb128 0xe
 9594 2dba 04       		.byte	0x4
 9595 2dbb 34160000 		.4byte	0x1634
 9596 2dbf 29       		.uleb128 0x29
 9597 2dc0 07       		.byte	0x7
 9598 2dc1 01       		.byte	0x1
 9599 2dc2 72000000 		.4byte	0x72
 9600 2dc6 2E       		.byte	0x2e
 9601 2dc7 7A       		.byte	0x7a
 9602 2dc8 0E       		.byte	0xe
 9603 2dc9 E02D0000 		.4byte	0x2de0
 9604 2dcd 2A       		.uleb128 0x2a
 9605 2dce B6030000 		.4byte	.LASF554
 9606 2dd2 00       		.byte	0
 9607 2dd3 2A       		.uleb128 0x2a
ARM GAS  /tmp/ccDQUTww.s 			page 170


 9608 2dd4 C1120000 		.4byte	.LASF555
 9609 2dd8 01       		.byte	0x1
 9610 2dd9 2A       		.uleb128 0x2a
 9611 2dda 60100000 		.4byte	.LASF556
 9612 2dde 02       		.byte	0x2
 9613 2ddf 00       		.byte	0
 9614 2de0 03       		.uleb128 0x3
 9615 2de1 83170000 		.4byte	.LASF557
 9616 2de5 2E       		.byte	0x2e
 9617 2de6 7E       		.byte	0x7e
 9618 2de7 03       		.byte	0x3
 9619 2de8 BF2D0000 		.4byte	0x2dbf
 9620 2dec 03       		.uleb128 0x3
 9621 2ded DB160000 		.4byte	.LASF558
 9622 2df1 2F       		.byte	0x2f
 9623 2df2 A6       		.byte	0xa6
 9624 2df3 12       		.byte	0x12
 9625 2df4 94090000 		.4byte	0x994
 9626 2df8 03       		.uleb128 0x3
 9627 2df9 D5000000 		.4byte	.LASF559
 9628 2dfd 2F       		.byte	0x2f
 9629 2dfe AB       		.byte	0xab
 9630 2dff 12       		.byte	0x12
 9631 2e00 94090000 		.4byte	0x994
 9632 2e04 03       		.uleb128 0x3
 9633 2e05 1D0F0000 		.4byte	.LASF560
 9634 2e09 2F       		.byte	0x2f
 9635 2e0a B0       		.byte	0xb0
 9636 2e0b 1A       		.byte	0x1a
 9637 2e0c 102E0000 		.4byte	0x2e10
 9638 2e10 12       		.uleb128 0x12
 9639 2e11 1D0F0000 		.4byte	.LASF560
 9640 2e15 4802     		.2byte	0x248
 9641 2e17 2F       		.byte	0x2f
 9642 2e18 D0       		.byte	0xd0
 9643 2e19 08       		.byte	0x8
 9644 2e1a C82E0000 		.4byte	0x2ec8
 9645 2e1e 11       		.uleb128 0x11
 9646 2e1f 766D7400 		.ascii	"vmt\000"
 9647 2e23 2F       		.byte	0x2f
 9648 2e24 D4       		.byte	0xd4
 9649 2e25 1E       		.byte	0x1e
 9650 2e26 782F0000 		.4byte	0x2f78
 9651 2e2a 00       		.byte	0
 9652 2e2b 0C       		.uleb128 0xc
 9653 2e2c 5A130000 		.4byte	.LASF153
 9654 2e30 2F       		.byte	0x2f
 9655 2e31 D5       		.byte	0xd5
 9656 2e32 03       		.byte	0x3
 9657 2e33 36220000 		.4byte	0x2236
 9658 2e37 04       		.byte	0x4
 9659 2e38 11       		.uleb128 0x11
 9660 2e39 63696400 		.ascii	"cid\000"
 9661 2e3d 2F       		.byte	0x2f
 9662 2e3e D5       		.byte	0xd5
 9663 2e3f 03       		.byte	0x3
 9664 2e40 47100000 		.4byte	0x1047
ARM GAS  /tmp/ccDQUTww.s 			page 171


 9665 2e44 08       		.byte	0x8
 9666 2e45 11       		.uleb128 0x11
 9667 2e46 63736400 		.ascii	"csd\000"
 9668 2e4a 2F       		.byte	0x2f
 9669 2e4b D5       		.byte	0xd5
 9670 2e4c 03       		.byte	0x3
 9671 2e4d 47100000 		.4byte	0x1047
 9672 2e51 18       		.byte	0x18
 9673 2e52 0C       		.uleb128 0xc
 9674 2e53 08190000 		.4byte	.LASF561
 9675 2e57 2F       		.byte	0x2f
 9676 2e58 D5       		.byte	0xd5
 9677 2e59 03       		.byte	0x3
 9678 2e5a 94090000 		.4byte	0x994
 9679 2e5e 28       		.byte	0x28
 9680 2e5f 0C       		.uleb128 0xc
 9681 2e60 68180000 		.4byte	.LASF452
 9682 2e64 2F       		.byte	0x2f
 9683 2e65 D9       		.byte	0xd9
 9684 2e66 1E       		.byte	0x1e
 9685 2e67 7E2F0000 		.4byte	0x2f7e
 9686 2e6b 2C       		.byte	0x2c
 9687 2e6c 0C       		.uleb128 0xc
 9688 2e6d 6B120000 		.4byte	.LASF562
 9689 2e71 2F       		.byte	0x2f
 9690 2e72 DD       		.byte	0xdd
 9691 2e73 1D       		.byte	0x1d
 9692 2e74 EC2D0000 		.4byte	0x2dec
 9693 2e78 30       		.byte	0x30
 9694 2e79 0C       		.uleb128 0xc
 9695 2e7a B0010000 		.4byte	.LASF505
 9696 2e7e 2F       		.byte	0x2f
 9697 2e7f E1       		.byte	0xe1
 9698 2e80 1D       		.byte	0x1d
 9699 2e81 F82D0000 		.4byte	0x2df8
 9700 2e85 34       		.byte	0x34
 9701 2e86 11       		.uleb128 0x11
 9702 2e87 72636100 		.ascii	"rca\000"
 9703 2e8b 2F       		.byte	0x2f
 9704 2e8c E5       		.byte	0xe5
 9705 2e8d 1D       		.byte	0x1d
 9706 2e8e 94090000 		.4byte	0x994
 9707 2e92 38       		.byte	0x38
 9708 2e93 0C       		.uleb128 0xc
 9709 2e94 AD060000 		.4byte	.LASF456
 9710 2e98 2F       		.byte	0x2f
 9711 2e99 EA       		.byte	0xea
 9712 2e9a 1D       		.byte	0x1d
 9713 2e9b 360B0000 		.4byte	0xb36
 9714 2e9f 3C       		.byte	0x3c
 9715 2ea0 0C       		.uleb128 0xc
 9716 2ea1 AE1D0000 		.4byte	.LASF563
 9717 2ea5 2F       		.byte	0x2f
 9718 2ea6 EF       		.byte	0xef
 9719 2ea7 1E       		.byte	0x1e
 9720 2ea8 842F0000 		.4byte	0x2f84
 9721 2eac 40       		.byte	0x40
ARM GAS  /tmp/ccDQUTww.s 			page 172


 9722 2ead 0C       		.uleb128 0xc
 9723 2eae 55090000 		.4byte	.LASF564
 9724 2eb2 2F       		.byte	0x2f
 9725 2eb3 F3       		.byte	0xf3
 9726 2eb4 1D       		.byte	0x1d
 9727 2eb5 94090000 		.4byte	0x994
 9728 2eb9 44       		.byte	0x44
 9729 2eba 11       		.uleb128 0x11
 9730 2ebb 62756600 		.ascii	"buf\000"
 9731 2ebf 2F       		.byte	0x2f
 9732 2ec0 F7       		.byte	0xf7
 9733 2ec1 1D       		.byte	0x1d
 9734 2ec2 8A2F0000 		.4byte	0x2f8a
 9735 2ec6 48       		.byte	0x48
 9736 2ec7 00       		.byte	0
 9737 2ec8 0B       		.uleb128 0xb
 9738 2ec9 01       		.byte	0x1
 9739 2eca 2F       		.byte	0x2f
 9740 2ecb B6       		.byte	0xb6
 9741 2ecc 09       		.byte	0x9
 9742 2ecd DF2E0000 		.4byte	0x2edf
 9743 2ed1 0C       		.uleb128 0xc
 9744 2ed2 3A1E0000 		.4byte	.LASF565
 9745 2ed6 2F       		.byte	0x2f
 9746 2ed7 BA       		.byte	0xba
 9747 2ed8 11       		.byte	0x11
 9748 2ed9 E02D0000 		.4byte	0x2de0
 9749 2edd 00       		.byte	0
 9750 2ede 00       		.byte	0
 9751 2edf 03       		.uleb128 0x3
 9752 2ee0 300F0000 		.4byte	.LASF566
 9753 2ee4 2F       		.byte	0x2f
 9754 2ee5 BC       		.byte	0xbc
 9755 2ee6 03       		.byte	0x3
 9756 2ee7 C82E0000 		.4byte	0x2ec8
 9757 2eeb 15       		.uleb128 0x15
 9758 2eec DF2E0000 		.4byte	0x2edf
 9759 2ef0 10       		.uleb128 0x10
 9760 2ef1 491E0000 		.4byte	.LASF567
 9761 2ef5 24       		.byte	0x24
 9762 2ef6 2F       		.byte	0x2f
 9763 2ef7 C9       		.byte	0xc9
 9764 2ef8 08       		.byte	0x8
 9765 2ef9 732F0000 		.4byte	0x2f73
 9766 2efd 0C       		.uleb128 0xc
 9767 2efe B7010000 		.4byte	.LASF547
 9768 2f02 2F       		.byte	0x2f
 9769 2f03 CA       		.byte	0xca
 9770 2f04 03       		.byte	0x3
 9771 2f05 2C000000 		.4byte	0x2c
 9772 2f09 00       		.byte	0
 9773 2f0a 0C       		.uleb128 0xc
 9774 2f0b 071B0000 		.4byte	.LASF568
 9775 2f0f 2F       		.byte	0x2f
 9776 2f10 CA       		.byte	0xca
 9777 2f11 03       		.byte	0x3
 9778 2f12 81220000 		.4byte	0x2281
ARM GAS  /tmp/ccDQUTww.s 			page 173


 9779 2f16 04       		.byte	0x4
 9780 2f17 0C       		.uleb128 0xc
 9781 2f18 9D0A0000 		.4byte	.LASF569
 9782 2f1c 2F       		.byte	0x2f
 9783 2f1d CA       		.byte	0xca
 9784 2f1e 03       		.byte	0x3
 9785 2f1f 81220000 		.4byte	0x2281
 9786 2f23 08       		.byte	0x8
 9787 2f24 0C       		.uleb128 0xc
 9788 2f25 740D0000 		.4byte	.LASF570
 9789 2f29 2F       		.byte	0x2f
 9790 2f2a CA       		.byte	0xca
 9791 2f2b 03       		.byte	0x3
 9792 2f2c 81220000 		.4byte	0x2281
 9793 2f30 0C       		.byte	0xc
 9794 2f31 0C       		.uleb128 0xc
 9795 2f32 79110000 		.4byte	.LASF571
 9796 2f36 2F       		.byte	0x2f
 9797 2f37 CA       		.byte	0xca
 9798 2f38 03       		.byte	0x3
 9799 2f39 81220000 		.4byte	0x2281
 9800 2f3d 10       		.byte	0x10
 9801 2f3e 0C       		.uleb128 0xc
 9802 2f3f 19050000 		.4byte	.LASF549
 9803 2f43 2F       		.byte	0x2f
 9804 2f44 CA       		.byte	0xca
 9805 2f45 03       		.byte	0x3
 9806 2f46 A5220000 		.4byte	0x22a5
 9807 2f4a 14       		.byte	0x14
 9808 2f4b 0C       		.uleb128 0xc
 9809 2f4c 73150000 		.4byte	.LASF548
 9810 2f50 2F       		.byte	0x2f
 9811 2f51 CA       		.byte	0xca
 9812 2f52 03       		.byte	0x3
 9813 2f53 C9220000 		.4byte	0x22c9
 9814 2f57 18       		.byte	0x18
 9815 2f58 0C       		.uleb128 0xc
 9816 2f59 D0160000 		.4byte	.LASF572
 9817 2f5d 2F       		.byte	0x2f
 9818 2f5e CA       		.byte	0xca
 9819 2f5f 03       		.byte	0x3
 9820 2f60 81220000 		.4byte	0x2281
 9821 2f64 1C       		.byte	0x1c
 9822 2f65 0C       		.uleb128 0xc
 9823 2f66 D91D0000 		.4byte	.LASF573
 9824 2f6a 2F       		.byte	0x2f
 9825 2f6b CA       		.byte	0xca
 9826 2f6c 03       		.byte	0x3
 9827 2f6d E9220000 		.4byte	0x22e9
 9828 2f71 20       		.byte	0x20
 9829 2f72 00       		.byte	0
 9830 2f73 15       		.uleb128 0x15
 9831 2f74 F02E0000 		.4byte	0x2ef0
 9832 2f78 0E       		.uleb128 0xe
 9833 2f79 04       		.byte	0x4
 9834 2f7a 732F0000 		.4byte	0x2f73
 9835 2f7e 0E       		.uleb128 0xe
ARM GAS  /tmp/ccDQUTww.s 			page 174


 9836 2f7f 04       		.byte	0x4
 9837 2f80 EB2E0000 		.4byte	0x2eeb
 9838 2f84 0E       		.uleb128 0xe
 9839 2f85 04       		.byte	0x4
 9840 2f86 6F140000 		.4byte	0x146f
 9841 2f8a 09       		.uleb128 0x9
 9842 2f8b 66090000 		.4byte	0x966
 9843 2f8f 9B2F0000 		.4byte	0x2f9b
 9844 2f93 2E       		.uleb128 0x2e
 9845 2f94 3D000000 		.4byte	0x3d
 9846 2f98 FF01     		.2byte	0x1ff
 9847 2f9a 00       		.byte	0
 9848 2f9b 1C       		.uleb128 0x1c
 9849 2f9c 85160000 		.4byte	.LASF574
 9850 2fa0 2F       		.byte	0x2f
 9851 2fa1 0301     		.2byte	0x103
 9852 2fa3 12       		.byte	0x12
 9853 2fa4 042E0000 		.4byte	0x2e04
 9854 2fa8 29       		.uleb128 0x29
 9855 2fa9 07       		.byte	0x7
 9856 2faa 01       		.byte	0x1
 9857 2fab 72000000 		.4byte	0x72
 9858 2faf 30       		.byte	0x30
 9859 2fb0 74       		.byte	0x74
 9860 2fb1 0E       		.byte	0xe
 9861 2fb2 D52F0000 		.4byte	0x2fd5
 9862 2fb6 2A       		.uleb128 0x2a
 9863 2fb7 BA060000 		.4byte	.LASF575
 9864 2fbb 00       		.byte	0
 9865 2fbc 2A       		.uleb128 0x2a
 9866 2fbd 55030000 		.4byte	.LASF576
 9867 2fc1 01       		.byte	0x1
 9868 2fc2 2A       		.uleb128 0x2a
 9869 2fc3 141E0000 		.4byte	.LASF577
 9870 2fc7 02       		.byte	0x2
 9871 2fc8 2A       		.uleb128 0x2a
 9872 2fc9 AC0C0000 		.4byte	.LASF578
 9873 2fcd 03       		.byte	0x3
 9874 2fce 2A       		.uleb128 0x2a
 9875 2fcf FB100000 		.4byte	.LASF579
 9876 2fd3 04       		.byte	0x4
 9877 2fd4 00       		.byte	0
 9878 2fd5 03       		.uleb128 0x3
 9879 2fd6 AB030000 		.4byte	.LASF580
 9880 2fda 30       		.byte	0x30
 9881 2fdb 7A       		.byte	0x7a
 9882 2fdc 03       		.byte	0x3
 9883 2fdd A82F0000 		.4byte	0x2fa8
 9884 2fe1 03       		.uleb128 0x3
 9885 2fe2 791D0000 		.4byte	.LASF581
 9886 2fe6 30       		.byte	0x30
 9887 2fe7 7F       		.byte	0x7f
 9888 2fe8 1F       		.byte	0x1f
 9889 2fe9 ED2F0000 		.4byte	0x2fed
 9890 2fed 10       		.uleb128 0x10
 9891 2fee A9040000 		.4byte	.LASF582
 9892 2ff2 30       		.byte	0x30
ARM GAS  /tmp/ccDQUTww.s 			page 175


 9893 2ff3 30       		.byte	0x30
 9894 2ff4 C0       		.byte	0xc0
 9895 2ff5 08       		.byte	0x8
 9896 2ff6 6E300000 		.4byte	0x306e
 9897 2ffa 0C       		.uleb128 0xc
 9898 2ffb 5A130000 		.4byte	.LASF153
 9899 2fff 30       		.byte	0x30
 9900 3000 C4       		.byte	0xc4
 9901 3001 1D       		.byte	0x1d
 9902 3002 D52F0000 		.4byte	0x2fd5
 9903 3006 00       		.byte	0
 9904 3007 0C       		.uleb128 0xc
 9905 3008 68180000 		.4byte	.LASF452
 9906 300c 30       		.byte	0x30
 9907 300d C8       		.byte	0xc8
 9908 300e 1E       		.byte	0x1e
 9909 300f 44310000 		.4byte	0x3144
 9910 3013 04       		.byte	0x4
 9911 3014 0C       		.uleb128 0xc
 9912 3015 AD060000 		.4byte	.LASF456
 9913 3019 30       		.byte	0x30
 9914 301a CD       		.byte	0xcd
 9915 301b 1D       		.byte	0x1d
 9916 301c 360B0000 		.4byte	0xb36
 9917 3020 08       		.byte	0x8
 9918 3021 0C       		.uleb128 0xc
 9919 3022 DF0A0000 		.4byte	.LASF457
 9920 3026 30       		.byte	0x30
 9921 3027 D3       		.byte	0xd3
 9922 3028 1D       		.byte	0x1d
 9923 3029 E51B0000 		.4byte	0x1be5
 9924 302d 0C       		.byte	0xc
 9925 302e 11       		.uleb128 0x11
 9926 302f 73706900 		.ascii	"spi\000"
 9927 3033 30       		.byte	0x30
 9928 3034 D9       		.byte	0xd9
 9929 3035 03       		.byte	0x3
 9930 3036 4A310000 		.4byte	0x314a
 9931 303a 1C       		.byte	0x1c
 9932 303b 11       		.uleb128 0x11
 9933 303c 727800   		.ascii	"rx\000"
 9934 303f 30       		.byte	0x30
 9935 3040 D9       		.byte	0xd9
 9936 3041 03       		.byte	0x3
 9937 3042 18310000 		.4byte	0x3118
 9938 3046 20       		.byte	0x20
 9939 3047 11       		.uleb128 0x11
 9940 3048 747800   		.ascii	"tx\000"
 9941 304b 30       		.byte	0x30
 9942 304c D9       		.byte	0xd9
 9943 304d 03       		.byte	0x3
 9944 304e 2E310000 		.4byte	0x312e
 9945 3052 24       		.byte	0x24
 9946 3053 0C       		.uleb128 0xc
 9947 3054 E3070000 		.4byte	.LASF508
 9948 3058 30       		.byte	0x30
 9949 3059 D9       		.byte	0xd9
ARM GAS  /tmp/ccDQUTww.s 			page 176


 9950 305a 03       		.byte	0x3
 9951 305b 94090000 		.4byte	0x994
 9952 305f 28       		.byte	0x28
 9953 3060 0C       		.uleb128 0xc
 9954 3061 31080000 		.4byte	.LASF509
 9955 3065 30       		.byte	0x30
 9956 3066 D9       		.byte	0xd9
 9957 3067 03       		.byte	0x3
 9958 3068 94090000 		.4byte	0x994
 9959 306c 2C       		.byte	0x2c
 9960 306d 00       		.byte	0
 9961 306e 03       		.uleb128 0x3
 9962 306f 671C0000 		.4byte	.LASF583
 9963 3073 30       		.byte	0x30
 9964 3074 83       		.byte	0x83
 9965 3075 1F       		.byte	0x1f
 9966 3076 7F300000 		.4byte	0x307f
 9967 307a 15       		.uleb128 0x15
 9968 307b 6E300000 		.4byte	0x306e
 9969 307f 10       		.uleb128 0x10
 9970 3080 E51F0000 		.4byte	.LASF584
 9971 3084 18       		.byte	0x18
 9972 3085 30       		.byte	0x30
 9973 3086 94       		.byte	0x94
 9974 3087 08       		.byte	0x8
 9975 3088 DB300000 		.4byte	0x30db
 9976 308c 0C       		.uleb128 0xc
 9977 308d 701D0000 		.4byte	.LASF468
 9978 3091 30       		.byte	0x30
 9979 3092 99       		.byte	0x99
 9980 3093 1D       		.byte	0x1d
 9981 3094 7F1C0000 		.4byte	0x1c7f
 9982 3098 00       		.byte	0
 9983 3099 0C       		.uleb128 0xc
 9984 309a 8B080000 		.4byte	.LASF470
 9985 309e 30       		.byte	0x30
 9986 309f 9E       		.byte	0x9e
 9987 30a0 1D       		.byte	0x1d
 9988 30a1 DB300000 		.4byte	0x30db
 9989 30a5 04       		.byte	0x4
 9990 30a6 0C       		.uleb128 0xc
 9991 30a7 D31E0000 		.4byte	.LASF585
 9992 30ab 30       		.byte	0x30
 9993 30ac B3       		.byte	0xb3
 9994 30ad 1D       		.byte	0x1d
 9995 30ae 88250000 		.4byte	0x2588
 9996 30b2 08       		.byte	0x8
 9997 30b3 0C       		.uleb128 0xc
 9998 30b4 2B080000 		.4byte	.LASF586
 9999 30b8 30       		.byte	0x30
 10000 30b9 B7       		.byte	0xb7
 10001 30ba 1D       		.byte	0x1d
 10002 30bb B6090000 		.4byte	0x9b6
 10003 30bf 0C       		.byte	0xc
 10004 30c0 0C       		.uleb128 0xc
 10005 30c1 29130000 		.4byte	.LASF587
 10006 30c5 30       		.byte	0x30
ARM GAS  /tmp/ccDQUTww.s 			page 177


 10007 30c6 BA       		.byte	0xba
 10008 30c7 03       		.byte	0x3
 10009 30c8 94090000 		.4byte	0x994
 10010 30cc 10       		.byte	0x10
 10011 30cd 0C       		.uleb128 0xc
 10012 30ce 38150000 		.4byte	.LASF588
 10013 30d2 30       		.byte	0x30
 10014 30d3 BA       		.byte	0xba
 10015 30d4 03       		.byte	0x3
 10016 30d5 94090000 		.4byte	0x994
 10017 30d9 14       		.byte	0x14
 10018 30da 00       		.byte	0
 10019 30db 03       		.uleb128 0x3
 10020 30dc C7010000 		.4byte	.LASF589
 10021 30e0 30       		.byte	0x30
 10022 30e1 8B       		.byte	0x8b
 10023 30e2 10       		.byte	0x10
 10024 30e3 E7300000 		.4byte	0x30e7
 10025 30e7 0E       		.uleb128 0xe
 10026 30e8 04       		.byte	0x4
 10027 30e9 ED300000 		.4byte	0x30ed
 10028 30ed 1B       		.uleb128 0x1b
 10029 30ee F8300000 		.4byte	0x30f8
 10030 30f2 1A       		.uleb128 0x1a
 10031 30f3 F8300000 		.4byte	0x30f8
 10032 30f7 00       		.byte	0
 10033 30f8 0E       		.uleb128 0xe
 10034 30f9 04       		.byte	0x4
 10035 30fa E12F0000 		.4byte	0x2fe1
 10036 30fe 1C       		.uleb128 0x1c
 10037 30ff 9B1B0000 		.4byte	.LASF590
 10038 3103 31       		.byte	0x31
 10039 3104 1C02     		.2byte	0x21c
 10040 3106 12       		.byte	0x12
 10041 3107 E12F0000 		.4byte	0x2fe1
 10042 310b 1C       		.uleb128 0x1c
 10043 310c A11B0000 		.4byte	.LASF591
 10044 3110 31       		.byte	0x31
 10045 3111 2402     		.2byte	0x224
 10046 3113 12       		.byte	0x12
 10047 3114 E12F0000 		.4byte	0x2fe1
 10048 3118 07       		.uleb128 0x7
 10049 3119 04       		.byte	0x4
 10050 311a 30       		.byte	0x30
 10051 311b D9       		.byte	0xd9
 10052 311c 03       		.byte	0x3
 10053 311d 2E310000 		.4byte	0x312e
 10054 3121 23       		.uleb128 0x23
 10055 3122 646D6100 		.ascii	"dma\000"
 10056 3126 30       		.byte	0x30
 10057 3127 D9       		.byte	0xd9
 10058 3128 03       		.byte	0x3
 10059 3129 17280000 		.4byte	0x2817
 10060 312d 00       		.byte	0
 10061 312e 07       		.uleb128 0x7
 10062 312f 04       		.byte	0x4
 10063 3130 30       		.byte	0x30
ARM GAS  /tmp/ccDQUTww.s 			page 178


 10064 3131 D9       		.byte	0xd9
 10065 3132 03       		.byte	0x3
 10066 3133 44310000 		.4byte	0x3144
 10067 3137 23       		.uleb128 0x23
 10068 3138 646D6100 		.ascii	"dma\000"
 10069 313c 30       		.byte	0x30
 10070 313d D9       		.byte	0xd9
 10071 313e 03       		.byte	0x3
 10072 313f 17280000 		.4byte	0x2817
 10073 3143 00       		.byte	0
 10074 3144 0E       		.uleb128 0xe
 10075 3145 04       		.byte	0x4
 10076 3146 7A300000 		.4byte	0x307a
 10077 314a 0E       		.uleb128 0xe
 10078 314b 04       		.byte	0x4
 10079 314c 74150000 		.4byte	0x1574
 10080 3150 29       		.uleb128 0x29
 10081 3151 07       		.byte	0x7
 10082 3152 01       		.byte	0x1
 10083 3153 72000000 		.4byte	0x72
 10084 3157 32       		.byte	0x32
 10085 3158 31       		.byte	0x31
 10086 3159 0E       		.byte	0xe
 10087 315a 77310000 		.4byte	0x3177
 10088 315e 2A       		.uleb128 0x2a
 10089 315f BA070000 		.4byte	.LASF592
 10090 3163 00       		.byte	0
 10091 3164 2A       		.uleb128 0x2a
 10092 3165 5D050000 		.4byte	.LASF593
 10093 3169 01       		.byte	0x1
 10094 316a 2A       		.uleb128 0x2a
 10095 316b 71030000 		.4byte	.LASF594
 10096 316f 02       		.byte	0x2
 10097 3170 2A       		.uleb128 0x2a
 10098 3171 B70D0000 		.4byte	.LASF595
 10099 3175 03       		.byte	0x3
 10100 3176 00       		.byte	0
 10101 3177 03       		.uleb128 0x3
 10102 3178 8B150000 		.4byte	.LASF596
 10103 317c 32       		.byte	0x32
 10104 317d 36       		.byte	0x36
 10105 317e 03       		.byte	0x3
 10106 317f 50310000 		.4byte	0x3150
 10107 3183 03       		.uleb128 0x3
 10108 3184 DA010000 		.4byte	.LASF597
 10109 3188 32       		.byte	0x32
 10110 3189 3B       		.byte	0x3b
 10111 318a 20       		.byte	0x20
 10112 318b 8F310000 		.4byte	0x318f
 10113 318f 10       		.uleb128 0x10
 10114 3190 9B000000 		.4byte	.LASF598
 10115 3194 0C       		.byte	0xc
 10116 3195 32       		.byte	0x32
 10117 3196 52       		.byte	0x52
 10118 3197 08       		.byte	0x8
 10119 3198 C4310000 		.4byte	0x31c4
 10120 319c 0C       		.uleb128 0xc
ARM GAS  /tmp/ccDQUTww.s 			page 179


 10121 319d 5A130000 		.4byte	.LASF153
 10122 31a1 32       		.byte	0x32
 10123 31a2 56       		.byte	0x56
 10124 31a3 1E       		.byte	0x1e
 10125 31a4 77310000 		.4byte	0x3177
 10126 31a8 00       		.byte	0
 10127 31a9 0C       		.uleb128 0xc
 10128 31aa 68180000 		.4byte	.LASF452
 10129 31ae 32       		.byte	0x32
 10130 31af 5A       		.byte	0x5a
 10131 31b0 1F       		.byte	0x1f
 10132 31b1 FB310000 		.4byte	0x31fb
 10133 31b5 04       		.byte	0x4
 10134 31b6 11       		.uleb128 0x11
 10135 31b7 726E6700 		.ascii	"rng\000"
 10136 31bb 32       		.byte	0x32
 10137 31bc 5F       		.byte	0x5f
 10138 31bd 03       		.byte	0x3
 10139 31be 01320000 		.4byte	0x3201
 10140 31c2 08       		.byte	0x8
 10141 31c3 00       		.byte	0
 10142 31c4 03       		.uleb128 0x3
 10143 31c5 E5010000 		.4byte	.LASF599
 10144 31c9 32       		.byte	0x32
 10145 31ca 41       		.byte	0x41
 10146 31cb 20       		.byte	0x20
 10147 31cc D5310000 		.4byte	0x31d5
 10148 31d0 15       		.uleb128 0x15
 10149 31d1 C4310000 		.4byte	0x31c4
 10150 31d5 10       		.uleb128 0x10
 10151 31d6 AB000000 		.4byte	.LASF600
 10152 31da 04       		.byte	0x4
 10153 31db 32       		.byte	0x32
 10154 31dc 4A       		.byte	0x4a
 10155 31dd 08       		.byte	0x8
 10156 31de EF310000 		.4byte	0x31ef
 10157 31e2 11       		.uleb128 0x11
 10158 31e3 637200   		.ascii	"cr\000"
 10159 31e6 32       		.byte	0x32
 10160 31e7 4C       		.byte	0x4c
 10161 31e8 03       		.byte	0x3
 10162 31e9 94090000 		.4byte	0x994
 10163 31ed 00       		.byte	0
 10164 31ee 00       		.byte	0
 10165 31ef 20       		.uleb128 0x20
 10166 31f0 B9150000 		.4byte	.LASF601
 10167 31f4 33       		.byte	0x33
 10168 31f5 7B       		.byte	0x7b
 10169 31f6 13       		.byte	0x13
 10170 31f7 83310000 		.4byte	0x3183
 10171 31fb 0E       		.uleb128 0xe
 10172 31fc 04       		.byte	0x4
 10173 31fd D0310000 		.4byte	0x31d0
 10174 3201 0E       		.uleb128 0xe
 10175 3202 04       		.byte	0x4
 10176 3203 73160000 		.4byte	0x1673
 10177 3207 06       		.uleb128 0x6
ARM GAS  /tmp/ccDQUTww.s 			page 180


 10178 3208 520F0000 		.4byte	.LASF602
 10179 320c 34       		.byte	0x34
 10180 320d 0301     		.2byte	0x103
 10181 320f 1A       		.byte	0x1a
 10182 3210 14320000 		.4byte	0x3214
 10183 3214 16       		.uleb128 0x16
 10184 3215 520F0000 		.4byte	.LASF602
 10185 3219 9C       		.byte	0x9c
 10186 321a 35       		.byte	0x35
 10187 321b A501     		.2byte	0x1a5
 10188 321d 08       		.byte	0x8
 10189 321e 2D330000 		.4byte	0x332d
 10190 3222 17       		.uleb128 0x17
 10191 3223 5A130000 		.4byte	.LASF153
 10192 3227 35       		.byte	0x35
 10193 3228 A901     		.2byte	0x1a9
 10194 322a 21       		.byte	0x21
 10195 322b 6E330000 		.4byte	0x336e
 10196 322f 00       		.byte	0
 10197 3230 17       		.uleb128 0x17
 10198 3231 68180000 		.4byte	.LASF452
 10199 3235 35       		.byte	0x35
 10200 3236 AD01     		.2byte	0x1ad
 10201 3238 22       		.byte	0x22
 10202 3239 793C0000 		.4byte	0x3c79
 10203 323d 04       		.byte	0x4
 10204 323e 17       		.uleb128 0x17
 10205 323f 9B1C0000 		.4byte	.LASF603
 10206 3243 35       		.byte	0x35
 10207 3244 B101     		.2byte	0x1b1
 10208 3246 21       		.byte	0x21
 10209 3247 77090000 		.4byte	0x977
 10210 324b 08       		.byte	0x8
 10211 324c 17       		.uleb128 0x17
 10212 324d F71E0000 		.4byte	.LASF604
 10213 3251 35       		.byte	0x35
 10214 3252 B501     		.2byte	0x1b5
 10215 3254 21       		.byte	0x21
 10216 3255 77090000 		.4byte	0x977
 10217 3259 0A       		.byte	0xa
 10218 325a 18       		.uleb128 0x18
 10219 325b 65706300 		.ascii	"epc\000"
 10220 325f 35       		.byte	0x35
 10221 3260 B901     		.2byte	0x1b9
 10222 3262 22       		.byte	0x22
 10223 3263 7F3C0000 		.4byte	0x3c7f
 10224 3267 0C       		.byte	0xc
 10225 3268 17       		.uleb128 0x17
 10226 3269 D9040000 		.4byte	.LASF605
 10227 326d 35       		.byte	0x35
 10228 326e C001     		.2byte	0x1c0
 10229 3270 22       		.byte	0x22
 10230 3271 953C0000 		.4byte	0x3c95
 10231 3275 30       		.byte	0x30
 10232 3276 17       		.uleb128 0x17
 10233 3277 730A0000 		.4byte	.LASF606
 10234 327b 35       		.byte	0x35
ARM GAS  /tmp/ccDQUTww.s 			page 181


 10235 327c C701     		.2byte	0x1c7
 10236 327e 22       		.byte	0x22
 10237 327f 953C0000 		.4byte	0x3c95
 10238 3283 50       		.byte	0x50
 10239 3284 17       		.uleb128 0x17
 10240 3285 DE080000 		.4byte	.LASF607
 10241 3289 35       		.byte	0x35
 10242 328a CB01     		.2byte	0x1cb
 10243 328c 21       		.byte	0x21
 10244 328d B5330000 		.4byte	0x33b5
 10245 3291 70       		.byte	0x70
 10246 3292 17       		.uleb128 0x17
 10247 3293 BF170000 		.4byte	.LASF608
 10248 3297 35       		.byte	0x35
 10249 3298 CF01     		.2byte	0x1cf
 10250 329a 22       		.byte	0x22
 10251 329b D01C0000 		.4byte	0x1cd0
 10252 329f 74       		.byte	0x74
 10253 32a0 17       		.uleb128 0x17
 10254 32a1 C2140000 		.4byte	.LASF609
 10255 32a5 35       		.byte	0x35
 10256 32a6 D301     		.2byte	0x1d3
 10257 32a8 21       		.byte	0x21
 10258 32a9 2C000000 		.4byte	0x2c
 10259 32ad 78       		.byte	0x78
 10260 32ae 17       		.uleb128 0x17
 10261 32af 1E050000 		.4byte	.LASF610
 10262 32b3 35       		.byte	0x35
 10263 32b4 D701     		.2byte	0x1d7
 10264 32b6 21       		.byte	0x21
 10265 32b7 42340000 		.4byte	0x3442
 10266 32bb 7C       		.byte	0x7c
 10267 32bc 17       		.uleb128 0x17
 10268 32bd B4060000 		.4byte	.LASF611
 10269 32c1 35       		.byte	0x35
 10270 32c2 DB01     		.2byte	0x1db
 10271 32c4 21       		.byte	0x21
 10272 32c5 A53C0000 		.4byte	0x3ca5
 10273 32c9 80       		.byte	0x80
 10274 32ca 17       		.uleb128 0x17
 10275 32cb AC120000 		.4byte	.LASF612
 10276 32cf 35       		.byte	0x35
 10277 32d0 DF01     		.2byte	0x1df
 10278 32d2 21       		.byte	0x21
 10279 32d3 77090000 		.4byte	0x977
 10280 32d7 88       		.byte	0x88
 10281 32d8 17       		.uleb128 0x17
 10282 32d9 F0120000 		.4byte	.LASF613
 10283 32dd 35       		.byte	0x35
 10284 32de E301     		.2byte	0x1e3
 10285 32e0 21       		.byte	0x21
 10286 32e1 66090000 		.4byte	0x966
 10287 32e5 8A       		.byte	0x8a
 10288 32e6 17       		.uleb128 0x17
 10289 32e7 2A170000 		.4byte	.LASF614
 10290 32eb 35       		.byte	0x35
 10291 32ec E701     		.2byte	0x1e7
ARM GAS  /tmp/ccDQUTww.s 			page 182


 10292 32ee 21       		.byte	0x21
 10293 32ef 66090000 		.4byte	0x966
 10294 32f3 8B       		.byte	0x8b
 10295 32f4 17       		.uleb128 0x17
 10296 32f5 53060000 		.4byte	.LASF615
 10297 32f9 35       		.byte	0x35
 10298 32fa EB01     		.2byte	0x1eb
 10299 32fc 21       		.byte	0x21
 10300 32fd 6E330000 		.4byte	0x336e
 10301 3301 8C       		.byte	0x8c
 10302 3302 18       		.uleb128 0x18
 10303 3303 6F746700 		.ascii	"otg\000"
 10304 3307 35       		.byte	0x35
 10305 3308 F301     		.2byte	0x1f3
 10306 330a 22       		.byte	0x22
 10307 330b B53C0000 		.4byte	0x3cb5
 10308 330f 90       		.byte	0x90
 10309 3310 17       		.uleb128 0x17
 10310 3311 560C0000 		.4byte	.LASF616
 10311 3315 35       		.byte	0x35
 10312 3316 F701     		.2byte	0x1f7
 10313 3318 22       		.byte	0x22
 10314 3319 BB3C0000 		.4byte	0x3cbb
 10315 331d 94       		.byte	0x94
 10316 331e 17       		.uleb128 0x17
 10317 331f 421B0000 		.4byte	.LASF617
 10318 3323 35       		.byte	0x35
 10319 3324 FB01     		.2byte	0x1fb
 10320 3326 21       		.byte	0x21
 10321 3327 94090000 		.4byte	0x994
 10322 332b 98       		.byte	0x98
 10323 332c 00       		.byte	0
 10324 332d 06       		.uleb128 0x6
 10325 332e D31F0000 		.4byte	.LASF618
 10326 3332 34       		.byte	0x34
 10327 3333 0801     		.2byte	0x108
 10328 3335 11       		.byte	0x11
 10329 3336 66090000 		.4byte	0x966
 10330 333a 2B       		.uleb128 0x2b
 10331 333b 07       		.byte	0x7
 10332 333c 01       		.byte	0x1
 10333 333d 72000000 		.4byte	0x72
 10334 3341 34       		.byte	0x34
 10335 3342 0D01     		.2byte	0x10d
 10336 3344 0E       		.byte	0xe
 10337 3345 6E330000 		.4byte	0x336e
 10338 3349 2A       		.uleb128 0x2a
 10339 334a 68200000 		.4byte	.LASF619
 10340 334e 00       		.byte	0
 10341 334f 2A       		.uleb128 0x2a
 10342 3350 AB070000 		.4byte	.LASF620
 10343 3354 01       		.byte	0x1
 10344 3355 2A       		.uleb128 0x2a
 10345 3356 CF100000 		.4byte	.LASF621
 10346 335a 02       		.byte	0x2
 10347 335b 2A       		.uleb128 0x2a
 10348 335c 35160000 		.4byte	.LASF622
ARM GAS  /tmp/ccDQUTww.s 			page 183


 10349 3360 03       		.byte	0x3
 10350 3361 2A       		.uleb128 0x2a
 10351 3362 A0070000 		.4byte	.LASF623
 10352 3366 04       		.byte	0x4
 10353 3367 2A       		.uleb128 0x2a
 10354 3368 5A1D0000 		.4byte	.LASF624
 10355 336c 05       		.byte	0x5
 10356 336d 00       		.byte	0
 10357 336e 06       		.uleb128 0x6
 10358 336f 64210000 		.4byte	.LASF625
 10359 3373 34       		.byte	0x34
 10360 3374 1401     		.2byte	0x114
 10361 3376 03       		.byte	0x3
 10362 3377 3A330000 		.4byte	0x333a
 10363 337b 2B       		.uleb128 0x2b
 10364 337c 07       		.byte	0x7
 10365 337d 01       		.byte	0x1
 10366 337e 72000000 		.4byte	0x72
 10367 3382 34       		.byte	0x34
 10368 3383 2201     		.2byte	0x122
 10369 3385 0E       		.byte	0xe
 10370 3386 B5330000 		.4byte	0x33b5
 10371 338a 2A       		.uleb128 0x2a
 10372 338b E3170000 		.4byte	.LASF626
 10373 338f 00       		.byte	0
 10374 3390 2A       		.uleb128 0x2a
 10375 3391 1E1E0000 		.4byte	.LASF627
 10376 3395 09       		.byte	0x9
 10377 3396 2A       		.uleb128 0x2a
 10378 3397 D2020000 		.4byte	.LASF628
 10379 339b 0A       		.byte	0xa
 10380 339c 2A       		.uleb128 0x2a
 10381 339d B9190000 		.4byte	.LASF629
 10382 33a1 0B       		.byte	0xb
 10383 33a2 2A       		.uleb128 0x2a
 10384 33a3 38170000 		.4byte	.LASF630
 10385 33a7 14       		.byte	0x14
 10386 33a8 2A       		.uleb128 0x2a
 10387 33a9 5E0D0000 		.4byte	.LASF631
 10388 33ad 15       		.byte	0x15
 10389 33ae 2A       		.uleb128 0x2a
 10390 33af 500D0000 		.4byte	.LASF632
 10391 33b3 06       		.byte	0x6
 10392 33b4 00       		.byte	0
 10393 33b5 06       		.uleb128 0x6
 10394 33b6 030F0000 		.4byte	.LASF633
 10395 33ba 34       		.byte	0x34
 10396 33bb 2A01     		.2byte	0x12a
 10397 33bd 03       		.byte	0x3
 10398 33be 7B330000 		.4byte	0x337b
 10399 33c2 2B       		.uleb128 0x2b
 10400 33c3 07       		.byte	0x7
 10401 33c4 01       		.byte	0x1
 10402 33c5 72000000 		.4byte	0x72
 10403 33c9 34       		.byte	0x34
 10404 33ca 2F01     		.2byte	0x12f
 10405 33cc 0E       		.byte	0xe
ARM GAS  /tmp/ccDQUTww.s 			page 184


 10406 33cd FC330000 		.4byte	0x33fc
 10407 33d1 2A       		.uleb128 0x2a
 10408 33d2 D0190000 		.4byte	.LASF634
 10409 33d6 00       		.byte	0
 10410 33d7 2A       		.uleb128 0x2a
 10411 33d8 6B160000 		.4byte	.LASF635
 10412 33dc 01       		.byte	0x1
 10413 33dd 2A       		.uleb128 0x2a
 10414 33de 64110000 		.4byte	.LASF636
 10415 33e2 02       		.byte	0x2
 10416 33e3 2A       		.uleb128 0x2a
 10417 33e4 E0000000 		.4byte	.LASF637
 10418 33e8 03       		.byte	0x3
 10419 33e9 2A       		.uleb128 0x2a
 10420 33ea F6110000 		.4byte	.LASF638
 10421 33ee 04       		.byte	0x4
 10422 33ef 2A       		.uleb128 0x2a
 10423 33f0 691E0000 		.4byte	.LASF639
 10424 33f4 05       		.byte	0x5
 10425 33f5 2A       		.uleb128 0x2a
 10426 33f6 0F110000 		.4byte	.LASF640
 10427 33fa 06       		.byte	0x6
 10428 33fb 00       		.byte	0
 10429 33fc 06       		.uleb128 0x6
 10430 33fd 95160000 		.4byte	.LASF641
 10431 3401 34       		.byte	0x34
 10432 3402 3701     		.2byte	0x137
 10433 3404 03       		.byte	0x3
 10434 3405 C2330000 		.4byte	0x33c2
 10435 3409 21       		.uleb128 0x21
 10436 340a 08       		.byte	0x8
 10437 340b 34       		.byte	0x34
 10438 340c 3C01     		.2byte	0x13c
 10439 340e 09       		.byte	0x9
 10440 340f 30340000 		.4byte	0x3430
 10441 3413 17       		.uleb128 0x17
 10442 3414 FE200000 		.4byte	.LASF642
 10443 3418 34       		.byte	0x34
 10444 3419 4001     		.2byte	0x140
 10445 341b 21       		.byte	0x21
 10446 341c 2C000000 		.4byte	0x2c
 10447 3420 00       		.byte	0
 10448 3421 17       		.uleb128 0x17
 10449 3422 F2040000 		.4byte	.LASF643
 10450 3426 34       		.byte	0x34
 10451 3427 4401     		.2byte	0x144
 10452 3429 22       		.byte	0x22
 10453 342a F7200000 		.4byte	0x20f7
 10454 342e 04       		.byte	0x4
 10455 342f 00       		.byte	0
 10456 3430 06       		.uleb128 0x6
 10457 3431 B2160000 		.4byte	.LASF644
 10458 3435 34       		.byte	0x34
 10459 3436 4501     		.2byte	0x145
 10460 3438 03       		.byte	0x3
 10461 3439 09340000 		.4byte	0x3409
 10462 343d 15       		.uleb128 0x15
ARM GAS  /tmp/ccDQUTww.s 			page 185


 10463 343e 30340000 		.4byte	0x3430
 10464 3442 06       		.uleb128 0x6
 10465 3443 AC200000 		.4byte	.LASF645
 10466 3447 34       		.byte	0x34
 10467 3448 4D01     		.2byte	0x14d
 10468 344a 10       		.byte	0x10
 10469 344b 4F340000 		.4byte	0x344f
 10470 344f 0E       		.uleb128 0xe
 10471 3450 04       		.byte	0x4
 10472 3451 55340000 		.4byte	0x3455
 10473 3455 1B       		.uleb128 0x1b
 10474 3456 60340000 		.4byte	0x3460
 10475 345a 1A       		.uleb128 0x1a
 10476 345b 60340000 		.4byte	0x3460
 10477 345f 00       		.byte	0
 10478 3460 0E       		.uleb128 0xe
 10479 3461 04       		.byte	0x4
 10480 3462 07320000 		.4byte	0x3207
 10481 3466 06       		.uleb128 0x6
 10482 3467 40050000 		.4byte	.LASF646
 10483 346b 34       		.byte	0x34
 10484 346c 5601     		.2byte	0x156
 10485 346e 10       		.byte	0x10
 10486 346f 73340000 		.4byte	0x3473
 10487 3473 0E       		.uleb128 0xe
 10488 3474 04       		.byte	0x4
 10489 3475 79340000 		.4byte	0x3479
 10490 3479 1B       		.uleb128 0x1b
 10491 347a 89340000 		.4byte	0x3489
 10492 347e 1A       		.uleb128 0x1a
 10493 347f 60340000 		.4byte	0x3460
 10494 3483 1A       		.uleb128 0x1a
 10495 3484 2D330000 		.4byte	0x332d
 10496 3488 00       		.byte	0
 10497 3489 06       		.uleb128 0x6
 10498 348a 9F090000 		.4byte	.LASF647
 10499 348e 34       		.byte	0x34
 10500 348f 5F01     		.2byte	0x15f
 10501 3491 10       		.byte	0x10
 10502 3492 96340000 		.4byte	0x3496
 10503 3496 0E       		.uleb128 0xe
 10504 3497 04       		.byte	0x4
 10505 3498 9C340000 		.4byte	0x349c
 10506 349c 1B       		.uleb128 0x1b
 10507 349d AC340000 		.4byte	0x34ac
 10508 34a1 1A       		.uleb128 0x1a
 10509 34a2 60340000 		.4byte	0x3460
 10510 34a6 1A       		.uleb128 0x1a
 10511 34a7 FC330000 		.4byte	0x33fc
 10512 34ab 00       		.byte	0
 10513 34ac 06       		.uleb128 0x6
 10514 34ad 24060000 		.4byte	.LASF648
 10515 34b1 34       		.byte	0x34
 10516 34b2 6B01     		.2byte	0x16b
 10517 34b4 10       		.byte	0x10
 10518 34b5 B9340000 		.4byte	0x34b9
 10519 34b9 0E       		.uleb128 0xe
ARM GAS  /tmp/ccDQUTww.s 			page 186


 10520 34ba 04       		.byte	0x4
 10521 34bb BF340000 		.4byte	0x34bf
 10522 34bf 19       		.uleb128 0x19
 10523 34c0 7F1C0000 		.4byte	0x1c7f
 10524 34c4 CE340000 		.4byte	0x34ce
 10525 34c8 1A       		.uleb128 0x1a
 10526 34c9 60340000 		.4byte	0x3460
 10527 34cd 00       		.byte	0
 10528 34ce 06       		.uleb128 0x6
 10529 34cf C40D0000 		.4byte	.LASF649
 10530 34d3 34       		.byte	0x34
 10531 34d4 7001     		.2byte	0x170
 10532 34d6 21       		.byte	0x21
 10533 34d7 DB340000 		.4byte	0x34db
 10534 34db 0E       		.uleb128 0xe
 10535 34dc 04       		.byte	0x4
 10536 34dd E1340000 		.4byte	0x34e1
 10537 34e1 19       		.uleb128 0x19
 10538 34e2 FF340000 		.4byte	0x34ff
 10539 34e6 FF340000 		.4byte	0x34ff
 10540 34ea 1A       		.uleb128 0x1a
 10541 34eb 60340000 		.4byte	0x3460
 10542 34ef 1A       		.uleb128 0x1a
 10543 34f0 66090000 		.4byte	0x966
 10544 34f4 1A       		.uleb128 0x1a
 10545 34f5 66090000 		.4byte	0x966
 10546 34f9 1A       		.uleb128 0x1a
 10547 34fa 77090000 		.4byte	0x977
 10548 34fe 00       		.byte	0
 10549 34ff 0E       		.uleb128 0xe
 10550 3500 04       		.byte	0x4
 10551 3501 3D340000 		.4byte	0x343d
 10552 3505 0B       		.uleb128 0xb
 10553 3506 20       		.byte	0x20
 10554 3507 36       		.byte	0x36
 10555 3508 29       		.byte	0x29
 10556 3509 09       		.byte	0x9
 10557 350a 77350000 		.4byte	0x3577
 10558 350e 0C       		.uleb128 0xc
 10559 350f C4030000 		.4byte	.LASF650
 10560 3513 36       		.byte	0x36
 10561 3514 2A       		.byte	0x2a
 10562 3515 15       		.byte	0x15
 10563 3516 A0090000 		.4byte	0x9a0
 10564 351a 00       		.byte	0
 10565 351b 0C       		.uleb128 0xc
 10566 351c 740B0000 		.4byte	.LASF651
 10567 3520 36       		.byte	0x36
 10568 3521 2C       		.byte	0x2c
 10569 3522 15       		.byte	0x15
 10570 3523 A0090000 		.4byte	0x9a0
 10571 3527 04       		.byte	0x4
 10572 3528 0C       		.uleb128 0xc
 10573 3529 22030000 		.4byte	.LASF652
 10574 352d 36       		.byte	0x36
 10575 352e 2D       		.byte	0x2d
 10576 352f 15       		.byte	0x15
ARM GAS  /tmp/ccDQUTww.s 			page 187


 10577 3530 A0090000 		.4byte	0x9a0
 10578 3534 08       		.byte	0x8
 10579 3535 0C       		.uleb128 0xc
 10580 3536 41180000 		.4byte	.LASF653
 10581 353a 36       		.byte	0x36
 10582 353b 2E       		.byte	0x2e
 10583 353c 15       		.byte	0x15
 10584 353d A0090000 		.4byte	0x9a0
 10585 3541 0C       		.byte	0xc
 10586 3542 0C       		.uleb128 0xc
 10587 3543 9C110000 		.4byte	.LASF654
 10588 3547 36       		.byte	0x36
 10589 3548 30       		.byte	0x30
 10590 3549 15       		.byte	0x15
 10591 354a A0090000 		.4byte	0x9a0
 10592 354e 10       		.byte	0x10
 10593 354f 0C       		.uleb128 0xc
 10594 3550 7C030000 		.4byte	.LASF655
 10595 3554 36       		.byte	0x36
 10596 3555 32       		.byte	0x32
 10597 3556 15       		.byte	0x15
 10598 3557 A0090000 		.4byte	0x9a0
 10599 355b 14       		.byte	0x14
 10600 355c 0C       		.uleb128 0xc
 10601 355d C60B0000 		.4byte	.LASF656
 10602 3561 36       		.byte	0x36
 10603 3562 33       		.byte	0x33
 10604 3563 15       		.byte	0x15
 10605 3564 A0090000 		.4byte	0x9a0
 10606 3568 18       		.byte	0x18
 10607 3569 0C       		.uleb128 0xc
 10608 356a 5C040000 		.4byte	.LASF657
 10609 356e 36       		.byte	0x36
 10610 356f 34       		.byte	0x34
 10611 3570 15       		.byte	0x15
 10612 3571 A0090000 		.4byte	0x9a0
 10613 3575 1C       		.byte	0x1c
 10614 3576 00       		.byte	0
 10615 3577 03       		.uleb128 0x3
 10616 3578 CE170000 		.4byte	.LASF658
 10617 357c 36       		.byte	0x36
 10618 357d 35       		.byte	0x35
 10619 357e 03       		.byte	0x3
 10620 357f 05350000 		.4byte	0x3505
 10621 3583 0B       		.uleb128 0xb
 10622 3584 20       		.byte	0x20
 10623 3585 36       		.byte	0x36
 10624 3586 3A       		.byte	0x3a
 10625 3587 09       		.byte	0x9
 10626 3588 F5350000 		.4byte	0x35f5
 10627 358c 0C       		.uleb128 0xc
 10628 358d 4E0C0000 		.4byte	.LASF659
 10629 3591 36       		.byte	0x36
 10630 3592 3B       		.byte	0x3b
 10631 3593 15       		.byte	0x15
 10632 3594 A0090000 		.4byte	0x9a0
 10633 3598 00       		.byte	0
ARM GAS  /tmp/ccDQUTww.s 			page 188


 10634 3599 0C       		.uleb128 0xc
 10635 359a 600B0000 		.4byte	.LASF660
 10636 359e 36       		.byte	0x36
 10637 359f 3D       		.byte	0x3d
 10638 35a0 15       		.byte	0x15
 10639 35a1 A0090000 		.4byte	0x9a0
 10640 35a5 04       		.byte	0x4
 10641 35a6 0C       		.uleb128 0xc
 10642 35a7 CF1B0000 		.4byte	.LASF661
 10643 35ab 36       		.byte	0x36
 10644 35ac 3E       		.byte	0x3e
 10645 35ad 15       		.byte	0x15
 10646 35ae A0090000 		.4byte	0x9a0
 10647 35b2 08       		.byte	0x8
 10648 35b3 0C       		.uleb128 0xc
 10649 35b4 6F0F0000 		.4byte	.LASF662
 10650 35b8 36       		.byte	0x36
 10651 35b9 40       		.byte	0x40
 10652 35ba 15       		.byte	0x15
 10653 35bb A0090000 		.4byte	0x9a0
 10654 35bf 0C       		.byte	0xc
 10655 35c0 0C       		.uleb128 0xc
 10656 35c1 11140000 		.4byte	.LASF663
 10657 35c5 36       		.byte	0x36
 10658 35c6 41       		.byte	0x41
 10659 35c7 15       		.byte	0x15
 10660 35c8 A0090000 		.4byte	0x9a0
 10661 35cc 10       		.byte	0x10
 10662 35cd 0C       		.uleb128 0xc
 10663 35ce 7C030000 		.4byte	.LASF655
 10664 35d2 36       		.byte	0x36
 10665 35d3 43       		.byte	0x43
 10666 35d4 15       		.byte	0x15
 10667 35d5 A0090000 		.4byte	0x9a0
 10668 35d9 14       		.byte	0x14
 10669 35da 0C       		.uleb128 0xc
 10670 35db A3170000 		.4byte	.LASF664
 10671 35df 36       		.byte	0x36
 10672 35e0 44       		.byte	0x44
 10673 35e1 15       		.byte	0x15
 10674 35e2 A0090000 		.4byte	0x9a0
 10675 35e6 18       		.byte	0x18
 10676 35e7 0C       		.uleb128 0xc
 10677 35e8 C71B0000 		.4byte	.LASF665
 10678 35ec 36       		.byte	0x36
 10679 35ed 46       		.byte	0x46
 10680 35ee 15       		.byte	0x15
 10681 35ef A0090000 		.4byte	0x9a0
 10682 35f3 1C       		.byte	0x1c
 10683 35f4 00       		.byte	0
 10684 35f5 03       		.uleb128 0x3
 10685 35f6 C6070000 		.4byte	.LASF666
 10686 35fa 36       		.byte	0x36
 10687 35fb 47       		.byte	0x47
 10688 35fc 03       		.byte	0x3
 10689 35fd 83350000 		.4byte	0x3583
 10690 3601 0B       		.uleb128 0xb
ARM GAS  /tmp/ccDQUTww.s 			page 189


 10691 3602 20       		.byte	0x20
 10692 3603 36       		.byte	0x36
 10693 3604 4C       		.byte	0x4c
 10694 3605 09       		.byte	0x9
 10695 3606 73360000 		.4byte	0x3673
 10696 360a 0C       		.uleb128 0xc
 10697 360b 44120000 		.4byte	.LASF667
 10698 360f 36       		.byte	0x36
 10699 3610 4D       		.byte	0x4d
 10700 3611 15       		.byte	0x15
 10701 3612 A0090000 		.4byte	0x9a0
 10702 3616 00       		.byte	0
 10703 3617 0C       		.uleb128 0xc
 10704 3618 600B0000 		.4byte	.LASF660
 10705 361c 36       		.byte	0x36
 10706 361d 4F       		.byte	0x4f
 10707 361e 15       		.byte	0x15
 10708 361f A0090000 		.4byte	0x9a0
 10709 3623 04       		.byte	0x4
 10710 3624 0C       		.uleb128 0xc
 10711 3625 9F150000 		.4byte	.LASF668
 10712 3629 36       		.byte	0x36
 10713 362a 50       		.byte	0x50
 10714 362b 15       		.byte	0x15
 10715 362c A0090000 		.4byte	0x9a0
 10716 3630 08       		.byte	0x8
 10717 3631 0C       		.uleb128 0xc
 10718 3632 6F0F0000 		.4byte	.LASF662
 10719 3636 36       		.byte	0x36
 10720 3637 52       		.byte	0x52
 10721 3638 15       		.byte	0x15
 10722 3639 A0090000 		.4byte	0x9a0
 10723 363d 0C       		.byte	0xc
 10724 363e 0C       		.uleb128 0xc
 10725 363f D71C0000 		.4byte	.LASF669
 10726 3643 36       		.byte	0x36
 10727 3644 53       		.byte	0x53
 10728 3645 15       		.byte	0x15
 10729 3646 A0090000 		.4byte	0x9a0
 10730 364a 10       		.byte	0x10
 10731 364b 0C       		.uleb128 0xc
 10732 364c 7C030000 		.4byte	.LASF655
 10733 3650 36       		.byte	0x36
 10734 3651 55       		.byte	0x55
 10735 3652 15       		.byte	0x15
 10736 3653 A0090000 		.4byte	0x9a0
 10737 3657 14       		.byte	0x14
 10738 3658 0C       		.uleb128 0xc
 10739 3659 C60B0000 		.4byte	.LASF656
 10740 365d 36       		.byte	0x36
 10741 365e 56       		.byte	0x56
 10742 365f 15       		.byte	0x15
 10743 3660 A0090000 		.4byte	0x9a0
 10744 3664 18       		.byte	0x18
 10745 3665 0C       		.uleb128 0xc
 10746 3666 C71B0000 		.4byte	.LASF665
 10747 366a 36       		.byte	0x36
ARM GAS  /tmp/ccDQUTww.s 			page 190


 10748 366b 57       		.byte	0x57
 10749 366c 15       		.byte	0x15
 10750 366d A0090000 		.4byte	0x9a0
 10751 3671 1C       		.byte	0x1c
 10752 3672 00       		.byte	0
 10753 3673 03       		.uleb128 0x3
 10754 3674 4F070000 		.4byte	.LASF670
 10755 3678 36       		.byte	0x36
 10756 3679 58       		.byte	0x58
 10757 367a 03       		.byte	0x3
 10758 367b 01360000 		.4byte	0x3601
 10759 367f 2F       		.uleb128 0x2f
 10760 3680 00100100 		.4byte	0x11000
 10761 3684 36       		.byte	0x36
 10762 3685 5D       		.byte	0x5d
 10763 3686 09       		.byte	0x9
 10764 3687 96390000 		.4byte	0x3996
 10765 368b 0C       		.uleb128 0xc
 10766 368c 38050000 		.4byte	.LASF671
 10767 3690 36       		.byte	0x36
 10768 3691 5E       		.byte	0x5e
 10769 3692 15       		.byte	0x15
 10770 3693 A0090000 		.4byte	0x9a0
 10771 3697 00       		.byte	0
 10772 3698 0C       		.uleb128 0xc
 10773 3699 6B150000 		.4byte	.LASF672
 10774 369d 36       		.byte	0x36
 10775 369e 5F       		.byte	0x5f
 10776 369f 15       		.byte	0x15
 10777 36a0 A0090000 		.4byte	0x9a0
 10778 36a4 04       		.byte	0x4
 10779 36a5 0C       		.uleb128 0xc
 10780 36a6 19070000 		.4byte	.LASF673
 10781 36aa 36       		.byte	0x36
 10782 36ab 60       		.byte	0x60
 10783 36ac 15       		.byte	0x15
 10784 36ad A0090000 		.4byte	0x9a0
 10785 36b1 08       		.byte	0x8
 10786 36b2 0C       		.uleb128 0xc
 10787 36b3 CE200000 		.4byte	.LASF674
 10788 36b7 36       		.byte	0x36
 10789 36b8 61       		.byte	0x61
 10790 36b9 15       		.byte	0x15
 10791 36ba A0090000 		.4byte	0x9a0
 10792 36be 0C       		.byte	0xc
 10793 36bf 0C       		.uleb128 0xc
 10794 36c0 681D0000 		.4byte	.LASF675
 10795 36c4 36       		.byte	0x36
 10796 36c5 62       		.byte	0x62
 10797 36c6 15       		.byte	0x15
 10798 36c7 A0090000 		.4byte	0x9a0
 10799 36cb 10       		.byte	0x10
 10800 36cc 0C       		.uleb128 0xc
 10801 36cd 29040000 		.4byte	.LASF676
 10802 36d1 36       		.byte	0x36
 10803 36d2 63       		.byte	0x63
 10804 36d3 15       		.byte	0x15
ARM GAS  /tmp/ccDQUTww.s 			page 191


 10805 36d4 A0090000 		.4byte	0x9a0
 10806 36d8 14       		.byte	0x14
 10807 36d9 0C       		.uleb128 0xc
 10808 36da 19170000 		.4byte	.LASF677
 10809 36de 36       		.byte	0x36
 10810 36df 64       		.byte	0x64
 10811 36e0 15       		.byte	0x15
 10812 36e1 A0090000 		.4byte	0x9a0
 10813 36e5 18       		.byte	0x18
 10814 36e6 0C       		.uleb128 0xc
 10815 36e7 6A070000 		.4byte	.LASF678
 10816 36eb 36       		.byte	0x36
 10817 36ec 65       		.byte	0x65
 10818 36ed 15       		.byte	0x15
 10819 36ee A0090000 		.4byte	0x9a0
 10820 36f2 1C       		.byte	0x1c
 10821 36f3 0C       		.uleb128 0xc
 10822 36f4 62070000 		.4byte	.LASF679
 10823 36f8 36       		.byte	0x36
 10824 36f9 67       		.byte	0x67
 10825 36fa 15       		.byte	0x15
 10826 36fb A0090000 		.4byte	0x9a0
 10827 36ff 20       		.byte	0x20
 10828 3700 0C       		.uleb128 0xc
 10829 3701 C8160000 		.4byte	.LASF680
 10830 3705 36       		.byte	0x36
 10831 3706 69       		.byte	0x69
 10832 3707 15       		.byte	0x15
 10833 3708 A0090000 		.4byte	0x9a0
 10834 370c 24       		.byte	0x24
 10835 370d 0C       		.uleb128 0xc
 10836 370e F7000000 		.4byte	.LASF681
 10837 3712 36       		.byte	0x36
 10838 3713 6A       		.byte	0x6a
 10839 3714 15       		.byte	0x15
 10840 3715 A0090000 		.4byte	0x9a0
 10841 3719 28       		.byte	0x28
 10842 371a 0C       		.uleb128 0xc
 10843 371b 21170000 		.4byte	.LASF682
 10844 371f 36       		.byte	0x36
 10845 3720 6C       		.byte	0x6c
 10846 3721 15       		.byte	0x15
 10847 3722 A0090000 		.4byte	0x9a0
 10848 3726 2C       		.byte	0x2c
 10849 3727 0C       		.uleb128 0xc
 10850 3728 F10C0000 		.4byte	.LASF683
 10851 372c 36       		.byte	0x36
 10852 372d 6E       		.byte	0x6e
 10853 372e 15       		.byte	0x15
 10854 372f A0090000 		.4byte	0x9a0
 10855 3733 30       		.byte	0x30
 10856 3734 0C       		.uleb128 0xc
 10857 3735 A71E0000 		.4byte	.LASF684
 10858 3739 36       		.byte	0x36
 10859 373a 6F       		.byte	0x6f
 10860 373b 15       		.byte	0x15
 10861 373c A0090000 		.4byte	0x9a0
ARM GAS  /tmp/ccDQUTww.s 			page 192


 10862 3740 34       		.byte	0x34
 10863 3741 0C       		.uleb128 0xc
 10864 3742 41020000 		.4byte	.LASF685
 10865 3746 36       		.byte	0x36
 10866 3747 70       		.byte	0x70
 10867 3748 15       		.byte	0x15
 10868 3749 A0090000 		.4byte	0x9a0
 10869 374d 38       		.byte	0x38
 10870 374e 11       		.uleb128 0x11
 10871 374f 43494400 		.ascii	"CID\000"
 10872 3753 36       		.byte	0x36
 10873 3754 71       		.byte	0x71
 10874 3755 15       		.byte	0x15
 10875 3756 A0090000 		.4byte	0x9a0
 10876 375a 3C       		.byte	0x3c
 10877 375b 0C       		.uleb128 0xc
 10878 375c 23080000 		.4byte	.LASF686
 10879 3760 36       		.byte	0x36
 10880 3761 72       		.byte	0x72
 10881 3762 15       		.byte	0x15
 10882 3763 A6390000 		.4byte	0x39a6
 10883 3767 40       		.byte	0x40
 10884 3768 13       		.uleb128 0x13
 10885 3769 C21D0000 		.4byte	.LASF687
 10886 376d 36       		.byte	0x36
 10887 376e 73       		.byte	0x73
 10888 376f 15       		.byte	0x15
 10889 3770 A0090000 		.4byte	0x9a0
 10890 3774 0001     		.2byte	0x100
 10891 3776 13       		.uleb128 0x13
 10892 3777 CA020000 		.4byte	.LASF688
 10893 377b 36       		.byte	0x36
 10894 377c 75       		.byte	0x75
 10895 377d 15       		.byte	0x15
 10896 377e 90160000 		.4byte	0x1690
 10897 3782 0401     		.2byte	0x104
 10898 3784 13       		.uleb128 0x13
 10899 3785 CF110000 		.4byte	.LASF689
 10900 3789 36       		.byte	0x36
 10901 378a 77       		.byte	0x77
 10902 378b 15       		.byte	0x15
 10903 378c BB390000 		.4byte	0x39bb
 10904 3790 4001     		.2byte	0x140
 10905 3792 13       		.uleb128 0x13
 10906 3793 07150000 		.4byte	.LASF690
 10907 3797 36       		.byte	0x36
 10908 3798 78       		.byte	0x78
 10909 3799 15       		.byte	0x15
 10910 379a A0090000 		.4byte	0x9a0
 10911 379e 0004     		.2byte	0x400
 10912 37a0 13       		.uleb128 0x13
 10913 37a1 63200000 		.4byte	.LASF691
 10914 37a5 36       		.byte	0x36
 10915 37a6 79       		.byte	0x79
 10916 37a7 15       		.byte	0x15
 10917 37a8 A0090000 		.4byte	0x9a0
 10918 37ac 0404     		.2byte	0x404
ARM GAS  /tmp/ccDQUTww.s 			page 193


 10919 37ae 13       		.uleb128 0x13
 10920 37af 9E040000 		.4byte	.LASF692
 10921 37b3 36       		.byte	0x36
 10922 37b4 7A       		.byte	0x7a
 10923 37b5 15       		.byte	0x15
 10924 37b6 A0090000 		.4byte	0x9a0
 10925 37ba 0804     		.2byte	0x408
 10926 37bc 13       		.uleb128 0x13
 10927 37bd 511D0000 		.4byte	.LASF693
 10928 37c1 36       		.byte	0x36
 10929 37c2 7C       		.byte	0x7c
 10930 37c3 15       		.byte	0x15
 10931 37c4 A0090000 		.4byte	0x9a0
 10932 37c8 0C04     		.2byte	0x40c
 10933 37ca 13       		.uleb128 0x13
 10934 37cb 84030000 		.4byte	.LASF694
 10935 37cf 36       		.byte	0x36
 10936 37d0 7D       		.byte	0x7d
 10937 37d1 15       		.byte	0x15
 10938 37d2 A0090000 		.4byte	0x9a0
 10939 37d6 1004     		.2byte	0x410
 10940 37d8 13       		.uleb128 0x13
 10941 37d9 6F040000 		.4byte	.LASF695
 10942 37dd 36       		.byte	0x36
 10943 37de 7F       		.byte	0x7f
 10944 37df 15       		.byte	0x15
 10945 37e0 A0090000 		.4byte	0x9a0
 10946 37e4 1404     		.2byte	0x414
 10947 37e6 13       		.uleb128 0x13
 10948 37e7 6A0A0000 		.4byte	.LASF696
 10949 37eb 36       		.byte	0x36
 10950 37ec 81       		.byte	0x81
 10951 37ed 15       		.byte	0x15
 10952 37ee A0090000 		.4byte	0x9a0
 10953 37f2 1804     		.2byte	0x418
 10954 37f4 13       		.uleb128 0x13
 10955 37f5 8F190000 		.4byte	.LASF697
 10956 37f9 36       		.byte	0x36
 10957 37fa 83       		.byte	0x83
 10958 37fb 15       		.byte	0x15
 10959 37fc D0390000 		.4byte	0x39d0
 10960 3800 1C04     		.2byte	0x41c
 10961 3802 13       		.uleb128 0x13
 10962 3803 1D030000 		.4byte	.LASF698
 10963 3807 36       		.byte	0x36
 10964 3808 84       		.byte	0x84
 10965 3809 15       		.byte	0x15
 10966 380a A0090000 		.4byte	0x9a0
 10967 380e 4004     		.2byte	0x440
 10968 3810 13       		.uleb128 0x13
 10969 3811 FE1A0000 		.4byte	.LASF699
 10970 3815 36       		.byte	0x36
 10971 3816 86       		.byte	0x86
 10972 3817 15       		.byte	0x15
 10973 3818 E5390000 		.4byte	0x39e5
 10974 381c 4404     		.2byte	0x444
 10975 381e 30       		.uleb128 0x30
ARM GAS  /tmp/ccDQUTww.s 			page 194


 10976 381f 686300   		.ascii	"hc\000"
 10977 3822 36       		.byte	0x36
 10978 3823 87       		.byte	0x87
 10979 3824 18       		.byte	0x18
 10980 3825 EA390000 		.4byte	0x39ea
 10981 3829 0005     		.2byte	0x500
 10982 382b 13       		.uleb128 0x13
 10983 382c 961D0000 		.4byte	.LASF700
 10984 3830 36       		.byte	0x36
 10985 3831 88       		.byte	0x88
 10986 3832 15       		.byte	0x15
 10987 3833 0A3A0000 		.4byte	0x3a0a
 10988 3837 0007     		.2byte	0x700
 10989 3839 13       		.uleb128 0x13
 10990 383a 00170000 		.4byte	.LASF701
 10991 383e 36       		.byte	0x36
 10992 383f 89       		.byte	0x89
 10993 3840 15       		.byte	0x15
 10994 3841 A0090000 		.4byte	0x9a0
 10995 3845 0008     		.2byte	0x800
 10996 3847 13       		.uleb128 0x13
 10997 3848 441E0000 		.4byte	.LASF702
 10998 384c 36       		.byte	0x36
 10999 384d 8A       		.byte	0x8a
 11000 384e 15       		.byte	0x15
 11001 384f A0090000 		.4byte	0x9a0
 11002 3853 0408     		.2byte	0x804
 11003 3855 13       		.uleb128 0x13
 11004 3856 7E0A0000 		.4byte	.LASF703
 11005 385a 36       		.byte	0x36
 11006 385b 8B       		.byte	0x8b
 11007 385c 15       		.byte	0x15
 11008 385d A0090000 		.4byte	0x9a0
 11009 3861 0808     		.2byte	0x808
 11010 3863 13       		.uleb128 0x13
 11011 3864 27050000 		.4byte	.LASF704
 11012 3868 36       		.byte	0x36
 11013 3869 8C       		.byte	0x8c
 11014 386a 15       		.byte	0x15
 11015 386b A0090000 		.4byte	0x9a0
 11016 386f 0C08     		.2byte	0x80c
 11017 3871 13       		.uleb128 0x13
 11018 3872 520A0000 		.4byte	.LASF705
 11019 3876 36       		.byte	0x36
 11020 3877 8D       		.byte	0x8d
 11021 3878 15       		.byte	0x15
 11022 3879 A0090000 		.4byte	0x9a0
 11023 387d 1008     		.2byte	0x810
 11024 387f 13       		.uleb128 0x13
 11025 3880 FB1B0000 		.4byte	.LASF706
 11026 3884 36       		.byte	0x36
 11027 3885 8F       		.byte	0x8f
 11028 3886 15       		.byte	0x15
 11029 3887 A0090000 		.4byte	0x9a0
 11030 388b 1408     		.2byte	0x814
 11031 388d 13       		.uleb128 0x13
 11032 388e 561C0000 		.4byte	.LASF707
ARM GAS  /tmp/ccDQUTww.s 			page 195


 11033 3892 36       		.byte	0x36
 11034 3893 91       		.byte	0x91
 11035 3894 15       		.byte	0x15
 11036 3895 A0090000 		.4byte	0x9a0
 11037 3899 1808     		.2byte	0x818
 11038 389b 13       		.uleb128 0x13
 11039 389c 2D1A0000 		.4byte	.LASF708
 11040 38a0 36       		.byte	0x36
 11041 38a1 93       		.byte	0x93
 11042 38a2 15       		.byte	0x15
 11043 38a3 A0090000 		.4byte	0x9a0
 11044 38a7 1C08     		.2byte	0x81c
 11045 38a9 13       		.uleb128 0x13
 11046 38aa DA050000 		.4byte	.LASF709
 11047 38ae 36       		.byte	0x36
 11048 38af 95       		.byte	0x95
 11049 38b0 15       		.byte	0x15
 11050 38b1 A0090000 		.4byte	0x9a0
 11051 38b5 2008     		.2byte	0x820
 11052 38b7 13       		.uleb128 0x13
 11053 38b8 67050000 		.4byte	.LASF710
 11054 38bc 36       		.byte	0x36
 11055 38bd 96       		.byte	0x96
 11056 38be 15       		.byte	0x15
 11057 38bf A0090000 		.4byte	0x9a0
 11058 38c3 2408     		.2byte	0x824
 11059 38c5 13       		.uleb128 0x13
 11060 38c6 A7010000 		.4byte	.LASF711
 11061 38ca 36       		.byte	0x36
 11062 38cb 97       		.byte	0x97
 11063 38cc 15       		.byte	0x15
 11064 38cd A0090000 		.4byte	0x9a0
 11065 38d1 2808     		.2byte	0x828
 11066 38d3 13       		.uleb128 0x13
 11067 38d4 0F0D0000 		.4byte	.LASF712
 11068 38d8 36       		.byte	0x36
 11069 38d9 99       		.byte	0x99
 11070 38da 15       		.byte	0x15
 11071 38db A0090000 		.4byte	0x9a0
 11072 38df 2C08     		.2byte	0x82c
 11073 38e1 13       		.uleb128 0x13
 11074 38e2 66060000 		.4byte	.LASF713
 11075 38e6 36       		.byte	0x36
 11076 38e7 9B       		.byte	0x9b
 11077 38e8 15       		.byte	0x15
 11078 38e9 A0090000 		.4byte	0x9a0
 11079 38ed 3008     		.2byte	0x830
 11080 38ef 13       		.uleb128 0x13
 11081 38f0 100C0000 		.4byte	.LASF714
 11082 38f4 36       		.byte	0x36
 11083 38f5 9C       		.byte	0x9c
 11084 38f6 15       		.byte	0x15
 11085 38f7 A0090000 		.4byte	0x9a0
 11086 38fb 3408     		.2byte	0x834
 11087 38fd 13       		.uleb128 0x13
 11088 38fe 86060000 		.4byte	.LASF715
 11089 3902 36       		.byte	0x36
ARM GAS  /tmp/ccDQUTww.s 			page 196


 11090 3903 9E       		.byte	0x9e
 11091 3904 15       		.byte	0x15
 11092 3905 A0090000 		.4byte	0x9a0
 11093 3909 3808     		.2byte	0x838
 11094 390b 13       		.uleb128 0x13
 11095 390c EB060000 		.4byte	.LASF716
 11096 3910 36       		.byte	0x36
 11097 3911 9F       		.byte	0x9f
 11098 3912 15       		.byte	0x15
 11099 3913 A0090000 		.4byte	0x9a0
 11100 3917 3C08     		.2byte	0x83c
 11101 3919 13       		.uleb128 0x13
 11102 391a 29070000 		.4byte	.LASF717
 11103 391e 36       		.byte	0x36
 11104 391f A0       		.byte	0xa0
 11105 3920 15       		.byte	0x15
 11106 3921 E1120000 		.4byte	0x12e1
 11107 3925 4008     		.2byte	0x840
 11108 3927 13       		.uleb128 0x13
 11109 3928 910B0000 		.4byte	.LASF718
 11110 392c 36       		.byte	0x36
 11111 392d A1       		.byte	0xa1
 11112 392e 15       		.byte	0x15
 11113 392f E1120000 		.4byte	0x12e1
 11114 3933 8008     		.2byte	0x880
 11115 3935 13       		.uleb128 0x13
 11116 3936 5C0F0000 		.4byte	.LASF719
 11117 393a 36       		.byte	0x36
 11118 393b A2       		.byte	0xa2
 11119 393c 15       		.byte	0x15
 11120 393d E1120000 		.4byte	0x12e1
 11121 3941 C008     		.2byte	0x8c0
 11122 3943 30       		.uleb128 0x30
 11123 3944 696500   		.ascii	"ie\000"
 11124 3947 36       		.byte	0x36
 11125 3948 A3       		.byte	0xa3
 11126 3949 15       		.byte	0x15
 11127 394a 0F3A0000 		.4byte	0x3a0f
 11128 394e 0009     		.2byte	0x900
 11129 3950 30       		.uleb128 0x30
 11130 3951 6F6500   		.ascii	"oe\000"
 11131 3954 36       		.byte	0x36
 11132 3955 A4       		.byte	0xa4
 11133 3956 16       		.byte	0x16
 11134 3957 1F3A0000 		.4byte	0x3a1f
 11135 395b 000B     		.2byte	0xb00
 11136 395d 13       		.uleb128 0x13
 11137 395e 040A0000 		.4byte	.LASF720
 11138 3962 36       		.byte	0x36
 11139 3963 A5       		.byte	0xa5
 11140 3964 15       		.byte	0x15
 11141 3965 0A3A0000 		.4byte	0x3a0a
 11142 3969 000D     		.2byte	0xd00
 11143 396b 13       		.uleb128 0x13
 11144 396c 611E0000 		.4byte	.LASF721
 11145 3970 36       		.byte	0x36
 11146 3971 A6       		.byte	0xa6
ARM GAS  /tmp/ccDQUTww.s 			page 197


 11147 3972 15       		.byte	0x15
 11148 3973 A0090000 		.4byte	0x9a0
 11149 3977 000E     		.2byte	0xe00
 11150 3979 13       		.uleb128 0x13
 11151 397a C7140000 		.4byte	.LASF722
 11152 397e 36       		.byte	0x36
 11153 397f A8       		.byte	0xa8
 11154 3980 15       		.byte	0x15
 11155 3981 3F3A0000 		.4byte	0x3a3f
 11156 3985 040E     		.2byte	0xe04
 11157 3987 13       		.uleb128 0x13
 11158 3988 B6080000 		.4byte	.LASF275
 11159 398c 36       		.byte	0x36
 11160 398d A9       		.byte	0xa9
 11161 398e 15       		.byte	0x15
 11162 398f 5B3A0000 		.4byte	0x3a5b
 11163 3993 0010     		.2byte	0x1000
 11164 3995 00       		.byte	0
 11165 3996 09       		.uleb128 0x9
 11166 3997 A0090000 		.4byte	0x9a0
 11167 399b A6390000 		.4byte	0x39a6
 11168 399f 0A       		.uleb128 0xa
 11169 39a0 3D000000 		.4byte	0x3d
 11170 39a4 2F       		.byte	0x2f
 11171 39a5 00       		.byte	0
 11172 39a6 04       		.uleb128 0x4
 11173 39a7 96390000 		.4byte	0x3996
 11174 39ab 09       		.uleb128 0x9
 11175 39ac A0090000 		.4byte	0x9a0
 11176 39b0 BB390000 		.4byte	0x39bb
 11177 39b4 0A       		.uleb128 0xa
 11178 39b5 3D000000 		.4byte	0x3d
 11179 39b9 AF       		.byte	0xaf
 11180 39ba 00       		.byte	0
 11181 39bb 04       		.uleb128 0x4
 11182 39bc AB390000 		.4byte	0x39ab
 11183 39c0 09       		.uleb128 0x9
 11184 39c1 A0090000 		.4byte	0x9a0
 11185 39c5 D0390000 		.4byte	0x39d0
 11186 39c9 0A       		.uleb128 0xa
 11187 39ca 3D000000 		.4byte	0x3d
 11188 39ce 08       		.byte	0x8
 11189 39cf 00       		.byte	0
 11190 39d0 04       		.uleb128 0x4
 11191 39d1 C0390000 		.4byte	0x39c0
 11192 39d5 09       		.uleb128 0x9
 11193 39d6 A0090000 		.4byte	0x9a0
 11194 39da E5390000 		.4byte	0x39e5
 11195 39de 0A       		.uleb128 0xa
 11196 39df 3D000000 		.4byte	0x3d
 11197 39e3 2E       		.byte	0x2e
 11198 39e4 00       		.byte	0
 11199 39e5 04       		.uleb128 0x4
 11200 39e6 D5390000 		.4byte	0x39d5
 11201 39ea 09       		.uleb128 0x9
 11202 39eb 77350000 		.4byte	0x3577
 11203 39ef FA390000 		.4byte	0x39fa
ARM GAS  /tmp/ccDQUTww.s 			page 198


 11204 39f3 0A       		.uleb128 0xa
 11205 39f4 3D000000 		.4byte	0x3d
 11206 39f8 0F       		.byte	0xf
 11207 39f9 00       		.byte	0
 11208 39fa 09       		.uleb128 0x9
 11209 39fb A0090000 		.4byte	0x9a0
 11210 39ff 0A3A0000 		.4byte	0x3a0a
 11211 3a03 0A       		.uleb128 0xa
 11212 3a04 3D000000 		.4byte	0x3d
 11213 3a08 3F       		.byte	0x3f
 11214 3a09 00       		.byte	0
 11215 3a0a 04       		.uleb128 0x4
 11216 3a0b FA390000 		.4byte	0x39fa
 11217 3a0f 09       		.uleb128 0x9
 11218 3a10 F5350000 		.4byte	0x35f5
 11219 3a14 1F3A0000 		.4byte	0x3a1f
 11220 3a18 0A       		.uleb128 0xa
 11221 3a19 3D000000 		.4byte	0x3d
 11222 3a1d 0F       		.byte	0xf
 11223 3a1e 00       		.byte	0
 11224 3a1f 09       		.uleb128 0x9
 11225 3a20 73360000 		.4byte	0x3673
 11226 3a24 2F3A0000 		.4byte	0x3a2f
 11227 3a28 0A       		.uleb128 0xa
 11228 3a29 3D000000 		.4byte	0x3d
 11229 3a2d 0F       		.byte	0xf
 11230 3a2e 00       		.byte	0
 11231 3a2f 09       		.uleb128 0x9
 11232 3a30 A0090000 		.4byte	0x9a0
 11233 3a34 3F3A0000 		.4byte	0x3a3f
 11234 3a38 0A       		.uleb128 0xa
 11235 3a39 3D000000 		.4byte	0x3d
 11236 3a3d 7E       		.byte	0x7e
 11237 3a3e 00       		.byte	0
 11238 3a3f 04       		.uleb128 0x4
 11239 3a40 2F3A0000 		.4byte	0x3a2f
 11240 3a44 09       		.uleb128 0x9
 11241 3a45 A0090000 		.4byte	0x9a0
 11242 3a49 5B3A0000 		.4byte	0x3a5b
 11243 3a4d 0A       		.uleb128 0xa
 11244 3a4e 3D000000 		.4byte	0x3d
 11245 3a52 0F       		.byte	0xf
 11246 3a53 2E       		.uleb128 0x2e
 11247 3a54 3D000000 		.4byte	0x3d
 11248 3a58 FF03     		.2byte	0x3ff
 11249 3a5a 00       		.byte	0
 11250 3a5b 04       		.uleb128 0x4
 11251 3a5c 443A0000 		.4byte	0x3a44
 11252 3a60 03       		.uleb128 0x3
 11253 3a61 F2200000 		.4byte	.LASF723
 11254 3a65 36       		.byte	0x36
 11255 3a66 AA       		.byte	0xaa
 11256 3a67 03       		.byte	0x3
 11257 3a68 7F360000 		.4byte	0x367f
 11258 3a6c 21       		.uleb128 0x21
 11259 3a6d 0C       		.byte	0xc
 11260 3a6e 35       		.byte	0x35
ARM GAS  /tmp/ccDQUTww.s 			page 199


 11261 3a6f 0401     		.2byte	0x104
 11262 3a71 09       		.byte	0x9
 11263 3a72 A13A0000 		.4byte	0x3aa1
 11264 3a76 17       		.uleb128 0x17
 11265 3a77 66080000 		.4byte	.LASF724
 11266 3a7b 35       		.byte	0x35
 11267 3a7c 0501     		.2byte	0x105
 11268 3a7e 21       		.byte	0x21
 11269 3a7f 94090000 		.4byte	0x994
 11270 3a83 00       		.byte	0
 11271 3a84 17       		.uleb128 0x17
 11272 3a85 D2090000 		.4byte	.LASF725
 11273 3a89 35       		.byte	0x35
 11274 3a8a 0601     		.2byte	0x106
 11275 3a8c 21       		.byte	0x21
 11276 3a8d 94090000 		.4byte	0x994
 11277 3a91 04       		.byte	0x4
 11278 3a92 17       		.uleb128 0x17
 11279 3a93 860D0000 		.4byte	.LASF726
 11280 3a97 35       		.byte	0x35
 11281 3a98 0701     		.2byte	0x107
 11282 3a9a 21       		.byte	0x21
 11283 3a9b 94090000 		.4byte	0x994
 11284 3a9f 08       		.byte	0x8
 11285 3aa0 00       		.byte	0
 11286 3aa1 06       		.uleb128 0x6
 11287 3aa2 F1090000 		.4byte	.LASF727
 11288 3aa6 35       		.byte	0x35
 11289 3aa7 0801     		.2byte	0x108
 11290 3aa9 03       		.byte	0x3
 11291 3aaa 6C3A0000 		.4byte	0x3a6c
 11292 3aae 15       		.uleb128 0x15
 11293 3aaf A13A0000 		.4byte	0x3aa1
 11294 3ab3 21       		.uleb128 0x21
 11295 3ab4 14       		.byte	0x14
 11296 3ab5 35       		.byte	0x35
 11297 3ab6 0D01     		.2byte	0x10d
 11298 3ab8 09       		.byte	0x9
 11299 3ab9 043B0000 		.4byte	0x3b04
 11300 3abd 17       		.uleb128 0x17
 11301 3abe 82100000 		.4byte	.LASF728
 11302 3ac2 35       		.byte	0x35
 11303 3ac3 1101     		.2byte	0x111
 11304 3ac5 21       		.byte	0x21
 11305 3ac6 2C000000 		.4byte	0x2c
 11306 3aca 00       		.byte	0
 11307 3acb 17       		.uleb128 0x17
 11308 3acc 99090000 		.4byte	.LASF729
 11309 3ad0 35       		.byte	0x35
 11310 3ad1 1501     		.2byte	0x115
 11311 3ad3 21       		.byte	0x21
 11312 3ad4 2C000000 		.4byte	0x2c
 11313 3ad8 04       		.byte	0x4
 11314 3ad9 17       		.uleb128 0x17
 11315 3ada 5B1E0000 		.4byte	.LASF730
 11316 3ade 35       		.byte	0x35
 11317 3adf 1901     		.2byte	0x119
ARM GAS  /tmp/ccDQUTww.s 			page 200


 11318 3ae1 22       		.byte	0x22
 11319 3ae2 F7200000 		.4byte	0x20f7
 11320 3ae6 08       		.byte	0x8
 11321 3ae7 17       		.uleb128 0x17
 11322 3ae8 AD060000 		.4byte	.LASF456
 11323 3aec 35       		.byte	0x35
 11324 3aed 1E01     		.2byte	0x11e
 11325 3aef 21       		.byte	0x21
 11326 3af0 360B0000 		.4byte	0xb36
 11327 3af4 0C       		.byte	0xc
 11328 3af5 17       		.uleb128 0x17
 11329 3af6 9E0D0000 		.4byte	.LASF731
 11330 3afa 35       		.byte	0x35
 11331 3afb 2401     		.2byte	0x124
 11332 3afd 21       		.byte	0x21
 11333 3afe 2C000000 		.4byte	0x2c
 11334 3b02 10       		.byte	0x10
 11335 3b03 00       		.byte	0
 11336 3b04 06       		.uleb128 0x6
 11337 3b05 4B0E0000 		.4byte	.LASF732
 11338 3b09 35       		.byte	0x35
 11339 3b0a 2501     		.2byte	0x125
 11340 3b0c 03       		.byte	0x3
 11341 3b0d B33A0000 		.4byte	0x3ab3
 11342 3b11 21       		.uleb128 0x21
 11343 3b12 14       		.byte	0x14
 11344 3b13 35       		.byte	0x35
 11345 3b14 2A01     		.2byte	0x12a
 11346 3b16 09       		.byte	0x9
 11347 3b17 623B0000 		.4byte	0x3b62
 11348 3b1b 17       		.uleb128 0x17
 11349 3b1c 44110000 		.4byte	.LASF733
 11350 3b20 35       		.byte	0x35
 11351 3b21 2E01     		.2byte	0x12e
 11352 3b23 21       		.byte	0x21
 11353 3b24 2C000000 		.4byte	0x2c
 11354 3b28 00       		.byte	0
 11355 3b29 17       		.uleb128 0x17
 11356 3b2a 93090000 		.4byte	.LASF734
 11357 3b2e 35       		.byte	0x35
 11358 3b2f 3201     		.2byte	0x132
 11359 3b31 21       		.byte	0x21
 11360 3b32 2C000000 		.4byte	0x2c
 11361 3b36 04       		.byte	0x4
 11362 3b37 17       		.uleb128 0x17
 11363 3b38 0D0A0000 		.4byte	.LASF735
 11364 3b3c 35       		.byte	0x35
 11365 3b3d 3601     		.2byte	0x136
 11366 3b3f 22       		.byte	0x22
 11367 3b40 D01C0000 		.4byte	0x1cd0
 11368 3b44 08       		.byte	0x8
 11369 3b45 17       		.uleb128 0x17
 11370 3b46 AD060000 		.4byte	.LASF456
 11371 3b4a 35       		.byte	0x35
 11372 3b4b 3B01     		.2byte	0x13b
 11373 3b4d 21       		.byte	0x21
 11374 3b4e 360B0000 		.4byte	0xb36
ARM GAS  /tmp/ccDQUTww.s 			page 201


 11375 3b52 0C       		.byte	0xc
 11376 3b53 17       		.uleb128 0x17
 11377 3b54 9E0D0000 		.4byte	.LASF731
 11378 3b58 35       		.byte	0x35
 11379 3b59 4101     		.2byte	0x141
 11380 3b5b 21       		.byte	0x21
 11381 3b5c 2C000000 		.4byte	0x2c
 11382 3b60 10       		.byte	0x10
 11383 3b61 00       		.byte	0
 11384 3b62 06       		.uleb128 0x6
 11385 3b63 6A190000 		.4byte	.LASF736
 11386 3b67 35       		.byte	0x35
 11387 3b68 4201     		.2byte	0x142
 11388 3b6a 03       		.byte	0x3
 11389 3b6b 113B0000 		.4byte	0x3b11
 11390 3b6f 21       		.uleb128 0x21
 11391 3b70 24       		.byte	0x24
 11392 3b71 35       		.byte	0x35
 11393 3b72 4801     		.2byte	0x148
 11394 3b74 09       		.byte	0x9
 11395 3b75 063C0000 		.4byte	0x3c06
 11396 3b79 17       		.uleb128 0x17
 11397 3b7a 86140000 		.4byte	.LASF737
 11398 3b7e 35       		.byte	0x35
 11399 3b7f 4C01     		.2byte	0x14c
 11400 3b81 21       		.byte	0x21
 11401 3b82 94090000 		.4byte	0x994
 11402 3b86 00       		.byte	0
 11403 3b87 17       		.uleb128 0x17
 11404 3b88 92080000 		.4byte	.LASF738
 11405 3b8c 35       		.byte	0x35
 11406 3b8d 5701     		.2byte	0x157
 11407 3b8f 21       		.byte	0x21
 11408 3b90 66340000 		.4byte	0x3466
 11409 3b94 04       		.byte	0x4
 11410 3b95 17       		.uleb128 0x17
 11411 3b96 CF050000 		.4byte	.LASF739
 11412 3b9a 35       		.byte	0x35
 11413 3b9b 5C01     		.2byte	0x15c
 11414 3b9d 21       		.byte	0x21
 11415 3b9e 66340000 		.4byte	0x3466
 11416 3ba2 08       		.byte	0x8
 11417 3ba3 17       		.uleb128 0x17
 11418 3ba4 630A0000 		.4byte	.LASF740
 11419 3ba8 35       		.byte	0x35
 11420 3ba9 6101     		.2byte	0x161
 11421 3bab 21       		.byte	0x21
 11422 3bac 66340000 		.4byte	0x3466
 11423 3bb0 0C       		.byte	0xc
 11424 3bb1 17       		.uleb128 0x17
 11425 3bb2 22210000 		.4byte	.LASF741
 11426 3bb6 35       		.byte	0x35
 11427 3bb7 6601     		.2byte	0x166
 11428 3bb9 21       		.byte	0x21
 11429 3bba 77090000 		.4byte	0x977
 11430 3bbe 10       		.byte	0x10
 11431 3bbf 17       		.uleb128 0x17
ARM GAS  /tmp/ccDQUTww.s 			page 202


 11432 3bc0 FD0D0000 		.4byte	.LASF742
 11433 3bc4 35       		.byte	0x35
 11434 3bc5 6B01     		.2byte	0x16b
 11435 3bc7 21       		.byte	0x21
 11436 3bc8 77090000 		.4byte	0x977
 11437 3bcc 12       		.byte	0x12
 11438 3bcd 17       		.uleb128 0x17
 11439 3bce FA1F0000 		.4byte	.LASF743
 11440 3bd2 35       		.byte	0x35
 11441 3bd3 7101     		.2byte	0x171
 11442 3bd5 22       		.byte	0x22
 11443 3bd6 063C0000 		.4byte	0x3c06
 11444 3bda 14       		.byte	0x14
 11445 3bdb 17       		.uleb128 0x17
 11446 3bdc 710C0000 		.4byte	.LASF744
 11447 3be0 35       		.byte	0x35
 11448 3be1 7701     		.2byte	0x177
 11449 3be3 22       		.byte	0x22
 11450 3be4 0C3C0000 		.4byte	0x3c0c
 11451 3be8 18       		.byte	0x18
 11452 3be9 17       		.uleb128 0x17
 11453 3bea D20F0000 		.4byte	.LASF745
 11454 3bee 35       		.byte	0x35
 11455 3bef 7E01     		.2byte	0x17e
 11456 3bf1 21       		.byte	0x21
 11457 3bf2 77090000 		.4byte	0x977
 11458 3bf6 1C       		.byte	0x1c
 11459 3bf7 17       		.uleb128 0x17
 11460 3bf8 9D1E0000 		.4byte	.LASF746
 11461 3bfc 35       		.byte	0x35
 11462 3bfd 8401     		.2byte	0x184
 11463 3bff 22       		.byte	0x22
 11464 3c00 D01C0000 		.4byte	0x1cd0
 11465 3c04 20       		.byte	0x20
 11466 3c05 00       		.byte	0
 11467 3c06 0E       		.uleb128 0xe
 11468 3c07 04       		.byte	0x4
 11469 3c08 043B0000 		.4byte	0x3b04
 11470 3c0c 0E       		.uleb128 0xe
 11471 3c0d 04       		.byte	0x4
 11472 3c0e 623B0000 		.4byte	0x3b62
 11473 3c12 06       		.uleb128 0x6
 11474 3c13 58190000 		.4byte	.LASF747
 11475 3c17 35       		.byte	0x35
 11476 3c18 8501     		.2byte	0x185
 11477 3c1a 03       		.byte	0x3
 11478 3c1b 6F3B0000 		.4byte	0x3b6f
 11479 3c1f 15       		.uleb128 0x15
 11480 3c20 123C0000 		.4byte	0x3c12
 11481 3c24 21       		.uleb128 0x21
 11482 3c25 10       		.byte	0x10
 11483 3c26 35       		.byte	0x35
 11484 3c27 8A01     		.2byte	0x18a
 11485 3c29 09       		.byte	0x9
 11486 3c2a 673C0000 		.4byte	0x3c67
 11487 3c2e 17       		.uleb128 0x17
 11488 3c2f 5A0A0000 		.4byte	.LASF748
ARM GAS  /tmp/ccDQUTww.s 			page 203


 11489 3c33 35       		.byte	0x35
 11490 3c34 8F01     		.2byte	0x18f
 11491 3c36 21       		.byte	0x21
 11492 3c37 89340000 		.4byte	0x3489
 11493 3c3b 00       		.byte	0
 11494 3c3c 17       		.uleb128 0x17
 11495 3c3d ED1D0000 		.4byte	.LASF749
 11496 3c41 35       		.byte	0x35
 11497 3c42 9401     		.2byte	0x194
 11498 3c44 21       		.byte	0x21
 11499 3c45 CE340000 		.4byte	0x34ce
 11500 3c49 04       		.byte	0x4
 11501 3c4a 17       		.uleb128 0x17
 11502 3c4b 40100000 		.4byte	.LASF750
 11503 3c4f 35       		.byte	0x35
 11504 3c50 9A01     		.2byte	0x19a
 11505 3c52 21       		.byte	0x21
 11506 3c53 AC340000 		.4byte	0x34ac
 11507 3c57 08       		.byte	0x8
 11508 3c58 17       		.uleb128 0x17
 11509 3c59 70020000 		.4byte	.LASF751
 11510 3c5d 35       		.byte	0x35
 11511 3c5e 9E01     		.2byte	0x19e
 11512 3c60 21       		.byte	0x21
 11513 3c61 42340000 		.4byte	0x3442
 11514 3c65 0C       		.byte	0xc
 11515 3c66 00       		.byte	0
 11516 3c67 06       		.uleb128 0x6
 11517 3c68 650F0000 		.4byte	.LASF752
 11518 3c6c 35       		.byte	0x35
 11519 3c6d A001     		.2byte	0x1a0
 11520 3c6f 03       		.byte	0x3
 11521 3c70 243C0000 		.4byte	0x3c24
 11522 3c74 15       		.uleb128 0x15
 11523 3c75 673C0000 		.4byte	0x3c67
 11524 3c79 0E       		.uleb128 0xe
 11525 3c7a 04       		.byte	0x4
 11526 3c7b 743C0000 		.4byte	0x3c74
 11527 3c7f 09       		.uleb128 0x9
 11528 3c80 8F3C0000 		.4byte	0x3c8f
 11529 3c84 8F3C0000 		.4byte	0x3c8f
 11530 3c88 0A       		.uleb128 0xa
 11531 3c89 3D000000 		.4byte	0x3d
 11532 3c8d 08       		.byte	0x8
 11533 3c8e 00       		.byte	0
 11534 3c8f 0E       		.uleb128 0xe
 11535 3c90 04       		.byte	0x4
 11536 3c91 1F3C0000 		.4byte	0x3c1f
 11537 3c95 09       		.uleb128 0x9
 11538 3c96 46010000 		.4byte	0x146
 11539 3c9a A53C0000 		.4byte	0x3ca5
 11540 3c9e 0A       		.uleb128 0xa
 11541 3c9f 3D000000 		.4byte	0x3d
 11542 3ca3 07       		.byte	0x7
 11543 3ca4 00       		.byte	0
 11544 3ca5 09       		.uleb128 0x9
 11545 3ca6 66090000 		.4byte	0x966
ARM GAS  /tmp/ccDQUTww.s 			page 204


 11546 3caa B53C0000 		.4byte	0x3cb5
 11547 3cae 0A       		.uleb128 0xa
 11548 3caf 3D000000 		.4byte	0x3d
 11549 3cb3 07       		.byte	0x7
 11550 3cb4 00       		.byte	0
 11551 3cb5 0E       		.uleb128 0xe
 11552 3cb6 04       		.byte	0x4
 11553 3cb7 603A0000 		.4byte	0x3a60
 11554 3cbb 0E       		.uleb128 0xe
 11555 3cbc 04       		.byte	0x4
 11556 3cbd AE3A0000 		.4byte	0x3aae
 11557 3cc1 1C       		.uleb128 0x1c
 11558 3cc2 00010000 		.4byte	.LASF753
 11559 3cc6 35       		.byte	0x35
 11560 3cc7 3A02     		.2byte	0x23a
 11561 3cc9 12       		.byte	0x12
 11562 3cca 07320000 		.4byte	0x3207
 11563 3cce 0B       		.uleb128 0xb
 11564 3ccf 1C       		.byte	0x1c
 11565 3cd0 37       		.byte	0x37
 11566 3cd1 AA       		.byte	0xaa
 11567 3cd2 09       		.byte	0x9
 11568 3cd3 333D0000 		.4byte	0x3d33
 11569 3cd7 0C       		.uleb128 0xc
 11570 3cd8 89100000 		.4byte	.LASF754
 11571 3cdc 37       		.byte	0x37
 11572 3cdd AB       		.byte	0xab
 11573 3cde 11       		.byte	0x11
 11574 3cdf A0090000 		.4byte	0x9a0
 11575 3ce3 00       		.byte	0
 11576 3ce4 0C       		.uleb128 0xc
 11577 3ce5 8F100000 		.4byte	.LASF755
 11578 3ce9 37       		.byte	0x37
 11579 3cea AC       		.byte	0xac
 11580 3ceb 11       		.byte	0x11
 11581 3cec A0090000 		.4byte	0x9a0
 11582 3cf0 04       		.byte	0x4
 11583 3cf1 0C       		.uleb128 0xc
 11584 3cf2 CD040000 		.4byte	.LASF756
 11585 3cf6 37       		.byte	0x37
 11586 3cf7 AD       		.byte	0xad
 11587 3cf8 11       		.byte	0x11
 11588 3cf9 A0090000 		.4byte	0x9a0
 11589 3cfd 08       		.byte	0x8
 11590 3cfe 0C       		.uleb128 0xc
 11591 3cff D3040000 		.4byte	.LASF757
 11592 3d03 37       		.byte	0x37
 11593 3d04 AE       		.byte	0xae
 11594 3d05 11       		.byte	0x11
 11595 3d06 A0090000 		.4byte	0x9a0
 11596 3d0a 0C       		.byte	0xc
 11597 3d0b 0C       		.uleb128 0xc
 11598 3d0c D7120000 		.4byte	.LASF758
 11599 3d10 37       		.byte	0x37
 11600 3d11 AF       		.byte	0xaf
 11601 3d12 11       		.byte	0x11
 11602 3d13 A0090000 		.4byte	0x9a0
ARM GAS  /tmp/ccDQUTww.s 			page 205


 11603 3d17 10       		.byte	0x10
 11604 3d18 0C       		.uleb128 0xc
 11605 3d19 7E040000 		.4byte	.LASF759
 11606 3d1d 37       		.byte	0x37
 11607 3d1e B0       		.byte	0xb0
 11608 3d1f 11       		.byte	0x11
 11609 3d20 A0090000 		.4byte	0x9a0
 11610 3d24 14       		.byte	0x14
 11611 3d25 0C       		.uleb128 0xc
 11612 3d26 C80C0000 		.4byte	.LASF760
 11613 3d2a 37       		.byte	0x37
 11614 3d2b B1       		.byte	0xb1
 11615 3d2c 11       		.byte	0x11
 11616 3d2d A0090000 		.4byte	0x9a0
 11617 3d31 18       		.byte	0x18
 11618 3d32 00       		.byte	0
 11619 3d33 03       		.uleb128 0x3
 11620 3d34 17200000 		.4byte	.LASF761
 11621 3d38 37       		.byte	0x37
 11622 3d39 B2       		.byte	0xb2
 11623 3d3a 03       		.byte	0x3
 11624 3d3b CE3C0000 		.4byte	0x3cce
 11625 3d3f 06       		.uleb128 0x6
 11626 3d40 1A140000 		.4byte	.LASF762
 11627 3d44 37       		.byte	0x37
 11628 3d45 1C01     		.2byte	0x11c
 11629 3d47 1B       		.byte	0x1b
 11630 3d48 4C3D0000 		.4byte	0x3d4c
 11631 3d4c 16       		.uleb128 0x16
 11632 3d4d 1A140000 		.4byte	.LASF762
 11633 3d51 08       		.byte	0x8
 11634 3d52 37       		.byte	0x37
 11635 3d53 2A01     		.2byte	0x12a
 11636 3d55 08       		.byte	0x8
 11637 3d56 773D0000 		.4byte	0x3d77
 11638 3d5a 17       		.uleb128 0x17
 11639 3d5b 5A130000 		.4byte	.LASF153
 11640 3d5f 37       		.byte	0x37
 11641 3d60 2E01     		.2byte	0x12e
 11642 3d62 1D       		.byte	0x1d
 11643 3d63 993D0000 		.4byte	0x3d99
 11644 3d67 00       		.byte	0
 11645 3d68 17       		.uleb128 0x17
 11646 3d69 80060000 		.4byte	.LASF763
 11647 3d6d 37       		.byte	0x37
 11648 3d6e 4D01     		.2byte	0x14d
 11649 3d70 1E       		.byte	0x1e
 11650 3d71 A63D0000 		.4byte	0x3da6
 11651 3d75 04       		.byte	0x4
 11652 3d76 00       		.byte	0
 11653 3d77 2B       		.uleb128 0x2b
 11654 3d78 07       		.byte	0x7
 11655 3d79 01       		.byte	0x1
 11656 3d7a 72000000 		.4byte	0x72
 11657 3d7e 37       		.byte	0x37
 11658 3d7f 2101     		.2byte	0x121
 11659 3d81 0E       		.byte	0xe
ARM GAS  /tmp/ccDQUTww.s 			page 206


 11660 3d82 993D0000 		.4byte	0x3d99
 11661 3d86 2A       		.uleb128 0x2a
 11662 3d87 84120000 		.4byte	.LASF764
 11663 3d8b 00       		.byte	0
 11664 3d8c 2A       		.uleb128 0x2a
 11665 3d8d 98120000 		.4byte	.LASF765
 11666 3d91 01       		.byte	0x1
 11667 3d92 2A       		.uleb128 0x2a
 11668 3d93 650E0000 		.4byte	.LASF766
 11669 3d97 02       		.byte	0x2
 11670 3d98 00       		.byte	0
 11671 3d99 06       		.uleb128 0x6
 11672 3d9a 9A0B0000 		.4byte	.LASF767
 11673 3d9e 37       		.byte	0x37
 11674 3d9f 2501     		.2byte	0x125
 11675 3da1 03       		.byte	0x3
 11676 3da2 773D0000 		.4byte	0x3d77
 11677 3da6 0E       		.uleb128 0xe
 11678 3da7 04       		.byte	0x4
 11679 3da8 333D0000 		.4byte	0x3d33
 11680 3dac 1C       		.uleb128 0x1c
 11681 3dad DF090000 		.4byte	.LASF768
 11682 3db1 37       		.byte	0x37
 11683 3db2 5B01     		.2byte	0x15b
 11684 3db4 13       		.byte	0x13
 11685 3db5 3F3D0000 		.4byte	0x3d3f
 11686 3db9 29       		.uleb128 0x29
 11687 3dba 07       		.byte	0x7
 11688 3dbb 01       		.byte	0x1
 11689 3dbc 72000000 		.4byte	0x72
 11690 3dc0 38       		.byte	0x38
 11691 3dc1 A4       		.byte	0xa4
 11692 3dc2 0E       		.byte	0xe
 11693 3dc3 DA3D0000 		.4byte	0x3dda
 11694 3dc7 2A       		.uleb128 0x2a
 11695 3dc8 031D0000 		.4byte	.LASF769
 11696 3dcc 00       		.byte	0
 11697 3dcd 2A       		.uleb128 0x2a
 11698 3dce 37140000 		.4byte	.LASF770
 11699 3dd2 01       		.byte	0x1
 11700 3dd3 2A       		.uleb128 0x2a
 11701 3dd4 8F000000 		.4byte	.LASF771
 11702 3dd8 02       		.byte	0x2
 11703 3dd9 00       		.byte	0
 11704 3dda 03       		.uleb128 0x3
 11705 3ddb F80F0000 		.4byte	.LASF772
 11706 3ddf 38       		.byte	0x38
 11707 3de0 A8       		.byte	0xa8
 11708 3de1 03       		.byte	0x3
 11709 3de2 B93D0000 		.4byte	0x3db9
 11710 3de6 03       		.uleb128 0x3
 11711 3de7 29160000 		.4byte	.LASF773
 11712 3deb 38       		.byte	0x38
 11713 3dec AD       		.byte	0xad
 11714 3ded 1C       		.byte	0x1c
 11715 3dee F23D0000 		.4byte	0x3df2
 11716 3df2 10       		.uleb128 0x10
ARM GAS  /tmp/ccDQUTww.s 			page 207


 11717 3df3 29160000 		.4byte	.LASF773
 11718 3df7 08       		.byte	0x8
 11719 3df8 38       		.byte	0x38
 11720 3df9 D0       		.byte	0xd0
 11721 3dfa 08       		.byte	0x8
 11722 3dfb 1A3E0000 		.4byte	0x3e1a
 11723 3dff 0C       		.uleb128 0xc
 11724 3e00 5A130000 		.4byte	.LASF153
 11725 3e04 38       		.byte	0x38
 11726 3e05 D4       		.byte	0xd4
 11727 3e06 1D       		.byte	0x1d
 11728 3e07 DA3D0000 		.4byte	0x3dda
 11729 3e0b 00       		.byte	0
 11730 3e0c 0C       		.uleb128 0xc
 11731 3e0d 80060000 		.4byte	.LASF763
 11732 3e11 38       		.byte	0x38
 11733 3e12 D8       		.byte	0xd8
 11734 3e13 1E       		.byte	0x1e
 11735 3e14 A63D0000 		.4byte	0x3da6
 11736 3e18 04       		.byte	0x4
 11737 3e19 00       		.byte	0
 11738 3e1a 20       		.uleb128 0x20
 11739 3e1b 8C030000 		.4byte	.LASF774
 11740 3e1f 38       		.byte	0x38
 11741 3e20 E3       		.byte	0xe3
 11742 3e21 14       		.byte	0x14
 11743 3e22 E63D0000 		.4byte	0x3de6
 11744 3e26 31       		.uleb128 0x31
 11745 3e27 51130000 		.4byte	.LASF781
 11746 3e2b 01       		.byte	0x1
 11747 3e2c 4003     		.2byte	0x340
 11748 3e2e 06       		.byte	0x6
 11749 3e2f D0050000 		.4byte	.LFB383
 11750 3e33 48000000 		.4byte	.LFE383-.LFB383
 11751 3e37 01       		.uleb128 0x1
 11752 3e38 9C       		.byte	0x9c
 11753 3e39 723F0000 		.4byte	0x3f72
 11754 3e3d 32       		.uleb128 0x32
 11755 3e3e 88070000 		.4byte	.LASF775
 11756 3e42 01       		.byte	0x1
 11757 3e43 4003     		.2byte	0x340
 11758 3e45 27       		.byte	0x27
 11759 3e46 723F0000 		.4byte	0x3f72
 11760 3e4a 06000000 		.4byte	.LLST99
 11761 3e4e 00000000 		.4byte	.LVUS99
 11762 3e52 33       		.uleb128 0x33
 11763 3e53 F0050000 		.4byte	.Ldebug_ranges0+0x5f0
 11764 3e57 B13E0000 		.4byte	0x3eb1
 11765 3e5b 34       		.uleb128 0x34
 11766 3e5c E50A0000 		.4byte	.LASF303
 11767 3e60 01       		.byte	0x1
 11768 3e61 4603     		.2byte	0x346
 11769 3e63 0C       		.byte	0xc
 11770 3e64 2C000000 		.4byte	0x2c
 11771 3e68 3A000000 		.4byte	.LLST101
 11772 3e6c 32000000 		.4byte	.LVUS101
 11773 3e70 35       		.uleb128 0x35
ARM GAS  /tmp/ccDQUTww.s 			page 208


 11774 3e71 84440000 		.4byte	0x4484
 11775 3e75 E2050000 		.4byte	.LBI660
 11776 3e79 01       		.byte	.LVU1047
 11777 3e7a 10060000 		.4byte	.Ldebug_ranges0+0x610
 11778 3e7e 01       		.byte	0x1
 11779 3e7f 4903     		.2byte	0x349
 11780 3e81 07       		.byte	0x7
 11781 3e82 36       		.uleb128 0x36
 11782 3e83 9F440000 		.4byte	0x449f
 11783 3e87 7C000000 		.4byte	.LLST102
 11784 3e8b 76000000 		.4byte	.LVUS102
 11785 3e8f 36       		.uleb128 0x36
 11786 3e90 92440000 		.4byte	0x4492
 11787 3e94 AE000000 		.4byte	.LLST103
 11788 3e98 A8000000 		.4byte	.LVUS103
 11789 3e9c 37       		.uleb128 0x37
 11790 3e9d 10060000 		.4byte	.Ldebug_ranges0+0x610
 11791 3ea1 38       		.uleb128 0x38
 11792 3ea2 02060000 		.4byte	.LVL175
 11793 3ea6 39       		.uleb128 0x39
 11794 3ea7 01       		.uleb128 0x1
 11795 3ea8 50       		.byte	0x50
 11796 3ea9 03       		.uleb128 0x3
 11797 3eaa F3       		.byte	0xf3
 11798 3eab 01       		.uleb128 0x1
 11799 3eac 50       		.byte	0x50
 11800 3ead 00       		.byte	0
 11801 3eae 00       		.byte	0
 11802 3eaf 00       		.byte	0
 11803 3eb0 00       		.byte	0
 11804 3eb1 3A       		.uleb128 0x3a
 11805 3eb2 E5530000 		.4byte	0x53e5
 11806 3eb6 D0050000 		.4byte	.LBI648
 11807 3eba 02       		.byte	.LVU1026
 11808 3ebb C8050000 		.4byte	.Ldebug_ranges0+0x5c8
 11809 3ebf 01       		.byte	0x1
 11810 3ec0 4203     		.2byte	0x342
 11811 3ec2 03       		.byte	0x3
 11812 3ec3 123F0000 		.4byte	0x3f12
 11813 3ec7 35       		.uleb128 0x35
 11814 3ec8 38540000 		.4byte	0x5438
 11815 3ecc D0050000 		.4byte	.LBI649
 11816 3ed0 04       		.byte	.LVU1028
 11817 3ed1 D0050000 		.4byte	.Ldebug_ranges0+0x5d0
 11818 3ed5 03       		.byte	0x3
 11819 3ed6 FF01     		.2byte	0x1ff
 11820 3ed8 03       		.byte	0x3
 11821 3ed9 35       		.uleb128 0x35
 11822 3eda 68540000 		.4byte	0x5468
 11823 3ede D0050000 		.4byte	.LBI650
 11824 3ee2 06       		.byte	.LVU1030
 11825 3ee3 D8050000 		.4byte	.Ldebug_ranges0+0x5d8
 11826 3ee7 04       		.byte	0x4
 11827 3ee8 6301     		.2byte	0x163
 11828 3eea 03       		.byte	0x3
 11829 3eeb 3B       		.uleb128 0x3b
 11830 3eec 72540000 		.4byte	0x5472
ARM GAS  /tmp/ccDQUTww.s 			page 209


 11831 3ef0 D0050000 		.4byte	.LBI651
 11832 3ef4 08       		.byte	.LVU1032
 11833 3ef5 D0050000 		.4byte	.LBB651
 11834 3ef9 06000000 		.4byte	.LBE651-.LBB651
 11835 3efd 05       		.byte	0x5
 11836 3efe A502     		.2byte	0x2a5
 11837 3f00 03       		.byte	0x3
 11838 3f01 36       		.uleb128 0x36
 11839 3f02 80540000 		.4byte	0x5480
 11840 3f06 DC000000 		.4byte	.LLST100
 11841 3f0a DA000000 		.4byte	.LVUS100
 11842 3f0e 00       		.byte	0
 11843 3f0f 00       		.byte	0
 11844 3f10 00       		.byte	0
 11845 3f11 00       		.byte	0
 11846 3f12 35       		.uleb128 0x35
 11847 3f13 DB530000 		.4byte	0x53db
 11848 3f17 02060000 		.4byte	.LBI667
 11849 3f1b 02       		.byte	.LVU1077
 11850 3f1c 30060000 		.4byte	.Ldebug_ranges0+0x630
 11851 3f20 01       		.byte	0x1
 11852 3f21 4D03     		.2byte	0x34d
 11853 3f23 03       		.byte	0x3
 11854 3f24 35       		.uleb128 0x35
 11855 3f25 0B540000 		.4byte	0x540b
 11856 3f29 02060000 		.4byte	.LBI668
 11857 3f2d 04       		.byte	.LVU1079
 11858 3f2e 68060000 		.4byte	.Ldebug_ranges0+0x668
 11859 3f32 03       		.byte	0x3
 11860 3f33 0A02     		.2byte	0x20a
 11861 3f35 03       		.byte	0x3
 11862 3f36 37       		.uleb128 0x37
 11863 3f37 68060000 		.4byte	.Ldebug_ranges0+0x668
 11864 3f3b 35       		.uleb128 0x35
 11865 3f3c 5E540000 		.4byte	0x545e
 11866 3f40 02060000 		.4byte	.LBI670
 11867 3f44 0A       		.byte	.LVU1085
 11868 3f45 68060000 		.4byte	.Ldebug_ranges0+0x668
 11869 3f49 04       		.byte	0x4
 11870 3f4a 7A01     		.2byte	0x17a
 11871 3f4c 03       		.byte	0x3
 11872 3f4d 35       		.uleb128 0x35
 11873 3f4e 72540000 		.4byte	0x5472
 11874 3f52 02060000 		.4byte	.LBI671
 11875 3f56 0C       		.byte	.LVU1087
 11876 3f57 90060000 		.4byte	.Ldebug_ranges0+0x690
 11877 3f5b 05       		.byte	0x5
 11878 3f5c B802     		.2byte	0x2b8
 11879 3f5e 03       		.byte	0x3
 11880 3f5f 36       		.uleb128 0x36
 11881 3f60 80540000 		.4byte	0x5480
 11882 3f64 F5000000 		.4byte	.LLST104
 11883 3f68 F1000000 		.4byte	.LVUS104
 11884 3f6c 00       		.byte	0
 11885 3f6d 00       		.byte	0
 11886 3f6e 00       		.byte	0
 11887 3f6f 00       		.byte	0
ARM GAS  /tmp/ccDQUTww.s 			page 210


 11888 3f70 00       		.byte	0
 11889 3f71 00       		.byte	0
 11890 3f72 0E       		.uleb128 0xe
 11891 3f73 04       		.byte	0x4
 11892 3f74 E0230000 		.4byte	0x23e0
 11893 3f78 3C       		.uleb128 0x3c
 11894 3f79 0C150000 		.4byte	.LASF776
 11895 3f7d 01       		.byte	0x1
 11896 3f7e 1B03     		.2byte	0x31b
 11897 3f80 06       		.byte	0x6
 11898 3f81 7F1C0000 		.4byte	0x1c7f
 11899 3f85 80050000 		.4byte	.LFB382
 11900 3f89 48000000 		.4byte	.LFE382-.LFB382
 11901 3f8d 01       		.uleb128 0x1
 11902 3f8e 9C       		.byte	0x9c
 11903 3f8f C43F0000 		.4byte	0x3fc4
 11904 3f93 32       		.uleb128 0x32
 11905 3f94 88070000 		.4byte	.LASF775
 11906 3f98 01       		.byte	0x1
 11907 3f99 1B03     		.2byte	0x31b
 11908 3f9b 2B       		.byte	0x2b
 11909 3f9c 723F0000 		.4byte	0x3f72
 11910 3fa0 1D010000 		.4byte	.LLST97
 11911 3fa4 15010000 		.4byte	.LVUS97
 11912 3fa8 37       		.uleb128 0x37
 11913 3fa9 A0050000 		.4byte	.Ldebug_ranges0+0x5a0
 11914 3fad 34       		.uleb128 0x34
 11915 3fae E50A0000 		.4byte	.LASF303
 11916 3fb2 01       		.byte	0x1
 11917 3fb3 2203     		.2byte	0x322
 11918 3fb5 0C       		.byte	0xc
 11919 3fb6 2C000000 		.4byte	0x2c
 11920 3fba 5C010000 		.4byte	.LLST98
 11921 3fbe 54010000 		.4byte	.LVUS98
 11922 3fc2 00       		.byte	0
 11923 3fc3 00       		.byte	0
 11924 3fc4 3C       		.uleb128 0x3c
 11925 3fc5 94030000 		.4byte	.LASF777
 11926 3fc9 01       		.byte	0x1
 11927 3fca D102     		.2byte	0x2d1
 11928 3fcc 08       		.byte	0x8
 11929 3fcd 2C000000 		.4byte	0x2c
 11930 3fd1 90040000 		.4byte	.LFB381
 11931 3fd5 E6000000 		.4byte	.LFE381-.LFB381
 11932 3fd9 01       		.uleb128 0x1
 11933 3fda 9C       		.byte	0x9c
 11934 3fdb 82420000 		.4byte	0x4282
 11935 3fdf 32       		.uleb128 0x32
 11936 3fe0 88070000 		.4byte	.LASF775
 11937 3fe4 01       		.byte	0x1
 11938 3fe5 D102     		.2byte	0x2d1
 11939 3fe7 30       		.byte	0x30
 11940 3fe8 723F0000 		.4byte	0x3f72
 11941 3fec 9B010000 		.4byte	.LLST84
 11942 3ff0 97010000 		.4byte	.LVUS84
 11943 3ff4 3D       		.uleb128 0x3d
 11944 3ff5 627000   		.ascii	"bp\000"
ARM GAS  /tmp/ccDQUTww.s 			page 211


 11945 3ff8 01       		.byte	0x1
 11946 3ff9 D102     		.2byte	0x2d1
 11947 3ffb 45       		.byte	0x45
 11948 3ffc F7200000 		.4byte	0x20f7
 11949 4000 C3010000 		.4byte	.LLST85
 11950 4004 B9010000 		.4byte	.LVUS85
 11951 4008 3D       		.uleb128 0x3d
 11952 4009 6E00     		.ascii	"n\000"
 11953 400b 01       		.byte	0x1
 11954 400c D202     		.2byte	0x2d2
 11955 400e 1F       		.byte	0x1f
 11956 400f 2C000000 		.4byte	0x2c
 11957 4013 08020000 		.4byte	.LLST86
 11958 4017 04020000 		.4byte	.LVUS86
 11959 401b 32       		.uleb128 0x32
 11960 401c 79090000 		.4byte	.LASF778
 11961 4020 01       		.byte	0x1
 11962 4021 D202     		.2byte	0x2d2
 11963 4023 30       		.byte	0x30
 11964 4024 8A0D0000 		.4byte	0xd8a
 11965 4028 2A020000 		.4byte	.LLST87
 11966 402c 26020000 		.4byte	.LVUS87
 11967 4030 3E       		.uleb128 0x3e
 11968 4031 7700     		.ascii	"w\000"
 11969 4033 01       		.byte	0x1
 11970 4034 D302     		.2byte	0x2d3
 11971 4036 0A       		.byte	0xa
 11972 4037 2C000000 		.4byte	0x2c
 11973 403b 52020000 		.4byte	.LLST88
 11974 403f 48020000 		.4byte	.LVUS88
 11975 4043 3F       		.uleb128 0x3f
 11976 4044 80000000 		.4byte	.LASF780
 11977 4048 92420000 		.4byte	0x4292
 11978 404c 33       		.uleb128 0x33
 11979 404d 98040000 		.4byte	.Ldebug_ranges0+0x498
 11980 4051 28420000 		.4byte	0x4228
 11981 4055 34       		.uleb128 0x34
 11982 4056 E50A0000 		.4byte	.LASF303
 11983 405a 01       		.byte	0x1
 11984 405b DA02     		.2byte	0x2da
 11985 405d 0C       		.byte	0xc
 11986 405e 2C000000 		.4byte	0x2c
 11987 4062 9A020000 		.4byte	.LLST90
 11988 4066 94020000 		.4byte	.LVUS90
 11989 406a 33       		.uleb128 0x33
 11990 406b 58050000 		.4byte	.Ldebug_ranges0+0x558
 11991 406f 06410000 		.4byte	0x4106
 11992 4073 3E       		.uleb128 0x3e
 11993 4074 6D736700 		.ascii	"msg\000"
 11994 4078 01       		.byte	0x1
 11995 4079 DE02     		.2byte	0x2de
 11996 407b 0D       		.byte	0xd
 11997 407c FE090000 		.4byte	0x9fe
 11998 4080 C7020000 		.4byte	.LLST95
 11999 4084 C3020000 		.4byte	.LVUS95
 12000 4088 3A       		.uleb128 0x3a
 12001 4089 DB530000 		.4byte	0x53db
ARM GAS  /tmp/ccDQUTww.s 			page 212


 12002 408d 6A050000 		.4byte	.LBI622
 12003 4091 01       		.byte	.LVU965
 12004 4092 80050000 		.4byte	.Ldebug_ranges0+0x580
 12005 4096 01       		.byte	0x1
 12006 4097 E502     		.2byte	0x2e5
 12007 4099 09       		.byte	0x9
 12008 409a EF400000 		.4byte	0x40ef
 12009 409e 35       		.uleb128 0x35
 12010 409f 0B540000 		.4byte	0x540b
 12011 40a3 6A050000 		.4byte	.LBI623
 12012 40a7 03       		.byte	.LVU967
 12013 40a8 88050000 		.4byte	.Ldebug_ranges0+0x588
 12014 40ac 03       		.byte	0x3
 12015 40ad 0A02     		.2byte	0x20a
 12016 40af 03       		.byte	0x3
 12017 40b0 37       		.uleb128 0x37
 12018 40b1 88050000 		.4byte	.Ldebug_ranges0+0x588
 12019 40b5 35       		.uleb128 0x35
 12020 40b6 5E540000 		.4byte	0x545e
 12021 40ba 6A050000 		.4byte	.LBI625
 12022 40be 09       		.byte	.LVU973
 12023 40bf 88050000 		.4byte	.Ldebug_ranges0+0x588
 12024 40c3 04       		.byte	0x4
 12025 40c4 7A01     		.2byte	0x17a
 12026 40c6 03       		.byte	0x3
 12027 40c7 3B       		.uleb128 0x3b
 12028 40c8 72540000 		.4byte	0x5472
 12029 40cc 6A050000 		.4byte	.LBI626
 12030 40d0 0B       		.byte	.LVU975
 12031 40d1 6A050000 		.4byte	.LBB626
 12032 40d5 04000000 		.4byte	.LBE626-.LBB626
 12033 40d9 05       		.byte	0x5
 12034 40da B802     		.2byte	0x2b8
 12035 40dc 03       		.byte	0x3
 12036 40dd 36       		.uleb128 0x36
 12037 40de 80540000 		.4byte	0x5480
 12038 40e2 E7020000 		.4byte	.LLST96
 12039 40e6 E5020000 		.4byte	.LVUS96
 12040 40ea 00       		.byte	0
 12041 40eb 00       		.byte	0
 12042 40ec 00       		.byte	0
 12043 40ed 00       		.byte	0
 12044 40ee 00       		.byte	0
 12045 40ef 40       		.uleb128 0x40
 12046 40f0 4C050000 		.4byte	.LVL149
 12047 40f4 19460000 		.4byte	0x4619
 12048 40f8 39       		.uleb128 0x39
 12049 40f9 01       		.uleb128 0x1
 12050 40fa 50       		.byte	0x50
 12051 40fb 02       		.uleb128 0x2
 12052 40fc 75       		.byte	0x75
 12053 40fd 00       		.sleb128 0
 12054 40fe 39       		.uleb128 0x39
 12055 40ff 01       		.uleb128 0x1
 12056 4100 51       		.byte	0x51
 12057 4101 02       		.uleb128 0x2
 12058 4102 79       		.byte	0x79
ARM GAS  /tmp/ccDQUTww.s 			page 213


 12059 4103 00       		.sleb128 0
 12060 4104 00       		.byte	0
 12061 4105 00       		.byte	0
 12062 4106 3A       		.uleb128 0x3a
 12063 4107 84440000 		.4byte	0x4484
 12064 410b 08050000 		.4byte	.LBI591
 12065 410f 01       		.byte	.LVU883
 12066 4110 E8040000 		.4byte	.Ldebug_ranges0+0x4e8
 12067 4114 01       		.byte	0x1
 12068 4115 0203     		.2byte	0x302
 12069 4117 07       		.byte	0x7
 12070 4118 49410000 		.4byte	0x4149
 12071 411c 36       		.uleb128 0x36
 12072 411d 9F440000 		.4byte	0x449f
 12073 4121 03030000 		.4byte	.LLST91
 12074 4125 FB020000 		.4byte	.LVUS91
 12075 4129 36       		.uleb128 0x36
 12076 412a 92440000 		.4byte	0x4492
 12077 412e 41030000 		.4byte	.LLST92
 12078 4132 3F030000 		.4byte	.LVUS92
 12079 4136 37       		.uleb128 0x37
 12080 4137 E8040000 		.4byte	.Ldebug_ranges0+0x4e8
 12081 413b 38       		.uleb128 0x38
 12082 413c 30050000 		.4byte	.LVL144
 12083 4140 39       		.uleb128 0x39
 12084 4141 01       		.uleb128 0x1
 12085 4142 50       		.byte	0x50
 12086 4143 02       		.uleb128 0x2
 12087 4144 75       		.byte	0x75
 12088 4145 00       		.sleb128 0
 12089 4146 00       		.byte	0
 12090 4147 00       		.byte	0
 12091 4148 00       		.byte	0
 12092 4149 3A       		.uleb128 0x3a
 12093 414a DB530000 		.4byte	0x53db
 12094 414e 30050000 		.4byte	.LBI599
 12095 4152 02       		.byte	.LVU916
 12096 4153 10050000 		.4byte	.Ldebug_ranges0+0x510
 12097 4157 01       		.byte	0x1
 12098 4158 0603     		.2byte	0x306
 12099 415a 05       		.byte	0x5
 12100 415b B0410000 		.4byte	0x41b0
 12101 415f 35       		.uleb128 0x35
 12102 4160 0B540000 		.4byte	0x540b
 12103 4164 30050000 		.4byte	.LBI600
 12104 4168 04       		.byte	.LVU918
 12105 4169 18050000 		.4byte	.Ldebug_ranges0+0x518
 12106 416d 03       		.byte	0x3
 12107 416e 0A02     		.2byte	0x20a
 12108 4170 03       		.byte	0x3
 12109 4171 37       		.uleb128 0x37
 12110 4172 18050000 		.4byte	.Ldebug_ranges0+0x518
 12111 4176 35       		.uleb128 0x35
 12112 4177 5E540000 		.4byte	0x545e
 12113 417b 30050000 		.4byte	.LBI602
 12114 417f 0A       		.byte	.LVU924
 12115 4180 18050000 		.4byte	.Ldebug_ranges0+0x518
ARM GAS  /tmp/ccDQUTww.s 			page 214


 12116 4184 04       		.byte	0x4
 12117 4185 7A01     		.2byte	0x17a
 12118 4187 03       		.byte	0x3
 12119 4188 3B       		.uleb128 0x3b
 12120 4189 72540000 		.4byte	0x5472
 12121 418d 30050000 		.4byte	.LBI603
 12122 4191 0C       		.byte	.LVU926
 12123 4192 30050000 		.4byte	.LBB603
 12124 4196 04000000 		.4byte	.LBE603-.LBB603
 12125 419a 05       		.byte	0x5
 12126 419b B802     		.2byte	0x2b8
 12127 419d 03       		.byte	0x3
 12128 419e 36       		.uleb128 0x36
 12129 419f 80540000 		.4byte	0x5480
 12130 41a3 56030000 		.4byte	.LLST93
 12131 41a7 54030000 		.4byte	.LVUS93
 12132 41ab 00       		.byte	0
 12133 41ac 00       		.byte	0
 12134 41ad 00       		.byte	0
 12135 41ae 00       		.byte	0
 12136 41af 00       		.byte	0
 12137 41b0 3A       		.uleb128 0x3a
 12138 41b1 E5530000 		.4byte	0x53e5
 12139 41b5 38050000 		.4byte	.LBI610
 12140 41b9 01       		.byte	.LVU932
 12141 41ba 30050000 		.4byte	.Ldebug_ranges0+0x530
 12142 41be 01       		.byte	0x1
 12143 41bf 0A03     		.2byte	0x30a
 12144 41c1 05       		.byte	0x5
 12145 41c2 11420000 		.4byte	0x4211
 12146 41c6 35       		.uleb128 0x35
 12147 41c7 38540000 		.4byte	0x5438
 12148 41cb 38050000 		.4byte	.LBI611
 12149 41cf 03       		.byte	.LVU934
 12150 41d0 38050000 		.4byte	.Ldebug_ranges0+0x538
 12151 41d4 03       		.byte	0x3
 12152 41d5 FF01     		.2byte	0x1ff
 12153 41d7 03       		.byte	0x3
 12154 41d8 35       		.uleb128 0x35
 12155 41d9 68540000 		.4byte	0x5468
 12156 41dd 38050000 		.4byte	.LBI612
 12157 41e1 05       		.byte	.LVU936
 12158 41e2 40050000 		.4byte	.Ldebug_ranges0+0x540
 12159 41e6 04       		.byte	0x4
 12160 41e7 6301     		.2byte	0x163
 12161 41e9 03       		.byte	0x3
 12162 41ea 3B       		.uleb128 0x3b
 12163 41eb 72540000 		.4byte	0x5472
 12164 41ef 38050000 		.4byte	.LBI613
 12165 41f3 07       		.byte	.LVU938
 12166 41f4 38050000 		.4byte	.LBB613
 12167 41f8 04000000 		.4byte	.LBE613-.LBB613
 12168 41fc 05       		.byte	0x5
 12169 41fd A502     		.2byte	0x2a5
 12170 41ff 03       		.byte	0x3
 12171 4200 36       		.uleb128 0x36
 12172 4201 80540000 		.4byte	0x5480
ARM GAS  /tmp/ccDQUTww.s 			page 215


 12173 4205 6C030000 		.4byte	.LLST94
 12174 4209 6A030000 		.4byte	.LVUS94
 12175 420d 00       		.byte	0
 12176 420e 00       		.byte	0
 12177 420f 00       		.byte	0
 12178 4210 00       		.byte	0
 12179 4211 40       		.uleb128 0x40
 12180 4212 60050000 		.4byte	.LVL152
 12181 4216 5F560000 		.4byte	0x565f
 12182 421a 39       		.uleb128 0x39
 12183 421b 01       		.uleb128 0x1
 12184 421c 51       		.byte	0x51
 12185 421d 02       		.uleb128 0x2
 12186 421e 74       		.byte	0x74
 12187 421f 00       		.sleb128 0
 12188 4220 39       		.uleb128 0x39
 12189 4221 01       		.uleb128 0x1
 12190 4222 52       		.byte	0x52
 12191 4223 02       		.uleb128 0x2
 12192 4224 7B       		.byte	0x7b
 12193 4225 00       		.sleb128 0
 12194 4226 00       		.byte	0
 12195 4227 00       		.byte	0
 12196 4228 35       		.uleb128 0x35
 12197 4229 E5530000 		.4byte	0x53e5
 12198 422d 90040000 		.4byte	.LBI574
 12199 4231 05       		.byte	.LVU843
 12200 4232 68040000 		.4byte	.Ldebug_ranges0+0x468
 12201 4236 01       		.byte	0x1
 12202 4237 D702     		.2byte	0x2d7
 12203 4239 03       		.byte	0x3
 12204 423a 35       		.uleb128 0x35
 12205 423b 38540000 		.4byte	0x5438
 12206 423f 90040000 		.4byte	.LBI575
 12207 4243 07       		.byte	.LVU845
 12208 4244 70040000 		.4byte	.Ldebug_ranges0+0x470
 12209 4248 03       		.byte	0x3
 12210 4249 FF01     		.2byte	0x1ff
 12211 424b 03       		.byte	0x3
 12212 424c 35       		.uleb128 0x35
 12213 424d 68540000 		.4byte	0x5468
 12214 4251 90040000 		.4byte	.LBI576
 12215 4255 09       		.byte	.LVU847
 12216 4256 78040000 		.4byte	.Ldebug_ranges0+0x478
 12217 425a 04       		.byte	0x4
 12218 425b 6301     		.2byte	0x163
 12219 425d 03       		.byte	0x3
 12220 425e 35       		.uleb128 0x35
 12221 425f 72540000 		.4byte	0x5472
 12222 4263 90040000 		.4byte	.LBI577
 12223 4267 0B       		.byte	.LVU849
 12224 4268 80040000 		.4byte	.Ldebug_ranges0+0x480
 12225 426c 05       		.byte	0x5
 12226 426d A502     		.2byte	0x2a5
 12227 426f 03       		.byte	0x3
 12228 4270 36       		.uleb128 0x36
 12229 4271 80540000 		.4byte	0x5480
ARM GAS  /tmp/ccDQUTww.s 			page 216


 12230 4275 83030000 		.4byte	.LLST89
 12231 4279 81030000 		.4byte	.LVUS89
 12232 427d 00       		.byte	0
 12233 427e 00       		.byte	0
 12234 427f 00       		.byte	0
 12235 4280 00       		.byte	0
 12236 4281 00       		.byte	0
 12237 4282 09       		.uleb128 0x9
 12238 4283 86060000 		.4byte	0x686
 12239 4287 92420000 		.4byte	0x4292
 12240 428b 0A       		.uleb128 0xa
 12241 428c 3D000000 		.4byte	0x3d
 12242 4290 0F       		.byte	0xf
 12243 4291 00       		.byte	0
 12244 4292 15       		.uleb128 0x15
 12245 4293 82420000 		.4byte	0x4282
 12246 4297 3C       		.uleb128 0x3c
 12247 4298 F3140000 		.4byte	.LASF779
 12248 429c 01       		.byte	0x1
 12249 429d 9F02     		.2byte	0x29f
 12250 429f 07       		.byte	0x7
 12251 42a0 FE090000 		.4byte	0x9fe
 12252 42a4 20040000 		.4byte	.LFB380
 12253 42a8 62000000 		.4byte	.LFE380-.LFB380
 12254 42ac 01       		.uleb128 0x1
 12255 42ad 9C       		.byte	0x9c
 12256 42ae 84440000 		.4byte	0x4484
 12257 42b2 32       		.uleb128 0x32
 12258 42b3 88070000 		.4byte	.LASF775
 12259 42b7 01       		.byte	0x1
 12260 42b8 9F02     		.2byte	0x29f
 12261 42ba 2D       		.byte	0x2d
 12262 42bb 723F0000 		.4byte	0x3f72
 12263 42bf A0030000 		.4byte	.LLST75
 12264 42c3 98030000 		.4byte	.LVUS75
 12265 42c7 3D       		.uleb128 0x3d
 12266 42c8 6200     		.ascii	"b\000"
 12267 42ca 01       		.byte	0x1
 12268 42cb 9F02     		.2byte	0x29f
 12269 42cd 3B       		.byte	0x3b
 12270 42ce 66090000 		.4byte	0x966
 12271 42d2 DC030000 		.4byte	.LLST76
 12272 42d6 D4030000 		.4byte	.LVUS76
 12273 42da 32       		.uleb128 0x32
 12274 42db 79090000 		.4byte	.LASF778
 12275 42df 01       		.byte	0x1
 12276 42e0 A002     		.2byte	0x2a0
 12277 42e2 23       		.byte	0x23
 12278 42e3 8A0D0000 		.4byte	0xd8a
 12279 42e7 1E040000 		.4byte	.LLST77
 12280 42eb 16040000 		.4byte	.LVUS77
 12281 42ef 3E       		.uleb128 0x3e
 12282 42f0 6D736700 		.ascii	"msg\000"
 12283 42f4 01       		.byte	0x1
 12284 42f5 A102     		.2byte	0x2a1
 12285 42f7 09       		.byte	0x9
 12286 42f8 FE090000 		.4byte	0x9fe
ARM GAS  /tmp/ccDQUTww.s 			page 217


 12287 42fc 5A040000 		.4byte	.LLST78
 12288 4300 58040000 		.4byte	.LVUS78
 12289 4304 3A       		.uleb128 0x3a
 12290 4305 E5530000 		.4byte	0x53e5
 12291 4309 20040000 		.4byte	.LBI525
 12292 430d 03       		.byte	.LVU739
 12293 430e D0030000 		.4byte	.Ldebug_ranges0+0x3d0
 12294 4312 01       		.byte	0x1
 12295 4313 A302     		.2byte	0x2a3
 12296 4315 03       		.byte	0x3
 12297 4316 61430000 		.4byte	0x4361
 12298 431a 35       		.uleb128 0x35
 12299 431b 38540000 		.4byte	0x5438
 12300 431f 20040000 		.4byte	.LBI526
 12301 4323 05       		.byte	.LVU741
 12302 4324 D8030000 		.4byte	.Ldebug_ranges0+0x3d8
 12303 4328 03       		.byte	0x3
 12304 4329 FF01     		.2byte	0x1ff
 12305 432b 03       		.byte	0x3
 12306 432c 35       		.uleb128 0x35
 12307 432d 68540000 		.4byte	0x5468
 12308 4331 20040000 		.4byte	.LBI527
 12309 4335 07       		.byte	.LVU743
 12310 4336 E0030000 		.4byte	.Ldebug_ranges0+0x3e0
 12311 433a 04       		.byte	0x4
 12312 433b 6301     		.2byte	0x163
 12313 433d 03       		.byte	0x3
 12314 433e 35       		.uleb128 0x35
 12315 433f 72540000 		.4byte	0x5472
 12316 4343 20040000 		.4byte	.LBI528
 12317 4347 09       		.byte	.LVU745
 12318 4348 E8030000 		.4byte	.Ldebug_ranges0+0x3e8
 12319 434c 05       		.byte	0x5
 12320 434d A502     		.2byte	0x2a5
 12321 434f 03       		.byte	0x3
 12322 4350 36       		.uleb128 0x36
 12323 4351 80540000 		.4byte	0x5480
 12324 4355 6F040000 		.4byte	.LLST79
 12325 4359 6D040000 		.4byte	.LVUS79
 12326 435d 00       		.byte	0
 12327 435e 00       		.byte	0
 12328 435f 00       		.byte	0
 12329 4360 00       		.byte	0
 12330 4361 3A       		.uleb128 0x3a
 12331 4362 84440000 		.4byte	0x4484
 12332 4366 3E040000 		.4byte	.LBI546
 12333 436a 01       		.byte	.LVU767
 12334 436b 08040000 		.4byte	.Ldebug_ranges0+0x408
 12335 436f 01       		.byte	0x1
 12336 4370 B502     		.2byte	0x2b5
 12337 4372 05       		.byte	0x5
 12338 4373 A4430000 		.4byte	0x43a4
 12339 4377 36       		.uleb128 0x36
 12340 4378 9F440000 		.4byte	0x449f
 12341 437c 8C040000 		.4byte	.LLST80
 12342 4380 84040000 		.4byte	.LVUS80
 12343 4384 36       		.uleb128 0x36
ARM GAS  /tmp/ccDQUTww.s 			page 218


 12344 4385 92440000 		.4byte	0x4492
 12345 4389 CA040000 		.4byte	.LLST81
 12346 438d C8040000 		.4byte	.LVUS81
 12347 4391 37       		.uleb128 0x37
 12348 4392 08040000 		.4byte	.Ldebug_ranges0+0x408
 12349 4396 38       		.uleb128 0x38
 12350 4397 68040000 		.4byte	.LVL121
 12351 439b 39       		.uleb128 0x39
 12352 439c 01       		.uleb128 0x1
 12353 439d 50       		.byte	0x50
 12354 439e 02       		.uleb128 0x2
 12355 439f 74       		.byte	0x74
 12356 43a0 00       		.sleb128 0
 12357 43a1 00       		.byte	0
 12358 43a2 00       		.byte	0
 12359 43a3 00       		.byte	0
 12360 43a4 3A       		.uleb128 0x3a
 12361 43a5 DB530000 		.4byte	0x53db
 12362 43a9 68040000 		.4byte	.LBI552
 12363 43ad 02       		.byte	.LVU801
 12364 43ae 28040000 		.4byte	.Ldebug_ranges0+0x428
 12365 43b2 01       		.byte	0x1
 12366 43b3 B802     		.2byte	0x2b8
 12367 43b5 03       		.byte	0x3
 12368 43b6 0B440000 		.4byte	0x440b
 12369 43ba 35       		.uleb128 0x35
 12370 43bb 0B540000 		.4byte	0x540b
 12371 43bf 68040000 		.4byte	.LBI553
 12372 43c3 04       		.byte	.LVU803
 12373 43c4 30040000 		.4byte	.Ldebug_ranges0+0x430
 12374 43c8 03       		.byte	0x3
 12375 43c9 0A02     		.2byte	0x20a
 12376 43cb 03       		.byte	0x3
 12377 43cc 37       		.uleb128 0x37
 12378 43cd 30040000 		.4byte	.Ldebug_ranges0+0x430
 12379 43d1 35       		.uleb128 0x35
 12380 43d2 5E540000 		.4byte	0x545e
 12381 43d6 68040000 		.4byte	.LBI555
 12382 43da 0A       		.byte	.LVU809
 12383 43db 30040000 		.4byte	.Ldebug_ranges0+0x430
 12384 43df 04       		.byte	0x4
 12385 43e0 7A01     		.2byte	0x17a
 12386 43e2 03       		.byte	0x3
 12387 43e3 3B       		.uleb128 0x3b
 12388 43e4 72540000 		.4byte	0x5472
 12389 43e8 68040000 		.4byte	.LBI556
 12390 43ec 0C       		.byte	.LVU811
 12391 43ed 68040000 		.4byte	.LBB556
 12392 43f1 06000000 		.4byte	.LBE556-.LBB556
 12393 43f5 05       		.byte	0x5
 12394 43f6 B802     		.2byte	0x2b8
 12395 43f8 03       		.byte	0x3
 12396 43f9 36       		.uleb128 0x36
 12397 43fa 80540000 		.4byte	0x5480
 12398 43fe DF040000 		.4byte	.LLST82
 12399 4402 DD040000 		.4byte	.LVUS82
 12400 4406 00       		.byte	0
ARM GAS  /tmp/ccDQUTww.s 			page 219


 12401 4407 00       		.byte	0
 12402 4408 00       		.byte	0
 12403 4409 00       		.byte	0
 12404 440a 00       		.byte	0
 12405 440b 3A       		.uleb128 0x3a
 12406 440c DB530000 		.4byte	0x53db
 12407 4410 7C040000 		.4byte	.LBI563
 12408 4414 01       		.byte	.LVU822
 12409 4415 48040000 		.4byte	.Ldebug_ranges0+0x448
 12410 4419 01       		.byte	0x1
 12411 441a A902     		.2byte	0x2a9
 12412 441c 07       		.byte	0x7
 12413 441d 72440000 		.4byte	0x4472
 12414 4421 35       		.uleb128 0x35
 12415 4422 0B540000 		.4byte	0x540b
 12416 4426 7C040000 		.4byte	.LBI564
 12417 442a 03       		.byte	.LVU824
 12418 442b 50040000 		.4byte	.Ldebug_ranges0+0x450
 12419 442f 03       		.byte	0x3
 12420 4430 0A02     		.2byte	0x20a
 12421 4432 03       		.byte	0x3
 12422 4433 37       		.uleb128 0x37
 12423 4434 50040000 		.4byte	.Ldebug_ranges0+0x450
 12424 4438 35       		.uleb128 0x35
 12425 4439 5E540000 		.4byte	0x545e
 12426 443d 7C040000 		.4byte	.LBI566
 12427 4441 09       		.byte	.LVU830
 12428 4442 50040000 		.4byte	.Ldebug_ranges0+0x450
 12429 4446 04       		.byte	0x4
 12430 4447 7A01     		.2byte	0x17a
 12431 4449 03       		.byte	0x3
 12432 444a 3B       		.uleb128 0x3b
 12433 444b 72540000 		.4byte	0x5472
 12434 444f 7C040000 		.4byte	.LBI567
 12435 4453 0B       		.byte	.LVU832
 12436 4454 7C040000 		.4byte	.LBB567
 12437 4458 04000000 		.4byte	.LBE567-.LBB567
 12438 445c 05       		.byte	0x5
 12439 445d B802     		.2byte	0x2b8
 12440 445f 03       		.byte	0x3
 12441 4460 36       		.uleb128 0x36
 12442 4461 80540000 		.4byte	0x5480
 12443 4465 F5040000 		.4byte	.LLST83
 12444 4469 F3040000 		.4byte	.LVUS83
 12445 446d 00       		.byte	0
 12446 446e 00       		.byte	0
 12447 446f 00       		.byte	0
 12448 4470 00       		.byte	0
 12449 4471 00       		.byte	0
 12450 4472 40       		.uleb128 0x40
 12451 4473 76040000 		.4byte	.LVL125
 12452 4477 19460000 		.4byte	0x4619
 12453 447b 39       		.uleb128 0x39
 12454 447c 01       		.uleb128 0x1
 12455 447d 51       		.byte	0x51
 12456 447e 03       		.uleb128 0x3
 12457 447f F3       		.byte	0xf3
ARM GAS  /tmp/ccDQUTww.s 			page 220


 12458 4480 01       		.uleb128 0x1
 12459 4481 52       		.byte	0x52
 12460 4482 00       		.byte	0
 12461 4483 00       		.byte	0
 12462 4484 41       		.uleb128 0x41
 12463 4485 831D0000 		.4byte	.LASF793
 12464 4489 01       		.byte	0x1
 12465 448a 7202     		.2byte	0x272
 12466 448c 06       		.byte	0x6
 12467 448d 01       		.byte	0x1
 12468 448e B6440000 		.4byte	0x44b6
 12469 4492 42       		.uleb128 0x42
 12470 4493 88070000 		.4byte	.LASF775
 12471 4497 01       		.byte	0x1
 12472 4498 7202     		.2byte	0x272
 12473 449a 31       		.byte	0x31
 12474 449b 723F0000 		.4byte	0x3f72
 12475 449f 42       		.uleb128 0x42
 12476 44a0 E50A0000 		.4byte	.LASF303
 12477 44a4 01       		.byte	0x1
 12478 44a5 7202     		.2byte	0x272
 12479 44a7 3E       		.byte	0x3e
 12480 44a8 2C000000 		.4byte	0x2c
 12481 44ac 3F       		.uleb128 0x3f
 12482 44ad 80000000 		.4byte	.LASF780
 12483 44b1 C6440000 		.4byte	0x44c6
 12484 44b5 00       		.byte	0
 12485 44b6 09       		.uleb128 0x9
 12486 44b7 86060000 		.4byte	0x686
 12487 44bb C6440000 		.4byte	0x44c6
 12488 44bf 0A       		.uleb128 0xa
 12489 44c0 3D000000 		.4byte	0x3d
 12490 44c4 12       		.byte	0x12
 12491 44c5 00       		.byte	0
 12492 44c6 15       		.uleb128 0x15
 12493 44c7 B6440000 		.4byte	0x44b6
 12494 44cb 31       		.uleb128 0x31
 12495 44cc DE110000 		.4byte	.LASF782
 12496 44d0 01       		.byte	0x1
 12497 44d1 6202     		.2byte	0x262
 12498 44d3 06       		.byte	0x6
 12499 44d4 B0030000 		.4byte	.LFB378
 12500 44d8 34000000 		.4byte	.LFE378-.LFB378
 12501 44dc 01       		.uleb128 0x1
 12502 44dd 9C       		.byte	0x9c
 12503 44de 19460000 		.4byte	0x4619
 12504 44e2 32       		.uleb128 0x32
 12505 44e3 88070000 		.4byte	.LASF775
 12506 44e7 01       		.byte	0x1
 12507 44e8 6202     		.2byte	0x262
 12508 44ea 30       		.byte	0x30
 12509 44eb 723F0000 		.4byte	0x3f72
 12510 44ef 0D050000 		.4byte	.LLST67
 12511 44f3 09050000 		.4byte	.LVUS67
 12512 44f7 32       		.uleb128 0x32
 12513 44f8 E50A0000 		.4byte	.LASF303
 12514 44fc 01       		.byte	0x1
ARM GAS  /tmp/ccDQUTww.s 			page 221


 12515 44fd 6202     		.2byte	0x262
 12516 44ff 3D       		.byte	0x3d
 12517 4500 2C000000 		.4byte	0x2c
 12518 4504 36050000 		.4byte	.LLST68
 12519 4508 2E050000 		.4byte	.LVUS68
 12520 450c 3A       		.uleb128 0x3a
 12521 450d E5530000 		.4byte	0x53e5
 12522 4511 B0030000 		.4byte	.LBI496
 12523 4515 02       		.byte	.LVU642
 12524 4516 80030000 		.4byte	.Ldebug_ranges0+0x380
 12525 451a 01       		.byte	0x1
 12526 451b 6402     		.2byte	0x264
 12527 451d 03       		.byte	0x3
 12528 451e 69450000 		.4byte	0x4569
 12529 4522 35       		.uleb128 0x35
 12530 4523 38540000 		.4byte	0x5438
 12531 4527 B0030000 		.4byte	.LBI497
 12532 452b 04       		.byte	.LVU644
 12533 452c 88030000 		.4byte	.Ldebug_ranges0+0x388
 12534 4530 03       		.byte	0x3
 12535 4531 FF01     		.2byte	0x1ff
 12536 4533 03       		.byte	0x3
 12537 4534 35       		.uleb128 0x35
 12538 4535 68540000 		.4byte	0x5468
 12539 4539 B0030000 		.4byte	.LBI498
 12540 453d 06       		.byte	.LVU646
 12541 453e 90030000 		.4byte	.Ldebug_ranges0+0x390
 12542 4542 04       		.byte	0x4
 12543 4543 6301     		.2byte	0x163
 12544 4545 03       		.byte	0x3
 12545 4546 35       		.uleb128 0x35
 12546 4547 72540000 		.4byte	0x5472
 12547 454b B0030000 		.4byte	.LBI499
 12548 454f 08       		.byte	.LVU648
 12549 4550 98030000 		.4byte	.Ldebug_ranges0+0x398
 12550 4554 05       		.byte	0x5
 12551 4555 A502     		.2byte	0x2a5
 12552 4557 03       		.byte	0x3
 12553 4558 36       		.uleb128 0x36
 12554 4559 80540000 		.4byte	0x5480
 12555 455d 72050000 		.4byte	.LLST69
 12556 4561 70050000 		.4byte	.LVUS69
 12557 4565 00       		.byte	0
 12558 4566 00       		.byte	0
 12559 4567 00       		.byte	0
 12560 4568 00       		.byte	0
 12561 4569 43       		.uleb128 0x43
 12562 456a 84440000 		.4byte	0x4484
 12563 456e B8030000 		.4byte	.LBI512
 12564 4572 04       		.byte	.LVU656
 12565 4573 B8030000 		.4byte	.LBB512
 12566 4577 24000000 		.4byte	.LBE512-.LBB512
 12567 457b 01       		.byte	0x1
 12568 457c 6502     		.2byte	0x265
 12569 457e 03       		.byte	0x3
 12570 457f B5450000 		.4byte	0x45b5
 12571 4583 36       		.uleb128 0x36
ARM GAS  /tmp/ccDQUTww.s 			page 222


 12572 4584 9F440000 		.4byte	0x449f
 12573 4588 8F050000 		.4byte	.LLST70
 12574 458c 87050000 		.4byte	.LVUS70
 12575 4590 36       		.uleb128 0x36
 12576 4591 92440000 		.4byte	0x4492
 12577 4595 CD050000 		.4byte	.LLST71
 12578 4599 C9050000 		.4byte	.LVUS71
 12579 459d 44       		.uleb128 0x44
 12580 459e B8030000 		.4byte	.LBB513
 12581 45a2 24000000 		.4byte	.LBE513-.LBB513
 12582 45a6 38       		.uleb128 0x38
 12583 45a7 DC030000 		.4byte	.LVL106
 12584 45ab 39       		.uleb128 0x39
 12585 45ac 01       		.uleb128 0x1
 12586 45ad 50       		.byte	0x50
 12587 45ae 03       		.uleb128 0x3
 12588 45af F3       		.byte	0xf3
 12589 45b0 01       		.uleb128 0x1
 12590 45b1 50       		.byte	0x50
 12591 45b2 00       		.byte	0
 12592 45b3 00       		.byte	0
 12593 45b4 00       		.byte	0
 12594 45b5 35       		.uleb128 0x35
 12595 45b6 DB530000 		.4byte	0x53db
 12596 45ba DC030000 		.4byte	.LBI514
 12597 45be 02       		.byte	.LVU688
 12598 45bf B0030000 		.4byte	.Ldebug_ranges0+0x3b0
 12599 45c3 01       		.byte	0x1
 12600 45c4 6602     		.2byte	0x266
 12601 45c6 03       		.byte	0x3
 12602 45c7 35       		.uleb128 0x35
 12603 45c8 0B540000 		.4byte	0x540b
 12604 45cc DC030000 		.4byte	.LBI515
 12605 45d0 04       		.byte	.LVU690
 12606 45d1 B8030000 		.4byte	.Ldebug_ranges0+0x3b8
 12607 45d5 03       		.byte	0x3
 12608 45d6 0A02     		.2byte	0x20a
 12609 45d8 03       		.byte	0x3
 12610 45d9 37       		.uleb128 0x37
 12611 45da B8030000 		.4byte	.Ldebug_ranges0+0x3b8
 12612 45de 35       		.uleb128 0x35
 12613 45df 5E540000 		.4byte	0x545e
 12614 45e3 DC030000 		.4byte	.LBI517
 12615 45e7 0A       		.byte	.LVU696
 12616 45e8 B8030000 		.4byte	.Ldebug_ranges0+0x3b8
 12617 45ec 04       		.byte	0x4
 12618 45ed 7A01     		.2byte	0x17a
 12619 45ef 03       		.byte	0x3
 12620 45f0 3B       		.uleb128 0x3b
 12621 45f1 72540000 		.4byte	0x5472
 12622 45f5 DC030000 		.4byte	.LBI518
 12623 45f9 0C       		.byte	.LVU698
 12624 45fa DC030000 		.4byte	.LBB518
 12625 45fe 06000000 		.4byte	.LBE518-.LBB518
 12626 4602 05       		.byte	0x5
 12627 4603 B802     		.2byte	0x2b8
 12628 4605 03       		.byte	0x3
ARM GAS  /tmp/ccDQUTww.s 			page 223


 12629 4606 36       		.uleb128 0x36
 12630 4607 80540000 		.4byte	0x5480
 12631 460b F0050000 		.4byte	.LLST72
 12632 460f EE050000 		.4byte	.LVUS72
 12633 4613 00       		.byte	0
 12634 4614 00       		.byte	0
 12635 4615 00       		.byte	0
 12636 4616 00       		.byte	0
 12637 4617 00       		.byte	0
 12638 4618 00       		.byte	0
 12639 4619 45       		.uleb128 0x45
 12640 461a EA0A0000 		.4byte	.LASF796
 12641 461e 01       		.byte	0x1
 12642 461f 4102     		.2byte	0x241
 12643 4621 07       		.byte	0x7
 12644 4622 FE090000 		.4byte	0x9fe
 12645 4626 01       		.byte	0x1
 12646 4627 5E460000 		.4byte	0x465e
 12647 462b 42       		.uleb128 0x42
 12648 462c 88070000 		.4byte	.LASF775
 12649 4630 01       		.byte	0x1
 12650 4631 4102     		.2byte	0x241
 12651 4633 39       		.byte	0x39
 12652 4634 723F0000 		.4byte	0x3f72
 12653 4638 42       		.uleb128 0x42
 12654 4639 79090000 		.4byte	.LASF778
 12655 463d 01       		.byte	0x1
 12656 463e 4202     		.2byte	0x242
 12657 4640 2F       		.byte	0x2f
 12658 4641 8A0D0000 		.4byte	0xd8a
 12659 4645 3F       		.uleb128 0x3f
 12660 4646 80000000 		.4byte	.LASF780
 12661 464a 6E460000 		.4byte	0x466e
 12662 464e 46       		.uleb128 0x46
 12663 464f 47       		.uleb128 0x47
 12664 4650 6D736700 		.ascii	"msg\000"
 12665 4654 01       		.byte	0x1
 12666 4655 4A02     		.2byte	0x24a
 12667 4657 0B       		.byte	0xb
 12668 4658 FE090000 		.4byte	0x9fe
 12669 465c 00       		.byte	0
 12670 465d 00       		.byte	0
 12671 465e 09       		.uleb128 0x9
 12672 465f 86060000 		.4byte	0x686
 12673 4663 6E460000 		.4byte	0x466e
 12674 4667 0A       		.uleb128 0xa
 12675 4668 3D000000 		.4byte	0x3d
 12676 466c 19       		.byte	0x19
 12677 466d 00       		.byte	0
 12678 466e 15       		.uleb128 0x15
 12679 466f 5E460000 		.4byte	0x465e
 12680 4673 3C       		.uleb128 0x3c
 12681 4674 28020000 		.4byte	.LASF783
 12682 4678 01       		.byte	0x1
 12683 4679 2102     		.2byte	0x221
 12684 467b 07       		.byte	0x7
 12685 467c FE090000 		.4byte	0x9fe
ARM GAS  /tmp/ccDQUTww.s 			page 224


 12686 4680 90030000 		.4byte	.LFB376
 12687 4684 14000000 		.4byte	.LFE376-.LFB376
 12688 4688 01       		.uleb128 0x1
 12689 4689 9C       		.byte	0x9c
 12690 468a AA470000 		.4byte	0x47aa
 12691 468e 32       		.uleb128 0x32
 12692 468f 88070000 		.4byte	.LASF775
 12693 4693 01       		.byte	0x1
 12694 4694 2102     		.2byte	0x221
 12695 4696 38       		.byte	0x38
 12696 4697 723F0000 		.4byte	0x3f72
 12697 469b 08060000 		.4byte	.LLST62
 12698 469f 04060000 		.4byte	.LVUS62
 12699 46a3 32       		.uleb128 0x32
 12700 46a4 79090000 		.4byte	.LASF778
 12701 46a8 01       		.byte	0x1
 12702 46a9 2202     		.2byte	0x222
 12703 46ab 2E       		.byte	0x2e
 12704 46ac 8A0D0000 		.4byte	0xd8a
 12705 46b0 2D060000 		.4byte	.LLST63
 12706 46b4 29060000 		.4byte	.LVUS63
 12707 46b8 3E       		.uleb128 0x3e
 12708 46b9 6D736700 		.ascii	"msg\000"
 12709 46bd 01       		.byte	0x1
 12710 46be 2302     		.2byte	0x223
 12711 46c0 09       		.byte	0x9
 12712 46c1 FE090000 		.4byte	0x9fe
 12713 46c5 50060000 		.4byte	.LLST64
 12714 46c9 4E060000 		.4byte	.LVUS64
 12715 46cd 3A       		.uleb128 0x3a
 12716 46ce E5530000 		.4byte	0x53e5
 12717 46d2 90030000 		.4byte	.LBI469
 12718 46d6 03       		.byte	.LVU609
 12719 46d7 30030000 		.4byte	.Ldebug_ranges0+0x330
 12720 46db 01       		.byte	0x1
 12721 46dc 2502     		.2byte	0x225
 12722 46de 03       		.byte	0x3
 12723 46df 2A470000 		.4byte	0x472a
 12724 46e3 35       		.uleb128 0x35
 12725 46e4 38540000 		.4byte	0x5438
 12726 46e8 90030000 		.4byte	.LBI470
 12727 46ec 05       		.byte	.LVU611
 12728 46ed 38030000 		.4byte	.Ldebug_ranges0+0x338
 12729 46f1 03       		.byte	0x3
 12730 46f2 FF01     		.2byte	0x1ff
 12731 46f4 03       		.byte	0x3
 12732 46f5 35       		.uleb128 0x35
 12733 46f6 68540000 		.4byte	0x5468
 12734 46fa 90030000 		.4byte	.LBI471
 12735 46fe 07       		.byte	.LVU613
 12736 46ff 40030000 		.4byte	.Ldebug_ranges0+0x340
 12737 4703 04       		.byte	0x4
 12738 4704 6301     		.2byte	0x163
 12739 4706 03       		.byte	0x3
 12740 4707 35       		.uleb128 0x35
 12741 4708 72540000 		.4byte	0x5472
 12742 470c 90030000 		.4byte	.LBI472
ARM GAS  /tmp/ccDQUTww.s 			page 225


 12743 4710 09       		.byte	.LVU615
 12744 4711 48030000 		.4byte	.Ldebug_ranges0+0x348
 12745 4715 05       		.byte	0x5
 12746 4716 A502     		.2byte	0x2a5
 12747 4718 03       		.byte	0x3
 12748 4719 36       		.uleb128 0x36
 12749 471a 80540000 		.4byte	0x5480
 12750 471e 65060000 		.4byte	.LLST65
 12751 4722 63060000 		.4byte	.LVUS65
 12752 4726 00       		.byte	0
 12753 4727 00       		.byte	0
 12754 4728 00       		.byte	0
 12755 4729 00       		.byte	0
 12756 472a 3A       		.uleb128 0x3a
 12757 472b DB530000 		.4byte	0x53db
 12758 472f 9C030000 		.4byte	.LBI485
 12759 4733 01       		.byte	.LVU625
 12760 4734 60030000 		.4byte	.Ldebug_ranges0+0x360
 12761 4738 01       		.byte	0x1
 12762 4739 2702     		.2byte	0x227
 12763 473b 03       		.byte	0x3
 12764 473c 91470000 		.4byte	0x4791
 12765 4740 35       		.uleb128 0x35
 12766 4741 0B540000 		.4byte	0x540b
 12767 4745 9C030000 		.4byte	.LBI486
 12768 4749 03       		.byte	.LVU627
 12769 474a 68030000 		.4byte	.Ldebug_ranges0+0x368
 12770 474e 03       		.byte	0x3
 12771 474f 0A02     		.2byte	0x20a
 12772 4751 03       		.byte	0x3
 12773 4752 37       		.uleb128 0x37
 12774 4753 68030000 		.4byte	.Ldebug_ranges0+0x368
 12775 4757 35       		.uleb128 0x35
 12776 4758 5E540000 		.4byte	0x545e
 12777 475c 9C030000 		.4byte	.LBI488
 12778 4760 09       		.byte	.LVU633
 12779 4761 68030000 		.4byte	.Ldebug_ranges0+0x368
 12780 4765 04       		.byte	0x4
 12781 4766 7A01     		.2byte	0x17a
 12782 4768 03       		.byte	0x3
 12783 4769 3B       		.uleb128 0x3b
 12784 476a 72540000 		.4byte	0x5472
 12785 476e 9C030000 		.4byte	.LBI489
 12786 4772 0B       		.byte	.LVU635
 12787 4773 9C030000 		.4byte	.LBB489
 12788 4777 06000000 		.4byte	.LBE489-.LBB489
 12789 477b 05       		.byte	0x5
 12790 477c B802     		.2byte	0x2b8
 12791 477e 03       		.byte	0x3
 12792 477f 36       		.uleb128 0x36
 12793 4780 80540000 		.4byte	0x5480
 12794 4784 7C060000 		.4byte	.LLST66
 12795 4788 7A060000 		.4byte	.LVUS66
 12796 478c 00       		.byte	0
 12797 478d 00       		.byte	0
 12798 478e 00       		.byte	0
 12799 478f 00       		.byte	0
ARM GAS  /tmp/ccDQUTww.s 			page 226


 12800 4790 00       		.byte	0
 12801 4791 40       		.uleb128 0x40
 12802 4792 9C030000 		.4byte	.LVL99
 12803 4796 19460000 		.4byte	0x4619
 12804 479a 39       		.uleb128 0x39
 12805 479b 01       		.uleb128 0x1
 12806 479c 50       		.byte	0x50
 12807 479d 03       		.uleb128 0x3
 12808 479e F3       		.byte	0xf3
 12809 479f 01       		.uleb128 0x1
 12810 47a0 50       		.byte	0x50
 12811 47a1 39       		.uleb128 0x39
 12812 47a2 01       		.uleb128 0x1
 12813 47a3 51       		.byte	0x51
 12814 47a4 03       		.uleb128 0x3
 12815 47a5 F3       		.byte	0xf3
 12816 47a6 01       		.uleb128 0x1
 12817 47a7 51       		.byte	0x51
 12818 47a8 00       		.byte	0
 12819 47a9 00       		.byte	0
 12820 47aa 31       		.uleb128 0x31
 12821 47ab D20C0000 		.4byte	.LASF784
 12822 47af 01       		.byte	0x1
 12823 47b0 FC01     		.2byte	0x1fc
 12824 47b2 06       		.byte	0x6
 12825 47b3 20030000 		.4byte	.LFB375
 12826 47b7 24000000 		.4byte	.LFE375-.LFB375
 12827 47bb 01       		.uleb128 0x1
 12828 47bc 9C       		.byte	0x9c
 12829 47bd 1C480000 		.4byte	0x481c
 12830 47c1 32       		.uleb128 0x32
 12831 47c2 88070000 		.4byte	.LASF775
 12832 47c6 01       		.byte	0x1
 12833 47c7 FC01     		.2byte	0x1fc
 12834 47c9 35       		.byte	0x35
 12835 47ca 723F0000 		.4byte	0x3f72
 12836 47ce 94060000 		.4byte	.LLST53
 12837 47d2 90060000 		.4byte	.LVUS53
 12838 47d6 3F       		.uleb128 0x3f
 12839 47d7 80000000 		.4byte	.LASF780
 12840 47db 2C480000 		.4byte	0x482c
 12841 47df 35       		.uleb128 0x35
 12842 47e0 69530000 		.4byte	0x5369
 12843 47e4 3A030000 		.4byte	.LBI446
 12844 47e8 01       		.byte	.LVU564
 12845 47e9 D8020000 		.4byte	.Ldebug_ranges0+0x2d8
 12846 47ed 01       		.byte	0x1
 12847 47ee 0902     		.2byte	0x209
 12848 47f0 03       		.byte	0x3
 12849 47f1 48       		.uleb128 0x48
 12850 47f2 84530000 		.4byte	0x5384
 12851 47f6 00       		.byte	0
 12852 47f7 36       		.uleb128 0x36
 12853 47f8 77530000 		.4byte	0x5377
 12854 47fc B9060000 		.4byte	.LLST54
 12855 4800 B5060000 		.4byte	.LVUS54
 12856 4804 49       		.uleb128 0x49
ARM GAS  /tmp/ccDQUTww.s 			page 227


 12857 4805 44030000 		.4byte	.LVL86
 12858 4809 6A560000 		.4byte	0x566a
 12859 480d 39       		.uleb128 0x39
 12860 480e 01       		.uleb128 0x1
 12861 480f 50       		.byte	0x50
 12862 4810 03       		.uleb128 0x3
 12863 4811 F3       		.byte	0xf3
 12864 4812 01       		.uleb128 0x1
 12865 4813 50       		.byte	0x50
 12866 4814 39       		.uleb128 0x39
 12867 4815 01       		.uleb128 0x1
 12868 4816 51       		.byte	0x51
 12869 4817 01       		.uleb128 0x1
 12870 4818 30       		.byte	0x30
 12871 4819 00       		.byte	0
 12872 481a 00       		.byte	0
 12873 481b 00       		.byte	0
 12874 481c 09       		.uleb128 0x9
 12875 481d 86060000 		.4byte	0x686
 12876 4821 2C480000 		.4byte	0x482c
 12877 4825 0A       		.uleb128 0xa
 12878 4826 3D000000 		.4byte	0x3d
 12879 482a 16       		.byte	0x16
 12880 482b 00       		.byte	0
 12881 482c 15       		.uleb128 0x15
 12882 482d 1C480000 		.4byte	0x481c
 12883 4831 3C       		.uleb128 0x3c
 12884 4832 A8110000 		.4byte	.LASF785
 12885 4836 01       		.byte	0x1
 12886 4837 E601     		.2byte	0x1e6
 12887 4839 0A       		.byte	0xa
 12888 483a D01C0000 		.4byte	0x1cd0
 12889 483e 00030000 		.4byte	.LFB374
 12890 4842 1C000000 		.4byte	.LFE374-.LFB374
 12891 4846 01       		.uleb128 0x1
 12892 4847 9C       		.byte	0x9c
 12893 4848 71480000 		.4byte	0x4871
 12894 484c 32       		.uleb128 0x32
 12895 484d 88070000 		.4byte	.LASF775
 12896 4851 01       		.byte	0x1
 12897 4852 E601     		.2byte	0x1e6
 12898 4854 34       		.byte	0x34
 12899 4855 723F0000 		.4byte	0x3f72
 12900 4859 E2060000 		.4byte	.LLST52
 12901 485d DA060000 		.4byte	.LVUS52
 12902 4861 4A       		.uleb128 0x4a
 12903 4862 EE0E0000 		.4byte	.LASF788
 12904 4866 01       		.byte	0x1
 12905 4867 E701     		.2byte	0x1e7
 12906 4869 24       		.byte	0x24
 12907 486a 71480000 		.4byte	0x4871
 12908 486e 01       		.uleb128 0x1
 12909 486f 51       		.byte	0x51
 12910 4870 00       		.byte	0
 12911 4871 0E       		.uleb128 0xe
 12912 4872 04       		.byte	0x4
 12913 4873 2C000000 		.4byte	0x2c
ARM GAS  /tmp/ccDQUTww.s 			page 228


 12914 4877 31       		.uleb128 0x31
 12915 4878 ED1E0000 		.4byte	.LASF786
 12916 487c 01       		.byte	0x1
 12917 487d CF01     		.2byte	0x1cf
 12918 487f 06       		.byte	0x6
 12919 4880 E0020000 		.4byte	.LFB373
 12920 4884 1C000000 		.4byte	.LFE373-.LFB373
 12921 4888 01       		.uleb128 0x1
 12922 4889 9C       		.byte	0x9c
 12923 488a D9480000 		.4byte	0x48d9
 12924 488e 32       		.uleb128 0x32
 12925 488f 88070000 		.4byte	.LASF775
 12926 4893 01       		.byte	0x1
 12927 4894 CF01     		.2byte	0x1cf
 12928 4896 28       		.byte	0x28
 12929 4897 723F0000 		.4byte	0x3f72
 12930 489b 20070000 		.4byte	.LLST51
 12931 489f 1C070000 		.4byte	.LVUS51
 12932 48a3 35       		.uleb128 0x35
 12933 48a4 3A530000 		.4byte	0x533a
 12934 48a8 F6020000 		.4byte	.LBI440
 12935 48ac 02       		.byte	.LVU525
 12936 48ad B8020000 		.4byte	.Ldebug_ranges0+0x2b8
 12937 48b1 01       		.byte	0x1
 12938 48b2 D801     		.2byte	0x1d8
 12939 48b4 03       		.byte	0x3
 12940 48b5 4B       		.uleb128 0x4b
 12941 48b6 55530000 		.4byte	0x5355
 12942 48ba 7E       		.sleb128 -2
 12943 48bb 4C       		.uleb128 0x4c
 12944 48bc 48530000 		.4byte	0x5348
 12945 48c0 49       		.uleb128 0x49
 12946 48c1 FC020000 		.4byte	.LVL79
 12947 48c5 76560000 		.4byte	0x5676
 12948 48c9 39       		.uleb128 0x39
 12949 48ca 01       		.uleb128 0x1
 12950 48cb 50       		.byte	0x50
 12951 48cc 03       		.uleb128 0x3
 12952 48cd F3       		.byte	0xf3
 12953 48ce 01       		.uleb128 0x1
 12954 48cf 50       		.byte	0x50
 12955 48d0 39       		.uleb128 0x39
 12956 48d1 01       		.uleb128 0x1
 12957 48d2 51       		.byte	0x51
 12958 48d3 02       		.uleb128 0x2
 12959 48d4 09       		.byte	0x9
 12960 48d5 FE       		.byte	0xfe
 12961 48d6 00       		.byte	0
 12962 48d7 00       		.byte	0
 12963 48d8 00       		.byte	0
 12964 48d9 31       		.uleb128 0x31
 12965 48da 2C1E0000 		.4byte	.LASF787
 12966 48de 01       		.byte	0x1
 12967 48df B001     		.2byte	0x1b0
 12968 48e1 06       		.byte	0x6
 12969 48e2 B0020000 		.4byte	.LFB372
 12970 48e6 30000000 		.4byte	.LFE372-.LFB372
ARM GAS  /tmp/ccDQUTww.s 			page 229


 12971 48ea 01       		.uleb128 0x1
 12972 48eb 9C       		.byte	0x9c
 12973 48ec C3490000 		.4byte	0x49c3
 12974 48f0 4A       		.uleb128 0x4a
 12975 48f1 88070000 		.4byte	.LASF775
 12976 48f5 01       		.byte	0x1
 12977 48f6 B001     		.2byte	0x1b0
 12978 48f8 2C       		.byte	0x2c
 12979 48f9 723F0000 		.4byte	0x3f72
 12980 48fd 01       		.uleb128 0x1
 12981 48fe 50       		.byte	0x50
 12982 48ff 32       		.uleb128 0x32
 12983 4900 A81C0000 		.4byte	.LASF302
 12984 4904 01       		.byte	0x1
 12985 4905 B001     		.2byte	0x1b0
 12986 4907 37       		.byte	0x37
 12987 4908 7F1C0000 		.4byte	0x1c7f
 12988 490c 45070000 		.4byte	.LLST46
 12989 4910 41070000 		.4byte	.LVUS46
 12990 4914 4D       		.uleb128 0x4d
 12991 4915 627000   		.ascii	"bp\000"
 12992 4918 01       		.byte	0x1
 12993 4919 B001     		.2byte	0x1b0
 12994 491b 4B       		.byte	0x4b
 12995 491c D01C0000 		.4byte	0x1cd0
 12996 4920 01       		.uleb128 0x1
 12997 4921 52       		.byte	0x52
 12998 4922 32       		.uleb128 0x32
 12999 4923 E50A0000 		.4byte	.LASF303
 13000 4927 01       		.byte	0x1
 13001 4928 B101     		.2byte	0x1b1
 13002 492a 1B       		.byte	0x1b
 13003 492b 2C000000 		.4byte	0x2c
 13004 492f 6A070000 		.4byte	.LLST47
 13005 4933 64070000 		.4byte	.LVUS47
 13006 4937 3D       		.uleb128 0x3d
 13007 4938 6E00     		.ascii	"n\000"
 13008 493a 01       		.byte	0x1
 13009 493b B101     		.2byte	0x1b1
 13010 493d 28       		.byte	0x28
 13011 493e 2C000000 		.4byte	0x2c
 13012 4942 9E070000 		.4byte	.LLST48
 13013 4946 9A070000 		.4byte	.LVUS48
 13014 494a 32       		.uleb128 0x32
 13015 494b A4040000 		.4byte	.LASF789
 13016 494f 01       		.byte	0x1
 13017 4950 B101     		.2byte	0x1b1
 13018 4952 36       		.byte	0x36
 13019 4953 B1230000 		.4byte	0x23b1
 13020 4957 C2070000 		.4byte	.LLST49
 13021 495b BE070000 		.4byte	.LVUS49
 13022 495f 32       		.uleb128 0x32
 13023 4960 B30A0000 		.4byte	.LASF415
 13024 4964 01       		.byte	0x1
 13025 4965 B101     		.2byte	0x1b1
 13026 4967 42       		.byte	0x42
 13027 4968 46010000 		.4byte	0x146
ARM GAS  /tmp/ccDQUTww.s 			page 230


 13028 496c E6070000 		.4byte	.LLST50
 13029 4970 E2070000 		.4byte	.LVUS50
 13030 4974 3F       		.uleb128 0x3f
 13031 4975 80000000 		.4byte	.LASF780
 13032 4979 D3490000 		.4byte	0x49d3
 13033 497d 4E       		.uleb128 0x4e
 13034 497e BF530000 		.4byte	0x53bf
 13035 4982 D4020000 		.4byte	.LBB436
 13036 4986 04000000 		.4byte	.LBE436-.LBB436
 13037 498a 01       		.byte	0x1
 13038 498b B501     		.2byte	0x1b5
 13039 498d 03       		.byte	0x3
 13040 498e 4C       		.uleb128 0x4c
 13041 498f CD530000 		.4byte	0x53cd
 13042 4993 4E       		.uleb128 0x4e
 13043 4994 EF530000 		.4byte	0x53ef
 13044 4998 D4020000 		.4byte	.LBB437
 13045 499c 04000000 		.4byte	.LBE437-.LBB437
 13046 49a0 03       		.byte	0x3
 13047 49a1 2203     		.2byte	0x322
 13048 49a3 03       		.byte	0x3
 13049 49a4 4C       		.uleb128 0x4c
 13050 49a5 FD530000 		.4byte	0x53fd
 13051 49a9 4E       		.uleb128 0x4e
 13052 49aa 42540000 		.4byte	0x5442
 13053 49ae D4020000 		.4byte	.LBB438
 13054 49b2 04000000 		.4byte	.LBE438-.LBB438
 13055 49b6 39       		.byte	0x39
 13056 49b7 8A01     		.2byte	0x18a
 13057 49b9 03       		.byte	0x3
 13058 49ba 4C       		.uleb128 0x4c
 13059 49bb 50540000 		.4byte	0x5450
 13060 49bf 00       		.byte	0
 13061 49c0 00       		.byte	0
 13062 49c1 00       		.byte	0
 13063 49c2 00       		.byte	0
 13064 49c3 09       		.uleb128 0x9
 13065 49c4 86060000 		.4byte	0x686
 13066 49c8 D3490000 		.4byte	0x49d3
 13067 49cc 0A       		.uleb128 0xa
 13068 49cd 3D000000 		.4byte	0x3d
 13069 49d1 0D       		.byte	0xd
 13070 49d2 00       		.byte	0
 13071 49d3 15       		.uleb128 0x15
 13072 49d4 C3490000 		.4byte	0x49c3
 13073 49d8 3C       		.uleb128 0x3c
 13074 49d9 99020000 		.4byte	.LASF790
 13075 49dd 01       		.byte	0x1
 13076 49de 6601     		.2byte	0x166
 13077 49e0 08       		.byte	0x8
 13078 49e1 2C000000 		.4byte	0x2c
 13079 49e5 D0010000 		.4byte	.LFB371
 13080 49e9 DE000000 		.4byte	.LFE371-.LFB371
 13081 49ed 01       		.uleb128 0x1
 13082 49ee 9C       		.byte	0x9c
 13083 49ef 8A4C0000 		.4byte	0x4c8a
 13084 49f3 32       		.uleb128 0x32
ARM GAS  /tmp/ccDQUTww.s 			page 231


 13085 49f4 03090000 		.4byte	.LASF791
 13086 49f8 01       		.byte	0x1
 13087 49f9 6601     		.2byte	0x166
 13088 49fb 2E       		.byte	0x2e
 13089 49fc 8A4C0000 		.4byte	0x4c8a
 13090 4a00 0A080000 		.4byte	.LLST34
 13091 4a04 06080000 		.4byte	.LVUS34
 13092 4a08 3D       		.uleb128 0x3d
 13093 4a09 627000   		.ascii	"bp\000"
 13094 4a0c 01       		.byte	0x1
 13095 4a0d 6601     		.2byte	0x166
 13096 4a0f 3D       		.byte	0x3d
 13097 4a10 D01C0000 		.4byte	0x1cd0
 13098 4a14 2C080000 		.4byte	.LLST35
 13099 4a18 28080000 		.4byte	.LVUS35
 13100 4a1c 3D       		.uleb128 0x3d
 13101 4a1d 6E00     		.ascii	"n\000"
 13102 4a1f 01       		.byte	0x1
 13103 4a20 6701     		.2byte	0x167
 13104 4a22 1E       		.byte	0x1e
 13105 4a23 2C000000 		.4byte	0x2c
 13106 4a27 4E080000 		.4byte	.LLST36
 13107 4a2b 4A080000 		.4byte	.LVUS36
 13108 4a2f 32       		.uleb128 0x32
 13109 4a30 79090000 		.4byte	.LASF778
 13110 4a34 01       		.byte	0x1
 13111 4a35 6701     		.2byte	0x167
 13112 4a37 2F       		.byte	0x2f
 13113 4a38 8A0D0000 		.4byte	0xd8a
 13114 4a3c 70080000 		.4byte	.LLST37
 13115 4a40 6C080000 		.4byte	.LVUS37
 13116 4a44 3E       		.uleb128 0x3e
 13117 4a45 7200     		.ascii	"r\000"
 13118 4a47 01       		.byte	0x1
 13119 4a48 6801     		.2byte	0x168
 13120 4a4a 0A       		.byte	0xa
 13121 4a4b 2C000000 		.4byte	0x2c
 13122 4a4f 9B080000 		.4byte	.LLST38
 13123 4a53 91080000 		.4byte	.LVUS38
 13124 4a57 3F       		.uleb128 0x3f
 13125 4a58 80000000 		.4byte	.LASF780
 13126 4a5c A04C0000 		.4byte	0x4ca0
 13127 4a60 33       		.uleb128 0x33
 13128 4a61 C0010000 		.4byte	.Ldebug_ranges0+0x1c0
 13129 4a65 304C0000 		.4byte	0x4c30
 13130 4a69 34       		.uleb128 0x34
 13131 4a6a E50A0000 		.4byte	.LASF303
 13132 4a6e 01       		.byte	0x1
 13133 4a6f 6F01     		.2byte	0x16f
 13134 4a71 0C       		.byte	0xc
 13135 4a72 2C000000 		.4byte	0x2c
 13136 4a76 E7080000 		.4byte	.LLST40
 13137 4a7a DD080000 		.4byte	.LVUS40
 13138 4a7e 33       		.uleb128 0x33
 13139 4a7f 70020000 		.4byte	.Ldebug_ranges0+0x270
 13140 4a83 1B4B0000 		.4byte	0x4b1b
 13141 4a87 3E       		.uleb128 0x3e
ARM GAS  /tmp/ccDQUTww.s 			page 232


 13142 4a88 6D736700 		.ascii	"msg\000"
 13143 4a8c 01       		.byte	0x1
 13144 4a8d 7301     		.2byte	0x173
 13145 4a8f 0D       		.byte	0xd
 13146 4a90 FE090000 		.4byte	0x9fe
 13147 4a94 2A090000 		.4byte	.LLST44
 13148 4a98 26090000 		.4byte	.LVUS44
 13149 4a9c 3A       		.uleb128 0x3a
 13150 4a9d DB530000 		.4byte	0x53db
 13151 4aa1 A2020000 		.4byte	.LBI414
 13152 4aa5 01       		.byte	.LVU462
 13153 4aa6 98020000 		.4byte	.Ldebug_ranges0+0x298
 13154 4aaa 01       		.byte	0x1
 13155 4aab 7A01     		.2byte	0x17a
 13156 4aad 09       		.byte	0x9
 13157 4aae 034B0000 		.4byte	0x4b03
 13158 4ab2 35       		.uleb128 0x35
 13159 4ab3 0B540000 		.4byte	0x540b
 13160 4ab7 A2020000 		.4byte	.LBI415
 13161 4abb 03       		.byte	.LVU464
 13162 4abc A0020000 		.4byte	.Ldebug_ranges0+0x2a0
 13163 4ac0 03       		.byte	0x3
 13164 4ac1 0A02     		.2byte	0x20a
 13165 4ac3 03       		.byte	0x3
 13166 4ac4 37       		.uleb128 0x37
 13167 4ac5 A0020000 		.4byte	.Ldebug_ranges0+0x2a0
 13168 4ac9 35       		.uleb128 0x35
 13169 4aca 5E540000 		.4byte	0x545e
 13170 4ace A2020000 		.4byte	.LBI417
 13171 4ad2 09       		.byte	.LVU470
 13172 4ad3 A0020000 		.4byte	.Ldebug_ranges0+0x2a0
 13173 4ad7 04       		.byte	0x4
 13174 4ad8 7A01     		.2byte	0x17a
 13175 4ada 03       		.byte	0x3
 13176 4adb 3B       		.uleb128 0x3b
 13177 4adc 72540000 		.4byte	0x5472
 13178 4ae0 A2020000 		.4byte	.LBI418
 13179 4ae4 0B       		.byte	.LVU472
 13180 4ae5 A2020000 		.4byte	.LBB418
 13181 4ae9 04000000 		.4byte	.LBE418-.LBB418
 13182 4aed 05       		.byte	0x5
 13183 4aee B802     		.2byte	0x2b8
 13184 4af0 03       		.byte	0x3
 13185 4af1 36       		.uleb128 0x36
 13186 4af2 80540000 		.4byte	0x5480
 13187 4af6 4A090000 		.4byte	.LLST45
 13188 4afa 48090000 		.4byte	.LVUS45
 13189 4afe 00       		.byte	0
 13190 4aff 00       		.byte	0
 13191 4b00 00       		.byte	0
 13192 4b01 00       		.byte	0
 13193 4b02 00       		.byte	0
 13194 4b03 40       		.uleb128 0x40
 13195 4b04 86020000 		.4byte	.LVL64
 13196 4b08 C14F0000 		.4byte	0x4fc1
 13197 4b0c 39       		.uleb128 0x39
 13198 4b0d 01       		.uleb128 0x1
ARM GAS  /tmp/ccDQUTww.s 			page 233


 13199 4b0e 50       		.byte	0x50
 13200 4b0f 02       		.uleb128 0x2
 13201 4b10 75       		.byte	0x75
 13202 4b11 00       		.sleb128 0
 13203 4b12 39       		.uleb128 0x39
 13204 4b13 01       		.uleb128 0x1
 13205 4b14 51       		.byte	0x51
 13206 4b15 03       		.uleb128 0x3
 13207 4b16 91       		.byte	0x91
 13208 4b17 54       		.sleb128 -44
 13209 4b18 06       		.byte	0x6
 13210 4b19 00       		.byte	0
 13211 4b1a 00       		.byte	0
 13212 4b1b 3A       		.uleb128 0x3a
 13213 4b1c 724E0000 		.4byte	0x4e72
 13214 4b20 48020000 		.4byte	.LBI387
 13215 4b24 01       		.byte	.LVU387
 13216 4b25 10020000 		.4byte	.Ldebug_ranges0+0x210
 13217 4b29 01       		.byte	0x1
 13218 4b2a 9701     		.2byte	0x197
 13219 4b2c 07       		.byte	0x7
 13220 4b2d 514B0000 		.4byte	0x4b51
 13221 4b31 36       		.uleb128 0x36
 13222 4b32 804E0000 		.4byte	0x4e80
 13223 4b36 60090000 		.4byte	.LLST41
 13224 4b3a 5E090000 		.4byte	.LVUS41
 13225 4b3e 37       		.uleb128 0x37
 13226 4b3f 10020000 		.4byte	.Ldebug_ranges0+0x210
 13227 4b43 38       		.uleb128 0x38
 13228 4b44 6C020000 		.4byte	.LVL59
 13229 4b48 39       		.uleb128 0x39
 13230 4b49 01       		.uleb128 0x1
 13231 4b4a 50       		.byte	0x50
 13232 4b4b 02       		.uleb128 0x2
 13233 4b4c 75       		.byte	0x75
 13234 4b4d 00       		.sleb128 0
 13235 4b4e 00       		.byte	0
 13236 4b4f 00       		.byte	0
 13237 4b50 00       		.byte	0
 13238 4b51 3A       		.uleb128 0x3a
 13239 4b52 DB530000 		.4byte	0x53db
 13240 4b56 6C020000 		.4byte	.LBI391
 13241 4b5a 02       		.byte	.LVU413
 13242 4b5b 28020000 		.4byte	.Ldebug_ranges0+0x228
 13243 4b5f 01       		.byte	0x1
 13244 4b60 9B01     		.2byte	0x19b
 13245 4b62 05       		.byte	0x5
 13246 4b63 B84B0000 		.4byte	0x4bb8
 13247 4b67 35       		.uleb128 0x35
 13248 4b68 0B540000 		.4byte	0x540b
 13249 4b6c 6C020000 		.4byte	.LBI392
 13250 4b70 04       		.byte	.LVU415
 13251 4b71 30020000 		.4byte	.Ldebug_ranges0+0x230
 13252 4b75 03       		.byte	0x3
 13253 4b76 0A02     		.2byte	0x20a
 13254 4b78 03       		.byte	0x3
 13255 4b79 37       		.uleb128 0x37
ARM GAS  /tmp/ccDQUTww.s 			page 234


 13256 4b7a 30020000 		.4byte	.Ldebug_ranges0+0x230
 13257 4b7e 35       		.uleb128 0x35
 13258 4b7f 5E540000 		.4byte	0x545e
 13259 4b83 6C020000 		.4byte	.LBI394
 13260 4b87 0A       		.byte	.LVU421
 13261 4b88 30020000 		.4byte	.Ldebug_ranges0+0x230
 13262 4b8c 04       		.byte	0x4
 13263 4b8d 7A01     		.2byte	0x17a
 13264 4b8f 03       		.byte	0x3
 13265 4b90 3B       		.uleb128 0x3b
 13266 4b91 72540000 		.4byte	0x5472
 13267 4b95 6C020000 		.4byte	.LBI395
 13268 4b99 0C       		.byte	.LVU423
 13269 4b9a 6C020000 		.4byte	.LBB395
 13270 4b9e 04000000 		.4byte	.LBE395-.LBB395
 13271 4ba2 05       		.byte	0x5
 13272 4ba3 B802     		.2byte	0x2b8
 13273 4ba5 03       		.byte	0x3
 13274 4ba6 36       		.uleb128 0x36
 13275 4ba7 80540000 		.4byte	0x5480
 13276 4bab 75090000 		.4byte	.LLST42
 13277 4baf 73090000 		.4byte	.LVUS42
 13278 4bb3 00       		.byte	0
 13279 4bb4 00       		.byte	0
 13280 4bb5 00       		.byte	0
 13281 4bb6 00       		.byte	0
 13282 4bb7 00       		.byte	0
 13283 4bb8 3A       		.uleb128 0x3a
 13284 4bb9 E5530000 		.4byte	0x53e5
 13285 4bbd 74020000 		.4byte	.LBI402
 13286 4bc1 01       		.byte	.LVU429
 13287 4bc2 48020000 		.4byte	.Ldebug_ranges0+0x248
 13288 4bc6 01       		.byte	0x1
 13289 4bc7 9F01     		.2byte	0x19f
 13290 4bc9 05       		.byte	0x5
 13291 4bca 194C0000 		.4byte	0x4c19
 13292 4bce 35       		.uleb128 0x35
 13293 4bcf 38540000 		.4byte	0x5438
 13294 4bd3 74020000 		.4byte	.LBI403
 13295 4bd7 03       		.byte	.LVU431
 13296 4bd8 50020000 		.4byte	.Ldebug_ranges0+0x250
 13297 4bdc 03       		.byte	0x3
 13298 4bdd FF01     		.2byte	0x1ff
 13299 4bdf 03       		.byte	0x3
 13300 4be0 35       		.uleb128 0x35
 13301 4be1 68540000 		.4byte	0x5468
 13302 4be5 74020000 		.4byte	.LBI404
 13303 4be9 05       		.byte	.LVU433
 13304 4bea 58020000 		.4byte	.Ldebug_ranges0+0x258
 13305 4bee 04       		.byte	0x4
 13306 4bef 6301     		.2byte	0x163
 13307 4bf1 03       		.byte	0x3
 13308 4bf2 3B       		.uleb128 0x3b
 13309 4bf3 72540000 		.4byte	0x5472
 13310 4bf7 74020000 		.4byte	.LBI405
 13311 4bfb 07       		.byte	.LVU435
 13312 4bfc 74020000 		.4byte	.LBB405
ARM GAS  /tmp/ccDQUTww.s 			page 235


 13313 4c00 04000000 		.4byte	.LBE405-.LBB405
 13314 4c04 05       		.byte	0x5
 13315 4c05 A502     		.2byte	0x2a5
 13316 4c07 03       		.byte	0x3
 13317 4c08 36       		.uleb128 0x36
 13318 4c09 80540000 		.4byte	0x5480
 13319 4c0d 8B090000 		.4byte	.LLST43
 13320 4c11 89090000 		.4byte	.LVUS43
 13321 4c15 00       		.byte	0
 13322 4c16 00       		.byte	0
 13323 4c17 00       		.byte	0
 13324 4c18 00       		.byte	0
 13325 4c19 40       		.uleb128 0x40
 13326 4c1a 96020000 		.4byte	.LVL67
 13327 4c1e 5F560000 		.4byte	0x565f
 13328 4c22 39       		.uleb128 0x39
 13329 4c23 01       		.uleb128 0x1
 13330 4c24 50       		.byte	0x50
 13331 4c25 02       		.uleb128 0x2
 13332 4c26 76       		.byte	0x76
 13333 4c27 00       		.sleb128 0
 13334 4c28 39       		.uleb128 0x39
 13335 4c29 01       		.uleb128 0x1
 13336 4c2a 52       		.byte	0x52
 13337 4c2b 02       		.uleb128 0x2
 13338 4c2c 7A       		.byte	0x7a
 13339 4c2d 00       		.sleb128 0
 13340 4c2e 00       		.byte	0
 13341 4c2f 00       		.byte	0
 13342 4c30 35       		.uleb128 0x35
 13343 4c31 E5530000 		.4byte	0x53e5
 13344 4c35 D0010000 		.4byte	.LBI370
 13345 4c39 05       		.byte	.LVU344
 13346 4c3a 90010000 		.4byte	.Ldebug_ranges0+0x190
 13347 4c3e 01       		.byte	0x1
 13348 4c3f 6C01     		.2byte	0x16c
 13349 4c41 03       		.byte	0x3
 13350 4c42 35       		.uleb128 0x35
 13351 4c43 38540000 		.4byte	0x5438
 13352 4c47 D0010000 		.4byte	.LBI371
 13353 4c4b 07       		.byte	.LVU346
 13354 4c4c 98010000 		.4byte	.Ldebug_ranges0+0x198
 13355 4c50 03       		.byte	0x3
 13356 4c51 FF01     		.2byte	0x1ff
 13357 4c53 03       		.byte	0x3
 13358 4c54 35       		.uleb128 0x35
 13359 4c55 68540000 		.4byte	0x5468
 13360 4c59 D0010000 		.4byte	.LBI372
 13361 4c5d 09       		.byte	.LVU348
 13362 4c5e A0010000 		.4byte	.Ldebug_ranges0+0x1a0
 13363 4c62 04       		.byte	0x4
 13364 4c63 6301     		.2byte	0x163
 13365 4c65 03       		.byte	0x3
 13366 4c66 35       		.uleb128 0x35
 13367 4c67 72540000 		.4byte	0x5472
 13368 4c6b D0010000 		.4byte	.LBI373
 13369 4c6f 0B       		.byte	.LVU350
ARM GAS  /tmp/ccDQUTww.s 			page 236


 13370 4c70 A8010000 		.4byte	.Ldebug_ranges0+0x1a8
 13371 4c74 05       		.byte	0x5
 13372 4c75 A502     		.2byte	0x2a5
 13373 4c77 03       		.byte	0x3
 13374 4c78 36       		.uleb128 0x36
 13375 4c79 80540000 		.4byte	0x5480
 13376 4c7d A2090000 		.4byte	.LLST39
 13377 4c81 A0090000 		.4byte	.LVUS39
 13378 4c85 00       		.byte	0
 13379 4c86 00       		.byte	0
 13380 4c87 00       		.byte	0
 13381 4c88 00       		.byte	0
 13382 4c89 00       		.byte	0
 13383 4c8a 0E       		.uleb128 0xe
 13384 4c8b 04       		.byte	0x4
 13385 4c8c D4230000 		.4byte	0x23d4
 13386 4c90 09       		.uleb128 0x9
 13387 4c91 86060000 		.4byte	0x686
 13388 4c95 A04C0000 		.4byte	0x4ca0
 13389 4c99 0A       		.uleb128 0xa
 13390 4c9a 3D000000 		.4byte	0x3d
 13391 4c9e 0E       		.byte	0xe
 13392 4c9f 00       		.byte	0
 13393 4ca0 15       		.uleb128 0x15
 13394 4ca1 904C0000 		.4byte	0x4c90
 13395 4ca5 3C       		.uleb128 0x3c
 13396 4ca6 71130000 		.4byte	.LASF792
 13397 4caa 01       		.byte	0x1
 13398 4cab 3501     		.2byte	0x135
 13399 4cad 07       		.byte	0x7
 13400 4cae FE090000 		.4byte	0x9fe
 13401 4cb2 70010000 		.4byte	.LFB370
 13402 4cb6 5A000000 		.4byte	.LFE370-.LFB370
 13403 4cba 01       		.uleb128 0x1
 13404 4cbb 9C       		.byte	0x9c
 13405 4cbc 724E0000 		.4byte	0x4e72
 13406 4cc0 32       		.uleb128 0x32
 13407 4cc1 03090000 		.4byte	.LASF791
 13408 4cc5 01       		.byte	0x1
 13409 4cc6 3501     		.2byte	0x135
 13410 4cc8 2C       		.byte	0x2c
 13411 4cc9 8A4C0000 		.4byte	0x4c8a
 13412 4ccd BF090000 		.4byte	.LLST27
 13413 4cd1 B7090000 		.4byte	.LVUS27
 13414 4cd5 32       		.uleb128 0x32
 13415 4cd6 79090000 		.4byte	.LASF778
 13416 4cda 01       		.byte	0x1
 13417 4cdb 3501     		.2byte	0x135
 13418 4cdd 40       		.byte	0x40
 13419 4cde 8A0D0000 		.4byte	0xd8a
 13420 4ce2 FB090000 		.4byte	.LLST28
 13421 4ce6 F3090000 		.4byte	.LVUS28
 13422 4cea 3E       		.uleb128 0x3e
 13423 4ceb 6D736700 		.ascii	"msg\000"
 13424 4cef 01       		.byte	0x1
 13425 4cf0 3601     		.2byte	0x136
 13426 4cf2 09       		.byte	0x9
ARM GAS  /tmp/ccDQUTww.s 			page 237


 13427 4cf3 FE090000 		.4byte	0x9fe
 13428 4cf7 390A0000 		.4byte	.LLST29
 13429 4cfb 350A0000 		.4byte	.LVUS29
 13430 4cff 3A       		.uleb128 0x3a
 13431 4d00 E5530000 		.4byte	0x53e5
 13432 4d04 70010000 		.4byte	.LBI325
 13433 4d08 03       		.byte	.LVU251
 13434 4d09 18010000 		.4byte	.Ldebug_ranges0+0x118
 13435 4d0d 01       		.byte	0x1
 13436 4d0e 3801     		.2byte	0x138
 13437 4d10 03       		.byte	0x3
 13438 4d11 5C4D0000 		.4byte	0x4d5c
 13439 4d15 35       		.uleb128 0x35
 13440 4d16 38540000 		.4byte	0x5438
 13441 4d1a 70010000 		.4byte	.LBI326
 13442 4d1e 05       		.byte	.LVU253
 13443 4d1f 20010000 		.4byte	.Ldebug_ranges0+0x120
 13444 4d23 03       		.byte	0x3
 13445 4d24 FF01     		.2byte	0x1ff
 13446 4d26 03       		.byte	0x3
 13447 4d27 35       		.uleb128 0x35
 13448 4d28 68540000 		.4byte	0x5468
 13449 4d2c 70010000 		.4byte	.LBI327
 13450 4d30 07       		.byte	.LVU255
 13451 4d31 28010000 		.4byte	.Ldebug_ranges0+0x128
 13452 4d35 04       		.byte	0x4
 13453 4d36 6301     		.2byte	0x163
 13454 4d38 03       		.byte	0x3
 13455 4d39 35       		.uleb128 0x35
 13456 4d3a 72540000 		.4byte	0x5472
 13457 4d3e 70010000 		.4byte	.LBI328
 13458 4d42 09       		.byte	.LVU257
 13459 4d43 30010000 		.4byte	.Ldebug_ranges0+0x130
 13460 4d47 05       		.byte	0x5
 13461 4d48 A502     		.2byte	0x2a5
 13462 4d4a 03       		.byte	0x3
 13463 4d4b 36       		.uleb128 0x36
 13464 4d4c 80540000 		.4byte	0x5480
 13465 4d50 590A0000 		.4byte	.LLST30
 13466 4d54 570A0000 		.4byte	.LVUS30
 13467 4d58 00       		.byte	0
 13468 4d59 00       		.byte	0
 13469 4d5a 00       		.byte	0
 13470 4d5b 00       		.byte	0
 13471 4d5c 43       		.uleb128 0x43
 13472 4d5d 724E0000 		.4byte	0x4e72
 13473 4d61 8A010000 		.4byte	.LBI346
 13474 4d65 01       		.byte	.LVU277
 13475 4d66 8A010000 		.4byte	.LBB346
 13476 4d6a 24000000 		.4byte	.LBE346-.LBB346
 13477 4d6e 01       		.byte	0x1
 13478 4d6f 4A01     		.2byte	0x14a
 13479 4d71 05       		.byte	0x5
 13480 4d72 9A4D0000 		.4byte	0x4d9a
 13481 4d76 36       		.uleb128 0x36
 13482 4d77 804E0000 		.4byte	0x4e80
 13483 4d7b 700A0000 		.4byte	.LLST31
ARM GAS  /tmp/ccDQUTww.s 			page 238


 13484 4d7f 6E0A0000 		.4byte	.LVUS31
 13485 4d83 44       		.uleb128 0x44
 13486 4d84 8A010000 		.4byte	.LBB347
 13487 4d88 24000000 		.4byte	.LBE347-.LBB347
 13488 4d8c 38       		.uleb128 0x38
 13489 4d8d AE010000 		.4byte	.LVL42
 13490 4d91 39       		.uleb128 0x39
 13491 4d92 01       		.uleb128 0x1
 13492 4d93 50       		.byte	0x50
 13493 4d94 02       		.uleb128 0x2
 13494 4d95 74       		.byte	0x74
 13495 4d96 00       		.sleb128 0
 13496 4d97 00       		.byte	0
 13497 4d98 00       		.byte	0
 13498 4d99 00       		.byte	0
 13499 4d9a 3A       		.uleb128 0x3a
 13500 4d9b DB530000 		.4byte	0x53db
 13501 4d9f AE010000 		.4byte	.LBI348
 13502 4da3 02       		.byte	.LVU304
 13503 4da4 50010000 		.4byte	.Ldebug_ranges0+0x150
 13504 4da8 01       		.byte	0x1
 13505 4da9 4D01     		.2byte	0x14d
 13506 4dab 03       		.byte	0x3
 13507 4dac 014E0000 		.4byte	0x4e01
 13508 4db0 35       		.uleb128 0x35
 13509 4db1 0B540000 		.4byte	0x540b
 13510 4db5 AE010000 		.4byte	.LBI349
 13511 4db9 04       		.byte	.LVU306
 13512 4dba 58010000 		.4byte	.Ldebug_ranges0+0x158
 13513 4dbe 03       		.byte	0x3
 13514 4dbf 0A02     		.2byte	0x20a
 13515 4dc1 03       		.byte	0x3
 13516 4dc2 37       		.uleb128 0x37
 13517 4dc3 58010000 		.4byte	.Ldebug_ranges0+0x158
 13518 4dc7 35       		.uleb128 0x35
 13519 4dc8 5E540000 		.4byte	0x545e
 13520 4dcc AE010000 		.4byte	.LBI351
 13521 4dd0 0A       		.byte	.LVU312
 13522 4dd1 58010000 		.4byte	.Ldebug_ranges0+0x158
 13523 4dd5 04       		.byte	0x4
 13524 4dd6 7A01     		.2byte	0x17a
 13525 4dd8 03       		.byte	0x3
 13526 4dd9 3B       		.uleb128 0x3b
 13527 4dda 72540000 		.4byte	0x5472
 13528 4dde AE010000 		.4byte	.LBI352
 13529 4de2 0C       		.byte	.LVU314
 13530 4de3 AE010000 		.4byte	.LBB352
 13531 4de7 06000000 		.4byte	.LBE352-.LBB352
 13532 4deb 05       		.byte	0x5
 13533 4dec B802     		.2byte	0x2b8
 13534 4dee 03       		.byte	0x3
 13535 4def 36       		.uleb128 0x36
 13536 4df0 80540000 		.4byte	0x5480
 13537 4df4 850A0000 		.4byte	.LLST32
 13538 4df8 830A0000 		.4byte	.LVUS32
 13539 4dfc 00       		.byte	0
 13540 4dfd 00       		.byte	0
ARM GAS  /tmp/ccDQUTww.s 			page 239


 13541 4dfe 00       		.byte	0
 13542 4dff 00       		.byte	0
 13543 4e00 00       		.byte	0
 13544 4e01 3A       		.uleb128 0x3a
 13545 4e02 DB530000 		.4byte	0x53db
 13546 4e06 C4010000 		.4byte	.LBI359
 13547 4e0a 01       		.byte	.LVU324
 13548 4e0b 70010000 		.4byte	.Ldebug_ranges0+0x170
 13549 4e0f 01       		.byte	0x1
 13550 4e10 3E01     		.2byte	0x13e
 13551 4e12 07       		.byte	0x7
 13552 4e13 684E0000 		.4byte	0x4e68
 13553 4e17 35       		.uleb128 0x35
 13554 4e18 0B540000 		.4byte	0x540b
 13555 4e1c C4010000 		.4byte	.LBI360
 13556 4e20 03       		.byte	.LVU326
 13557 4e21 78010000 		.4byte	.Ldebug_ranges0+0x178
 13558 4e25 03       		.byte	0x3
 13559 4e26 0A02     		.2byte	0x20a
 13560 4e28 03       		.byte	0x3
 13561 4e29 37       		.uleb128 0x37
 13562 4e2a 78010000 		.4byte	.Ldebug_ranges0+0x178
 13563 4e2e 35       		.uleb128 0x35
 13564 4e2f 5E540000 		.4byte	0x545e
 13565 4e33 C4010000 		.4byte	.LBI362
 13566 4e37 09       		.byte	.LVU332
 13567 4e38 78010000 		.4byte	.Ldebug_ranges0+0x178
 13568 4e3c 04       		.byte	0x4
 13569 4e3d 7A01     		.2byte	0x17a
 13570 4e3f 03       		.byte	0x3
 13571 4e40 3B       		.uleb128 0x3b
 13572 4e41 72540000 		.4byte	0x5472
 13573 4e45 C4010000 		.4byte	.LBI363
 13574 4e49 0B       		.byte	.LVU334
 13575 4e4a C4010000 		.4byte	.LBB363
 13576 4e4e 04000000 		.4byte	.LBE363-.LBB363
 13577 4e52 05       		.byte	0x5
 13578 4e53 B802     		.2byte	0x2b8
 13579 4e55 03       		.byte	0x3
 13580 4e56 36       		.uleb128 0x36
 13581 4e57 80540000 		.4byte	0x5480
 13582 4e5b 9B0A0000 		.4byte	.LLST33
 13583 4e5f 990A0000 		.4byte	.LVUS33
 13584 4e63 00       		.byte	0
 13585 4e64 00       		.byte	0
 13586 4e65 00       		.byte	0
 13587 4e66 00       		.byte	0
 13588 4e67 00       		.byte	0
 13589 4e68 4F       		.uleb128 0x4f
 13590 4e69 BC010000 		.4byte	.LVL45
 13591 4e6d C14F0000 		.4byte	0x4fc1
 13592 4e71 00       		.byte	0
 13593 4e72 41       		.uleb128 0x41
 13594 4e73 B1180000 		.4byte	.LASF794
 13595 4e77 01       		.byte	0x1
 13596 4e78 0D01     		.2byte	0x10d
 13597 4e7a 08       		.byte	0x8
ARM GAS  /tmp/ccDQUTww.s 			page 240


 13598 4e7b 01       		.byte	0x1
 13599 4e7c 974E0000 		.4byte	0x4e97
 13600 4e80 42       		.uleb128 0x42
 13601 4e81 03090000 		.4byte	.LASF791
 13602 4e85 01       		.byte	0x1
 13603 4e86 0D01     		.2byte	0x10d
 13604 4e88 36       		.byte	0x36
 13605 4e89 8A4C0000 		.4byte	0x4c8a
 13606 4e8d 3F       		.uleb128 0x3f
 13607 4e8e 80000000 		.4byte	.LASF780
 13608 4e92 2C480000 		.4byte	0x482c
 13609 4e96 00       		.byte	0
 13610 4e97 50       		.uleb128 0x50
 13611 4e98 3D190000 		.4byte	.LASF795
 13612 4e9c 01       		.byte	0x1
 13613 4e9d FE       		.byte	0xfe
 13614 4e9e 06       		.byte	0x6
 13615 4e9f 00010000 		.4byte	.LFB368
 13616 4ea3 32000000 		.4byte	.LFE368-.LFB368
 13617 4ea7 01       		.uleb128 0x1
 13618 4ea8 9C       		.byte	0x9c
 13619 4ea9 C14F0000 		.4byte	0x4fc1
 13620 4ead 51       		.uleb128 0x51
 13621 4eae 03090000 		.4byte	.LASF791
 13622 4eb2 01       		.byte	0x1
 13623 4eb3 FE       		.byte	0xfe
 13624 4eb4 33       		.byte	0x33
 13625 4eb5 8A4C0000 		.4byte	0x4c8a
 13626 4eb9 B30A0000 		.4byte	.LLST22
 13627 4ebd AF0A0000 		.4byte	.LVUS22
 13628 4ec1 3A       		.uleb128 0x3a
 13629 4ec2 E5530000 		.4byte	0x53e5
 13630 4ec6 00010000 		.4byte	.LBI296
 13631 4eca 02       		.byte	.LVU163
 13632 4ecb C8000000 		.4byte	.Ldebug_ranges0+0xc8
 13633 4ecf 01       		.byte	0x1
 13634 4ed0 0001     		.2byte	0x100
 13635 4ed2 03       		.byte	0x3
 13636 4ed3 1E4F0000 		.4byte	0x4f1e
 13637 4ed7 35       		.uleb128 0x35
 13638 4ed8 38540000 		.4byte	0x5438
 13639 4edc 00010000 		.4byte	.LBI297
 13640 4ee0 04       		.byte	.LVU165
 13641 4ee1 D0000000 		.4byte	.Ldebug_ranges0+0xd0
 13642 4ee5 03       		.byte	0x3
 13643 4ee6 FF01     		.2byte	0x1ff
 13644 4ee8 03       		.byte	0x3
 13645 4ee9 35       		.uleb128 0x35
 13646 4eea 68540000 		.4byte	0x5468
 13647 4eee 00010000 		.4byte	.LBI298
 13648 4ef2 06       		.byte	.LVU167
 13649 4ef3 D8000000 		.4byte	.Ldebug_ranges0+0xd8
 13650 4ef7 04       		.byte	0x4
 13651 4ef8 6301     		.2byte	0x163
 13652 4efa 03       		.byte	0x3
 13653 4efb 35       		.uleb128 0x35
 13654 4efc 72540000 		.4byte	0x5472
ARM GAS  /tmp/ccDQUTww.s 			page 241


 13655 4f00 00010000 		.4byte	.LBI299
 13656 4f04 08       		.byte	.LVU169
 13657 4f05 E0000000 		.4byte	.Ldebug_ranges0+0xe0
 13658 4f09 05       		.byte	0x5
 13659 4f0a A502     		.2byte	0x2a5
 13660 4f0c 03       		.byte	0x3
 13661 4f0d 36       		.uleb128 0x36
 13662 4f0e 80540000 		.4byte	0x5480
 13663 4f12 D60A0000 		.4byte	.LLST23
 13664 4f16 D40A0000 		.4byte	.LVUS23
 13665 4f1a 00       		.byte	0
 13666 4f1b 00       		.byte	0
 13667 4f1c 00       		.byte	0
 13668 4f1d 00       		.byte	0
 13669 4f1e 43       		.uleb128 0x43
 13670 4f1f 724E0000 		.4byte	0x4e72
 13671 4f23 08010000 		.4byte	.LBI312
 13672 4f27 04       		.byte	.LVU177
 13673 4f28 08010000 		.4byte	.LBB312
 13674 4f2c 22000000 		.4byte	.LBE312-.LBB312
 13675 4f30 01       		.byte	0x1
 13676 4f31 0101     		.2byte	0x101
 13677 4f33 03       		.byte	0x3
 13678 4f34 5D4F0000 		.4byte	0x4f5d
 13679 4f38 36       		.uleb128 0x36
 13680 4f39 804E0000 		.4byte	0x4e80
 13681 4f3d EF0A0000 		.4byte	.LLST24
 13682 4f41 EB0A0000 		.4byte	.LVUS24
 13683 4f45 44       		.uleb128 0x44
 13684 4f46 08010000 		.4byte	.LBB313
 13685 4f4a 22000000 		.4byte	.LBE313-.LBB313
 13686 4f4e 38       		.uleb128 0x38
 13687 4f4f 2A010000 		.4byte	.LVL33
 13688 4f53 39       		.uleb128 0x39
 13689 4f54 01       		.uleb128 0x1
 13690 4f55 50       		.byte	0x50
 13691 4f56 03       		.uleb128 0x3
 13692 4f57 F3       		.byte	0xf3
 13693 4f58 01       		.uleb128 0x1
 13694 4f59 50       		.byte	0x50
 13695 4f5a 00       		.byte	0
 13696 4f5b 00       		.byte	0
 13697 4f5c 00       		.byte	0
 13698 4f5d 35       		.uleb128 0x35
 13699 4f5e DB530000 		.4byte	0x53db
 13700 4f62 2A010000 		.4byte	.LBI314
 13701 4f66 02       		.byte	.LVU204
 13702 4f67 F8000000 		.4byte	.Ldebug_ranges0+0xf8
 13703 4f6b 01       		.byte	0x1
 13704 4f6c 0201     		.2byte	0x102
 13705 4f6e 03       		.byte	0x3
 13706 4f6f 35       		.uleb128 0x35
 13707 4f70 0B540000 		.4byte	0x540b
 13708 4f74 2A010000 		.4byte	.LBI315
 13709 4f78 04       		.byte	.LVU206
 13710 4f79 00010000 		.4byte	.Ldebug_ranges0+0x100
 13711 4f7d 03       		.byte	0x3
ARM GAS  /tmp/ccDQUTww.s 			page 242


 13712 4f7e 0A02     		.2byte	0x20a
 13713 4f80 03       		.byte	0x3
 13714 4f81 37       		.uleb128 0x37
 13715 4f82 00010000 		.4byte	.Ldebug_ranges0+0x100
 13716 4f86 35       		.uleb128 0x35
 13717 4f87 5E540000 		.4byte	0x545e
 13718 4f8b 2A010000 		.4byte	.LBI317
 13719 4f8f 0A       		.byte	.LVU212
 13720 4f90 00010000 		.4byte	.Ldebug_ranges0+0x100
 13721 4f94 04       		.byte	0x4
 13722 4f95 7A01     		.2byte	0x17a
 13723 4f97 03       		.byte	0x3
 13724 4f98 3B       		.uleb128 0x3b
 13725 4f99 72540000 		.4byte	0x5472
 13726 4f9d 2A010000 		.4byte	.LBI318
 13727 4fa1 0C       		.byte	.LVU214
 13728 4fa2 2A010000 		.4byte	.LBB318
 13729 4fa6 06000000 		.4byte	.LBE318-.LBB318
 13730 4faa 05       		.byte	0x5
 13731 4fab B802     		.2byte	0x2b8
 13732 4fad 03       		.byte	0x3
 13733 4fae 36       		.uleb128 0x36
 13734 4faf 80540000 		.4byte	0x5480
 13735 4fb3 120B0000 		.4byte	.LLST25
 13736 4fb7 100B0000 		.4byte	.LVUS25
 13737 4fbb 00       		.byte	0
 13738 4fbc 00       		.byte	0
 13739 4fbd 00       		.byte	0
 13740 4fbe 00       		.byte	0
 13741 4fbf 00       		.byte	0
 13742 4fc0 00       		.byte	0
 13743 4fc1 52       		.uleb128 0x52
 13744 4fc2 21110000 		.4byte	.LASF797
 13745 4fc6 01       		.byte	0x1
 13746 4fc7 DE       		.byte	0xde
 13747 4fc8 09       		.byte	0x9
 13748 4fc9 FE090000 		.4byte	0x9fe
 13749 4fcd 01       		.byte	0x1
 13750 4fce 02500000 		.4byte	0x5002
 13751 4fd2 53       		.uleb128 0x53
 13752 4fd3 03090000 		.4byte	.LASF791
 13753 4fd7 01       		.byte	0x1
 13754 4fd8 DE       		.byte	0xde
 13755 4fd9 39       		.byte	0x39
 13756 4fda 8A4C0000 		.4byte	0x4c8a
 13757 4fde 53       		.uleb128 0x53
 13758 4fdf 79090000 		.4byte	.LASF778
 13759 4fe3 01       		.byte	0x1
 13760 4fe4 DF       		.byte	0xdf
 13761 4fe5 30       		.byte	0x30
 13762 4fe6 8A0D0000 		.4byte	0xd8a
 13763 4fea 3F       		.uleb128 0x3f
 13764 4feb 80000000 		.4byte	.LASF780
 13765 4fef 12500000 		.4byte	0x5012
 13766 4ff3 46       		.uleb128 0x46
 13767 4ff4 54       		.uleb128 0x54
 13768 4ff5 6D736700 		.ascii	"msg\000"
ARM GAS  /tmp/ccDQUTww.s 			page 243


 13769 4ff9 01       		.byte	0x1
 13770 4ffa E7       		.byte	0xe7
 13771 4ffb 0B       		.byte	0xb
 13772 4ffc FE090000 		.4byte	0x9fe
 13773 5000 00       		.byte	0
 13774 5001 00       		.byte	0
 13775 5002 09       		.uleb128 0x9
 13776 5003 86060000 		.4byte	0x686
 13777 5007 12500000 		.4byte	0x5012
 13778 500b 0A       		.uleb128 0xa
 13779 500c 3D000000 		.4byte	0x3d
 13780 5010 18       		.byte	0x18
 13781 5011 00       		.byte	0
 13782 5012 15       		.uleb128 0x15
 13783 5013 02500000 		.4byte	0x5002
 13784 5017 55       		.uleb128 0x55
 13785 5018 50180000 		.4byte	.LASF798
 13786 501c 01       		.byte	0x1
 13787 501d BE       		.byte	0xbe
 13788 501e 07       		.byte	0x7
 13789 501f FE090000 		.4byte	0x9fe
 13790 5023 E0000000 		.4byte	.LFB366
 13791 5027 14000000 		.4byte	.LFE366-.LFB366
 13792 502b 01       		.uleb128 0x1
 13793 502c 9C       		.byte	0x9c
 13794 502d 48510000 		.4byte	0x5148
 13795 5031 51       		.uleb128 0x51
 13796 5032 03090000 		.4byte	.LASF791
 13797 5036 01       		.byte	0x1
 13798 5037 BE       		.byte	0xbe
 13799 5038 36       		.byte	0x36
 13800 5039 8A4C0000 		.4byte	0x4c8a
 13801 503d 2A0B0000 		.4byte	.LLST17
 13802 5041 260B0000 		.4byte	.LVUS17
 13803 5045 51       		.uleb128 0x51
 13804 5046 79090000 		.4byte	.LASF778
 13805 504a 01       		.byte	0x1
 13806 504b BF       		.byte	0xbf
 13807 504c 2D       		.byte	0x2d
 13808 504d 8A0D0000 		.4byte	0xd8a
 13809 5051 4F0B0000 		.4byte	.LLST18
 13810 5055 4B0B0000 		.4byte	.LVUS18
 13811 5059 56       		.uleb128 0x56
 13812 505a 6D736700 		.ascii	"msg\000"
 13813 505e 01       		.byte	0x1
 13814 505f C0       		.byte	0xc0
 13815 5060 09       		.byte	0x9
 13816 5061 FE090000 		.4byte	0x9fe
 13817 5065 720B0000 		.4byte	.LLST19
 13818 5069 700B0000 		.4byte	.LVUS19
 13819 506d 57       		.uleb128 0x57
 13820 506e E5530000 		.4byte	0x53e5
 13821 5072 E0000000 		.4byte	.LBI269
 13822 5076 03       		.byte	.LVU130
 13823 5077 78000000 		.4byte	.Ldebug_ranges0+0x78
 13824 507b 01       		.byte	0x1
 13825 507c C2       		.byte	0xc2
ARM GAS  /tmp/ccDQUTww.s 			page 244


 13826 507d 03       		.byte	0x3
 13827 507e C9500000 		.4byte	0x50c9
 13828 5082 35       		.uleb128 0x35
 13829 5083 38540000 		.4byte	0x5438
 13830 5087 E0000000 		.4byte	.LBI270
 13831 508b 05       		.byte	.LVU132
 13832 508c 80000000 		.4byte	.Ldebug_ranges0+0x80
 13833 5090 03       		.byte	0x3
 13834 5091 FF01     		.2byte	0x1ff
 13835 5093 03       		.byte	0x3
 13836 5094 35       		.uleb128 0x35
 13837 5095 68540000 		.4byte	0x5468
 13838 5099 E0000000 		.4byte	.LBI271
 13839 509d 07       		.byte	.LVU134
 13840 509e 88000000 		.4byte	.Ldebug_ranges0+0x88
 13841 50a2 04       		.byte	0x4
 13842 50a3 6301     		.2byte	0x163
 13843 50a5 03       		.byte	0x3
 13844 50a6 35       		.uleb128 0x35
 13845 50a7 72540000 		.4byte	0x5472
 13846 50ab E0000000 		.4byte	.LBI272
 13847 50af 09       		.byte	.LVU136
 13848 50b0 90000000 		.4byte	.Ldebug_ranges0+0x90
 13849 50b4 05       		.byte	0x5
 13850 50b5 A502     		.2byte	0x2a5
 13851 50b7 03       		.byte	0x3
 13852 50b8 36       		.uleb128 0x36
 13853 50b9 80540000 		.4byte	0x5480
 13854 50bd 870B0000 		.4byte	.LLST20
 13855 50c1 850B0000 		.4byte	.LVUS20
 13856 50c5 00       		.byte	0
 13857 50c6 00       		.byte	0
 13858 50c7 00       		.byte	0
 13859 50c8 00       		.byte	0
 13860 50c9 57       		.uleb128 0x57
 13861 50ca DB530000 		.4byte	0x53db
 13862 50ce EC000000 		.4byte	.LBI285
 13863 50d2 01       		.byte	.LVU146
 13864 50d3 A8000000 		.4byte	.Ldebug_ranges0+0xa8
 13865 50d7 01       		.byte	0x1
 13866 50d8 C4       		.byte	0xc4
 13867 50d9 03       		.byte	0x3
 13868 50da 2F510000 		.4byte	0x512f
 13869 50de 35       		.uleb128 0x35
 13870 50df 0B540000 		.4byte	0x540b
 13871 50e3 EC000000 		.4byte	.LBI286
 13872 50e7 03       		.byte	.LVU148
 13873 50e8 B0000000 		.4byte	.Ldebug_ranges0+0xb0
 13874 50ec 03       		.byte	0x3
 13875 50ed 0A02     		.2byte	0x20a
 13876 50ef 03       		.byte	0x3
 13877 50f0 37       		.uleb128 0x37
 13878 50f1 B0000000 		.4byte	.Ldebug_ranges0+0xb0
 13879 50f5 35       		.uleb128 0x35
 13880 50f6 5E540000 		.4byte	0x545e
 13881 50fa EC000000 		.4byte	.LBI288
 13882 50fe 09       		.byte	.LVU154
ARM GAS  /tmp/ccDQUTww.s 			page 245


 13883 50ff B0000000 		.4byte	.Ldebug_ranges0+0xb0
 13884 5103 04       		.byte	0x4
 13885 5104 7A01     		.2byte	0x17a
 13886 5106 03       		.byte	0x3
 13887 5107 3B       		.uleb128 0x3b
 13888 5108 72540000 		.4byte	0x5472
 13889 510c EC000000 		.4byte	.LBI289
 13890 5110 0B       		.byte	.LVU156
 13891 5111 EC000000 		.4byte	.LBB289
 13892 5115 06000000 		.4byte	.LBE289-.LBB289
 13893 5119 05       		.byte	0x5
 13894 511a B802     		.2byte	0x2b8
 13895 511c 03       		.byte	0x3
 13896 511d 36       		.uleb128 0x36
 13897 511e 80540000 		.4byte	0x5480
 13898 5122 9E0B0000 		.4byte	.LLST21
 13899 5126 9C0B0000 		.4byte	.LVUS21
 13900 512a 00       		.byte	0
 13901 512b 00       		.byte	0
 13902 512c 00       		.byte	0
 13903 512d 00       		.byte	0
 13904 512e 00       		.byte	0
 13905 512f 40       		.uleb128 0x40
 13906 5130 EC000000 		.4byte	.LVL29
 13907 5134 C14F0000 		.4byte	0x4fc1
 13908 5138 39       		.uleb128 0x39
 13909 5139 01       		.uleb128 0x1
 13910 513a 50       		.byte	0x50
 13911 513b 03       		.uleb128 0x3
 13912 513c F3       		.byte	0xf3
 13913 513d 01       		.uleb128 0x1
 13914 513e 50       		.byte	0x50
 13915 513f 39       		.uleb128 0x39
 13916 5140 01       		.uleb128 0x1
 13917 5141 51       		.byte	0x51
 13918 5142 03       		.uleb128 0x3
 13919 5143 F3       		.byte	0xf3
 13920 5144 01       		.uleb128 0x1
 13921 5145 51       		.byte	0x51
 13922 5146 00       		.byte	0
 13923 5147 00       		.byte	0
 13924 5148 50       		.uleb128 0x50
 13925 5149 06210000 		.4byte	.LASF799
 13926 514d 01       		.byte	0x1
 13927 514e 94       		.byte	0x94
 13928 514f 06       		.byte	0x6
 13929 5150 70000000 		.4byte	.LFB365
 13930 5154 26000000 		.4byte	.LFE365-.LFB365
 13931 5158 01       		.uleb128 0x1
 13932 5159 9C       		.byte	0x9c
 13933 515a CB510000 		.4byte	0x51cb
 13934 515e 51       		.uleb128 0x51
 13935 515f 03090000 		.4byte	.LASF791
 13936 5163 01       		.byte	0x1
 13937 5164 94       		.byte	0x94
 13938 5165 30       		.byte	0x30
 13939 5166 8A4C0000 		.4byte	0x4c8a
ARM GAS  /tmp/ccDQUTww.s 			page 246


 13940 516a B60B0000 		.4byte	.LLST7
 13941 516e B20B0000 		.4byte	.LVUS7
 13942 5172 51       		.uleb128 0x51
 13943 5173 E50A0000 		.4byte	.LASF303
 13944 5177 01       		.byte	0x1
 13945 5178 94       		.byte	0x94
 13946 5179 3D       		.byte	0x3d
 13947 517a 2C000000 		.4byte	0x2c
 13948 517e DF0B0000 		.4byte	.LLST8
 13949 5182 D70B0000 		.4byte	.LVUS8
 13950 5186 3F       		.uleb128 0x3f
 13951 5187 80000000 		.4byte	.LASF780
 13952 518b C6440000 		.4byte	0x44c6
 13953 518f 58       		.uleb128 0x58
 13954 5190 69530000 		.4byte	0x5369
 13955 5194 8C000000 		.4byte	.LBI246
 13956 5198 01       		.byte	.LVU86
 13957 5199 20000000 		.4byte	.Ldebug_ranges0+0x20
 13958 519d 01       		.byte	0x1
 13959 519e A6       		.byte	0xa6
 13960 519f 03       		.byte	0x3
 13961 51a0 48       		.uleb128 0x48
 13962 51a1 84530000 		.4byte	0x5384
 13963 51a5 00       		.byte	0
 13964 51a6 36       		.uleb128 0x36
 13965 51a7 77530000 		.4byte	0x5377
 13966 51ab 1D0C0000 		.4byte	.LLST9
 13967 51af 190C0000 		.4byte	.LVUS9
 13968 51b3 49       		.uleb128 0x49
 13969 51b4 96000000 		.4byte	.LVL17
 13970 51b8 6A560000 		.4byte	0x566a
 13971 51bc 39       		.uleb128 0x39
 13972 51bd 01       		.uleb128 0x1
 13973 51be 50       		.byte	0x50
 13974 51bf 03       		.uleb128 0x3
 13975 51c0 F3       		.byte	0xf3
 13976 51c1 01       		.uleb128 0x1
 13977 51c2 50       		.byte	0x50
 13978 51c3 39       		.uleb128 0x39
 13979 51c4 01       		.uleb128 0x1
 13980 51c5 51       		.byte	0x51
 13981 51c6 01       		.uleb128 0x1
 13982 51c7 30       		.byte	0x30
 13983 51c8 00       		.byte	0
 13984 51c9 00       		.byte	0
 13985 51ca 00       		.byte	0
 13986 51cb 55       		.uleb128 0x55
 13987 51cc 8B040000 		.4byte	.LASF800
 13988 51d0 01       		.byte	0x1
 13989 51d1 81       		.byte	0x81
 13990 51d2 0A       		.byte	0xa
 13991 51d3 D01C0000 		.4byte	0x1cd0
 13992 51d7 50000000 		.4byte	.LFB364
 13993 51db 16000000 		.4byte	.LFE364-.LFB364
 13994 51df 01       		.uleb128 0x1
 13995 51e0 9C       		.byte	0x9c
 13996 51e1 FA510000 		.4byte	0x51fa
ARM GAS  /tmp/ccDQUTww.s 			page 247


 13997 51e5 51       		.uleb128 0x51
 13998 51e6 03090000 		.4byte	.LASF791
 13999 51ea 01       		.byte	0x1
 14000 51eb 81       		.byte	0x81
 14001 51ec 34       		.byte	0x34
 14002 51ed 8A4C0000 		.4byte	0x4c8a
 14003 51f1 460C0000 		.4byte	.LLST6
 14004 51f5 3E0C0000 		.4byte	.LVUS6
 14005 51f9 00       		.byte	0
 14006 51fa 50       		.uleb128 0x50
 14007 51fb BF0F0000 		.4byte	.LASF801
 14008 51ff 01       		.byte	0x1
 14009 5200 6B       		.byte	0x6b
 14010 5201 06       		.byte	0x6
 14011 5202 30000000 		.4byte	.LFB363
 14012 5206 1C000000 		.4byte	.LFE363-.LFB363
 14013 520a 01       		.uleb128 0x1
 14014 520b 9C       		.byte	0x9c
 14015 520c 59520000 		.4byte	0x5259
 14016 5210 51       		.uleb128 0x51
 14017 5211 03090000 		.4byte	.LASF791
 14018 5215 01       		.byte	0x1
 14019 5216 6B       		.byte	0x6b
 14020 5217 27       		.byte	0x27
 14021 5218 8A4C0000 		.4byte	0x4c8a
 14022 521c 840C0000 		.4byte	.LLST5
 14023 5220 800C0000 		.4byte	.LVUS5
 14024 5224 58       		.uleb128 0x58
 14025 5225 3A530000 		.4byte	0x533a
 14026 5229 44000000 		.4byte	.LBI240
 14027 522d 01       		.byte	.LVU46
 14028 522e 00000000 		.4byte	.Ldebug_ranges0+0
 14029 5232 01       		.byte	0x1
 14030 5233 74       		.byte	0x74
 14031 5234 03       		.byte	0x3
 14032 5235 4B       		.uleb128 0x4b
 14033 5236 55530000 		.4byte	0x5355
 14034 523a 7E       		.sleb128 -2
 14035 523b 4C       		.uleb128 0x4c
 14036 523c 48530000 		.4byte	0x5348
 14037 5240 49       		.uleb128 0x49
 14038 5241 4C000000 		.4byte	.LVL7
 14039 5245 76560000 		.4byte	0x5676
 14040 5249 39       		.uleb128 0x39
 14041 524a 01       		.uleb128 0x1
 14042 524b 50       		.byte	0x50
 14043 524c 03       		.uleb128 0x3
 14044 524d F3       		.byte	0xf3
 14045 524e 01       		.uleb128 0x1
 14046 524f 50       		.byte	0x50
 14047 5250 39       		.uleb128 0x39
 14048 5251 01       		.uleb128 0x1
 14049 5252 51       		.byte	0x51
 14050 5253 02       		.uleb128 0x2
 14051 5254 09       		.byte	0x9
 14052 5255 FE       		.byte	0xfe
 14053 5256 00       		.byte	0
ARM GAS  /tmp/ccDQUTww.s 			page 248


 14054 5257 00       		.byte	0
 14055 5258 00       		.byte	0
 14056 5259 50       		.uleb128 0x50
 14057 525a 440A0000 		.4byte	.LASF802
 14058 525e 01       		.byte	0x1
 14059 525f 4C       		.byte	0x4c
 14060 5260 06       		.byte	0x6
 14061 5261 00000000 		.4byte	.LFB362
 14062 5265 30000000 		.4byte	.LFE362-.LFB362
 14063 5269 01       		.uleb128 0x1
 14064 526a 9C       		.byte	0x9c
 14065 526b 3A530000 		.4byte	0x533a
 14066 526f 59       		.uleb128 0x59
 14067 5270 03090000 		.4byte	.LASF791
 14068 5274 01       		.byte	0x1
 14069 5275 4C       		.byte	0x4c
 14070 5276 2B       		.byte	0x2b
 14071 5277 8A4C0000 		.4byte	0x4c8a
 14072 527b 01       		.uleb128 0x1
 14073 527c 50       		.byte	0x50
 14074 527d 51       		.uleb128 0x51
 14075 527e A81C0000 		.4byte	.LASF302
 14076 5282 01       		.byte	0x1
 14077 5283 4C       		.byte	0x4c
 14078 5284 36       		.byte	0x36
 14079 5285 7F1C0000 		.4byte	0x1c7f
 14080 5289 A90C0000 		.4byte	.LLST0
 14081 528d A50C0000 		.4byte	.LVUS0
 14082 5291 5A       		.uleb128 0x5a
 14083 5292 627000   		.ascii	"bp\000"
 14084 5295 01       		.byte	0x1
 14085 5296 4C       		.byte	0x4c
 14086 5297 4A       		.byte	0x4a
 14087 5298 D01C0000 		.4byte	0x1cd0
 14088 529c 01       		.uleb128 0x1
 14089 529d 52       		.byte	0x52
 14090 529e 51       		.uleb128 0x51
 14091 529f E50A0000 		.4byte	.LASF303
 14092 52a3 01       		.byte	0x1
 14093 52a4 4D       		.byte	0x4d
 14094 52a5 1B       		.byte	0x1b
 14095 52a6 2C000000 		.4byte	0x2c
 14096 52aa CE0C0000 		.4byte	.LLST1
 14097 52ae C80C0000 		.4byte	.LVUS1
 14098 52b2 5B       		.uleb128 0x5b
 14099 52b3 6E00     		.ascii	"n\000"
 14100 52b5 01       		.byte	0x1
 14101 52b6 4D       		.byte	0x4d
 14102 52b7 28       		.byte	0x28
 14103 52b8 2C000000 		.4byte	0x2c
 14104 52bc 020D0000 		.4byte	.LLST2
 14105 52c0 FE0C0000 		.4byte	.LVUS2
 14106 52c4 51       		.uleb128 0x51
 14107 52c5 7E080000 		.4byte	.LASF803
 14108 52c9 01       		.byte	0x1
 14109 52ca 4D       		.byte	0x4d
 14110 52cb 36       		.byte	0x36
ARM GAS  /tmp/ccDQUTww.s 			page 249


 14111 52cc B1230000 		.4byte	0x23b1
 14112 52d0 260D0000 		.4byte	.LLST3
 14113 52d4 220D0000 		.4byte	.LVUS3
 14114 52d8 51       		.uleb128 0x51
 14115 52d9 B30A0000 		.4byte	.LASF415
 14116 52dd 01       		.byte	0x1
 14117 52de 4D       		.byte	0x4d
 14118 52df 42       		.byte	0x42
 14119 52e0 46010000 		.4byte	0x146
 14120 52e4 4A0D0000 		.4byte	.LLST4
 14121 52e8 460D0000 		.4byte	.LVUS4
 14122 52ec 3F       		.uleb128 0x3f
 14123 52ed 80000000 		.4byte	.LASF780
 14124 52f1 D3490000 		.4byte	0x49d3
 14125 52f5 5C       		.uleb128 0x5c
 14126 52f6 BF530000 		.4byte	0x53bf
 14127 52fa 24000000 		.4byte	.LBB236
 14128 52fe 04000000 		.4byte	.LBE236-.LBB236
 14129 5302 01       		.byte	0x1
 14130 5303 51       		.byte	0x51
 14131 5304 03       		.byte	0x3
 14132 5305 4C       		.uleb128 0x4c
 14133 5306 CD530000 		.4byte	0x53cd
 14134 530a 4E       		.uleb128 0x4e
 14135 530b EF530000 		.4byte	0x53ef
 14136 530f 24000000 		.4byte	.LBB237
 14137 5313 04000000 		.4byte	.LBE237-.LBB237
 14138 5317 03       		.byte	0x3
 14139 5318 2203     		.2byte	0x322
 14140 531a 03       		.byte	0x3
 14141 531b 4C       		.uleb128 0x4c
 14142 531c FD530000 		.4byte	0x53fd
 14143 5320 4E       		.uleb128 0x4e
 14144 5321 42540000 		.4byte	0x5442
 14145 5325 24000000 		.4byte	.LBB238
 14146 5329 04000000 		.4byte	.LBE238-.LBB238
 14147 532d 39       		.byte	0x39
 14148 532e 8A01     		.2byte	0x18a
 14149 5330 03       		.byte	0x3
 14150 5331 4C       		.uleb128 0x4c
 14151 5332 50540000 		.4byte	0x5450
 14152 5336 00       		.byte	0
 14153 5337 00       		.byte	0
 14154 5338 00       		.byte	0
 14155 5339 00       		.byte	0
 14156 533a 5D       		.uleb128 0x5d
 14157 533b D80E0000 		.4byte	.LASF804
 14158 533f 03       		.byte	0x3
 14159 5340 5703     		.2byte	0x357
 14160 5342 14       		.byte	0x14
 14161 5343 03       		.byte	0x3
 14162 5344 63530000 		.4byte	0x5363
 14163 5348 5E       		.uleb128 0x5e
 14164 5349 74717000 		.ascii	"tqp\000"
 14165 534d 03       		.byte	0x3
 14166 534e 5703     		.2byte	0x357
 14167 5350 3B       		.byte	0x3b
ARM GAS  /tmp/ccDQUTww.s 			page 250


 14168 5351 63530000 		.4byte	0x5363
 14169 5355 5E       		.uleb128 0x5e
 14170 5356 6D736700 		.ascii	"msg\000"
 14171 535a 03       		.byte	0x3
 14172 535b 5703     		.2byte	0x357
 14173 535d 46       		.byte	0x46
 14174 535e FE090000 		.4byte	0x9fe
 14175 5362 00       		.byte	0
 14176 5363 0E       		.uleb128 0xe
 14177 5364 04       		.byte	0x4
 14178 5365 6F0B0000 		.4byte	0xb6f
 14179 5369 5D       		.uleb128 0x5d
 14180 536a 841B0000 		.4byte	.LASF805
 14181 536e 03       		.byte	0x3
 14182 536f 4A03     		.2byte	0x34a
 14183 5371 14       		.byte	0x14
 14184 5372 03       		.byte	0x3
 14185 5373 92530000 		.4byte	0x5392
 14186 5377 5E       		.uleb128 0x5e
 14187 5378 74717000 		.ascii	"tqp\000"
 14188 537c 03       		.byte	0x3
 14189 537d 4A03     		.2byte	0x34a
 14190 537f 3C       		.byte	0x3c
 14191 5380 63530000 		.4byte	0x5363
 14192 5384 5E       		.uleb128 0x5e
 14193 5385 6D736700 		.ascii	"msg\000"
 14194 5389 03       		.byte	0x3
 14195 538a 4A03     		.2byte	0x34a
 14196 538c 47       		.byte	0x47
 14197 538d FE090000 		.4byte	0x9fe
 14198 5391 00       		.byte	0
 14199 5392 5F       		.uleb128 0x5f
 14200 5393 72010000 		.4byte	.LASF823
 14201 5397 03       		.byte	0x3
 14202 5398 3C03     		.2byte	0x33c
 14203 539a 15       		.byte	0x15
 14204 539b FE090000 		.4byte	0x9fe
 14205 539f 03       		.byte	0x3
 14206 53a0 BF530000 		.4byte	0x53bf
 14207 53a4 5E       		.uleb128 0x5e
 14208 53a5 74717000 		.ascii	"tqp\000"
 14209 53a9 03       		.byte	0x3
 14210 53aa 3C03     		.2byte	0x33c
 14211 53ac 40       		.byte	0x40
 14212 53ad 63530000 		.4byte	0x5363
 14213 53b1 42       		.uleb128 0x42
 14214 53b2 79090000 		.4byte	.LASF778
 14215 53b6 03       		.byte	0x3
 14216 53b7 3D03     		.2byte	0x33d
 14217 53b9 3D       		.byte	0x3d
 14218 53ba 8A0D0000 		.4byte	0xd8a
 14219 53be 00       		.byte	0
 14220 53bf 5D       		.uleb128 0x5d
 14221 53c0 BB000000 		.4byte	.LASF806
 14222 53c4 03       		.byte	0x3
 14223 53c5 2003     		.2byte	0x320
 14224 53c7 14       		.byte	0x14
ARM GAS  /tmp/ccDQUTww.s 			page 251


 14225 53c8 03       		.byte	0x3
 14226 53c9 DB530000 		.4byte	0x53db
 14227 53cd 5E       		.uleb128 0x5e
 14228 53ce 74717000 		.ascii	"tqp\000"
 14229 53d2 03       		.byte	0x3
 14230 53d3 2003     		.2byte	0x320
 14231 53d5 3F       		.byte	0x3f
 14232 53d6 63530000 		.4byte	0x5363
 14233 53da 00       		.byte	0
 14234 53db 60       		.uleb128 0x60
 14235 53dc 8C010000 		.4byte	.LASF807
 14236 53e0 03       		.byte	0x3
 14237 53e1 0802     		.2byte	0x208
 14238 53e3 14       		.byte	0x14
 14239 53e4 03       		.byte	0x3
 14240 53e5 60       		.uleb128 0x60
 14241 53e6 F7170000 		.4byte	.LASF808
 14242 53ea 03       		.byte	0x3
 14243 53eb FD01     		.2byte	0x1fd
 14244 53ed 14       		.byte	0x14
 14245 53ee 03       		.byte	0x3
 14246 53ef 5D       		.uleb128 0x5d
 14247 53f0 34030000 		.4byte	.LASF809
 14248 53f4 39       		.byte	0x39
 14249 53f5 8801     		.2byte	0x188
 14250 53f7 14       		.byte	0x14
 14251 53f8 03       		.byte	0x3
 14252 53f9 0B540000 		.4byte	0x540b
 14253 53fd 5E       		.uleb128 0x5e
 14254 53fe 74717000 		.ascii	"tqp\000"
 14255 5402 39       		.byte	0x39
 14256 5403 8801     		.2byte	0x188
 14257 5405 3A       		.byte	0x3a
 14258 5406 63530000 		.4byte	0x5363
 14259 540a 00       		.byte	0
 14260 540b 5D       		.uleb128 0x5d
 14261 540c A71B0000 		.4byte	.LASF810
 14262 5410 04       		.byte	0x4
 14263 5411 6D01     		.2byte	0x16d
 14264 5413 14       		.byte	0x14
 14265 5414 03       		.byte	0x3
 14266 5415 23540000 		.4byte	0x5423
 14267 5419 3F       		.uleb128 0x3f
 14268 541a 80000000 		.4byte	.LASF780
 14269 541e 33540000 		.4byte	0x5433
 14270 5422 00       		.byte	0
 14271 5423 09       		.uleb128 0x9
 14272 5424 86060000 		.4byte	0x686
 14273 5428 33540000 		.4byte	0x5433
 14274 542c 0A       		.uleb128 0xa
 14275 542d 3D000000 		.4byte	0x3d
 14276 5431 0B       		.byte	0xb
 14277 5432 00       		.byte	0
 14278 5433 15       		.uleb128 0x15
 14279 5434 23540000 		.4byte	0x5423
 14280 5438 60       		.uleb128 0x60
 14281 5439 62140000 		.4byte	.LASF811
ARM GAS  /tmp/ccDQUTww.s 			page 252


 14282 543d 04       		.byte	0x4
 14283 543e 6101     		.2byte	0x161
 14284 5440 14       		.byte	0x14
 14285 5441 03       		.byte	0x3
 14286 5442 5D       		.uleb128 0x5d
 14287 5443 0C080000 		.4byte	.LASF812
 14288 5447 02       		.byte	0x2
 14289 5448 1902     		.2byte	0x219
 14290 544a 14       		.byte	0x14
 14291 544b 03       		.byte	0x3
 14292 544c 5E540000 		.4byte	0x545e
 14293 5450 5E       		.uleb128 0x5e
 14294 5451 74717000 		.ascii	"tqp\000"
 14295 5455 02       		.byte	0x2
 14296 5456 1902     		.2byte	0x219
 14297 5458 30       		.byte	0x30
 14298 5459 63530000 		.4byte	0x5363
 14299 545d 00       		.byte	0
 14300 545e 60       		.uleb128 0x60
 14301 545f 2B140000 		.4byte	.LASF813
 14302 5463 05       		.byte	0x5
 14303 5464 B502     		.2byte	0x2b5
 14304 5466 1B       		.byte	0x1b
 14305 5467 03       		.byte	0x3
 14306 5468 60       		.uleb128 0x60
 14307 5469 F5150000 		.4byte	.LASF814
 14308 546d 05       		.byte	0x5
 14309 546e 9D02     		.2byte	0x29d
 14310 5470 1B       		.byte	0x1b
 14311 5471 03       		.byte	0x3
 14312 5472 5D       		.uleb128 0x5d
 14313 5473 831E0000 		.4byte	.LASF815
 14314 5477 06       		.byte	0x6
 14315 5478 EB01     		.2byte	0x1eb
 14316 547a 1B       		.byte	0x1b
 14317 547b 03       		.byte	0x3
 14318 547c 8E540000 		.4byte	0x548e
 14319 5480 42       		.uleb128 0x42
 14320 5481 C2020000 		.4byte	.LASF816
 14321 5485 06       		.byte	0x6
 14322 5486 EB01     		.2byte	0x1eb
 14323 5488 32       		.byte	0x32
 14324 5489 94090000 		.4byte	0x994
 14325 548d 00       		.byte	0
 14326 548e 61       		.uleb128 0x61
 14327 548f C14F0000 		.4byte	0x4fc1
 14328 5493 A0000000 		.4byte	.LFB367
 14329 5497 34000000 		.4byte	.LFE367-.LFB367
 14330 549b 01       		.uleb128 0x1
 14331 549c 9C       		.byte	0x9c
 14332 549d 41550000 		.4byte	0x5541
 14333 54a1 36       		.uleb128 0x36
 14334 54a2 D24F0000 		.4byte	0x4fd2
 14335 54a6 760D0000 		.4byte	.LLST10
 14336 54aa 6A0D0000 		.4byte	.LVUS10
 14337 54ae 36       		.uleb128 0x36
 14338 54af DE4F0000 		.4byte	0x4fde
ARM GAS  /tmp/ccDQUTww.s 			page 253


 14339 54b3 CA0D0000 		.4byte	.LLST11
 14340 54b7 C00D0000 		.4byte	.LVUS11
 14341 54bb 33       		.uleb128 0x33
 14342 54bc 38000000 		.4byte	.Ldebug_ranges0+0x38
 14343 54c0 07550000 		.4byte	0x5507
 14344 54c4 62       		.uleb128 0x62
 14345 54c5 F44F0000 		.4byte	0x4ff4
 14346 54c9 0B0E0000 		.4byte	.LLST12
 14347 54cd 090E0000 		.4byte	.LVUS12
 14348 54d1 58       		.uleb128 0x58
 14349 54d2 92530000 		.4byte	0x5392
 14350 54d6 B4000000 		.4byte	.LBI259
 14351 54da 02       		.byte	.LVU106
 14352 54db 58000000 		.4byte	.Ldebug_ranges0+0x58
 14353 54df 01       		.byte	0x1
 14354 54e0 E7       		.byte	0xe7
 14355 54e1 11       		.byte	0x11
 14356 54e2 36       		.uleb128 0x36
 14357 54e3 B1530000 		.4byte	0x53b1
 14358 54e7 280E0000 		.4byte	.LLST13
 14359 54eb 1E0E0000 		.4byte	.LVUS13
 14360 54ef 36       		.uleb128 0x36
 14361 54f0 A4530000 		.4byte	0x53a4
 14362 54f4 750E0000 		.4byte	.LLST14
 14363 54f8 670E0000 		.4byte	.LVUS14
 14364 54fc 4F       		.uleb128 0x4f
 14365 54fd B0000000 		.4byte	.LVL20
 14366 5501 82560000 		.4byte	0x5682
 14367 5505 00       		.byte	0
 14368 5506 00       		.byte	0
 14369 5507 63       		.uleb128 0x63
 14370 5508 C14F0000 		.4byte	0x4fc1
 14371 550c BE000000 		.4byte	.LBI266
 14372 5510 00       		.byte	.LVU111
 14373 5511 BE000000 		.4byte	.LBB266
 14374 5515 0E000000 		.4byte	.LBE266-.LBB266
 14375 5519 01       		.byte	0x1
 14376 551a DE       		.byte	0xde
 14377 551b 09       		.byte	0x9
 14378 551c 36       		.uleb128 0x36
 14379 551d DE4F0000 		.4byte	0x4fde
 14380 5521 CC0E0000 		.4byte	.LLST15
 14381 5525 CA0E0000 		.4byte	.LVUS15
 14382 5529 36       		.uleb128 0x36
 14383 552a D24F0000 		.4byte	0x4fd2
 14384 552e E30E0000 		.4byte	.LLST16
 14385 5532 DF0E0000 		.4byte	.LVUS16
 14386 5536 64       		.uleb128 0x64
 14387 5537 BE000000 		.4byte	.LBB267
 14388 553b 0E000000 		.4byte	.LBE267-.LBB267
 14389 553f 00       		.byte	0
 14390 5540 00       		.byte	0
 14391 5541 61       		.uleb128 0x61
 14392 5542 724E0000 		.4byte	0x4e72
 14393 5546 40010000 		.4byte	.LFB369
 14394 554a 2E000000 		.4byte	.LFE369-.LFB369
 14395 554e 01       		.uleb128 0x1
ARM GAS  /tmp/ccDQUTww.s 			page 254


 14396 554f 9C       		.byte	0x9c
 14397 5550 6F550000 		.4byte	0x556f
 14398 5554 36       		.uleb128 0x36
 14399 5555 804E0000 		.4byte	0x4e80
 14400 5559 070F0000 		.4byte	.LLST26
 14401 555d 010F0000 		.4byte	.LVUS26
 14402 5561 65       		.uleb128 0x65
 14403 5562 68010000 		.4byte	.LVL36
 14404 5566 39       		.uleb128 0x39
 14405 5567 01       		.uleb128 0x1
 14406 5568 50       		.byte	0x50
 14407 5569 03       		.uleb128 0x3
 14408 556a F3       		.byte	0xf3
 14409 556b 01       		.uleb128 0x1
 14410 556c 50       		.byte	0x50
 14411 556d 00       		.byte	0
 14412 556e 00       		.byte	0
 14413 556f 61       		.uleb128 0x61
 14414 5570 19460000 		.4byte	0x4619
 14415 5574 50030000 		.4byte	.LFB377
 14416 5578 34000000 		.4byte	.LFE377-.LFB377
 14417 557c 01       		.uleb128 0x1
 14418 557d 9C       		.byte	0x9c
 14419 557e 24560000 		.4byte	0x5624
 14420 5582 36       		.uleb128 0x36
 14421 5583 2B460000 		.4byte	0x462b
 14422 5587 3F0F0000 		.4byte	.LLST55
 14423 558b 330F0000 		.4byte	.LVUS55
 14424 558f 36       		.uleb128 0x36
 14425 5590 38460000 		.4byte	0x4638
 14426 5594 930F0000 		.4byte	.LLST56
 14427 5598 890F0000 		.4byte	.LVUS56
 14428 559c 33       		.uleb128 0x33
 14429 559d F0020000 		.4byte	.Ldebug_ranges0+0x2f0
 14430 55a1 E9550000 		.4byte	0x55e9
 14431 55a5 62       		.uleb128 0x62
 14432 55a6 4F460000 		.4byte	0x464f
 14433 55aa D40F0000 		.4byte	.LLST57
 14434 55ae D20F0000 		.4byte	.LVUS57
 14435 55b2 35       		.uleb128 0x35
 14436 55b3 92530000 		.4byte	0x5392
 14437 55b7 64030000 		.4byte	.LBI459
 14438 55bb 02       		.byte	.LVU584
 14439 55bc 10030000 		.4byte	.Ldebug_ranges0+0x310
 14440 55c0 01       		.byte	0x1
 14441 55c1 4A02     		.2byte	0x24a
 14442 55c3 11       		.byte	0x11
 14443 55c4 36       		.uleb128 0x36
 14444 55c5 B1530000 		.4byte	0x53b1
 14445 55c9 F30F0000 		.4byte	.LLST58
 14446 55cd E70F0000 		.4byte	.LVUS58
 14447 55d1 36       		.uleb128 0x36
 14448 55d2 A4530000 		.4byte	0x53a4
 14449 55d6 4B100000 		.4byte	.LLST59
 14450 55da 3D100000 		.4byte	.LVUS59
 14451 55de 4F       		.uleb128 0x4f
 14452 55df 60030000 		.4byte	.LVL89
ARM GAS  /tmp/ccDQUTww.s 			page 255


 14453 55e3 82560000 		.4byte	0x5682
 14454 55e7 00       		.byte	0
 14455 55e8 00       		.byte	0
 14456 55e9 3B       		.uleb128 0x3b
 14457 55ea 19460000 		.4byte	0x4619
 14458 55ee 6E030000 		.4byte	.LBI466
 14459 55f2 00       		.byte	.LVU589
 14460 55f3 6E030000 		.4byte	.LBB466
 14461 55f7 0E000000 		.4byte	.LBE466-.LBB466
 14462 55fb 01       		.byte	0x1
 14463 55fc 4102     		.2byte	0x241
 14464 55fe 07       		.byte	0x7
 14465 55ff 36       		.uleb128 0x36
 14466 5600 38460000 		.4byte	0x4638
 14467 5604 A4100000 		.4byte	.LLST60
 14468 5608 A0100000 		.4byte	.LVUS60
 14469 560c 36       		.uleb128 0x36
 14470 560d 2B460000 		.4byte	0x462b
 14471 5611 C6100000 		.4byte	.LLST61
 14472 5615 C2100000 		.4byte	.LVUS61
 14473 5619 64       		.uleb128 0x64
 14474 561a 6E030000 		.4byte	.LBB467
 14475 561e 0E000000 		.4byte	.LBE467-.LBB467
 14476 5622 00       		.byte	0
 14477 5623 00       		.byte	0
 14478 5624 61       		.uleb128 0x61
 14479 5625 84440000 		.4byte	0x4484
 14480 5629 F0030000 		.4byte	.LFB379
 14481 562d 30000000 		.4byte	.LFE379-.LFB379
 14482 5631 01       		.uleb128 0x1
 14483 5632 9C       		.byte	0x9c
 14484 5633 5F560000 		.4byte	0x565f
 14485 5637 36       		.uleb128 0x36
 14486 5638 92440000 		.4byte	0x4492
 14487 563c EA100000 		.4byte	.LLST73
 14488 5640 E4100000 		.4byte	.LVUS73
 14489 5644 36       		.uleb128 0x36
 14490 5645 9F440000 		.4byte	0x449f
 14491 5649 1E110000 		.4byte	.LLST74
 14492 564d 16110000 		.4byte	.LVUS74
 14493 5651 65       		.uleb128 0x65
 14494 5652 1A040000 		.4byte	.LVL112
 14495 5656 39       		.uleb128 0x39
 14496 5657 01       		.uleb128 0x1
 14497 5658 50       		.byte	0x50
 14498 5659 03       		.uleb128 0x3
 14499 565a F3       		.byte	0xf3
 14500 565b 01       		.uleb128 0x1
 14501 565c 50       		.byte	0x50
 14502 565d 00       		.byte	0
 14503 565e 00       		.byte	0
 14504 565f 66       		.uleb128 0x66
 14505 5660 84040000 		.4byte	.LASF824
 14506 5664 7E190000 		.4byte	.LASF825
 14507 5668 3A       		.byte	0x3a
 14508 5669 00       		.byte	0
 14509 566a 67       		.uleb128 0x67
ARM GAS  /tmp/ccDQUTww.s 			page 256


 14510 566b FD120000 		.4byte	.LASF817
 14511 566f FD120000 		.4byte	.LASF817
 14512 5673 39       		.byte	0x39
 14513 5674 FB       		.byte	0xfb
 14514 5675 08       		.byte	0x8
 14515 5676 67       		.uleb128 0x67
 14516 5677 72070000 		.4byte	.LASF818
 14517 567b 72070000 		.4byte	.LASF818
 14518 567f 39       		.byte	0x39
 14519 5680 FC       		.byte	0xfc
 14520 5681 08       		.byte	0x8
 14521 5682 67       		.uleb128 0x67
 14522 5683 EB030000 		.4byte	.LASF819
 14523 5687 EB030000 		.4byte	.LASF819
 14524 568b 39       		.byte	0x39
 14525 568c FA       		.byte	0xfa
 14526 568d 09       		.byte	0x9
 14527 568e 00       		.byte	0
 14528              		.section	.debug_abbrev,"",%progbits
 14529              	.Ldebug_abbrev0:
 14530 0000 01       		.uleb128 0x1
 14531 0001 11       		.uleb128 0x11
 14532 0002 01       		.byte	0x1
 14533 0003 25       		.uleb128 0x25
 14534 0004 0E       		.uleb128 0xe
 14535 0005 13       		.uleb128 0x13
 14536 0006 0B       		.uleb128 0xb
 14537 0007 03       		.uleb128 0x3
 14538 0008 0E       		.uleb128 0xe
 14539 0009 1B       		.uleb128 0x1b
 14540 000a 0E       		.uleb128 0xe
 14541 000b 11       		.uleb128 0x11
 14542 000c 01       		.uleb128 0x1
 14543 000d 12       		.uleb128 0x12
 14544 000e 06       		.uleb128 0x6
 14545 000f 10       		.uleb128 0x10
 14546 0010 17       		.uleb128 0x17
 14547 0011 00       		.byte	0
 14548 0012 00       		.byte	0
 14549 0013 02       		.uleb128 0x2
 14550 0014 24       		.uleb128 0x24
 14551 0015 00       		.byte	0
 14552 0016 0B       		.uleb128 0xb
 14553 0017 0B       		.uleb128 0xb
 14554 0018 3E       		.uleb128 0x3e
 14555 0019 0B       		.uleb128 0xb
 14556 001a 03       		.uleb128 0x3
 14557 001b 08       		.uleb128 0x8
 14558 001c 00       		.byte	0
 14559 001d 00       		.byte	0
 14560 001e 03       		.uleb128 0x3
 14561 001f 16       		.uleb128 0x16
 14562 0020 00       		.byte	0
 14563 0021 03       		.uleb128 0x3
 14564 0022 0E       		.uleb128 0xe
 14565 0023 3A       		.uleb128 0x3a
 14566 0024 0B       		.uleb128 0xb
ARM GAS  /tmp/ccDQUTww.s 			page 257


 14567 0025 3B       		.uleb128 0x3b
 14568 0026 0B       		.uleb128 0xb
 14569 0027 39       		.uleb128 0x39
 14570 0028 0B       		.uleb128 0xb
 14571 0029 49       		.uleb128 0x49
 14572 002a 13       		.uleb128 0x13
 14573 002b 00       		.byte	0
 14574 002c 00       		.byte	0
 14575 002d 04       		.uleb128 0x4
 14576 002e 35       		.uleb128 0x35
 14577 002f 00       		.byte	0
 14578 0030 49       		.uleb128 0x49
 14579 0031 13       		.uleb128 0x13
 14580 0032 00       		.byte	0
 14581 0033 00       		.byte	0
 14582 0034 05       		.uleb128 0x5
 14583 0035 24       		.uleb128 0x24
 14584 0036 00       		.byte	0
 14585 0037 0B       		.uleb128 0xb
 14586 0038 0B       		.uleb128 0xb
 14587 0039 3E       		.uleb128 0x3e
 14588 003a 0B       		.uleb128 0xb
 14589 003b 03       		.uleb128 0x3
 14590 003c 0E       		.uleb128 0xe
 14591 003d 00       		.byte	0
 14592 003e 00       		.byte	0
 14593 003f 06       		.uleb128 0x6
 14594 0040 16       		.uleb128 0x16
 14595 0041 00       		.byte	0
 14596 0042 03       		.uleb128 0x3
 14597 0043 0E       		.uleb128 0xe
 14598 0044 3A       		.uleb128 0x3a
 14599 0045 0B       		.uleb128 0xb
 14600 0046 3B       		.uleb128 0x3b
 14601 0047 05       		.uleb128 0x5
 14602 0048 39       		.uleb128 0x39
 14603 0049 0B       		.uleb128 0xb
 14604 004a 49       		.uleb128 0x49
 14605 004b 13       		.uleb128 0x13
 14606 004c 00       		.byte	0
 14607 004d 00       		.byte	0
 14608 004e 07       		.uleb128 0x7
 14609 004f 17       		.uleb128 0x17
 14610 0050 01       		.byte	0x1
 14611 0051 0B       		.uleb128 0xb
 14612 0052 0B       		.uleb128 0xb
 14613 0053 3A       		.uleb128 0x3a
 14614 0054 0B       		.uleb128 0xb
 14615 0055 3B       		.uleb128 0x3b
 14616 0056 0B       		.uleb128 0xb
 14617 0057 39       		.uleb128 0x39
 14618 0058 0B       		.uleb128 0xb
 14619 0059 01       		.uleb128 0x1
 14620 005a 13       		.uleb128 0x13
 14621 005b 00       		.byte	0
 14622 005c 00       		.byte	0
 14623 005d 08       		.uleb128 0x8
ARM GAS  /tmp/ccDQUTww.s 			page 258


 14624 005e 0D       		.uleb128 0xd
 14625 005f 00       		.byte	0
 14626 0060 03       		.uleb128 0x3
 14627 0061 0E       		.uleb128 0xe
 14628 0062 3A       		.uleb128 0x3a
 14629 0063 0B       		.uleb128 0xb
 14630 0064 3B       		.uleb128 0x3b
 14631 0065 0B       		.uleb128 0xb
 14632 0066 39       		.uleb128 0x39
 14633 0067 0B       		.uleb128 0xb
 14634 0068 49       		.uleb128 0x49
 14635 0069 13       		.uleb128 0x13
 14636 006a 00       		.byte	0
 14637 006b 00       		.byte	0
 14638 006c 09       		.uleb128 0x9
 14639 006d 01       		.uleb128 0x1
 14640 006e 01       		.byte	0x1
 14641 006f 49       		.uleb128 0x49
 14642 0070 13       		.uleb128 0x13
 14643 0071 01       		.uleb128 0x1
 14644 0072 13       		.uleb128 0x13
 14645 0073 00       		.byte	0
 14646 0074 00       		.byte	0
 14647 0075 0A       		.uleb128 0xa
 14648 0076 21       		.uleb128 0x21
 14649 0077 00       		.byte	0
 14650 0078 49       		.uleb128 0x49
 14651 0079 13       		.uleb128 0x13
 14652 007a 2F       		.uleb128 0x2f
 14653 007b 0B       		.uleb128 0xb
 14654 007c 00       		.byte	0
 14655 007d 00       		.byte	0
 14656 007e 0B       		.uleb128 0xb
 14657 007f 13       		.uleb128 0x13
 14658 0080 01       		.byte	0x1
 14659 0081 0B       		.uleb128 0xb
 14660 0082 0B       		.uleb128 0xb
 14661 0083 3A       		.uleb128 0x3a
 14662 0084 0B       		.uleb128 0xb
 14663 0085 3B       		.uleb128 0x3b
 14664 0086 0B       		.uleb128 0xb
 14665 0087 39       		.uleb128 0x39
 14666 0088 0B       		.uleb128 0xb
 14667 0089 01       		.uleb128 0x1
 14668 008a 13       		.uleb128 0x13
 14669 008b 00       		.byte	0
 14670 008c 00       		.byte	0
 14671 008d 0C       		.uleb128 0xc
 14672 008e 0D       		.uleb128 0xd
 14673 008f 00       		.byte	0
 14674 0090 03       		.uleb128 0x3
 14675 0091 0E       		.uleb128 0xe
 14676 0092 3A       		.uleb128 0x3a
 14677 0093 0B       		.uleb128 0xb
 14678 0094 3B       		.uleb128 0x3b
 14679 0095 0B       		.uleb128 0xb
 14680 0096 39       		.uleb128 0x39
ARM GAS  /tmp/ccDQUTww.s 			page 259


 14681 0097 0B       		.uleb128 0xb
 14682 0098 49       		.uleb128 0x49
 14683 0099 13       		.uleb128 0x13
 14684 009a 38       		.uleb128 0x38
 14685 009b 0B       		.uleb128 0xb
 14686 009c 00       		.byte	0
 14687 009d 00       		.byte	0
 14688 009e 0D       		.uleb128 0xd
 14689 009f 0F       		.uleb128 0xf
 14690 00a0 00       		.byte	0
 14691 00a1 0B       		.uleb128 0xb
 14692 00a2 0B       		.uleb128 0xb
 14693 00a3 00       		.byte	0
 14694 00a4 00       		.byte	0
 14695 00a5 0E       		.uleb128 0xe
 14696 00a6 0F       		.uleb128 0xf
 14697 00a7 00       		.byte	0
 14698 00a8 0B       		.uleb128 0xb
 14699 00a9 0B       		.uleb128 0xb
 14700 00aa 49       		.uleb128 0x49
 14701 00ab 13       		.uleb128 0x13
 14702 00ac 00       		.byte	0
 14703 00ad 00       		.byte	0
 14704 00ae 0F       		.uleb128 0xf
 14705 00af 13       		.uleb128 0x13
 14706 00b0 00       		.byte	0
 14707 00b1 03       		.uleb128 0x3
 14708 00b2 0E       		.uleb128 0xe
 14709 00b3 3C       		.uleb128 0x3c
 14710 00b4 19       		.uleb128 0x19
 14711 00b5 00       		.byte	0
 14712 00b6 00       		.byte	0
 14713 00b7 10       		.uleb128 0x10
 14714 00b8 13       		.uleb128 0x13
 14715 00b9 01       		.byte	0x1
 14716 00ba 03       		.uleb128 0x3
 14717 00bb 0E       		.uleb128 0xe
 14718 00bc 0B       		.uleb128 0xb
 14719 00bd 0B       		.uleb128 0xb
 14720 00be 3A       		.uleb128 0x3a
 14721 00bf 0B       		.uleb128 0xb
 14722 00c0 3B       		.uleb128 0x3b
 14723 00c1 0B       		.uleb128 0xb
 14724 00c2 39       		.uleb128 0x39
 14725 00c3 0B       		.uleb128 0xb
 14726 00c4 01       		.uleb128 0x1
 14727 00c5 13       		.uleb128 0x13
 14728 00c6 00       		.byte	0
 14729 00c7 00       		.byte	0
 14730 00c8 11       		.uleb128 0x11
 14731 00c9 0D       		.uleb128 0xd
 14732 00ca 00       		.byte	0
 14733 00cb 03       		.uleb128 0x3
 14734 00cc 08       		.uleb128 0x8
 14735 00cd 3A       		.uleb128 0x3a
 14736 00ce 0B       		.uleb128 0xb
 14737 00cf 3B       		.uleb128 0x3b
ARM GAS  /tmp/ccDQUTww.s 			page 260


 14738 00d0 0B       		.uleb128 0xb
 14739 00d1 39       		.uleb128 0x39
 14740 00d2 0B       		.uleb128 0xb
 14741 00d3 49       		.uleb128 0x49
 14742 00d4 13       		.uleb128 0x13
 14743 00d5 38       		.uleb128 0x38
 14744 00d6 0B       		.uleb128 0xb
 14745 00d7 00       		.byte	0
 14746 00d8 00       		.byte	0
 14747 00d9 12       		.uleb128 0x12
 14748 00da 13       		.uleb128 0x13
 14749 00db 01       		.byte	0x1
 14750 00dc 03       		.uleb128 0x3
 14751 00dd 0E       		.uleb128 0xe
 14752 00de 0B       		.uleb128 0xb
 14753 00df 05       		.uleb128 0x5
 14754 00e0 3A       		.uleb128 0x3a
 14755 00e1 0B       		.uleb128 0xb
 14756 00e2 3B       		.uleb128 0x3b
 14757 00e3 0B       		.uleb128 0xb
 14758 00e4 39       		.uleb128 0x39
 14759 00e5 0B       		.uleb128 0xb
 14760 00e6 01       		.uleb128 0x1
 14761 00e7 13       		.uleb128 0x13
 14762 00e8 00       		.byte	0
 14763 00e9 00       		.byte	0
 14764 00ea 13       		.uleb128 0x13
 14765 00eb 0D       		.uleb128 0xd
 14766 00ec 00       		.byte	0
 14767 00ed 03       		.uleb128 0x3
 14768 00ee 0E       		.uleb128 0xe
 14769 00ef 3A       		.uleb128 0x3a
 14770 00f0 0B       		.uleb128 0xb
 14771 00f1 3B       		.uleb128 0x3b
 14772 00f2 0B       		.uleb128 0xb
 14773 00f3 39       		.uleb128 0x39
 14774 00f4 0B       		.uleb128 0xb
 14775 00f5 49       		.uleb128 0x49
 14776 00f6 13       		.uleb128 0x13
 14777 00f7 38       		.uleb128 0x38
 14778 00f8 05       		.uleb128 0x5
 14779 00f9 00       		.byte	0
 14780 00fa 00       		.byte	0
 14781 00fb 14       		.uleb128 0x14
 14782 00fc 15       		.uleb128 0x15
 14783 00fd 00       		.byte	0
 14784 00fe 27       		.uleb128 0x27
 14785 00ff 19       		.uleb128 0x19
 14786 0100 00       		.byte	0
 14787 0101 00       		.byte	0
 14788 0102 15       		.uleb128 0x15
 14789 0103 26       		.uleb128 0x26
 14790 0104 00       		.byte	0
 14791 0105 49       		.uleb128 0x49
 14792 0106 13       		.uleb128 0x13
 14793 0107 00       		.byte	0
 14794 0108 00       		.byte	0
ARM GAS  /tmp/ccDQUTww.s 			page 261


 14795 0109 16       		.uleb128 0x16
 14796 010a 13       		.uleb128 0x13
 14797 010b 01       		.byte	0x1
 14798 010c 03       		.uleb128 0x3
 14799 010d 0E       		.uleb128 0xe
 14800 010e 0B       		.uleb128 0xb
 14801 010f 0B       		.uleb128 0xb
 14802 0110 3A       		.uleb128 0x3a
 14803 0111 0B       		.uleb128 0xb
 14804 0112 3B       		.uleb128 0x3b
 14805 0113 05       		.uleb128 0x5
 14806 0114 39       		.uleb128 0x39
 14807 0115 0B       		.uleb128 0xb
 14808 0116 01       		.uleb128 0x1
 14809 0117 13       		.uleb128 0x13
 14810 0118 00       		.byte	0
 14811 0119 00       		.byte	0
 14812 011a 17       		.uleb128 0x17
 14813 011b 0D       		.uleb128 0xd
 14814 011c 00       		.byte	0
 14815 011d 03       		.uleb128 0x3
 14816 011e 0E       		.uleb128 0xe
 14817 011f 3A       		.uleb128 0x3a
 14818 0120 0B       		.uleb128 0xb
 14819 0121 3B       		.uleb128 0x3b
 14820 0122 05       		.uleb128 0x5
 14821 0123 39       		.uleb128 0x39
 14822 0124 0B       		.uleb128 0xb
 14823 0125 49       		.uleb128 0x49
 14824 0126 13       		.uleb128 0x13
 14825 0127 38       		.uleb128 0x38
 14826 0128 0B       		.uleb128 0xb
 14827 0129 00       		.byte	0
 14828 012a 00       		.byte	0
 14829 012b 18       		.uleb128 0x18
 14830 012c 0D       		.uleb128 0xd
 14831 012d 00       		.byte	0
 14832 012e 03       		.uleb128 0x3
 14833 012f 08       		.uleb128 0x8
 14834 0130 3A       		.uleb128 0x3a
 14835 0131 0B       		.uleb128 0xb
 14836 0132 3B       		.uleb128 0x3b
 14837 0133 05       		.uleb128 0x5
 14838 0134 39       		.uleb128 0x39
 14839 0135 0B       		.uleb128 0xb
 14840 0136 49       		.uleb128 0x49
 14841 0137 13       		.uleb128 0x13
 14842 0138 38       		.uleb128 0x38
 14843 0139 0B       		.uleb128 0xb
 14844 013a 00       		.byte	0
 14845 013b 00       		.byte	0
 14846 013c 19       		.uleb128 0x19
 14847 013d 15       		.uleb128 0x15
 14848 013e 01       		.byte	0x1
 14849 013f 27       		.uleb128 0x27
 14850 0140 19       		.uleb128 0x19
 14851 0141 49       		.uleb128 0x49
ARM GAS  /tmp/ccDQUTww.s 			page 262


 14852 0142 13       		.uleb128 0x13
 14853 0143 01       		.uleb128 0x1
 14854 0144 13       		.uleb128 0x13
 14855 0145 00       		.byte	0
 14856 0146 00       		.byte	0
 14857 0147 1A       		.uleb128 0x1a
 14858 0148 05       		.uleb128 0x5
 14859 0149 00       		.byte	0
 14860 014a 49       		.uleb128 0x49
 14861 014b 13       		.uleb128 0x13
 14862 014c 00       		.byte	0
 14863 014d 00       		.byte	0
 14864 014e 1B       		.uleb128 0x1b
 14865 014f 15       		.uleb128 0x15
 14866 0150 01       		.byte	0x1
 14867 0151 27       		.uleb128 0x27
 14868 0152 19       		.uleb128 0x19
 14869 0153 01       		.uleb128 0x1
 14870 0154 13       		.uleb128 0x13
 14871 0155 00       		.byte	0
 14872 0156 00       		.byte	0
 14873 0157 1C       		.uleb128 0x1c
 14874 0158 34       		.uleb128 0x34
 14875 0159 00       		.byte	0
 14876 015a 03       		.uleb128 0x3
 14877 015b 0E       		.uleb128 0xe
 14878 015c 3A       		.uleb128 0x3a
 14879 015d 0B       		.uleb128 0xb
 14880 015e 3B       		.uleb128 0x3b
 14881 015f 05       		.uleb128 0x5
 14882 0160 39       		.uleb128 0x39
 14883 0161 0B       		.uleb128 0xb
 14884 0162 49       		.uleb128 0x49
 14885 0163 13       		.uleb128 0x13
 14886 0164 3F       		.uleb128 0x3f
 14887 0165 19       		.uleb128 0x19
 14888 0166 3C       		.uleb128 0x3c
 14889 0167 19       		.uleb128 0x19
 14890 0168 00       		.byte	0
 14891 0169 00       		.byte	0
 14892 016a 1D       		.uleb128 0x1d
 14893 016b 13       		.uleb128 0x13
 14894 016c 01       		.byte	0x1
 14895 016d 03       		.uleb128 0x3
 14896 016e 0E       		.uleb128 0xe
 14897 016f 0B       		.uleb128 0xb
 14898 0170 05       		.uleb128 0x5
 14899 0171 3A       		.uleb128 0x3a
 14900 0172 0B       		.uleb128 0xb
 14901 0173 3B       		.uleb128 0x3b
 14902 0174 05       		.uleb128 0x5
 14903 0175 39       		.uleb128 0x39
 14904 0176 0B       		.uleb128 0xb
 14905 0177 01       		.uleb128 0x1
 14906 0178 13       		.uleb128 0x13
 14907 0179 00       		.byte	0
 14908 017a 00       		.byte	0
ARM GAS  /tmp/ccDQUTww.s 			page 263


 14909 017b 1E       		.uleb128 0x1e
 14910 017c 0D       		.uleb128 0xd
 14911 017d 00       		.byte	0
 14912 017e 03       		.uleb128 0x3
 14913 017f 0E       		.uleb128 0xe
 14914 0180 3A       		.uleb128 0x3a
 14915 0181 0B       		.uleb128 0xb
 14916 0182 3B       		.uleb128 0x3b
 14917 0183 05       		.uleb128 0x5
 14918 0184 39       		.uleb128 0x39
 14919 0185 0B       		.uleb128 0xb
 14920 0186 49       		.uleb128 0x49
 14921 0187 13       		.uleb128 0x13
 14922 0188 38       		.uleb128 0x38
 14923 0189 05       		.uleb128 0x5
 14924 018a 00       		.byte	0
 14925 018b 00       		.byte	0
 14926 018c 1F       		.uleb128 0x1f
 14927 018d 0D       		.uleb128 0xd
 14928 018e 00       		.byte	0
 14929 018f 03       		.uleb128 0x3
 14930 0190 08       		.uleb128 0x8
 14931 0191 3A       		.uleb128 0x3a
 14932 0192 0B       		.uleb128 0xb
 14933 0193 3B       		.uleb128 0x3b
 14934 0194 05       		.uleb128 0x5
 14935 0195 39       		.uleb128 0x39
 14936 0196 0B       		.uleb128 0xb
 14937 0197 49       		.uleb128 0x49
 14938 0198 13       		.uleb128 0x13
 14939 0199 38       		.uleb128 0x38
 14940 019a 05       		.uleb128 0x5
 14941 019b 00       		.byte	0
 14942 019c 00       		.byte	0
 14943 019d 20       		.uleb128 0x20
 14944 019e 34       		.uleb128 0x34
 14945 019f 00       		.byte	0
 14946 01a0 03       		.uleb128 0x3
 14947 01a1 0E       		.uleb128 0xe
 14948 01a2 3A       		.uleb128 0x3a
 14949 01a3 0B       		.uleb128 0xb
 14950 01a4 3B       		.uleb128 0x3b
 14951 01a5 0B       		.uleb128 0xb
 14952 01a6 39       		.uleb128 0x39
 14953 01a7 0B       		.uleb128 0xb
 14954 01a8 49       		.uleb128 0x49
 14955 01a9 13       		.uleb128 0x13
 14956 01aa 3F       		.uleb128 0x3f
 14957 01ab 19       		.uleb128 0x19
 14958 01ac 3C       		.uleb128 0x3c
 14959 01ad 19       		.uleb128 0x19
 14960 01ae 00       		.byte	0
 14961 01af 00       		.byte	0
 14962 01b0 21       		.uleb128 0x21
 14963 01b1 13       		.uleb128 0x13
 14964 01b2 01       		.byte	0x1
 14965 01b3 0B       		.uleb128 0xb
ARM GAS  /tmp/ccDQUTww.s 			page 264


 14966 01b4 0B       		.uleb128 0xb
 14967 01b5 3A       		.uleb128 0x3a
 14968 01b6 0B       		.uleb128 0xb
 14969 01b7 3B       		.uleb128 0x3b
 14970 01b8 05       		.uleb128 0x5
 14971 01b9 39       		.uleb128 0x39
 14972 01ba 0B       		.uleb128 0xb
 14973 01bb 01       		.uleb128 0x1
 14974 01bc 13       		.uleb128 0x13
 14975 01bd 00       		.byte	0
 14976 01be 00       		.byte	0
 14977 01bf 22       		.uleb128 0x22
 14978 01c0 13       		.uleb128 0x13
 14979 01c1 01       		.byte	0x1
 14980 01c2 0B       		.uleb128 0xb
 14981 01c3 05       		.uleb128 0x5
 14982 01c4 3A       		.uleb128 0x3a
 14983 01c5 0B       		.uleb128 0xb
 14984 01c6 3B       		.uleb128 0x3b
 14985 01c7 05       		.uleb128 0x5
 14986 01c8 39       		.uleb128 0x39
 14987 01c9 0B       		.uleb128 0xb
 14988 01ca 01       		.uleb128 0x1
 14989 01cb 13       		.uleb128 0x13
 14990 01cc 00       		.byte	0
 14991 01cd 00       		.byte	0
 14992 01ce 23       		.uleb128 0x23
 14993 01cf 0D       		.uleb128 0xd
 14994 01d0 00       		.byte	0
 14995 01d1 03       		.uleb128 0x3
 14996 01d2 08       		.uleb128 0x8
 14997 01d3 3A       		.uleb128 0x3a
 14998 01d4 0B       		.uleb128 0xb
 14999 01d5 3B       		.uleb128 0x3b
 15000 01d6 0B       		.uleb128 0xb
 15001 01d7 39       		.uleb128 0x39
 15002 01d8 0B       		.uleb128 0xb
 15003 01d9 49       		.uleb128 0x49
 15004 01da 13       		.uleb128 0x13
 15005 01db 00       		.byte	0
 15006 01dc 00       		.byte	0
 15007 01dd 24       		.uleb128 0x24
 15008 01de 0D       		.uleb128 0xd
 15009 01df 00       		.byte	0
 15010 01e0 03       		.uleb128 0x3
 15011 01e1 0E       		.uleb128 0xe
 15012 01e2 3A       		.uleb128 0x3a
 15013 01e3 0B       		.uleb128 0xb
 15014 01e4 3B       		.uleb128 0x3b
 15015 01e5 0B       		.uleb128 0xb
 15016 01e6 39       		.uleb128 0x39
 15017 01e7 0B       		.uleb128 0xb
 15018 01e8 49       		.uleb128 0x49
 15019 01e9 13       		.uleb128 0x13
 15020 01ea 0B       		.uleb128 0xb
 15021 01eb 0B       		.uleb128 0xb
 15022 01ec 0D       		.uleb128 0xd
ARM GAS  /tmp/ccDQUTww.s 			page 265


 15023 01ed 0B       		.uleb128 0xb
 15024 01ee 0C       		.uleb128 0xc
 15025 01ef 0B       		.uleb128 0xb
 15026 01f0 38       		.uleb128 0x38
 15027 01f1 0B       		.uleb128 0xb
 15028 01f2 00       		.byte	0
 15029 01f3 00       		.byte	0
 15030 01f4 25       		.uleb128 0x25
 15031 01f5 13       		.uleb128 0x13
 15032 01f6 01       		.byte	0x1
 15033 01f7 0B       		.uleb128 0xb
 15034 01f8 05       		.uleb128 0x5
 15035 01f9 3A       		.uleb128 0x3a
 15036 01fa 0B       		.uleb128 0xb
 15037 01fb 3B       		.uleb128 0x3b
 15038 01fc 0B       		.uleb128 0xb
 15039 01fd 39       		.uleb128 0x39
 15040 01fe 0B       		.uleb128 0xb
 15041 01ff 01       		.uleb128 0x1
 15042 0200 13       		.uleb128 0x13
 15043 0201 00       		.byte	0
 15044 0202 00       		.byte	0
 15045 0203 26       		.uleb128 0x26
 15046 0204 0D       		.uleb128 0xd
 15047 0205 00       		.byte	0
 15048 0206 03       		.uleb128 0x3
 15049 0207 0E       		.uleb128 0xe
 15050 0208 3A       		.uleb128 0x3a
 15051 0209 0B       		.uleb128 0xb
 15052 020a 3B       		.uleb128 0x3b
 15053 020b 05       		.uleb128 0x5
 15054 020c 39       		.uleb128 0x39
 15055 020d 0B       		.uleb128 0xb
 15056 020e 49       		.uleb128 0x49
 15057 020f 13       		.uleb128 0x13
 15058 0210 00       		.byte	0
 15059 0211 00       		.byte	0
 15060 0212 27       		.uleb128 0x27
 15061 0213 34       		.uleb128 0x34
 15062 0214 00       		.byte	0
 15063 0215 03       		.uleb128 0x3
 15064 0216 08       		.uleb128 0x8
 15065 0217 3A       		.uleb128 0x3a
 15066 0218 0B       		.uleb128 0xb
 15067 0219 3B       		.uleb128 0x3b
 15068 021a 05       		.uleb128 0x5
 15069 021b 39       		.uleb128 0x39
 15070 021c 0B       		.uleb128 0xb
 15071 021d 49       		.uleb128 0x49
 15072 021e 13       		.uleb128 0x13
 15073 021f 3F       		.uleb128 0x3f
 15074 0220 19       		.uleb128 0x19
 15075 0221 3C       		.uleb128 0x3c
 15076 0222 19       		.uleb128 0x19
 15077 0223 00       		.byte	0
 15078 0224 00       		.byte	0
 15079 0225 28       		.uleb128 0x28
ARM GAS  /tmp/ccDQUTww.s 			page 266


 15080 0226 21       		.uleb128 0x21
 15081 0227 00       		.byte	0
 15082 0228 00       		.byte	0
 15083 0229 00       		.byte	0
 15084 022a 29       		.uleb128 0x29
 15085 022b 04       		.uleb128 0x4
 15086 022c 01       		.byte	0x1
 15087 022d 3E       		.uleb128 0x3e
 15088 022e 0B       		.uleb128 0xb
 15089 022f 0B       		.uleb128 0xb
 15090 0230 0B       		.uleb128 0xb
 15091 0231 49       		.uleb128 0x49
 15092 0232 13       		.uleb128 0x13
 15093 0233 3A       		.uleb128 0x3a
 15094 0234 0B       		.uleb128 0xb
 15095 0235 3B       		.uleb128 0x3b
 15096 0236 0B       		.uleb128 0xb
 15097 0237 39       		.uleb128 0x39
 15098 0238 0B       		.uleb128 0xb
 15099 0239 01       		.uleb128 0x1
 15100 023a 13       		.uleb128 0x13
 15101 023b 00       		.byte	0
 15102 023c 00       		.byte	0
 15103 023d 2A       		.uleb128 0x2a
 15104 023e 28       		.uleb128 0x28
 15105 023f 00       		.byte	0
 15106 0240 03       		.uleb128 0x3
 15107 0241 0E       		.uleb128 0xe
 15108 0242 1C       		.uleb128 0x1c
 15109 0243 0B       		.uleb128 0xb
 15110 0244 00       		.byte	0
 15111 0245 00       		.byte	0
 15112 0246 2B       		.uleb128 0x2b
 15113 0247 04       		.uleb128 0x4
 15114 0248 01       		.byte	0x1
 15115 0249 3E       		.uleb128 0x3e
 15116 024a 0B       		.uleb128 0xb
 15117 024b 0B       		.uleb128 0xb
 15118 024c 0B       		.uleb128 0xb
 15119 024d 49       		.uleb128 0x49
 15120 024e 13       		.uleb128 0x13
 15121 024f 3A       		.uleb128 0x3a
 15122 0250 0B       		.uleb128 0xb
 15123 0251 3B       		.uleb128 0x3b
 15124 0252 05       		.uleb128 0x5
 15125 0253 39       		.uleb128 0x39
 15126 0254 0B       		.uleb128 0xb
 15127 0255 01       		.uleb128 0x1
 15128 0256 13       		.uleb128 0x13
 15129 0257 00       		.byte	0
 15130 0258 00       		.byte	0
 15131 0259 2C       		.uleb128 0x2c
 15132 025a 17       		.uleb128 0x17
 15133 025b 01       		.byte	0x1
 15134 025c 0B       		.uleb128 0xb
 15135 025d 0B       		.uleb128 0xb
 15136 025e 3A       		.uleb128 0x3a
ARM GAS  /tmp/ccDQUTww.s 			page 267


 15137 025f 0B       		.uleb128 0xb
 15138 0260 3B       		.uleb128 0x3b
 15139 0261 05       		.uleb128 0x5
 15140 0262 39       		.uleb128 0x39
 15141 0263 0B       		.uleb128 0xb
 15142 0264 01       		.uleb128 0x1
 15143 0265 13       		.uleb128 0x13
 15144 0266 00       		.byte	0
 15145 0267 00       		.byte	0
 15146 0268 2D       		.uleb128 0x2d
 15147 0269 0D       		.uleb128 0xd
 15148 026a 00       		.byte	0
 15149 026b 03       		.uleb128 0x3
 15150 026c 08       		.uleb128 0x8
 15151 026d 3A       		.uleb128 0x3a
 15152 026e 0B       		.uleb128 0xb
 15153 026f 3B       		.uleb128 0x3b
 15154 0270 05       		.uleb128 0x5
 15155 0271 39       		.uleb128 0x39
 15156 0272 0B       		.uleb128 0xb
 15157 0273 49       		.uleb128 0x49
 15158 0274 13       		.uleb128 0x13
 15159 0275 00       		.byte	0
 15160 0276 00       		.byte	0
 15161 0277 2E       		.uleb128 0x2e
 15162 0278 21       		.uleb128 0x21
 15163 0279 00       		.byte	0
 15164 027a 49       		.uleb128 0x49
 15165 027b 13       		.uleb128 0x13
 15166 027c 2F       		.uleb128 0x2f
 15167 027d 05       		.uleb128 0x5
 15168 027e 00       		.byte	0
 15169 027f 00       		.byte	0
 15170 0280 2F       		.uleb128 0x2f
 15171 0281 13       		.uleb128 0x13
 15172 0282 01       		.byte	0x1
 15173 0283 0B       		.uleb128 0xb
 15174 0284 06       		.uleb128 0x6
 15175 0285 3A       		.uleb128 0x3a
 15176 0286 0B       		.uleb128 0xb
 15177 0287 3B       		.uleb128 0x3b
 15178 0288 0B       		.uleb128 0xb
 15179 0289 39       		.uleb128 0x39
 15180 028a 0B       		.uleb128 0xb
 15181 028b 01       		.uleb128 0x1
 15182 028c 13       		.uleb128 0x13
 15183 028d 00       		.byte	0
 15184 028e 00       		.byte	0
 15185 028f 30       		.uleb128 0x30
 15186 0290 0D       		.uleb128 0xd
 15187 0291 00       		.byte	0
 15188 0292 03       		.uleb128 0x3
 15189 0293 08       		.uleb128 0x8
 15190 0294 3A       		.uleb128 0x3a
 15191 0295 0B       		.uleb128 0xb
 15192 0296 3B       		.uleb128 0x3b
 15193 0297 0B       		.uleb128 0xb
ARM GAS  /tmp/ccDQUTww.s 			page 268


 15194 0298 39       		.uleb128 0x39
 15195 0299 0B       		.uleb128 0xb
 15196 029a 49       		.uleb128 0x49
 15197 029b 13       		.uleb128 0x13
 15198 029c 38       		.uleb128 0x38
 15199 029d 05       		.uleb128 0x5
 15200 029e 00       		.byte	0
 15201 029f 00       		.byte	0
 15202 02a0 31       		.uleb128 0x31
 15203 02a1 2E       		.uleb128 0x2e
 15204 02a2 01       		.byte	0x1
 15205 02a3 3F       		.uleb128 0x3f
 15206 02a4 19       		.uleb128 0x19
 15207 02a5 03       		.uleb128 0x3
 15208 02a6 0E       		.uleb128 0xe
 15209 02a7 3A       		.uleb128 0x3a
 15210 02a8 0B       		.uleb128 0xb
 15211 02a9 3B       		.uleb128 0x3b
 15212 02aa 05       		.uleb128 0x5
 15213 02ab 39       		.uleb128 0x39
 15214 02ac 0B       		.uleb128 0xb
 15215 02ad 27       		.uleb128 0x27
 15216 02ae 19       		.uleb128 0x19
 15217 02af 11       		.uleb128 0x11
 15218 02b0 01       		.uleb128 0x1
 15219 02b1 12       		.uleb128 0x12
 15220 02b2 06       		.uleb128 0x6
 15221 02b3 40       		.uleb128 0x40
 15222 02b4 18       		.uleb128 0x18
 15223 02b5 9742     		.uleb128 0x2117
 15224 02b7 19       		.uleb128 0x19
 15225 02b8 01       		.uleb128 0x1
 15226 02b9 13       		.uleb128 0x13
 15227 02ba 00       		.byte	0
 15228 02bb 00       		.byte	0
 15229 02bc 32       		.uleb128 0x32
 15230 02bd 05       		.uleb128 0x5
 15231 02be 00       		.byte	0
 15232 02bf 03       		.uleb128 0x3
 15233 02c0 0E       		.uleb128 0xe
 15234 02c1 3A       		.uleb128 0x3a
 15235 02c2 0B       		.uleb128 0xb
 15236 02c3 3B       		.uleb128 0x3b
 15237 02c4 05       		.uleb128 0x5
 15238 02c5 39       		.uleb128 0x39
 15239 02c6 0B       		.uleb128 0xb
 15240 02c7 49       		.uleb128 0x49
 15241 02c8 13       		.uleb128 0x13
 15242 02c9 02       		.uleb128 0x2
 15243 02ca 17       		.uleb128 0x17
 15244 02cb B742     		.uleb128 0x2137
 15245 02cd 17       		.uleb128 0x17
 15246 02ce 00       		.byte	0
 15247 02cf 00       		.byte	0
 15248 02d0 33       		.uleb128 0x33
 15249 02d1 0B       		.uleb128 0xb
 15250 02d2 01       		.byte	0x1
ARM GAS  /tmp/ccDQUTww.s 			page 269


 15251 02d3 55       		.uleb128 0x55
 15252 02d4 17       		.uleb128 0x17
 15253 02d5 01       		.uleb128 0x1
 15254 02d6 13       		.uleb128 0x13
 15255 02d7 00       		.byte	0
 15256 02d8 00       		.byte	0
 15257 02d9 34       		.uleb128 0x34
 15258 02da 34       		.uleb128 0x34
 15259 02db 00       		.byte	0
 15260 02dc 03       		.uleb128 0x3
 15261 02dd 0E       		.uleb128 0xe
 15262 02de 3A       		.uleb128 0x3a
 15263 02df 0B       		.uleb128 0xb
 15264 02e0 3B       		.uleb128 0x3b
 15265 02e1 05       		.uleb128 0x5
 15266 02e2 39       		.uleb128 0x39
 15267 02e3 0B       		.uleb128 0xb
 15268 02e4 49       		.uleb128 0x49
 15269 02e5 13       		.uleb128 0x13
 15270 02e6 02       		.uleb128 0x2
 15271 02e7 17       		.uleb128 0x17
 15272 02e8 B742     		.uleb128 0x2137
 15273 02ea 17       		.uleb128 0x17
 15274 02eb 00       		.byte	0
 15275 02ec 00       		.byte	0
 15276 02ed 35       		.uleb128 0x35
 15277 02ee 1D       		.uleb128 0x1d
 15278 02ef 01       		.byte	0x1
 15279 02f0 31       		.uleb128 0x31
 15280 02f1 13       		.uleb128 0x13
 15281 02f2 52       		.uleb128 0x52
 15282 02f3 01       		.uleb128 0x1
 15283 02f4 B842     		.uleb128 0x2138
 15284 02f6 0B       		.uleb128 0xb
 15285 02f7 55       		.uleb128 0x55
 15286 02f8 17       		.uleb128 0x17
 15287 02f9 58       		.uleb128 0x58
 15288 02fa 0B       		.uleb128 0xb
 15289 02fb 59       		.uleb128 0x59
 15290 02fc 05       		.uleb128 0x5
 15291 02fd 57       		.uleb128 0x57
 15292 02fe 0B       		.uleb128 0xb
 15293 02ff 00       		.byte	0
 15294 0300 00       		.byte	0
 15295 0301 36       		.uleb128 0x36
 15296 0302 05       		.uleb128 0x5
 15297 0303 00       		.byte	0
 15298 0304 31       		.uleb128 0x31
 15299 0305 13       		.uleb128 0x13
 15300 0306 02       		.uleb128 0x2
 15301 0307 17       		.uleb128 0x17
 15302 0308 B742     		.uleb128 0x2137
 15303 030a 17       		.uleb128 0x17
 15304 030b 00       		.byte	0
 15305 030c 00       		.byte	0
 15306 030d 37       		.uleb128 0x37
 15307 030e 0B       		.uleb128 0xb
ARM GAS  /tmp/ccDQUTww.s 			page 270


 15308 030f 01       		.byte	0x1
 15309 0310 55       		.uleb128 0x55
 15310 0311 17       		.uleb128 0x17
 15311 0312 00       		.byte	0
 15312 0313 00       		.byte	0
 15313 0314 38       		.uleb128 0x38
 15314 0315 898201   		.uleb128 0x4109
 15315 0318 01       		.byte	0x1
 15316 0319 11       		.uleb128 0x11
 15317 031a 01       		.uleb128 0x1
 15318 031b 00       		.byte	0
 15319 031c 00       		.byte	0
 15320 031d 39       		.uleb128 0x39
 15321 031e 8A8201   		.uleb128 0x410a
 15322 0321 00       		.byte	0
 15323 0322 02       		.uleb128 0x2
 15324 0323 18       		.uleb128 0x18
 15325 0324 9142     		.uleb128 0x2111
 15326 0326 18       		.uleb128 0x18
 15327 0327 00       		.byte	0
 15328 0328 00       		.byte	0
 15329 0329 3A       		.uleb128 0x3a
 15330 032a 1D       		.uleb128 0x1d
 15331 032b 01       		.byte	0x1
 15332 032c 31       		.uleb128 0x31
 15333 032d 13       		.uleb128 0x13
 15334 032e 52       		.uleb128 0x52
 15335 032f 01       		.uleb128 0x1
 15336 0330 B842     		.uleb128 0x2138
 15337 0332 0B       		.uleb128 0xb
 15338 0333 55       		.uleb128 0x55
 15339 0334 17       		.uleb128 0x17
 15340 0335 58       		.uleb128 0x58
 15341 0336 0B       		.uleb128 0xb
 15342 0337 59       		.uleb128 0x59
 15343 0338 05       		.uleb128 0x5
 15344 0339 57       		.uleb128 0x57
 15345 033a 0B       		.uleb128 0xb
 15346 033b 01       		.uleb128 0x1
 15347 033c 13       		.uleb128 0x13
 15348 033d 00       		.byte	0
 15349 033e 00       		.byte	0
 15350 033f 3B       		.uleb128 0x3b
 15351 0340 1D       		.uleb128 0x1d
 15352 0341 01       		.byte	0x1
 15353 0342 31       		.uleb128 0x31
 15354 0343 13       		.uleb128 0x13
 15355 0344 52       		.uleb128 0x52
 15356 0345 01       		.uleb128 0x1
 15357 0346 B842     		.uleb128 0x2138
 15358 0348 0B       		.uleb128 0xb
 15359 0349 11       		.uleb128 0x11
 15360 034a 01       		.uleb128 0x1
 15361 034b 12       		.uleb128 0x12
 15362 034c 06       		.uleb128 0x6
 15363 034d 58       		.uleb128 0x58
 15364 034e 0B       		.uleb128 0xb
ARM GAS  /tmp/ccDQUTww.s 			page 271


 15365 034f 59       		.uleb128 0x59
 15366 0350 05       		.uleb128 0x5
 15367 0351 57       		.uleb128 0x57
 15368 0352 0B       		.uleb128 0xb
 15369 0353 00       		.byte	0
 15370 0354 00       		.byte	0
 15371 0355 3C       		.uleb128 0x3c
 15372 0356 2E       		.uleb128 0x2e
 15373 0357 01       		.byte	0x1
 15374 0358 3F       		.uleb128 0x3f
 15375 0359 19       		.uleb128 0x19
 15376 035a 03       		.uleb128 0x3
 15377 035b 0E       		.uleb128 0xe
 15378 035c 3A       		.uleb128 0x3a
 15379 035d 0B       		.uleb128 0xb
 15380 035e 3B       		.uleb128 0x3b
 15381 035f 05       		.uleb128 0x5
 15382 0360 39       		.uleb128 0x39
 15383 0361 0B       		.uleb128 0xb
 15384 0362 27       		.uleb128 0x27
 15385 0363 19       		.uleb128 0x19
 15386 0364 49       		.uleb128 0x49
 15387 0365 13       		.uleb128 0x13
 15388 0366 11       		.uleb128 0x11
 15389 0367 01       		.uleb128 0x1
 15390 0368 12       		.uleb128 0x12
 15391 0369 06       		.uleb128 0x6
 15392 036a 40       		.uleb128 0x40
 15393 036b 18       		.uleb128 0x18
 15394 036c 9742     		.uleb128 0x2117
 15395 036e 19       		.uleb128 0x19
 15396 036f 01       		.uleb128 0x1
 15397 0370 13       		.uleb128 0x13
 15398 0371 00       		.byte	0
 15399 0372 00       		.byte	0
 15400 0373 3D       		.uleb128 0x3d
 15401 0374 05       		.uleb128 0x5
 15402 0375 00       		.byte	0
 15403 0376 03       		.uleb128 0x3
 15404 0377 08       		.uleb128 0x8
 15405 0378 3A       		.uleb128 0x3a
 15406 0379 0B       		.uleb128 0xb
 15407 037a 3B       		.uleb128 0x3b
 15408 037b 05       		.uleb128 0x5
 15409 037c 39       		.uleb128 0x39
 15410 037d 0B       		.uleb128 0xb
 15411 037e 49       		.uleb128 0x49
 15412 037f 13       		.uleb128 0x13
 15413 0380 02       		.uleb128 0x2
 15414 0381 17       		.uleb128 0x17
 15415 0382 B742     		.uleb128 0x2137
 15416 0384 17       		.uleb128 0x17
 15417 0385 00       		.byte	0
 15418 0386 00       		.byte	0
 15419 0387 3E       		.uleb128 0x3e
 15420 0388 34       		.uleb128 0x34
 15421 0389 00       		.byte	0
ARM GAS  /tmp/ccDQUTww.s 			page 272


 15422 038a 03       		.uleb128 0x3
 15423 038b 08       		.uleb128 0x8
 15424 038c 3A       		.uleb128 0x3a
 15425 038d 0B       		.uleb128 0xb
 15426 038e 3B       		.uleb128 0x3b
 15427 038f 05       		.uleb128 0x5
 15428 0390 39       		.uleb128 0x39
 15429 0391 0B       		.uleb128 0xb
 15430 0392 49       		.uleb128 0x49
 15431 0393 13       		.uleb128 0x13
 15432 0394 02       		.uleb128 0x2
 15433 0395 17       		.uleb128 0x17
 15434 0396 B742     		.uleb128 0x2137
 15435 0398 17       		.uleb128 0x17
 15436 0399 00       		.byte	0
 15437 039a 00       		.byte	0
 15438 039b 3F       		.uleb128 0x3f
 15439 039c 34       		.uleb128 0x34
 15440 039d 00       		.byte	0
 15441 039e 03       		.uleb128 0x3
 15442 039f 0E       		.uleb128 0xe
 15443 03a0 49       		.uleb128 0x49
 15444 03a1 13       		.uleb128 0x13
 15445 03a2 34       		.uleb128 0x34
 15446 03a3 19       		.uleb128 0x19
 15447 03a4 00       		.byte	0
 15448 03a5 00       		.byte	0
 15449 03a6 40       		.uleb128 0x40
 15450 03a7 898201   		.uleb128 0x4109
 15451 03aa 01       		.byte	0x1
 15452 03ab 11       		.uleb128 0x11
 15453 03ac 01       		.uleb128 0x1
 15454 03ad 31       		.uleb128 0x31
 15455 03ae 13       		.uleb128 0x13
 15456 03af 00       		.byte	0
 15457 03b0 00       		.byte	0
 15458 03b1 41       		.uleb128 0x41
 15459 03b2 2E       		.uleb128 0x2e
 15460 03b3 01       		.byte	0x1
 15461 03b4 3F       		.uleb128 0x3f
 15462 03b5 19       		.uleb128 0x19
 15463 03b6 03       		.uleb128 0x3
 15464 03b7 0E       		.uleb128 0xe
 15465 03b8 3A       		.uleb128 0x3a
 15466 03b9 0B       		.uleb128 0xb
 15467 03ba 3B       		.uleb128 0x3b
 15468 03bb 05       		.uleb128 0x5
 15469 03bc 39       		.uleb128 0x39
 15470 03bd 0B       		.uleb128 0xb
 15471 03be 27       		.uleb128 0x27
 15472 03bf 19       		.uleb128 0x19
 15473 03c0 20       		.uleb128 0x20
 15474 03c1 0B       		.uleb128 0xb
 15475 03c2 01       		.uleb128 0x1
 15476 03c3 13       		.uleb128 0x13
 15477 03c4 00       		.byte	0
 15478 03c5 00       		.byte	0
ARM GAS  /tmp/ccDQUTww.s 			page 273


 15479 03c6 42       		.uleb128 0x42
 15480 03c7 05       		.uleb128 0x5
 15481 03c8 00       		.byte	0
 15482 03c9 03       		.uleb128 0x3
 15483 03ca 0E       		.uleb128 0xe
 15484 03cb 3A       		.uleb128 0x3a
 15485 03cc 0B       		.uleb128 0xb
 15486 03cd 3B       		.uleb128 0x3b
 15487 03ce 05       		.uleb128 0x5
 15488 03cf 39       		.uleb128 0x39
 15489 03d0 0B       		.uleb128 0xb
 15490 03d1 49       		.uleb128 0x49
 15491 03d2 13       		.uleb128 0x13
 15492 03d3 00       		.byte	0
 15493 03d4 00       		.byte	0
 15494 03d5 43       		.uleb128 0x43
 15495 03d6 1D       		.uleb128 0x1d
 15496 03d7 01       		.byte	0x1
 15497 03d8 31       		.uleb128 0x31
 15498 03d9 13       		.uleb128 0x13
 15499 03da 52       		.uleb128 0x52
 15500 03db 01       		.uleb128 0x1
 15501 03dc B842     		.uleb128 0x2138
 15502 03de 0B       		.uleb128 0xb
 15503 03df 11       		.uleb128 0x11
 15504 03e0 01       		.uleb128 0x1
 15505 03e1 12       		.uleb128 0x12
 15506 03e2 06       		.uleb128 0x6
 15507 03e3 58       		.uleb128 0x58
 15508 03e4 0B       		.uleb128 0xb
 15509 03e5 59       		.uleb128 0x59
 15510 03e6 05       		.uleb128 0x5
 15511 03e7 57       		.uleb128 0x57
 15512 03e8 0B       		.uleb128 0xb
 15513 03e9 01       		.uleb128 0x1
 15514 03ea 13       		.uleb128 0x13
 15515 03eb 00       		.byte	0
 15516 03ec 00       		.byte	0
 15517 03ed 44       		.uleb128 0x44
 15518 03ee 0B       		.uleb128 0xb
 15519 03ef 01       		.byte	0x1
 15520 03f0 11       		.uleb128 0x11
 15521 03f1 01       		.uleb128 0x1
 15522 03f2 12       		.uleb128 0x12
 15523 03f3 06       		.uleb128 0x6
 15524 03f4 00       		.byte	0
 15525 03f5 00       		.byte	0
 15526 03f6 45       		.uleb128 0x45
 15527 03f7 2E       		.uleb128 0x2e
 15528 03f8 01       		.byte	0x1
 15529 03f9 3F       		.uleb128 0x3f
 15530 03fa 19       		.uleb128 0x19
 15531 03fb 03       		.uleb128 0x3
 15532 03fc 0E       		.uleb128 0xe
 15533 03fd 3A       		.uleb128 0x3a
 15534 03fe 0B       		.uleb128 0xb
 15535 03ff 3B       		.uleb128 0x3b
ARM GAS  /tmp/ccDQUTww.s 			page 274


 15536 0400 05       		.uleb128 0x5
 15537 0401 39       		.uleb128 0x39
 15538 0402 0B       		.uleb128 0xb
 15539 0403 27       		.uleb128 0x27
 15540 0404 19       		.uleb128 0x19
 15541 0405 49       		.uleb128 0x49
 15542 0406 13       		.uleb128 0x13
 15543 0407 20       		.uleb128 0x20
 15544 0408 0B       		.uleb128 0xb
 15545 0409 01       		.uleb128 0x1
 15546 040a 13       		.uleb128 0x13
 15547 040b 00       		.byte	0
 15548 040c 00       		.byte	0
 15549 040d 46       		.uleb128 0x46
 15550 040e 0B       		.uleb128 0xb
 15551 040f 01       		.byte	0x1
 15552 0410 00       		.byte	0
 15553 0411 00       		.byte	0
 15554 0412 47       		.uleb128 0x47
 15555 0413 34       		.uleb128 0x34
 15556 0414 00       		.byte	0
 15557 0415 03       		.uleb128 0x3
 15558 0416 08       		.uleb128 0x8
 15559 0417 3A       		.uleb128 0x3a
 15560 0418 0B       		.uleb128 0xb
 15561 0419 3B       		.uleb128 0x3b
 15562 041a 05       		.uleb128 0x5
 15563 041b 39       		.uleb128 0x39
 15564 041c 0B       		.uleb128 0xb
 15565 041d 49       		.uleb128 0x49
 15566 041e 13       		.uleb128 0x13
 15567 041f 00       		.byte	0
 15568 0420 00       		.byte	0
 15569 0421 48       		.uleb128 0x48
 15570 0422 05       		.uleb128 0x5
 15571 0423 00       		.byte	0
 15572 0424 31       		.uleb128 0x31
 15573 0425 13       		.uleb128 0x13
 15574 0426 1C       		.uleb128 0x1c
 15575 0427 0B       		.uleb128 0xb
 15576 0428 00       		.byte	0
 15577 0429 00       		.byte	0
 15578 042a 49       		.uleb128 0x49
 15579 042b 898201   		.uleb128 0x4109
 15580 042e 01       		.byte	0x1
 15581 042f 11       		.uleb128 0x11
 15582 0430 01       		.uleb128 0x1
 15583 0431 9542     		.uleb128 0x2115
 15584 0433 19       		.uleb128 0x19
 15585 0434 31       		.uleb128 0x31
 15586 0435 13       		.uleb128 0x13
 15587 0436 00       		.byte	0
 15588 0437 00       		.byte	0
 15589 0438 4A       		.uleb128 0x4a
 15590 0439 05       		.uleb128 0x5
 15591 043a 00       		.byte	0
 15592 043b 03       		.uleb128 0x3
ARM GAS  /tmp/ccDQUTww.s 			page 275


 15593 043c 0E       		.uleb128 0xe
 15594 043d 3A       		.uleb128 0x3a
 15595 043e 0B       		.uleb128 0xb
 15596 043f 3B       		.uleb128 0x3b
 15597 0440 05       		.uleb128 0x5
 15598 0441 39       		.uleb128 0x39
 15599 0442 0B       		.uleb128 0xb
 15600 0443 49       		.uleb128 0x49
 15601 0444 13       		.uleb128 0x13
 15602 0445 02       		.uleb128 0x2
 15603 0446 18       		.uleb128 0x18
 15604 0447 00       		.byte	0
 15605 0448 00       		.byte	0
 15606 0449 4B       		.uleb128 0x4b
 15607 044a 05       		.uleb128 0x5
 15608 044b 00       		.byte	0
 15609 044c 31       		.uleb128 0x31
 15610 044d 13       		.uleb128 0x13
 15611 044e 1C       		.uleb128 0x1c
 15612 044f 0D       		.uleb128 0xd
 15613 0450 00       		.byte	0
 15614 0451 00       		.byte	0
 15615 0452 4C       		.uleb128 0x4c
 15616 0453 05       		.uleb128 0x5
 15617 0454 00       		.byte	0
 15618 0455 31       		.uleb128 0x31
 15619 0456 13       		.uleb128 0x13
 15620 0457 00       		.byte	0
 15621 0458 00       		.byte	0
 15622 0459 4D       		.uleb128 0x4d
 15623 045a 05       		.uleb128 0x5
 15624 045b 00       		.byte	0
 15625 045c 03       		.uleb128 0x3
 15626 045d 08       		.uleb128 0x8
 15627 045e 3A       		.uleb128 0x3a
 15628 045f 0B       		.uleb128 0xb
 15629 0460 3B       		.uleb128 0x3b
 15630 0461 05       		.uleb128 0x5
 15631 0462 39       		.uleb128 0x39
 15632 0463 0B       		.uleb128 0xb
 15633 0464 49       		.uleb128 0x49
 15634 0465 13       		.uleb128 0x13
 15635 0466 02       		.uleb128 0x2
 15636 0467 18       		.uleb128 0x18
 15637 0468 00       		.byte	0
 15638 0469 00       		.byte	0
 15639 046a 4E       		.uleb128 0x4e
 15640 046b 1D       		.uleb128 0x1d
 15641 046c 01       		.byte	0x1
 15642 046d 31       		.uleb128 0x31
 15643 046e 13       		.uleb128 0x13
 15644 046f 11       		.uleb128 0x11
 15645 0470 01       		.uleb128 0x1
 15646 0471 12       		.uleb128 0x12
 15647 0472 06       		.uleb128 0x6
 15648 0473 58       		.uleb128 0x58
 15649 0474 0B       		.uleb128 0xb
ARM GAS  /tmp/ccDQUTww.s 			page 276


 15650 0475 59       		.uleb128 0x59
 15651 0476 05       		.uleb128 0x5
 15652 0477 57       		.uleb128 0x57
 15653 0478 0B       		.uleb128 0xb
 15654 0479 00       		.byte	0
 15655 047a 00       		.byte	0
 15656 047b 4F       		.uleb128 0x4f
 15657 047c 898201   		.uleb128 0x4109
 15658 047f 00       		.byte	0
 15659 0480 11       		.uleb128 0x11
 15660 0481 01       		.uleb128 0x1
 15661 0482 31       		.uleb128 0x31
 15662 0483 13       		.uleb128 0x13
 15663 0484 00       		.byte	0
 15664 0485 00       		.byte	0
 15665 0486 50       		.uleb128 0x50
 15666 0487 2E       		.uleb128 0x2e
 15667 0488 01       		.byte	0x1
 15668 0489 3F       		.uleb128 0x3f
 15669 048a 19       		.uleb128 0x19
 15670 048b 03       		.uleb128 0x3
 15671 048c 0E       		.uleb128 0xe
 15672 048d 3A       		.uleb128 0x3a
 15673 048e 0B       		.uleb128 0xb
 15674 048f 3B       		.uleb128 0x3b
 15675 0490 0B       		.uleb128 0xb
 15676 0491 39       		.uleb128 0x39
 15677 0492 0B       		.uleb128 0xb
 15678 0493 27       		.uleb128 0x27
 15679 0494 19       		.uleb128 0x19
 15680 0495 11       		.uleb128 0x11
 15681 0496 01       		.uleb128 0x1
 15682 0497 12       		.uleb128 0x12
 15683 0498 06       		.uleb128 0x6
 15684 0499 40       		.uleb128 0x40
 15685 049a 18       		.uleb128 0x18
 15686 049b 9742     		.uleb128 0x2117
 15687 049d 19       		.uleb128 0x19
 15688 049e 01       		.uleb128 0x1
 15689 049f 13       		.uleb128 0x13
 15690 04a0 00       		.byte	0
 15691 04a1 00       		.byte	0
 15692 04a2 51       		.uleb128 0x51
 15693 04a3 05       		.uleb128 0x5
 15694 04a4 00       		.byte	0
 15695 04a5 03       		.uleb128 0x3
 15696 04a6 0E       		.uleb128 0xe
 15697 04a7 3A       		.uleb128 0x3a
 15698 04a8 0B       		.uleb128 0xb
 15699 04a9 3B       		.uleb128 0x3b
 15700 04aa 0B       		.uleb128 0xb
 15701 04ab 39       		.uleb128 0x39
 15702 04ac 0B       		.uleb128 0xb
 15703 04ad 49       		.uleb128 0x49
 15704 04ae 13       		.uleb128 0x13
 15705 04af 02       		.uleb128 0x2
 15706 04b0 17       		.uleb128 0x17
ARM GAS  /tmp/ccDQUTww.s 			page 277


 15707 04b1 B742     		.uleb128 0x2137
 15708 04b3 17       		.uleb128 0x17
 15709 04b4 00       		.byte	0
 15710 04b5 00       		.byte	0
 15711 04b6 52       		.uleb128 0x52
 15712 04b7 2E       		.uleb128 0x2e
 15713 04b8 01       		.byte	0x1
 15714 04b9 3F       		.uleb128 0x3f
 15715 04ba 19       		.uleb128 0x19
 15716 04bb 03       		.uleb128 0x3
 15717 04bc 0E       		.uleb128 0xe
 15718 04bd 3A       		.uleb128 0x3a
 15719 04be 0B       		.uleb128 0xb
 15720 04bf 3B       		.uleb128 0x3b
 15721 04c0 0B       		.uleb128 0xb
 15722 04c1 39       		.uleb128 0x39
 15723 04c2 0B       		.uleb128 0xb
 15724 04c3 27       		.uleb128 0x27
 15725 04c4 19       		.uleb128 0x19
 15726 04c5 49       		.uleb128 0x49
 15727 04c6 13       		.uleb128 0x13
 15728 04c7 20       		.uleb128 0x20
 15729 04c8 0B       		.uleb128 0xb
 15730 04c9 01       		.uleb128 0x1
 15731 04ca 13       		.uleb128 0x13
 15732 04cb 00       		.byte	0
 15733 04cc 00       		.byte	0
 15734 04cd 53       		.uleb128 0x53
 15735 04ce 05       		.uleb128 0x5
 15736 04cf 00       		.byte	0
 15737 04d0 03       		.uleb128 0x3
 15738 04d1 0E       		.uleb128 0xe
 15739 04d2 3A       		.uleb128 0x3a
 15740 04d3 0B       		.uleb128 0xb
 15741 04d4 3B       		.uleb128 0x3b
 15742 04d5 0B       		.uleb128 0xb
 15743 04d6 39       		.uleb128 0x39
 15744 04d7 0B       		.uleb128 0xb
 15745 04d8 49       		.uleb128 0x49
 15746 04d9 13       		.uleb128 0x13
 15747 04da 00       		.byte	0
 15748 04db 00       		.byte	0
 15749 04dc 54       		.uleb128 0x54
 15750 04dd 34       		.uleb128 0x34
 15751 04de 00       		.byte	0
 15752 04df 03       		.uleb128 0x3
 15753 04e0 08       		.uleb128 0x8
 15754 04e1 3A       		.uleb128 0x3a
 15755 04e2 0B       		.uleb128 0xb
 15756 04e3 3B       		.uleb128 0x3b
 15757 04e4 0B       		.uleb128 0xb
 15758 04e5 39       		.uleb128 0x39
 15759 04e6 0B       		.uleb128 0xb
 15760 04e7 49       		.uleb128 0x49
 15761 04e8 13       		.uleb128 0x13
 15762 04e9 00       		.byte	0
 15763 04ea 00       		.byte	0
ARM GAS  /tmp/ccDQUTww.s 			page 278


 15764 04eb 55       		.uleb128 0x55
 15765 04ec 2E       		.uleb128 0x2e
 15766 04ed 01       		.byte	0x1
 15767 04ee 3F       		.uleb128 0x3f
 15768 04ef 19       		.uleb128 0x19
 15769 04f0 03       		.uleb128 0x3
 15770 04f1 0E       		.uleb128 0xe
 15771 04f2 3A       		.uleb128 0x3a
 15772 04f3 0B       		.uleb128 0xb
 15773 04f4 3B       		.uleb128 0x3b
 15774 04f5 0B       		.uleb128 0xb
 15775 04f6 39       		.uleb128 0x39
 15776 04f7 0B       		.uleb128 0xb
 15777 04f8 27       		.uleb128 0x27
 15778 04f9 19       		.uleb128 0x19
 15779 04fa 49       		.uleb128 0x49
 15780 04fb 13       		.uleb128 0x13
 15781 04fc 11       		.uleb128 0x11
 15782 04fd 01       		.uleb128 0x1
 15783 04fe 12       		.uleb128 0x12
 15784 04ff 06       		.uleb128 0x6
 15785 0500 40       		.uleb128 0x40
 15786 0501 18       		.uleb128 0x18
 15787 0502 9742     		.uleb128 0x2117
 15788 0504 19       		.uleb128 0x19
 15789 0505 01       		.uleb128 0x1
 15790 0506 13       		.uleb128 0x13
 15791 0507 00       		.byte	0
 15792 0508 00       		.byte	0
 15793 0509 56       		.uleb128 0x56
 15794 050a 34       		.uleb128 0x34
 15795 050b 00       		.byte	0
 15796 050c 03       		.uleb128 0x3
 15797 050d 08       		.uleb128 0x8
 15798 050e 3A       		.uleb128 0x3a
 15799 050f 0B       		.uleb128 0xb
 15800 0510 3B       		.uleb128 0x3b
 15801 0511 0B       		.uleb128 0xb
 15802 0512 39       		.uleb128 0x39
 15803 0513 0B       		.uleb128 0xb
 15804 0514 49       		.uleb128 0x49
 15805 0515 13       		.uleb128 0x13
 15806 0516 02       		.uleb128 0x2
 15807 0517 17       		.uleb128 0x17
 15808 0518 B742     		.uleb128 0x2137
 15809 051a 17       		.uleb128 0x17
 15810 051b 00       		.byte	0
 15811 051c 00       		.byte	0
 15812 051d 57       		.uleb128 0x57
 15813 051e 1D       		.uleb128 0x1d
 15814 051f 01       		.byte	0x1
 15815 0520 31       		.uleb128 0x31
 15816 0521 13       		.uleb128 0x13
 15817 0522 52       		.uleb128 0x52
 15818 0523 01       		.uleb128 0x1
 15819 0524 B842     		.uleb128 0x2138
 15820 0526 0B       		.uleb128 0xb
ARM GAS  /tmp/ccDQUTww.s 			page 279


 15821 0527 55       		.uleb128 0x55
 15822 0528 17       		.uleb128 0x17
 15823 0529 58       		.uleb128 0x58
 15824 052a 0B       		.uleb128 0xb
 15825 052b 59       		.uleb128 0x59
 15826 052c 0B       		.uleb128 0xb
 15827 052d 57       		.uleb128 0x57
 15828 052e 0B       		.uleb128 0xb
 15829 052f 01       		.uleb128 0x1
 15830 0530 13       		.uleb128 0x13
 15831 0531 00       		.byte	0
 15832 0532 00       		.byte	0
 15833 0533 58       		.uleb128 0x58
 15834 0534 1D       		.uleb128 0x1d
 15835 0535 01       		.byte	0x1
 15836 0536 31       		.uleb128 0x31
 15837 0537 13       		.uleb128 0x13
 15838 0538 52       		.uleb128 0x52
 15839 0539 01       		.uleb128 0x1
 15840 053a B842     		.uleb128 0x2138
 15841 053c 0B       		.uleb128 0xb
 15842 053d 55       		.uleb128 0x55
 15843 053e 17       		.uleb128 0x17
 15844 053f 58       		.uleb128 0x58
 15845 0540 0B       		.uleb128 0xb
 15846 0541 59       		.uleb128 0x59
 15847 0542 0B       		.uleb128 0xb
 15848 0543 57       		.uleb128 0x57
 15849 0544 0B       		.uleb128 0xb
 15850 0545 00       		.byte	0
 15851 0546 00       		.byte	0
 15852 0547 59       		.uleb128 0x59
 15853 0548 05       		.uleb128 0x5
 15854 0549 00       		.byte	0
 15855 054a 03       		.uleb128 0x3
 15856 054b 0E       		.uleb128 0xe
 15857 054c 3A       		.uleb128 0x3a
 15858 054d 0B       		.uleb128 0xb
 15859 054e 3B       		.uleb128 0x3b
 15860 054f 0B       		.uleb128 0xb
 15861 0550 39       		.uleb128 0x39
 15862 0551 0B       		.uleb128 0xb
 15863 0552 49       		.uleb128 0x49
 15864 0553 13       		.uleb128 0x13
 15865 0554 02       		.uleb128 0x2
 15866 0555 18       		.uleb128 0x18
 15867 0556 00       		.byte	0
 15868 0557 00       		.byte	0
 15869 0558 5A       		.uleb128 0x5a
 15870 0559 05       		.uleb128 0x5
 15871 055a 00       		.byte	0
 15872 055b 03       		.uleb128 0x3
 15873 055c 08       		.uleb128 0x8
 15874 055d 3A       		.uleb128 0x3a
 15875 055e 0B       		.uleb128 0xb
 15876 055f 3B       		.uleb128 0x3b
 15877 0560 0B       		.uleb128 0xb
ARM GAS  /tmp/ccDQUTww.s 			page 280


 15878 0561 39       		.uleb128 0x39
 15879 0562 0B       		.uleb128 0xb
 15880 0563 49       		.uleb128 0x49
 15881 0564 13       		.uleb128 0x13
 15882 0565 02       		.uleb128 0x2
 15883 0566 18       		.uleb128 0x18
 15884 0567 00       		.byte	0
 15885 0568 00       		.byte	0
 15886 0569 5B       		.uleb128 0x5b
 15887 056a 05       		.uleb128 0x5
 15888 056b 00       		.byte	0
 15889 056c 03       		.uleb128 0x3
 15890 056d 08       		.uleb128 0x8
 15891 056e 3A       		.uleb128 0x3a
 15892 056f 0B       		.uleb128 0xb
 15893 0570 3B       		.uleb128 0x3b
 15894 0571 0B       		.uleb128 0xb
 15895 0572 39       		.uleb128 0x39
 15896 0573 0B       		.uleb128 0xb
 15897 0574 49       		.uleb128 0x49
 15898 0575 13       		.uleb128 0x13
 15899 0576 02       		.uleb128 0x2
 15900 0577 17       		.uleb128 0x17
 15901 0578 B742     		.uleb128 0x2137
 15902 057a 17       		.uleb128 0x17
 15903 057b 00       		.byte	0
 15904 057c 00       		.byte	0
 15905 057d 5C       		.uleb128 0x5c
 15906 057e 1D       		.uleb128 0x1d
 15907 057f 01       		.byte	0x1
 15908 0580 31       		.uleb128 0x31
 15909 0581 13       		.uleb128 0x13
 15910 0582 11       		.uleb128 0x11
 15911 0583 01       		.uleb128 0x1
 15912 0584 12       		.uleb128 0x12
 15913 0585 06       		.uleb128 0x6
 15914 0586 58       		.uleb128 0x58
 15915 0587 0B       		.uleb128 0xb
 15916 0588 59       		.uleb128 0x59
 15917 0589 0B       		.uleb128 0xb
 15918 058a 57       		.uleb128 0x57
 15919 058b 0B       		.uleb128 0xb
 15920 058c 00       		.byte	0
 15921 058d 00       		.byte	0
 15922 058e 5D       		.uleb128 0x5d
 15923 058f 2E       		.uleb128 0x2e
 15924 0590 01       		.byte	0x1
 15925 0591 03       		.uleb128 0x3
 15926 0592 0E       		.uleb128 0xe
 15927 0593 3A       		.uleb128 0x3a
 15928 0594 0B       		.uleb128 0xb
 15929 0595 3B       		.uleb128 0x3b
 15930 0596 05       		.uleb128 0x5
 15931 0597 39       		.uleb128 0x39
 15932 0598 0B       		.uleb128 0xb
 15933 0599 27       		.uleb128 0x27
 15934 059a 19       		.uleb128 0x19
ARM GAS  /tmp/ccDQUTww.s 			page 281


 15935 059b 20       		.uleb128 0x20
 15936 059c 0B       		.uleb128 0xb
 15937 059d 01       		.uleb128 0x1
 15938 059e 13       		.uleb128 0x13
 15939 059f 00       		.byte	0
 15940 05a0 00       		.byte	0
 15941 05a1 5E       		.uleb128 0x5e
 15942 05a2 05       		.uleb128 0x5
 15943 05a3 00       		.byte	0
 15944 05a4 03       		.uleb128 0x3
 15945 05a5 08       		.uleb128 0x8
 15946 05a6 3A       		.uleb128 0x3a
 15947 05a7 0B       		.uleb128 0xb
 15948 05a8 3B       		.uleb128 0x3b
 15949 05a9 05       		.uleb128 0x5
 15950 05aa 39       		.uleb128 0x39
 15951 05ab 0B       		.uleb128 0xb
 15952 05ac 49       		.uleb128 0x49
 15953 05ad 13       		.uleb128 0x13
 15954 05ae 00       		.byte	0
 15955 05af 00       		.byte	0
 15956 05b0 5F       		.uleb128 0x5f
 15957 05b1 2E       		.uleb128 0x2e
 15958 05b2 01       		.byte	0x1
 15959 05b3 03       		.uleb128 0x3
 15960 05b4 0E       		.uleb128 0xe
 15961 05b5 3A       		.uleb128 0x3a
 15962 05b6 0B       		.uleb128 0xb
 15963 05b7 3B       		.uleb128 0x3b
 15964 05b8 05       		.uleb128 0x5
 15965 05b9 39       		.uleb128 0x39
 15966 05ba 0B       		.uleb128 0xb
 15967 05bb 27       		.uleb128 0x27
 15968 05bc 19       		.uleb128 0x19
 15969 05bd 49       		.uleb128 0x49
 15970 05be 13       		.uleb128 0x13
 15971 05bf 20       		.uleb128 0x20
 15972 05c0 0B       		.uleb128 0xb
 15973 05c1 01       		.uleb128 0x1
 15974 05c2 13       		.uleb128 0x13
 15975 05c3 00       		.byte	0
 15976 05c4 00       		.byte	0
 15977 05c5 60       		.uleb128 0x60
 15978 05c6 2E       		.uleb128 0x2e
 15979 05c7 00       		.byte	0
 15980 05c8 03       		.uleb128 0x3
 15981 05c9 0E       		.uleb128 0xe
 15982 05ca 3A       		.uleb128 0x3a
 15983 05cb 0B       		.uleb128 0xb
 15984 05cc 3B       		.uleb128 0x3b
 15985 05cd 05       		.uleb128 0x5
 15986 05ce 39       		.uleb128 0x39
 15987 05cf 0B       		.uleb128 0xb
 15988 05d0 27       		.uleb128 0x27
 15989 05d1 19       		.uleb128 0x19
 15990 05d2 20       		.uleb128 0x20
 15991 05d3 0B       		.uleb128 0xb
ARM GAS  /tmp/ccDQUTww.s 			page 282


 15992 05d4 00       		.byte	0
 15993 05d5 00       		.byte	0
 15994 05d6 61       		.uleb128 0x61
 15995 05d7 2E       		.uleb128 0x2e
 15996 05d8 01       		.byte	0x1
 15997 05d9 31       		.uleb128 0x31
 15998 05da 13       		.uleb128 0x13
 15999 05db 11       		.uleb128 0x11
 16000 05dc 01       		.uleb128 0x1
 16001 05dd 12       		.uleb128 0x12
 16002 05de 06       		.uleb128 0x6
 16003 05df 40       		.uleb128 0x40
 16004 05e0 18       		.uleb128 0x18
 16005 05e1 9742     		.uleb128 0x2117
 16006 05e3 19       		.uleb128 0x19
 16007 05e4 01       		.uleb128 0x1
 16008 05e5 13       		.uleb128 0x13
 16009 05e6 00       		.byte	0
 16010 05e7 00       		.byte	0
 16011 05e8 62       		.uleb128 0x62
 16012 05e9 34       		.uleb128 0x34
 16013 05ea 00       		.byte	0
 16014 05eb 31       		.uleb128 0x31
 16015 05ec 13       		.uleb128 0x13
 16016 05ed 02       		.uleb128 0x2
 16017 05ee 17       		.uleb128 0x17
 16018 05ef B742     		.uleb128 0x2137
 16019 05f1 17       		.uleb128 0x17
 16020 05f2 00       		.byte	0
 16021 05f3 00       		.byte	0
 16022 05f4 63       		.uleb128 0x63
 16023 05f5 1D       		.uleb128 0x1d
 16024 05f6 01       		.byte	0x1
 16025 05f7 31       		.uleb128 0x31
 16026 05f8 13       		.uleb128 0x13
 16027 05f9 52       		.uleb128 0x52
 16028 05fa 01       		.uleb128 0x1
 16029 05fb B842     		.uleb128 0x2138
 16030 05fd 0B       		.uleb128 0xb
 16031 05fe 11       		.uleb128 0x11
 16032 05ff 01       		.uleb128 0x1
 16033 0600 12       		.uleb128 0x12
 16034 0601 06       		.uleb128 0x6
 16035 0602 58       		.uleb128 0x58
 16036 0603 0B       		.uleb128 0xb
 16037 0604 59       		.uleb128 0x59
 16038 0605 0B       		.uleb128 0xb
 16039 0606 57       		.uleb128 0x57
 16040 0607 0B       		.uleb128 0xb
 16041 0608 00       		.byte	0
 16042 0609 00       		.byte	0
 16043 060a 64       		.uleb128 0x64
 16044 060b 0B       		.uleb128 0xb
 16045 060c 00       		.byte	0
 16046 060d 11       		.uleb128 0x11
 16047 060e 01       		.uleb128 0x1
 16048 060f 12       		.uleb128 0x12
ARM GAS  /tmp/ccDQUTww.s 			page 283


 16049 0610 06       		.uleb128 0x6
 16050 0611 00       		.byte	0
 16051 0612 00       		.byte	0
 16052 0613 65       		.uleb128 0x65
 16053 0614 898201   		.uleb128 0x4109
 16054 0617 01       		.byte	0x1
 16055 0618 11       		.uleb128 0x11
 16056 0619 01       		.uleb128 0x1
 16057 061a 9542     		.uleb128 0x2115
 16058 061c 19       		.uleb128 0x19
 16059 061d 00       		.byte	0
 16060 061e 00       		.byte	0
 16061 061f 66       		.uleb128 0x66
 16062 0620 2E       		.uleb128 0x2e
 16063 0621 00       		.byte	0
 16064 0622 3F       		.uleb128 0x3f
 16065 0623 19       		.uleb128 0x19
 16066 0624 3C       		.uleb128 0x3c
 16067 0625 19       		.uleb128 0x19
 16068 0626 6E       		.uleb128 0x6e
 16069 0627 0E       		.uleb128 0xe
 16070 0628 03       		.uleb128 0x3
 16071 0629 0E       		.uleb128 0xe
 16072 062a 3A       		.uleb128 0x3a
 16073 062b 0B       		.uleb128 0xb
 16074 062c 3B       		.uleb128 0x3b
 16075 062d 0B       		.uleb128 0xb
 16076 062e 00       		.byte	0
 16077 062f 00       		.byte	0
 16078 0630 67       		.uleb128 0x67
 16079 0631 2E       		.uleb128 0x2e
 16080 0632 00       		.byte	0
 16081 0633 3F       		.uleb128 0x3f
 16082 0634 19       		.uleb128 0x19
 16083 0635 3C       		.uleb128 0x3c
 16084 0636 19       		.uleb128 0x19
 16085 0637 6E       		.uleb128 0x6e
 16086 0638 0E       		.uleb128 0xe
 16087 0639 03       		.uleb128 0x3
 16088 063a 0E       		.uleb128 0xe
 16089 063b 3A       		.uleb128 0x3a
 16090 063c 0B       		.uleb128 0xb
 16091 063d 3B       		.uleb128 0x3b
 16092 063e 0B       		.uleb128 0xb
 16093 063f 39       		.uleb128 0x39
 16094 0640 0B       		.uleb128 0xb
 16095 0641 00       		.byte	0
 16096 0642 00       		.byte	0
 16097 0643 00       		.byte	0
 16098              		.section	.debug_loc,"",%progbits
 16099              	.Ldebug_loc0:
 16100              	.LVUS99:
 16101 0000 00       		.uleb128 0
 16102 0001 00       		.uleb128 .LVU1075
 16103 0002 00       		.uleb128 .LVU1075
 16104 0003 00       		.uleb128 .LVU1091
 16105 0004 00       		.uleb128 .LVU1091
ARM GAS  /tmp/ccDQUTww.s 			page 284


 16106 0005 00       		.uleb128 0
 16107              	.LLST99:
 16108 0006 D0050000 		.4byte	.LVL167-.Ltext0
 16109 000a 01060000 		.4byte	.LVL175-1-.Ltext0
 16110 000e 0100     		.2byte	0x1
 16111 0010 50       		.byte	0x50
 16112 0011 01060000 		.4byte	.LVL175-1-.Ltext0
 16113 0015 0A060000 		.4byte	.LVL177-.Ltext0
 16114 0019 0400     		.2byte	0x4
 16115 001b F3       		.byte	0xf3
 16116 001c 01       		.uleb128 0x1
 16117 001d 50       		.byte	0x50
 16118 001e 9F       		.byte	0x9f
 16119 001f 0A060000 		.4byte	.LVL177-.Ltext0
 16120 0023 18060000 		.4byte	.LFE383-.Ltext0
 16121 0027 0100     		.2byte	0x1
 16122 0029 50       		.byte	0x50
 16123 002a 00000000 		.4byte	0
 16124 002e 00000000 		.4byte	0
 16125              	.LVUS101:
 16126 0032 00       		.uleb128 .LVU1043
 16127 0033 00       		.uleb128 .LVU1045
 16128 0034 00       		.uleb128 .LVU1045
 16129 0035 00       		.uleb128 .LVU1060
 16130 0036 00       		.uleb128 .LVU1060
 16131 0037 00       		.uleb128 .LVU1061
 16132 0038 00       		.uleb128 .LVU1061
 16133 0039 00       		.uleb128 .LVU1064
 16134              	.LLST101:
 16135 003a DE050000 		.4byte	.LVL169-.Ltext0
 16136 003e E0050000 		.4byte	.LVL170-.Ltext0
 16137 0042 0600     		.2byte	0x6
 16138 0044 73       		.byte	0x73
 16139 0045 00       		.sleb128 0
 16140 0046 72       		.byte	0x72
 16141 0047 00       		.sleb128 0
 16142 0048 1C       		.byte	0x1c
 16143 0049 9F       		.byte	0x9f
 16144 004a E0050000 		.4byte	.LVL170-.Ltext0
 16145 004e EC050000 		.4byte	.LVL172-.Ltext0
 16146 0052 0100     		.2byte	0x1
 16147 0054 53       		.byte	0x53
 16148 0055 EC050000 		.4byte	.LVL172-.Ltext0
 16149 0059 EE050000 		.4byte	.LVL173-.Ltext0
 16150 005d 0200     		.2byte	0x2
 16151 005f 72       		.byte	0x72
 16152 0060 00       		.sleb128 0
 16153 0061 EE050000 		.4byte	.LVL173-.Ltext0
 16154 0065 F4050000 		.4byte	.LVL174-.Ltext0
 16155 0069 0300     		.2byte	0x3
 16156 006b 70       		.byte	0x70
 16157 006c 10       		.sleb128 16
 16158 006d 06       		.byte	0x6
 16159 006e 00000000 		.4byte	0
 16160 0072 00000000 		.4byte	0
 16161              	.LVUS102:
 16162 0076 01       		.uleb128 .LVU1047
ARM GAS  /tmp/ccDQUTww.s 			page 285


 16163 0077 00       		.uleb128 .LVU1060
 16164 0078 00       		.uleb128 .LVU1060
 16165 0079 00       		.uleb128 .LVU1061
 16166 007a 00       		.uleb128 .LVU1061
 16167 007b 00       		.uleb128 .LVU1064
 16168              	.LLST102:
 16169 007c E2050000 		.4byte	.LVL171-.Ltext0
 16170 0080 EC050000 		.4byte	.LVL172-.Ltext0
 16171 0084 0100     		.2byte	0x1
 16172 0086 53       		.byte	0x53
 16173 0087 EC050000 		.4byte	.LVL172-.Ltext0
 16174 008b EE050000 		.4byte	.LVL173-.Ltext0
 16175 008f 0200     		.2byte	0x2
 16176 0091 72       		.byte	0x72
 16177 0092 00       		.sleb128 0
 16178 0093 EE050000 		.4byte	.LVL173-.Ltext0
 16179 0097 F4050000 		.4byte	.LVL174-.Ltext0
 16180 009b 0300     		.2byte	0x3
 16181 009d 70       		.byte	0x70
 16182 009e 10       		.sleb128 16
 16183 009f 06       		.byte	0x6
 16184 00a0 00000000 		.4byte	0
 16185 00a4 00000000 		.4byte	0
 16186              	.LVUS103:
 16187 00a8 01       		.uleb128 .LVU1047
 16188 00a9 00       		.uleb128 .LVU1075
 16189 00aa 00       		.uleb128 .LVU1075
 16190 00ab 00       		.uleb128 .LVU1091
 16191 00ac 00       		.uleb128 .LVU1105
 16192 00ad 00       		.uleb128 0
 16193              	.LLST103:
 16194 00ae E2050000 		.4byte	.LVL171-.Ltext0
 16195 00b2 01060000 		.4byte	.LVL175-1-.Ltext0
 16196 00b6 0100     		.2byte	0x1
 16197 00b8 50       		.byte	0x50
 16198 00b9 01060000 		.4byte	.LVL175-1-.Ltext0
 16199 00bd 0A060000 		.4byte	.LVL177-.Ltext0
 16200 00c1 0400     		.2byte	0x4
 16201 00c3 F3       		.byte	0xf3
 16202 00c4 01       		.uleb128 0x1
 16203 00c5 50       		.byte	0x50
 16204 00c6 9F       		.byte	0x9f
 16205 00c7 12060000 		.4byte	.LVL179-.Ltext0
 16206 00cb 18060000 		.4byte	.LFE383-.Ltext0
 16207 00cf 0100     		.2byte	0x1
 16208 00d1 50       		.byte	0x50
 16209 00d2 00000000 		.4byte	0
 16210 00d6 00000000 		.4byte	0
 16211              	.LVUS100:
 16212 00da 08       		.uleb128 .LVU1032
 16213 00db 00       		.uleb128 .LVU1034
 16214              	.LLST100:
 16215 00dc D0050000 		.4byte	.LVL167-.Ltext0
 16216 00e0 D6050000 		.4byte	.LVL168-.Ltext0
 16217 00e4 0300     		.2byte	0x3
 16218 00e6 08       		.byte	0x8
 16219 00e7 20       		.byte	0x20
ARM GAS  /tmp/ccDQUTww.s 			page 286


 16220 00e8 9F       		.byte	0x9f
 16221 00e9 00000000 		.4byte	0
 16222 00ed 00000000 		.4byte	0
 16223              	.LVUS104:
 16224 00f1 0C       		.uleb128 .LVU1087
 16225 00f2 00       		.uleb128 .LVU1089
 16226 00f3 0B       		.uleb128 .LVU1102
 16227 00f4 00       		.uleb128 .LVU1104
 16228              	.LLST104:
 16229 00f5 02060000 		.4byte	.LVL175-.Ltext0
 16230 00f9 08060000 		.4byte	.LVL176-.Ltext0
 16231 00fd 0200     		.2byte	0x2
 16232 00ff 30       		.byte	0x30
 16233 0100 9F       		.byte	0x9f
 16234 0101 0A060000 		.4byte	.LVL177-.Ltext0
 16235 0105 10060000 		.4byte	.LVL178-.Ltext0
 16236 0109 0200     		.2byte	0x2
 16237 010b 30       		.byte	0x30
 16238 010c 9F       		.byte	0x9f
 16239 010d 00000000 		.4byte	0
 16240 0111 00000000 		.4byte	0
 16241              	.LVUS97:
 16242 0115 00       		.uleb128 0
 16243 0116 00       		.uleb128 .LVU987
 16244 0117 00       		.uleb128 .LVU987
 16245 0118 00       		.uleb128 .LVU988
 16246 0119 00       		.uleb128 .LVU988
 16247 011a 00       		.uleb128 .LVU990
 16248 011b 00       		.uleb128 .LVU990
 16249 011c 00       		.uleb128 0
 16250              	.LLST97:
 16251 011d 80050000 		.4byte	.LVL157-.Ltext0
 16252 0121 8A050000 		.4byte	.LVL158-.Ltext0
 16253 0125 0100     		.2byte	0x1
 16254 0127 50       		.byte	0x50
 16255 0128 8A050000 		.4byte	.LVL158-.Ltext0
 16256 012c 8C050000 		.4byte	.LVL159-.Ltext0
 16257 0130 0400     		.2byte	0x4
 16258 0132 F3       		.byte	0xf3
 16259 0133 01       		.uleb128 0x1
 16260 0134 50       		.byte	0x50
 16261 0135 9F       		.byte	0x9f
 16262 0136 8C050000 		.4byte	.LVL159-.Ltext0
 16263 013a 90050000 		.4byte	.LVL160-.Ltext0
 16264 013e 0100     		.2byte	0x1
 16265 0140 50       		.byte	0x50
 16266 0141 90050000 		.4byte	.LVL160-.Ltext0
 16267 0145 C8050000 		.4byte	.LFE382-.Ltext0
 16268 0149 0100     		.2byte	0x1
 16269 014b 52       		.byte	0x52
 16270 014c 00000000 		.4byte	0
 16271 0150 00000000 		.4byte	0
 16272              	.LVUS98:
 16273 0154 00       		.uleb128 .LVU995
 16274 0155 00       		.uleb128 .LVU997
 16275 0156 00       		.uleb128 .LVU997
 16276 0157 00       		.uleb128 .LVU999
ARM GAS  /tmp/ccDQUTww.s 			page 287


 16277 0158 00       		.uleb128 .LVU1000
 16278 0159 00       		.uleb128 .LVU1008
 16279 015a 00       		.uleb128 .LVU1008
 16280 015b 00       		.uleb128 .LVU1011
 16281              	.LLST98:
 16282 015c 98050000 		.4byte	.LVL161-.Ltext0
 16283 0160 9A050000 		.4byte	.LVL162-.Ltext0
 16284 0164 0600     		.2byte	0x6
 16285 0166 73       		.byte	0x73
 16286 0167 00       		.sleb128 0
 16287 0168 71       		.byte	0x71
 16288 0169 00       		.sleb128 0
 16289 016a 1C       		.byte	0x1c
 16290 016b 9F       		.byte	0x9f
 16291 016c 9A050000 		.4byte	.LVL162-.Ltext0
 16292 0170 9E050000 		.4byte	.LVL163-.Ltext0
 16293 0174 0100     		.2byte	0x1
 16294 0176 50       		.byte	0x50
 16295 0177 A2050000 		.4byte	.LVL164-.Ltext0
 16296 017b AE050000 		.4byte	.LVL165-.Ltext0
 16297 017f 0100     		.2byte	0x1
 16298 0181 50       		.byte	0x50
 16299 0182 AE050000 		.4byte	.LVL165-.Ltext0
 16300 0186 B4050000 		.4byte	.LVL166-.Ltext0
 16301 018a 0300     		.2byte	0x3
 16302 018c 72       		.byte	0x72
 16303 018d 10       		.sleb128 16
 16304 018e 06       		.byte	0x6
 16305 018f 00000000 		.4byte	0
 16306 0193 00000000 		.4byte	0
 16307              	.LVUS84:
 16308 0197 00       		.uleb128 0
 16309 0198 00       		.uleb128 .LVU864
 16310 0199 00       		.uleb128 .LVU864
 16311 019a 00       		.uleb128 0
 16312              	.LLST84:
 16313 019b 90040000 		.4byte	.LVL128-.Ltext0
 16314 019f B2040000 		.4byte	.LVL132-.Ltext0
 16315 01a3 0100     		.2byte	0x1
 16316 01a5 50       		.byte	0x50
 16317 01a6 B2040000 		.4byte	.LVL132-.Ltext0
 16318 01aa 76050000 		.4byte	.LFE381-.Ltext0
 16319 01ae 0100     		.2byte	0x1
 16320 01b0 55       		.byte	0x55
 16321 01b1 00000000 		.4byte	0
 16322 01b5 00000000 		.4byte	0
 16323              	.LVUS85:
 16324 01b9 00       		.uleb128 0
 16325 01ba 00       		.uleb128 .LVU864
 16326 01bb 00       		.uleb128 .LVU864
 16327 01bc 00       		.uleb128 .LVU872
 16328 01bd 00       		.uleb128 .LVU872
 16329 01be 00       		.uleb128 .LVU876
 16330 01bf 00       		.uleb128 .LVU876
 16331 01c0 01       		.uleb128 .LVU880
 16332 01c1 01       		.uleb128 .LVU880
 16333 01c2 00       		.uleb128 0
ARM GAS  /tmp/ccDQUTww.s 			page 288


 16334              	.LLST85:
 16335 01c3 90040000 		.4byte	.LVL128-.Ltext0
 16336 01c7 B2040000 		.4byte	.LVL132-.Ltext0
 16337 01cb 0100     		.2byte	0x1
 16338 01cd 51       		.byte	0x51
 16339 01ce B2040000 		.4byte	.LVL132-.Ltext0
 16340 01d2 CE040000 		.4byte	.LVL135-.Ltext0
 16341 01d6 0100     		.2byte	0x1
 16342 01d8 54       		.byte	0x54
 16343 01d9 CE040000 		.4byte	.LVL135-.Ltext0
 16344 01dd FA040000 		.4byte	.LVL136-.Ltext0
 16345 01e1 0300     		.2byte	0x3
 16346 01e3 7E       		.byte	0x7e
 16347 01e4 40       		.sleb128 -64
 16348 01e5 9F       		.byte	0x9f
 16349 01e6 FA040000 		.4byte	.LVL136-.Ltext0
 16350 01ea 02050000 		.4byte	.LVL138-.Ltext0
 16351 01ee 0100     		.2byte	0x1
 16352 01f0 5E       		.byte	0x5e
 16353 01f1 02050000 		.4byte	.LVL138-.Ltext0
 16354 01f5 76050000 		.4byte	.LFE381-.Ltext0
 16355 01f9 0100     		.2byte	0x1
 16356 01fb 54       		.byte	0x54
 16357 01fc 00000000 		.4byte	0
 16358 0200 00000000 		.4byte	0
 16359              	.LVUS86:
 16360 0204 00       		.uleb128 0
 16361 0205 00       		.uleb128 .LVU864
 16362 0206 00       		.uleb128 .LVU864
 16363 0207 00       		.uleb128 0
 16364              	.LLST86:
 16365 0208 90040000 		.4byte	.LVL128-.Ltext0
 16366 020c B2040000 		.4byte	.LVL132-.Ltext0
 16367 0210 0100     		.2byte	0x1
 16368 0212 52       		.byte	0x52
 16369 0213 B2040000 		.4byte	.LVL132-.Ltext0
 16370 0217 76050000 		.4byte	.LFE381-.Ltext0
 16371 021b 0100     		.2byte	0x1
 16372 021d 56       		.byte	0x56
 16373 021e 00000000 		.4byte	0
 16374 0222 00000000 		.4byte	0
 16375              	.LVUS87:
 16376 0226 00       		.uleb128 0
 16377 0227 00       		.uleb128 .LVU862
 16378 0228 00       		.uleb128 .LVU862
 16379 0229 00       		.uleb128 0
 16380              	.LLST87:
 16381 022a 90040000 		.4byte	.LVL128-.Ltext0
 16382 022e AC040000 		.4byte	.LVL131-.Ltext0
 16383 0232 0100     		.2byte	0x1
 16384 0234 53       		.byte	0x53
 16385 0235 AC040000 		.4byte	.LVL131-.Ltext0
 16386 0239 76050000 		.4byte	.LFE381-.Ltext0
 16387 023d 0100     		.2byte	0x1
 16388 023f 59       		.byte	0x59
 16389 0240 00000000 		.4byte	0
 16390 0244 00000000 		.4byte	0
ARM GAS  /tmp/ccDQUTww.s 			page 289


 16391              	.LVUS88:
 16392 0248 02       		.uleb128 .LVU840
 16393 0249 00       		.uleb128 .LVU858
 16394 024a 00       		.uleb128 .LVU858
 16395 024b 00       		.uleb128 .LVU878
 16396 024c 00       		.uleb128 .LVU878
 16397 024d 01       		.uleb128 .LVU880
 16398 024e 01       		.uleb128 .LVU880
 16399 024f 00       		.uleb128 .LVU956
 16400 0250 01       		.uleb128 .LVU963
 16401 0251 00       		.uleb128 0
 16402              	.LLST88:
 16403 0252 90040000 		.4byte	.LVL128-.Ltext0
 16404 0256 AA040000 		.4byte	.LVL130-.Ltext0
 16405 025a 0200     		.2byte	0x2
 16406 025c 30       		.byte	0x30
 16407 025d 9F       		.byte	0x9f
 16408 025e AA040000 		.4byte	.LVL130-.Ltext0
 16409 0262 FE040000 		.4byte	.LVL137-.Ltext0
 16410 0266 0100     		.2byte	0x1
 16411 0268 5A       		.byte	0x5a
 16412 0269 FE040000 		.4byte	.LVL137-.Ltext0
 16413 026d 02050000 		.4byte	.LVL138-.Ltext0
 16414 0271 0300     		.2byte	0x3
 16415 0273 7A       		.byte	0x7a
 16416 0274 40       		.sleb128 -64
 16417 0275 9F       		.byte	0x9f
 16418 0276 02050000 		.4byte	.LVL138-.Ltext0
 16419 027a 5C050000 		.4byte	.LVL151-.Ltext0
 16420 027e 0100     		.2byte	0x1
 16421 0280 5A       		.byte	0x5a
 16422 0281 68050000 		.4byte	.LVL154-.Ltext0
 16423 0285 76050000 		.4byte	.LFE381-.Ltext0
 16424 0289 0100     		.2byte	0x1
 16425 028b 5A       		.byte	0x5a
 16426 028c 00000000 		.4byte	0
 16427 0290 00000000 		.4byte	0
 16428              	.LVUS90:
 16429 0294 00       		.uleb128 .LVU868
 16430 0295 00       		.uleb128 .LVU869
 16431 0296 00       		.uleb128 .LVU869
 16432 0297 00       		.uleb128 .LVU948
 16433 0298 00       		.uleb128 .LVU953
 16434 0299 00       		.uleb128 .LVU964
 16435              	.LLST90:
 16436 029a BA040000 		.4byte	.LVL133-.Ltext0
 16437 029e C0040000 		.4byte	.LVL134-.Ltext0
 16438 02a2 0100     		.2byte	0x1
 16439 02a4 52       		.byte	0x52
 16440 02a5 C0040000 		.4byte	.LVL134-.Ltext0
 16441 02a9 42050000 		.4byte	.LVL148-.Ltext0
 16442 02ad 0100     		.2byte	0x1
 16443 02af 5B       		.byte	0x5b
 16444 02b0 54050000 		.4byte	.LVL150-.Ltext0
 16445 02b4 6A050000 		.4byte	.LVL155-.Ltext0
 16446 02b8 0100     		.2byte	0x1
 16447 02ba 5B       		.byte	0x5b
ARM GAS  /tmp/ccDQUTww.s 			page 290


 16448 02bb 00000000 		.4byte	0
 16449 02bf 00000000 		.4byte	0
 16450              	.LVUS95:
 16451 02c3 00       		.uleb128 .LVU951
 16452 02c4 00       		.uleb128 .LVU953
 16453 02c5 00       		.uleb128 .LVU964
 16454 02c6 02       		.uleb128 .LVU979
 16455              	.LLST95:
 16456 02c7 4C050000 		.4byte	.LVL149-.Ltext0
 16457 02cb 54050000 		.4byte	.LVL150-.Ltext0
 16458 02cf 0100     		.2byte	0x1
 16459 02d1 50       		.byte	0x50
 16460 02d2 6A050000 		.4byte	.LVL155-.Ltext0
 16461 02d6 6E050000 		.4byte	.LVL156-.Ltext0
 16462 02da 0100     		.2byte	0x1
 16463 02dc 50       		.byte	0x50
 16464 02dd 00000000 		.4byte	0
 16465 02e1 00000000 		.4byte	0
 16466              	.LVUS96:
 16467 02e5 0B       		.uleb128 .LVU975
 16468 02e6 00       		.uleb128 .LVU977
 16469              	.LLST96:
 16470 02e7 6A050000 		.4byte	.LVL155-.Ltext0
 16471 02eb 6E050000 		.4byte	.LVL156-.Ltext0
 16472 02ef 0200     		.2byte	0x2
 16473 02f1 30       		.byte	0x30
 16474 02f2 9F       		.byte	0x9f
 16475 02f3 00000000 		.4byte	0
 16476 02f7 00000000 		.4byte	0
 16477              	.LVUS91:
 16478 02fb 01       		.uleb128 .LVU883
 16479 02fc 00       		.uleb128 .LVU893
 16480 02fd 00       		.uleb128 .LVU893
 16481 02fe 00       		.uleb128 .LVU898
 16482 02ff 00       		.uleb128 .LVU898
 16483 0300 00       		.uleb128 .LVU899
 16484 0301 00       		.uleb128 .LVU899
 16485 0302 00       		.uleb128 .LVU902
 16486              	.LLST91:
 16487 0303 08050000 		.4byte	.LVL139-.Ltext0
 16488 0307 0E050000 		.4byte	.LVL140-.Ltext0
 16489 030b 0600     		.2byte	0x6
 16490 030d 75       		.byte	0x75
 16491 030e 1C       		.sleb128 28
 16492 030f 06       		.byte	0x6
 16493 0310 34       		.byte	0x34
 16494 0311 1C       		.byte	0x1c
 16495 0312 9F       		.byte	0x9f
 16496 0313 0E050000 		.4byte	.LVL140-.Ltext0
 16497 0317 16050000 		.4byte	.LVL141-.Ltext0
 16498 031b 0100     		.2byte	0x1
 16499 031d 52       		.byte	0x52
 16500 031e 16050000 		.4byte	.LVL141-.Ltext0
 16501 0322 18050000 		.4byte	.LVL142-.Ltext0
 16502 0326 0200     		.2byte	0x2
 16503 0328 73       		.byte	0x73
 16504 0329 00       		.sleb128 0
ARM GAS  /tmp/ccDQUTww.s 			page 291


 16505 032a 18050000 		.4byte	.LVL142-.Ltext0
 16506 032e 1E050000 		.4byte	.LVL143-.Ltext0
 16507 0332 0300     		.2byte	0x3
 16508 0334 75       		.byte	0x75
 16509 0335 10       		.sleb128 16
 16510 0336 06       		.byte	0x6
 16511 0337 00000000 		.4byte	0
 16512 033b 00000000 		.4byte	0
 16513              	.LVUS92:
 16514 033f 01       		.uleb128 .LVU883
 16515 0340 00       		.uleb128 .LVU914
 16516              	.LLST92:
 16517 0341 08050000 		.4byte	.LVL139-.Ltext0
 16518 0345 30050000 		.4byte	.LVL144-.Ltext0
 16519 0349 0100     		.2byte	0x1
 16520 034b 55       		.byte	0x55
 16521 034c 00000000 		.4byte	0
 16522 0350 00000000 		.4byte	0
 16523              	.LVUS93:
 16524 0354 0C       		.uleb128 .LVU926
 16525 0355 00       		.uleb128 .LVU928
 16526              	.LLST93:
 16527 0356 30050000 		.4byte	.LVL144-.Ltext0
 16528 035a 34050000 		.4byte	.LVL145-.Ltext0
 16529 035e 0200     		.2byte	0x2
 16530 0360 30       		.byte	0x30
 16531 0361 9F       		.byte	0x9f
 16532 0362 00000000 		.4byte	0
 16533 0366 00000000 		.4byte	0
 16534              	.LVUS94:
 16535 036a 07       		.uleb128 .LVU938
 16536 036b 00       		.uleb128 .LVU940
 16537              	.LLST94:
 16538 036c 38050000 		.4byte	.LVL146-.Ltext0
 16539 0370 3C050000 		.4byte	.LVL147-.Ltext0
 16540 0374 0300     		.2byte	0x3
 16541 0376 08       		.byte	0x8
 16542 0377 20       		.byte	0x20
 16543 0378 9F       		.byte	0x9f
 16544 0379 00000000 		.4byte	0
 16545 037d 00000000 		.4byte	0
 16546              	.LVUS89:
 16547 0381 0B       		.uleb128 .LVU849
 16548 0382 00       		.uleb128 .LVU854
 16549              	.LLST89:
 16550 0383 90040000 		.4byte	.LVL128-.Ltext0
 16551 0387 A6040000 		.4byte	.LVL129-.Ltext0
 16552 038b 0300     		.2byte	0x3
 16553 038d 08       		.byte	0x8
 16554 038e 20       		.byte	0x20
 16555 038f 9F       		.byte	0x9f
 16556 0390 00000000 		.4byte	0
 16557 0394 00000000 		.4byte	0
 16558              	.LVUS75:
 16559 0398 00       		.uleb128 0
 16560 0399 00       		.uleb128 .LVU757
 16561 039a 00       		.uleb128 .LVU757
ARM GAS  /tmp/ccDQUTww.s 			page 292


 16562 039b 00       		.uleb128 .LVU816
 16563 039c 00       		.uleb128 .LVU816
 16564 039d 00       		.uleb128 .LVU819
 16565 039e 00       		.uleb128 .LVU819
 16566 039f 00       		.uleb128 0
 16567              	.LLST75:
 16568 03a0 20040000 		.4byte	.LVL113-.Ltext0
 16569 03a4 30040000 		.4byte	.LVL115-.Ltext0
 16570 03a8 0100     		.2byte	0x1
 16571 03aa 50       		.byte	0x50
 16572 03ab 30040000 		.4byte	.LVL115-.Ltext0
 16573 03af 70040000 		.4byte	.LVL123-.Ltext0
 16574 03b3 0100     		.2byte	0x1
 16575 03b5 54       		.byte	0x54
 16576 03b6 70040000 		.4byte	.LVL123-.Ltext0
 16577 03ba 75040000 		.4byte	.LVL125-1-.Ltext0
 16578 03be 0100     		.2byte	0x1
 16579 03c0 50       		.byte	0x50
 16580 03c1 75040000 		.4byte	.LVL125-1-.Ltext0
 16581 03c5 82040000 		.4byte	.LFE380-.Ltext0
 16582 03c9 0100     		.2byte	0x1
 16583 03cb 54       		.byte	0x54
 16584 03cc 00000000 		.4byte	0
 16585 03d0 00000000 		.4byte	0
 16586              	.LVUS76:
 16587 03d4 00       		.uleb128 0
 16588 03d5 00       		.uleb128 .LVU757
 16589 03d6 00       		.uleb128 .LVU757
 16590 03d7 00       		.uleb128 .LVU816
 16591 03d8 00       		.uleb128 .LVU816
 16592 03d9 00       		.uleb128 .LVU818
 16593 03da 00       		.uleb128 .LVU818
 16594 03db 00       		.uleb128 0
 16595              	.LLST76:
 16596 03dc 20040000 		.4byte	.LVL113-.Ltext0
 16597 03e0 30040000 		.4byte	.LVL115-.Ltext0
 16598 03e4 0100     		.2byte	0x1
 16599 03e6 51       		.byte	0x51
 16600 03e7 30040000 		.4byte	.LVL115-.Ltext0
 16601 03eb 70040000 		.4byte	.LVL123-.Ltext0
 16602 03ef 0400     		.2byte	0x4
 16603 03f1 F3       		.byte	0xf3
 16604 03f2 01       		.uleb128 0x1
 16605 03f3 51       		.byte	0x51
 16606 03f4 9F       		.byte	0x9f
 16607 03f5 70040000 		.4byte	.LVL123-.Ltext0
 16608 03f9 72040000 		.4byte	.LVL124-.Ltext0
 16609 03fd 0100     		.2byte	0x1
 16610 03ff 51       		.byte	0x51
 16611 0400 72040000 		.4byte	.LVL124-.Ltext0
 16612 0404 82040000 		.4byte	.LFE380-.Ltext0
 16613 0408 0400     		.2byte	0x4
 16614 040a F3       		.byte	0xf3
 16615 040b 01       		.uleb128 0x1
 16616 040c 51       		.byte	0x51
 16617 040d 9F       		.byte	0x9f
 16618 040e 00000000 		.4byte	0
ARM GAS  /tmp/ccDQUTww.s 			page 293


 16619 0412 00000000 		.4byte	0
 16620              	.LVUS77:
 16621 0416 00       		.uleb128 0
 16622 0417 00       		.uleb128 .LVU757
 16623 0418 00       		.uleb128 .LVU757
 16624 0419 00       		.uleb128 .LVU816
 16625 041a 00       		.uleb128 .LVU816
 16626 041b 00       		.uleb128 .LVU819
 16627 041c 00       		.uleb128 .LVU819
 16628 041d 00       		.uleb128 0
 16629              	.LLST77:
 16630 041e 20040000 		.4byte	.LVL113-.Ltext0
 16631 0422 30040000 		.4byte	.LVL115-.Ltext0
 16632 0426 0100     		.2byte	0x1
 16633 0428 52       		.byte	0x52
 16634 0429 30040000 		.4byte	.LVL115-.Ltext0
 16635 042d 70040000 		.4byte	.LVL123-.Ltext0
 16636 0431 0400     		.2byte	0x4
 16637 0433 F3       		.byte	0xf3
 16638 0434 01       		.uleb128 0x1
 16639 0435 52       		.byte	0x52
 16640 0436 9F       		.byte	0x9f
 16641 0437 70040000 		.4byte	.LVL123-.Ltext0
 16642 043b 75040000 		.4byte	.LVL125-1-.Ltext0
 16643 043f 0100     		.2byte	0x1
 16644 0441 52       		.byte	0x52
 16645 0442 75040000 		.4byte	.LVL125-1-.Ltext0
 16646 0446 82040000 		.4byte	.LFE380-.Ltext0
 16647 044a 0400     		.2byte	0x4
 16648 044c F3       		.byte	0xf3
 16649 044d 01       		.uleb128 0x1
 16650 044e 52       		.byte	0x52
 16651 044f 9F       		.byte	0x9f
 16652 0450 00000000 		.4byte	0
 16653 0454 00000000 		.4byte	0
 16654              	.LVUS78:
 16655 0458 00       		.uleb128 .LVU819
 16656 0459 00       		.uleb128 0
 16657              	.LLST78:
 16658 045a 76040000 		.4byte	.LVL125-.Ltext0
 16659 045e 82040000 		.4byte	.LFE380-.Ltext0
 16660 0462 0100     		.2byte	0x1
 16661 0464 50       		.byte	0x50
 16662 0465 00000000 		.4byte	0
 16663 0469 00000000 		.4byte	0
 16664              	.LVUS79:
 16665 046d 09       		.uleb128 .LVU745
 16666 046e 00       		.uleb128 .LVU751
 16667              	.LLST79:
 16668 046f 20040000 		.4byte	.LVL113-.Ltext0
 16669 0473 2C040000 		.4byte	.LVL114-.Ltext0
 16670 0477 0300     		.2byte	0x3
 16671 0479 08       		.byte	0x8
 16672 047a 20       		.byte	0x20
 16673 047b 9F       		.byte	0x9f
 16674 047c 00000000 		.4byte	0
 16675 0480 00000000 		.4byte	0
ARM GAS  /tmp/ccDQUTww.s 			page 294


 16676              	.LVUS80:
 16677 0484 01       		.uleb128 .LVU767
 16678 0485 00       		.uleb128 .LVU777
 16679 0486 00       		.uleb128 .LVU777
 16680 0487 00       		.uleb128 .LVU782
 16681 0488 00       		.uleb128 .LVU782
 16682 0489 00       		.uleb128 .LVU783
 16683 048a 00       		.uleb128 .LVU783
 16684 048b 00       		.uleb128 .LVU786
 16685              	.LLST80:
 16686 048c 3E040000 		.4byte	.LVL116-.Ltext0
 16687 0490 44040000 		.4byte	.LVL117-.Ltext0
 16688 0494 0600     		.2byte	0x6
 16689 0496 74       		.byte	0x74
 16690 0497 1C       		.sleb128 28
 16691 0498 06       		.byte	0x6
 16692 0499 34       		.byte	0x34
 16693 049a 1C       		.byte	0x1c
 16694 049b 9F       		.byte	0x9f
 16695 049c 44040000 		.4byte	.LVL117-.Ltext0
 16696 04a0 4C040000 		.4byte	.LVL118-.Ltext0
 16697 04a4 0100     		.2byte	0x1
 16698 04a6 52       		.byte	0x52
 16699 04a7 4C040000 		.4byte	.LVL118-.Ltext0
 16700 04ab 4E040000 		.4byte	.LVL119-.Ltext0
 16701 04af 0200     		.2byte	0x2
 16702 04b1 73       		.byte	0x73
 16703 04b2 00       		.sleb128 0
 16704 04b3 4E040000 		.4byte	.LVL119-.Ltext0
 16705 04b7 54040000 		.4byte	.LVL120-.Ltext0
 16706 04bb 0300     		.2byte	0x3
 16707 04bd 74       		.byte	0x74
 16708 04be 10       		.sleb128 16
 16709 04bf 06       		.byte	0x6
 16710 04c0 00000000 		.4byte	0
 16711 04c4 00000000 		.4byte	0
 16712              	.LVUS81:
 16713 04c8 01       		.uleb128 .LVU767
 16714 04c9 00       		.uleb128 .LVU799
 16715              	.LLST81:
 16716 04ca 3E040000 		.4byte	.LVL116-.Ltext0
 16717 04ce 68040000 		.4byte	.LVL121-.Ltext0
 16718 04d2 0100     		.2byte	0x1
 16719 04d4 54       		.byte	0x54
 16720 04d5 00000000 		.4byte	0
 16721 04d9 00000000 		.4byte	0
 16722              	.LVUS82:
 16723 04dd 0C       		.uleb128 .LVU811
 16724 04de 00       		.uleb128 .LVU813
 16725              	.LLST82:
 16726 04df 68040000 		.4byte	.LVL121-.Ltext0
 16727 04e3 6E040000 		.4byte	.LVL122-.Ltext0
 16728 04e7 0200     		.2byte	0x2
 16729 04e9 30       		.byte	0x30
 16730 04ea 9F       		.byte	0x9f
 16731 04eb 00000000 		.4byte	0
 16732 04ef 00000000 		.4byte	0
ARM GAS  /tmp/ccDQUTww.s 			page 295


 16733              	.LVUS83:
 16734 04f3 0B       		.uleb128 .LVU832
 16735 04f4 00       		.uleb128 .LVU834
 16736              	.LLST83:
 16737 04f5 7C040000 		.4byte	.LVL126-.Ltext0
 16738 04f9 80040000 		.4byte	.LVL127-.Ltext0
 16739 04fd 0200     		.2byte	0x2
 16740 04ff 30       		.byte	0x30
 16741 0500 9F       		.byte	0x9f
 16742 0501 00000000 		.4byte	0
 16743 0505 00000000 		.4byte	0
 16744              	.LVUS67:
 16745 0509 00       		.uleb128 0
 16746 050a 00       		.uleb128 .LVU686
 16747 050b 00       		.uleb128 .LVU686
 16748 050c 00       		.uleb128 0
 16749              	.LLST67:
 16750 050d B0030000 		.4byte	.LVL101-.Ltext0
 16751 0511 DB030000 		.4byte	.LVL106-1-.Ltext0
 16752 0515 0100     		.2byte	0x1
 16753 0517 50       		.byte	0x50
 16754 0518 DB030000 		.4byte	.LVL106-1-.Ltext0
 16755 051c E4030000 		.4byte	.LFE378-.Ltext0
 16756 0520 0400     		.2byte	0x4
 16757 0522 F3       		.byte	0xf3
 16758 0523 01       		.uleb128 0x1
 16759 0524 50       		.byte	0x50
 16760 0525 9F       		.byte	0x9f
 16761 0526 00000000 		.4byte	0
 16762 052a 00000000 		.4byte	0
 16763              	.LVUS68:
 16764 052e 00       		.uleb128 0
 16765 052f 00       		.uleb128 .LVU668
 16766 0530 00       		.uleb128 .LVU668
 16767 0531 00       		.uleb128 .LVU670
 16768 0532 00       		.uleb128 .LVU670
 16769 0533 00       		.uleb128 .LVU673
 16770 0534 00       		.uleb128 .LVU673
 16771 0535 00       		.uleb128 0
 16772              	.LLST68:
 16773 0536 B0030000 		.4byte	.LVL101-.Ltext0
 16774 053a C0030000 		.4byte	.LVL103-.Ltext0
 16775 053e 0100     		.2byte	0x1
 16776 0540 51       		.byte	0x51
 16777 0541 C0030000 		.4byte	.LVL103-.Ltext0
 16778 0545 C4030000 		.4byte	.LVL104-.Ltext0
 16779 0549 0200     		.2byte	0x2
 16780 054b 73       		.byte	0x73
 16781 054c 00       		.sleb128 0
 16782 054d C4030000 		.4byte	.LVL104-.Ltext0
 16783 0551 CA030000 		.4byte	.LVL105-.Ltext0
 16784 0555 0300     		.2byte	0x3
 16785 0557 70       		.byte	0x70
 16786 0558 10       		.sleb128 16
 16787 0559 06       		.byte	0x6
 16788 055a CA030000 		.4byte	.LVL105-.Ltext0
 16789 055e E4030000 		.4byte	.LFE378-.Ltext0
ARM GAS  /tmp/ccDQUTww.s 			page 296


 16790 0562 0400     		.2byte	0x4
 16791 0564 F3       		.byte	0xf3
 16792 0565 01       		.uleb128 0x1
 16793 0566 51       		.byte	0x51
 16794 0567 9F       		.byte	0x9f
 16795 0568 00000000 		.4byte	0
 16796 056c 00000000 		.4byte	0
 16797              	.LVUS69:
 16798 0570 08       		.uleb128 .LVU648
 16799 0571 00       		.uleb128 .LVU652
 16800              	.LLST69:
 16801 0572 B0030000 		.4byte	.LVL101-.Ltext0
 16802 0576 B8030000 		.4byte	.LVL102-.Ltext0
 16803 057a 0300     		.2byte	0x3
 16804 057c 08       		.byte	0x8
 16805 057d 20       		.byte	0x20
 16806 057e 9F       		.byte	0x9f
 16807 057f 00000000 		.4byte	0
 16808 0583 00000000 		.4byte	0
 16809              	.LVUS70:
 16810 0587 04       		.uleb128 .LVU656
 16811 0588 00       		.uleb128 .LVU668
 16812 0589 00       		.uleb128 .LVU668
 16813 058a 00       		.uleb128 .LVU670
 16814 058b 00       		.uleb128 .LVU670
 16815 058c 00       		.uleb128 .LVU673
 16816 058d 00       		.uleb128 .LVU673
 16817 058e 00       		.uleb128 .LVU686
 16818              	.LLST70:
 16819 058f B8030000 		.4byte	.LVL102-.Ltext0
 16820 0593 C0030000 		.4byte	.LVL103-.Ltext0
 16821 0597 0100     		.2byte	0x1
 16822 0599 51       		.byte	0x51
 16823 059a C0030000 		.4byte	.LVL103-.Ltext0
 16824 059e C4030000 		.4byte	.LVL104-.Ltext0
 16825 05a2 0200     		.2byte	0x2
 16826 05a4 73       		.byte	0x73
 16827 05a5 00       		.sleb128 0
 16828 05a6 C4030000 		.4byte	.LVL104-.Ltext0
 16829 05aa CA030000 		.4byte	.LVL105-.Ltext0
 16830 05ae 0300     		.2byte	0x3
 16831 05b0 70       		.byte	0x70
 16832 05b1 10       		.sleb128 16
 16833 05b2 06       		.byte	0x6
 16834 05b3 CA030000 		.4byte	.LVL105-.Ltext0
 16835 05b7 DC030000 		.4byte	.LVL106-.Ltext0
 16836 05bb 0400     		.2byte	0x4
 16837 05bd F3       		.byte	0xf3
 16838 05be 01       		.uleb128 0x1
 16839 05bf 51       		.byte	0x51
 16840 05c0 9F       		.byte	0x9f
 16841 05c1 00000000 		.4byte	0
 16842 05c5 00000000 		.4byte	0
 16843              	.LVUS71:
 16844 05c9 04       		.uleb128 .LVU656
 16845 05ca 00       		.uleb128 .LVU686
 16846 05cb 00       		.uleb128 .LVU686
ARM GAS  /tmp/ccDQUTww.s 			page 297


 16847 05cc 00       		.uleb128 .LVU686
 16848              	.LLST71:
 16849 05cd B8030000 		.4byte	.LVL102-.Ltext0
 16850 05d1 DB030000 		.4byte	.LVL106-1-.Ltext0
 16851 05d5 0100     		.2byte	0x1
 16852 05d7 50       		.byte	0x50
 16853 05d8 DB030000 		.4byte	.LVL106-1-.Ltext0
 16854 05dc DC030000 		.4byte	.LVL106-.Ltext0
 16855 05e0 0400     		.2byte	0x4
 16856 05e2 F3       		.byte	0xf3
 16857 05e3 01       		.uleb128 0x1
 16858 05e4 50       		.byte	0x50
 16859 05e5 9F       		.byte	0x9f
 16860 05e6 00000000 		.4byte	0
 16861 05ea 00000000 		.4byte	0
 16862              	.LVUS72:
 16863 05ee 0C       		.uleb128 .LVU698
 16864 05ef 00       		.uleb128 .LVU700
 16865              	.LLST72:
 16866 05f0 DC030000 		.4byte	.LVL106-.Ltext0
 16867 05f4 E2030000 		.4byte	.LVL107-.Ltext0
 16868 05f8 0200     		.2byte	0x2
 16869 05fa 30       		.byte	0x30
 16870 05fb 9F       		.byte	0x9f
 16871 05fc 00000000 		.4byte	0
 16872 0600 00000000 		.4byte	0
 16873              	.LVUS62:
 16874 0604 00       		.uleb128 0
 16875 0605 00       		.uleb128 .LVU624
 16876 0606 00       		.uleb128 .LVU624
 16877 0607 00       		.uleb128 0
 16878              	.LLST62:
 16879 0608 90030000 		.4byte	.LVL97-.Ltext0
 16880 060c 9B030000 		.4byte	.LVL99-1-.Ltext0
 16881 0610 0100     		.2byte	0x1
 16882 0612 50       		.byte	0x50
 16883 0613 9B030000 		.4byte	.LVL99-1-.Ltext0
 16884 0617 A4030000 		.4byte	.LFE376-.Ltext0
 16885 061b 0400     		.2byte	0x4
 16886 061d F3       		.byte	0xf3
 16887 061e 01       		.uleb128 0x1
 16888 061f 50       		.byte	0x50
 16889 0620 9F       		.byte	0x9f
 16890 0621 00000000 		.4byte	0
 16891 0625 00000000 		.4byte	0
 16892              	.LVUS63:
 16893 0629 00       		.uleb128 0
 16894 062a 00       		.uleb128 .LVU624
 16895 062b 00       		.uleb128 .LVU624
 16896 062c 00       		.uleb128 0
 16897              	.LLST63:
 16898 062d 90030000 		.4byte	.LVL97-.Ltext0
 16899 0631 9B030000 		.4byte	.LVL99-1-.Ltext0
 16900 0635 0100     		.2byte	0x1
 16901 0637 51       		.byte	0x51
 16902 0638 9B030000 		.4byte	.LVL99-1-.Ltext0
 16903 063c A4030000 		.4byte	.LFE376-.Ltext0
ARM GAS  /tmp/ccDQUTww.s 			page 298


 16904 0640 0400     		.2byte	0x4
 16905 0642 F3       		.byte	0xf3
 16906 0643 01       		.uleb128 0x1
 16907 0644 51       		.byte	0x51
 16908 0645 9F       		.byte	0x9f
 16909 0646 00000000 		.4byte	0
 16910 064a 00000000 		.4byte	0
 16911              	.LVUS64:
 16912 064e 00       		.uleb128 .LVU624
 16913 064f 00       		.uleb128 0
 16914              	.LLST64:
 16915 0650 9C030000 		.4byte	.LVL99-.Ltext0
 16916 0654 A4030000 		.4byte	.LFE376-.Ltext0
 16917 0658 0100     		.2byte	0x1
 16918 065a 50       		.byte	0x50
 16919 065b 00000000 		.4byte	0
 16920 065f 00000000 		.4byte	0
 16921              	.LVUS65:
 16922 0663 09       		.uleb128 .LVU615
 16923 0664 00       		.uleb128 .LVU619
 16924              	.LLST65:
 16925 0665 90030000 		.4byte	.LVL97-.Ltext0
 16926 0669 98030000 		.4byte	.LVL98-.Ltext0
 16927 066d 0300     		.2byte	0x3
 16928 066f 08       		.byte	0x8
 16929 0670 20       		.byte	0x20
 16930 0671 9F       		.byte	0x9f
 16931 0672 00000000 		.4byte	0
 16932 0676 00000000 		.4byte	0
 16933              	.LVUS66:
 16934 067a 0B       		.uleb128 .LVU635
 16935 067b 00       		.uleb128 .LVU637
 16936              	.LLST66:
 16937 067c 9C030000 		.4byte	.LVL99-.Ltext0
 16938 0680 A2030000 		.4byte	.LVL100-.Ltext0
 16939 0684 0200     		.2byte	0x2
 16940 0686 30       		.byte	0x30
 16941 0687 9F       		.byte	0x9f
 16942 0688 00000000 		.4byte	0
 16943 068c 00000000 		.4byte	0
 16944              	.LVUS53:
 16945 0690 00       		.uleb128 0
 16946 0691 00       		.uleb128 .LVU568
 16947 0692 00       		.uleb128 .LVU568
 16948 0693 00       		.uleb128 0
 16949              	.LLST53:
 16950 0694 20030000 		.4byte	.LVL84-.Ltext0
 16951 0698 43030000 		.4byte	.LVL86-1-.Ltext0
 16952 069c 0100     		.2byte	0x1
 16953 069e 50       		.byte	0x50
 16954 069f 43030000 		.4byte	.LVL86-1-.Ltext0
 16955 06a3 44030000 		.4byte	.LFE375-.Ltext0
 16956 06a7 0400     		.2byte	0x4
 16957 06a9 F3       		.byte	0xf3
 16958 06aa 01       		.uleb128 0x1
 16959 06ab 50       		.byte	0x50
 16960 06ac 9F       		.byte	0x9f
ARM GAS  /tmp/ccDQUTww.s 			page 299


 16961 06ad 00000000 		.4byte	0
 16962 06b1 00000000 		.4byte	0
 16963              	.LVUS54:
 16964 06b5 01       		.uleb128 .LVU564
 16965 06b6 00       		.uleb128 .LVU568
 16966 06b7 00       		.uleb128 .LVU568
 16967 06b8 00       		.uleb128 0
 16968              	.LLST54:
 16969 06b9 3A030000 		.4byte	.LVL85-.Ltext0
 16970 06bd 43030000 		.4byte	.LVL86-1-.Ltext0
 16971 06c1 0100     		.2byte	0x1
 16972 06c3 50       		.byte	0x50
 16973 06c4 43030000 		.4byte	.LVL86-1-.Ltext0
 16974 06c8 44030000 		.4byte	.LFE375-.Ltext0
 16975 06cc 0400     		.2byte	0x4
 16976 06ce F3       		.byte	0xf3
 16977 06cf 01       		.uleb128 0x1
 16978 06d0 50       		.byte	0x50
 16979 06d1 9F       		.byte	0x9f
 16980 06d2 00000000 		.4byte	0
 16981 06d6 00000000 		.4byte	0
 16982              	.LVUS52:
 16983 06da 00       		.uleb128 0
 16984 06db 00       		.uleb128 .LVU536
 16985 06dc 00       		.uleb128 .LVU536
 16986 06dd 00       		.uleb128 .LVU540
 16987 06de 00       		.uleb128 .LVU540
 16988 06df 00       		.uleb128 .LVU542
 16989 06e0 00       		.uleb128 .LVU542
 16990 06e1 00       		.uleb128 0
 16991              	.LLST52:
 16992 06e2 00030000 		.4byte	.LVL80-.Ltext0
 16993 06e6 0A030000 		.4byte	.LVL81-.Ltext0
 16994 06ea 0100     		.2byte	0x1
 16995 06ec 50       		.byte	0x50
 16996 06ed 0A030000 		.4byte	.LVL81-.Ltext0
 16997 06f1 12030000 		.4byte	.LVL82-.Ltext0
 16998 06f5 0400     		.2byte	0x4
 16999 06f7 F3       		.byte	0xf3
 17000 06f8 01       		.uleb128 0x1
 17001 06f9 50       		.byte	0x50
 17002 06fa 9F       		.byte	0x9f
 17003 06fb 12030000 		.4byte	.LVL82-.Ltext0
 17004 06ff 1A030000 		.4byte	.LVL83-.Ltext0
 17005 0703 0100     		.2byte	0x1
 17006 0705 50       		.byte	0x50
 17007 0706 1A030000 		.4byte	.LVL83-.Ltext0
 17008 070a 1C030000 		.4byte	.LFE374-.Ltext0
 17009 070e 0400     		.2byte	0x4
 17010 0710 F3       		.byte	0xf3
 17011 0711 01       		.uleb128 0x1
 17012 0712 50       		.byte	0x50
 17013 0713 9F       		.byte	0x9f
 17014 0714 00000000 		.4byte	0
 17015 0718 00000000 		.4byte	0
 17016              	.LVUS51:
 17017 071c 00       		.uleb128 0
ARM GAS  /tmp/ccDQUTww.s 			page 300


 17018 071d 00       		.uleb128 .LVU529
 17019 071e 00       		.uleb128 .LVU529
 17020 071f 00       		.uleb128 0
 17021              	.LLST51:
 17022 0720 E0020000 		.4byte	.LVL77-.Ltext0
 17023 0724 FB020000 		.4byte	.LVL79-1-.Ltext0
 17024 0728 0100     		.2byte	0x1
 17025 072a 50       		.byte	0x50
 17026 072b FB020000 		.4byte	.LVL79-1-.Ltext0
 17027 072f FC020000 		.4byte	.LFE373-.Ltext0
 17028 0733 0400     		.2byte	0x4
 17029 0735 F3       		.byte	0xf3
 17030 0736 01       		.uleb128 0x1
 17031 0737 50       		.byte	0x50
 17032 0738 9F       		.byte	0x9f
 17033 0739 00000000 		.4byte	0
 17034 073d 00000000 		.4byte	0
 17035              	.LVUS46:
 17036 0741 00       		.uleb128 0
 17037 0742 00       		.uleb128 .LVU489
 17038 0743 00       		.uleb128 .LVU489
 17039 0744 00       		.uleb128 0
 17040              	.LLST46:
 17041 0745 B0020000 		.4byte	.LVL72-.Ltext0
 17042 0749 BC020000 		.4byte	.LVL74-.Ltext0
 17043 074d 0100     		.2byte	0x1
 17044 074f 51       		.byte	0x51
 17045 0750 BC020000 		.4byte	.LVL74-.Ltext0
 17046 0754 E0020000 		.4byte	.LFE372-.Ltext0
 17047 0758 0200     		.2byte	0x2
 17048 075a 70       		.byte	0x70
 17049 075b 08       		.sleb128 8
 17050 075c 00000000 		.4byte	0
 17051 0760 00000000 		.4byte	0
 17052              	.LVUS47:
 17053 0764 00       		.uleb128 0
 17054 0765 00       		.uleb128 .LVU485
 17055 0766 00       		.uleb128 .LVU485
 17056 0767 00       		.uleb128 .LVU493
 17057 0768 00       		.uleb128 .LVU493
 17058 0769 00       		.uleb128 0
 17059              	.LLST47:
 17060 076a B0020000 		.4byte	.LVL72-.Ltext0
 17061 076e B4020000 		.4byte	.LVL73-.Ltext0
 17062 0772 0100     		.2byte	0x1
 17063 0774 53       		.byte	0x53
 17064 0775 B4020000 		.4byte	.LVL73-.Ltext0
 17065 0779 CA020000 		.4byte	.LVL75-.Ltext0
 17066 077d 0300     		.2byte	0x3
 17067 077f 73       		.byte	0x73
 17068 0780 7C       		.sleb128 -4
 17069 0781 9F       		.byte	0x9f
 17070 0782 CA020000 		.4byte	.LVL75-.Ltext0
 17071 0786 E0020000 		.4byte	.LFE372-.Ltext0
 17072 078a 0600     		.2byte	0x6
 17073 078c 70       		.byte	0x70
 17074 078d 1C       		.sleb128 28
ARM GAS  /tmp/ccDQUTww.s 			page 301


 17075 078e 06       		.byte	0x6
 17076 078f 34       		.byte	0x34
 17077 0790 1C       		.byte	0x1c
 17078 0791 9F       		.byte	0x9f
 17079 0792 00000000 		.4byte	0
 17080 0796 00000000 		.4byte	0
 17081              	.LVUS48:
 17082 079a 00       		.uleb128 0
 17083 079b 00       		.uleb128 .LVU511
 17084 079c 00       		.uleb128 .LVU511
 17085 079d 00       		.uleb128 0
 17086              	.LLST48:
 17087 079e B0020000 		.4byte	.LVL72-.Ltext0
 17088 07a2 DE020000 		.4byte	.LVL76-.Ltext0
 17089 07a6 0200     		.2byte	0x2
 17090 07a8 91       		.byte	0x91
 17091 07a9 00       		.sleb128 0
 17092 07aa DE020000 		.4byte	.LVL76-.Ltext0
 17093 07ae E0020000 		.4byte	.LFE372-.Ltext0
 17094 07b2 0200     		.2byte	0x2
 17095 07b4 7D       		.byte	0x7d
 17096 07b5 00       		.sleb128 0
 17097 07b6 00000000 		.4byte	0
 17098 07ba 00000000 		.4byte	0
 17099              	.LVUS49:
 17100 07be 00       		.uleb128 0
 17101 07bf 00       		.uleb128 .LVU511
 17102 07c0 00       		.uleb128 .LVU511
 17103 07c1 00       		.uleb128 0
 17104              	.LLST49:
 17105 07c2 B0020000 		.4byte	.LVL72-.Ltext0
 17106 07c6 DE020000 		.4byte	.LVL76-.Ltext0
 17107 07ca 0200     		.2byte	0x2
 17108 07cc 91       		.byte	0x91
 17109 07cd 04       		.sleb128 4
 17110 07ce DE020000 		.4byte	.LVL76-.Ltext0
 17111 07d2 E0020000 		.4byte	.LFE372-.Ltext0
 17112 07d6 0200     		.2byte	0x2
 17113 07d8 7D       		.byte	0x7d
 17114 07d9 04       		.sleb128 4
 17115 07da 00000000 		.4byte	0
 17116 07de 00000000 		.4byte	0
 17117              	.LVUS50:
 17118 07e2 00       		.uleb128 0
 17119 07e3 00       		.uleb128 .LVU511
 17120 07e4 00       		.uleb128 .LVU511
 17121 07e5 00       		.uleb128 0
 17122              	.LLST50:
 17123 07e6 B0020000 		.4byte	.LVL72-.Ltext0
 17124 07ea DE020000 		.4byte	.LVL76-.Ltext0
 17125 07ee 0200     		.2byte	0x2
 17126 07f0 91       		.byte	0x91
 17127 07f1 08       		.sleb128 8
 17128 07f2 DE020000 		.4byte	.LVL76-.Ltext0
 17129 07f6 E0020000 		.4byte	.LFE372-.Ltext0
 17130 07fa 0200     		.2byte	0x2
 17131 07fc 7D       		.byte	0x7d
ARM GAS  /tmp/ccDQUTww.s 			page 302


 17132 07fd 08       		.sleb128 8
 17133 07fe 00000000 		.4byte	0
 17134 0802 00000000 		.4byte	0
 17135              	.LVUS34:
 17136 0806 00       		.uleb128 0
 17137 0807 00       		.uleb128 .LVU365
 17138 0808 00       		.uleb128 .LVU365
 17139 0809 00       		.uleb128 0
 17140              	.LLST34:
 17141 080a D0010000 		.4byte	.LVL48-.Ltext0
 17142 080e F2010000 		.4byte	.LVL51-.Ltext0
 17143 0812 0100     		.2byte	0x1
 17144 0814 50       		.byte	0x50
 17145 0815 F2010000 		.4byte	.LVL51-.Ltext0
 17146 0819 AE020000 		.4byte	.LFE371-.Ltext0
 17147 081d 0100     		.2byte	0x1
 17148 081f 55       		.byte	0x55
 17149 0820 00000000 		.4byte	0
 17150 0824 00000000 		.4byte	0
 17151              	.LVUS35:
 17152 0828 00       		.uleb128 0
 17153 0829 00       		.uleb128 .LVU365
 17154 082a 00       		.uleb128 .LVU365
 17155 082b 00       		.uleb128 0
 17156              	.LLST35:
 17157 082c D0010000 		.4byte	.LVL48-.Ltext0
 17158 0830 F2010000 		.4byte	.LVL51-.Ltext0
 17159 0834 0100     		.2byte	0x1
 17160 0836 51       		.byte	0x51
 17161 0837 F2010000 		.4byte	.LVL51-.Ltext0
 17162 083b AE020000 		.4byte	.LFE371-.Ltext0
 17163 083f 0100     		.2byte	0x1
 17164 0841 56       		.byte	0x56
 17165 0842 00000000 		.4byte	0
 17166 0846 00000000 		.4byte	0
 17167              	.LVUS36:
 17168 084a 00       		.uleb128 0
 17169 084b 00       		.uleb128 .LVU365
 17170 084c 00       		.uleb128 .LVU365
 17171 084d 00       		.uleb128 0
 17172              	.LLST36:
 17173 084e D0010000 		.4byte	.LVL48-.Ltext0
 17174 0852 F2010000 		.4byte	.LVL51-.Ltext0
 17175 0856 0100     		.2byte	0x1
 17176 0858 52       		.byte	0x52
 17177 0859 F2010000 		.4byte	.LVL51-.Ltext0
 17178 085d AE020000 		.4byte	.LFE371-.Ltext0
 17179 0861 0100     		.2byte	0x1
 17180 0863 57       		.byte	0x57
 17181 0864 00000000 		.4byte	0
 17182 0868 00000000 		.4byte	0
 17183              	.LVUS37:
 17184 086c 00       		.uleb128 0
 17185 086d 00       		.uleb128 .LVU365
 17186 086e 00       		.uleb128 .LVU365
 17187 086f 00       		.uleb128 0
 17188              	.LLST37:
ARM GAS  /tmp/ccDQUTww.s 			page 303


 17189 0870 D0010000 		.4byte	.LVL48-.Ltext0
 17190 0874 F2010000 		.4byte	.LVL51-.Ltext0
 17191 0878 0100     		.2byte	0x1
 17192 087a 53       		.byte	0x53
 17193 087b F2010000 		.4byte	.LVL51-.Ltext0
 17194 087f AE020000 		.4byte	.LFE371-.Ltext0
 17195 0883 0400     		.2byte	0x4
 17196 0885 F3       		.byte	0xf3
 17197 0886 01       		.uleb128 0x1
 17198 0887 53       		.byte	0x53
 17199 0888 9F       		.byte	0x9f
 17200 0889 00000000 		.4byte	0
 17201 088d 00000000 		.4byte	0
 17202              	.LVUS38:
 17203 0891 02       		.uleb128 .LVU341
 17204 0892 00       		.uleb128 .LVU359
 17205 0893 00       		.uleb128 .LVU359
 17206 0894 00       		.uleb128 .LVU382
 17207 0895 00       		.uleb128 .LVU382
 17208 0896 01       		.uleb128 .LVU384
 17209 0897 01       		.uleb128 .LVU384
 17210 0898 00       		.uleb128 .LVU453
 17211 0899 01       		.uleb128 .LVU460
 17212 089a 00       		.uleb128 0
 17213              	.LLST38:
 17214 089b D0010000 		.4byte	.LVL48-.Ltext0
 17215 089f EA010000 		.4byte	.LVL50-.Ltext0
 17216 08a3 0200     		.2byte	0x2
 17217 08a5 30       		.byte	0x30
 17218 08a6 9F       		.byte	0x9f
 17219 08a7 EA010000 		.4byte	.LVL50-.Ltext0
 17220 08ab 3E020000 		.4byte	.LVL56-.Ltext0
 17221 08af 0100     		.2byte	0x1
 17222 08b1 5B       		.byte	0x5b
 17223 08b2 3E020000 		.4byte	.LVL56-.Ltext0
 17224 08b6 42020000 		.4byte	.LVL57-.Ltext0
 17225 08ba 0300     		.2byte	0x3
 17226 08bc 7B       		.byte	0x7b
 17227 08bd 40       		.sleb128 -64
 17228 08be 9F       		.byte	0x9f
 17229 08bf 42020000 		.4byte	.LVL57-.Ltext0
 17230 08c3 92020000 		.4byte	.LVL66-.Ltext0
 17231 08c7 0100     		.2byte	0x1
 17232 08c9 5B       		.byte	0x5b
 17233 08ca A0020000 		.4byte	.LVL69-.Ltext0
 17234 08ce AE020000 		.4byte	.LFE371-.Ltext0
 17235 08d2 0100     		.2byte	0x1
 17236 08d4 5B       		.byte	0x5b
 17237 08d5 00000000 		.4byte	0
 17238 08d9 00000000 		.4byte	0
 17239              	.LVUS40:
 17240 08dd 00       		.uleb128 .LVU370
 17241 08de 00       		.uleb128 .LVU372
 17242 08df 00       		.uleb128 .LVU372
 17243 08e0 00       		.uleb128 .LVU375
 17244 08e1 00       		.uleb128 .LVU375
 17245 08e2 00       		.uleb128 .LVU445
ARM GAS  /tmp/ccDQUTww.s 			page 304


 17246 08e3 00       		.uleb128 .LVU450
 17247 08e4 00       		.uleb128 .LVU454
 17248 08e5 00       		.uleb128 .LVU454
 17249 08e6 00       		.uleb128 .LVU461
 17250              	.LLST40:
 17251 08e7 FC010000 		.4byte	.LVL52-.Ltext0
 17252 08eb 06020000 		.4byte	.LVL53-.Ltext0
 17253 08ef 0100     		.2byte	0x1
 17254 08f1 52       		.byte	0x52
 17255 08f2 06020000 		.4byte	.LVL53-.Ltext0
 17256 08f6 0A020000 		.4byte	.LVL54-.Ltext0
 17257 08fa 0100     		.2byte	0x1
 17258 08fc 53       		.byte	0x53
 17259 08fd 0A020000 		.4byte	.LVL54-.Ltext0
 17260 0901 7E020000 		.4byte	.LVL63-.Ltext0
 17261 0905 0100     		.2byte	0x1
 17262 0907 5A       		.byte	0x5a
 17263 0908 8C020000 		.4byte	.LVL65-.Ltext0
 17264 090c 95020000 		.4byte	.LVL67-1-.Ltext0
 17265 0910 0100     		.2byte	0x1
 17266 0912 53       		.byte	0x53
 17267 0913 95020000 		.4byte	.LVL67-1-.Ltext0
 17268 0917 A2020000 		.4byte	.LVL70-.Ltext0
 17269 091b 0100     		.2byte	0x1
 17270 091d 5A       		.byte	0x5a
 17271 091e 00000000 		.4byte	0
 17272 0922 00000000 		.4byte	0
 17273              	.LVUS44:
 17274 0926 00       		.uleb128 .LVU448
 17275 0927 00       		.uleb128 .LVU450
 17276 0928 00       		.uleb128 .LVU461
 17277 0929 02       		.uleb128 .LVU476
 17278              	.LLST44:
 17279 092a 86020000 		.4byte	.LVL64-.Ltext0
 17280 092e 8C020000 		.4byte	.LVL65-.Ltext0
 17281 0932 0100     		.2byte	0x1
 17282 0934 50       		.byte	0x50
 17283 0935 A2020000 		.4byte	.LVL70-.Ltext0
 17284 0939 A6020000 		.4byte	.LVL71-.Ltext0
 17285 093d 0100     		.2byte	0x1
 17286 093f 50       		.byte	0x50
 17287 0940 00000000 		.4byte	0
 17288 0944 00000000 		.4byte	0
 17289              	.LVUS45:
 17290 0948 0B       		.uleb128 .LVU472
 17291 0949 00       		.uleb128 .LVU474
 17292              	.LLST45:
 17293 094a A2020000 		.4byte	.LVL70-.Ltext0
 17294 094e A6020000 		.4byte	.LVL71-.Ltext0
 17295 0952 0200     		.2byte	0x2
 17296 0954 30       		.byte	0x30
 17297 0955 9F       		.byte	0x9f
 17298 0956 00000000 		.4byte	0
 17299 095a 00000000 		.4byte	0
 17300              	.LVUS41:
 17301 095e 01       		.uleb128 .LVU387
 17302 095f 00       		.uleb128 .LVU411
ARM GAS  /tmp/ccDQUTww.s 			page 305


 17303              	.LLST41:
 17304 0960 48020000 		.4byte	.LVL58-.Ltext0
 17305 0964 6C020000 		.4byte	.LVL59-.Ltext0
 17306 0968 0100     		.2byte	0x1
 17307 096a 55       		.byte	0x55
 17308 096b 00000000 		.4byte	0
 17309 096f 00000000 		.4byte	0
 17310              	.LVUS42:
 17311 0973 0C       		.uleb128 .LVU423
 17312 0974 00       		.uleb128 .LVU425
 17313              	.LLST42:
 17314 0975 6C020000 		.4byte	.LVL59-.Ltext0
 17315 0979 70020000 		.4byte	.LVL60-.Ltext0
 17316 097d 0200     		.2byte	0x2
 17317 097f 30       		.byte	0x30
 17318 0980 9F       		.byte	0x9f
 17319 0981 00000000 		.4byte	0
 17320 0985 00000000 		.4byte	0
 17321              	.LVUS43:
 17322 0989 07       		.uleb128 .LVU435
 17323 098a 00       		.uleb128 .LVU437
 17324              	.LLST43:
 17325 098b 74020000 		.4byte	.LVL61-.Ltext0
 17326 098f 78020000 		.4byte	.LVL62-.Ltext0
 17327 0993 0300     		.2byte	0x3
 17328 0995 08       		.byte	0x8
 17329 0996 20       		.byte	0x20
 17330 0997 9F       		.byte	0x9f
 17331 0998 00000000 		.4byte	0
 17332 099c 00000000 		.4byte	0
 17333              	.LVUS39:
 17334 09a0 0B       		.uleb128 .LVU350
 17335 09a1 00       		.uleb128 .LVU355
 17336              	.LLST39:
 17337 09a2 D0010000 		.4byte	.LVL48-.Ltext0
 17338 09a6 E6010000 		.4byte	.LVL49-.Ltext0
 17339 09aa 0300     		.2byte	0x3
 17340 09ac 08       		.byte	0x8
 17341 09ad 20       		.byte	0x20
 17342 09ae 9F       		.byte	0x9f
 17343 09af 00000000 		.4byte	0
 17344 09b3 00000000 		.4byte	0
 17345              	.LVUS27:
 17346 09b7 00       		.uleb128 0
 17347 09b8 00       		.uleb128 .LVU269
 17348 09b9 00       		.uleb128 .LVU269
 17349 09ba 00       		.uleb128 .LVU319
 17350 09bb 00       		.uleb128 .LVU319
 17351 09bc 00       		.uleb128 .LVU321
 17352 09bd 00       		.uleb128 .LVU321
 17353 09be 00       		.uleb128 0
 17354              	.LLST27:
 17355 09bf 70010000 		.4byte	.LVL37-.Ltext0
 17356 09c3 7E010000 		.4byte	.LVL39-.Ltext0
 17357 09c7 0100     		.2byte	0x1
 17358 09c9 50       		.byte	0x50
 17359 09ca 7E010000 		.4byte	.LVL39-.Ltext0
ARM GAS  /tmp/ccDQUTww.s 			page 306


 17360 09ce B8010000 		.4byte	.LVL44-.Ltext0
 17361 09d2 0100     		.2byte	0x1
 17362 09d4 54       		.byte	0x54
 17363 09d5 B8010000 		.4byte	.LVL44-.Ltext0
 17364 09d9 BB010000 		.4byte	.LVL45-1-.Ltext0
 17365 09dd 0100     		.2byte	0x1
 17366 09df 50       		.byte	0x50
 17367 09e0 BB010000 		.4byte	.LVL45-1-.Ltext0
 17368 09e4 CA010000 		.4byte	.LFE370-.Ltext0
 17369 09e8 0100     		.2byte	0x1
 17370 09ea 54       		.byte	0x54
 17371 09eb 00000000 		.4byte	0
 17372 09ef 00000000 		.4byte	0
 17373              	.LVUS28:
 17374 09f3 00       		.uleb128 0
 17375 09f4 00       		.uleb128 .LVU269
 17376 09f5 00       		.uleb128 .LVU269
 17377 09f6 00       		.uleb128 .LVU319
 17378 09f7 00       		.uleb128 .LVU319
 17379 09f8 00       		.uleb128 .LVU321
 17380 09f9 00       		.uleb128 .LVU321
 17381 09fa 00       		.uleb128 0
 17382              	.LLST28:
 17383 09fb 70010000 		.4byte	.LVL37-.Ltext0
 17384 09ff 7E010000 		.4byte	.LVL39-.Ltext0
 17385 0a03 0100     		.2byte	0x1
 17386 0a05 51       		.byte	0x51
 17387 0a06 7E010000 		.4byte	.LVL39-.Ltext0
 17388 0a0a B8010000 		.4byte	.LVL44-.Ltext0
 17389 0a0e 0400     		.2byte	0x4
 17390 0a10 F3       		.byte	0xf3
 17391 0a11 01       		.uleb128 0x1
 17392 0a12 51       		.byte	0x51
 17393 0a13 9F       		.byte	0x9f
 17394 0a14 B8010000 		.4byte	.LVL44-.Ltext0
 17395 0a18 BB010000 		.4byte	.LVL45-1-.Ltext0
 17396 0a1c 0100     		.2byte	0x1
 17397 0a1e 51       		.byte	0x51
 17398 0a1f BB010000 		.4byte	.LVL45-1-.Ltext0
 17399 0a23 CA010000 		.4byte	.LFE370-.Ltext0
 17400 0a27 0400     		.2byte	0x4
 17401 0a29 F3       		.byte	0xf3
 17402 0a2a 01       		.uleb128 0x1
 17403 0a2b 51       		.byte	0x51
 17404 0a2c 9F       		.byte	0x9f
 17405 0a2d 00000000 		.4byte	0
 17406 0a31 00000000 		.4byte	0
 17407              	.LVUS29:
 17408 0a35 00       		.uleb128 .LVU271
 17409 0a36 00       		.uleb128 .LVU319
 17410 0a37 00       		.uleb128 .LVU321
 17411 0a38 00       		.uleb128 0
 17412              	.LLST29:
 17413 0a39 82010000 		.4byte	.LVL40-.Ltext0
 17414 0a3d B8010000 		.4byte	.LVL44-.Ltext0
 17415 0a41 0100     		.2byte	0x1
 17416 0a43 56       		.byte	0x56
ARM GAS  /tmp/ccDQUTww.s 			page 307


 17417 0a44 BC010000 		.4byte	.LVL45-.Ltext0
 17418 0a48 CA010000 		.4byte	.LFE370-.Ltext0
 17419 0a4c 0100     		.2byte	0x1
 17420 0a4e 50       		.byte	0x50
 17421 0a4f 00000000 		.4byte	0
 17422 0a53 00000000 		.4byte	0
 17423              	.LVUS30:
 17424 0a57 09       		.uleb128 .LVU257
 17425 0a58 00       		.uleb128 .LVU263
 17426              	.LLST30:
 17427 0a59 70010000 		.4byte	.LVL37-.Ltext0
 17428 0a5d 7A010000 		.4byte	.LVL38-.Ltext0
 17429 0a61 0300     		.2byte	0x3
 17430 0a63 08       		.byte	0x8
 17431 0a64 20       		.byte	0x20
 17432 0a65 9F       		.byte	0x9f
 17433 0a66 00000000 		.4byte	0
 17434 0a6a 00000000 		.4byte	0
 17435              	.LVUS31:
 17436 0a6e 01       		.uleb128 .LVU277
 17437 0a6f 00       		.uleb128 .LVU302
 17438              	.LLST31:
 17439 0a70 8A010000 		.4byte	.LVL41-.Ltext0
 17440 0a74 AE010000 		.4byte	.LVL42-.Ltext0
 17441 0a78 0100     		.2byte	0x1
 17442 0a7a 54       		.byte	0x54
 17443 0a7b 00000000 		.4byte	0
 17444 0a7f 00000000 		.4byte	0
 17445              	.LVUS32:
 17446 0a83 0C       		.uleb128 .LVU314
 17447 0a84 00       		.uleb128 .LVU316
 17448              	.LLST32:
 17449 0a85 AE010000 		.4byte	.LVL42-.Ltext0
 17450 0a89 B4010000 		.4byte	.LVL43-.Ltext0
 17451 0a8d 0200     		.2byte	0x2
 17452 0a8f 30       		.byte	0x30
 17453 0a90 9F       		.byte	0x9f
 17454 0a91 00000000 		.4byte	0
 17455 0a95 00000000 		.4byte	0
 17456              	.LVUS33:
 17457 0a99 0B       		.uleb128 .LVU334
 17458 0a9a 00       		.uleb128 .LVU336
 17459              	.LLST33:
 17460 0a9b C4010000 		.4byte	.LVL46-.Ltext0
 17461 0a9f C8010000 		.4byte	.LVL47-.Ltext0
 17462 0aa3 0200     		.2byte	0x2
 17463 0aa5 30       		.byte	0x30
 17464 0aa6 9F       		.byte	0x9f
 17465 0aa7 00000000 		.4byte	0
 17466 0aab 00000000 		.4byte	0
 17467              	.LVUS22:
 17468 0aaf 00       		.uleb128 0
 17469 0ab0 00       		.uleb128 .LVU202
 17470 0ab1 00       		.uleb128 .LVU202
 17471 0ab2 00       		.uleb128 0
 17472              	.LLST22:
 17473 0ab3 00010000 		.4byte	.LVL31-.Ltext0
ARM GAS  /tmp/ccDQUTww.s 			page 308


 17474 0ab7 29010000 		.4byte	.LVL33-1-.Ltext0
 17475 0abb 0100     		.2byte	0x1
 17476 0abd 50       		.byte	0x50
 17477 0abe 29010000 		.4byte	.LVL33-1-.Ltext0
 17478 0ac2 32010000 		.4byte	.LFE368-.Ltext0
 17479 0ac6 0400     		.2byte	0x4
 17480 0ac8 F3       		.byte	0xf3
 17481 0ac9 01       		.uleb128 0x1
 17482 0aca 50       		.byte	0x50
 17483 0acb 9F       		.byte	0x9f
 17484 0acc 00000000 		.4byte	0
 17485 0ad0 00000000 		.4byte	0
 17486              	.LVUS23:
 17487 0ad4 08       		.uleb128 .LVU169
 17488 0ad5 00       		.uleb128 .LVU173
 17489              	.LLST23:
 17490 0ad6 00010000 		.4byte	.LVL31-.Ltext0
 17491 0ada 08010000 		.4byte	.LVL32-.Ltext0
 17492 0ade 0300     		.2byte	0x3
 17493 0ae0 08       		.byte	0x8
 17494 0ae1 20       		.byte	0x20
 17495 0ae2 9F       		.byte	0x9f
 17496 0ae3 00000000 		.4byte	0
 17497 0ae7 00000000 		.4byte	0
 17498              	.LVUS24:
 17499 0aeb 04       		.uleb128 .LVU177
 17500 0aec 00       		.uleb128 .LVU202
 17501 0aed 00       		.uleb128 .LVU202
 17502 0aee 00       		.uleb128 .LVU202
 17503              	.LLST24:
 17504 0aef 08010000 		.4byte	.LVL32-.Ltext0
 17505 0af3 29010000 		.4byte	.LVL33-1-.Ltext0
 17506 0af7 0100     		.2byte	0x1
 17507 0af9 50       		.byte	0x50
 17508 0afa 29010000 		.4byte	.LVL33-1-.Ltext0
 17509 0afe 2A010000 		.4byte	.LVL33-.Ltext0
 17510 0b02 0400     		.2byte	0x4
 17511 0b04 F3       		.byte	0xf3
 17512 0b05 01       		.uleb128 0x1
 17513 0b06 50       		.byte	0x50
 17514 0b07 9F       		.byte	0x9f
 17515 0b08 00000000 		.4byte	0
 17516 0b0c 00000000 		.4byte	0
 17517              	.LVUS25:
 17518 0b10 0C       		.uleb128 .LVU214
 17519 0b11 00       		.uleb128 .LVU216
 17520              	.LLST25:
 17521 0b12 2A010000 		.4byte	.LVL33-.Ltext0
 17522 0b16 30010000 		.4byte	.LVL34-.Ltext0
 17523 0b1a 0200     		.2byte	0x2
 17524 0b1c 30       		.byte	0x30
 17525 0b1d 9F       		.byte	0x9f
 17526 0b1e 00000000 		.4byte	0
 17527 0b22 00000000 		.4byte	0
 17528              	.LVUS17:
 17529 0b26 00       		.uleb128 0
 17530 0b27 00       		.uleb128 .LVU145
ARM GAS  /tmp/ccDQUTww.s 			page 309


 17531 0b28 00       		.uleb128 .LVU145
 17532 0b29 00       		.uleb128 0
 17533              	.LLST17:
 17534 0b2a E0000000 		.4byte	.LVL27-.Ltext0
 17535 0b2e EB000000 		.4byte	.LVL29-1-.Ltext0
 17536 0b32 0100     		.2byte	0x1
 17537 0b34 50       		.byte	0x50
 17538 0b35 EB000000 		.4byte	.LVL29-1-.Ltext0
 17539 0b39 F4000000 		.4byte	.LFE366-.Ltext0
 17540 0b3d 0400     		.2byte	0x4
 17541 0b3f F3       		.byte	0xf3
 17542 0b40 01       		.uleb128 0x1
 17543 0b41 50       		.byte	0x50
 17544 0b42 9F       		.byte	0x9f
 17545 0b43 00000000 		.4byte	0
 17546 0b47 00000000 		.4byte	0
 17547              	.LVUS18:
 17548 0b4b 00       		.uleb128 0
 17549 0b4c 00       		.uleb128 .LVU145
 17550 0b4d 00       		.uleb128 .LVU145
 17551 0b4e 00       		.uleb128 0
 17552              	.LLST18:
 17553 0b4f E0000000 		.4byte	.LVL27-.Ltext0
 17554 0b53 EB000000 		.4byte	.LVL29-1-.Ltext0
 17555 0b57 0100     		.2byte	0x1
 17556 0b59 51       		.byte	0x51
 17557 0b5a EB000000 		.4byte	.LVL29-1-.Ltext0
 17558 0b5e F4000000 		.4byte	.LFE366-.Ltext0
 17559 0b62 0400     		.2byte	0x4
 17560 0b64 F3       		.byte	0xf3
 17561 0b65 01       		.uleb128 0x1
 17562 0b66 51       		.byte	0x51
 17563 0b67 9F       		.byte	0x9f
 17564 0b68 00000000 		.4byte	0
 17565 0b6c 00000000 		.4byte	0
 17566              	.LVUS19:
 17567 0b70 00       		.uleb128 .LVU145
 17568 0b71 00       		.uleb128 0
 17569              	.LLST19:
 17570 0b72 EC000000 		.4byte	.LVL29-.Ltext0
 17571 0b76 F4000000 		.4byte	.LFE366-.Ltext0
 17572 0b7a 0100     		.2byte	0x1
 17573 0b7c 50       		.byte	0x50
 17574 0b7d 00000000 		.4byte	0
 17575 0b81 00000000 		.4byte	0
 17576              	.LVUS20:
 17577 0b85 09       		.uleb128 .LVU136
 17578 0b86 00       		.uleb128 .LVU140
 17579              	.LLST20:
 17580 0b87 E0000000 		.4byte	.LVL27-.Ltext0
 17581 0b8b E8000000 		.4byte	.LVL28-.Ltext0
 17582 0b8f 0300     		.2byte	0x3
 17583 0b91 08       		.byte	0x8
 17584 0b92 20       		.byte	0x20
 17585 0b93 9F       		.byte	0x9f
 17586 0b94 00000000 		.4byte	0
 17587 0b98 00000000 		.4byte	0
ARM GAS  /tmp/ccDQUTww.s 			page 310


 17588              	.LVUS21:
 17589 0b9c 0B       		.uleb128 .LVU156
 17590 0b9d 00       		.uleb128 .LVU158
 17591              	.LLST21:
 17592 0b9e EC000000 		.4byte	.LVL29-.Ltext0
 17593 0ba2 F2000000 		.4byte	.LVL30-.Ltext0
 17594 0ba6 0200     		.2byte	0x2
 17595 0ba8 30       		.byte	0x30
 17596 0ba9 9F       		.byte	0x9f
 17597 0baa 00000000 		.4byte	0
 17598 0bae 00000000 		.4byte	0
 17599              	.LVUS7:
 17600 0bb2 00       		.uleb128 0
 17601 0bb3 00       		.uleb128 .LVU90
 17602 0bb4 00       		.uleb128 .LVU90
 17603 0bb5 00       		.uleb128 0
 17604              	.LLST7:
 17605 0bb6 70000000 		.4byte	.LVL12-.Ltext0
 17606 0bba 95000000 		.4byte	.LVL17-1-.Ltext0
 17607 0bbe 0100     		.2byte	0x1
 17608 0bc0 50       		.byte	0x50
 17609 0bc1 95000000 		.4byte	.LVL17-1-.Ltext0
 17610 0bc5 96000000 		.4byte	.LFE365-.Ltext0
 17611 0bc9 0400     		.2byte	0x4
 17612 0bcb F3       		.byte	0xf3
 17613 0bcc 01       		.uleb128 0x1
 17614 0bcd 50       		.byte	0x50
 17615 0bce 9F       		.byte	0x9f
 17616 0bcf 00000000 		.4byte	0
 17617 0bd3 00000000 		.4byte	0
 17618              	.LVUS8:
 17619 0bd7 00       		.uleb128 0
 17620 0bd8 00       		.uleb128 .LVU74
 17621 0bd9 00       		.uleb128 .LVU74
 17622 0bda 00       		.uleb128 .LVU76
 17623 0bdb 00       		.uleb128 .LVU76
 17624 0bdc 00       		.uleb128 .LVU79
 17625 0bdd 00       		.uleb128 .LVU79
 17626 0bde 00       		.uleb128 0
 17627              	.LLST8:
 17628 0bdf 70000000 		.4byte	.LVL12-.Ltext0
 17629 0be3 7A000000 		.4byte	.LVL13-.Ltext0
 17630 0be7 0100     		.2byte	0x1
 17631 0be9 51       		.byte	0x51
 17632 0bea 7A000000 		.4byte	.LVL13-.Ltext0
 17633 0bee 7E000000 		.4byte	.LVL14-.Ltext0
 17634 0bf2 0200     		.2byte	0x2
 17635 0bf4 73       		.byte	0x73
 17636 0bf5 00       		.sleb128 0
 17637 0bf6 7E000000 		.4byte	.LVL14-.Ltext0
 17638 0bfa 84000000 		.4byte	.LVL15-.Ltext0
 17639 0bfe 0300     		.2byte	0x3
 17640 0c00 70       		.byte	0x70
 17641 0c01 10       		.sleb128 16
 17642 0c02 06       		.byte	0x6
 17643 0c03 84000000 		.4byte	.LVL15-.Ltext0
 17644 0c07 96000000 		.4byte	.LFE365-.Ltext0
ARM GAS  /tmp/ccDQUTww.s 			page 311


 17645 0c0b 0400     		.2byte	0x4
 17646 0c0d F3       		.byte	0xf3
 17647 0c0e 01       		.uleb128 0x1
 17648 0c0f 51       		.byte	0x51
 17649 0c10 9F       		.byte	0x9f
 17650 0c11 00000000 		.4byte	0
 17651 0c15 00000000 		.4byte	0
 17652              	.LVUS9:
 17653 0c19 01       		.uleb128 .LVU86
 17654 0c1a 00       		.uleb128 .LVU90
 17655 0c1b 00       		.uleb128 .LVU90
 17656 0c1c 00       		.uleb128 0
 17657              	.LLST9:
 17658 0c1d 8C000000 		.4byte	.LVL16-.Ltext0
 17659 0c21 95000000 		.4byte	.LVL17-1-.Ltext0
 17660 0c25 0100     		.2byte	0x1
 17661 0c27 50       		.byte	0x50
 17662 0c28 95000000 		.4byte	.LVL17-1-.Ltext0
 17663 0c2c 96000000 		.4byte	.LFE365-.Ltext0
 17664 0c30 0400     		.2byte	0x4
 17665 0c32 F3       		.byte	0xf3
 17666 0c33 01       		.uleb128 0x1
 17667 0c34 50       		.byte	0x50
 17668 0c35 9F       		.byte	0x9f
 17669 0c36 00000000 		.4byte	0
 17670 0c3a 00000000 		.4byte	0
 17671              	.LVUS6:
 17672 0c3e 00       		.uleb128 0
 17673 0c3f 00       		.uleb128 .LVU57
 17674 0c40 00       		.uleb128 .LVU57
 17675 0c41 00       		.uleb128 .LVU58
 17676 0c42 00       		.uleb128 .LVU58
 17677 0c43 00       		.uleb128 .LVU60
 17678 0c44 00       		.uleb128 .LVU60
 17679 0c45 00       		.uleb128 0
 17680              	.LLST6:
 17681 0c46 50000000 		.4byte	.LVL8-.Ltext0
 17682 0c4a 5A000000 		.4byte	.LVL9-.Ltext0
 17683 0c4e 0100     		.2byte	0x1
 17684 0c50 50       		.byte	0x50
 17685 0c51 5A000000 		.4byte	.LVL9-.Ltext0
 17686 0c55 5C000000 		.4byte	.LVL10-.Ltext0
 17687 0c59 0400     		.2byte	0x4
 17688 0c5b F3       		.byte	0xf3
 17689 0c5c 01       		.uleb128 0x1
 17690 0c5d 50       		.byte	0x50
 17691 0c5e 9F       		.byte	0x9f
 17692 0c5f 5C000000 		.4byte	.LVL10-.Ltext0
 17693 0c63 64000000 		.4byte	.LVL11-.Ltext0
 17694 0c67 0100     		.2byte	0x1
 17695 0c69 50       		.byte	0x50
 17696 0c6a 64000000 		.4byte	.LVL11-.Ltext0
 17697 0c6e 66000000 		.4byte	.LFE364-.Ltext0
 17698 0c72 0400     		.2byte	0x4
 17699 0c74 F3       		.byte	0xf3
 17700 0c75 01       		.uleb128 0x1
 17701 0c76 50       		.byte	0x50
ARM GAS  /tmp/ccDQUTww.s 			page 312


 17702 0c77 9F       		.byte	0x9f
 17703 0c78 00000000 		.4byte	0
 17704 0c7c 00000000 		.4byte	0
 17705              	.LVUS5:
 17706 0c80 00       		.uleb128 0
 17707 0c81 00       		.uleb128 .LVU50
 17708 0c82 00       		.uleb128 .LVU50
 17709 0c83 00       		.uleb128 0
 17710              	.LLST5:
 17711 0c84 30000000 		.4byte	.LVL5-.Ltext0
 17712 0c88 4B000000 		.4byte	.LVL7-1-.Ltext0
 17713 0c8c 0100     		.2byte	0x1
 17714 0c8e 50       		.byte	0x50
 17715 0c8f 4B000000 		.4byte	.LVL7-1-.Ltext0
 17716 0c93 4C000000 		.4byte	.LFE363-.Ltext0
 17717 0c97 0400     		.2byte	0x4
 17718 0c99 F3       		.byte	0xf3
 17719 0c9a 01       		.uleb128 0x1
 17720 0c9b 50       		.byte	0x50
 17721 0c9c 9F       		.byte	0x9f
 17722 0c9d 00000000 		.4byte	0
 17723 0ca1 00000000 		.4byte	0
 17724              	.LVUS0:
 17725 0ca5 00       		.uleb128 0
 17726 0ca6 00       		.uleb128 .LVU10
 17727 0ca7 00       		.uleb128 .LVU10
 17728 0ca8 00       		.uleb128 0
 17729              	.LLST0:
 17730 0ca9 00000000 		.4byte	.LVL0-.Ltext0
 17731 0cad 0C000000 		.4byte	.LVL2-.Ltext0
 17732 0cb1 0100     		.2byte	0x1
 17733 0cb3 51       		.byte	0x51
 17734 0cb4 0C000000 		.4byte	.LVL2-.Ltext0
 17735 0cb8 30000000 		.4byte	.LFE362-.Ltext0
 17736 0cbc 0200     		.2byte	0x2
 17737 0cbe 70       		.byte	0x70
 17738 0cbf 08       		.sleb128 8
 17739 0cc0 00000000 		.4byte	0
 17740 0cc4 00000000 		.4byte	0
 17741              	.LVUS1:
 17742 0cc8 00       		.uleb128 0
 17743 0cc9 00       		.uleb128 .LVU6
 17744 0cca 00       		.uleb128 .LVU6
 17745 0ccb 00       		.uleb128 .LVU15
 17746 0ccc 00       		.uleb128 .LVU15
 17747 0ccd 00       		.uleb128 0
 17748              	.LLST1:
 17749 0cce 00000000 		.4byte	.LVL0-.Ltext0
 17750 0cd2 04000000 		.4byte	.LVL1-.Ltext0
 17751 0cd6 0100     		.2byte	0x1
 17752 0cd8 53       		.byte	0x53
 17753 0cd9 04000000 		.4byte	.LVL1-.Ltext0
 17754 0cdd 1C000000 		.4byte	.LVL3-.Ltext0
 17755 0ce1 0300     		.2byte	0x3
 17756 0ce3 73       		.byte	0x73
 17757 0ce4 7C       		.sleb128 -4
 17758 0ce5 9F       		.byte	0x9f
ARM GAS  /tmp/ccDQUTww.s 			page 313


 17759 0ce6 1C000000 		.4byte	.LVL3-.Ltext0
 17760 0cea 30000000 		.4byte	.LFE362-.Ltext0
 17761 0cee 0600     		.2byte	0x6
 17762 0cf0 70       		.byte	0x70
 17763 0cf1 1C       		.sleb128 28
 17764 0cf2 06       		.byte	0x6
 17765 0cf3 34       		.byte	0x34
 17766 0cf4 1C       		.byte	0x1c
 17767 0cf5 9F       		.byte	0x9f
 17768 0cf6 00000000 		.4byte	0
 17769 0cfa 00000000 		.4byte	0
 17770              	.LVUS2:
 17771 0cfe 00       		.uleb128 0
 17772 0cff 00       		.uleb128 .LVU32
 17773 0d00 00       		.uleb128 .LVU32
 17774 0d01 00       		.uleb128 0
 17775              	.LLST2:
 17776 0d02 00000000 		.4byte	.LVL0-.Ltext0
 17777 0d06 2E000000 		.4byte	.LVL4-.Ltext0
 17778 0d0a 0200     		.2byte	0x2
 17779 0d0c 91       		.byte	0x91
 17780 0d0d 00       		.sleb128 0
 17781 0d0e 2E000000 		.4byte	.LVL4-.Ltext0
 17782 0d12 30000000 		.4byte	.LFE362-.Ltext0
 17783 0d16 0200     		.2byte	0x2
 17784 0d18 7D       		.byte	0x7d
 17785 0d19 00       		.sleb128 0
 17786 0d1a 00000000 		.4byte	0
 17787 0d1e 00000000 		.4byte	0
 17788              	.LVUS3:
 17789 0d22 00       		.uleb128 0
 17790 0d23 00       		.uleb128 .LVU32
 17791 0d24 00       		.uleb128 .LVU32
 17792 0d25 00       		.uleb128 0
 17793              	.LLST3:
 17794 0d26 00000000 		.4byte	.LVL0-.Ltext0
 17795 0d2a 2E000000 		.4byte	.LVL4-.Ltext0
 17796 0d2e 0200     		.2byte	0x2
 17797 0d30 91       		.byte	0x91
 17798 0d31 04       		.sleb128 4
 17799 0d32 2E000000 		.4byte	.LVL4-.Ltext0
 17800 0d36 30000000 		.4byte	.LFE362-.Ltext0
 17801 0d3a 0200     		.2byte	0x2
 17802 0d3c 7D       		.byte	0x7d
 17803 0d3d 04       		.sleb128 4
 17804 0d3e 00000000 		.4byte	0
 17805 0d42 00000000 		.4byte	0
 17806              	.LVUS4:
 17807 0d46 00       		.uleb128 0
 17808 0d47 00       		.uleb128 .LVU32
 17809 0d48 00       		.uleb128 .LVU32
 17810 0d49 00       		.uleb128 0
 17811              	.LLST4:
 17812 0d4a 00000000 		.4byte	.LVL0-.Ltext0
 17813 0d4e 2E000000 		.4byte	.LVL4-.Ltext0
 17814 0d52 0200     		.2byte	0x2
 17815 0d54 91       		.byte	0x91
ARM GAS  /tmp/ccDQUTww.s 			page 314


 17816 0d55 08       		.sleb128 8
 17817 0d56 2E000000 		.4byte	.LVL4-.Ltext0
 17818 0d5a 30000000 		.4byte	.LFE362-.Ltext0
 17819 0d5e 0200     		.2byte	0x2
 17820 0d60 7D       		.byte	0x7d
 17821 0d61 08       		.sleb128 8
 17822 0d62 00000000 		.4byte	0
 17823 0d66 00000000 		.4byte	0
 17824              	.LVUS10:
 17825 0d6a 00       		.uleb128 0
 17826 0d6b 00       		.uleb128 .LVU100
 17827 0d6c 00       		.uleb128 .LVU100
 17828 0d6d 00       		.uleb128 .LVU111
 17829 0d6e 00       		.uleb128 .LVU111
 17830 0d6f 00       		.uleb128 .LVU117
 17831 0d70 00       		.uleb128 .LVU117
 17832 0d71 00       		.uleb128 .LVU123
 17833 0d72 00       		.uleb128 .LVU123
 17834 0d73 00       		.uleb128 .LVU124
 17835 0d74 00       		.uleb128 .LVU124
 17836 0d75 00       		.uleb128 0
 17837              	.LLST10:
 17838 0d76 A0000000 		.4byte	.LVL18-.Ltext0
 17839 0d7a AF000000 		.4byte	.LVL20-1-.Ltext0
 17840 0d7e 0100     		.2byte	0x1
 17841 0d80 50       		.byte	0x50
 17842 0d81 AF000000 		.4byte	.LVL20-1-.Ltext0
 17843 0d85 BE000000 		.4byte	.LVL22-.Ltext0
 17844 0d89 0100     		.2byte	0x1
 17845 0d8b 54       		.byte	0x54
 17846 0d8c BE000000 		.4byte	.LVL22-.Ltext0
 17847 0d90 C2000000 		.4byte	.LVL23-.Ltext0
 17848 0d94 0100     		.2byte	0x1
 17849 0d96 50       		.byte	0x50
 17850 0d97 C2000000 		.4byte	.LVL23-.Ltext0
 17851 0d9b CE000000 		.4byte	.LVL25-.Ltext0
 17852 0d9f 0100     		.2byte	0x1
 17853 0da1 54       		.byte	0x54
 17854 0da2 CE000000 		.4byte	.LVL25-.Ltext0
 17855 0da6 D2000000 		.4byte	.LVL26-.Ltext0
 17856 0daa 0100     		.2byte	0x1
 17857 0dac 50       		.byte	0x50
 17858 0dad D2000000 		.4byte	.LVL26-.Ltext0
 17859 0db1 D4000000 		.4byte	.LFE367-.Ltext0
 17860 0db5 0100     		.2byte	0x1
 17861 0db7 54       		.byte	0x54
 17862 0db8 00000000 		.4byte	0
 17863 0dbc 00000000 		.4byte	0
 17864              	.LVUS11:
 17865 0dc0 00       		.uleb128 0
 17866 0dc1 00       		.uleb128 .LVU100
 17867 0dc2 00       		.uleb128 .LVU100
 17868 0dc3 00       		.uleb128 .LVU111
 17869 0dc4 00       		.uleb128 .LVU111
 17870 0dc5 01       		.uleb128 .LVU121
 17871 0dc6 01       		.uleb128 .LVU121
 17872 0dc7 00       		.uleb128 .LVU123
ARM GAS  /tmp/ccDQUTww.s 			page 315


 17873 0dc8 00       		.uleb128 .LVU123
 17874 0dc9 00       		.uleb128 0
 17875              	.LLST11:
 17876 0dca A0000000 		.4byte	.LVL18-.Ltext0
 17877 0dce AF000000 		.4byte	.LVL20-1-.Ltext0
 17878 0dd2 0100     		.2byte	0x1
 17879 0dd4 51       		.byte	0x51
 17880 0dd5 AF000000 		.4byte	.LVL20-1-.Ltext0
 17881 0dd9 BE000000 		.4byte	.LVL22-.Ltext0
 17882 0ddd 0100     		.2byte	0x1
 17883 0ddf 55       		.byte	0x55
 17884 0de0 BE000000 		.4byte	.LVL22-.Ltext0
 17885 0de4 CC000000 		.4byte	.LVL24-.Ltext0
 17886 0de8 0100     		.2byte	0x1
 17887 0dea 51       		.byte	0x51
 17888 0deb CC000000 		.4byte	.LVL24-.Ltext0
 17889 0def CE000000 		.4byte	.LVL25-.Ltext0
 17890 0df3 0100     		.2byte	0x1
 17891 0df5 55       		.byte	0x55
 17892 0df6 CE000000 		.4byte	.LVL25-.Ltext0
 17893 0dfa D4000000 		.4byte	.LFE367-.Ltext0
 17894 0dfe 0100     		.2byte	0x1
 17895 0e00 51       		.byte	0x51
 17896 0e01 00000000 		.4byte	0
 17897 0e05 00000000 		.4byte	0
 17898              	.LVUS12:
 17899 0e09 00       		.uleb128 .LVU100
 17900 0e0a 00       		.uleb128 .LVU104
 17901              	.LLST12:
 17902 0e0b B0000000 		.4byte	.LVL20-.Ltext0
 17903 0e0f B4000000 		.4byte	.LVL21-.Ltext0
 17904 0e13 0100     		.2byte	0x1
 17905 0e15 50       		.byte	0x50
 17906 0e16 00000000 		.4byte	0
 17907 0e1a 00000000 		.4byte	0
 17908              	.LVUS13:
 17909 0e1e 00       		.uleb128 .LVU98
 17910 0e1f 00       		.uleb128 .LVU100
 17911 0e20 00       		.uleb128 .LVU100
 17912 0e21 00       		.uleb128 .LVU100
 17913 0e22 02       		.uleb128 .LVU106
 17914 0e23 00       		.uleb128 .LVU111
 17915 0e24 00       		.uleb128 .LVU111
 17916 0e25 01       		.uleb128 .LVU121
 17917 0e26 00       		.uleb128 .LVU123
 17918 0e27 00       		.uleb128 0
 17919              	.LLST13:
 17920 0e28 A8000000 		.4byte	.LVL19-.Ltext0
 17921 0e2c AF000000 		.4byte	.LVL20-1-.Ltext0
 17922 0e30 0100     		.2byte	0x1
 17923 0e32 51       		.byte	0x51
 17924 0e33 AF000000 		.4byte	.LVL20-1-.Ltext0
 17925 0e37 B0000000 		.4byte	.LVL20-.Ltext0
 17926 0e3b 0100     		.2byte	0x1
 17927 0e3d 55       		.byte	0x55
 17928 0e3e B4000000 		.4byte	.LVL21-.Ltext0
 17929 0e42 BE000000 		.4byte	.LVL22-.Ltext0
ARM GAS  /tmp/ccDQUTww.s 			page 316


 17930 0e46 0100     		.2byte	0x1
 17931 0e48 55       		.byte	0x55
 17932 0e49 BE000000 		.4byte	.LVL22-.Ltext0
 17933 0e4d CC000000 		.4byte	.LVL24-.Ltext0
 17934 0e51 0100     		.2byte	0x1
 17935 0e53 51       		.byte	0x51
 17936 0e54 CE000000 		.4byte	.LVL25-.Ltext0
 17937 0e58 D4000000 		.4byte	.LFE367-.Ltext0
 17938 0e5c 0100     		.2byte	0x1
 17939 0e5e 51       		.byte	0x51
 17940 0e5f 00000000 		.4byte	0
 17941 0e63 00000000 		.4byte	0
 17942              	.LVUS14:
 17943 0e67 00       		.uleb128 .LVU98
 17944 0e68 00       		.uleb128 .LVU100
 17945 0e69 00       		.uleb128 .LVU100
 17946 0e6a 00       		.uleb128 .LVU100
 17947 0e6b 02       		.uleb128 .LVU106
 17948 0e6c 00       		.uleb128 .LVU111
 17949 0e6d 00       		.uleb128 .LVU111
 17950 0e6e 00       		.uleb128 .LVU117
 17951 0e6f 00       		.uleb128 .LVU117
 17952 0e70 01       		.uleb128 .LVU121
 17953 0e71 00       		.uleb128 .LVU123
 17954 0e72 00       		.uleb128 .LVU124
 17955 0e73 00       		.uleb128 .LVU124
 17956 0e74 00       		.uleb128 0
 17957              	.LLST14:
 17958 0e75 A8000000 		.4byte	.LVL19-.Ltext0
 17959 0e79 AF000000 		.4byte	.LVL20-1-.Ltext0
 17960 0e7d 0100     		.2byte	0x1
 17961 0e7f 50       		.byte	0x50
 17962 0e80 AF000000 		.4byte	.LVL20-1-.Ltext0
 17963 0e84 B0000000 		.4byte	.LVL20-.Ltext0
 17964 0e88 0100     		.2byte	0x1
 17965 0e8a 54       		.byte	0x54
 17966 0e8b B4000000 		.4byte	.LVL21-.Ltext0
 17967 0e8f BE000000 		.4byte	.LVL22-.Ltext0
 17968 0e93 0100     		.2byte	0x1
 17969 0e95 54       		.byte	0x54
 17970 0e96 BE000000 		.4byte	.LVL22-.Ltext0
 17971 0e9a C2000000 		.4byte	.LVL23-.Ltext0
 17972 0e9e 0100     		.2byte	0x1
 17973 0ea0 50       		.byte	0x50
 17974 0ea1 C2000000 		.4byte	.LVL23-.Ltext0
 17975 0ea5 CC000000 		.4byte	.LVL24-.Ltext0
 17976 0ea9 0100     		.2byte	0x1
 17977 0eab 54       		.byte	0x54
 17978 0eac CE000000 		.4byte	.LVL25-.Ltext0
 17979 0eb0 D2000000 		.4byte	.LVL26-.Ltext0
 17980 0eb4 0100     		.2byte	0x1
 17981 0eb6 50       		.byte	0x50
 17982 0eb7 D2000000 		.4byte	.LVL26-.Ltext0
 17983 0ebb D4000000 		.4byte	.LFE367-.Ltext0
 17984 0ebf 0100     		.2byte	0x1
 17985 0ec1 54       		.byte	0x54
 17986 0ec2 00000000 		.4byte	0
ARM GAS  /tmp/ccDQUTww.s 			page 317


 17987 0ec6 00000000 		.4byte	0
 17988              	.LVUS15:
 17989 0eca 01       		.uleb128 .LVU112
 17990 0ecb 01       		.uleb128 .LVU121
 17991              	.LLST15:
 17992 0ecc BE000000 		.4byte	.LVL22-.Ltext0
 17993 0ed0 CC000000 		.4byte	.LVL24-.Ltext0
 17994 0ed4 0100     		.2byte	0x1
 17995 0ed6 51       		.byte	0x51
 17996 0ed7 00000000 		.4byte	0
 17997 0edb 00000000 		.4byte	0
 17998              	.LVUS16:
 17999 0edf 00       		.uleb128 .LVU111
 18000 0ee0 00       		.uleb128 .LVU117
 18001 0ee1 00       		.uleb128 .LVU117
 18002 0ee2 01       		.uleb128 .LVU121
 18003              	.LLST16:
 18004 0ee3 BE000000 		.4byte	.LVL22-.Ltext0
 18005 0ee7 C2000000 		.4byte	.LVL23-.Ltext0
 18006 0eeb 0100     		.2byte	0x1
 18007 0eed 50       		.byte	0x50
 18008 0eee C2000000 		.4byte	.LVL23-.Ltext0
 18009 0ef2 CC000000 		.4byte	.LVL24-.Ltext0
 18010 0ef6 0100     		.2byte	0x1
 18011 0ef8 54       		.byte	0x54
 18012 0ef9 00000000 		.4byte	0
 18013 0efd 00000000 		.4byte	0
 18014              	.LVUS26:
 18015 0f01 00       		.uleb128 0
 18016 0f02 00       		.uleb128 .LVU247
 18017 0f03 00       		.uleb128 .LVU247
 18018 0f04 00       		.uleb128 .LVU247
 18019 0f05 00       		.uleb128 .LVU247
 18020 0f06 00       		.uleb128 0
 18021              	.LLST26:
 18022 0f07 40010000 		.4byte	.LVL35-.Ltext0
 18023 0f0b 67010000 		.4byte	.LVL36-1-.Ltext0
 18024 0f0f 0100     		.2byte	0x1
 18025 0f11 50       		.byte	0x50
 18026 0f12 67010000 		.4byte	.LVL36-1-.Ltext0
 18027 0f16 68010000 		.4byte	.LVL36-.Ltext0
 18028 0f1a 0400     		.2byte	0x4
 18029 0f1c F3       		.byte	0xf3
 18030 0f1d 01       		.uleb128 0x1
 18031 0f1e 50       		.byte	0x50
 18032 0f1f 9F       		.byte	0x9f
 18033 0f20 68010000 		.4byte	.LVL36-.Ltext0
 18034 0f24 6E010000 		.4byte	.LFE369-.Ltext0
 18035 0f28 0100     		.2byte	0x1
 18036 0f2a 50       		.byte	0x50
 18037 0f2b 00000000 		.4byte	0
 18038 0f2f 00000000 		.4byte	0
 18039              	.LVUS55:
 18040 0f33 00       		.uleb128 0
 18041 0f34 00       		.uleb128 .LVU578
 18042 0f35 00       		.uleb128 .LVU578
 18043 0f36 00       		.uleb128 .LVU589
ARM GAS  /tmp/ccDQUTww.s 			page 318


 18044 0f37 00       		.uleb128 .LVU589
 18045 0f38 00       		.uleb128 .LVU595
 18046 0f39 00       		.uleb128 .LVU595
 18047 0f3a 00       		.uleb128 .LVU602
 18048 0f3b 00       		.uleb128 .LVU602
 18049 0f3c 00       		.uleb128 .LVU603
 18050 0f3d 00       		.uleb128 .LVU603
 18051 0f3e 00       		.uleb128 0
 18052              	.LLST55:
 18053 0f3f 50030000 		.4byte	.LVL87-.Ltext0
 18054 0f43 5F030000 		.4byte	.LVL89-1-.Ltext0
 18055 0f47 0100     		.2byte	0x1
 18056 0f49 50       		.byte	0x50
 18057 0f4a 5F030000 		.4byte	.LVL89-1-.Ltext0
 18058 0f4e 6E030000 		.4byte	.LVL91-.Ltext0
 18059 0f52 0100     		.2byte	0x1
 18060 0f54 54       		.byte	0x54
 18061 0f55 6E030000 		.4byte	.LVL91-.Ltext0
 18062 0f59 72030000 		.4byte	.LVL92-.Ltext0
 18063 0f5d 0100     		.2byte	0x1
 18064 0f5f 50       		.byte	0x50
 18065 0f60 72030000 		.4byte	.LVL92-.Ltext0
 18066 0f64 7E030000 		.4byte	.LVL95-.Ltext0
 18067 0f68 0100     		.2byte	0x1
 18068 0f6a 54       		.byte	0x54
 18069 0f6b 7E030000 		.4byte	.LVL95-.Ltext0
 18070 0f6f 82030000 		.4byte	.LVL96-.Ltext0
 18071 0f73 0100     		.2byte	0x1
 18072 0f75 50       		.byte	0x50
 18073 0f76 82030000 		.4byte	.LVL96-.Ltext0
 18074 0f7a 84030000 		.4byte	.LFE377-.Ltext0
 18075 0f7e 0100     		.2byte	0x1
 18076 0f80 54       		.byte	0x54
 18077 0f81 00000000 		.4byte	0
 18078 0f85 00000000 		.4byte	0
 18079              	.LVUS56:
 18080 0f89 00       		.uleb128 0
 18081 0f8a 00       		.uleb128 .LVU578
 18082 0f8b 00       		.uleb128 .LVU578
 18083 0f8c 00       		.uleb128 .LVU589
 18084 0f8d 00       		.uleb128 .LVU589
 18085 0f8e 00       		.uleb128 .LVU596
 18086 0f8f 00       		.uleb128 .LVU596
 18087 0f90 00       		.uleb128 .LVU602
 18088 0f91 00       		.uleb128 .LVU602
 18089 0f92 00       		.uleb128 0
 18090              	.LLST56:
 18091 0f93 50030000 		.4byte	.LVL87-.Ltext0
 18092 0f97 5F030000 		.4byte	.LVL89-1-.Ltext0
 18093 0f9b 0100     		.2byte	0x1
 18094 0f9d 51       		.byte	0x51
 18095 0f9e 5F030000 		.4byte	.LVL89-1-.Ltext0
 18096 0fa2 6E030000 		.4byte	.LVL91-.Ltext0
 18097 0fa6 0100     		.2byte	0x1
 18098 0fa8 55       		.byte	0x55
 18099 0fa9 6E030000 		.4byte	.LVL91-.Ltext0
 18100 0fad 74030000 		.4byte	.LVL93-.Ltext0
ARM GAS  /tmp/ccDQUTww.s 			page 319


 18101 0fb1 0100     		.2byte	0x1
 18102 0fb3 51       		.byte	0x51
 18103 0fb4 74030000 		.4byte	.LVL93-.Ltext0
 18104 0fb8 7E030000 		.4byte	.LVL95-.Ltext0
 18105 0fbc 0100     		.2byte	0x1
 18106 0fbe 55       		.byte	0x55
 18107 0fbf 7E030000 		.4byte	.LVL95-.Ltext0
 18108 0fc3 84030000 		.4byte	.LFE377-.Ltext0
 18109 0fc7 0100     		.2byte	0x1
 18110 0fc9 51       		.byte	0x51
 18111 0fca 00000000 		.4byte	0
 18112 0fce 00000000 		.4byte	0
 18113              	.LVUS57:
 18114 0fd2 00       		.uleb128 .LVU578
 18115 0fd3 00       		.uleb128 .LVU582
 18116              	.LLST57:
 18117 0fd4 60030000 		.4byte	.LVL89-.Ltext0
 18118 0fd8 64030000 		.4byte	.LVL90-.Ltext0
 18119 0fdc 0100     		.2byte	0x1
 18120 0fde 50       		.byte	0x50
 18121 0fdf 00000000 		.4byte	0
 18122 0fe3 00000000 		.4byte	0
 18123              	.LVUS58:
 18124 0fe7 00       		.uleb128 .LVU576
 18125 0fe8 00       		.uleb128 .LVU578
 18126 0fe9 00       		.uleb128 .LVU578
 18127 0fea 00       		.uleb128 .LVU578
 18128 0feb 02       		.uleb128 .LVU584
 18129 0fec 00       		.uleb128 .LVU589
 18130 0fed 00       		.uleb128 .LVU589
 18131 0fee 00       		.uleb128 .LVU596
 18132 0fef 00       		.uleb128 .LVU596
 18133 0ff0 01       		.uleb128 .LVU600
 18134 0ff1 00       		.uleb128 .LVU602
 18135 0ff2 00       		.uleb128 0
 18136              	.LLST58:
 18137 0ff3 58030000 		.4byte	.LVL88-.Ltext0
 18138 0ff7 5F030000 		.4byte	.LVL89-1-.Ltext0
 18139 0ffb 0100     		.2byte	0x1
 18140 0ffd 51       		.byte	0x51
 18141 0ffe 5F030000 		.4byte	.LVL89-1-.Ltext0
 18142 1002 60030000 		.4byte	.LVL89-.Ltext0
 18143 1006 0100     		.2byte	0x1
 18144 1008 55       		.byte	0x55
 18145 1009 64030000 		.4byte	.LVL90-.Ltext0
 18146 100d 6E030000 		.4byte	.LVL91-.Ltext0
 18147 1011 0100     		.2byte	0x1
 18148 1013 55       		.byte	0x55
 18149 1014 6E030000 		.4byte	.LVL91-.Ltext0
 18150 1018 74030000 		.4byte	.LVL93-.Ltext0
 18151 101c 0100     		.2byte	0x1
 18152 101e 51       		.byte	0x51
 18153 101f 74030000 		.4byte	.LVL93-.Ltext0
 18154 1023 7C030000 		.4byte	.LVL94-.Ltext0
 18155 1027 0100     		.2byte	0x1
 18156 1029 55       		.byte	0x55
 18157 102a 7E030000 		.4byte	.LVL95-.Ltext0
ARM GAS  /tmp/ccDQUTww.s 			page 320


 18158 102e 84030000 		.4byte	.LFE377-.Ltext0
 18159 1032 0100     		.2byte	0x1
 18160 1034 51       		.byte	0x51
 18161 1035 00000000 		.4byte	0
 18162 1039 00000000 		.4byte	0
 18163              	.LVUS59:
 18164 103d 00       		.uleb128 .LVU576
 18165 103e 00       		.uleb128 .LVU578
 18166 103f 00       		.uleb128 .LVU578
 18167 1040 00       		.uleb128 .LVU578
 18168 1041 02       		.uleb128 .LVU584
 18169 1042 00       		.uleb128 .LVU589
 18170 1043 00       		.uleb128 .LVU589
 18171 1044 00       		.uleb128 .LVU595
 18172 1045 00       		.uleb128 .LVU595
 18173 1046 01       		.uleb128 .LVU600
 18174 1047 00       		.uleb128 .LVU602
 18175 1048 00       		.uleb128 .LVU603
 18176 1049 00       		.uleb128 .LVU603
 18177 104a 00       		.uleb128 0
 18178              	.LLST59:
 18179 104b 58030000 		.4byte	.LVL88-.Ltext0
 18180 104f 5F030000 		.4byte	.LVL89-1-.Ltext0
 18181 1053 0100     		.2byte	0x1
 18182 1055 50       		.byte	0x50
 18183 1056 5F030000 		.4byte	.LVL89-1-.Ltext0
 18184 105a 60030000 		.4byte	.LVL89-.Ltext0
 18185 105e 0100     		.2byte	0x1
 18186 1060 54       		.byte	0x54
 18187 1061 64030000 		.4byte	.LVL90-.Ltext0
 18188 1065 6E030000 		.4byte	.LVL91-.Ltext0
 18189 1069 0100     		.2byte	0x1
 18190 106b 54       		.byte	0x54
 18191 106c 6E030000 		.4byte	.LVL91-.Ltext0
 18192 1070 72030000 		.4byte	.LVL92-.Ltext0
 18193 1074 0100     		.2byte	0x1
 18194 1076 50       		.byte	0x50
 18195 1077 72030000 		.4byte	.LVL92-.Ltext0
 18196 107b 7C030000 		.4byte	.LVL94-.Ltext0
 18197 107f 0100     		.2byte	0x1
 18198 1081 54       		.byte	0x54
 18199 1082 7E030000 		.4byte	.LVL95-.Ltext0
 18200 1086 82030000 		.4byte	.LVL96-.Ltext0
 18201 108a 0100     		.2byte	0x1
 18202 108c 50       		.byte	0x50
 18203 108d 82030000 		.4byte	.LVL96-.Ltext0
 18204 1091 84030000 		.4byte	.LFE377-.Ltext0
 18205 1095 0100     		.2byte	0x1
 18206 1097 54       		.byte	0x54
 18207 1098 00000000 		.4byte	0
 18208 109c 00000000 		.4byte	0
 18209              	.LVUS60:
 18210 10a0 01       		.uleb128 .LVU590
 18211 10a1 00       		.uleb128 .LVU596
 18212 10a2 00       		.uleb128 .LVU596
 18213 10a3 01       		.uleb128 .LVU600
 18214              	.LLST60:
ARM GAS  /tmp/ccDQUTww.s 			page 321


 18215 10a4 6E030000 		.4byte	.LVL91-.Ltext0
 18216 10a8 74030000 		.4byte	.LVL93-.Ltext0
 18217 10ac 0100     		.2byte	0x1
 18218 10ae 51       		.byte	0x51
 18219 10af 74030000 		.4byte	.LVL93-.Ltext0
 18220 10b3 7C030000 		.4byte	.LVL94-.Ltext0
 18221 10b7 0100     		.2byte	0x1
 18222 10b9 55       		.byte	0x55
 18223 10ba 00000000 		.4byte	0
 18224 10be 00000000 		.4byte	0
 18225              	.LVUS61:
 18226 10c2 00       		.uleb128 .LVU589
 18227 10c3 00       		.uleb128 .LVU595
 18228 10c4 00       		.uleb128 .LVU595
 18229 10c5 01       		.uleb128 .LVU600
 18230              	.LLST61:
 18231 10c6 6E030000 		.4byte	.LVL91-.Ltext0
 18232 10ca 72030000 		.4byte	.LVL92-.Ltext0
 18233 10ce 0100     		.2byte	0x1
 18234 10d0 50       		.byte	0x50
 18235 10d1 72030000 		.4byte	.LVL92-.Ltext0
 18236 10d5 7C030000 		.4byte	.LVL94-.Ltext0
 18237 10d9 0100     		.2byte	0x1
 18238 10db 54       		.byte	0x54
 18239 10dc 00000000 		.4byte	0
 18240 10e0 00000000 		.4byte	0
 18241              	.LVUS73:
 18242 10e4 00       		.uleb128 0
 18243 10e5 00       		.uleb128 .LVU735
 18244 10e6 00       		.uleb128 .LVU735
 18245 10e7 00       		.uleb128 .LVU735
 18246 10e8 00       		.uleb128 .LVU735
 18247 10e9 00       		.uleb128 0
 18248              	.LLST73:
 18249 10ea F0030000 		.4byte	.LVL108-.Ltext0
 18250 10ee 19040000 		.4byte	.LVL112-1-.Ltext0
 18251 10f2 0100     		.2byte	0x1
 18252 10f4 50       		.byte	0x50
 18253 10f5 19040000 		.4byte	.LVL112-1-.Ltext0
 18254 10f9 1A040000 		.4byte	.LVL112-.Ltext0
 18255 10fd 0400     		.2byte	0x4
 18256 10ff F3       		.byte	0xf3
 18257 1100 01       		.uleb128 0x1
 18258 1101 50       		.byte	0x50
 18259 1102 9F       		.byte	0x9f
 18260 1103 1A040000 		.4byte	.LVL112-.Ltext0
 18261 1107 20040000 		.4byte	.LFE379-.Ltext0
 18262 110b 0100     		.2byte	0x1
 18263 110d 50       		.byte	0x50
 18264 110e 00000000 		.4byte	0
 18265 1112 00000000 		.4byte	0
 18266              	.LVUS74:
 18267 1116 00       		.uleb128 0
 18268 1117 00       		.uleb128 .LVU715
 18269 1118 00       		.uleb128 .LVU715
 18270 1119 00       		.uleb128 .LVU717
 18271 111a 00       		.uleb128 .LVU717
ARM GAS  /tmp/ccDQUTww.s 			page 322


 18272 111b 00       		.uleb128 .LVU720
 18273 111c 00       		.uleb128 .LVU720
 18274 111d 00       		.uleb128 0
 18275              	.LLST74:
 18276 111e F0030000 		.4byte	.LVL108-.Ltext0
 18277 1122 FA030000 		.4byte	.LVL109-.Ltext0
 18278 1126 0100     		.2byte	0x1
 18279 1128 51       		.byte	0x51
 18280 1129 FA030000 		.4byte	.LVL109-.Ltext0
 18281 112d FE030000 		.4byte	.LVL110-.Ltext0
 18282 1131 0200     		.2byte	0x2
 18283 1133 73       		.byte	0x73
 18284 1134 00       		.sleb128 0
 18285 1135 FE030000 		.4byte	.LVL110-.Ltext0
 18286 1139 04040000 		.4byte	.LVL111-.Ltext0
 18287 113d 0300     		.2byte	0x3
 18288 113f 70       		.byte	0x70
 18289 1140 10       		.sleb128 16
 18290 1141 06       		.byte	0x6
 18291 1142 04040000 		.4byte	.LVL111-.Ltext0
 18292 1146 20040000 		.4byte	.LFE379-.Ltext0
 18293 114a 0400     		.2byte	0x4
 18294 114c F3       		.byte	0xf3
 18295 114d 01       		.uleb128 0x1
 18296 114e 51       		.byte	0x51
 18297 114f 9F       		.byte	0x9f
 18298 1150 00000000 		.4byte	0
 18299 1154 00000000 		.4byte	0
 18300              		.section	.debug_aranges,"",%progbits
 18301 0000 1C000000 		.4byte	0x1c
 18302 0004 0200     		.2byte	0x2
 18303 0006 00000000 		.4byte	.Ldebug_info0
 18304 000a 04       		.byte	0x4
 18305 000b 00       		.byte	0
 18306 000c 0000     		.2byte	0
 18307 000e 0000     		.2byte	0
 18308 0010 00000000 		.4byte	.Ltext0
 18309 0014 18060000 		.4byte	.Letext0-.Ltext0
 18310 0018 00000000 		.4byte	0
 18311 001c 00000000 		.4byte	0
 18312              		.section	.debug_ranges,"",%progbits
 18313              	.Ldebug_ranges0:
 18314 0000 36000000 		.4byte	.LBB240-.Ltext0
 18315 0004 3A000000 		.4byte	.LBE240-.Ltext0
 18316 0008 44000000 		.4byte	.LBB244-.Ltext0
 18317 000c 44000000 		.4byte	.LBE244-.Ltext0
 18318 0010 48000000 		.4byte	.LBB245-.Ltext0
 18319 0014 4C000000 		.4byte	.LBE245-.Ltext0
 18320 0018 00000000 		.4byte	0
 18321 001c 00000000 		.4byte	0
 18322 0020 8C000000 		.4byte	.LBB246-.Ltext0
 18323 0024 8E000000 		.4byte	.LBE246-.Ltext0
 18324 0028 92000000 		.4byte	.LBB249-.Ltext0
 18325 002c 96000000 		.4byte	.LBE249-.Ltext0
 18326 0030 00000000 		.4byte	0
 18327 0034 00000000 		.4byte	0
 18328 0038 A8000000 		.4byte	.LBB258-.Ltext0
ARM GAS  /tmp/ccDQUTww.s 			page 323


 18329 003c B4000000 		.4byte	.LBE258-.Ltext0
 18330 0040 B6000000 		.4byte	.LBB265-.Ltext0
 18331 0044 BA000000 		.4byte	.LBE265-.Ltext0
 18332 0048 CE000000 		.4byte	.LBB268-.Ltext0
 18333 004c D2000000 		.4byte	.LBE268-.Ltext0
 18334 0050 00000000 		.4byte	0
 18335 0054 00000000 		.4byte	0
 18336 0058 AC000000 		.4byte	.LBB259-.Ltext0
 18337 005c B0000000 		.4byte	.LBE259-.Ltext0
 18338 0060 B4000000 		.4byte	.LBB263-.Ltext0
 18339 0064 B4000000 		.4byte	.LBE263-.Ltext0
 18340 0068 B6000000 		.4byte	.LBB264-.Ltext0
 18341 006c BA000000 		.4byte	.LBE264-.Ltext0
 18342 0070 00000000 		.4byte	0
 18343 0074 00000000 		.4byte	0
 18344 0078 E0000000 		.4byte	.LBB269-.Ltext0
 18345 007c E0000000 		.4byte	.LBE269-.Ltext0
 18346 0080 E0000000 		.4byte	.LBB281-.Ltext0
 18347 0084 E0000000 		.4byte	.LBE281-.Ltext0
 18348 0088 E0000000 		.4byte	.LBB282-.Ltext0
 18349 008c E0000000 		.4byte	.LBE282-.Ltext0
 18350 0090 E0000000 		.4byte	.LBB283-.Ltext0
 18351 0094 E0000000 		.4byte	.LBE283-.Ltext0
 18352 0098 E2000000 		.4byte	.LBB284-.Ltext0
 18353 009c E8000000 		.4byte	.LBE284-.Ltext0
 18354 00a0 00000000 		.4byte	0
 18355 00a4 00000000 		.4byte	0
 18356 00a8 EC000000 		.4byte	.LBB285-.Ltext0
 18357 00ac EC000000 		.4byte	.LBE285-.Ltext0
 18358 00b0 EC000000 		.4byte	.LBB294-.Ltext0
 18359 00b4 EC000000 		.4byte	.LBE294-.Ltext0
 18360 00b8 EC000000 		.4byte	.LBB295-.Ltext0
 18361 00bc F2000000 		.4byte	.LBE295-.Ltext0
 18362 00c0 00000000 		.4byte	0
 18363 00c4 00000000 		.4byte	0
 18364 00c8 00010000 		.4byte	.LBB296-.Ltext0
 18365 00cc 00010000 		.4byte	.LBE296-.Ltext0
 18366 00d0 00010000 		.4byte	.LBB308-.Ltext0
 18367 00d4 00010000 		.4byte	.LBE308-.Ltext0
 18368 00d8 00010000 		.4byte	.LBB309-.Ltext0
 18369 00dc 00010000 		.4byte	.LBE309-.Ltext0
 18370 00e0 00010000 		.4byte	.LBB310-.Ltext0
 18371 00e4 00010000 		.4byte	.LBE310-.Ltext0
 18372 00e8 02010000 		.4byte	.LBB311-.Ltext0
 18373 00ec 08010000 		.4byte	.LBE311-.Ltext0
 18374 00f0 00000000 		.4byte	0
 18375 00f4 00000000 		.4byte	0
 18376 00f8 2A010000 		.4byte	.LBB314-.Ltext0
 18377 00fc 2A010000 		.4byte	.LBE314-.Ltext0
 18378 0100 2A010000 		.4byte	.LBB323-.Ltext0
 18379 0104 2A010000 		.4byte	.LBE323-.Ltext0
 18380 0108 2A010000 		.4byte	.LBB324-.Ltext0
 18381 010c 30010000 		.4byte	.LBE324-.Ltext0
 18382 0110 00000000 		.4byte	0
 18383 0114 00000000 		.4byte	0
 18384 0118 70010000 		.4byte	.LBB325-.Ltext0
 18385 011c 70010000 		.4byte	.LBE325-.Ltext0
ARM GAS  /tmp/ccDQUTww.s 			page 324


 18386 0120 70010000 		.4byte	.LBB341-.Ltext0
 18387 0124 70010000 		.4byte	.LBE341-.Ltext0
 18388 0128 70010000 		.4byte	.LBB342-.Ltext0
 18389 012c 70010000 		.4byte	.LBE342-.Ltext0
 18390 0130 70010000 		.4byte	.LBB343-.Ltext0
 18391 0134 70010000 		.4byte	.LBE343-.Ltext0
 18392 0138 72010000 		.4byte	.LBB344-.Ltext0
 18393 013c 74010000 		.4byte	.LBE344-.Ltext0
 18394 0140 76010000 		.4byte	.LBB345-.Ltext0
 18395 0144 7A010000 		.4byte	.LBE345-.Ltext0
 18396 0148 00000000 		.4byte	0
 18397 014c 00000000 		.4byte	0
 18398 0150 AE010000 		.4byte	.LBB348-.Ltext0
 18399 0154 AE010000 		.4byte	.LBE348-.Ltext0
 18400 0158 AE010000 		.4byte	.LBB357-.Ltext0
 18401 015c AE010000 		.4byte	.LBE357-.Ltext0
 18402 0160 AE010000 		.4byte	.LBB358-.Ltext0
 18403 0164 B4010000 		.4byte	.LBE358-.Ltext0
 18404 0168 00000000 		.4byte	0
 18405 016c 00000000 		.4byte	0
 18406 0170 C4010000 		.4byte	.LBB359-.Ltext0
 18407 0174 C4010000 		.4byte	.LBE359-.Ltext0
 18408 0178 C4010000 		.4byte	.LBB368-.Ltext0
 18409 017c C4010000 		.4byte	.LBE368-.Ltext0
 18410 0180 C4010000 		.4byte	.LBB369-.Ltext0
 18411 0184 C8010000 		.4byte	.LBE369-.Ltext0
 18412 0188 00000000 		.4byte	0
 18413 018c 00000000 		.4byte	0
 18414 0190 D0010000 		.4byte	.LBB370-.Ltext0
 18415 0194 D0010000 		.4byte	.LBE370-.Ltext0
 18416 0198 D0010000 		.4byte	.LBB382-.Ltext0
 18417 019c D0010000 		.4byte	.LBE382-.Ltext0
 18418 01a0 D0010000 		.4byte	.LBB383-.Ltext0
 18419 01a4 D0010000 		.4byte	.LBE383-.Ltext0
 18420 01a8 D0010000 		.4byte	.LBB384-.Ltext0
 18421 01ac D0010000 		.4byte	.LBE384-.Ltext0
 18422 01b0 DE010000 		.4byte	.LBB385-.Ltext0
 18423 01b4 E6010000 		.4byte	.LBE385-.Ltext0
 18424 01b8 00000000 		.4byte	0
 18425 01bc 00000000 		.4byte	0
 18426 01c0 EA010000 		.4byte	.LBB386-.Ltext0
 18427 01c4 6C020000 		.4byte	.LBE386-.Ltext0
 18428 01c8 6C020000 		.4byte	.LBB428-.Ltext0
 18429 01cc 6C020000 		.4byte	.LBE428-.Ltext0
 18430 01d0 6C020000 		.4byte	.LBB429-.Ltext0
 18431 01d4 74020000 		.4byte	.LBE429-.Ltext0
 18432 01d8 74020000 		.4byte	.LBB430-.Ltext0
 18433 01dc 74020000 		.4byte	.LBE430-.Ltext0
 18434 01e0 74020000 		.4byte	.LBB431-.Ltext0
 18435 01e4 74020000 		.4byte	.LBE431-.Ltext0
 18436 01e8 74020000 		.4byte	.LBB432-.Ltext0
 18437 01ec 78020000 		.4byte	.LBE432-.Ltext0
 18438 01f0 78020000 		.4byte	.LBB433-.Ltext0
 18439 01f4 A2020000 		.4byte	.LBE433-.Ltext0
 18440 01f8 A2020000 		.4byte	.LBB434-.Ltext0
 18441 01fc A2020000 		.4byte	.LBE434-.Ltext0
 18442 0200 A2020000 		.4byte	.LBB435-.Ltext0
ARM GAS  /tmp/ccDQUTww.s 			page 325


 18443 0204 A6020000 		.4byte	.LBE435-.Ltext0
 18444 0208 00000000 		.4byte	0
 18445 020c 00000000 		.4byte	0
 18446 0210 EC010000 		.4byte	.LBB387-.Ltext0
 18447 0214 EE010000 		.4byte	.LBE387-.Ltext0
 18448 0218 48020000 		.4byte	.LBB390-.Ltext0
 18449 021c 6C020000 		.4byte	.LBE390-.Ltext0
 18450 0220 00000000 		.4byte	0
 18451 0224 00000000 		.4byte	0
 18452 0228 6C020000 		.4byte	.LBB391-.Ltext0
 18453 022c 6C020000 		.4byte	.LBE391-.Ltext0
 18454 0230 6C020000 		.4byte	.LBB400-.Ltext0
 18455 0234 6C020000 		.4byte	.LBE400-.Ltext0
 18456 0238 6C020000 		.4byte	.LBB401-.Ltext0
 18457 023c 70020000 		.4byte	.LBE401-.Ltext0
 18458 0240 00000000 		.4byte	0
 18459 0244 00000000 		.4byte	0
 18460 0248 74020000 		.4byte	.LBB402-.Ltext0
 18461 024c 74020000 		.4byte	.LBE402-.Ltext0
 18462 0250 74020000 		.4byte	.LBB410-.Ltext0
 18463 0254 74020000 		.4byte	.LBE410-.Ltext0
 18464 0258 74020000 		.4byte	.LBB411-.Ltext0
 18465 025c 74020000 		.4byte	.LBE411-.Ltext0
 18466 0260 74020000 		.4byte	.LBB412-.Ltext0
 18467 0264 78020000 		.4byte	.LBE412-.Ltext0
 18468 0268 00000000 		.4byte	0
 18469 026c 00000000 		.4byte	0
 18470 0270 7E020000 		.4byte	.LBB413-.Ltext0
 18471 0274 8C020000 		.4byte	.LBE413-.Ltext0
 18472 0278 A2020000 		.4byte	.LBB425-.Ltext0
 18473 027c A2020000 		.4byte	.LBE425-.Ltext0
 18474 0280 A2020000 		.4byte	.LBB426-.Ltext0
 18475 0284 A2020000 		.4byte	.LBE426-.Ltext0
 18476 0288 A2020000 		.4byte	.LBB427-.Ltext0
 18477 028c A6020000 		.4byte	.LBE427-.Ltext0
 18478 0290 00000000 		.4byte	0
 18479 0294 00000000 		.4byte	0
 18480 0298 A2020000 		.4byte	.LBB414-.Ltext0
 18481 029c A2020000 		.4byte	.LBE414-.Ltext0
 18482 02a0 A2020000 		.4byte	.LBB423-.Ltext0
 18483 02a4 A2020000 		.4byte	.LBE423-.Ltext0
 18484 02a8 A2020000 		.4byte	.LBB424-.Ltext0
 18485 02ac A6020000 		.4byte	.LBE424-.Ltext0
 18486 02b0 00000000 		.4byte	0
 18487 02b4 00000000 		.4byte	0
 18488 02b8 E4020000 		.4byte	.LBB440-.Ltext0
 18489 02bc E8020000 		.4byte	.LBE440-.Ltext0
 18490 02c0 F6020000 		.4byte	.LBB444-.Ltext0
 18491 02c4 F6020000 		.4byte	.LBE444-.Ltext0
 18492 02c8 F8020000 		.4byte	.LBB445-.Ltext0
 18493 02cc FC020000 		.4byte	.LBE445-.Ltext0
 18494 02d0 00000000 		.4byte	0
 18495 02d4 00000000 		.4byte	0
 18496 02d8 3A030000 		.4byte	.LBB446-.Ltext0
 18497 02dc 3C030000 		.4byte	.LBE446-.Ltext0
 18498 02e0 40030000 		.4byte	.LBB449-.Ltext0
 18499 02e4 44030000 		.4byte	.LBE449-.Ltext0
ARM GAS  /tmp/ccDQUTww.s 			page 326


 18500 02e8 00000000 		.4byte	0
 18501 02ec 00000000 		.4byte	0
 18502 02f0 58030000 		.4byte	.LBB458-.Ltext0
 18503 02f4 64030000 		.4byte	.LBE458-.Ltext0
 18504 02f8 66030000 		.4byte	.LBB465-.Ltext0
 18505 02fc 6A030000 		.4byte	.LBE465-.Ltext0
 18506 0300 7E030000 		.4byte	.LBB468-.Ltext0
 18507 0304 82030000 		.4byte	.LBE468-.Ltext0
 18508 0308 00000000 		.4byte	0
 18509 030c 00000000 		.4byte	0
 18510 0310 5C030000 		.4byte	.LBB459-.Ltext0
 18511 0314 60030000 		.4byte	.LBE459-.Ltext0
 18512 0318 64030000 		.4byte	.LBB463-.Ltext0
 18513 031c 64030000 		.4byte	.LBE463-.Ltext0
 18514 0320 66030000 		.4byte	.LBB464-.Ltext0
 18515 0324 6A030000 		.4byte	.LBE464-.Ltext0
 18516 0328 00000000 		.4byte	0
 18517 032c 00000000 		.4byte	0
 18518 0330 90030000 		.4byte	.LBB469-.Ltext0
 18519 0334 90030000 		.4byte	.LBE469-.Ltext0
 18520 0338 90030000 		.4byte	.LBB481-.Ltext0
 18521 033c 90030000 		.4byte	.LBE481-.Ltext0
 18522 0340 90030000 		.4byte	.LBB482-.Ltext0
 18523 0344 90030000 		.4byte	.LBE482-.Ltext0
 18524 0348 90030000 		.4byte	.LBB483-.Ltext0
 18525 034c 90030000 		.4byte	.LBE483-.Ltext0
 18526 0350 92030000 		.4byte	.LBB484-.Ltext0
 18527 0354 98030000 		.4byte	.LBE484-.Ltext0
 18528 0358 00000000 		.4byte	0
 18529 035c 00000000 		.4byte	0
 18530 0360 9C030000 		.4byte	.LBB485-.Ltext0
 18531 0364 9C030000 		.4byte	.LBE485-.Ltext0
 18532 0368 9C030000 		.4byte	.LBB494-.Ltext0
 18533 036c 9C030000 		.4byte	.LBE494-.Ltext0
 18534 0370 9C030000 		.4byte	.LBB495-.Ltext0
 18535 0374 A2030000 		.4byte	.LBE495-.Ltext0
 18536 0378 00000000 		.4byte	0
 18537 037c 00000000 		.4byte	0
 18538 0380 B0030000 		.4byte	.LBB496-.Ltext0
 18539 0384 B0030000 		.4byte	.LBE496-.Ltext0
 18540 0388 B0030000 		.4byte	.LBB508-.Ltext0
 18541 038c B0030000 		.4byte	.LBE508-.Ltext0
 18542 0390 B0030000 		.4byte	.LBB509-.Ltext0
 18543 0394 B0030000 		.4byte	.LBE509-.Ltext0
 18544 0398 B0030000 		.4byte	.LBB510-.Ltext0
 18545 039c B0030000 		.4byte	.LBE510-.Ltext0
 18546 03a0 B2030000 		.4byte	.LBB511-.Ltext0
 18547 03a4 B8030000 		.4byte	.LBE511-.Ltext0
 18548 03a8 00000000 		.4byte	0
 18549 03ac 00000000 		.4byte	0
 18550 03b0 DC030000 		.4byte	.LBB514-.Ltext0
 18551 03b4 DC030000 		.4byte	.LBE514-.Ltext0
 18552 03b8 DC030000 		.4byte	.LBB523-.Ltext0
 18553 03bc DC030000 		.4byte	.LBE523-.Ltext0
 18554 03c0 DC030000 		.4byte	.LBB524-.Ltext0
 18555 03c4 E2030000 		.4byte	.LBE524-.Ltext0
 18556 03c8 00000000 		.4byte	0
ARM GAS  /tmp/ccDQUTww.s 			page 327


 18557 03cc 00000000 		.4byte	0
 18558 03d0 20040000 		.4byte	.LBB525-.Ltext0
 18559 03d4 20040000 		.4byte	.LBE525-.Ltext0
 18560 03d8 20040000 		.4byte	.LBB541-.Ltext0
 18561 03dc 20040000 		.4byte	.LBE541-.Ltext0
 18562 03e0 20040000 		.4byte	.LBB542-.Ltext0
 18563 03e4 20040000 		.4byte	.LBE542-.Ltext0
 18564 03e8 20040000 		.4byte	.LBB543-.Ltext0
 18565 03ec 20040000 		.4byte	.LBE543-.Ltext0
 18566 03f0 22040000 		.4byte	.LBB544-.Ltext0
 18567 03f4 24040000 		.4byte	.LBE544-.Ltext0
 18568 03f8 28040000 		.4byte	.LBB545-.Ltext0
 18569 03fc 2C040000 		.4byte	.LBE545-.Ltext0
 18570 0400 00000000 		.4byte	0
 18571 0404 00000000 		.4byte	0
 18572 0408 3E040000 		.4byte	.LBB546-.Ltext0
 18573 040c 3E040000 		.4byte	.LBE546-.Ltext0
 18574 0410 40040000 		.4byte	.LBB550-.Ltext0
 18575 0414 42040000 		.4byte	.LBE550-.Ltext0
 18576 0418 44040000 		.4byte	.LBB551-.Ltext0
 18577 041c 68040000 		.4byte	.LBE551-.Ltext0
 18578 0420 00000000 		.4byte	0
 18579 0424 00000000 		.4byte	0
 18580 0428 68040000 		.4byte	.LBB552-.Ltext0
 18581 042c 68040000 		.4byte	.LBE552-.Ltext0
 18582 0430 68040000 		.4byte	.LBB561-.Ltext0
 18583 0434 68040000 		.4byte	.LBE561-.Ltext0
 18584 0438 68040000 		.4byte	.LBB562-.Ltext0
 18585 043c 6E040000 		.4byte	.LBE562-.Ltext0
 18586 0440 00000000 		.4byte	0
 18587 0444 00000000 		.4byte	0
 18588 0448 7C040000 		.4byte	.LBB563-.Ltext0
 18589 044c 7C040000 		.4byte	.LBE563-.Ltext0
 18590 0450 7C040000 		.4byte	.LBB572-.Ltext0
 18591 0454 7C040000 		.4byte	.LBE572-.Ltext0
 18592 0458 7C040000 		.4byte	.LBB573-.Ltext0
 18593 045c 80040000 		.4byte	.LBE573-.Ltext0
 18594 0460 00000000 		.4byte	0
 18595 0464 00000000 		.4byte	0
 18596 0468 90040000 		.4byte	.LBB574-.Ltext0
 18597 046c 90040000 		.4byte	.LBE574-.Ltext0
 18598 0470 90040000 		.4byte	.LBB586-.Ltext0
 18599 0474 90040000 		.4byte	.LBE586-.Ltext0
 18600 0478 90040000 		.4byte	.LBB587-.Ltext0
 18601 047c 90040000 		.4byte	.LBE587-.Ltext0
 18602 0480 90040000 		.4byte	.LBB588-.Ltext0
 18603 0484 90040000 		.4byte	.LBE588-.Ltext0
 18604 0488 9E040000 		.4byte	.LBB589-.Ltext0
 18605 048c A6040000 		.4byte	.LBE589-.Ltext0
 18606 0490 00000000 		.4byte	0
 18607 0494 00000000 		.4byte	0
 18608 0498 AA040000 		.4byte	.LBB590-.Ltext0
 18609 049c 30050000 		.4byte	.LBE590-.Ltext0
 18610 04a0 30050000 		.4byte	.LBB636-.Ltext0
 18611 04a4 30050000 		.4byte	.LBE636-.Ltext0
 18612 04a8 30050000 		.4byte	.LBB637-.Ltext0
 18613 04ac 38050000 		.4byte	.LBE637-.Ltext0
ARM GAS  /tmp/ccDQUTww.s 			page 328


 18614 04b0 38050000 		.4byte	.LBB638-.Ltext0
 18615 04b4 38050000 		.4byte	.LBE638-.Ltext0
 18616 04b8 38050000 		.4byte	.LBB639-.Ltext0
 18617 04bc 38050000 		.4byte	.LBE639-.Ltext0
 18618 04c0 38050000 		.4byte	.LBB640-.Ltext0
 18619 04c4 3C050000 		.4byte	.LBE640-.Ltext0
 18620 04c8 3C050000 		.4byte	.LBB641-.Ltext0
 18621 04cc 6A050000 		.4byte	.LBE641-.Ltext0
 18622 04d0 6A050000 		.4byte	.LBB642-.Ltext0
 18623 04d4 6A050000 		.4byte	.LBE642-.Ltext0
 18624 04d8 6A050000 		.4byte	.LBB643-.Ltext0
 18625 04dc 6E050000 		.4byte	.LBE643-.Ltext0
 18626 04e0 00000000 		.4byte	0
 18627 04e4 00000000 		.4byte	0
 18628 04e8 AC040000 		.4byte	.LBB591-.Ltext0
 18629 04ec AE040000 		.4byte	.LBE591-.Ltext0
 18630 04f0 08050000 		.4byte	.LBB596-.Ltext0
 18631 04f4 08050000 		.4byte	.LBE596-.Ltext0
 18632 04f8 0A050000 		.4byte	.LBB597-.Ltext0
 18633 04fc 0C050000 		.4byte	.LBE597-.Ltext0
 18634 0500 0E050000 		.4byte	.LBB598-.Ltext0
 18635 0504 30050000 		.4byte	.LBE598-.Ltext0
 18636 0508 00000000 		.4byte	0
 18637 050c 00000000 		.4byte	0
 18638 0510 30050000 		.4byte	.LBB599-.Ltext0
 18639 0514 30050000 		.4byte	.LBE599-.Ltext0
 18640 0518 30050000 		.4byte	.LBB608-.Ltext0
 18641 051c 30050000 		.4byte	.LBE608-.Ltext0
 18642 0520 30050000 		.4byte	.LBB609-.Ltext0
 18643 0524 34050000 		.4byte	.LBE609-.Ltext0
 18644 0528 00000000 		.4byte	0
 18645 052c 00000000 		.4byte	0
 18646 0530 38050000 		.4byte	.LBB610-.Ltext0
 18647 0534 38050000 		.4byte	.LBE610-.Ltext0
 18648 0538 38050000 		.4byte	.LBB618-.Ltext0
 18649 053c 38050000 		.4byte	.LBE618-.Ltext0
 18650 0540 38050000 		.4byte	.LBB619-.Ltext0
 18651 0544 38050000 		.4byte	.LBE619-.Ltext0
 18652 0548 38050000 		.4byte	.LBB620-.Ltext0
 18653 054c 3C050000 		.4byte	.LBE620-.Ltext0
 18654 0550 00000000 		.4byte	0
 18655 0554 00000000 		.4byte	0
 18656 0558 42050000 		.4byte	.LBB621-.Ltext0
 18657 055c 54050000 		.4byte	.LBE621-.Ltext0
 18658 0560 6A050000 		.4byte	.LBB633-.Ltext0
 18659 0564 6A050000 		.4byte	.LBE633-.Ltext0
 18660 0568 6A050000 		.4byte	.LBB634-.Ltext0
 18661 056c 6A050000 		.4byte	.LBE634-.Ltext0
 18662 0570 6A050000 		.4byte	.LBB635-.Ltext0
 18663 0574 6E050000 		.4byte	.LBE635-.Ltext0
 18664 0578 00000000 		.4byte	0
 18665 057c 00000000 		.4byte	0
 18666 0580 6A050000 		.4byte	.LBB622-.Ltext0
 18667 0584 6A050000 		.4byte	.LBE622-.Ltext0
 18668 0588 6A050000 		.4byte	.LBB631-.Ltext0
 18669 058c 6A050000 		.4byte	.LBE631-.Ltext0
 18670 0590 6A050000 		.4byte	.LBB632-.Ltext0
ARM GAS  /tmp/ccDQUTww.s 			page 329


 18671 0594 6E050000 		.4byte	.LBE632-.Ltext0
 18672 0598 00000000 		.4byte	0
 18673 059c 00000000 		.4byte	0
 18674 05a0 96050000 		.4byte	.LBB644-.Ltext0
 18675 05a4 9C050000 		.4byte	.LBE644-.Ltext0
 18676 05a8 A0050000 		.4byte	.LBB645-.Ltext0
 18677 05ac A2050000 		.4byte	.LBE645-.Ltext0
 18678 05b0 A4050000 		.4byte	.LBB646-.Ltext0
 18679 05b4 C0050000 		.4byte	.LBE646-.Ltext0
 18680 05b8 C4050000 		.4byte	.LBB647-.Ltext0
 18681 05bc C6050000 		.4byte	.LBE647-.Ltext0
 18682 05c0 00000000 		.4byte	0
 18683 05c4 00000000 		.4byte	0
 18684 05c8 D0050000 		.4byte	.LBB648-.Ltext0
 18685 05cc D0050000 		.4byte	.LBE648-.Ltext0
 18686 05d0 D0050000 		.4byte	.LBB656-.Ltext0
 18687 05d4 D0050000 		.4byte	.LBE656-.Ltext0
 18688 05d8 D0050000 		.4byte	.LBB657-.Ltext0
 18689 05dc D0050000 		.4byte	.LBE657-.Ltext0
 18690 05e0 D0050000 		.4byte	.LBB658-.Ltext0
 18691 05e4 D6050000 		.4byte	.LBE658-.Ltext0
 18692 05e8 00000000 		.4byte	0
 18693 05ec 00000000 		.4byte	0
 18694 05f0 DA050000 		.4byte	.LBB659-.Ltext0
 18695 05f4 E4050000 		.4byte	.LBE659-.Ltext0
 18696 05f8 E6050000 		.4byte	.LBB666-.Ltext0
 18697 05fc 02060000 		.4byte	.LBE666-.Ltext0
 18698 0600 12060000 		.4byte	.LBB689-.Ltext0
 18699 0604 18060000 		.4byte	.LBE689-.Ltext0
 18700 0608 00000000 		.4byte	0
 18701 060c 00000000 		.4byte	0
 18702 0610 E2050000 		.4byte	.LBB660-.Ltext0
 18703 0614 E4050000 		.4byte	.LBE660-.Ltext0
 18704 0618 E6050000 		.4byte	.LBB664-.Ltext0
 18705 061c 02060000 		.4byte	.LBE664-.Ltext0
 18706 0620 12060000 		.4byte	.LBB665-.Ltext0
 18707 0624 18060000 		.4byte	.LBE665-.Ltext0
 18708 0628 00000000 		.4byte	0
 18709 062c 00000000 		.4byte	0
 18710 0630 02060000 		.4byte	.LBB667-.Ltext0
 18711 0634 02060000 		.4byte	.LBE667-.Ltext0
 18712 0638 02060000 		.4byte	.LBB684-.Ltext0
 18713 063c 02060000 		.4byte	.LBE684-.Ltext0
 18714 0640 02060000 		.4byte	.LBB685-.Ltext0
 18715 0644 08060000 		.4byte	.LBE685-.Ltext0
 18716 0648 0A060000 		.4byte	.LBB686-.Ltext0
 18717 064c 0A060000 		.4byte	.LBE686-.Ltext0
 18718 0650 0A060000 		.4byte	.LBB687-.Ltext0
 18719 0654 0A060000 		.4byte	.LBE687-.Ltext0
 18720 0658 0A060000 		.4byte	.LBB688-.Ltext0
 18721 065c 12060000 		.4byte	.LBE688-.Ltext0
 18722 0660 00000000 		.4byte	0
 18723 0664 00000000 		.4byte	0
 18724 0668 02060000 		.4byte	.LBB668-.Ltext0
 18725 066c 02060000 		.4byte	.LBE668-.Ltext0
 18726 0670 02060000 		.4byte	.LBB681-.Ltext0
 18727 0674 08060000 		.4byte	.LBE681-.Ltext0
ARM GAS  /tmp/ccDQUTww.s 			page 330


 18728 0678 0A060000 		.4byte	.LBB682-.Ltext0
 18729 067c 0A060000 		.4byte	.LBE682-.Ltext0
 18730 0680 0A060000 		.4byte	.LBB683-.Ltext0
 18731 0684 12060000 		.4byte	.LBE683-.Ltext0
 18732 0688 00000000 		.4byte	0
 18733 068c 00000000 		.4byte	0
 18734 0690 02060000 		.4byte	.LBB671-.Ltext0
 18735 0694 08060000 		.4byte	.LBE671-.Ltext0
 18736 0698 0A060000 		.4byte	.LBB674-.Ltext0
 18737 069c 12060000 		.4byte	.LBE674-.Ltext0
 18738 06a0 00000000 		.4byte	0
 18739 06a4 00000000 		.4byte	0
 18740              		.section	.debug_line,"",%progbits
 18741              	.Ldebug_line0:
 18742 0000 D71A0000 		.section	.debug_str,"MS",%progbits,1
 18742      0300EF08 
 18742      00000201 
 18742      FB0E0D00 
 18742      01010101 
 18743              	.LASF50:
 18744 0000 5F6F6E5F 		.ascii	"_on_exit_args_ptr\000"
 18744      65786974 
 18744      5F617267 
 18744      735F7074 
 18744      7200
 18745              	.LASF351:
 18746 0012 63685F6D 		.ascii	"ch_memcore\000"
 18746      656D636F 
 18746      726500
 18747              	.LASF311:
 18748 001d 73656E74 		.ascii	"sentmsg\000"
 18748      6D736700 
 18749              	.LASF292:
 18750 0025 706F7274 		.ascii	"port_intctx\000"
 18750      5F696E74 
 18750      63747800 
 18751              	.LASF305:
 18752 0031 63685F74 		.ascii	"ch_trace_buffer_t\000"
 18752      72616365 
 18752      5F627566 
 18752      6665725F 
 18752      7400
 18753              	.LASF541:
 18754 0043 6576656E 		.ascii	"event\000"
 18754      7400
 18755              	.LASF822:
 18756 0049 2F686F6D 		.ascii	"/home/nicolas/source/akso-sub/axoloti/firmware/moun"
 18756      652F6E69 
 18756      636F6C61 
 18756      732F736F 
 18756      75726365 
 18757 007c 74657200 		.ascii	"ter\000"
 18758              	.LASF780:
 18759 0080 5F5F6675 		.ascii	"__func__\000"
 18759      6E635F5F 
 18759      00
 18760              	.LASF140:
ARM GAS  /tmp/ccDQUTww.s 			page 331


 18761 0089 6D73675F 		.ascii	"msg_t\000"
 18761      7400
 18762              	.LASF771:
 18763 008f 53445241 		.ascii	"SDRAM_READY\000"
 18763      4D5F5245 
 18763      41445900 
 18764              	.LASF598:
 18765 009b 68616C5F 		.ascii	"hal_trng_driver\000"
 18765      74726E67 
 18765      5F647269 
 18765      76657200 
 18766              	.LASF600:
 18767 00ab 68616C5F 		.ascii	"hal_trng_config\000"
 18767      74726E67 
 18767      5F636F6E 
 18767      66696700 
 18768              	.LASF806:
 18769 00bb 6F73616C 		.ascii	"osalThreadQueueObjectInit\000"
 18769      54687265 
 18769      61645175 
 18769      6575654F 
 18769      626A6563 
 18770              	.LASF559:
 18771 00d5 73646366 		.ascii	"sdcflags_t\000"
 18771      6C616773 
 18771      5F7400
 18772              	.LASF637:
 18773 00e0 5553425F 		.ascii	"USB_EVENT_UNCONFIGURED\000"
 18773      4556454E 
 18773      545F554E 
 18773      434F4E46 
 18773      49475552 
 18774              	.LASF681:
 18775 00f7 44494550 		.ascii	"DIEPTXF0\000"
 18775      54584630 
 18775      00
 18776              	.LASF753:
 18777 0100 55534244 		.ascii	"USBD1\000"
 18777      3100
 18778              	.LASF540:
 18779 0106 53657269 		.ascii	"SerialDriver\000"
 18779      616C4472 
 18779      69766572 
 18779      00
 18780              	.LASF410:
 18781 0113 62726470 		.ascii	"brdptr\000"
 18781      747200
 18782              	.LASF184:
 18783 011a 63685F73 		.ascii	"ch_system_t\000"
 18783      79737465 
 18783      6D5F7400 
 18784              	.LASF6:
 18785 0126 5F5F7569 		.ascii	"__uint8_t\000"
 18785      6E74385F 
 18785      7400
 18786              	.LASF312:
 18787 0130 77747365 		.ascii	"wtsemp\000"
ARM GAS  /tmp/ccDQUTww.s 			page 332


 18787      6D7000
 18788              	.LASF346:
 18789 0137 5F426F6F 		.ascii	"_Bool\000"
 18789      6C00
 18790              	.LASF158:
 18791 013d 6570656E 		.ascii	"epending\000"
 18791      64696E67 
 18791      00
 18792              	.LASF92:
 18793 0146 5F6D6273 		.ascii	"_mbstate\000"
 18793      74617465 
 18793      00
 18794              	.LASF47:
 18795 014f 5F617465 		.ascii	"_atexit\000"
 18795      78697400 
 18796              	.LASF355:
 18797 0157 70726F76 		.ascii	"provider\000"
 18797      69646572 
 18797      00
 18798              	.LASF370:
 18799 0160 6F626A65 		.ascii	"objects_factory_t\000"
 18799      6374735F 
 18799      66616374 
 18799      6F72795F 
 18799      7400
 18800              	.LASF823:
 18801 0172 6F73616C 		.ascii	"osalThreadEnqueueTimeoutS\000"
 18801      54687265 
 18801      6164456E 
 18801      71756575 
 18801      6554696D 
 18802              	.LASF807:
 18803 018c 6F73616C 		.ascii	"osalSysUnlock\000"
 18803      53797355 
 18803      6E6C6F63 
 18803      6B00
 18804              	.LASF347:
 18805 019a 6D656D67 		.ascii	"memgetfunc_t\000"
 18805      65746675 
 18805      6E635F74 
 18805      00
 18806              	.LASF711:
 18807 01a7 44564255 		.ascii	"DVBUSDIS\000"
 18807      53444953 
 18807      00
 18808              	.LASF505:
 18809 01b0 6572726F 		.ascii	"errors\000"
 18809      727300
 18810              	.LASF547:
 18811 01b7 696E7374 		.ascii	"instance_offset\000"
 18811      616E6365 
 18811      5F6F6666 
 18811      73657400 
 18812              	.LASF589:
 18813 01c7 73706963 		.ascii	"spicallback_t\000"
 18813      616C6C62 
 18813      61636B5F 
ARM GAS  /tmp/ccDQUTww.s 			page 333


 18813      7400
 18814              	.LASF148:
 18815 01d5 7072696F 		.ascii	"prio\000"
 18815      00
 18816              	.LASF597:
 18817 01da 54524E47 		.ascii	"TRNGDriver\000"
 18817      44726976 
 18817      657200
 18818              	.LASF599:
 18819 01e5 54524E47 		.ascii	"TRNGConfig\000"
 18819      436F6E66 
 18819      696700
 18820              	.LASF37:
 18821 01f0 5F5F746D 		.ascii	"__tm_mon\000"
 18821      5F6D6F6E 
 18821      00
 18822              	.LASF45:
 18823 01f9 5F666E74 		.ascii	"_fntypes\000"
 18823      79706573 
 18823      00
 18824              	.LASF128:
 18825 0202 5F676C6F 		.ascii	"_global_atexit\000"
 18825      62616C5F 
 18825      61746578 
 18825      697400
 18826              	.LASF64:
 18827 0211 5F696E63 		.ascii	"_inc\000"
 18827      00
 18828              	.LASF48:
 18829 0216 5F696E64 		.ascii	"_ind\000"
 18829      00
 18830              	.LASF268:
 18831 021b 4D41534B 		.ascii	"MASK\000"
 18831      00
 18832              	.LASF453:
 18833 0220 73616D70 		.ascii	"samples\000"
 18833      6C657300 
 18834              	.LASF783:
 18835 0228 6F627147 		.ascii	"obqGetEmptyBufferTimeout\000"
 18835      6574456D 
 18835      70747942 
 18835      75666665 
 18835      7254696D 
 18836              	.LASF685:
 18837 0241 47434346 		.ascii	"GCCFG\000"
 18837      4700
 18838              	.LASF388:
 18839 0247 42445452 		.ascii	"BDTR\000"
 18839      00
 18840              	.LASF503:
 18841 024c 49324343 		.ascii	"I2CConfig\000"
 18841      6F6E6669 
 18841      6700
 18842              	.LASF130:
 18843 0256 75696E74 		.ascii	"uint16_t\000"
 18843      31365F74 
 18843      00
ARM GAS  /tmp/ccDQUTww.s 			page 334


 18844              	.LASF301:
 18845 025f 63685F74 		.ascii	"ch_trace_event_t\000"
 18845      72616365 
 18845      5F657665 
 18845      6E745F74 
 18845      00
 18846              	.LASF751:
 18847 0270 736F665F 		.ascii	"sof_cb\000"
 18847      636200
 18848              	.LASF361:
 18849 0277 63685F6F 		.ascii	"ch_objects_factory\000"
 18849      626A6563 
 18849      74735F66 
 18849      6163746F 
 18849      727900
 18850              	.LASF299:
 18851 028a 72747374 		.ascii	"rtstamp\000"
 18851      616D7000 
 18852              	.LASF55:
 18853 0292 5F666C61 		.ascii	"_flags\000"
 18853      677300
 18854              	.LASF790:
 18855 0299 69627152 		.ascii	"ibqReadTimeout\000"
 18855      65616454 
 18855      696D656F 
 18855      757400
 18856              	.LASF165:
 18857 02a8 6E657874 		.ascii	"next\000"
 18857      00
 18858              	.LASF150:
 18859 02ad 6F6C6465 		.ascii	"older\000"
 18859      7200
 18860              	.LASF357:
 18861 02b3 63685F64 		.ascii	"ch_dyn_element\000"
 18861      796E5F65 
 18861      6C656D65 
 18861      6E7400
 18862              	.LASF816:
 18863 02c2 62617365 		.ascii	"basePri\000"
 18863      50726900 
 18864              	.LASF688:
 18865 02ca 44494550 		.ascii	"DIEPTXF\000"
 18865      54584600 
 18866              	.LASF628:
 18867 02d2 5553425F 		.ascii	"USB_EP0_IN_WAITING_TX0\000"
 18867      4550305F 
 18867      494E5F57 
 18867      41495449 
 18867      4E475F54 
 18868              	.LASF485:
 18869 02e9 4144435F 		.ascii	"ADC_ERR_OVERFLOW\000"
 18869      4552525F 
 18869      4F564552 
 18869      464C4F57 
 18869      00
 18870              	.LASF71:
 18871 02fa 5F637674 		.ascii	"_cvtlen\000"
ARM GAS  /tmp/ccDQUTww.s 			page 335


 18871      6C656E00 
 18872              	.LASF167:
 18873 0302 63685F74 		.ascii	"ch_threads_queue\000"
 18873      68726561 
 18873      64735F71 
 18873      75657565 
 18873      00
 18874              	.LASF76:
 18875 0313 5F736967 		.ascii	"_sig_func\000"
 18875      5F66756E 
 18875      6300
 18876              	.LASF698:
 18877 031d 48505254 		.ascii	"HPRT\000"
 18877      00
 18878              	.LASF652:
 18879 0322 4843494E 		.ascii	"HCINT\000"
 18879      5400
 18880              	.LASF197:
 18881 0328 534D5052 		.ascii	"SMPR1\000"
 18881      3100
 18882              	.LASF198:
 18883 032e 534D5052 		.ascii	"SMPR2\000"
 18883      3200
 18884              	.LASF809:
 18885 0334 63685468 		.ascii	"chThdQueueObjectInit\000"
 18885      64517565 
 18885      75654F62 
 18885      6A656374 
 18885      496E6974 
 18886              	.LASF91:
 18887 0349 5F6C6F63 		.ascii	"_lock\000"
 18887      6B00
 18888              	.LASF88:
 18889 034f 5F6E6275 		.ascii	"_nbuf\000"
 18889      6600
 18890              	.LASF576:
 18891 0355 5350495F 		.ascii	"SPI_STOP\000"
 18891      53544F50 
 18891      00
 18892              	.LASF523:
 18893 035e 70776D63 		.ascii	"pwmchnmsk_t\000"
 18893      686E6D73 
 18893      6B5F7400 
 18894              	.LASF223:
 18895 036a 41574433 		.ascii	"AWD3CR\000"
 18895      435200
 18896              	.LASF594:
 18897 0371 54524E47 		.ascii	"TRNG_READY\000"
 18897      5F524541 
 18897      445900
 18898              	.LASF655:
 18899 037c 72657376 		.ascii	"resvd14\000"
 18899      64313400 
 18900              	.LASF694:
 18901 0384 48505458 		.ascii	"HPTXSTS\000"
 18901      53545300 
 18902              	.LASF774:
ARM GAS  /tmp/ccDQUTww.s 			page 336


 18903 038c 53445241 		.ascii	"SDRAMD1\000"
 18903      4D443100 
 18904              	.LASF777:
 18905 0394 6F627157 		.ascii	"obqWriteTimeout\000"
 18905      72697465 
 18905      54696D65 
 18905      6F757400 
 18906              	.LASF434:
 18907 03a4 4F545950 		.ascii	"OTYPER\000"
 18907      455200
 18908              	.LASF580:
 18909 03ab 73706973 		.ascii	"spistate_t\000"
 18909      74617465 
 18909      5F7400
 18910              	.LASF554:
 18911 03b6 5344435F 		.ascii	"SDC_MODE_1BIT\000"
 18911      4D4F4445 
 18911      5F314249 
 18911      5400
 18912              	.LASF650:
 18913 03c4 48434348 		.ascii	"HCCHAR\000"
 18913      415200
 18914              	.LASF252:
 18915 03cb 54494D45 		.ascii	"TIMEOUTR\000"
 18915      4F555452 
 18915      00
 18916              	.LASF498:
 18917 03d4 4932435F 		.ascii	"I2C_ACTIVE_RX\000"
 18917      41435449 
 18917      56455F52 
 18917      5800
 18918              	.LASF145:
 18919 03e2 74687265 		.ascii	"thread_t\000"
 18919      61645F74 
 18919      00
 18920              	.LASF819:
 18921 03eb 63685468 		.ascii	"chThdEnqueueTimeoutS\000"
 18921      64456E71 
 18921      75657565 
 18921      54696D65 
 18921      6F757453 
 18922              	.LASF514:
 18923 0400 70776D73 		.ascii	"pwmstate_t\000"
 18923      74617465 
 18923      5F7400
 18924              	.LASF178:
 18925 040b 63685F76 		.ascii	"ch_virtual_timers_list\000"
 18925      69727475 
 18925      616C5F74 
 18925      696D6572 
 18925      735F6C69 
 18926              	.LASF376:
 18927 0422 76656374 		.ascii	"vector\000"
 18927      6F7200
 18928              	.LASF676:
 18929 0429 47494E54 		.ascii	"GINTSTS\000"
 18929      53545300 
ARM GAS  /tmp/ccDQUTww.s 			page 337


 18930              	.LASF131:
 18931 0431 696E7433 		.ascii	"int32_t\000"
 18931      325F7400 
 18932              	.LASF189:
 18933 0439 73797374 		.ascii	"systime_t\000"
 18933      696D655F 
 18933      7400
 18934              	.LASF95:
 18935 0443 5F5F4649 		.ascii	"__FILE\000"
 18935      4C4500
 18936              	.LASF54:
 18937 044a 5F5F7346 		.ascii	"__sFILE_fake\000"
 18937      494C455F 
 18937      66616B65 
 18937      00
 18938              	.LASF238:
 18939 0457 4D304152 		.ascii	"M0AR\000"
 18939      00
 18940              	.LASF657:
 18941 045c 72657376 		.ascii	"resvd1c\000"
 18941      64316300 
 18942              	.LASF501:
 18943 0464 69326366 		.ascii	"i2cflags_t\000"
 18943      6C616773 
 18943      5F7400
 18944              	.LASF695:
 18945 046f 4841494E 		.ascii	"HAINT\000"
 18945      5400
 18946              	.LASF323:
 18947 0475 74696D65 		.ascii	"timesize\000"
 18947      73697A65 
 18947      00
 18948              	.LASF759:
 18949 047e 53445254 		.ascii	"SDRTR\000"
 18949      5200
 18950              	.LASF824:
 18951 0484 6D656D63 		.ascii	"memcpy\000"
 18951      707900
 18952              	.LASF800:
 18953 048b 69627147 		.ascii	"ibqGetEmptyBufferI\000"
 18953      6574456D 
 18953      70747942 
 18953      75666665 
 18953      724900
 18954              	.LASF692:
 18955 049e 48464E55 		.ascii	"HFNUM\000"
 18955      4D00
 18956              	.LASF789:
 18957 04a4 6F6E6679 		.ascii	"onfy\000"
 18957      00
 18958              	.LASF582:
 18959 04a9 68616C5F 		.ascii	"hal_spi_driver\000"
 18959      7370695F 
 18959      64726976 
 18959      657200
 18960              	.LASF429:
 18961 04b8 716E6F74 		.ascii	"qnotify_t\000"
ARM GAS  /tmp/ccDQUTww.s 			page 338


 18961      6966795F 
 18961      7400
 18962              	.LASF449:
 18963 04c2 61646373 		.ascii	"adcstate_t\000"
 18963      74617465 
 18963      5F7400
 18964              	.LASF756:
 18965 04cd 53445452 		.ascii	"SDTR1\000"
 18965      3100
 18966              	.LASF757:
 18967 04d3 53445452 		.ascii	"SDTR2\000"
 18967      3200
 18968              	.LASF605:
 18969 04d9 696E5F70 		.ascii	"in_params\000"
 18969      6172616D 
 18969      7300
 18970              	.LASF424:
 18971 04e3 715F746F 		.ascii	"q_top\000"
 18971      7000
 18972              	.LASF57:
 18973 04e9 5F6C6266 		.ascii	"_lbfsize\000"
 18973      73697A65 
 18973      00
 18974              	.LASF643:
 18975 04f2 75645F73 		.ascii	"ud_string\000"
 18975      7472696E 
 18975      6700
 18976              	.LASF504:
 18977 04fc 49324344 		.ascii	"I2CDriver\000"
 18977      72697665 
 18977      7200
 18978              	.LASF497:
 18979 0506 4932435F 		.ascii	"I2C_ACTIVE_TX\000"
 18979      41435449 
 18979      56455F54 
 18979      5800
 18980              	.LASF155:
 18981 0514 72656673 		.ascii	"refs\000"
 18981      00
 18982              	.LASF549:
 18983 0519 72656164 		.ascii	"read\000"
 18983      00
 18984              	.LASF610:
 18985 051e 65703065 		.ascii	"ep0endcb\000"
 18985      6E646362 
 18985      00
 18986              	.LASF704:
 18987 0527 72657376 		.ascii	"resvd80C\000"
 18987      64383043 
 18987      00
 18988              	.LASF159:
 18989 0530 6D74786C 		.ascii	"mtxlist\000"
 18989      69737400 
 18990              	.LASF671:
 18991 0538 474F5447 		.ascii	"GOTGCTL\000"
 18991      43544C00 
 18992              	.LASF646:
ARM GAS  /tmp/ccDQUTww.s 			page 339


 18993 0540 75736265 		.ascii	"usbepcallback_t\000"
 18993      7063616C 
 18993      6C626163 
 18993      6B5F7400 
 18994              	.LASF58:
 18995 0550 5F646174 		.ascii	"_data\000"
 18995      6100
 18996              	.LASF187:
 18997 0556 76746C69 		.ascii	"vtlist\000"
 18997      737400
 18998              	.LASF593:
 18999 055d 54524E47 		.ascii	"TRNG_STOP\000"
 18999      5F53544F 
 18999      5000
 19000              	.LASF710:
 19001 0567 72657376 		.ascii	"resvd824\000"
 19001      64383234 
 19001      00
 19002              	.LASF421:
 19003 0570 715F7761 		.ascii	"q_waiting\000"
 19003      6974696E 
 19003      6700
 19004              	.LASF186:
 19005 057a 726C6973 		.ascii	"rlist\000"
 19005      7400
 19006              	.LASF163:
 19007 0580 74687265 		.ascii	"threads_list_t\000"
 19007      6164735F 
 19007      6C697374 
 19007      5F7400
 19008              	.LASF307:
 19009 058f 746D5F63 		.ascii	"tm_calibration_t\000"
 19009      616C6962 
 19009      72617469 
 19009      6F6E5F74 
 19009      00
 19010              	.LASF430:
 19011 05a0 696E7075 		.ascii	"input_queue_t\000"
 19011      745F7175 
 19011      6575655F 
 19011      7400
 19012              	.LASF466:
 19013 05ae 41444343 		.ascii	"ADCConversionGroup\000"
 19013      6F6E7665 
 19013      7273696F 
 19013      6E47726F 
 19013      757000
 19014              	.LASF121:
 19015 05c1 5F5F6C6F 		.ascii	"__lock\000"
 19015      636B00
 19016              	.LASF59:
 19017 05c8 5F726565 		.ascii	"_reent\000"
 19017      6E7400
 19018              	.LASF739:
 19019 05cf 696E5F63 		.ascii	"in_cb\000"
 19019      6200
 19020              	.LASF78:
ARM GAS  /tmp/ccDQUTww.s 			page 340


 19021 05d5 5F5F7366 		.ascii	"__sf\000"
 19021      00
 19022              	.LASF709:
 19023 05da 72657376 		.ascii	"resvd820\000"
 19023      64383230 
 19023      00
 19024              	.LASF52:
 19025 05e3 5F626173 		.ascii	"_base\000"
 19025      6500
 19026              	.LASF260:
 19027 05e9 52455350 		.ascii	"RESP1\000"
 19027      3100
 19028              	.LASF261:
 19029 05ef 52455350 		.ascii	"RESP2\000"
 19029      3200
 19030              	.LASF262:
 19031 05f5 52455350 		.ascii	"RESP3\000"
 19031      3300
 19032              	.LASF263:
 19033 05fb 52455350 		.ascii	"RESP4\000"
 19033      3400
 19034              	.LASF113:
 19035 0601 5F6D6274 		.ascii	"_mbtowc_state\000"
 19035      6F77635F 
 19035      73746174 
 19035      6500
 19036              	.LASF445:
 19037 060f 4144435F 		.ascii	"ADC_READY\000"
 19037      52454144 
 19037      5900
 19038              	.LASF494:
 19039 0619 4932435F 		.ascii	"I2C_UNINIT\000"
 19039      554E494E 
 19039      495400
 19040              	.LASF648:
 19041 0624 75736272 		.ascii	"usbreqhandler_t\000"
 19041      65716861 
 19041      6E646C65 
 19041      725F7400 
 19042              	.LASF447:
 19043 0634 4144435F 		.ascii	"ADC_COMPLETE\000"
 19043      434F4D50 
 19043      4C455445 
 19043      00
 19044              	.LASF536:
 19045 0641 53445F55 		.ascii	"SD_UNINIT\000"
 19045      4E494E49 
 19045      5400
 19046              	.LASF139:
 19047 064b 74707269 		.ascii	"tprio_t\000"
 19047      6F5F7400 
 19048              	.LASF615:
 19049 0653 73617665 		.ascii	"saved_state\000"
 19049      645F7374 
 19049      61746500 
 19050              	.LASF464:
 19051 065f 64696673 		.ascii	"difsel\000"
ARM GAS  /tmp/ccDQUTww.s 			page 341


 19051      656C00
 19052              	.LASF713:
 19053 0666 72657376 		.ascii	"resvd830\000"
 19053      64383330 
 19053      00
 19054              	.LASF32:
 19055 066f 5F5F746D 		.ascii	"__tm\000"
 19055      00
 19056              	.LASF359:
 19057 0674 63685F64 		.ascii	"ch_dyn_list\000"
 19057      796E5F6C 
 19057      69737400 
 19058              	.LASF763:
 19059 0680 73647261 		.ascii	"sdram\000"
 19059      6D00
 19060              	.LASF715:
 19061 0686 72657376 		.ascii	"resvd838\000"
 19061      64383338 
 19061      00
 19062              	.LASF463:
 19063 068f 68616C5F 		.ascii	"hal_adc_config\000"
 19063      6164635F 
 19063      636F6E66 
 19063      696700
 19064              	.LASF251:
 19065 069e 54494D49 		.ascii	"TIMINGR\000"
 19065      4E475200 
 19066              	.LASF230:
 19067 06a6 44494653 		.ascii	"DIFSEL\000"
 19067      454C00
 19068              	.LASF456:
 19069 06ad 74687265 		.ascii	"thread\000"
 19069      616400
 19070              	.LASF611:
 19071 06b4 73657475 		.ascii	"setup\000"
 19071      7000
 19072              	.LASF575:
 19073 06ba 5350495F 		.ascii	"SPI_UNINIT\000"
 19073      554E494E 
 19073      495400
 19074              	.LASF320:
 19075 06c5 7A65726F 		.ascii	"zero\000"
 19075      00
 19076              	.LASF403:
 19077 06ca 626C6B5F 		.ascii	"blk_size\000"
 19077      73697A65 
 19077      00
 19078              	.LASF496:
 19079 06d3 4932435F 		.ascii	"I2C_READY\000"
 19079      52454144 
 19079      5900
 19080              	.LASF193:
 19081 06dd 53797374 		.ascii	"SystemD2Clock\000"
 19081      656D4432 
 19081      436C6F63 
 19081      6B00
 19082              	.LASF716:
ARM GAS  /tmp/ccDQUTww.s 			page 342


 19083 06eb 72657376 		.ascii	"resvd83C\000"
 19083      64383343 
 19083      00
 19084              	.LASF40:
 19085 06f4 5F5F746D 		.ascii	"__tm_yday\000"
 19085      5F796461 
 19085      7900
 19086              	.LASF387:
 19087 06fe 43434552 		.ascii	"CCER\000"
 19087      00
 19088              	.LASF412:
 19089 0703 6273697A 		.ascii	"bsize\000"
 19089      6500
 19090              	.LASF511:
 19091 0709 50574D5F 		.ascii	"PWM_UNINIT\000"
 19091      554E494E 
 19091      495400
 19092              	.LASF298:
 19093 0714 74797065 		.ascii	"type\000"
 19093      00
 19094              	.LASF673:
 19095 0719 47414842 		.ascii	"GAHBCFG\000"
 19095      43464700 
 19096              	.LASF25:
 19097 0721 5F4C4F43 		.ascii	"_LOCK_T\000"
 19097      4B5F5400 
 19098              	.LASF717:
 19099 0729 72657376 		.ascii	"resvd840\000"
 19099      64383430 
 19099      00
 19100              	.LASF398:
 19101 0732 424C4B5F 		.ascii	"BLK_READY\000"
 19101      52454144 
 19101      5900
 19102              	.LASF9:
 19103 073c 5F5F7569 		.ascii	"__uint16_t\000"
 19103      6E743136 
 19103      5F7400
 19104              	.LASF269:
 19105 0747 41434B54 		.ascii	"ACKTIME\000"
 19105      494D4500 
 19106              	.LASF670:
 19107 074f 73746D33 		.ascii	"stm32_otg_out_ep_t\000"
 19107      325F6F74 
 19107      675F6F75 
 19107      745F6570 
 19107      5F7400
 19108              	.LASF679:
 19109 0762 47525853 		.ascii	"GRXSTSP\000"
 19109      54535000 
 19110              	.LASF678:
 19111 076a 47525853 		.ascii	"GRXSTSR\000"
 19111      54535200 
 19112              	.LASF818:
 19113 0772 63685468 		.ascii	"chThdDequeueAllI\000"
 19113      64446571 
 19113      75657565 
ARM GAS  /tmp/ccDQUTww.s 			page 343


 19113      416C6C49 
 19113      00
 19114              	.LASF239:
 19115 0783 4D314152 		.ascii	"M1AR\000"
 19115      00
 19116              	.LASF775:
 19117 0788 6F627170 		.ascii	"obqp\000"
 19117      00
 19118              	.LASF240:
 19119 078d 444D415F 		.ascii	"DMA_Stream_TypeDef\000"
 19119      53747265 
 19119      616D5F54 
 19119      79706544 
 19119      656600
 19120              	.LASF623:
 19121 07a0 5553425F 		.ascii	"USB_ACTIVE\000"
 19121      41435449 
 19121      564500
 19122              	.LASF620:
 19123 07ab 5553425F 		.ascii	"USB_STOP\000"
 19123      53544F50 
 19123      00
 19124              	.LASF149:
 19125 07b4 6E657765 		.ascii	"newer\000"
 19125      7200
 19126              	.LASF592:
 19127 07ba 54524E47 		.ascii	"TRNG_UNINIT\000"
 19127      5F554E49 
 19127      4E495400 
 19128              	.LASF666:
 19129 07c6 73746D33 		.ascii	"stm32_otg_in_ep_t\000"
 19129      325F6F74 
 19129      675F696E 
 19129      5F65705F 
 19129      7400
 19130              	.LASF443:
 19131 07d8 4144435F 		.ascii	"ADC_UNINIT\000"
 19131      554E494E 
 19131      495400
 19132              	.LASF508:
 19133 07e3 7278646D 		.ascii	"rxdmamode\000"
 19133      616D6F64 
 19133      6500
 19134              	.LASF106:
 19135 07ed 5F726573 		.ascii	"_result_k\000"
 19135      756C745F 
 19135      6B00
 19136              	.LASF525:
 19137 07f7 6D6F6465 		.ascii	"mode\000"
 19137      00
 19138              	.LASF63:
 19139 07fc 5F737464 		.ascii	"_stderr\000"
 19139      65727200 
 19140              	.LASF105:
 19141 0804 5F726573 		.ascii	"_result\000"
 19141      756C7400 
 19142              	.LASF812:
ARM GAS  /tmp/ccDQUTww.s 			page 344


 19143 080c 71756575 		.ascii	"queue_init\000"
 19143      655F696E 
 19143      697400
 19144              	.LASF44:
 19145 0817 5F64736F 		.ascii	"_dso_handle\000"
 19145      5F68616E 
 19145      646C6500 
 19146              	.LASF686:
 19147 0823 72657376 		.ascii	"resvd58\000"
 19147      64353800 
 19148              	.LASF586:
 19149 082b 73737061 		.ascii	"sspad\000"
 19149      6400
 19150              	.LASF509:
 19151 0831 7478646D 		.ascii	"txdmamode\000"
 19151      616D6F64 
 19151      6500
 19152              	.LASF417:
 19153 083b 696E7075 		.ascii	"input_buffers_queue_t\000"
 19153      745F6275 
 19153      66666572 
 19153      735F7175 
 19153      6575655F 
 19154              	.LASF39:
 19155 0851 5F5F746D 		.ascii	"__tm_wday\000"
 19155      5F776461 
 19155      7900
 19156              	.LASF41:
 19157 085b 5F5F746D 		.ascii	"__tm_isdst\000"
 19157      5F697364 
 19157      737400
 19158              	.LASF724:
 19159 0866 72785F66 		.ascii	"rx_fifo_size\000"
 19159      69666F5F 
 19159      73697A65 
 19159      00
 19160              	.LASF291:
 19161 0873 73746B61 		.ascii	"stkalign_t\000"
 19161      6C69676E 
 19161      5F7400
 19162              	.LASF803:
 19163 087e 696E6679 		.ascii	"infy\000"
 19163      00
 19164              	.LASF507:
 19165 0883 72786279 		.ascii	"rxbytes\000"
 19165      74657300 
 19166              	.LASF470:
 19167 088b 656E645F 		.ascii	"end_cb\000"
 19167      636200
 19168              	.LASF738:
 19169 0892 73657475 		.ascii	"setup_cb\000"
 19169      705F6362 
 19169      00
 19170              	.LASF7:
 19171 089b 756E7369 		.ascii	"unsigned char\000"
 19171      676E6564 
 19171      20636861 
ARM GAS  /tmp/ccDQUTww.s 			page 345


 19171      7200
 19172              	.LASF62:
 19173 08a9 5F737464 		.ascii	"_stdout\000"
 19173      6F757400 
 19174              	.LASF287:
 19175 08b1 52544F52 		.ascii	"RTOR\000"
 19175      00
 19176              	.LASF275:
 19177 08b6 4649464F 		.ascii	"FIFO\000"
 19177      00
 19178              	.LASF169:
 19179 08bb 72656164 		.ascii	"ready_list_t\000"
 19179      795F6C69 
 19179      73745F74 
 19179      00
 19180              	.LASF146:
 19181 08c8 63685F74 		.ascii	"ch_thread\000"
 19181      68726561 
 19181      6400
 19182              	.LASF392:
 19183 08d2 73746D33 		.ascii	"stm32_tim_t\000"
 19183      325F7469 
 19183      6D5F7400 
 19184              	.LASF607:
 19185 08de 65703073 		.ascii	"ep0state\000"
 19185      74617465 
 19185      00
 19186              	.LASF118:
 19187 08e7 5F6D6273 		.ascii	"_mbsrtowcs_state\000"
 19187      72746F77 
 19187      63735F73 
 19187      74617465 
 19187      00
 19188              	.LASF30:
 19189 08f8 5F776473 		.ascii	"_wds\000"
 19189      00
 19190              	.LASF79:
 19191 08fd 5F6D6973 		.ascii	"_misc\000"
 19191      6300
 19192              	.LASF791:
 19193 0903 69627170 		.ascii	"ibqp\000"
 19193      00
 19194              	.LASF123:
 19195 0908 5F5F7366 		.ascii	"__sf_fake_stdin\000"
 19195      5F66616B 
 19195      655F7374 
 19195      64696E00 
 19196              	.LASF53:
 19197 0918 5F73697A 		.ascii	"_size\000"
 19197      6500
 19198              	.LASF352:
 19199 091e 706F6F6C 		.ascii	"pool_header\000"
 19199      5F686561 
 19199      64657200 
 19200              	.LASF180:
 19201 092a 73797374 		.ascii	"system_debug_t\000"
 19201      656D5F64 
ARM GAS  /tmp/ccDQUTww.s 			page 346


 19201      65627567 
 19201      5F7400
 19202              	.LASF384:
 19203 0939 44494552 		.ascii	"DIER\000"
 19203      00
 19204              	.LASF349:
 19205 093e 746F706D 		.ascii	"topmem\000"
 19205      656D00
 19206              	.LASF539:
 19207 0945 73647374 		.ascii	"sdstate_t\000"
 19207      6174655F 
 19207      7400
 19208              	.LASF175:
 19209 094f 64656C74 		.ascii	"delta\000"
 19209      6100
 19210              	.LASF564:
 19211 0955 636C6B66 		.ascii	"clkfreq\000"
 19211      72657100 
 19212              	.LASF84:
 19213 095d 5F777269 		.ascii	"_write\000"
 19213      746500
 19214              	.LASF245:
 19215 0964 42444D41 		.ascii	"BDMA_Channel_TypeDef\000"
 19215      5F436861 
 19215      6E6E656C 
 19215      5F547970 
 19215      65446566 
 19216              	.LASF778:
 19217 0979 74696D65 		.ascii	"timeout\000"
 19217      6F757400 
 19218              	.LASF133:
 19219 0981 75696E74 		.ascii	"uint64_t\000"
 19219      36345F74 
 19219      00
 19220              	.LASF337:
 19221 098a 63685F64 		.ascii	"ch_debug\000"
 19221      65627567 
 19221      00
 19222              	.LASF734:
 19223 0993 7278636E 		.ascii	"rxcnt\000"
 19223      7400
 19224              	.LASF729:
 19225 0999 7478636E 		.ascii	"txcnt\000"
 19225      7400
 19226              	.LASF647:
 19227 099f 75736265 		.ascii	"usbeventcb_t\000"
 19227      76656E74 
 19227      63625F74 
 19227      00
 19228              	.LASF395:
 19229 09ac 424C4B5F 		.ascii	"BLK_ACTIVE\000"
 19229      41435449 
 19229      564500
 19230              	.LASF38:
 19231 09b7 5F5F746D 		.ascii	"__tm_year\000"
 19231      5F796561 
 19231      7200
ARM GAS  /tmp/ccDQUTww.s 			page 347


 19232              	.LASF339:
 19233 09c1 6576656E 		.ascii	"event_listener_t\000"
 19233      745F6C69 
 19233      7374656E 
 19233      65725F74 
 19233      00
 19234              	.LASF725:
 19235 09d2 6F74675F 		.ascii	"otg_ram_size\000"
 19235      72616D5F 
 19235      73697A65 
 19235      00
 19236              	.LASF768:
 19237 09df 46534D43 		.ascii	"FSMCD1\000"
 19237      443100
 19238              	.LASF500:
 19239 09e6 69326373 		.ascii	"i2cstate_t\000"
 19239      74617465 
 19239      5F7400
 19240              	.LASF727:
 19241 09f1 73746D33 		.ascii	"stm32_otg_params_t\000"
 19241      325F6F74 
 19241      675F7061 
 19241      72616D73 
 19241      5F7400
 19242              	.LASF720:
 19243 0a04 72657376 		.ascii	"resvdD00\000"
 19243      64443030 
 19243      00
 19244              	.LASF735:
 19245 0a0d 72786275 		.ascii	"rxbuf\000"
 19245      6600
 19246              	.LASF101:
 19247 0a13 5F6D756C 		.ascii	"_mult\000"
 19247      7400
 19248              	.LASF316:
 19249 0a19 63685F6D 		.ascii	"ch_mutex\000"
 19249      75746578 
 19249      00
 19250              	.LASF515:
 19251 0a22 50574D44 		.ascii	"PWMDriver\000"
 19251      72697665 
 19251      7200
 19252              	.LASF530:
 19253 0a2c 50574D43 		.ascii	"PWMConfig\000"
 19253      6F6E6669 
 19253      6700
 19254              	.LASF116:
 19255 0a36 5F6D6272 		.ascii	"_mbrlen_state\000"
 19255      6C656E5F 
 19255      73746174 
 19255      6500
 19256              	.LASF802:
 19257 0a44 6962714F 		.ascii	"ibqObjectInit\000"
 19257      626A6563 
 19257      74496E69 
 19257      7400
 19258              	.LASF705:
ARM GAS  /tmp/ccDQUTww.s 			page 348


 19259 0a52 44494550 		.ascii	"DIEPMSK\000"
 19259      4D534B00 
 19260              	.LASF748:
 19261 0a5a 6576656E 		.ascii	"event_cb\000"
 19261      745F6362 
 19261      00
 19262              	.LASF740:
 19263 0a63 6F75745F 		.ascii	"out_cb\000"
 19263      636200
 19264              	.LASF696:
 19265 0a6a 4841494E 		.ascii	"HAINTMSK\000"
 19265      544D534B 
 19265      00
 19266              	.LASF606:
 19267 0a73 6F75745F 		.ascii	"out_params\000"
 19267      70617261 
 19267      6D7300
 19268              	.LASF703:
 19269 0a7e 44535453 		.ascii	"DSTS\000"
 19269      00
 19270              	.LASF210:
 19271 0a83 4A535152 		.ascii	"JSQR\000"
 19271      00
 19272              	.LASF61:
 19273 0a88 5F737464 		.ascii	"_stdin\000"
 19273      696E00
 19274              	.LASF362:
 19275 0a8f 6F626A5F 		.ascii	"obj_list\000"
 19275      6C697374 
 19275      00
 19276              	.LASF529:
 19277 0a98 64696572 		.ascii	"dier\000"
 19277      00
 19278              	.LASF569:
 19279 0a9d 69735F70 		.ascii	"is_protected\000"
 19279      726F7465 
 19279      63746564 
 19279      00
 19280              	.LASF366:
 19281 0aaa 73656D5F 		.ascii	"sem_pool\000"
 19281      706F6F6C 
 19281      00
 19282              	.LASF415:
 19283 0ab3 6C696E6B 		.ascii	"link\000"
 19283      00
 19284              	.LASF173:
 19285 0ab8 76697274 		.ascii	"virtual_timer_t\000"
 19285      75616C5F 
 19285      74696D65 
 19285      725F7400 
 19286              	.LASF512:
 19287 0ac8 50574D5F 		.ascii	"PWM_STOP\000"
 19287      53544F50 
 19287      00
 19288              	.LASF374:
 19289 0ad1 73686966 		.ascii	"shift\000"
 19289      7400
ARM GAS  /tmp/ccDQUTww.s 			page 349


 19290              	.LASF135:
 19291 0ad7 7274636E 		.ascii	"rtcnt_t\000"
 19291      745F7400 
 19292              	.LASF457:
 19293 0adf 6D757465 		.ascii	"mutex\000"
 19293      7800
 19294              	.LASF303:
 19295 0ae5 73697A65 		.ascii	"size\000"
 19295      00
 19296              	.LASF796:
 19297 0aea 6F627147 		.ascii	"obqGetEmptyBufferTimeoutS\000"
 19297      6574456D 
 19297      70747942 
 19297      75666665 
 19297      7254696D 
 19298              	.LASF318:
 19299 0b04 63685F69 		.ascii	"ch_idle_thread_wa\000"
 19299      646C655F 
 19299      74687265 
 19299      61645F77 
 19299      6100
 19300              	.LASF407:
 19301 0b16 696F5F62 		.ascii	"io_buffers_queue\000"
 19301      75666665 
 19301      72735F71 
 19301      75657565 
 19301      00
 19302              	.LASF273:
 19303 0b27 49444D41 		.ascii	"IDMABASE0\000"
 19303      42415345 
 19303      3000
 19304              	.LASF274:
 19305 0b31 49444D41 		.ascii	"IDMABASE1\000"
 19305      42415345 
 19305      3100
 19306              	.LASF519:
 19307 0b3b 636C6F63 		.ascii	"clock\000"
 19307      6B00
 19308              	.LASF317:
 19309 0b41 6F776E65 		.ascii	"owner\000"
 19309      7200
 19310              	.LASF391:
 19311 0b47 43435852 		.ascii	"CCXR\000"
 19311      00
 19312              	.LASF409:
 19313 0b4c 62777270 		.ascii	"bwrptr\000"
 19313      747200
 19314              	.LASF283:
 19315 0b53 55445244 		.ascii	"UDRDR\000"
 19315      5200
 19316              	.LASF17:
 19317 0b59 5F6F6666 		.ascii	"_off_t\000"
 19317      5F7400
 19318              	.LASF660:
 19319 0b60 72657376 		.ascii	"resvd4\000"
 19319      643400
 19320              	.LASF537:
ARM GAS  /tmp/ccDQUTww.s 			page 350


 19321 0b67 53445F53 		.ascii	"SD_STOP\000"
 19321      544F5000 
 19322              	.LASF246:
 19323 0b6f 49464352 		.ascii	"IFCR\000"
 19323      00
 19324              	.LASF651:
 19325 0b74 72657376 		.ascii	"resvd8\000"
 19325      643800
 19326              	.LASF3:
 19327 0b7b 73697A65 		.ascii	"size_t\000"
 19327      5F7400
 19328              	.LASF74:
 19329 0b82 5F6C6F63 		.ascii	"_localtime_buf\000"
 19329      616C7469 
 19329      6D655F62 
 19329      756600
 19330              	.LASF718:
 19331 0b91 72657376 		.ascii	"resvd880\000"
 19331      64383830 
 19331      00
 19332              	.LASF767:
 19333 0b9a 66736D63 		.ascii	"fsmcstate_t\000"
 19333      73746174 
 19333      655F7400 
 19334              	.LASF21:
 19335 0ba6 5F5F636F 		.ascii	"__count\000"
 19335      756E7400 
 19336              	.LASF319:
 19337 0bae 6964656E 		.ascii	"identifier\000"
 19337      74696669 
 19337      657200
 19338              	.LASF129:
 19339 0bb9 75696E74 		.ascii	"uint8_t\000"
 19339      385F7400 
 19340              	.LASF459:
 19341 0bc1 61646363 		.ascii	"adcc\000"
 19341      00
 19342              	.LASF656:
 19343 0bc6 72657376 		.ascii	"resvd18\000"
 19343      64313800 
 19344              	.LASF458:
 19345 0bce 6164636D 		.ascii	"adcm\000"
 19345      00
 19346              	.LASF418:
 19347 0bd3 6F757470 		.ascii	"output_buffers_queue_t\000"
 19347      75745F62 
 19347      75666665 
 19347      72735F71 
 19347      75657565 
 19348              	.LASF527:
 19349 0bea 50574D43 		.ascii	"PWMChannelConfig\000"
 19349      68616E6E 
 19349      656C436F 
 19349      6E666967 
 19349      00
 19350              	.LASF524:
 19351 0bfb 70776D63 		.ascii	"pwmcnt_t\000"
ARM GAS  /tmp/ccDQUTww.s 			page 351


 19351      6E745F74 
 19351      00
 19352              	.LASF353:
 19353 0c04 6F626A65 		.ascii	"object_size\000"
 19353      63745F73 
 19353      697A6500 
 19354              	.LASF714:
 19355 0c10 44494550 		.ascii	"DIEPEMPMSK\000"
 19355      454D504D 
 19355      534B00
 19356              	.LASF821:
 19357 0c1b 2E2E2F2E 		.ascii	"../../../external/ChibiOS/os/hal/src/hal_buffers.c\000"
 19357      2E2F2E2E 
 19357      2F657874 
 19357      65726E61 
 19357      6C2F4368 
 19358              	.LASF659:
 19359 0c4e 44494550 		.ascii	"DIEPCTL\000"
 19359      43544C00 
 19360              	.LASF616:
 19361 0c56 6F746770 		.ascii	"otgparams\000"
 19361      6172616D 
 19361      7300
 19362              	.LASF309:
 19363 0c60 65786974 		.ascii	"exitcode\000"
 19363      636F6465 
 19363      00
 19364              	.LASF72:
 19365 0c69 5F637674 		.ascii	"_cvtbuf\000"
 19365      62756600 
 19366              	.LASF744:
 19367 0c71 6F75745F 		.ascii	"out_state\000"
 19367      73746174 
 19367      6500
 19368              	.LASF419:
 19369 0c7b 696F5F71 		.ascii	"io_queue_t\000"
 19369      75657565 
 19369      5F7400
 19370              	.LASF368:
 19371 0c86 6669666F 		.ascii	"fifo_list\000"
 19371      5F6C6973 
 19371      7400
 19372              	.LASF495:
 19373 0c90 4932435F 		.ascii	"I2C_STOP\000"
 19373      53544F50 
 19373      00
 19374              	.LASF484:
 19375 0c99 4144435F 		.ascii	"ADC_ERR_DMAFAILURE\000"
 19375      4552525F 
 19375      444D4146 
 19375      41494C55 
 19375      524500
 19376              	.LASF578:
 19377 0cac 5350495F 		.ascii	"SPI_ACTIVE\000"
 19377      41435449 
 19377      564500
 19378              	.LASF425:
ARM GAS  /tmp/ccDQUTww.s 			page 352


 19379 0cb7 715F7772 		.ascii	"q_wrptr\000"
 19379      70747200 
 19380              	.LASF341:
 19381 0cbf 6C697374 		.ascii	"listener\000"
 19381      656E6572 
 19381      00
 19382              	.LASF760:
 19383 0cc8 53445352 		.ascii	"SDSR\000"
 19383      00
 19384              	.LASF286:
 19385 0ccd 47545052 		.ascii	"GTPR\000"
 19385      00
 19386              	.LASF784:
 19387 0cd2 6F627152 		.ascii	"obqReleaseEmptyBufferI\000"
 19387      656C6561 
 19387      7365456D 
 19387      70747942 
 19387      75666665 
 19388              	.LASF435:
 19389 0ce9 4F535045 		.ascii	"OSPEEDR\000"
 19389      45445200 
 19390              	.LASF683:
 19391 0cf1 72657376 		.ascii	"resvd30\000"
 19391      64333000 
 19392              	.LASF20:
 19393 0cf9 5F5F7763 		.ascii	"__wchb\000"
 19393      686200
 19394              	.LASF117:
 19395 0d00 5F6D6272 		.ascii	"_mbrtowc_state\000"
 19395      746F7763 
 19395      5F737461 
 19395      746500
 19396              	.LASF712:
 19397 0d0f 44564255 		.ascii	"DVBUSPULSE\000"
 19397      5350554C 
 19397      534500
 19398              	.LASF35:
 19399 0d1a 5F5F746D 		.ascii	"__tm_hour\000"
 19399      5F686F75 
 19399      7200
 19400              	.LASF200:
 19401 0d24 4C545231 		.ascii	"LTR1\000"
 19401      00
 19402              	.LASF226:
 19403 0d29 4C545232 		.ascii	"LTR2\000"
 19403      00
 19404              	.LASF228:
 19405 0d2e 4C545233 		.ascii	"LTR3\000"
 19405      00
 19406              	.LASF546:
 19407 0d33 53657269 		.ascii	"SerialDriverVMT\000"
 19407      616C4472 
 19407      69766572 
 19407      564D5400 
 19408              	.LASF242:
 19409 0d43 43504152 		.ascii	"CPAR\000"
 19409      00
ARM GAS  /tmp/ccDQUTww.s 			page 353


 19410              	.LASF322:
 19411 0d48 70747273 		.ascii	"ptrsize\000"
 19411      697A6500 
 19412              	.LASF632:
 19413 0d50 5553425F 		.ascii	"USB_EP0_ERROR\000"
 19413      4550305F 
 19413      4552524F 
 19413      5200
 19414              	.LASF631:
 19415 0d5e 5553425F 		.ascii	"USB_EP0_OUT_RX\000"
 19415      4550305F 
 19415      4F55545F 
 19415      525800
 19416              	.LASF4:
 19417 0d6d 77696E74 		.ascii	"wint_t\000"
 19417      5F7400
 19418              	.LASF570:
 19419 0d74 636F6E6E 		.ascii	"connect\000"
 19419      65637400 
 19420              	.LASF450:
 19421 0d7c 41444344 		.ascii	"ADCDriver\000"
 19421      72697665 
 19421      7200
 19422              	.LASF726:
 19423 0d86 6E756D5F 		.ascii	"num_endpoints\000"
 19423      656E6470 
 19423      6F696E74 
 19423      7300
 19424              	.LASF462:
 19425 0d94 41444343 		.ascii	"ADCConfig\000"
 19425      6F6E6669 
 19425      6700
 19426              	.LASF731:
 19427 0d9e 746F7473 		.ascii	"totsize\000"
 19427      697A6500 
 19428              	.LASF97:
 19429 0da6 5F6E696F 		.ascii	"_niobs\000"
 19429      627300
 19430              	.LASF272:
 19431 0dad 49444D41 		.ascii	"IDMABSIZE\000"
 19431      4253495A 
 19431      4500
 19432              	.LASF595:
 19433 0db7 54524E47 		.ascii	"TRNG_RUNNING\000"
 19433      5F52554E 
 19433      4E494E47 
 19433      00
 19434              	.LASF649:
 19435 0dc4 75736267 		.ascii	"usbgetdescriptor_t\000"
 19435      65746465 
 19435      73637269 
 19435      70746F72 
 19435      5F7400
 19436              	.LASF60:
 19437 0dd7 5F657272 		.ascii	"_errno\000"
 19437      6E6F00
 19438              	.LASF199:
ARM GAS  /tmp/ccDQUTww.s 			page 354


 19439 0dde 50435345 		.ascii	"PCSEL\000"
 19439      4C00
 19440              	.LASF350:
 19441 0de4 6D656D63 		.ascii	"memcore_t\000"
 19441      6F72655F 
 19441      7400
 19442              	.LASF36:
 19443 0dee 5F5F746D 		.ascii	"__tm_mday\000"
 19443      5F6D6461 
 19443      7900
 19444              	.LASF373:
 19445 0df8 69666372 		.ascii	"ifcr\000"
 19445      00
 19446              	.LASF742:
 19447 0dfd 6F75745F 		.ascii	"out_maxsize\000"
 19447      6D617873 
 19447      697A6500 
 19448              	.LASF255:
 19449 0e09 54584452 		.ascii	"TXDR\000"
 19449      00
 19450              	.LASF441:
 19451 0e0e 73746D33 		.ascii	"stm32_gpio_t\000"
 19451      325F6770 
 19451      696F5F74 
 19451      00
 19452              	.LASF308:
 19453 0e1b 7264796D 		.ascii	"rdymsg\000"
 19453      736700
 19454              	.LASF43:
 19455 0e22 5F666E61 		.ascii	"_fnargs\000"
 19455      72677300 
 19456              	.LASF513:
 19457 0e2a 50574D5F 		.ascii	"PWM_READY\000"
 19457      52454144 
 19457      5900
 19458              	.LASF469:
 19459 0e34 6E756D5F 		.ascii	"num_channels\000"
 19459      6368616E 
 19459      6E656C73 
 19459      00
 19460              	.LASF369:
 19461 0e41 70697065 		.ascii	"pipe_list\000"
 19461      5F6C6973 
 19461      7400
 19462              	.LASF732:
 19463 0e4b 55534249 		.ascii	"USBInEndpointState\000"
 19463      6E456E64 
 19463      706F696E 
 19463      74537461 
 19463      746500
 19464              	.LASF543:
 19465 0e5e 6F717565 		.ascii	"oqueue\000"
 19465      756500
 19466              	.LASF766:
 19467 0e65 46534D43 		.ascii	"FSMC_READY\000"
 19467      5F524541 
 19467      445900
ARM GAS  /tmp/ccDQUTww.s 			page 355


 19468              	.LASF420:
 19469 0e70 696F5F71 		.ascii	"io_queue\000"
 19469      75657565 
 19469      00
 19470              	.LASF15:
 19471 0e79 5F5F7569 		.ascii	"__uint64_t\000"
 19471      6E743634 
 19471      5F7400
 19472              	.LASF325:
 19473 0e84 6F66665F 		.ascii	"off_prio\000"
 19473      7072696F 
 19473      00
 19474              	.LASF360:
 19475 0e8d 64796E5F 		.ascii	"dyn_list_t\000"
 19475      6C697374 
 19475      5F7400
 19476              	.LASF27:
 19477 0e98 5F6E6578 		.ascii	"_next\000"
 19477      7400
 19478              	.LASF520:
 19479 0e9e 70776D63 		.ascii	"pwmcallback_t\000"
 19479      616C6C62 
 19479      61636B5F 
 19479      7400
 19480              	.LASF227:
 19481 0eac 48545232 		.ascii	"HTR2\000"
 19481      00
 19482              	.LASF247:
 19483 0eb1 42444D41 		.ascii	"BDMA_TypeDef\000"
 19483      5F547970 
 19483      65446566 
 19483      00
 19484              	.LASF80:
 19485 0ebe 5F736967 		.ascii	"_signal_buf\000"
 19485      6E616C5F 
 19485      62756600 
 19486              	.LASF241:
 19487 0eca 434E4454 		.ascii	"CNDTR\000"
 19487      5200
 19488              	.LASF82:
 19489 0ed0 5F636F6F 		.ascii	"_cookie\000"
 19489      6B696500 
 19490              	.LASF804:
 19491 0ed8 6F73616C 		.ascii	"osalThreadDequeueAllI\000"
 19491      54687265 
 19491      61644465 
 19491      71756575 
 19491      65416C6C 
 19492              	.LASF788:
 19493 0eee 73697A65 		.ascii	"sizep\000"
 19493      7000
 19494              	.LASF475:
 19495 0ef4 6C747231 		.ascii	"ltr1\000"
 19495      00
 19496              	.LASF477:
 19497 0ef9 6C747232 		.ascii	"ltr2\000"
 19497      00
ARM GAS  /tmp/ccDQUTww.s 			page 356


 19498              	.LASF479:
 19499 0efe 6C747233 		.ascii	"ltr3\000"
 19499      00
 19500              	.LASF633:
 19501 0f03 75736265 		.ascii	"usbep0state_t\000"
 19501      70307374 
 19501      6174655F 
 19501      7400
 19502              	.LASF482:
 19503 0f11 61646373 		.ascii	"adcsample_t\000"
 19503      616D706C 
 19503      655F7400 
 19504              	.LASF560:
 19505 0f1d 53444344 		.ascii	"SDCDriver\000"
 19505      72697665 
 19505      7200
 19506              	.LASF423:
 19507 0f27 715F6275 		.ascii	"q_buffer\000"
 19507      66666572 
 19507      00
 19508              	.LASF566:
 19509 0f30 53444343 		.ascii	"SDCConfig\000"
 19509      6F6E6669 
 19509      6700
 19510              	.LASF510:
 19511 0f3a 49324344 		.ascii	"I2CD1\000"
 19511      3100
 19512              	.LASF293:
 19513 0f40 706F7274 		.ascii	"port_context\000"
 19513      5F636F6E 
 19513      74657874 
 19513      00
 19514              	.LASF254:
 19515 0f4d 52584452 		.ascii	"RXDR\000"
 19515      00
 19516              	.LASF602:
 19517 0f52 55534244 		.ascii	"USBDriver\000"
 19517      72697665 
 19517      7200
 19518              	.LASF719:
 19519 0f5c 72657376 		.ascii	"resvd8C0\000"
 19519      64384330 
 19519      00
 19520              	.LASF752:
 19521 0f65 55534243 		.ascii	"USBConfig\000"
 19521      6F6E6669 
 19521      6700
 19522              	.LASF662:
 19523 0f6f 72657376 		.ascii	"resvdC\000"
 19523      644300
 19524              	.LASF531:
 19525 0f76 50574D44 		.ascii	"PWMD1\000"
 19525      3100
 19526              	.LASF380:
 19527 0f7c 6368616E 		.ascii	"channel\000"
 19527      6E656C00 
 19528              	.LASF533:
ARM GAS  /tmp/ccDQUTww.s 			page 357


 19529 0f84 50574D44 		.ascii	"PWMD4\000"
 19529      3400
 19530              	.LASF534:
 19531 0f8a 50574D44 		.ascii	"PWMD5\000"
 19531      3500
 19532              	.LASF281:
 19533 0f90 54584352 		.ascii	"TXCRC\000"
 19533      4300
 19534              	.LASF535:
 19535 0f96 50574D44 		.ascii	"PWMD8\000"
 19535      3800
 19536              	.LASF379:
 19537 0f9c 62646D61 		.ascii	"bdma\000"
 19537      00
 19538              	.LASF201:
 19539 0fa1 48545231 		.ascii	"HTR1\000"
 19539      00
 19540              	.LASF138:
 19541 0fa6 74726566 		.ascii	"trefs_t\000"
 19541      735F7400 
 19542              	.LASF229:
 19543 0fae 48545233 		.ascii	"HTR3\000"
 19543      00
 19544              	.LASF256:
 19545 0fb3 4932435F 		.ascii	"I2C_TypeDef\000"
 19545      54797065 
 19545      44656600 
 19546              	.LASF801:
 19547 0fbf 69627152 		.ascii	"ibqResetI\000"
 19547      65736574 
 19547      4900
 19548              	.LASF33:
 19549 0fc9 5F5F746D 		.ascii	"__tm_sec\000"
 19549      5F736563 
 19549      00
 19550              	.LASF745:
 19551 0fd2 696E5F6D 		.ascii	"in_multiplier\000"
 19551      756C7469 
 19551      706C6965 
 19551      7200
 19552              	.LASF448:
 19553 0fe0 4144435F 		.ascii	"ADC_ERROR\000"
 19553      4552524F 
 19553      5200
 19554              	.LASF42:
 19555 0fea 5F6F6E5F 		.ascii	"_on_exit_args\000"
 19555      65786974 
 19555      5F617267 
 19555      7300
 19556              	.LASF772:
 19557 0ff8 73647261 		.ascii	"sdramstate_t\000"
 19557      6D737461 
 19557      74655F74 
 19557      00
 19558              	.LASF136:
 19559 1005 746D6F64 		.ascii	"tmode_t\000"
 19559      655F7400 
ARM GAS  /tmp/ccDQUTww.s 			page 358


 19560              	.LASF414:
 19561 100d 6E6F7469 		.ascii	"notify\000"
 19561      667900
 19562              	.LASF204:
 19563 1014 53515231 		.ascii	"SQR1\000"
 19563      00
 19564              	.LASF205:
 19565 1019 53515232 		.ascii	"SQR2\000"
 19565      00
 19566              	.LASF206:
 19567 101e 53515233 		.ascii	"SQR3\000"
 19567      00
 19568              	.LASF207:
 19569 1023 53515234 		.ascii	"SQR4\000"
 19569      00
 19570              	.LASF437:
 19571 1028 42535252 		.ascii	"BSRR\000"
 19571      00
 19572              	.LASF377:
 19573 102d 73746D33 		.ascii	"stm32_dma_stream_t\000"
 19573      325F646D 
 19573      615F7374 
 19573      7265616D 
 19573      5F7400
 19574              	.LASF750:
 19575 1040 72657175 		.ascii	"requests_hook_cb\000"
 19575      65737473 
 19575      5F686F6F 
 19575      6B5F6362 
 19575      00
 19576              	.LASF119:
 19577 1051 5F776372 		.ascii	"_wcrtomb_state\000"
 19577      746F6D62 
 19577      5F737461 
 19577      746500
 19578              	.LASF556:
 19579 1060 5344435F 		.ascii	"SDC_MODE_8BIT\000"
 19579      4D4F4445 
 19579      5F384249 
 19579      5400
 19580              	.LASF212:
 19581 106e 4F465231 		.ascii	"OFR1\000"
 19581      00
 19582              	.LASF213:
 19583 1073 4F465232 		.ascii	"OFR2\000"
 19583      00
 19584              	.LASF214:
 19585 1078 4F465233 		.ascii	"OFR3\000"
 19585      00
 19586              	.LASF215:
 19587 107d 4F465234 		.ascii	"OFR4\000"
 19587      00
 19588              	.LASF728:
 19589 1082 74787369 		.ascii	"txsize\000"
 19589      7A6500
 19590              	.LASF754:
 19591 1089 53444352 		.ascii	"SDCR1\000"
ARM GAS  /tmp/ccDQUTww.s 			page 359


 19591      3100
 19592              	.LASF755:
 19593 108f 53444352 		.ascii	"SDCR2\000"
 19593      3200
 19594              	.LASF467:
 19595 1095 68616C5F 		.ascii	"hal_adc_configuration_group\000"
 19595      6164635F 
 19595      636F6E66 
 19595      69677572 
 19595      6174696F 
 19596              	.LASF516:
 19597 10b1 70657269 		.ascii	"period\000"
 19597      6F6400
 19598              	.LASF474:
 19599 10b8 70637365 		.ascii	"pcsel\000"
 19599      6C00
 19600              	.LASF499:
 19601 10be 4932435F 		.ascii	"I2C_LOCKED\000"
 19601      4C4F434B 
 19601      454400
 19602              	.LASF438:
 19603 10c9 4C4F434B 		.ascii	"LOCKR\000"
 19603      5200
 19604              	.LASF621:
 19605 10cf 5553425F 		.ascii	"USB_READY\000"
 19605      52454144 
 19605      5900
 19606              	.LASF553:
 19607 10d9 72656164 		.ascii	"readt\000"
 19607      7400
 19608              	.LASF151:
 19609 10df 6E616D65 		.ascii	"name\000"
 19609      00
 19610              	.LASF235:
 19611 10e4 43445232 		.ascii	"CDR2\000"
 19611      00
 19612              	.LASF24:
 19613 10e9 5F5F554C 		.ascii	"__ULong\000"
 19613      6F6E6700 
 19614              	.LASF182:
 19615 10f1 70616E69 		.ascii	"panic_msg\000"
 19615      635F6D73 
 19615      6700
 19616              	.LASF579:
 19617 10fb 5350495F 		.ascii	"SPI_COMPLETE\000"
 19617      434F4D50 
 19617      4C455445 
 19617      00
 19618              	.LASF264:
 19619 1108 4454494D 		.ascii	"DTIMER\000"
 19619      455200
 19620              	.LASF640:
 19621 110f 5553425F 		.ascii	"USB_EVENT_STALLED\000"
 19621      4556454E 
 19621      545F5354 
 19621      414C4C45 
 19621      4400
ARM GAS  /tmp/ccDQUTww.s 			page 360


 19622              	.LASF797:
 19623 1121 69627147 		.ascii	"ibqGetFullBufferTimeoutS\000"
 19623      65744675 
 19623      6C6C4275 
 19623      66666572 
 19623      54696D65 
 19624              	.LASF336:
 19625 113a 63686465 		.ascii	"chdebug_t\000"
 19625      6275675F 
 19625      7400
 19626              	.LASF733:
 19627 1144 72787369 		.ascii	"rxsize\000"
 19627      7A6500
 19628              	.LASF476:
 19629 114b 68747231 		.ascii	"htr1\000"
 19629      00
 19630              	.LASF478:
 19631 1150 68747232 		.ascii	"htr2\000"
 19631      00
 19632              	.LASF480:
 19633 1155 68747233 		.ascii	"htr3\000"
 19633      00
 19634              	.LASF278:
 19635 115a 43464731 		.ascii	"CFG1\000"
 19635      00
 19636              	.LASF279:
 19637 115f 43464732 		.ascii	"CFG2\000"
 19637      00
 19638              	.LASF636:
 19639 1164 5553425F 		.ascii	"USB_EVENT_CONFIGURED\000"
 19639      4556454E 
 19639      545F434F 
 19639      4E464947 
 19639      55524544 
 19640              	.LASF571:
 19641 1179 64697363 		.ascii	"disconnect\000"
 19641      6F6E6E65 
 19641      637400
 19642              	.LASF288:
 19643 1184 50524553 		.ascii	"PRESC\000"
 19643      4300
 19644              	.LASF550:
 19645 118a 70757474 		.ascii	"putt\000"
 19645      00
 19646              	.LASF110:
 19647 118f 5F737472 		.ascii	"_strtok_last\000"
 19647      746F6B5F 
 19647      6C617374 
 19647      00
 19648              	.LASF654:
 19649 119c 48435453 		.ascii	"HCTSIZ\000"
 19649      495A00
 19650              	.LASF195:
 19651 11a3 43464752 		.ascii	"CFGR\000"
 19651      00
 19652              	.LASF785:
 19653 11a8 6F627147 		.ascii	"obqGetFullBufferI\000"
ARM GAS  /tmp/ccDQUTww.s 			page 361


 19653      65744675 
 19653      6C6C4275 
 19653      66666572 
 19653      4900
 19654              	.LASF532:
 19655 11ba 50574D44 		.ascii	"PWMD3\000"
 19655      3300
 19656              	.LASF345:
 19657 11c0 6576656E 		.ascii	"event_source_t\000"
 19657      745F736F 
 19657      75726365 
 19657      5F7400
 19658              	.LASF689:
 19659 11cf 72657376 		.ascii	"resvd140\000"
 19659      64313430 
 19659      00
 19660              	.LASF100:
 19661 11d8 5F736565 		.ascii	"_seed\000"
 19661      6400
 19662              	.LASF782:
 19663 11de 6F627150 		.ascii	"obqPostFullBuffer\000"
 19663      6F737446 
 19663      756C6C42 
 19663      75666665 
 19663      7200
 19664              	.LASF85:
 19665 11f0 5F736565 		.ascii	"_seek\000"
 19665      6B00
 19666              	.LASF638:
 19667 11f6 5553425F 		.ascii	"USB_EVENT_SUSPEND\000"
 19667      4556454E 
 19667      545F5355 
 19667      5350454E 
 19667      4400
 19668              	.LASF486:
 19669 1208 4144435F 		.ascii	"ADC_ERR_AWD1\000"
 19669      4552525F 
 19669      41574431 
 19669      00
 19670              	.LASF487:
 19671 1215 4144435F 		.ascii	"ADC_ERR_AWD2\000"
 19671      4552525F 
 19671      41574432 
 19671      00
 19672              	.LASF488:
 19673 1222 4144435F 		.ascii	"ADC_ERR_AWD3\000"
 19673      4552525F 
 19673      41574433 
 19673      00
 19674              	.LASF232:
 19675 122f 43414C46 		.ascii	"CALFACT2\000"
 19675      41435432 
 19675      00
 19676              	.LASF233:
 19677 1238 4144435F 		.ascii	"ADC_TypeDef\000"
 19677      54797065 
 19677      44656600 
ARM GAS  /tmp/ccDQUTww.s 			page 362


 19678              	.LASF667:
 19679 1244 444F4550 		.ascii	"DOEPCTL\000"
 19679      43544C00 
 19680              	.LASF10:
 19681 124c 73686F72 		.ascii	"short unsigned int\000"
 19681      7420756E 
 19681      7369676E 
 19681      65642069 
 19681      6E7400
 19682              	.LASF5:
 19683 125f 7369676E 		.ascii	"signed char\000"
 19683      65642063 
 19683      68617200 
 19684              	.LASF562:
 19685 126b 63617264 		.ascii	"cardmode\000"
 19685      6D6F6465 
 19685      00
 19686              	.LASF144:
 19687 1274 75636E74 		.ascii	"ucnt_t\000"
 19687      5F7400
 19688              	.LASF444:
 19689 127b 4144435F 		.ascii	"ADC_STOP\000"
 19689      53544F50 
 19689      00
 19690              	.LASF764:
 19691 1284 46534D43 		.ascii	"FSMC_UNINIT\000"
 19691      5F554E49 
 19691      4E495400 
 19692              	.LASF171:
 19693 1290 63757272 		.ascii	"current\000"
 19693      656E7400 
 19694              	.LASF765:
 19695 1298 46534D43 		.ascii	"FSMC_STOP\000"
 19695      5F53544F 
 19695      5000
 19696              	.LASF521:
 19697 12a2 70776D6D 		.ascii	"pwmmode_t\000"
 19697      6F64655F 
 19697      7400
 19698              	.LASF612:
 19699 12ac 73746174 		.ascii	"status\000"
 19699      757300
 19700              	.LASF335:
 19701 12b3 6F66665F 		.ascii	"off_time\000"
 19701      74696D65 
 19701      00
 19702              	.LASF265:
 19703 12bc 444C454E 		.ascii	"DLEN\000"
 19703      00
 19704              	.LASF555:
 19705 12c1 5344435F 		.ascii	"SDC_MODE_4BIT\000"
 19705      4D4F4445 
 19705      5F344249 
 19705      5400
 19706              	.LASF326:
 19707 12cf 6F66665F 		.ascii	"off_ctx\000"
 19707      63747800 
ARM GAS  /tmp/ccDQUTww.s 			page 363


 19708              	.LASF758:
 19709 12d7 5344434D 		.ascii	"SDCMR\000"
 19709      5200
 19710              	.LASF179:
 19711 12dd 6C617374 		.ascii	"lasttime\000"
 19711      74696D65 
 19711      00
 19712              	.LASF108:
 19713 12e6 5F667265 		.ascii	"_freelist\000"
 19713      656C6973 
 19713      7400
 19714              	.LASF613:
 19715 12f0 61646472 		.ascii	"address\000"
 19715      65737300 
 19716              	.LASF481:
 19717 12f8 736D7072 		.ascii	"smpr\000"
 19717      00
 19718              	.LASF817:
 19719 12fd 63685468 		.ascii	"chThdDequeueNextI\000"
 19719      64446571 
 19719      75657565 
 19719      4E657874 
 19719      4900
 19720              	.LASF157:
 19721 130f 6D736771 		.ascii	"msgqueue\000"
 19721      75657565 
 19721      00
 19722              	.LASF333:
 19723 1318 6F66665F 		.ascii	"off_refs\000"
 19723      72656673 
 19723      00
 19724              	.LASF90:
 19725 1321 5F6F6666 		.ascii	"_offset\000"
 19725      73657400 
 19726              	.LASF587:
 19727 1329 63666731 		.ascii	"cfg1\000"
 19727      00
 19728              	.LASF192:
 19729 132e 53797374 		.ascii	"SystemCoreClock\000"
 19729      656D436F 
 19729      7265436C 
 19729      6F636B00 
 19730              	.LASF493:
 19731 133e 61646365 		.ascii	"adcerrorcallback_t\000"
 19731      72726F72 
 19731      63616C6C 
 19731      6261636B 
 19731      5F7400
 19732              	.LASF781:
 19733 1351 6F627146 		.ascii	"obqFlush\000"
 19733      6C757368 
 19733      00
 19734              	.LASF153:
 19735 135a 73746174 		.ascii	"state\000"
 19735      6500
 19736              	.LASF51:
 19737 1360 5F5F7362 		.ascii	"__sbuf\000"
ARM GAS  /tmp/ccDQUTww.s 			page 364


 19737      756600
 19738              	.LASF114:
 19739 1367 5F6C3634 		.ascii	"_l64a_buf\000"
 19739      615F6275 
 19739      6600
 19740              	.LASF792:
 19741 1371 69627147 		.ascii	"ibqGetTimeout\000"
 19741      65745469 
 19741      6D656F75 
 19741      7400
 19742              	.LASF102:
 19743 137f 5F616464 		.ascii	"_add\000"
 19743      00
 19744              	.LASF472:
 19745 1384 63666772 		.ascii	"cfgr\000"
 19745      00
 19746              	.LASF389:
 19747 1389 444D4152 		.ascii	"DMAR\000"
 19747      00
 19748              	.LASF526:
 19749 138e 63616C6C 		.ascii	"callback\000"
 19749      6261636B 
 19749      00
 19750              	.LASF185:
 19751 1397 63685F73 		.ascii	"ch_system\000"
 19751      79737465 
 19751      6D00
 19752              	.LASF257:
 19753 13a1 504F5745 		.ascii	"POWER\000"
 19753      5200
 19754              	.LASF411:
 19755 13a7 62746F70 		.ascii	"btop\000"
 19755      00
 19756              	.LASF152:
 19757 13ac 77616261 		.ascii	"wabase\000"
 19757      736500
 19758              	.LASF75:
 19759 13b3 5F617363 		.ascii	"_asctime_buf\000"
 19759      74696D65 
 19759      5F627566 
 19759      00
 19760              	.LASF176:
 19761 13c0 66756E63 		.ascii	"func\000"
 19761      00
 19762              	.LASF19:
 19763 13c5 5F5F7763 		.ascii	"__wch\000"
 19763      6800
 19764              	.LASF296:
 19765 13cb 68616C74 		.ascii	"halt\000"
 19765      00
 19766              	.LASF315:
 19767 13d0 63685F73 		.ascii	"ch_semaphore\000"
 19767      656D6170 
 19767      686F7265 
 19767      00
 19768              	.LASF120:
 19769 13dd 5F776373 		.ascii	"_wcsrtombs_state\000"
ARM GAS  /tmp/ccDQUTww.s 			page 365


 19769      72746F6D 
 19769      62735F73 
 19769      74617465 
 19769      00
 19770              	.LASF393:
 19771 13ee 424C4B5F 		.ascii	"BLK_UNINIT\000"
 19771      554E494E 
 19771      495400
 19772              	.LASF332:
 19773 13f9 6F66665F 		.ascii	"off_flags\000"
 19773      666C6167 
 19773      7300
 19774              	.LASF358:
 19775 1403 64796E5F 		.ascii	"dyn_element_t\000"
 19775      656C656D 
 19775      656E745F 
 19775      7400
 19776              	.LASF663:
 19777 1411 44494550 		.ascii	"DIEPTSIZ\000"
 19777      5453495A 
 19777      00
 19778              	.LASF762:
 19779 141a 46534D43 		.ascii	"FSMCDriver\000"
 19779      44726976 
 19779      657200
 19780              	.LASF161:
 19781 1425 6D706F6F 		.ascii	"mpool\000"
 19781      6C00
 19782              	.LASF813:
 19783 142b 706F7274 		.ascii	"port_unlock\000"
 19783      5F756E6C 
 19783      6F636B00 
 19784              	.LASF770:
 19785 1437 53445241 		.ascii	"SDRAM_STOP\000"
 19785      4D5F5354 
 19785      4F5000
 19786              	.LASF166:
 19787 1442 74687265 		.ascii	"threads_queue_t\000"
 19787      6164735F 
 19787      71756575 
 19787      655F7400 
 19788              	.LASF402:
 19789 1452 626C6B73 		.ascii	"blkstate_t\000"
 19789      74617465 
 19789      5F7400
 19790              	.LASF300:
 19791 145d 74696D65 		.ascii	"time\000"
 19791      00
 19792              	.LASF811:
 19793 1462 63685379 		.ascii	"chSysLock\000"
 19793      734C6F63 
 19793      6B00
 19794              	.LASF290:
 19795 146c 524E475F 		.ascii	"RNG_TypeDef\000"
 19795      54797065 
 19795      44656600 
 19796              	.LASF289:
ARM GAS  /tmp/ccDQUTww.s 			page 366


 19797 1478 55534152 		.ascii	"USART_TypeDef\000"
 19797      545F5479 
 19797      70654465 
 19797      6600
 19798              	.LASF737:
 19799 1486 65705F6D 		.ascii	"ep_mode\000"
 19799      6F646500 
 19800              	.LASF522:
 19801 148e 70776D63 		.ascii	"pwmchannel_t\000"
 19801      68616E6E 
 19801      656C5F74 
 19801      00
 19802              	.LASF12:
 19803 149b 6C6F6E67 		.ascii	"long int\000"
 19803      20696E74 
 19803      00
 19804              	.LASF188:
 19805 14a4 6D61696E 		.ascii	"mainthread\000"
 19805      74687265 
 19805      616400
 19806              	.LASF236:
 19807 14af 4144435F 		.ascii	"ADC_Common_TypeDef\000"
 19807      436F6D6D 
 19807      6F6E5F54 
 19807      79706544 
 19807      656600
 19808              	.LASF609:
 19809 14c2 6570306E 		.ascii	"ep0n\000"
 19809      00
 19810              	.LASF722:
 19811 14c7 72657376 		.ascii	"resvdE04\000"
 19811      64453034 
 19811      00
 19812              	.LASF112:
 19813 14d0 5F776374 		.ascii	"_wctomb_state\000"
 19813      6F6D625F 
 19813      73746174 
 19813      6500
 19814              	.LASF422:
 19815 14de 715F636F 		.ascii	"q_counter\000"
 19815      756E7465 
 19815      7200
 19816              	.LASF442:
 19817 14e8 696F706F 		.ascii	"ioportid_t\000"
 19817      72746964 
 19817      5F7400
 19818              	.LASF779:
 19819 14f3 6F627150 		.ascii	"obqPutTimeout\000"
 19819      75745469 
 19819      6D656F75 
 19819      7400
 19820              	.LASF491:
 19821 1501 41444344 		.ascii	"ADCD1\000"
 19821      3100
 19822              	.LASF690:
 19823 1507 48434647 		.ascii	"HCFG\000"
 19823      00
ARM GAS  /tmp/ccDQUTww.s 			page 367


 19824              	.LASF776:
 19825 150c 6F627154 		.ascii	"obqTryFlushI\000"
 19825      7279466C 
 19825      75736849 
 19825      00
 19826              	.LASF248:
 19827 1519 444D414D 		.ascii	"DMAMUX_Channel_TypeDef\000"
 19827      55585F43 
 19827      68616E6E 
 19827      656C5F54 
 19827      79706544 
 19828              	.LASF461:
 19829 1530 646D616D 		.ascii	"dmamode\000"
 19829      6F646500 
 19830              	.LASF588:
 19831 1538 63666732 		.ascii	"cfg2\000"
 19831      00
 19832              	.LASF98:
 19833 153d 5F696F62 		.ascii	"_iobs\000"
 19833      7300
 19834              	.LASF65:
 19835 1543 5F656D65 		.ascii	"_emergency\000"
 19835      7267656E 
 19835      637900
 19836              	.LASF551:
 19837 154e 67657474 		.ascii	"gett\000"
 19837      00
 19838              	.LASF276:
 19839 1553 49505652 		.ascii	"IPVR\000"
 19839      00
 19840              	.LASF253:
 19841 1558 50454352 		.ascii	"PECR\000"
 19841      00
 19842              	.LASF310:
 19843 155d 77747472 		.ascii	"wttrp\000"
 19843      7000
 19844              	.LASF426:
 19845 1563 715F7264 		.ascii	"q_rdptr\000"
 19845      70747200 
 19846              	.LASF672:
 19847 156b 474F5447 		.ascii	"GOTGINT\000"
 19847      494E5400 
 19848              	.LASF548:
 19849 1573 77726974 		.ascii	"write\000"
 19849      6500
 19850              	.LASF103:
 19851 1579 5F72616E 		.ascii	"_rand_next\000"
 19851      645F6E65 
 19851      787400
 19852              	.LASF542:
 19853 1584 69717565 		.ascii	"iqueue\000"
 19853      756500
 19854              	.LASF596:
 19855 158b 74726E67 		.ascii	"trngstate_t\000"
 19855      73746174 
 19855      655F7400 
 19856              	.LASF231:
ARM GAS  /tmp/ccDQUTww.s 			page 368


 19857 1597 43414C46 		.ascii	"CALFACT\000"
 19857      41435400 
 19858              	.LASF668:
 19859 159f 444F4550 		.ascii	"DOEPINT\000"
 19859      494E5400 
 19860              	.LASF364:
 19861 15a7 6275665F 		.ascii	"buf_list\000"
 19861      6C697374 
 19861      00
 19862              	.LASF132:
 19863 15b0 75696E74 		.ascii	"uint32_t\000"
 19863      33325F74 
 19863      00
 19864              	.LASF601:
 19865 15b9 54524E47 		.ascii	"TRNGD1\000"
 19865      443100
 19866              	.LASF330:
 19867 15c0 6F66665F 		.ascii	"off_stklimit\000"
 19867      73746B6C 
 19867      696D6974 
 19867      00
 19868              	.LASF28:
 19869 15cd 5F6D6178 		.ascii	"_maxwds\000"
 19869      77647300 
 19870              	.LASF400:
 19871 15d5 424C4B5F 		.ascii	"BLK_WRITING\000"
 19871      57524954 
 19871      494E4700 
 19872              	.LASF381:
 19873 15e1 73746D33 		.ascii	"stm32_bdma_stream_t\000"
 19873      325F6264 
 19873      6D615F73 
 19873      74726561 
 19873      6D5F7400 
 19874              	.LASF814:
 19875 15f5 706F7274 		.ascii	"port_lock\000"
 19875      5F6C6F63 
 19875      6B00
 19876              	.LASF2:
 19877 15ff 6C6F6E67 		.ascii	"long double\000"
 19877      20646F75 
 19877      626C6500 
 19878              	.LASF334:
 19879 160b 6F66665F 		.ascii	"off_preempt\000"
 19879      70726565 
 19879      6D707400 
 19880              	.LASF141:
 19881 1617 6576656E 		.ascii	"eventmask_t\000"
 19881      746D6173 
 19881      6B5F7400 
 19882              	.LASF454:
 19883 1623 64657074 		.ascii	"depth\000"
 19883      6800
 19884              	.LASF773:
 19885 1629 53445241 		.ascii	"SDRAMDriver\000"
 19885      4D447269 
 19885      76657200 
ARM GAS  /tmp/ccDQUTww.s 			page 369


 19886              	.LASF622:
 19887 1635 5553425F 		.ascii	"USB_SELECTED\000"
 19887      53454C45 
 19887      43544544 
 19887      00
 19888              	.LASF14:
 19889 1642 6C6F6E67 		.ascii	"long unsigned int\000"
 19889      20756E73 
 19889      69676E65 
 19889      6420696E 
 19889      7400
 19890              	.LASF506:
 19891 1654 74786279 		.ascii	"txbytes\000"
 19891      74657300 
 19892              	.LASF348:
 19893 165c 62617365 		.ascii	"basemem\000"
 19893      6D656D00 
 19894              	.LASF295:
 19895 1664 72656173 		.ascii	"reason\000"
 19895      6F6E00
 19896              	.LASF635:
 19897 166b 5553425F 		.ascii	"USB_EVENT_ADDRESS\000"
 19897      4556454E 
 19897      545F4144 
 19897      44524553 
 19897      5300
 19898              	.LASF259:
 19899 167d 52455350 		.ascii	"RESPCMD\000"
 19899      434D4400 
 19900              	.LASF574:
 19901 1685 53444344 		.ascii	"SDCD1\000"
 19901      3100
 19902              	.LASF328:
 19903 168b 6F66665F 		.ascii	"off_older\000"
 19903      6F6C6465 
 19903      7200
 19904              	.LASF641:
 19905 1695 75736265 		.ascii	"usbevent_t\000"
 19905      76656E74 
 19905      5F7400
 19906              	.LASF86:
 19907 16a0 5F636C6F 		.ascii	"_close\000"
 19907      736500
 19908              	.LASF94:
 19909 16a7 63686172 		.ascii	"char\000"
 19909      00
 19910              	.LASF96:
 19911 16ac 5F676C75 		.ascii	"_glue\000"
 19911      6500
 19912              	.LASF644:
 19913 16b2 55534244 		.ascii	"USBDescriptor\000"
 19913      65736372 
 19913      6970746F 
 19913      7200
 19914              	.LASF517:
 19915 16c0 656E6162 		.ascii	"enabled\000"
 19915      6C656400 
ARM GAS  /tmp/ccDQUTww.s 			page 370


 19916              	.LASF680:
 19917 16c8 47525846 		.ascii	"GRXFSIZ\000"
 19917      53495A00 
 19918              	.LASF572:
 19919 16d0 73796E63 		.ascii	"sync\000"
 19919      00
 19920              	.LASF544:
 19921 16d5 75736172 		.ascii	"usart\000"
 19921      7400
 19922              	.LASF558:
 19923 16db 7364636D 		.ascii	"sdcmode_t\000"
 19923      6F64655F 
 19923      7400
 19924              	.LASF428:
 19925 16e5 715F6C69 		.ascii	"q_link\000"
 19925      6E6B00
 19926              	.LASF382:
 19927 16ec 5F73746D 		.ascii	"_stm32_bdma_streams\000"
 19927      33325F62 
 19927      646D615F 
 19927      73747265 
 19927      616D7300 
 19928              	.LASF701:
 19929 1700 44434647 		.ascii	"DCFG\000"
 19929      00
 19930              	.LASF31:
 19931 1705 5F426967 		.ascii	"_Bigint\000"
 19931      696E7400 
 19932              	.LASF109:
 19933 170d 5F6D6973 		.ascii	"_misc_reent\000"
 19933      635F7265 
 19933      656E7400 
 19934              	.LASF677:
 19935 1719 47494E54 		.ascii	"GINTMSK\000"
 19935      4D534B00 
 19936              	.LASF682:
 19937 1721 484E5054 		.ascii	"HNPTXSTS\000"
 19937      58535453 
 19937      00
 19938              	.LASF614:
 19939 172a 636F6E66 		.ascii	"configuration\000"
 19939      69677572 
 19939      6174696F 
 19939      6E00
 19940              	.LASF630:
 19941 1738 5553425F 		.ascii	"USB_EP0_OUT_WAITING_STS\000"
 19941      4550305F 
 19941      4F55545F 
 19941      57414954 
 19941      494E475F 
 19942              	.LASF354:
 19943 1750 616C6967 		.ascii	"align\000"
 19943      6E00
 19944              	.LASF243:
 19945 1756 434D3041 		.ascii	"CM0AR\000"
 19945      5200
 19946              	.LASF378:
ARM GAS  /tmp/ccDQUTww.s 			page 371


 19947 175c 5F73746D 		.ascii	"_stm32_dma_streams\000"
 19947      33325F64 
 19947      6D615F73 
 19947      74726561 
 19947      6D7300
 19948              	.LASF304:
 19949 176f 62756666 		.ascii	"buffer\000"
 19949      657200
 19950              	.LASF115:
 19951 1776 5F676574 		.ascii	"_getdate_err\000"
 19951      64617465 
 19951      5F657272 
 19951      00
 19952              	.LASF557:
 19953 1783 73646362 		.ascii	"sdcbusmode_t\000"
 19953      75736D6F 
 19953      64655F74 
 19953      00
 19954              	.LASF406:
 19955 1790 696F5F62 		.ascii	"io_buffers_queue_t\000"
 19955      75666665 
 19955      72735F71 
 19955      75657565 
 19955      5F7400
 19956              	.LASF664:
 19957 17a3 44545846 		.ascii	"DTXFSTS\000"
 19957      53545300 
 19958              	.LASF492:
 19959 17ab 61646363 		.ascii	"adccallback_t\000"
 19959      616C6C62 
 19959      61636B5F 
 19959      7400
 19960              	.LASF143:
 19961 17b9 636E745F 		.ascii	"cnt_t\000"
 19961      7400
 19962              	.LASF608:
 19963 17bf 6570306E 		.ascii	"ep0next\000"
 19963      65787400 
 19964              	.LASF545:
 19965 17c7 72786D61 		.ascii	"rxmask\000"
 19965      736B00
 19966              	.LASF658:
 19967 17ce 73746D33 		.ascii	"stm32_otg_host_chn_t\000"
 19967      325F6F74 
 19967      675F686F 
 19967      73745F63 
 19967      686E5F74 
 19968              	.LASF626:
 19969 17e3 5553425F 		.ascii	"USB_EP0_STP_WAITING\000"
 19969      4550305F 
 19969      5354505F 
 19969      57414954 
 19969      494E4700 
 19970              	.LASF808:
 19971 17f7 6F73616C 		.ascii	"osalSysLock\000"
 19971      5379734C 
 19971      6F636B00 
ARM GAS  /tmp/ccDQUTww.s 			page 372


 19972              	.LASF440:
 19973 1803 41465248 		.ascii	"AFRH\000"
 19973      00
 19974              	.LASF439:
 19975 1808 4146524C 		.ascii	"AFRL\000"
 19975      00
 19976              	.LASF331:
 19977 180d 6F66665F 		.ascii	"off_state\000"
 19977      73746174 
 19977      6500
 19978              	.LASF183:
 19979 1817 74726163 		.ascii	"trace_buffer\000"
 19979      655F6275 
 19979      66666572 
 19979      00
 19980              	.LASF280:
 19981 1824 43524350 		.ascii	"CRCPOLY\000"
 19981      4F4C5900 
 19982              	.LASF126:
 19983 182c 5F696D70 		.ascii	"_impure_ptr\000"
 19983      7572655F 
 19983      70747200 
 19984              	.LASF89:
 19985 1838 5F626C6B 		.ascii	"_blksize\000"
 19985      73697A65 
 19985      00
 19986              	.LASF653:
 19987 1841 4843494E 		.ascii	"HCINTMSK\000"
 19987      544D534B 
 19987      00
 19988              	.LASF87:
 19989 184a 5F756275 		.ascii	"_ubuf\000"
 19989      6600
 19990              	.LASF798:
 19991 1850 69627147 		.ascii	"ibqGetFullBufferTimeout\000"
 19991      65744675 
 19991      6C6C4275 
 19991      66666572 
 19991      54696D65 
 19992              	.LASF452:
 19993 1868 636F6E66 		.ascii	"config\000"
 19993      696700
 19994              	.LASF111:
 19995 186f 5F6D626C 		.ascii	"_mblen_state\000"
 19995      656E5F73 
 19995      74617465 
 19995      00
 19996              	.LASF77:
 19997 187c 5F5F7367 		.ascii	"__sglue\000"
 19997      6C756500 
 19998              	.LASF122:
 19999 1884 5F5F6C6F 		.ascii	"__locale_t\000"
 19999      63616C65 
 19999      5F7400
 20000              	.LASF271:
 20001 188f 49444D41 		.ascii	"IDMACTRL\000"
 20001      4354524C 
ARM GAS  /tmp/ccDQUTww.s 			page 373


 20001      00
 20002              	.LASF396:
 20003 1898 424C4B5F 		.ascii	"BLK_CONNECTING\000"
 20003      434F4E4E 
 20003      45435449 
 20003      4E4700
 20004              	.LASF69:
 20005 18a7 5F5F636C 		.ascii	"__cleanup\000"
 20005      65616E75 
 20005      7000
 20006              	.LASF794:
 20007 18b1 69627152 		.ascii	"ibqReleaseEmptyBufferS\000"
 20007      656C6561 
 20007      7365456D 
 20007      70747942 
 20007      75666665 
 20008              	.LASF483:
 20009 18c8 6164635F 		.ascii	"adc_channels_num_t\000"
 20009      6368616E 
 20009      6E656C73 
 20009      5F6E756D 
 20009      5F7400
 20010              	.LASF172:
 20011 18db 76746675 		.ascii	"vtfunc_t\000"
 20011      6E635F74 
 20011      00
 20012              	.LASF294:
 20013 18e4 77746F62 		.ascii	"wtobjp\000"
 20013      6A7000
 20014              	.LASF18:
 20015 18eb 5F66706F 		.ascii	"_fpos_t\000"
 20015      735F7400 
 20016              	.LASF56:
 20017 18f3 5F66696C 		.ascii	"_file\000"
 20017      6500
 20018              	.LASF451:
 20019 18f9 68616C5F 		.ascii	"hal_adc_driver\000"
 20019      6164635F 
 20019      64726976 
 20019      657200
 20020              	.LASF561:
 20021 1908 63617061 		.ascii	"capacity\000"
 20021      63697479 
 20021      00
 20022              	.LASF363:
 20023 1911 6F626A5F 		.ascii	"obj_pool\000"
 20023      706F6F6C 
 20023      00
 20024              	.LASF371:
 20025 191a 63685F66 		.ascii	"ch_factory\000"
 20025      6163746F 
 20025      727900
 20026              	.LASF427:
 20027 1925 715F6E6F 		.ascii	"q_notify\000"
 20027      74696679 
 20027      00
 20028              	.LASF313:
ARM GAS  /tmp/ccDQUTww.s 			page 374


 20029 192e 77746D74 		.ascii	"wtmtxp\000"
 20029      787000
 20030              	.LASF81:
 20031 1935 5F5F7346 		.ascii	"__sFILE\000"
 20031      494C4500 
 20032              	.LASF795:
 20033 193d 69627152 		.ascii	"ibqReleaseEmptyBuffer\000"
 20033      656C6561 
 20033      7365456D 
 20033      70747942 
 20033      75666665 
 20034              	.LASF49:
 20035 1953 5F666E73 		.ascii	"_fns\000"
 20035      00
 20036              	.LASF747:
 20037 1958 55534245 		.ascii	"USBEndpointConfig\000"
 20037      6E64706F 
 20037      696E7443 
 20037      6F6E6669 
 20037      6700
 20038              	.LASF736:
 20039 196a 5553424F 		.ascii	"USBOutEndpointState\000"
 20039      7574456E 
 20039      64706F69 
 20039      6E745374 
 20039      61746500 
 20040              	.LASF825:
 20041 197e 5F5F6275 		.ascii	"__builtin_memcpy\000"
 20041      696C7469 
 20041      6E5F6D65 
 20041      6D637079 
 20041      00
 20042              	.LASF697:
 20043 198f 72657376 		.ascii	"resvd41C\000"
 20043      64343143 
 20043      00
 20044              	.LASF23:
 20045 1998 5F6D6273 		.ascii	"_mbstate_t\000"
 20045      74617465 
 20045      5F7400
 20046              	.LASF190:
 20047 19a3 73797369 		.ascii	"sysinterval_t\000"
 20047      6E746572 
 20047      76616C5F 
 20047      7400
 20048              	.LASF404:
 20049 19b1 626C6B5F 		.ascii	"blk_num\000"
 20049      6E756D00 
 20050              	.LASF629:
 20051 19b9 5553425F 		.ascii	"USB_EP0_IN_SENDING_STS\000"
 20051      4550305F 
 20051      494E5F53 
 20051      454E4449 
 20051      4E475F53 
 20052              	.LASF634:
 20053 19d0 5553425F 		.ascii	"USB_EVENT_RESET\000"
 20053      4556454E 
ARM GAS  /tmp/ccDQUTww.s 			page 375


 20053      545F5245 
 20053      53455400 
 20054              	.LASF343:
 20055 19e0 77666C61 		.ascii	"wflags\000"
 20055      677300
 20056              	.LASF156:
 20057 19e7 77616974 		.ascii	"waiting\000"
 20057      696E6700 
 20058              	.LASF170:
 20059 19ef 63685F72 		.ascii	"ch_ready_list\000"
 20059      65616479 
 20059      5F6C6973 
 20059      7400
 20060              	.LASF436:
 20061 19fd 50555044 		.ascii	"PUPDR\000"
 20061      5200
 20062              	.LASF11:
 20063 1a03 5F5F696E 		.ascii	"__int32_t\000"
 20063      7433325F 
 20063      7400
 20064              	.LASF13:
 20065 1a0d 5F5F7569 		.ascii	"__uint32_t\000"
 20065      6E743332 
 20065      5F7400
 20066              	.LASF181:
 20067 1a18 63685F73 		.ascii	"ch_system_debug\000"
 20067      79737465 
 20067      6D5F6465 
 20067      62756700 
 20068              	.LASF460:
 20069 1a28 64617461 		.ascii	"data\000"
 20069      00
 20070              	.LASF708:
 20071 1a2d 4441494E 		.ascii	"DAINTMSK\000"
 20071      544D534B 
 20071      00
 20072              	.LASF22:
 20073 1a36 5F5F7661 		.ascii	"__value\000"
 20073      6C756500 
 20074              	.LASF46:
 20075 1a3e 5F69735F 		.ascii	"_is_cxa\000"
 20075      63786100 
 20076              	.LASF399:
 20077 1a46 424C4B5F 		.ascii	"BLK_READING\000"
 20077      52454144 
 20077      494E4700 
 20078              	.LASF104:
 20079 1a52 5F6D7072 		.ascii	"_mprec\000"
 20079      656300
 20080              	.LASF375:
 20081 1a59 73656C66 		.ascii	"selfindex\000"
 20081      696E6465 
 20081      7800
 20082              	.LASF338:
 20083 1a63 6D757465 		.ascii	"mutex_t\000"
 20083      785F7400 
 20084              	.LASF107:
ARM GAS  /tmp/ccDQUTww.s 			page 376


 20085 1a6b 5F703573 		.ascii	"_p5s\000"
 20085      00
 20086              	.LASF432:
 20087 1a70 636C6561 		.ascii	"clear\000"
 20087      7200
 20088              	.LASF244:
 20089 1a76 434D3141 		.ascii	"CM1AR\000"
 20089      5200
 20090              	.LASF433:
 20091 1a7c 4D4F4445 		.ascii	"MODER\000"
 20091      5200
 20092              	.LASF490:
 20093 1a82 6164635F 		.ascii	"adc_ldd_dma_reference_t\000"
 20093      6C64645F 
 20093      646D615F 
 20093      72656665 
 20093      72656E63 
 20094              	.LASF270:
 20095 1a9a 52455345 		.ascii	"RESERVED0\000"
 20095      52564544 
 20095      3000
 20096              	.LASF202:
 20097 1aa4 52455345 		.ascii	"RESERVED1\000"
 20097      52564544 
 20097      3100
 20098              	.LASF203:
 20099 1aae 52455345 		.ascii	"RESERVED2\000"
 20099      52564544 
 20099      3200
 20100              	.LASF208:
 20101 1ab8 52455345 		.ascii	"RESERVED3\000"
 20101      52564544 
 20101      3300
 20102              	.LASF209:
 20103 1ac2 52455345 		.ascii	"RESERVED4\000"
 20103      52564544 
 20103      3400
 20104              	.LASF211:
 20105 1acc 52455345 		.ascii	"RESERVED5\000"
 20105      52564544 
 20105      3500
 20106              	.LASF216:
 20107 1ad6 52455345 		.ascii	"RESERVED6\000"
 20107      52564544 
 20107      3600
 20108              	.LASF221:
 20109 1ae0 52455345 		.ascii	"RESERVED7\000"
 20109      52564544 
 20109      3700
 20110              	.LASF224:
 20111 1aea 52455345 		.ascii	"RESERVED8\000"
 20111      52564544 
 20111      3800
 20112              	.LASF225:
 20113 1af4 52455345 		.ascii	"RESERVED9\000"
 20113      52564544 
 20113      3900
ARM GAS  /tmp/ccDQUTww.s 			page 377


 20114              	.LASF699:
 20115 1afe 72657376 		.ascii	"resvd444\000"
 20115      64343434 
 20115      00
 20116              	.LASF568:
 20117 1b07 69735F69 		.ascii	"is_inserted\000"
 20117      6E736572 
 20117      74656400 
 20118              	.LASF455:
 20119 1b13 67727070 		.ascii	"grpp\000"
 20119      00
 20120              	.LASF277:
 20121 1b18 53444D4D 		.ascii	"SDMMC_TypeDef\000"
 20121      435F5479 
 20121      70654465 
 20121      6600
 20122              	.LASF327:
 20123 1b26 6F66665F 		.ascii	"off_newer\000"
 20123      6E657765 
 20123      7200
 20124              	.LASF282:
 20125 1b30 52584352 		.ascii	"RXCRC\000"
 20125      4300
 20126              	.LASF196:
 20127 1b36 43464752 		.ascii	"CFGR2\000"
 20127      3200
 20128              	.LASF147:
 20129 1b3c 71756575 		.ascii	"queue\000"
 20129      6500
 20130              	.LASF617:
 20131 1b42 706D6E65 		.ascii	"pmnext\000"
 20131      787400
 20132              	.LASF191:
 20133 1b49 49544D5F 		.ascii	"ITM_RxBuffer\000"
 20133      52784275 
 20133      66666572 
 20133      00
 20134              	.LASF405:
 20135 1b56 426C6F63 		.ascii	"BlockDeviceInfo\000"
 20135      6B446576 
 20135      69636549 
 20135      6E666F00 
 20136              	.LASF16:
 20137 1b66 6C6F6E67 		.ascii	"long long unsigned int\000"
 20137      206C6F6E 
 20137      6720756E 
 20137      7369676E 
 20137      65642069 
 20138              	.LASF306:
 20139 1b7d 6F666673 		.ascii	"offset\000"
 20139      657400
 20140              	.LASF805:
 20141 1b84 6F73616C 		.ascii	"osalThreadDequeueNextI\000"
 20141      54687265 
 20141      61644465 
 20141      71756575 
 20141      654E6578 
ARM GAS  /tmp/ccDQUTww.s 			page 378


 20142              	.LASF590:
 20143 1b9b 53504944 		.ascii	"SPID1\000"
 20143      3100
 20144              	.LASF591:
 20145 1ba1 53504944 		.ascii	"SPID3\000"
 20145      3300
 20146              	.LASF810:
 20147 1ba7 63685379 		.ascii	"chSysUnlock\000"
 20147      73556E6C 
 20147      6F636B00 
 20148              	.LASF237:
 20149 1bb3 4E445452 		.ascii	"NDTR\000"
 20149      00
 20150              	.LASF70:
 20151 1bb8 5F67616D 		.ascii	"_gamma_signgam\000"
 20151      6D615F73 
 20151      69676E67 
 20151      616D00
 20152              	.LASF665:
 20153 1bc7 72657376 		.ascii	"resvd1C\000"
 20153      64314300 
 20154              	.LASF661:
 20155 1bcf 44494550 		.ascii	"DIEPINT\000"
 20155      494E5400 
 20156              	.LASF285:
 20157 1bd7 5350495F 		.ascii	"SPI_TypeDef\000"
 20157      54797065 
 20157      44656600 
 20158              	.LASF383:
 20159 1be3 534D4352 		.ascii	"SMCR\000"
 20159      00
 20160              	.LASF413:
 20161 1be8 62756666 		.ascii	"buffers\000"
 20161      65727300 
 20162              	.LASF324:
 20163 1bf0 74687265 		.ascii	"threadsize\000"
 20163      61647369 
 20163      7A6500
 20164              	.LASF706:
 20165 1bfb 444F4550 		.ascii	"DOEPMSK\000"
 20165      4D534B00 
 20166              	.LASF234:
 20167 1c03 52455345 		.ascii	"RESERVED\000"
 20167      52564544 
 20167      00
 20168              	.LASF174:
 20169 1c0c 63685F76 		.ascii	"ch_virtual_timer\000"
 20169      69727475 
 20169      616C5F74 
 20169      696D6572 
 20169      00
 20170              	.LASF314:
 20171 1c1d 65776D61 		.ascii	"ewmask\000"
 20171      736B00
 20172              	.LASF408:
 20173 1c24 62636F75 		.ascii	"bcounter\000"
 20173      6E746572 
ARM GAS  /tmp/ccDQUTww.s 			page 379


 20173      00
 20174              	.LASF344:
 20175 1c2d 6576656E 		.ascii	"event_source\000"
 20175      745F736F 
 20175      75726365 
 20175      00
 20176              	.LASF137:
 20177 1c3a 74737461 		.ascii	"tstate_t\000"
 20177      74655F74 
 20177      00
 20178              	.LASF127:
 20179 1c43 5F676C6F 		.ascii	"_global_impure_ptr\000"
 20179      62616C5F 
 20179      696D7075 
 20179      72655F70 
 20179      747200
 20180              	.LASF707:
 20181 1c56 4441494E 		.ascii	"DAINT\000"
 20181      5400
 20182              	.LASF416:
 20183 1c5c 62716E6F 		.ascii	"bqnotify_t\000"
 20183      74696679 
 20183      5F7400
 20184              	.LASF583:
 20185 1c67 53504943 		.ascii	"SPIConfig\000"
 20185      6F6E6669 
 20185      6700
 20186              	.LASF67:
 20187 1c71 5F756E73 		.ascii	"_unspecified_locale_info\000"
 20187      70656369 
 20187      66696564 
 20187      5F6C6F63 
 20187      616C655F 
 20188              	.LASF125:
 20189 1c8a 5F5F7366 		.ascii	"__sf_fake_stderr\000"
 20189      5F66616B 
 20189      655F7374 
 20189      64657272 
 20189      00
 20190              	.LASF603:
 20191 1c9b 7472616E 		.ascii	"transmitting\000"
 20191      736D6974 
 20191      74696E67 
 20191      00
 20192              	.LASF302:
 20193 1ca8 73757370 		.ascii	"suspended\000"
 20193      656E6465 
 20193      6400
 20194              	.LASF258:
 20195 1cb2 434C4B43 		.ascii	"CLKCR\000"
 20195      5200
 20196              	.LASF66:
 20197 1cb8 5F5F7364 		.ascii	"__sdidinit\000"
 20197      6964696E 
 20197      697400
 20198              	.LASF217:
 20199 1cc3 4A445231 		.ascii	"JDR1\000"
ARM GAS  /tmp/ccDQUTww.s 			page 380


 20199      00
 20200              	.LASF218:
 20201 1cc8 4A445232 		.ascii	"JDR2\000"
 20201      00
 20202              	.LASF219:
 20203 1ccd 4A445233 		.ascii	"JDR3\000"
 20203      00
 20204              	.LASF220:
 20205 1cd2 4A445234 		.ascii	"JDR4\000"
 20205      00
 20206              	.LASF669:
 20207 1cd7 444F4550 		.ascii	"DOEPTSIZ\000"
 20207      5453495A 
 20207      00
 20208              	.LASF502:
 20209 1ce0 74696D69 		.ascii	"timingr\000"
 20209      6E677200 
 20210              	.LASF365:
 20211 1ce8 73656D5F 		.ascii	"sem_list\000"
 20211      6C697374 
 20211      00
 20212              	.LASF367:
 20213 1cf1 6D62785F 		.ascii	"mbx_list\000"
 20213      6C697374 
 20213      00
 20214              	.LASF329:
 20215 1cfa 6F66665F 		.ascii	"off_name\000"
 20215      6E616D65 
 20215      00
 20216              	.LASF769:
 20217 1d03 53445241 		.ascii	"SDRAM_UNINIT\000"
 20217      4D5F554E 
 20217      494E4954 
 20217      00
 20218              	.LASF26:
 20219 1d10 5F666C6F 		.ascii	"_flock_t\000"
 20219      636B5F74 
 20219      00
 20220              	.LASF177:
 20221 1d19 76697274 		.ascii	"virtual_timers_list_t\000"
 20221      75616C5F 
 20221      74696D65 
 20221      72735F6C 
 20221      6973745F 
 20222              	.LASF124:
 20223 1d2f 5F5F7366 		.ascii	"__sf_fake_stdout\000"
 20223      5F66616B 
 20223      655F7374 
 20223      646F7574 
 20223      00
 20224              	.LASF194:
 20225 1d40 4431436F 		.ascii	"D1CorePrescTable\000"
 20225      72655072 
 20225      65736354 
 20225      61626C65 
 20225      00
 20226              	.LASF693:
ARM GAS  /tmp/ccDQUTww.s 			page 381


 20227 1d51 72657376 		.ascii	"resvd40C\000"
 20227      64343043 
 20227      00
 20228              	.LASF624:
 20229 1d5a 5553425F 		.ascii	"USB_SUSPENDED\000"
 20229      53555350 
 20229      454E4445 
 20229      4400
 20230              	.LASF675:
 20231 1d68 47525354 		.ascii	"GRSTCTL\000"
 20231      43544C00 
 20232              	.LASF468:
 20233 1d70 63697263 		.ascii	"circular\000"
 20233      756C6172 
 20233      00
 20234              	.LASF581:
 20235 1d79 53504944 		.ascii	"SPIDriver\000"
 20235      72697665 
 20235      7200
 20236              	.LASF793:
 20237 1d83 6F627150 		.ascii	"obqPostFullBufferS\000"
 20237      6F737446 
 20237      756C6C42 
 20237      75666665 
 20237      725300
 20238              	.LASF700:
 20239 1d96 72657376 		.ascii	"resvd700\000"
 20239      64373030 
 20239      00
 20240              	.LASF284:
 20241 1d9f 49325343 		.ascii	"I2SCFGR\000"
 20241      46475200 
 20242              	.LASF552:
 20243 1da7 77726974 		.ascii	"writet\000"
 20243      657400
 20244              	.LASF563:
 20245 1dae 73646D6D 		.ascii	"sdmmc\000"
 20245      6300
 20246              	.LASF1:
 20247 1db4 6C6F6E67 		.ascii	"long long int\000"
 20247      206C6F6E 
 20247      6720696E 
 20247      7400
 20248              	.LASF687:
 20249 1dc2 48505458 		.ascii	"HPTXFSIZ\000"
 20249      4653495A 
 20249      00
 20250              	.LASF93:
 20251 1dcb 5F666C61 		.ascii	"_flags2\000"
 20251      67733200 
 20252              	.LASF473:
 20253 1dd3 63666772 		.ascii	"cfgr2\000"
 20253      3200
 20254              	.LASF573:
 20255 1dd9 6765745F 		.ascii	"get_info\000"
 20255      696E666F 
 20255      00
ARM GAS  /tmp/ccDQUTww.s 			page 382


 20256              	.LASF489:
 20257 1de2 61646365 		.ascii	"adcerror_t\000"
 20257      72726F72 
 20257      5F7400
 20258              	.LASF749:
 20259 1ded 6765745F 		.ascii	"get_descriptor_cb\000"
 20259      64657363 
 20259      72697074 
 20259      6F725F63 
 20259      6200
 20260              	.LASF68:
 20261 1dff 5F6C6F63 		.ascii	"_locale\000"
 20261      616C6500 
 20262              	.LASF142:
 20263 1e07 6576656E 		.ascii	"eventflags_t\000"
 20263      74666C61 
 20263      67735F74 
 20263      00
 20264              	.LASF577:
 20265 1e14 5350495F 		.ascii	"SPI_READY\000"
 20265      52454144 
 20265      5900
 20266              	.LASF627:
 20267 1e1e 5553425F 		.ascii	"USB_EP0_IN_TX\000"
 20267      4550305F 
 20267      494E5F54 
 20267      5800
 20268              	.LASF787:
 20269 1e2c 6F62714F 		.ascii	"obqObjectInit\000"
 20269      626A6563 
 20269      74496E69 
 20269      7400
 20270              	.LASF565:
 20271 1e3a 6275735F 		.ascii	"bus_width\000"
 20271      77696474 
 20271      6800
 20272              	.LASF702:
 20273 1e44 4443544C 		.ascii	"DCTL\000"
 20273      00
 20274              	.LASF567:
 20275 1e49 53444344 		.ascii	"SDCDriverVMT\000"
 20275      72697665 
 20275      72564D54 
 20275      00
 20276              	.LASF297:
 20277 1e56 75736572 		.ascii	"user\000"
 20277      00
 20278              	.LASF730:
 20279 1e5b 74786275 		.ascii	"txbuf\000"
 20279      6600
 20280              	.LASF721:
 20281 1e61 50434743 		.ascii	"PCGCCTL\000"
 20281      43544C00 
 20282              	.LASF639:
 20283 1e69 5553425F 		.ascii	"USB_EVENT_WAKEUP\000"
 20283      4556454E 
 20283      545F5741 
ARM GAS  /tmp/ccDQUTww.s 			page 383


 20283      4B455550 
 20283      00
 20284              	.LASF394:
 20285 1e7a 424C4B5F 		.ascii	"BLK_STOP\000"
 20285      53544F50 
 20285      00
 20286              	.LASF815:
 20287 1e83 5F5F7365 		.ascii	"__set_BASEPRI\000"
 20287      745F4241 
 20287      53455052 
 20287      4900
 20288              	.LASF401:
 20289 1e91 424C4B5F 		.ascii	"BLK_SYNCING\000"
 20289      53594E43 
 20289      494E4700 
 20290              	.LASF746:
 20291 1e9d 73657475 		.ascii	"setup_buf\000"
 20291      705F6275 
 20291      6600
 20292              	.LASF684:
 20293 1ea7 72657376 		.ascii	"resvd34\000"
 20293      64333400 
 20294              	.LASF471:
 20295 1eaf 6572726F 		.ascii	"error_cb\000"
 20295      725F6362 
 20295      00
 20296              	.LASF397:
 20297 1eb8 424C4B5F 		.ascii	"BLK_DISCONNECTING\000"
 20297      44495343 
 20297      4F4E4E45 
 20297      4354494E 
 20297      4700
 20298              	.LASF518:
 20299 1eca 6368616E 		.ascii	"channels\000"
 20299      6E656C73 
 20299      00
 20300              	.LASF585:
 20301 1ed3 7373706F 		.ascii	"ssport\000"
 20301      727400
 20302              	.LASF162:
 20303 1eda 74687265 		.ascii	"thread_reference_t\000"
 20303      61645F72 
 20303      65666572 
 20303      656E6365 
 20303      5F7400
 20304              	.LASF786:
 20305 1eed 6F627152 		.ascii	"obqResetI\000"
 20305      65736574 
 20305      4900
 20306              	.LASF604:
 20307 1ef7 72656365 		.ascii	"receiving\000"
 20307      6976696E 
 20307      6700
 20308              	.LASF820:
 20309 1f01 474E5520 		.ascii	"GNU C17 8.3.1 20190703 (release) [gcc-8-branch revi"
 20309      43313720 
 20309      382E332E 
ARM GAS  /tmp/ccDQUTww.s 			page 384


 20309      31203230 
 20309      31393037 
 20310 1f34 73696F6E 		.ascii	"sion 273027] -mcpu=cortex-m7 -mthumb -mfloat-abi=ha"
 20310      20323733 
 20310      3032375D 
 20310      202D6D63 
 20310      70753D63 
 20311 1f67 7264202D 		.ascii	"rd -mfpu=fpv4-sp-d16 -march=armv7e-m+fp -ggdb -O2 -"
 20311      6D667075 
 20311      3D667076 
 20311      342D7370 
 20311      2D643136 
 20312 1f9a 666F6D69 		.ascii	"fomit-frame-pointer -falign-functions=16 -fno-math-"
 20312      742D6672 
 20312      616D652D 
 20312      706F696E 
 20312      74657220 
 20313 1fcd 6572726E 		.ascii	"errno\000"
 20313      6F00
 20314              	.LASF618:
 20315 1fd3 75736265 		.ascii	"usbep_t\000"
 20315      705F7400 
 20316              	.LASF528:
 20317 1fdb 66726571 		.ascii	"frequency\000"
 20317      75656E63 
 20317      7900
 20318              	.LASF584:
 20319 1fe5 68616C5F 		.ascii	"hal_spi_config\000"
 20319      7370695F 
 20319      636F6E66 
 20319      696700
 20320              	.LASF29:
 20321 1ff4 5F736967 		.ascii	"_sign\000"
 20321      6E00
 20322              	.LASF743:
 20323 1ffa 696E5F73 		.ascii	"in_state\000"
 20323      74617465 
 20323      00
 20324              	.LASF34:
 20325 2003 5F5F746D 		.ascii	"__tm_min\000"
 20325      5F6D696E 
 20325      00
 20326              	.LASF446:
 20327 200c 4144435F 		.ascii	"ADC_ACTIVE\000"
 20327      41435449 
 20327      564500
 20328              	.LASF761:
 20329 2017 46534D43 		.ascii	"FSMC_SDRAM_TypeDef\000"
 20329      5F534452 
 20329      414D5F54 
 20329      79706544 
 20329      656600
 20330              	.LASF321:
 20331 202a 76657273 		.ascii	"version\000"
 20331      696F6E00 
 20332              	.LASF266:
 20333 2032 44435452 		.ascii	"DCTRL\000"
ARM GAS  /tmp/ccDQUTww.s 			page 385


 20333      4C00
 20334              	.LASF342:
 20335 2038 6576656E 		.ascii	"events\000"
 20335      747300
 20336              	.LASF385:
 20337 203f 43434D52 		.ascii	"CCMR1\000"
 20337      3100
 20338              	.LASF386:
 20339 2045 43434D52 		.ascii	"CCMR2\000"
 20339      3200
 20340              	.LASF390:
 20341 204b 43434D52 		.ascii	"CCMR3\000"
 20341      3300
 20342              	.LASF0:
 20343 2051 756E7369 		.ascii	"unsigned int\000"
 20343      676E6564 
 20343      20696E74 
 20343      00
 20344              	.LASF73:
 20345 205e 5F723438 		.ascii	"_r48\000"
 20345      00
 20346              	.LASF691:
 20347 2063 48464952 		.ascii	"HFIR\000"
 20347      00
 20348              	.LASF619:
 20349 2068 5553425F 		.ascii	"USB_UNINIT\000"
 20349      554E494E 
 20349      495400
 20350              	.LASF372:
 20351 2073 73747265 		.ascii	"stream\000"
 20351      616D00
 20352              	.LASF134:
 20353 207a 75696E74 		.ascii	"uint_fast8_t\000"
 20353      5F666173 
 20353      74385F74 
 20353      00
 20354              	.LASF465:
 20355 2087 63616C69 		.ascii	"calibration\000"
 20355      62726174 
 20355      696F6E00 
 20356              	.LASF340:
 20357 2093 6576656E 		.ascii	"event_listener\000"
 20357      745F6C69 
 20357      7374656E 
 20357      657200
 20358              	.LASF8:
 20359 20a2 73686F72 		.ascii	"short int\000"
 20359      7420696E 
 20359      7400
 20360              	.LASF645:
 20361 20ac 75736263 		.ascii	"usbcallback_t\000"
 20361      616C6C62 
 20361      61636B5F 
 20361      7400
 20362              	.LASF356:
 20363 20ba 6D656D6F 		.ascii	"memory_pool_t\000"
 20363      72795F70 
ARM GAS  /tmp/ccDQUTww.s 			page 386


 20363      6F6F6C5F 
 20363      7400
 20364              	.LASF83:
 20365 20c8 5F726561 		.ascii	"_read\000"
 20365      6400
 20366              	.LASF674:
 20367 20ce 47555342 		.ascii	"GUSBCFG\000"
 20367      43464700 
 20368              	.LASF168:
 20369 20d6 70726576 		.ascii	"prev\000"
 20369      00
 20370              	.LASF431:
 20371 20db 6F757470 		.ascii	"output_queue_t\000"
 20371      75745F71 
 20371      75657565 
 20371      5F7400
 20372              	.LASF99:
 20373 20ea 5F72616E 		.ascii	"_rand48\000"
 20373      64343800 
 20374              	.LASF723:
 20375 20f2 73746D33 		.ascii	"stm32_otg_t\000"
 20375      325F6F74 
 20375      675F7400 
 20376              	.LASF642:
 20377 20fe 75645F73 		.ascii	"ud_size\000"
 20377      697A6500 
 20378              	.LASF799:
 20379 2106 69627150 		.ascii	"ibqPostFullBufferI\000"
 20379      6F737446 
 20379      756C6C42 
 20379      75666665 
 20379      724900
 20380              	.LASF160:
 20381 2119 7265616C 		.ascii	"realprio\000"
 20381      7072696F 
 20381      00
 20382              	.LASF741:
 20383 2122 696E5F6D 		.ascii	"in_maxsize\000"
 20383      61787369 
 20383      7A6500
 20384              	.LASF154:
 20385 212d 666C6167 		.ascii	"flags\000"
 20385      7300
 20386              	.LASF222:
 20387 2133 41574432 		.ascii	"AWD2CR\000"
 20387      435200
 20388              	.LASF164:
 20389 213a 63685F74 		.ascii	"ch_threads_list\000"
 20389      68726561 
 20389      64735F6C 
 20389      69737400 
 20390              	.LASF267:
 20391 214a 44434F55 		.ascii	"DCOUNT\000"
 20391      4E5400
 20392              	.LASF249:
 20393 2151 4F415231 		.ascii	"OAR1\000"
 20393      00
ARM GAS  /tmp/ccDQUTww.s 			page 387


 20394              	.LASF250:
 20395 2156 4F415232 		.ascii	"OAR2\000"
 20395      00
 20396              	.LASF538:
 20397 215b 53445F52 		.ascii	"SD_READY\000"
 20397      45414459 
 20397      00
 20398              	.LASF625:
 20399 2164 75736273 		.ascii	"usbstate_t\000"
 20399      74617465 
 20399      5F7400
 20400              		.ident	"GCC: (GNU Tools for Arm Embedded Processors 8-2019-q3-update) 8.3.1 20190703 (release) [gc
ARM GAS  /tmp/ccDQUTww.s 			page 388


DEFINED SYMBOLS
                            *ABS*:0000000000000000 hal_buffers.c
     /tmp/ccDQUTww.s:17     .text:0000000000000000 $t
     /tmp/ccDQUTww.s:26     .text:0000000000000000 ibqObjectInit
     /tmp/ccDQUTww.s:117    .text:0000000000000030 ibqResetI
     /tmp/ccDQUTww.s:182    .text:0000000000000050 ibqGetEmptyBufferI
     /tmp/ccDQUTww.s:225    .text:0000000000000070 ibqPostFullBufferI
     /tmp/ccDQUTww.s:309    .text:00000000000000a0 ibqGetFullBufferTimeoutS
     /tmp/ccDQUTww.s:426    .text:00000000000000e0 ibqGetFullBufferTimeout
     /tmp/ccDQUTww.s:565    .text:0000000000000100 ibqReleaseEmptyBuffer
     /tmp/ccDQUTww.s:747    .text:0000000000000140 ibqReleaseEmptyBufferS
     /tmp/ccDQUTww.s:827    .text:0000000000000170 ibqGetTimeout
     /tmp/ccDQUTww.s:1114   .text:00000000000001d0 ibqReadTimeout
     /tmp/ccDQUTww.s:1573   .text:00000000000002b0 obqObjectInit
     /tmp/ccDQUTww.s:1662   .text:00000000000002e0 obqResetI
     /tmp/ccDQUTww.s:1728   .text:0000000000000300 obqGetFullBufferI
     /tmp/ccDQUTww.s:1776   .text:0000000000000320 obqReleaseEmptyBufferI
     /tmp/ccDQUTww.s:1852   .text:0000000000000350 obqGetEmptyBufferTimeoutS
     /tmp/ccDQUTww.s:1971   .text:0000000000000390 obqGetEmptyBufferTimeout
     /tmp/ccDQUTww.s:2107   .text:00000000000003b0 obqPostFullBuffer
     /tmp/ccDQUTww.s:2298   .text:00000000000003f0 obqPostFullBufferS
     /tmp/ccDQUTww.s:2386   .text:0000000000000420 obqPutTimeout
     /tmp/ccDQUTww.s:2699   .text:0000000000000490 obqWriteTimeout
     /tmp/ccDQUTww.s:3180   .text:0000000000000580 obqTryFlushI
     /tmp/ccDQUTww.s:3300   .text:00000000000005d0 obqFlush

UNDEFINED SYMBOLS
chThdDequeueAllI
chThdDequeueNextI
chThdEnqueueTimeoutS
memcpy
