ARM GAS  /tmp/ccHNGi3a.s 			page 1


   1              		.cpu cortex-m7
   2              		.eabi_attribute 27, 1
   3              		.eabi_attribute 28, 1
   4              		.eabi_attribute 20, 1
   5              		.eabi_attribute 21, 1
   6              		.eabi_attribute 23, 3
   7              		.eabi_attribute 24, 1
   8              		.eabi_attribute 25, 1
   9              		.eabi_attribute 26, 1
  10              		.eabi_attribute 30, 2
  11              		.eabi_attribute 34, 1
  12              		.eabi_attribute 18, 4
  13              		.file	"hal_serial.c"
  14              		.text
  15              	.Ltext0:
  16              		.cfi_sections	.debug_frame
  17              		.align	1
  18              		.p2align 4,,15
  19              		.arch armv7e-m
  20              		.syntax unified
  21              		.thumb
  22              		.thumb_func
  23              		.fpu fpv4-sp-d16
  24              		.type	_readt, %function
  25              	_readt:
  26              	.LVL0:
  27              	.LFB369:
  28              		.file 1 "../../../external/ChibiOS/os/hal/src/hal_serial.c"
  29              		.loc 1 89 45 view -0
  30              		.cfi_startproc
  31              		@ args = 0, pretend = 0, frame = 0
  32              		@ frame_needed = 0, uses_anonymous_args = 0
  33              		@ link register save eliminated.
  34              		.loc 1 91 3 view .LVU1
  35              		.loc 1 91 10 is_stmt 0 view .LVU2
  36 0000 0C30     		adds	r0, r0, #12
  37              	.LVL1:
  38              		.loc 1 91 10 view .LVU3
  39 0002 FFF7FEBF 		b	iqReadTimeout
  40              	.LVL2:
  41              		.loc 1 91 10 view .LVU4
  42              		.cfi_endproc
  43              	.LFE369:
  44              		.size	_readt, .-_readt
  45              		.align	1
  46 0006 00BFAFF3 		.p2align 4,,15
  46      0080AFF3 
  46      0080
  47              		.syntax unified
  48              		.thumb
  49              		.thumb_func
  50              		.fpu fpv4-sp-d16
  51              		.type	_read, %function
  52              	_read:
  53              	.LVL3:
  54              	.LFB363:
  55              		.loc 1 56 54 is_stmt 1 view -0
ARM GAS  /tmp/ccHNGi3a.s 			page 2


  56              		.cfi_startproc
  57              		@ args = 0, pretend = 0, frame = 0
  58              		@ frame_needed = 0, uses_anonymous_args = 0
  59              		@ link register save eliminated.
  60              		.loc 1 58 3 view .LVU6
  61              		.loc 1 58 10 is_stmt 0 view .LVU7
  62 0010 0C30     		adds	r0, r0, #12
  63              	.LVL4:
  64              		.loc 1 58 10 view .LVU8
  65 0012 4FF0FF33 		mov	r3, #-1
  66 0016 FFF7FEBF 		b	iqReadTimeout
  67              	.LVL5:
  68              		.loc 1 58 10 view .LVU9
  69              		.cfi_endproc
  70              	.LFE363:
  71              		.size	_read, .-_read
  72              		.align	1
  73 001a 00BFAFF3 		.p2align 4,,15
  73      0080
  74              		.syntax unified
  75              		.thumb
  76              		.thumb_func
  77              		.fpu fpv4-sp-d16
  78              		.type	_writet, %function
  79              	_writet:
  80              	.LVL6:
  81              	.LFB368:
  82              		.loc 1 83 46 is_stmt 1 view -0
  83              		.cfi_startproc
  84              		@ args = 0, pretend = 0, frame = 0
  85              		@ frame_needed = 0, uses_anonymous_args = 0
  86              		@ link register save eliminated.
  87              		.loc 1 85 3 view .LVU11
  88              		.loc 1 85 10 is_stmt 0 view .LVU12
  89 0020 3030     		adds	r0, r0, #48
  90              	.LVL7:
  91              		.loc 1 85 10 view .LVU13
  92 0022 FFF7FEBF 		b	oqWriteTimeout
  93              	.LVL8:
  94              		.loc 1 85 10 view .LVU14
  95              		.cfi_endproc
  96              	.LFE368:
  97              		.size	_writet, .-_writet
  98              		.align	1
  99 0026 00BFAFF3 		.p2align 4,,15
  99      0080AFF3 
  99      0080
 100              		.syntax unified
 101              		.thumb
 102              		.thumb_func
 103              		.fpu fpv4-sp-d16
 104              		.type	_write, %function
 105              	_write:
 106              	.LVL9:
 107              	.LFB362:
 108              		.loc 1 50 61 is_stmt 1 view -0
 109              		.cfi_startproc
ARM GAS  /tmp/ccHNGi3a.s 			page 3


 110              		@ args = 0, pretend = 0, frame = 0
 111              		@ frame_needed = 0, uses_anonymous_args = 0
 112              		@ link register save eliminated.
 113              		.loc 1 52 3 view .LVU16
 114              		.loc 1 52 10 is_stmt 0 view .LVU17
 115 0030 3030     		adds	r0, r0, #48
 116              	.LVL10:
 117              		.loc 1 52 10 view .LVU18
 118 0032 4FF0FF33 		mov	r3, #-1
 119 0036 FFF7FEBF 		b	oqWriteTimeout
 120              	.LVL11:
 121              		.loc 1 52 10 view .LVU19
 122              		.cfi_endproc
 123              	.LFE362:
 124              		.size	_write, .-_write
 125              		.align	1
 126 003a 00BFAFF3 		.p2align 4,,15
 126      0080
 127              		.syntax unified
 128              		.thumb
 129              		.thumb_func
 130              		.fpu fpv4-sp-d16
 131              		.type	_gett, %function
 132              	_gett:
 133              	.LVL12:
 134              	.LFB367:
 135              		.loc 1 77 53 is_stmt 1 view -0
 136              		.cfi_startproc
 137              		@ args = 0, pretend = 0, frame = 0
 138              		@ frame_needed = 0, uses_anonymous_args = 0
 139              		@ link register save eliminated.
 140              		.loc 1 79 3 view .LVU21
 141              		.loc 1 79 10 is_stmt 0 view .LVU22
 142 0040 0C30     		adds	r0, r0, #12
 143              	.LVL13:
 144              		.loc 1 79 10 view .LVU23
 145 0042 FFF7FEBF 		b	iqGetTimeout
 146              	.LVL14:
 147              		.loc 1 79 10 view .LVU24
 148              		.cfi_endproc
 149              	.LFE367:
 150              		.size	_gett, .-_gett
 151              		.align	1
 152 0046 00BFAFF3 		.p2align 4,,15
 152      0080AFF3 
 152      0080
 153              		.syntax unified
 154              		.thumb
 155              		.thumb_func
 156              		.fpu fpv4-sp-d16
 157              		.type	_get, %function
 158              	_get:
 159              	.LVL15:
 160              	.LFB365:
 161              		.loc 1 67 29 is_stmt 1 view -0
 162              		.cfi_startproc
 163              		@ args = 0, pretend = 0, frame = 0
ARM GAS  /tmp/ccHNGi3a.s 			page 4


 164              		@ frame_needed = 0, uses_anonymous_args = 0
 165              		@ link register save eliminated.
 166              		.loc 1 69 3 view .LVU26
 167              		.loc 1 69 10 is_stmt 0 view .LVU27
 168 0050 0C30     		adds	r0, r0, #12
 169              	.LVL16:
 170              		.loc 1 69 10 view .LVU28
 171 0052 4FF0FF31 		mov	r1, #-1
 172 0056 FFF7FEBF 		b	iqGetTimeout
 173              	.LVL17:
 174              		.loc 1 69 10 view .LVU29
 175              		.cfi_endproc
 176              	.LFE365:
 177              		.size	_get, .-_get
 178              		.align	1
 179 005a 00BFAFF3 		.p2align 4,,15
 179      0080
 180              		.syntax unified
 181              		.thumb
 182              		.thumb_func
 183              		.fpu fpv4-sp-d16
 184              		.type	_putt, %function
 185              	_putt:
 186              	.LVL18:
 187              	.LFB366:
 188              		.loc 1 72 64 is_stmt 1 view -0
 189              		.cfi_startproc
 190              		@ args = 0, pretend = 0, frame = 0
 191              		@ frame_needed = 0, uses_anonymous_args = 0
 192              		@ link register save eliminated.
 193              		.loc 1 74 3 view .LVU31
 194              		.loc 1 74 10 is_stmt 0 view .LVU32
 195 0060 3030     		adds	r0, r0, #48
 196              	.LVL19:
 197              		.loc 1 74 10 view .LVU33
 198 0062 FFF7FEBF 		b	oqPutTimeout
 199              	.LVL20:
 200              		.loc 1 74 10 view .LVU34
 201              		.cfi_endproc
 202              	.LFE366:
 203              		.size	_putt, .-_putt
 204              		.align	1
 205 0066 00BFAFF3 		.p2align 4,,15
 205      0080AFF3 
 205      0080
 206              		.syntax unified
 207              		.thumb
 208              		.thumb_func
 209              		.fpu fpv4-sp-d16
 210              		.type	_put, %function
 211              	_put:
 212              	.LVL21:
 213              	.LFB364:
 214              		.loc 1 62 40 is_stmt 1 view -0
 215              		.cfi_startproc
 216              		@ args = 0, pretend = 0, frame = 0
 217              		@ frame_needed = 0, uses_anonymous_args = 0
ARM GAS  /tmp/ccHNGi3a.s 			page 5


 218              		@ link register save eliminated.
 219              		.loc 1 64 3 view .LVU36
 220              		.loc 1 64 10 is_stmt 0 view .LVU37
 221 0070 3030     		adds	r0, r0, #48
 222              	.LVL22:
 223              		.loc 1 64 10 view .LVU38
 224 0072 4FF0FF32 		mov	r2, #-1
 225 0076 FFF7FEBF 		b	oqPutTimeout
 226              	.LVL23:
 227              		.loc 1 64 10 view .LVU39
 228              		.cfi_endproc
 229              	.LFE364:
 230              		.size	_put, .-_put
 231              		.align	1
 232 007a 00BFAFF3 		.p2align 4,,15
 232      0080
 233              		.syntax unified
 234              		.thumb
 235              		.thumb_func
 236              		.fpu fpv4-sp-d16
 237              		.type	_ctl, %function
 238              	_ctl:
 239              	.LFB381:
 240              		.cfi_startproc
 241              		@ args = 0, pretend = 0, frame = 0
 242              		@ frame_needed = 0, uses_anonymous_args = 0
 243              		@ link register save eliminated.
 244 0080 0020     		movs	r0, #0
 245 0082 7047     		bx	lr
 246              		.cfi_endproc
 247              	.LFE381:
 248              		.size	_ctl, .-_ctl
 249              		.align	1
 250 0084 AFF30080 		.p2align 4,,15
 250      AFF30080 
 250      AFF30080 
 251              		.global	sdInit
 252              		.syntax unified
 253              		.thumb
 254              		.thumb_func
 255              		.fpu fpv4-sp-d16
 256              		.type	sdInit, %function
 257              	sdInit:
 258              	.LFB371:
 259              		.loc 1 135 19 is_stmt 1 view -0
 260              		.cfi_startproc
 261              		@ args = 0, pretend = 0, frame = 0
 262              		@ frame_needed = 0, uses_anonymous_args = 0
 263              		@ link register save eliminated.
 264              		.loc 1 137 3 view .LVU41
 265 0090 FFF7FEBF 		b	sd_lld_init
 266              	.LVL24:
 267              		.cfi_endproc
 268              	.LFE371:
 269              		.size	sdInit, .-sdInit
 270              		.align	1
 271 0094 AFF30080 		.p2align 4,,15
ARM GAS  /tmp/ccHNGi3a.s 			page 6


 271      AFF30080 
 271      AFF30080 
 272              		.global	sdObjectInit
 273              		.syntax unified
 274              		.thumb
 275              		.thumb_func
 276              		.fpu fpv4-sp-d16
 277              		.type	sdObjectInit, %function
 278              	sdObjectInit:
 279              	.LVL25:
 280              	.LFB372:
 281              		.loc 1 167 38 view -0
 282              		.cfi_startproc
 283              		@ args = 0, pretend = 0, frame = 0
 284              		@ frame_needed = 0, uses_anonymous_args = 0
 285              		@ link register save eliminated.
 286              		.loc 1 169 3 view .LVU43
 287              		.loc 1 169 12 is_stmt 0 view .LVU44
 288 00a0 0346     		mov	r3, r0
 289 00a2 0349     		ldr	r1, .L13
 290              		.loc 1 171 14 view .LVU45
 291 00a4 0122     		movs	r2, #1
 292              		.loc 1 169 12 view .LVU46
 293 00a6 43F8041B 		str	r1, [r3], #4
 294              		.loc 1 170 3 is_stmt 1 view .LVU47
 295              	.LVL26:
 296              	.LBB92:
 297              	.LBI92:
 298              		.file 2 "../../../external/ChibiOS/os/hal/osal/rt-nil/osal.h"
 299              		.loc 2 868 20 view .LVU48
 300              	.LBE92:
 301              		.loc 2 870 3 view .LVU49
 302              	.LBB97:
 303              	.LBB93:
 304              	.LBI93:
 305              		.file 3 "../../../external/ChibiOS/os/rt/include/chevents.h"
 306              		.loc 3 171 20 view .LVU50
 307              	.LBB94:
 308              		.loc 3 173 3 view .LVU51
 309              	.LBE94:
 310              	.LBE93:
 311              	.LBE97:
 312              		.loc 1 171 14 is_stmt 0 view .LVU52
 313 00aa 0272     		strb	r2, [r0, #8]
 314              	.LBB98:
 315              	.LBB96:
 316              	.LBB95:
 317              		.loc 3 173 13 view .LVU53
 318 00ac 4360     		str	r3, [r0, #4]
 319              	.LVL27:
 320              		.loc 3 173 13 view .LVU54
 321              	.LBE95:
 322              	.LBE96:
 323              	.LBE98:
 324              		.loc 1 171 3 is_stmt 1 view .LVU55
 325              		.loc 1 172 1 is_stmt 0 view .LVU56
 326 00ae 7047     		bx	lr
ARM GAS  /tmp/ccHNGi3a.s 			page 7


 327              	.L14:
 328              		.align	2
 329              	.L13:
 330 00b0 00000000 		.word	.LANCHOR0
 331              		.cfi_endproc
 332              	.LFE372:
 333              		.size	sdObjectInit, .-sdObjectInit
 334              		.align	1
 335 00b4 AFF30080 		.p2align 4,,15
 335      AFF30080 
 335      AFF30080 
 336              		.global	sdStart
 337              		.syntax unified
 338              		.thumb
 339              		.thumb_func
 340              		.fpu fpv4-sp-d16
 341              		.type	sdStart, %function
 342              	sdStart:
 343              	.LVL28:
 344              	.LFB373:
 345              		.loc 1 185 61 is_stmt 1 view -0
 346              		.cfi_startproc
 347              		@ args = 0, pretend = 0, frame = 0
 348              		@ frame_needed = 0, uses_anonymous_args = 0
 349              		.loc 1 187 3 view .LVU58
 350              		.loc 1 187 3 view .LVU59
 351              		.loc 1 189 3 view .LVU60
 352              	.LBB99:
 353              	.LBI99:
 354              		.loc 2 509 20 view .LVU61
 355              	.LBE99:
 356              		.loc 2 511 3 view .LVU62
 357              	.LBB115:
 358              	.LBB100:
 359              	.LBI100:
 360              		.file 4 "../../../external/ChibiOS/os/rt/include/chsys.h"
 361              		.loc 4 353 20 view .LVU63
 362              	.LBE100:
 363              	.LBE115:
 364              		.loc 4 355 3 view .LVU64
 365              	.LBB116:
 366              	.LBB111:
 367              	.LBB101:
 368              	.LBI101:
 369              		.file 5 "../../../external/ChibiOS/os/common/ports/ARMCMx/chcore_v7m.h"
 370              		.loc 5 669 27 view .LVU65
 371              	.LBE101:
 372              	.LBE111:
 373              	.LBE116:
 374              		.loc 5 677 3 view .LVU66
 375              	.LBB117:
 376              	.LBB112:
 377              	.LBB108:
 378              	.LBB102:
 379              	.LBI102:
 380              		.file 6 "../../../external/ChibiOS/os/common/ext/ARM/CMSIS/Core/Include/cmsis_gcc.h"
 381              		.loc 6 491 27 view .LVU67
ARM GAS  /tmp/ccHNGi3a.s 			page 8


 382              	.LBB103:
 383              		.loc 6 493 3 view .LVU68
 384              	.LBE103:
 385              	.LBE102:
 386              	.LBE108:
 387              	.LBE112:
 388              	.LBE117:
 389              		.loc 1 185 61 is_stmt 0 view .LVU69
 390 00c0 10B5     		push	{r4, lr}
 391              		.cfi_def_cfa_offset 8
 392              		.cfi_offset 4, -8
 393              		.cfi_offset 14, -4
 394              	.LBB118:
 395              	.LBB113:
 396              	.LBB109:
 397              	.LBB106:
 398              	.LBB104:
 399              		.loc 6 493 3 view .LVU70
 400 00c2 2023     		movs	r3, #32
 401              	.LBE104:
 402              	.LBE106:
 403              	.LBE109:
 404              	.LBE113:
 405              	.LBE118:
 406              		.loc 1 185 61 view .LVU71
 407 00c4 0446     		mov	r4, r0
 408              	.LBB119:
 409              	.LBB114:
 410              	.LBB110:
 411              	.LBB107:
 412              	.LBB105:
 413              		.loc 6 493 3 view .LVU72
 414              		.syntax unified
 415              	@ 493 "../../../external/ChibiOS/os/common/ext/ARM/CMSIS/Core/Include/cmsis_gcc.h" 1
 416 00c6 83F31188 		MSR basepri, r3
 417              	@ 0 "" 2
 418              	.LVL29:
 419              		.loc 6 493 3 view .LVU73
 420              		.thumb
 421              		.syntax unified
 422              	.LBE105:
 423              	.LBE107:
 424              	.LBE110:
 425              	.LBE114:
 426              	.LBE119:
 427              		.loc 4 356 34 is_stmt 1 view .LVU74
 428              		.loc 4 357 20 view .LVU75
 429              		.loc 1 190 3 view .LVU76
 430              		.loc 1 190 3 view .LVU77
 431              		.loc 1 192 3 view .LVU78
 432 00ca FFF7FEFF 		bl	sd_lld_start
 433              	.LVL30:
 434              		.loc 1 193 3 view .LVU79
 435              		.loc 1 193 14 is_stmt 0 view .LVU80
 436 00ce 0222     		movs	r2, #2
 437              	.LBB120:
 438              	.LBB121:
ARM GAS  /tmp/ccHNGi3a.s 			page 9


 439              	.LBB122:
 440              	.LBB123:
 441              	.LBB124:
 442              	.LBB125:
 443              		.loc 6 493 3 view .LVU81
 444 00d0 0023     		movs	r3, #0
 445              	.LBE125:
 446              	.LBE124:
 447              	.LBE123:
 448              	.LBE122:
 449              	.LBE121:
 450              	.LBE120:
 451              		.loc 1 193 14 view .LVU82
 452 00d2 2272     		strb	r2, [r4, #8]
 453              		.loc 1 194 3 is_stmt 1 view .LVU83
 454              	.LBB134:
 455              	.LBI120:
 456              		.loc 2 520 20 view .LVU84
 457              	.LBE134:
 458              		.loc 2 522 3 view .LVU85
 459              	.LBB135:
 460              	.LBB132:
 461              	.LBI121:
 462              		.loc 4 365 20 view .LVU86
 463              	.LBB130:
 464              		.loc 4 367 22 view .LVU87
 465              		.loc 4 368 33 view .LVU88
 466              		.loc 4 374 3 view .LVU89
 467              		.loc 4 374 3 view .LVU90
 468              		.loc 4 378 3 view .LVU91
 469              	.LBB128:
 470              	.LBI123:
 471              		.loc 5 693 27 view .LVU92
 472              	.LBE128:
 473              	.LBE130:
 474              	.LBE132:
 475              	.LBE135:
 476              		.loc 5 696 3 view .LVU93
 477              	.LVL31:
 478              	.LBB136:
 479              	.LBB133:
 480              	.LBB131:
 481              	.LBB129:
 482              	.LBB127:
 483              	.LBI124:
 484              		.loc 6 491 27 view .LVU94
 485              	.LBB126:
 486              		.loc 6 493 3 view .LVU95
 487              		.syntax unified
 488              	@ 493 "../../../external/ChibiOS/os/common/ext/ARM/CMSIS/Core/Include/cmsis_gcc.h" 1
 489 00d4 83F31188 		MSR basepri, r3
 490              	@ 0 "" 2
 491              	.LVL32:
 492              		.loc 6 493 3 is_stmt 0 view .LVU96
 493              		.thumb
 494              		.syntax unified
 495              	.LBE126:
ARM GAS  /tmp/ccHNGi3a.s 			page 10


 496              	.LBE127:
 497              	.LBE129:
 498              	.LBE131:
 499              	.LBE133:
 500              	.LBE136:
 501              		.loc 1 195 1 view .LVU97
 502 00d8 10BD     		pop	{r4, pc}
 503              		.loc 1 195 1 view .LVU98
 504              		.cfi_endproc
 505              	.LFE373:
 506              		.size	sdStart, .-sdStart
 507              		.align	1
 508 00da 00BFAFF3 		.p2align 4,,15
 508      0080
 509              		.global	sdStop
 510              		.syntax unified
 511              		.thumb
 512              		.thumb_func
 513              		.fpu fpv4-sp-d16
 514              		.type	sdStop, %function
 515              	sdStop:
 516              	.LVL33:
 517              	.LFB374:
 518              		.loc 1 206 32 is_stmt 1 view -0
 519              		.cfi_startproc
 520              		@ args = 0, pretend = 0, frame = 0
 521              		@ frame_needed = 0, uses_anonymous_args = 0
 522              		.loc 1 208 3 view .LVU100
 523              		.loc 1 208 3 view .LVU101
 524              		.loc 1 210 3 view .LVU102
 525              	.LBB137:
 526              	.LBI137:
 527              		.loc 2 509 20 view .LVU103
 528              	.LBE137:
 529              		.loc 2 511 3 view .LVU104
 530              	.LBB153:
 531              	.LBB138:
 532              	.LBI138:
 533              		.loc 4 353 20 view .LVU105
 534              	.LBE138:
 535              	.LBE153:
 536              		.loc 4 355 3 view .LVU106
 537              	.LBB154:
 538              	.LBB149:
 539              	.LBB139:
 540              	.LBI139:
 541              		.loc 5 669 27 view .LVU107
 542              	.LBE139:
 543              	.LBE149:
 544              	.LBE154:
 545              		.loc 5 677 3 view .LVU108
 546              	.LBB155:
 547              	.LBB150:
 548              	.LBB146:
 549              	.LBB140:
 550              	.LBI140:
 551              		.loc 6 491 27 view .LVU109
ARM GAS  /tmp/ccHNGi3a.s 			page 11


 552              	.LBB141:
 553              		.loc 6 493 3 view .LVU110
 554              	.LBE141:
 555              	.LBE140:
 556              	.LBE146:
 557              	.LBE150:
 558              	.LBE155:
 559              		.loc 1 206 32 is_stmt 0 view .LVU111
 560 00e0 10B5     		push	{r4, lr}
 561              		.cfi_def_cfa_offset 8
 562              		.cfi_offset 4, -8
 563              		.cfi_offset 14, -4
 564              	.LBB156:
 565              	.LBB151:
 566              	.LBB147:
 567              	.LBB144:
 568              	.LBB142:
 569              		.loc 6 493 3 view .LVU112
 570 00e2 2023     		movs	r3, #32
 571              	.LBE142:
 572              	.LBE144:
 573              	.LBE147:
 574              	.LBE151:
 575              	.LBE156:
 576              		.loc 1 206 32 view .LVU113
 577 00e4 0446     		mov	r4, r0
 578              	.LBB157:
 579              	.LBB152:
 580              	.LBB148:
 581              	.LBB145:
 582              	.LBB143:
 583              		.loc 6 493 3 view .LVU114
 584              		.syntax unified
 585              	@ 493 "../../../external/ChibiOS/os/common/ext/ARM/CMSIS/Core/Include/cmsis_gcc.h" 1
 586 00e6 83F31188 		MSR basepri, r3
 587              	@ 0 "" 2
 588              	.LVL34:
 589              		.loc 6 493 3 view .LVU115
 590              		.thumb
 591              		.syntax unified
 592              	.LBE143:
 593              	.LBE145:
 594              	.LBE148:
 595              	.LBE152:
 596              	.LBE157:
 597              		.loc 4 356 34 is_stmt 1 view .LVU116
 598              		.loc 4 357 20 view .LVU117
 599              		.loc 1 212 3 view .LVU118
 600              		.loc 1 212 3 view .LVU119
 601              		.loc 1 215 3 view .LVU120
 602 00ea FFF7FEFF 		bl	sd_lld_stop
 603              	.LVL35:
 604              		.loc 1 216 3 view .LVU121
 605              		.loc 1 216 14 is_stmt 0 view .LVU122
 606 00ee 0123     		movs	r3, #1
 607              		.loc 1 217 3 view .LVU123
 608 00f0 04F13000 		add	r0, r4, #48
ARM GAS  /tmp/ccHNGi3a.s 			page 12


 609              		.loc 1 216 14 view .LVU124
 610 00f4 2372     		strb	r3, [r4, #8]
 611              		.loc 1 217 3 is_stmt 1 view .LVU125
 612 00f6 FFF7FEFF 		bl	oqResetI
 613              	.LVL36:
 614              		.loc 1 218 3 view .LVU126
 615 00fa 04F10C00 		add	r0, r4, #12
 616 00fe FFF7FEFF 		bl	iqResetI
 617              	.LVL37:
 618              		.loc 1 219 3 view .LVU127
 619              	.LBB158:
 620              	.LBI158:
 621              		.loc 2 616 20 view .LVU128
 622              	.LBB159:
 623              		.loc 2 618 3 view .LVU129
 624 0102 FFF7FEFF 		bl	chSchRescheduleS
 625              	.LVL38:
 626              	.LBE159:
 627              	.LBE158:
 628              		.loc 1 221 3 view .LVU130
 629              	.LBB160:
 630              	.LBI160:
 631              		.loc 2 520 20 view .LVU131
 632              	.LBE160:
 633              		.loc 2 522 3 view .LVU132
 634              	.LBB169:
 635              	.LBB161:
 636              	.LBI161:
 637              		.loc 4 365 20 view .LVU133
 638              	.LBB162:
 639              		.loc 4 367 22 view .LVU134
 640              		.loc 4 368 33 view .LVU135
 641              		.loc 4 374 3 view .LVU136
 642              		.loc 4 374 3 view .LVU137
 643              		.loc 4 378 3 view .LVU138
 644              	.LBB163:
 645              	.LBI163:
 646              		.loc 5 693 27 view .LVU139
 647              	.LBE163:
 648              	.LBE162:
 649              	.LBE161:
 650              	.LBE169:
 651              		.loc 5 696 3 view .LVU140
 652              	.LBB170:
 653              	.LBB168:
 654              	.LBB167:
 655              	.LBB166:
 656              	.LBB164:
 657              	.LBI164:
 658              		.loc 6 491 27 view .LVU141
 659              	.LBB165:
 660              		.loc 6 493 3 view .LVU142
 661 0106 0023     		movs	r3, #0
 662              		.syntax unified
 663              	@ 493 "../../../external/ChibiOS/os/common/ext/ARM/CMSIS/Core/Include/cmsis_gcc.h" 1
 664 0108 83F31188 		MSR basepri, r3
 665              	@ 0 "" 2
ARM GAS  /tmp/ccHNGi3a.s 			page 13


 666              	.LVL39:
 667              		.loc 6 493 3 is_stmt 0 view .LVU143
 668              		.thumb
 669              		.syntax unified
 670              	.LBE165:
 671              	.LBE164:
 672              	.LBE166:
 673              	.LBE167:
 674              	.LBE168:
 675              	.LBE170:
 676              		.loc 1 222 1 view .LVU144
 677 010c 10BD     		pop	{r4, pc}
 678              		.loc 1 222 1 view .LVU145
 679              		.cfi_endproc
 680              	.LFE374:
 681              		.size	sdStop, .-sdStop
 682              		.align	1
 683 010e 00BF     		.p2align 4,,15
 684              		.global	sdIncomingDataI
 685              		.syntax unified
 686              		.thumb
 687              		.thumb_func
 688              		.fpu fpv4-sp-d16
 689              		.type	sdIncomingDataI, %function
 690              	sdIncomingDataI:
 691              	.LVL40:
 692              	.LFB375:
 693              		.loc 1 240 52 is_stmt 1 view -0
 694              		.cfi_startproc
 695              		@ args = 0, pretend = 0, frame = 0
 696              		@ frame_needed = 0, uses_anonymous_args = 0
 697              		.loc 1 242 23 view .LVU147
 698              		.loc 1 243 3 view .LVU148
 699              		.loc 1 243 3 view .LVU149
 700              		.loc 1 245 3 view .LVU150
 701              		.loc 1 240 52 is_stmt 0 view .LVU151
 702 0110 38B5     		push	{r3, r4, r5, lr}
 703              		.cfi_def_cfa_offset 16
 704              		.cfi_offset 3, -16
 705              		.cfi_offset 4, -12
 706              		.cfi_offset 5, -8
 707              		.cfi_offset 14, -4
 708              		.loc 1 245 7 view .LVU152
 709 0112 4369     		ldr	r3, [r0, #20]
 710              		.loc 1 240 52 view .LVU153
 711 0114 0446     		mov	r4, r0
 712 0116 0D46     		mov	r5, r1
 713              		.loc 1 245 6 view .LVU154
 714 0118 3BB1     		cbz	r3, .L23
 715              		.loc 1 246 43 is_stmt 1 discriminator 1 view .LVU155
 716              		.loc 1 247 3 discriminator 1 view .LVU156
 717              		.loc 1 247 7 is_stmt 0 discriminator 1 view .LVU157
 718 011a 2946     		mov	r1, r5
 719              	.LVL41:
 720              		.loc 1 247 7 discriminator 1 view .LVU158
 721 011c 04F10C00 		add	r0, r4, #12
 722              	.LVL42:
ARM GAS  /tmp/ccHNGi3a.s 			page 14


 723              		.loc 1 247 7 discriminator 1 view .LVU159
 724 0120 FFF7FEFF 		bl	iqPutI
 725              	.LVL43:
 726              		.loc 1 247 6 discriminator 1 view .LVU160
 727 0124 0028     		cmp	r0, #0
 728 0126 0BDB     		blt	.L24
 729              	.L19:
 730              		.loc 1 249 1 view .LVU161
 731 0128 38BD     		pop	{r3, r4, r5, pc}
 732              	.LVL44:
 733              	.L23:
 734              		.loc 1 246 5 is_stmt 1 view .LVU162
 735              	.LBB171:
 736              	.LBI171:
 737              		.loc 2 892 20 view .LVU163
 738              	.LBB172:
 739              		.loc 2 895 3 view .LVU164
 740 012a 0421     		movs	r1, #4
 741              	.LVL45:
 742              		.loc 2 895 3 is_stmt 0 view .LVU165
 743 012c 0844     		add	r0, r0, r1
 744              	.LVL46:
 745              		.loc 2 895 3 view .LVU166
 746 012e FFF7FEFF 		bl	chEvtBroadcastFlagsI
 747              	.LVL47:
 748              		.loc 2 895 3 view .LVU167
 749              	.LBE172:
 750              	.LBE171:
 751              		.loc 1 246 43 is_stmt 1 view .LVU168
 752              		.loc 1 247 3 view .LVU169
 753              		.loc 1 247 7 is_stmt 0 view .LVU170
 754 0132 2946     		mov	r1, r5
 755 0134 04F10C00 		add	r0, r4, #12
 756 0138 FFF7FEFF 		bl	iqPutI
 757              	.LVL48:
 758              		.loc 1 247 6 view .LVU171
 759 013c 0028     		cmp	r0, #0
 760 013e F3DA     		bge	.L19
 761              	.LVL49:
 762              	.L24:
 763              		.loc 1 248 5 is_stmt 1 view .LVU172
 764              	.LBB173:
 765              	.LBI173:
 766              		.loc 2 892 20 view .LVU173
 767              	.LBB174:
 768              		.loc 2 895 3 view .LVU174
 769 0140 201D     		adds	r0, r4, #4
 770              	.LVL50:
 771              		.loc 2 895 3 is_stmt 0 view .LVU175
 772 0142 4FF48061 		mov	r1, #1024
 773              	.LBE174:
 774              	.LBE173:
 775              		.loc 1 249 1 view .LVU176
 776 0146 BDE83840 		pop	{r3, r4, r5, lr}
 777              		.cfi_restore 14
 778              		.cfi_restore 5
 779              		.cfi_restore 4
ARM GAS  /tmp/ccHNGi3a.s 			page 15


 780              		.cfi_restore 3
 781              		.cfi_def_cfa_offset 0
 782              	.LVL51:
 783              	.LBB176:
 784              	.LBB175:
 785              		.loc 2 895 3 view .LVU177
 786 014a FFF7FEBF 		b	chEvtBroadcastFlagsI
 787              	.LVL52:
 788              		.loc 2 895 3 view .LVU178
 789              	.LBE175:
 790              	.LBE176:
 791              		.cfi_endproc
 792              	.LFE375:
 793              		.size	sdIncomingDataI, .-sdIncomingDataI
 794              		.align	1
 795 014e 00BF     		.p2align 4,,15
 796              		.global	sdRequestDataI
 797              		.syntax unified
 798              		.thumb
 799              		.thumb_func
 800              		.fpu fpv4-sp-d16
 801              		.type	sdRequestDataI, %function
 802              	sdRequestDataI:
 803              	.LVL53:
 804              	.LFB376:
 805              		.loc 1 266 41 is_stmt 1 view -0
 806              		.cfi_startproc
 807              		@ args = 0, pretend = 0, frame = 0
 808              		@ frame_needed = 0, uses_anonymous_args = 0
 809              		.loc 1 267 3 view .LVU180
 810              		.loc 1 269 23 view .LVU181
 811              		.loc 1 270 3 view .LVU182
 812              		.loc 1 270 3 view .LVU183
 813              		.loc 1 272 3 view .LVU184
 814              		.loc 1 266 41 is_stmt 0 view .LVU185
 815 0150 38B5     		push	{r3, r4, r5, lr}
 816              		.cfi_def_cfa_offset 16
 817              		.cfi_offset 3, -16
 818              		.cfi_offset 4, -12
 819              		.cfi_offset 5, -8
 820              		.cfi_offset 14, -4
 821              		.loc 1 266 41 view .LVU186
 822 0152 0446     		mov	r4, r0
 823              		.loc 1 272 7 view .LVU187
 824 0154 3030     		adds	r0, r0, #48
 825              	.LVL54:
 826              		.loc 1 272 7 view .LVU188
 827 0156 FFF7FEFF 		bl	oqGetI
 828              	.LVL55:
 829              		.loc 1 273 3 is_stmt 1 view .LVU189
 830              		.loc 1 273 6 is_stmt 0 view .LVU190
 831 015a 051E     		subs	r5, r0, #0
 832 015c 01DB     		blt	.L28
 833              		.loc 1 276 1 view .LVU191
 834 015e 2846     		mov	r0, r5
 835              		.loc 1 276 1 view .LVU192
 836 0160 38BD     		pop	{r3, r4, r5, pc}
ARM GAS  /tmp/ccHNGi3a.s 			page 16


 837              	.LVL56:
 838              	.L28:
 839              		.loc 1 274 5 is_stmt 1 view .LVU193
 840              	.LBB177:
 841              	.LBI177:
 842              		.loc 2 892 20 view .LVU194
 843              	.LBB178:
 844              		.loc 2 895 3 view .LVU195
 845 0162 201D     		adds	r0, r4, #4
 846              	.LVL57:
 847              		.loc 2 895 3 is_stmt 0 view .LVU196
 848 0164 0821     		movs	r1, #8
 849 0166 FFF7FEFF 		bl	chEvtBroadcastFlagsI
 850              	.LVL58:
 851              		.loc 2 895 3 view .LVU197
 852              	.LBE178:
 853              	.LBE177:
 854              		.loc 1 274 40 is_stmt 1 view .LVU198
 855              		.loc 1 275 3 view .LVU199
 856              		.loc 1 276 1 is_stmt 0 view .LVU200
 857 016a 2846     		mov	r0, r5
 858 016c 38BD     		pop	{r3, r4, r5, pc}
 859              		.loc 1 276 1 view .LVU201
 860              		.cfi_endproc
 861              	.LFE376:
 862              		.size	sdRequestDataI, .-sdRequestDataI
 863              		.align	1
 864 016e 00BF     		.p2align 4,,15
 865              		.global	sdPutWouldBlock
 866              		.syntax unified
 867              		.thumb
 868              		.thumb_func
 869              		.fpu fpv4-sp-d16
 870              		.type	sdPutWouldBlock, %function
 871              	sdPutWouldBlock:
 872              	.LVL59:
 873              	.LFB377:
 874              		.loc 1 293 41 is_stmt 1 view -0
 875              		.cfi_startproc
 876              		@ args = 0, pretend = 0, frame = 0
 877              		@ frame_needed = 0, uses_anonymous_args = 0
 878              		@ link register save eliminated.
 879              		.loc 1 294 3 view .LVU203
 880              		.loc 1 296 3 view .LVU204
 881              	.LBB179:
 882              	.LBI179:
 883              		.loc 2 509 20 view .LVU205
 884              	.LBE179:
 885              		.loc 2 511 3 view .LVU206
 886              	.LBB187:
 887              	.LBB180:
 888              	.LBI180:
 889              		.loc 4 353 20 view .LVU207
 890              	.LBE180:
 891              	.LBE187:
 892              		.loc 4 355 3 view .LVU208
 893              	.LBB188:
ARM GAS  /tmp/ccHNGi3a.s 			page 17


 894              	.LBB185:
 895              	.LBB181:
 896              	.LBI181:
 897              		.loc 5 669 27 view .LVU209
 898              	.LBE181:
 899              	.LBE185:
 900              	.LBE188:
 901              		.loc 5 677 3 view .LVU210
 902              	.LBB189:
 903              	.LBB186:
 904              	.LBB184:
 905              	.LBB182:
 906              	.LBI182:
 907              		.loc 6 491 27 view .LVU211
 908              	.LBB183:
 909              		.loc 6 493 3 view .LVU212
 910 0170 2023     		movs	r3, #32
 911              		.syntax unified
 912              	@ 493 "../../../external/ChibiOS/os/common/ext/ARM/CMSIS/Core/Include/cmsis_gcc.h" 1
 913 0172 83F31188 		MSR basepri, r3
 914              	@ 0 "" 2
 915              	.LVL60:
 916              		.loc 6 493 3 is_stmt 0 view .LVU213
 917              		.thumb
 918              		.syntax unified
 919              	.LBE183:
 920              	.LBE182:
 921              	.LBE184:
 922              	.LBE186:
 923              	.LBE189:
 924              		.loc 4 356 34 is_stmt 1 view .LVU214
 925              		.loc 4 357 20 view .LVU215
 926              		.loc 1 297 3 view .LVU216
 927              	.LBB190:
 928              	.LBB191:
 929              	.LBB192:
 930              	.LBB193:
 931              	.LBB194:
 932              	.LBB195:
 933              		.loc 6 493 3 is_stmt 0 view .LVU217
 934 0176 0023     		movs	r3, #0
 935              	.LBE195:
 936              	.LBE194:
 937              	.LBE193:
 938              	.LBE192:
 939              	.LBE191:
 940              	.LBE190:
 941              		.loc 1 297 7 view .LVU218
 942 0178 806B     		ldr	r0, [r0, #56]
 943              	.LVL61:
 944              		.loc 1 298 3 is_stmt 1 view .LVU219
 945              	.LBB204:
 946              	.LBI190:
 947              		.loc 2 520 20 view .LVU220
 948              	.LBE204:
 949              		.loc 2 522 3 view .LVU221
 950              	.LBB205:
ARM GAS  /tmp/ccHNGi3a.s 			page 18


 951              	.LBB202:
 952              	.LBI191:
 953              		.loc 4 365 20 view .LVU222
 954              	.LBB200:
 955              		.loc 4 367 22 view .LVU223
 956              		.loc 4 368 33 view .LVU224
 957              		.loc 4 374 3 view .LVU225
 958              		.loc 4 374 3 view .LVU226
 959              		.loc 4 378 3 view .LVU227
 960              	.LBB198:
 961              	.LBI193:
 962              		.loc 5 693 27 view .LVU228
 963              	.LBE198:
 964              	.LBE200:
 965              	.LBE202:
 966              	.LBE205:
 967              		.loc 5 696 3 view .LVU229
 968              	.LBB206:
 969              	.LBB203:
 970              	.LBB201:
 971              	.LBB199:
 972              	.LBB197:
 973              	.LBI194:
 974              		.loc 6 491 27 view .LVU230
 975              	.LBB196:
 976              		.loc 6 493 3 view .LVU231
 977              		.syntax unified
 978              	@ 493 "../../../external/ChibiOS/os/common/ext/ARM/CMSIS/Core/Include/cmsis_gcc.h" 1
 979 017a 83F31188 		MSR basepri, r3
 980              	@ 0 "" 2
 981              	.LVL62:
 982              		.loc 6 493 3 is_stmt 0 view .LVU232
 983              		.thumb
 984              		.syntax unified
 985              	.LBE196:
 986              	.LBE197:
 987              	.LBE199:
 988              	.LBE201:
 989              	.LBE203:
 990              	.LBE206:
 991              		.loc 1 300 3 is_stmt 1 view .LVU233
 992              		.loc 1 301 1 is_stmt 0 view .LVU234
 993 017e B0FA80F0 		clz	r0, r0
 994              	.LVL63:
 995              		.loc 1 301 1 view .LVU235
 996 0182 4009     		lsrs	r0, r0, #5
 997 0184 7047     		bx	lr
 998              		.cfi_endproc
 999              	.LFE377:
 1000              		.size	sdPutWouldBlock, .-sdPutWouldBlock
 1001              		.align	1
 1002 0186 00BFAFF3 		.p2align 4,,15
 1002      0080AFF3 
 1002      0080
 1003              		.global	sdGetWouldBlock
 1004              		.syntax unified
 1005              		.thumb
ARM GAS  /tmp/ccHNGi3a.s 			page 19


 1006              		.thumb_func
 1007              		.fpu fpv4-sp-d16
 1008              		.type	sdGetWouldBlock, %function
 1009              	sdGetWouldBlock:
 1010              	.LVL64:
 1011              	.LFB378:
 1012              		.loc 1 318 41 is_stmt 1 view -0
 1013              		.cfi_startproc
 1014              		@ args = 0, pretend = 0, frame = 0
 1015              		@ frame_needed = 0, uses_anonymous_args = 0
 1016              		@ link register save eliminated.
 1017              		.loc 1 319 3 view .LVU237
 1018              		.loc 1 321 3 view .LVU238
 1019              	.LBB207:
 1020              	.LBI207:
 1021              		.loc 2 509 20 view .LVU239
 1022              	.LBE207:
 1023              		.loc 2 511 3 view .LVU240
 1024              	.LBB215:
 1025              	.LBB208:
 1026              	.LBI208:
 1027              		.loc 4 353 20 view .LVU241
 1028              	.LBE208:
 1029              	.LBE215:
 1030              		.loc 4 355 3 view .LVU242
 1031              	.LBB216:
 1032              	.LBB213:
 1033              	.LBB209:
 1034              	.LBI209:
 1035              		.loc 5 669 27 view .LVU243
 1036              	.LBE209:
 1037              	.LBE213:
 1038              	.LBE216:
 1039              		.loc 5 677 3 view .LVU244
 1040              	.LBB217:
 1041              	.LBB214:
 1042              	.LBB212:
 1043              	.LBB210:
 1044              	.LBI210:
 1045              		.loc 6 491 27 view .LVU245
 1046              	.LBB211:
 1047              		.loc 6 493 3 view .LVU246
 1048 0190 2023     		movs	r3, #32
 1049              		.syntax unified
 1050              	@ 493 "../../../external/ChibiOS/os/common/ext/ARM/CMSIS/Core/Include/cmsis_gcc.h" 1
 1051 0192 83F31188 		MSR basepri, r3
 1052              	@ 0 "" 2
 1053              	.LVL65:
 1054              		.loc 6 493 3 is_stmt 0 view .LVU247
 1055              		.thumb
 1056              		.syntax unified
 1057              	.LBE211:
 1058              	.LBE210:
 1059              	.LBE212:
 1060              	.LBE214:
 1061              	.LBE217:
 1062              		.loc 4 356 34 is_stmt 1 view .LVU248
ARM GAS  /tmp/ccHNGi3a.s 			page 20


 1063              		.loc 4 357 20 view .LVU249
 1064              		.loc 1 322 3 view .LVU250
 1065              	.LBB218:
 1066              	.LBB219:
 1067              	.LBB220:
 1068              	.LBB221:
 1069              	.LBB222:
 1070              	.LBB223:
 1071              		.loc 6 493 3 is_stmt 0 view .LVU251
 1072 0196 0023     		movs	r3, #0
 1073              	.LBE223:
 1074              	.LBE222:
 1075              	.LBE221:
 1076              	.LBE220:
 1077              	.LBE219:
 1078              	.LBE218:
 1079              		.loc 1 322 7 view .LVU252
 1080 0198 4069     		ldr	r0, [r0, #20]
 1081              	.LVL66:
 1082              		.loc 1 323 3 is_stmt 1 view .LVU253
 1083              	.LBB232:
 1084              	.LBI218:
 1085              		.loc 2 520 20 view .LVU254
 1086              	.LBE232:
 1087              		.loc 2 522 3 view .LVU255
 1088              	.LBB233:
 1089              	.LBB230:
 1090              	.LBI219:
 1091              		.loc 4 365 20 view .LVU256
 1092              	.LBB228:
 1093              		.loc 4 367 22 view .LVU257
 1094              		.loc 4 368 33 view .LVU258
 1095              		.loc 4 374 3 view .LVU259
 1096              		.loc 4 374 3 view .LVU260
 1097              		.loc 4 378 3 view .LVU261
 1098              	.LBB226:
 1099              	.LBI221:
 1100              		.loc 5 693 27 view .LVU262
 1101              	.LBE226:
 1102              	.LBE228:
 1103              	.LBE230:
 1104              	.LBE233:
 1105              		.loc 5 696 3 view .LVU263
 1106              	.LBB234:
 1107              	.LBB231:
 1108              	.LBB229:
 1109              	.LBB227:
 1110              	.LBB225:
 1111              	.LBI222:
 1112              		.loc 6 491 27 view .LVU264
 1113              	.LBB224:
 1114              		.loc 6 493 3 view .LVU265
 1115              		.syntax unified
 1116              	@ 493 "../../../external/ChibiOS/os/common/ext/ARM/CMSIS/Core/Include/cmsis_gcc.h" 1
 1117 019a 83F31188 		MSR basepri, r3
 1118              	@ 0 "" 2
 1119              	.LVL67:
ARM GAS  /tmp/ccHNGi3a.s 			page 21


 1120              		.loc 6 493 3 is_stmt 0 view .LVU266
 1121              		.thumb
 1122              		.syntax unified
 1123              	.LBE224:
 1124              	.LBE225:
 1125              	.LBE227:
 1126              	.LBE229:
 1127              	.LBE231:
 1128              	.LBE234:
 1129              		.loc 1 325 3 is_stmt 1 view .LVU267
 1130              		.loc 1 326 1 is_stmt 0 view .LVU268
 1131 019e B0FA80F0 		clz	r0, r0
 1132              	.LVL68:
 1133              		.loc 1 326 1 view .LVU269
 1134 01a2 4009     		lsrs	r0, r0, #5
 1135 01a4 7047     		bx	lr
 1136              		.cfi_endproc
 1137              	.LFE378:
 1138              		.size	sdGetWouldBlock, .-sdGetWouldBlock
 1139              		.align	1
 1140 01a6 00BFAFF3 		.p2align 4,,15
 1140      0080AFF3 
 1140      0080
 1141              		.global	sdControl
 1142              		.syntax unified
 1143              		.thumb
 1144              		.thumb_func
 1145              		.fpu fpv4-sp-d16
 1146              		.type	sdControl, %function
 1147              	sdControl:
 1148              	.LVL69:
 1149              	.LFB379:
 1150              		.loc 1 342 71 is_stmt 1 view -0
 1151              		.cfi_startproc
 1152              		@ args = 0, pretend = 0, frame = 0
 1153              		@ frame_needed = 0, uses_anonymous_args = 0
 1154              		@ link register save eliminated.
 1155              		.loc 1 344 3 view .LVU271
 1156              		.loc 1 95 3 view .LVU272
 1157              		.loc 1 97 3 view .LVU273
 1158              		.loc 1 97 3 view .LVU274
 1159              		.loc 1 99 3 view .LVU275
 1160              		.loc 1 114 3 view .LVU276
 1161              		.loc 1 345 1 is_stmt 0 view .LVU277
 1162 01b0 0020     		movs	r0, #0
 1163              	.LVL70:
 1164              		.loc 1 345 1 view .LVU278
 1165 01b2 7047     		bx	lr
 1166              		.cfi_endproc
 1167              	.LFE379:
 1168              		.size	sdControl, .-sdControl
 1169              		.section	.rodata
 1170              		.align	2
 1171              		.set	.LANCHOR0,. + 0
 1172              		.type	vmt, %object
 1173              		.size	vmt, 40
 1174              	vmt:
ARM GAS  /tmp/ccHNGi3a.s 			page 22


 1175 0000 00000000 		.word	0
 1176 0004 00000000 		.word	_write
 1177 0008 00000000 		.word	_read
 1178 000c 00000000 		.word	_put
 1179 0010 00000000 		.word	_get
 1180 0014 00000000 		.word	_putt
 1181 0018 00000000 		.word	_gett
 1182 001c 00000000 		.word	_writet
 1183 0020 00000000 		.word	_readt
 1184 0024 00000000 		.word	_ctl
 1185              		.text
 1186              	.Letext0:
 1187              		.file 7 "/home/nicolas/arm/gcc-arm-none-eabi-8-2019-q3-update/lib/gcc/arm-none-eabi/8.3.1/include/
 1188              		.file 8 "/home/nicolas/arm/gcc-arm-none-eabi-8-2019-q3-update/arm-none-eabi/include/machine/_defau
 1189              		.file 9 "/home/nicolas/arm/gcc-arm-none-eabi-8-2019-q3-update/arm-none-eabi/include/sys/_stdint.h"
 1190              		.file 10 "/home/nicolas/arm/gcc-arm-none-eabi-8-2019-q3-update/arm-none-eabi/include/stdint.h"
 1191              		.file 11 "../../../external/ChibiOS/os/common/ports/ARMCMx/compilers/GCC/chtypes.h"
 1192              		.file 12 "../../../external/ChibiOS/os/rt/include/chsystypes.h"
 1193              		.file 13 "../../../external/ChibiOS/os/rt/include/chschd.h"
 1194              		.file 14 "../../../external/ChibiOS/os/rt/include/chtime.h"
 1195              		.file 15 "../../../external/ChibiOS/os/common/ext/ARM/CMSIS/Core/Include/core_cm7.h"
 1196              		.file 16 "../../../external/ChibiOS/os/common/ext/ST/STM32H7xx/system_stm32h7xx.h"
 1197              		.file 17 "../../../external/ChibiOS/os/common/ext/ST/STM32H7xx/stm32h753xx.h"
 1198              		.file 18 "../../../external/ChibiOS/os/common/ports/ARMCMx/chcore.h"
 1199              		.file 19 "../../../external/ChibiOS/os/rt/include/chtrace.h"
 1200              		.file 20 "../../../external/ChibiOS/os/rt/include/chtm.h"
 1201              		.file 21 "../../../external/ChibiOS/os/rt/include/chsem.h"
 1202              		.file 22 "../../../external/ChibiOS/os/rt/include/chmtx.h"
 1203              		.file 23 "../../../external/ChibiOS/os/rt/include/chregistry.h"
 1204              		.file 24 "../../../external/ChibiOS/os/oslib/include/chmemcore.h"
 1205              		.file 25 "../../../external/ChibiOS/os/oslib/include/chmempools.h"
 1206              		.file 26 "../../../external/ChibiOS/os/oslib/include/chfactory.h"
 1207              		.file 27 "../../../external/ChibiOS/os/hal/ports/STM32/LLD/DMAv2/stm32_dma.h"
 1208              		.file 28 "../../../external/ChibiOS/os/hal/ports/STM32/LLD/BDMAv1/stm32_bdma.h"
 1209              		.file 29 "../../../external/ChibiOS/os/hal/ports/STM32/LLD/TIMv1/stm32_tim.h"
 1210              		.file 30 "../../../external/ChibiOS/os/hal/include/hal_ioblock.h"
 1211              		.file 31 "../../../external/ChibiOS/os/hal/include/hal_queues.h"
 1212              		.file 32 "../../../external/ChibiOS/os/hal/ports/STM32/LLD/GPIOv2/stm32_gpio.h"
 1213              		.file 33 "../../../external/ChibiOS/os/hal/ports/STM32/LLD/GPIOv2/hal_pal_lld.h"
 1214              		.file 34 "../../../external/ChibiOS/os/hal/include/hal_adc.h"
 1215              		.file 35 "../../../external/ChibiOS/os/hal/ports/STM32/LLD/ADCv4/hal_adc_lld.h"
 1216              		.file 36 "../../../external/ChibiOS/os/hal/include/hal_i2c.h"
 1217              		.file 37 "../../../external/ChibiOS/os/hal/ports/STM32/LLD/I2Cv3/hal_i2c_lld.h"
 1218              		.file 38 "../../../external/ChibiOS/os/hal/include/hal_pwm.h"
 1219              		.file 39 "../../../external/ChibiOS/os/hal/ports/STM32/LLD/TIMv1/hal_pwm_lld.h"
 1220              		.file 40 "../../../external/ChibiOS/os/hal/include/hal_serial.h"
 1221              		.file 41 "../../../external/ChibiOS/os/hal/ports/STM32/LLD/USARTv2/hal_serial_lld.h"
 1222              		.file 42 "../../../external/ChibiOS/os/hal/include/hal_sdc.h"
 1223              		.file 43 "../../../external/ChibiOS/os/hal/ports/STM32/LLD/SDMMCv2/hal_sdc_lld.h"
 1224              		.file 44 "../../../external/ChibiOS/os/hal/include/hal_spi.h"
 1225              		.file 45 "../../../external/ChibiOS/os/hal/ports/STM32/LLD/SPIv3/hal_spi_lld.h"
 1226              		.file 46 "../../../external/ChibiOS/os/hal/include/hal_trng.h"
 1227              		.file 47 "../../../external/ChibiOS/os/hal/ports/STM32/LLD/RNGv1/hal_trng_lld.h"
 1228              		.file 48 "../../../external/ChibiOS/os/hal/include/hal_usb.h"
 1229              		.file 49 "../../../external/ChibiOS/os/hal/ports/STM32/LLD/OTGv1/hal_usb_lld.h"
 1230              		.file 50 "../../../external/ChibiOS/os/hal/ports/STM32/LLD/OTGv1/stm32_otg.h"
 1231              		.file 51 "../../../external/ChibiOS-Contrib/os/hal/include/hal_fsmc.h"
ARM GAS  /tmp/ccHNGi3a.s 			page 23


 1232              		.file 52 "../../../external/ChibiOS-Contrib/os/hal/include/hal_sdram.h"