ARM GAS  /tmp/ccMh4V5L.s 			page 1


   1              		.cpu cortex-m7
   2              		.eabi_attribute 27, 1
   3              		.eabi_attribute 28, 1
   4              		.eabi_attribute 20, 1
   5              		.eabi_attribute 21, 1
   6              		.eabi_attribute 23, 3
   7              		.eabi_attribute 24, 1
   8              		.eabi_attribute 25, 1
   9              		.eabi_attribute 26, 1
  10              		.eabi_attribute 30, 2
  11              		.eabi_attribute 34, 1
  12              		.eabi_attribute 18, 4
  13              		.file	"hal_i2c_lld.c"
  14              		.text
  15              	.Ltext0:
  16              		.cfi_sections	.debug_frame
  17              		.align	1
  18              		.p2align 4,,15
  19              		.global	VectorBC
  20              		.arch armv7e-m
  21              		.syntax unified
  22              		.thumb
  23              		.thumb_func
  24              		.fpu fpv4-sp-d16
  25              		.type	VectorBC, %function
  26              	VectorBC:
  27              	.LFB372:
  28              		.file 1 "../../../external/ChibiOS/os/hal/ports/STM32/LLD/I2Cv3/hal_i2c_lld.c"
  29              		.loc 1 497 44 view -0
  30              		.cfi_startproc
  31              		@ args = 0, pretend = 0, frame = 0
  32              		@ frame_needed = 0, uses_anonymous_args = 0
  33              		.loc 1 498 3 view .LVU1
  34              		.loc 1 497 44 is_stmt 0 view .LVU2
  35 0000 F8B5     		push	{r3, r4, r5, r6, r7, lr}
  36              		.cfi_def_cfa_offset 24
  37              		.cfi_offset 3, -24
  38              		.cfi_offset 4, -20
  39              		.cfi_offset 5, -16
  40              		.cfi_offset 6, -12
  41              		.cfi_offset 7, -8
  42              		.cfi_offset 14, -4
  43              		.loc 1 498 23 view .LVU3
  44 0002 724C     		ldr	r4, .L34
  45              		.loc 1 500 3 view .LVU4
  46 0004 7248     		ldr	r0, .L34+4
  47              		.loc 1 498 23 view .LVU5
  48 0006 A36B     		ldr	r3, [r4, #56]
  49              		.loc 1 498 12 view .LVU6
  50 0008 9D69     		ldr	r5, [r3, #24]
  51              	.LVL0:
  52              		.loc 1 500 3 is_stmt 1 view .LVU7
  53              		.loc 1 500 3 view .LVU8
  54              		.loc 1 500 3 view .LVU9
  55              		.loc 1 500 3 view .LVU10
  56              		.loc 1 500 3 view .LVU11
  57 000a FFF7FEFF 		bl	_trace_isr_enter
ARM GAS  /tmp/ccMh4V5L.s 			page 2


  58              	.LVL1:
  59              		.loc 1 500 22 view .LVU12
  60              		.loc 1 503 3 view .LVU13
  61              		.loc 1 503 8 is_stmt 0 view .LVU14
  62 000e A36B     		ldr	r3, [r4, #56]
  63              		.loc 1 503 24 view .LVU15
  64 0010 05F0FE02 		and	r2, r5, #254
  65              	.LBB342:
  66              	.LBB343:
  67              		.loc 1 318 6 view .LVU16
  68 0014 15F01001 		ands	r1, r5, #16
  69              	.LBE343:
  70              	.LBE342:
  71              		.loc 1 503 18 view .LVU17
  72 0018 DA61     		str	r2, [r3, #28]
  73              		.loc 1 505 3 is_stmt 1 view .LVU18
  74              	.LVL2:
  75              	.LBB491:
  76              	.LBI342:
  77              		.loc 1 314 13 view .LVU19
  78              	.LBB468:
  79              		.loc 1 315 3 view .LVU20
  80              		.loc 1 318 3 view .LVU21
  81              		.loc 1 318 6 is_stmt 0 view .LVU22
  82 001a 4AD1     		bne	.L30
  83              		.loc 1 371 3 is_stmt 1 view .LVU23
  84              		.loc 1 371 6 is_stmt 0 view .LVU24
  85 001c 2806     		lsls	r0, r5, #24
  86 001e 2CD4     		bmi	.L31
  87              		.loc 1 382 3 is_stmt 1 view .LVU25
  88              		.loc 1 382 6 is_stmt 0 view .LVU26
  89 0020 6906     		lsls	r1, r5, #25
  90 0022 23D5     		bpl	.L5
  91              		.loc 1 383 5 is_stmt 1 view .LVU27
  92              		.loc 1 383 8 is_stmt 0 view .LVU28
  93 0024 2278     		ldrb	r2, [r4]	@ zero_extendqisi2
  94 0026 032A     		cmp	r2, #3
  95 0028 00F08D80 		beq	.L32
  96              		.loc 1 418 7 is_stmt 1 view .LVU29
  97 002c 206B     		ldr	r0, [r4, #48]
  98              	.LBB344:
  99              	.LBI344:
 100              		.loc 1 157 20 view .LVU30
 101              	.LVL3:
 102              	.LBB345:
 103              		.loc 1 174 5 view .LVU31
 104 002e 0168     		ldr	r1, [r0]
 105 0030 0A68     		ldr	r2, [r1]
 106 0032 22F01F02 		bic	r2, r2, #31
 107 0036 0A60     		str	r2, [r1]
 108              		.loc 1 174 5 view .LVU32
 109              	.L17:
 110              		.loc 1 174 5 view .LVU33
 111 0038 0A68     		ldr	r2, [r1]
 112 003a D207     		lsls	r2, r2, #31
 113 003c FCD4     		bmi	.L17
 114              		.loc 1 174 5 view .LVU34
ARM GAS  /tmp/ccMh4V5L.s 			page 3


 115 003e 047B     		ldrb	r4, [r0, #12]	@ zero_extendqisi2
 116 0040 3D22     		movs	r2, #61
 117 0042 4168     		ldr	r1, [r0, #4]
 118 0044 A240     		lsls	r2, r2, r4
 119 0046 0A60     		str	r2, [r1]
 120              		.loc 1 174 5 view .LVU35
 121              		.loc 1 174 35 view .LVU36
 122              	.LVL4:
 123              	.L14:
 124              		.loc 1 174 35 is_stmt 0 view .LVU37
 125              	.LBE345:
 126              	.LBE344:
 127              		.loc 1 423 5 is_stmt 1 view .LVU38
 128              		.loc 1 423 13 is_stmt 0 view .LVU39
 129 0048 5A68     		ldr	r2, [r3, #4]
 130              	.LBB346:
 131              	.LBB347:
 132              	.LBB348:
 133              	.LBB349:
 134              	.LBB350:
 135              	.LBB351:
 136              		.file 2 "../../../external/ChibiOS/os/common/ext/ARM/CMSIS/Core/Include/cmsis_gcc.h"
 137              		.loc 2 493 3 view .LVU40
 138 004a 2021     		movs	r1, #32
 139              	.LBE351:
 140              	.LBE350:
 141              	.LBE349:
 142              	.LBE348:
 143              	.LBE347:
 144              	.LBE346:
 145              		.loc 1 423 13 view .LVU41
 146 004c 42F48042 		orr	r2, r2, #16384
 147 0050 5A60     		str	r2, [r3, #4]
 148              		.loc 1 426 5 is_stmt 1 view .LVU42
 149              		.loc 1 426 13 is_stmt 0 view .LVU43
 150 0052 1A68     		ldr	r2, [r3]
 151 0054 22F04002 		bic	r2, r2, #64
 152 0058 1A60     		str	r2, [r3]
 153              		.loc 1 429 5 is_stmt 1 view .LVU44
 154              		.loc 1 429 5 view .LVU45
 155              	.LBB363:
 156              	.LBI346:
 157              		.file 3 "../../../external/ChibiOS/os/hal/osal/rt-nil/osal.h"
 158              		.loc 3 531 20 view .LVU46
 159              	.LBE363:
 160              	.LBE468:
 161              	.LBE491:
 162              		.loc 3 533 3 view .LVU47
 163              	.LBB492:
 164              	.LBB469:
 165              	.LBB364:
 166              	.LBB359:
 167              	.LBI347:
 168              		.file 4 "../../../external/ChibiOS/os/rt/include/chsys.h"
 169              		.loc 4 393 20 view .LVU48
 170              	.LBE359:
 171              	.LBE364:
ARM GAS  /tmp/ccMh4V5L.s 			page 4


 172              	.LBE469:
 173              	.LBE492:
 174              		.loc 4 395 3 view .LVU49
 175              	.LBB493:
 176              	.LBB470:
 177              	.LBB365:
 178              	.LBB360:
 179              	.LBB356:
 180              	.LBI348:
 181              		.file 5 "../../../external/ChibiOS/os/common/ports/ARMCMx/chcore_v7m.h"
 182              		.loc 5 708 27 view .LVU50
 183              	.LBE356:
 184              	.LBE360:
 185              	.LBE365:
 186              	.LBE470:
 187              	.LBE493:
 188              		.loc 5 710 3 view .LVU51
 189              	.LBB494:
 190              	.LBB471:
 191              	.LBB366:
 192              	.LBB361:
 193              	.LBB357:
 194              	.LBB354:
 195              	.LBI349:
 196              		.loc 5 669 27 view .LVU52
 197              	.LBE354:
 198              	.LBE357:
 199              	.LBE361:
 200              	.LBE366:
 201              	.LBE471:
 202              	.LBE494:
 203              		.loc 5 677 3 view .LVU53
 204              	.LVL5:
 205              	.LBB495:
 206              	.LBB472:
 207              	.LBB367:
 208              	.LBB362:
 209              	.LBB358:
 210              	.LBB355:
 211              	.LBB353:
 212              	.LBI350:
 213              		.loc 2 491 27 view .LVU54
 214              	.LBB352:
 215              		.loc 2 493 3 view .LVU55
 216              		.syntax unified
 217              	@ 493 "../../../external/ChibiOS/os/common/ext/ARM/CMSIS/Core/Include/cmsis_gcc.h" 1
 218 005a 81F31188 		MSR basepri, r1
 219              	@ 0 "" 2
 220              	.LVL6:
 221              		.loc 2 493 3 is_stmt 0 view .LVU56
 222              		.thumb
 223              		.syntax unified
 224              	.LBE352:
 225              	.LBE353:
 226              	.LBE355:
 227              	.LBE358:
 228              	.LBE362:
ARM GAS  /tmp/ccMh4V5L.s 			page 5


 229              	.LBE367:
 230              	.LBE472:
 231              	.LBE495:
 232              		.loc 4 396 34 is_stmt 1 view .LVU57
 233              		.loc 4 397 29 view .LVU58
 234              	.LBB496:
 235              	.LBB473:
 236              		.loc 1 429 5 view .LVU59
 237              	.LBB368:
 238              	.LBI368:
 239              		.loc 3 773 20 view .LVU60
 240              	.LBB369:
 241              		.loc 3 775 3 view .LVU61
 242 005e 0021     		movs	r1, #0
 243 0060 5C48     		ldr	r0, .L34+8
 244              	.LVL7:
 245              		.loc 3 775 3 is_stmt 0 view .LVU62
 246 0062 FFF7FEFF 		bl	chThdResumeI
 247              	.LVL8:
 248              		.loc 3 775 3 view .LVU63
 249              	.LBE369:
 250              	.LBE368:
 251              		.loc 1 429 5 is_stmt 1 view .LVU64
 252              	.LBB370:
 253              	.LBI370:
 254              		.loc 3 542 20 view .LVU65
 255              	.LBE370:
 256              	.LBE473:
 257              	.LBE496:
 258              		.loc 3 544 3 view .LVU66
 259              	.LBB497:
 260              	.LBB474:
 261              	.LBB382:
 262              	.LBB371:
 263              	.LBI371:
 264              		.loc 4 413 20 view .LVU67
 265              	.LBE371:
 266              	.LBE382:
 267              	.LBE474:
 268              	.LBE497:
 269              		.loc 4 415 31 view .LVU68
 270              		.loc 4 416 33 view .LVU69
 271              		.loc 4 417 3 view .LVU70
 272              	.LBB498:
 273              	.LBB475:
 274              	.LBB383:
 275              	.LBB379:
 276              	.LBB372:
 277              	.LBI372:
 278              		.loc 5 719 27 view .LVU71
 279              	.LBE372:
 280              	.LBE379:
 281              	.LBE383:
 282              	.LBE475:
 283              	.LBE498:
 284              		.loc 5 721 3 view .LVU72
 285              	.LBB499:
ARM GAS  /tmp/ccMh4V5L.s 			page 6


 286              	.LBB476:
 287              	.LBB384:
 288              	.LBB380:
 289              	.LBB377:
 290              	.LBB373:
 291              	.LBI373:
 292              		.loc 5 693 27 view .LVU73
 293              	.LBE373:
 294              	.LBE377:
 295              	.LBE380:
 296              	.LBE384:
 297              	.LBE476:
 298              	.LBE499:
 299              		.loc 5 696 3 view .LVU74
 300              	.LBB500:
 301              	.LBB477:
 302              	.LBB385:
 303              	.LBB381:
 304              	.LBB378:
 305              	.LBB376:
 306              	.LBB374:
 307              	.LBI374:
 308              		.loc 2 491 27 view .LVU75
 309              	.LBB375:
 310              		.loc 2 493 3 view .LVU76
 311 0066 0023     		movs	r3, #0
 312              		.syntax unified
 313              	@ 493 "../../../external/ChibiOS/os/common/ext/ARM/CMSIS/Core/Include/cmsis_gcc.h" 1
 314 0068 83F31188 		MSR basepri, r3
 315              	@ 0 "" 2
 316              	.LVL9:
 317              		.thumb
 318              		.syntax unified
 319              	.L5:
 320              		.loc 2 493 3 is_stmt 0 view .LVU77
 321              	.LBE375:
 322              	.LBE374:
 323              	.LBE376:
 324              	.LBE378:
 325              	.LBE381:
 326              	.LBE385:
 327              	.LBE477:
 328              	.LBE500:
 329              		.loc 1 507 3 is_stmt 1 view .LVU78
 330              		.loc 1 507 3 view .LVU79
 331 006c 5848     		ldr	r0, .L34+4
 332 006e FFF7FEFF 		bl	_trace_isr_leave
 333              	.LVL10:
 334              		.loc 1 507 3 view .LVU80
 335              		.loc 1 507 3 view .LVU81
 336              		.loc 1 507 3 view .LVU82
 337              		.loc 1 508 1 is_stmt 0 view .LVU83
 338 0072 BDE8F840 		pop	{r3, r4, r5, r6, r7, lr}
 339              		.cfi_remember_state
 340              		.cfi_restore 14
 341              		.cfi_restore 7
 342              		.cfi_restore 6
ARM GAS  /tmp/ccMh4V5L.s 			page 7


 343              		.cfi_restore 5
 344              		.cfi_restore 4
 345              		.cfi_restore 3
 346              		.cfi_def_cfa_offset 0
 347              		.loc 1 507 3 view .LVU84
 348 0076 FFF7FEBF 		b	_port_irq_epilogue
 349              	.LVL11:
 350              	.L31:
 351              		.cfi_restore_state
 352              	.LBB501:
 353              	.LBB478:
 354              		.loc 1 372 5 is_stmt 1 view .LVU85
 355              		.loc 1 372 8 is_stmt 0 view .LVU86
 356 007a 2278     		ldrb	r2, [r4]	@ zero_extendqisi2
 357 007c 032A     		cmp	r2, #3
 358 007e 52D0     		beq	.L33
 359              		.loc 1 376 7 is_stmt 1 view .LVU87
 360              	.LVL12:
 361              	.LBB386:
 362              	.LBI386:
 363              		.loc 1 228 13 view .LVU88
 364              	.LBB387:
 365              		.loc 1 229 3 view .LVU89
 366              		.loc 1 230 3 view .LVU90
 367              		.loc 1 231 3 view .LVU91
 368              		.loc 1 234 3 view .LVU92
 369              		.loc 1 234 5 is_stmt 0 view .LVU93
 370 0080 626A     		ldr	r2, [r4, #36]
 371              	.LVL13:
 372              		.loc 1 235 3 is_stmt 1 view .LVU94
 373              		.loc 1 235 6 is_stmt 0 view .LVU95
 374 0082 FF2A     		cmp	r2, #255
 375 0084 00F28F80 		bhi	.L10
 376 0088 1204     		lsls	r2, r2, #16
 377              	.LVL14:
 378              		.loc 1 235 6 view .LVU96
 379 008a 0846     		mov	r0, r1
 380              	.L11:
 381              	.LVL15:
 382              		.loc 1 242 3 is_stmt 1 view .LVU97
 383              		.loc 1 246 74 is_stmt 0 view .LVU98
 384 008c 6568     		ldr	r5, [r4, #4]
 385              	.LVL16:
 386              		.loc 1 242 17 view .LVU99
 387 008e 6062     		str	r0, [r4, #36]
 388              		.loc 1 246 3 is_stmt 1 view .LVU100
 389              		.loc 1 247 28 is_stmt 0 view .LVU101
 390 0090 AD68     		ldr	r5, [r5, #8]
 391              		.loc 1 246 16 view .LVU102
 392 0092 5C68     		ldr	r4, [r3, #4]
 393              		.loc 1 246 22 view .LVU103
 394 0094 5048     		ldr	r0, .L34+12
 395              		.loc 1 247 28 view .LVU104
 396 0096 2A43     		orrs	r2, r2, r5
 397              		.loc 1 246 22 view .LVU105
 398 0098 2040     		ands	r0, r0, r4
 399              		.loc 1 247 28 view .LVU106
ARM GAS  /tmp/ccMh4V5L.s 			page 8


 400 009a 0243     		orrs	r2, r2, r0
 401              	.LBE387:
 402              	.LBE386:
 403              	.LBE478:
 404              	.LBE501:
 405              		.loc 1 507 3 view .LVU107
 406 009c 4C48     		ldr	r0, .L34+4
 407              	.LBB502:
 408              	.LBB479:
 409              	.LBB390:
 410              	.LBB388:
 411              		.loc 1 247 41 view .LVU108
 412 009e 0A43     		orrs	r2, r2, r1
 413 00a0 42F48062 		orr	r2, r2, #1024
 414              		.loc 1 246 11 view .LVU109
 415 00a4 5A60     		str	r2, [r3, #4]
 416              	.LVL17:
 417              		.loc 1 246 11 view .LVU110
 418              	.LBE388:
 419              	.LBE390:
 420              	.LBE479:
 421              	.LBE502:
 422              		.loc 1 507 3 is_stmt 1 view .LVU111
 423              		.loc 1 507 3 view .LVU112
 424 00a6 FFF7FEFF 		bl	_trace_isr_leave
 425              	.LVL18:
 426              		.loc 1 507 3 view .LVU113
 427              		.loc 1 507 3 view .LVU114
 428              		.loc 1 507 3 view .LVU115
 429              		.loc 1 508 1 is_stmt 0 view .LVU116
 430 00aa BDE8F840 		pop	{r3, r4, r5, r6, r7, lr}
 431              		.cfi_remember_state
 432              		.cfi_restore 14
 433              		.cfi_restore 7
 434              		.cfi_restore 6
 435              		.cfi_restore 5
 436              		.cfi_restore 4
 437              		.cfi_restore 3
 438              		.cfi_def_cfa_offset 0
 439              		.loc 1 507 3 view .LVU117
 440 00ae FFF7FEBF 		b	_port_irq_epilogue
 441              	.LVL19:
 442              	.L30:
 443              		.cfi_restore_state
 444              	.LBB503:
 445              	.LBB480:
 446              		.loc 1 321 5 is_stmt 1 view .LVU118
 447 00b2 256B     		ldr	r5, [r4, #48]
 448              	.LVL20:
 449              	.LBB391:
 450              	.LBI391:
 451              		.loc 1 157 20 view .LVU119
 452              	.LBB392:
 453              		.loc 1 174 5 view .LVU120
 454 00b4 2A68     		ldr	r2, [r5]
 455 00b6 1168     		ldr	r1, [r2]
 456 00b8 21F01F01 		bic	r1, r1, #31
ARM GAS  /tmp/ccMh4V5L.s 			page 9


 457 00bc 1160     		str	r1, [r2]
 458              		.loc 1 174 5 view .LVU121
 459              	.L3:
 460              		.loc 1 174 5 view .LVU122
 461 00be 1168     		ldr	r1, [r2]
 462 00c0 CE07     		lsls	r6, r1, #31
 463 00c2 FCD4     		bmi	.L3
 464              		.loc 1 174 5 view .LVU123
 465 00c4 297B     		ldrb	r1, [r5, #12]	@ zero_extendqisi2
 466 00c6 3D22     		movs	r2, #61
 467              	.LBE392:
 468              	.LBE391:
 469              		.loc 1 322 5 is_stmt 0 view .LVU124
 470 00c8 606B     		ldr	r0, [r4, #52]
 471              	.LBB395:
 472              	.LBB393:
 473              		.loc 1 174 5 view .LVU125
 474 00ca 8A40     		lsls	r2, r2, r1
 475 00cc 6D68     		ldr	r5, [r5, #4]
 476              	.LBE393:
 477              	.LBE395:
 478              	.LBB396:
 479              	.LBB397:
 480              		.loc 1 196 5 view .LVU126
 481 00ce 0168     		ldr	r1, [r0]
 482              	.LBE397:
 483              	.LBE396:
 484              	.LBB400:
 485              	.LBB394:
 486              		.loc 1 174 5 view .LVU127
 487 00d0 2A60     		str	r2, [r5]
 488              		.loc 1 174 5 is_stmt 1 view .LVU128
 489              		.loc 1 174 35 view .LVU129
 490              	.LBE394:
 491              	.LBE400:
 492              		.loc 1 322 5 view .LVU130
 493              	.LBB401:
 494              	.LBI396:
 495              		.loc 1 179 20 view .LVU131
 496              	.LVL21:
 497              	.LBB398:
 498              		.loc 1 196 5 view .LVU132
 499 00d2 0A68     		ldr	r2, [r1]
 500 00d4 22F01F02 		bic	r2, r2, #31
 501 00d8 0A60     		str	r2, [r1]
 502              		.loc 1 196 5 view .LVU133
 503              	.L4:
 504              		.loc 1 196 5 view .LVU134
 505 00da 0D68     		ldr	r5, [r1]
 506 00dc 15F00105 		ands	r5, r5, #1
 507 00e0 FBD1     		bne	.L4
 508              		.loc 1 196 5 view .LVU135
 509 00e2 067B     		ldrb	r6, [r0, #12]	@ zero_extendqisi2
 510 00e4 3D22     		movs	r2, #61
 511 00e6 4168     		ldr	r1, [r0, #4]
 512              	.LBE398:
 513              	.LBE401:
ARM GAS  /tmp/ccMh4V5L.s 			page 10


 514              	.LBB402:
 515              	.LBB403:
 516              	.LBB404:
 517              	.LBB405:
 518              	.LBB406:
 519              	.LBB407:
 520              		.loc 2 493 3 is_stmt 0 view .LVU136
 521 00e8 2020     		movs	r0, #32
 522              	.LBE407:
 523              	.LBE406:
 524              	.LBE405:
 525              	.LBE404:
 526              	.LBE403:
 527              	.LBE402:
 528              	.LBB419:
 529              	.LBB399:
 530              		.loc 1 196 5 view .LVU137
 531 00ea B240     		lsls	r2, r2, r6
 532 00ec 0A60     		str	r2, [r1]
 533              		.loc 1 196 5 is_stmt 1 view .LVU138
 534              		.loc 1 196 35 view .LVU139
 535              	.LBE399:
 536              	.LBE419:
 537              		.loc 1 326 5 view .LVU140
 538              		.loc 1 329 13 is_stmt 0 view .LVU141
 539 00ee 5A68     		ldr	r2, [r3, #4]
 540              		.loc 1 326 18 view .LVU142
 541 00f0 A168     		ldr	r1, [r4, #8]
 542              		.loc 1 329 13 view .LVU143
 543 00f2 42F48042 		orr	r2, r2, #16384
 544              		.loc 1 326 18 view .LVU144
 545 00f6 41F00401 		orr	r1, r1, #4
 546 00fa A160     		str	r1, [r4, #8]
 547              		.loc 1 329 5 is_stmt 1 view .LVU145
 548              		.loc 1 329 13 is_stmt 0 view .LVU146
 549 00fc 5A60     		str	r2, [r3, #4]
 550              		.loc 1 332 5 is_stmt 1 view .LVU147
 551              		.loc 1 332 13 is_stmt 0 view .LVU148
 552 00fe 1A68     		ldr	r2, [r3]
 553 0100 22F04602 		bic	r2, r2, #70
 554 0104 1A60     		str	r2, [r3]
 555              		.loc 1 335 5 is_stmt 1 view .LVU149
 556              		.loc 1 335 5 view .LVU150
 557              	.LBB420:
 558              	.LBI402:
 559              		.loc 3 531 20 view .LVU151
 560              	.LBE420:
 561              	.LBE480:
 562              	.LBE503:
 563              		.loc 3 533 3 view .LVU152
 564              	.LBB504:
 565              	.LBB481:
 566              	.LBB421:
 567              	.LBB415:
 568              	.LBI403:
 569              		.loc 4 393 20 view .LVU153
 570              	.LBE415:
ARM GAS  /tmp/ccMh4V5L.s 			page 11


 571              	.LBE421:
 572              	.LBE481:
 573              	.LBE504:
 574              		.loc 4 395 3 view .LVU154
 575              	.LBB505:
 576              	.LBB482:
 577              	.LBB422:
 578              	.LBB416:
 579              	.LBB412:
 580              	.LBI404:
 581              		.loc 5 708 27 view .LVU155
 582              	.LBE412:
 583              	.LBE416:
 584              	.LBE422:
 585              	.LBE482:
 586              	.LBE505:
 587              		.loc 5 710 3 view .LVU156
 588              	.LBB506:
 589              	.LBB483:
 590              	.LBB423:
 591              	.LBB417:
 592              	.LBB413:
 593              	.LBB410:
 594              	.LBI405:
 595              		.loc 5 669 27 view .LVU157
 596              	.LBE410:
 597              	.LBE413:
 598              	.LBE417:
 599              	.LBE423:
 600              	.LBE483:
 601              	.LBE506:
 602              		.loc 5 677 3 view .LVU158
 603              	.LVL22:
 604              	.LBB507:
 605              	.LBB484:
 606              	.LBB424:
 607              	.LBB418:
 608              	.LBB414:
 609              	.LBB411:
 610              	.LBB409:
 611              	.LBI406:
 612              		.loc 2 491 27 view .LVU159
 613              	.LBB408:
 614              		.loc 2 493 3 view .LVU160
 615              		.syntax unified
 616              	@ 493 "../../../external/ChibiOS/os/common/ext/ARM/CMSIS/Core/Include/cmsis_gcc.h" 1
 617 0106 80F31188 		MSR basepri, r0
 618              	@ 0 "" 2
 619              	.LVL23:
 620              		.loc 2 493 3 is_stmt 0 view .LVU161
 621              		.thumb
 622              		.syntax unified
 623              	.LBE408:
 624              	.LBE409:
 625              	.LBE411:
 626              	.LBE414:
 627              	.LBE418:
ARM GAS  /tmp/ccMh4V5L.s 			page 12


 628              	.LBE424:
 629              	.LBE484:
 630              	.LBE507:
 631              		.loc 4 396 34 is_stmt 1 view .LVU162
 632              		.loc 4 397 29 view .LVU163
 633              	.LBB508:
 634              	.LBB485:
 635              		.loc 1 335 5 view .LVU164
 636              	.LBB425:
 637              	.LBI425:
 638              		.loc 3 773 20 view .LVU165
 639              	.LBB426:
 640              		.loc 3 775 3 view .LVU166
 641 010a 6FF00101 		mvn	r1, #1
 642 010e 3148     		ldr	r0, .L34+8
 643              	.LVL24:
 644              		.loc 3 775 3 is_stmt 0 view .LVU167
 645 0110 FFF7FEFF 		bl	chThdResumeI
 646              	.LVL25:
 647              		.loc 3 775 3 view .LVU168
 648              	.LBE426:
 649              	.LBE425:
 650              		.loc 1 335 5 is_stmt 1 view .LVU169
 651              	.LBB427:
 652              	.LBI427:
 653              		.loc 3 542 20 view .LVU170
 654              	.LBE427:
 655              	.LBE485:
 656              	.LBE508:
 657              		.loc 3 544 3 view .LVU171
 658              	.LBB509:
 659              	.LBB486:
 660              	.LBB439:
 661              	.LBB428:
 662              	.LBI428:
 663              		.loc 4 413 20 view .LVU172
 664              	.LBE428:
 665              	.LBE439:
 666              	.LBE486:
 667              	.LBE509:
 668              		.loc 4 415 31 view .LVU173
 669              		.loc 4 416 33 view .LVU174
 670              		.loc 4 417 3 view .LVU175
 671              	.LBB510:
 672              	.LBB487:
 673              	.LBB440:
 674              	.LBB436:
 675              	.LBB429:
 676              	.LBI429:
 677              		.loc 5 719 27 view .LVU176
 678              	.LBE429:
 679              	.LBE436:
 680              	.LBE440:
 681              	.LBE487:
 682              	.LBE510:
 683              		.loc 5 721 3 view .LVU177
 684              	.LBB511:
ARM GAS  /tmp/ccMh4V5L.s 			page 13


 685              	.LBB488:
 686              	.LBB441:
 687              	.LBB437:
 688              	.LBB434:
 689              	.LBB430:
 690              	.LBI430:
 691              		.loc 5 693 27 view .LVU178
 692              	.LBE430:
 693              	.LBE434:
 694              	.LBE437:
 695              	.LBE441:
 696              	.LBE488:
 697              	.LBE511:
 698              		.loc 5 696 3 view .LVU179
 699              	.LBB512:
 700              	.LBB489:
 701              	.LBB442:
 702              	.LBB438:
 703              	.LBB435:
 704              	.LBB433:
 705              	.LBB431:
 706              	.LBI431:
 707              		.loc 2 491 27 view .LVU180
 708              	.LBB432:
 709              		.loc 2 493 3 view .LVU181
 710              		.syntax unified
 711              	@ 493 "../../../external/ChibiOS/os/common/ext/ARM/CMSIS/Core/Include/cmsis_gcc.h" 1
 712 0114 85F31188 		MSR basepri, r5
 713              	@ 0 "" 2
 714              	.LVL26:
 715              		.loc 2 493 3 is_stmt 0 view .LVU182
 716              		.thumb
 717              		.syntax unified
 718              	.LBE432:
 719              	.LBE431:
 720              	.LBE433:
 721              	.LBE435:
 722              	.LBE438:
 723              	.LBE442:
 724              		.loc 1 337 5 is_stmt 1 view .LVU183
 725              		.loc 1 337 5 is_stmt 0 view .LVU184
 726              	.LBE489:
 727              	.LBE512:
 728              		.loc 1 507 3 is_stmt 1 view .LVU185
 729              		.loc 1 507 3 view .LVU186
 730 0118 2D48     		ldr	r0, .L34+4
 731 011a FFF7FEFF 		bl	_trace_isr_leave
 732              	.LVL27:
 733              		.loc 1 507 3 view .LVU187
 734              		.loc 1 507 3 view .LVU188
 735              		.loc 1 507 3 view .LVU189
 736              		.loc 1 508 1 is_stmt 0 view .LVU190
 737 011e BDE8F840 		pop	{r3, r4, r5, r6, r7, lr}
 738              		.cfi_remember_state
 739              		.cfi_restore 14
 740              		.cfi_restore 7
 741              		.cfi_restore 6
ARM GAS  /tmp/ccMh4V5L.s 			page 14


 742              		.cfi_restore 5
 743              		.cfi_restore 4
 744              		.cfi_restore 3
 745              		.cfi_def_cfa_offset 0
 746              		.loc 1 507 3 view .LVU191
 747 0122 FFF7FEBF 		b	_port_irq_epilogue
 748              	.LVL28:
 749              	.L33:
 750              		.cfi_restore_state
 751              	.LBB513:
 752              	.LBB490:
 753              		.loc 1 373 7 is_stmt 1 view .LVU192
 754              	.LBB443:
 755              	.LBI443:
 756              		.loc 1 257 13 view .LVU193
 757              	.LBB444:
 758              		.loc 1 258 3 view .LVU194
 759              		.loc 1 259 3 view .LVU195
 760              		.loc 1 260 3 view .LVU196
 761              		.loc 1 263 3 view .LVU197
 762              		.loc 1 263 5 is_stmt 0 view .LVU198
 763 0126 206A     		ldr	r0, [r4, #32]
 764              	.LVL29:
 765              		.loc 1 264 3 is_stmt 1 view .LVU199
 766              		.loc 1 264 6 is_stmt 0 view .LVU200
 767 0128 FF28     		cmp	r0, #255
 768 012a 43D8     		bhi	.L8
 769 012c 0504     		lsls	r5, r0, #16
 770              	.LVL30:
 771              		.loc 1 264 6 view .LVU201
 772 012e 0846     		mov	r0, r1
 773              	.LVL31:
 774              	.L9:
 775              		.loc 1 271 3 is_stmt 1 view .LVU202
 776              		.loc 1 275 16 is_stmt 0 view .LVU203
 777 0130 5F68     		ldr	r7, [r3, #4]
 778              		.loc 1 275 74 view .LVU204
 779 0132 6668     		ldr	r6, [r4, #4]
 780              		.loc 1 275 22 view .LVU205
 781 0134 284A     		ldr	r2, .L34+12
 782              		.loc 1 275 60 view .LVU206
 783 0136 B668     		ldr	r6, [r6, #8]
 784              		.loc 1 275 22 view .LVU207
 785 0138 3A40     		ands	r2, r2, r7
 786              		.loc 1 271 17 view .LVU208
 787 013a 2062     		str	r0, [r4, #32]
 788              		.loc 1 275 3 is_stmt 1 view .LVU209
 789              		.loc 1 275 60 is_stmt 0 view .LVU210
 790 013c 3243     		orrs	r2, r2, r6
 791              		.loc 1 276 24 view .LVU211
 792 013e 0A43     		orrs	r2, r2, r1
 793 0140 2A43     		orrs	r2, r2, r5
 794              		.loc 1 275 11 view .LVU212
 795 0142 5A60     		str	r2, [r3, #4]
 796 0144 92E7     		b	.L5
 797              	.LVL32:
 798              	.L32:
ARM GAS  /tmp/ccMh4V5L.s 			page 15


 799              		.loc 1 275 11 view .LVU213
 800              	.LBE444:
 801              	.LBE443:
 802              		.loc 1 388 7 is_stmt 1 view .LVU214
 803 0146 606B     		ldr	r0, [r4, #52]
 804              	.LBB446:
 805              	.LBI446:
 806              		.loc 1 179 20 view .LVU215
 807              	.LVL33:
 808              	.LBB447:
 809              		.loc 1 196 5 view .LVU216
 810 0148 0168     		ldr	r1, [r0]
 811 014a 0A68     		ldr	r2, [r1]
 812 014c 22F01F02 		bic	r2, r2, #31
 813 0150 0A60     		str	r2, [r1]
 814              		.loc 1 196 5 view .LVU217
 815              	.L13:
 816              		.loc 1 196 5 view .LVU218
 817 0152 0A68     		ldr	r2, [r1]
 818 0154 12F00102 		ands	r2, r2, #1
 819 0158 FBD1     		bne	.L13
 820              		.loc 1 196 5 view .LVU219
 821 015a 067B     		ldrb	r6, [r0, #12]	@ zero_extendqisi2
 822 015c 3D21     		movs	r1, #61
 823 015e 4568     		ldr	r5, [r0, #4]
 824              	.LVL34:
 825              		.loc 1 196 5 is_stmt 0 view .LVU220
 826 0160 B140     		lsls	r1, r1, r6
 827              	.LBE447:
 828              	.LBE446:
 829              		.loc 1 392 15 view .LVU221
 830 0162 606A     		ldr	r0, [r4, #36]
 831              	.LBB449:
 832              	.LBB448:
 833              		.loc 1 196 5 view .LVU222
 834 0164 2960     		str	r1, [r5]
 835              		.loc 1 196 5 is_stmt 1 view .LVU223
 836              		.loc 1 196 35 view .LVU224
 837              	.LBE448:
 838              	.LBE449:
 839              		.loc 1 392 7 view .LVU225
 840              		.loc 1 392 10 is_stmt 0 view .LVU226
 841 0166 0028     		cmp	r0, #0
 842 0168 3FF46EAF 		beq	.L14
 843              		.loc 1 394 9 is_stmt 1 view .LVU227
 844              	.LVL35:
 845              	.LBB450:
 846              	.LBI450:
 847              		.loc 1 228 13 view .LVU228
 848              	.LBB451:
 849              		.loc 1 229 3 view .LVU229
 850              		.loc 1 230 3 view .LVU230
 851              		.loc 1 231 3 view .LVU231
 852              		.loc 1 234 3 view .LVU232
 853              		.loc 1 235 3 view .LVU233
 854              		.loc 1 235 6 is_stmt 0 view .LVU234
 855 016c FF28     		cmp	r0, #255
ARM GAS  /tmp/ccMh4V5L.s 			page 16


 856 016e 27D8     		bhi	.L15
 857 0170 0104     		lsls	r1, r0, #16
 858 0172 1046     		mov	r0, r2
 859              	.LVL36:
 860              	.L16:
 861              		.loc 1 242 3 is_stmt 1 view .LVU235
 862              		.loc 1 246 74 is_stmt 0 view .LVU236
 863 0174 6668     		ldr	r6, [r4, #4]
 864              	.LBE451:
 865              	.LBE450:
 866              		.loc 1 408 21 view .LVU237
 867 0176 0425     		movs	r5, #4
 868              	.LBB456:
 869              	.LBB452:
 870              		.loc 1 242 17 view .LVU238
 871 0178 6062     		str	r0, [r4, #36]
 872              		.loc 1 246 3 is_stmt 1 view .LVU239
 873              		.loc 1 247 28 is_stmt 0 view .LVU240
 874 017a B068     		ldr	r0, [r6, #8]
 875              		.loc 1 246 16 view .LVU241
 876 017c 5E68     		ldr	r6, [r3, #4]
 877              		.loc 1 247 28 view .LVU242
 878 017e 0143     		orrs	r1, r1, r0
 879              		.loc 1 246 22 view .LVU243
 880 0180 1548     		ldr	r0, .L34+12
 881 0182 3040     		ands	r0, r0, r6
 882              	.LBE452:
 883              	.LBE456:
 884              	.LBB457:
 885              	.LBB458:
 886              		.loc 1 130 5 view .LVU244
 887 0184 266B     		ldr	r6, [r4, #48]
 888              	.LBE458:
 889              	.LBE457:
 890              	.LBB461:
 891              	.LBB453:
 892              		.loc 1 247 28 view .LVU245
 893 0186 0143     		orrs	r1, r1, r0
 894              	.LBE453:
 895              	.LBE461:
 896              	.LBB462:
 897              	.LBB459:
 898              		.loc 1 130 5 view .LVU246
 899 0188 3068     		ldr	r0, [r6]
 900              	.LBE459:
 901              	.LBE462:
 902              	.LBB463:
 903              	.LBB454:
 904              		.loc 1 247 41 view .LVU247
 905 018a 0A43     		orrs	r2, r2, r1
 906              	.LVL37:
 907              		.loc 1 247 41 view .LVU248
 908 018c 42F48062 		orr	r2, r2, #1024
 909              		.loc 1 246 11 view .LVU249
 910 0190 5A60     		str	r2, [r3, #4]
 911              	.LVL38:
 912              		.loc 1 246 11 view .LVU250
ARM GAS  /tmp/ccMh4V5L.s 			page 17


 913              	.LBE454:
 914              	.LBE463:
 915              		.loc 1 398 9 is_stmt 1 view .LVU251
 916              	.LBB464:
 917              	.LBI457:
 918              		.loc 1 113 20 view .LVU252
 919              	.LBB460:
 920              		.loc 1 130 5 view .LVU253
 921 0192 0268     		ldr	r2, [r0]
 922 0194 42F00102 		orr	r2, r2, #1
 923 0198 0260     		str	r2, [r0]
 924              		.loc 1 130 34 view .LVU254
 925              	.LBE460:
 926              	.LBE464:
 927              		.loc 1 405 9 view .LVU255
 928              		.loc 1 405 17 is_stmt 0 view .LVU256
 929 019a 5A68     		ldr	r2, [r3, #4]
 930              		.loc 1 408 21 view .LVU257
 931 019c 2570     		strb	r5, [r4]
 932              		.loc 1 405 17 view .LVU258
 933 019e 42F40052 		orr	r2, r2, #8192
 934 01a2 5A60     		str	r2, [r3, #4]
 935              		.loc 1 408 9 is_stmt 1 view .LVU259
 936              		.loc 1 411 9 view .LVU260
 937 01a4 62E7     		b	.L5
 938              	.LVL39:
 939              	.L10:
 940              		.loc 1 411 9 is_stmt 0 view .LVU261
 941 01a6 A2F1FF00 		sub	r0, r2, #255
 942              	.LBB465:
 943              	.LBB389:
 944              		.loc 1 237 12 view .LVU262
 945 01aa 4FF08071 		mov	r1, #16777216
 946              		.loc 1 235 6 view .LVU263
 947 01ae 4FF47F02 		mov	r2, #16711680
 948              	.LVL40:
 949              		.loc 1 235 6 view .LVU264
 950 01b2 6BE7     		b	.L11
 951              	.LVL41:
 952              	.L8:
 953              		.loc 1 235 6 view .LVU265
 954 01b4 FF38     		subs	r0, r0, #255
 955              	.LVL42:
 956              		.loc 1 235 6 view .LVU266
 957              	.LBE389:
 958              	.LBE465:
 959              	.LBB466:
 960              	.LBB445:
 961              		.loc 1 264 6 view .LVU267
 962 01b6 4FF47F05 		mov	r5, #16711680
 963              	.LVL43:
 964              		.loc 1 266 12 view .LVU268
 965 01ba 4FF08071 		mov	r1, #16777216
 966 01be B7E7     		b	.L9
 967              	.LVL44:
 968              	.L15:
 969              		.loc 1 266 12 view .LVU269
ARM GAS  /tmp/ccMh4V5L.s 			page 18


 970 01c0 FF38     		subs	r0, r0, #255
 971              	.LVL45:
 972              		.loc 1 266 12 view .LVU270
 973              	.LBE445:
 974              	.LBE466:
 975              	.LBB467:
 976              	.LBB455:
 977              		.loc 1 235 6 view .LVU271
 978 01c2 4FF47F01 		mov	r1, #16711680
 979              		.loc 1 237 12 view .LVU272
 980 01c6 4FF08072 		mov	r2, #16777216
 981 01ca D3E7     		b	.L16
 982              	.L35:
 983              		.align	2
 984              	.L34:
 985 01cc 00000000 		.word	I2CD1
 986 01d0 00000000 		.word	.LANCHOR0
 987 01d4 1C000000 		.word	I2CD1+28
 988 01d8 FFFF00FE 		.word	-33488897
 989              	.LBE455:
 990              	.LBE467:
 991              	.LBE490:
 992              	.LBE513:
 993              		.cfi_endproc
 994              	.LFE372:
 995              		.size	VectorBC, .-VectorBC
 996              		.align	1
 997 01dc AFF30080 		.p2align 4,,15
 998              		.global	VectorC0
 999              		.syntax unified
 1000              		.thumb
 1001              		.thumb_func
 1002              		.fpu fpv4-sp-d16
 1003              		.type	VectorC0, %function
 1004              	VectorC0:
 1005              	.LFB373:
 1006              		.loc 1 510 44 is_stmt 1 view -0
 1007              		.cfi_startproc
 1008              		@ args = 0, pretend = 0, frame = 0
 1009              		@ frame_needed = 0, uses_anonymous_args = 0
 1010              		.loc 1 511 3 view .LVU274
 1011              		.loc 1 510 44 is_stmt 0 view .LVU275
 1012 01e0 70B5     		push	{r4, r5, r6, lr}
 1013              		.cfi_def_cfa_offset 16
 1014              		.cfi_offset 4, -16
 1015              		.cfi_offset 5, -12
 1016              		.cfi_offset 6, -8
 1017              		.cfi_offset 14, -4
 1018              		.loc 1 511 23 view .LVU276
 1019 01e2 2D4C     		ldr	r4, .L54
 1020              		.loc 1 513 3 view .LVU277
 1021 01e4 2D48     		ldr	r0, .L54+4
 1022              		.loc 1 511 23 view .LVU278
 1023 01e6 A36B     		ldr	r3, [r4, #56]
 1024              		.loc 1 511 12 view .LVU279
 1025 01e8 9D69     		ldr	r5, [r3, #24]
 1026              	.LVL46:
ARM GAS  /tmp/ccMh4V5L.s 			page 19


 1027              		.loc 1 513 3 is_stmt 1 view .LVU280
 1028              		.loc 1 513 3 view .LVU281
 1029              		.loc 1 513 3 view .LVU282
 1030              		.loc 1 513 3 view .LVU283
 1031              		.loc 1 513 3 view .LVU284
 1032 01ea FFF7FEFF 		bl	_trace_isr_enter
 1033              	.LVL47:
 1034              		.loc 1 513 22 view .LVU285
 1035              		.loc 1 516 3 view .LVU286
 1036              	.LBB534:
 1037              	.LBB535:
 1038              		.loc 1 445 3 is_stmt 0 view .LVU287
 1039 01ee 236B     		ldr	r3, [r4, #48]
 1040              	.LBE535:
 1041              	.LBE534:
 1042              		.loc 1 516 8 view .LVU288
 1043 01f0 A16B     		ldr	r1, [r4, #56]
 1044              		.loc 1 516 24 view .LVU289
 1045 01f2 05F47C50 		and	r0, r5, #16128
 1046              	.LBB596:
 1047              	.LBB584:
 1048              	.LBB536:
 1049              	.LBB537:
 1050              		.loc 1 174 5 view .LVU290
 1051 01f6 1A68     		ldr	r2, [r3]
 1052              	.LBE537:
 1053              	.LBE536:
 1054              	.LBE584:
 1055              	.LBE596:
 1056              		.loc 1 516 18 view .LVU291
 1057 01f8 C861     		str	r0, [r1, #28]
 1058              		.loc 1 518 3 is_stmt 1 view .LVU292
 1059              	.LVL48:
 1060              	.LBB597:
 1061              	.LBI534:
 1062              		.loc 1 441 13 view .LVU293
 1063              	.LBB585:
 1064              		.loc 1 445 3 view .LVU294
 1065              	.LBB541:
 1066              	.LBI536:
 1067              		.loc 1 157 20 view .LVU295
 1068              	.LBB538:
 1069              		.loc 1 174 5 view .LVU296
 1070 01fa 1168     		ldr	r1, [r2]
 1071 01fc 21F01F01 		bic	r1, r1, #31
 1072 0200 1160     		str	r1, [r2]
 1073              		.loc 1 174 5 view .LVU297
 1074              	.L37:
 1075              		.loc 1 174 5 view .LVU298
 1076 0202 1168     		ldr	r1, [r2]
 1077 0204 C807     		lsls	r0, r1, #31
 1078 0206 FCD4     		bmi	.L37
 1079              		.loc 1 174 5 view .LVU299
 1080 0208 1E7B     		ldrb	r6, [r3, #12]	@ zero_extendqisi2
 1081 020a 3D21     		movs	r1, #61
 1082              	.LBE538:
 1083              	.LBE541:
ARM GAS  /tmp/ccMh4V5L.s 			page 20


 1084              		.loc 1 446 3 is_stmt 0 view .LVU300
 1085 020c 626B     		ldr	r2, [r4, #52]
 1086              	.LBB542:
 1087              	.LBB539:
 1088              		.loc 1 174 5 view .LVU301
 1089 020e 5868     		ldr	r0, [r3, #4]
 1090 0210 B140     		lsls	r1, r1, r6
 1091              	.LBE539:
 1092              	.LBE542:
 1093              	.LBB543:
 1094              	.LBB544:
 1095              		.loc 1 196 5 view .LVU302
 1096 0212 1368     		ldr	r3, [r2]
 1097              	.LBE544:
 1098              	.LBE543:
 1099              	.LBB547:
 1100              	.LBB540:
 1101              		.loc 1 174 5 view .LVU303
 1102 0214 0160     		str	r1, [r0]
 1103              		.loc 1 174 5 is_stmt 1 view .LVU304
 1104              		.loc 1 174 35 view .LVU305
 1105              	.LBE540:
 1106              	.LBE547:
 1107              		.loc 1 446 3 view .LVU306
 1108              	.LBB548:
 1109              	.LBI543:
 1110              		.loc 1 179 20 view .LVU307
 1111              	.LVL49:
 1112              	.LBB545:
 1113              		.loc 1 196 5 view .LVU308
 1114 0216 1968     		ldr	r1, [r3]
 1115 0218 21F01F01 		bic	r1, r1, #31
 1116 021c 1960     		str	r1, [r3]
 1117              		.loc 1 196 5 view .LVU309
 1118              	.L38:
 1119              		.loc 1 196 5 view .LVU310
 1120 021e 1968     		ldr	r1, [r3]
 1121 0220 C907     		lsls	r1, r1, #31
 1122 0222 FCD4     		bmi	.L38
 1123              		.loc 1 196 5 view .LVU311
 1124 0224 117B     		ldrb	r1, [r2, #12]	@ zero_extendqisi2
 1125 0226 3D23     		movs	r3, #61
 1126 0228 5268     		ldr	r2, [r2, #4]
 1127              	.LBE545:
 1128              	.LBE548:
 1129              		.loc 1 452 6 is_stmt 0 view .LVU312
 1130 022a EE05     		lsls	r6, r5, #23
 1131              	.LBB549:
 1132              	.LBB546:
 1133              		.loc 1 196 5 view .LVU313
 1134 022c 03FA01F3 		lsl	r3, r3, r1
 1135 0230 1360     		str	r3, [r2]
 1136              		.loc 1 196 5 is_stmt 1 view .LVU314
 1137              		.loc 1 196 35 view .LVU315
 1138              	.LBE546:
 1139              	.LBE549:
 1140              		.loc 1 452 3 view .LVU316
ARM GAS  /tmp/ccMh4V5L.s 			page 21


 1141              		.loc 1 453 5 view .LVU317
 1142              		.loc 1 455 3 view .LVU318
 1143              		.loc 1 453 18 is_stmt 0 view .LVU319
 1144 0232 A368     		ldr	r3, [r4, #8]
 1145 0234 44BF     		itt	mi
 1146 0236 43F00103 		orrmi	r3, r3, #1
 1147 023a A360     		strmi	r3, [r4, #8]
 1148              		.loc 1 455 6 view .LVU320
 1149 023c A805     		lsls	r0, r5, #22
 1150 023e 02D5     		bpl	.L41
 1151              		.loc 1 456 5 is_stmt 1 view .LVU321
 1152              		.loc 1 456 18 is_stmt 0 view .LVU322
 1153 0240 43F00203 		orr	r3, r3, #2
 1154 0244 A360     		str	r3, [r4, #8]
 1155              	.L41:
 1156              		.loc 1 458 3 is_stmt 1 view .LVU323
 1157              		.loc 1 458 6 is_stmt 0 view .LVU324
 1158 0246 6905     		lsls	r1, r5, #21
 1159 0248 05F48052 		and	r2, r5, #4096
 1160 024c 18D5     		bpl	.L42
 1161              		.loc 1 459 5 is_stmt 1 view .LVU325
 1162              		.loc 1 459 18 is_stmt 0 view .LVU326
 1163 024e 43F00803 		orr	r3, r3, #8
 1164 0252 A360     		str	r3, [r4, #8]
 1165              		.loc 1 461 3 is_stmt 1 view .LVU327
 1166              		.loc 1 461 6 is_stmt 0 view .LVU328
 1167 0254 12B1     		cbz	r2, .L44
 1168              	.L43:
 1169              		.loc 1 462 5 is_stmt 1 view .LVU329
 1170              		.loc 1 462 18 is_stmt 0 view .LVU330
 1171 0256 43F02003 		orr	r3, r3, #32
 1172 025a A360     		str	r3, [r4, #8]
 1173              		.loc 1 465 3 is_stmt 1 view .LVU331
 1174              	.L44:
 1175              		.loc 1 466 5 view .LVU332
 1176              		.loc 1 466 5 view .LVU333
 1177              	.LBB550:
 1178              	.LBI550:
 1179              		.loc 3 531 20 view .LVU334
 1180              	.LBE550:
 1181              	.LBE585:
 1182              	.LBE597:
 1183              		.loc 3 533 3 view .LVU335
 1184              	.LBB598:
 1185              	.LBB586:
 1186              	.LBB562:
 1187              	.LBB551:
 1188              	.LBI551:
 1189              		.loc 4 393 20 view .LVU336
 1190              	.LBE551:
 1191              	.LBE562:
 1192              	.LBE586:
 1193              	.LBE598:
 1194              		.loc 4 395 3 view .LVU337
 1195              	.LBB599:
 1196              	.LBB587:
 1197              	.LBB563:
ARM GAS  /tmp/ccMh4V5L.s 			page 22


 1198              	.LBB559:
 1199              	.LBB552:
 1200              	.LBI552:
 1201              		.loc 5 708 27 view .LVU338
 1202              	.LBE552:
 1203              	.LBE559:
 1204              	.LBE563:
 1205              	.LBE587:
 1206              	.LBE599:
 1207              		.loc 5 710 3 view .LVU339
 1208              	.LBB600:
 1209              	.LBB588:
 1210              	.LBB564:
 1211              	.LBB560:
 1212              	.LBB557:
 1213              	.LBB553:
 1214              	.LBI553:
 1215              		.loc 5 669 27 view .LVU340
 1216              	.LBE553:
 1217              	.LBE557:
 1218              	.LBE560:
 1219              	.LBE564:
 1220              	.LBE588:
 1221              	.LBE600:
 1222              		.loc 5 677 3 view .LVU341
 1223              	.LVL50:
 1224              	.LBB601:
 1225              	.LBB589:
 1226              	.LBB565:
 1227              	.LBB561:
 1228              	.LBB558:
 1229              	.LBB556:
 1230              	.LBB554:
 1231              	.LBI554:
 1232              		.loc 2 491 27 view .LVU342
 1233              	.LBB555:
 1234              		.loc 2 493 3 view .LVU343
 1235 025c 2023     		movs	r3, #32
 1236              		.syntax unified
 1237              	@ 493 "../../../external/ChibiOS/os/common/ext/ARM/CMSIS/Core/Include/cmsis_gcc.h" 1
 1238 025e 83F31188 		MSR basepri, r3
 1239              	@ 0 "" 2
 1240              	.LVL51:
 1241              		.loc 2 493 3 is_stmt 0 view .LVU344
 1242              		.thumb
 1243              		.syntax unified
 1244              	.LBE555:
 1245              	.LBE554:
 1246              	.LBE556:
 1247              	.LBE558:
 1248              	.LBE561:
 1249              	.LBE565:
 1250              	.LBE589:
 1251              	.LBE601:
 1252              		.loc 4 396 34 is_stmt 1 view .LVU345
 1253              		.loc 4 397 29 view .LVU346
 1254              	.LBB602:
ARM GAS  /tmp/ccMh4V5L.s 			page 23


 1255              	.LBB590:
 1256              		.loc 1 466 5 view .LVU347
 1257              	.LBB566:
 1258              	.LBI566:
 1259              		.loc 3 773 20 view .LVU348
 1260              	.LBB567:
 1261              		.loc 3 775 3 view .LVU349
 1262 0262 6FF00101 		mvn	r1, #1
 1263 0266 0E48     		ldr	r0, .L54+8
 1264              	.LVL52:
 1265              		.loc 3 775 3 is_stmt 0 view .LVU350
 1266 0268 FFF7FEFF 		bl	chThdResumeI
 1267              	.LVL53:
 1268              		.loc 3 775 3 view .LVU351
 1269              	.LBE567:
 1270              	.LBE566:
 1271              		.loc 1 466 5 is_stmt 1 view .LVU352
 1272              	.LBB568:
 1273              	.LBI568:
 1274              		.loc 3 542 20 view .LVU353
 1275              	.LBE568:
 1276              	.LBE590:
 1277              	.LBE602:
 1278              		.loc 3 544 3 view .LVU354
 1279              	.LBB603:
 1280              	.LBB591:
 1281              	.LBB580:
 1282              	.LBB569:
 1283              	.LBI569:
 1284              		.loc 4 413 20 view .LVU355
 1285              	.LBE569:
 1286              	.LBE580:
 1287              	.LBE591:
 1288              	.LBE603:
 1289              		.loc 4 415 31 view .LVU356
 1290              		.loc 4 416 33 view .LVU357
 1291              		.loc 4 417 3 view .LVU358
 1292              	.LBB604:
 1293              	.LBB592:
 1294              	.LBB581:
 1295              	.LBB577:
 1296              	.LBB570:
 1297              	.LBI570:
 1298              		.loc 5 719 27 view .LVU359
 1299              	.LBE570:
 1300              	.LBE577:
 1301              	.LBE581:
 1302              	.LBE592:
 1303              	.LBE604:
 1304              		.loc 5 721 3 view .LVU360
 1305              	.LBB605:
 1306              	.LBB593:
 1307              	.LBB582:
 1308              	.LBB578:
 1309              	.LBB575:
 1310              	.LBB571:
 1311              	.LBI571:
ARM GAS  /tmp/ccMh4V5L.s 			page 24


 1312              		.loc 5 693 27 view .LVU361
 1313              	.LBE571:
 1314              	.LBE575:
 1315              	.LBE578:
 1316              	.LBE582:
 1317              	.LBE593:
 1318              	.LBE605:
 1319              		.loc 5 696 3 view .LVU362
 1320              	.LBB606:
 1321              	.LBB594:
 1322              	.LBB583:
 1323              	.LBB579:
 1324              	.LBB576:
 1325              	.LBB574:
 1326              	.LBB572:
 1327              	.LBI572:
 1328              		.loc 2 491 27 view .LVU363
 1329              	.LBB573:
 1330              		.loc 2 493 3 view .LVU364
 1331 026c 0023     		movs	r3, #0
 1332              		.syntax unified
 1333              	@ 493 "../../../external/ChibiOS/os/common/ext/ARM/CMSIS/Core/Include/cmsis_gcc.h" 1
 1334 026e 83F31188 		MSR basepri, r3
 1335              	@ 0 "" 2
 1336              	.LVL54:
 1337              		.loc 2 493 3 is_stmt 0 view .LVU365
 1338              		.thumb
 1339              		.syntax unified
 1340              	.LBE573:
 1341              	.LBE572:
 1342              	.LBE574:
 1343              	.LBE576:
 1344              	.LBE579:
 1345              	.LBE583:
 1346              	.LBE594:
 1347              	.LBE606:
 1348              		.loc 1 520 3 is_stmt 1 view .LVU366
 1349              		.loc 1 520 3 view .LVU367
 1350 0272 0A48     		ldr	r0, .L54+4
 1351 0274 FFF7FEFF 		bl	_trace_isr_leave
 1352              	.LVL55:
 1353              		.loc 1 520 3 view .LVU368
 1354              		.loc 1 520 3 view .LVU369
 1355              		.loc 1 520 3 view .LVU370
 1356              		.loc 1 521 1 is_stmt 0 view .LVU371
 1357 0278 BDE87040 		pop	{r4, r5, r6, lr}
 1358              		.cfi_remember_state
 1359              		.cfi_restore 14
 1360              		.cfi_restore 6
 1361              		.cfi_restore 5
 1362              		.cfi_restore 4
 1363              		.cfi_def_cfa_offset 0
 1364              	.LVL56:
 1365              		.loc 1 520 3 view .LVU372
 1366 027c FFF7FEBF 		b	_port_irq_epilogue
 1367              	.LVL57:
 1368              	.L42:
ARM GAS  /tmp/ccMh4V5L.s 			page 25


 1369              		.cfi_restore_state
 1370              	.LBB607:
 1371              	.LBB595:
 1372              		.loc 1 461 3 is_stmt 1 view .LVU373
 1373              		.loc 1 461 6 is_stmt 0 view .LVU374
 1374 0280 002A     		cmp	r2, #0
 1375 0282 E8D1     		bne	.L43
 1376              		.loc 1 465 3 is_stmt 1 view .LVU375
 1377              		.loc 1 465 6 is_stmt 0 view .LVU376
 1378 0284 002B     		cmp	r3, #0
 1379 0286 E9D1     		bne	.L44
 1380              	.LVL58:
 1381              		.loc 1 465 6 view .LVU377
 1382              	.LBE595:
 1383              	.LBE607:
 1384              		.loc 1 520 3 is_stmt 1 view .LVU378
 1385              		.loc 1 520 3 view .LVU379
 1386 0288 0448     		ldr	r0, .L54+4
 1387 028a FFF7FEFF 		bl	_trace_isr_leave
 1388              	.LVL59:
 1389              		.loc 1 520 3 view .LVU380
 1390              		.loc 1 520 3 view .LVU381
 1391              		.loc 1 520 3 view .LVU382
 1392              		.loc 1 521 1 is_stmt 0 view .LVU383
 1393 028e BDE87040 		pop	{r4, r5, r6, lr}
 1394              		.cfi_restore 14
 1395              		.cfi_restore 6
 1396              		.cfi_restore 5
 1397              		.cfi_restore 4
 1398              		.cfi_def_cfa_offset 0
 1399              	.LVL60:
 1400              		.loc 1 520 3 view .LVU384
 1401 0292 FFF7FEBF 		b	_port_irq_epilogue
 1402              	.LVL61:
 1403              	.L55:
 1404 0296 00BF     		.align	2
 1405              	.L54:
 1406 0298 00000000 		.word	I2CD1
 1407 029c 0C000000 		.word	.LANCHOR0+12
 1408 02a0 1C000000 		.word	I2CD1+28
 1409              		.cfi_endproc
 1410              	.LFE373:
 1411              		.size	VectorC0, .-VectorC0
 1412              		.align	1
 1413 02a4 AFF30080 		.p2align 4,,15
 1413      AFF30080 
 1413      AFF30080 
 1414              		.global	i2c_lld_init
 1415              		.syntax unified
 1416              		.thumb
 1417              		.thumb_func
 1418              		.fpu fpv4-sp-d16
 1419              		.type	i2c_lld_init, %function
 1420              	i2c_lld_init:
 1421              	.LFB374:
 1422              		.loc 1 702 25 is_stmt 1 view -0
 1423              		.cfi_startproc
ARM GAS  /tmp/ccMh4V5L.s 			page 26


 1424              		@ args = 0, pretend = 0, frame = 0
 1425              		@ frame_needed = 0, uses_anonymous_args = 0
 1426              		.loc 1 705 3 view .LVU386
 1427              		.loc 1 702 25 is_stmt 0 view .LVU387
 1428 02b0 10B5     		push	{r4, lr}
 1429              		.cfi_def_cfa_offset 8
 1430              		.cfi_offset 4, -8
 1431              		.cfi_offset 14, -4
 1432              		.loc 1 705 3 view .LVU388
 1433 02b2 0A4C     		ldr	r4, .L58
 1434 02b4 2046     		mov	r0, r4
 1435 02b6 FFF7FEFF 		bl	i2cObjectInit
 1436              	.LVL62:
 1437              		.loc 1 706 3 is_stmt 1 view .LVU389
 1438              		.loc 1 706 17 is_stmt 0 view .LVU390
 1439 02ba 0023     		movs	r3, #0
 1440              		.loc 1 707 17 view .LVU391
 1441 02bc 084A     		ldr	r2, .L58+4
 1442              		.loc 1 718 7 view .LVU392
 1443 02be 0521     		movs	r1, #5
 1444 02c0 1F20     		movs	r0, #31
 1445              		.loc 1 706 17 view .LVU393
 1446 02c2 E361     		str	r3, [r4, #28]
 1447              		.loc 1 707 3 is_stmt 1 view .LVU394
 1448              		.loc 1 712 3 view .LVU395
 1449              		.loc 1 707 17 is_stmt 0 view .LVU396
 1450 02c4 A263     		str	r2, [r4, #56]
 1451              		.loc 1 713 17 view .LVU397
 1452 02c6 C4E90C33 		strd	r3, r3, [r4, #48]
 1453              		.loc 1 718 7 is_stmt 1 view .LVU398
 1454 02ca FFF7FEFF 		bl	nvicEnableVector
 1455              	.LVL63:
 1456              		.loc 1 719 7 view .LVU399
 1457 02ce 0521     		movs	r1, #5
 1458 02d0 2020     		movs	r0, #32
 1459              		.loc 1 793 1 is_stmt 0 view .LVU400
 1460 02d2 BDE81040 		pop	{r4, lr}
 1461              		.cfi_restore 14
 1462              		.cfi_restore 4
 1463              		.cfi_def_cfa_offset 0
 1464              		.loc 1 719 7 view .LVU401
 1465 02d6 FFF7FEBF 		b	nvicEnableVector
 1466              	.LVL64:
 1467              	.L59:
 1468 02da 00BF     		.align	2
 1469              	.L58:
 1470 02dc 00000000 		.word	I2CD1
 1471 02e0 00540040 		.word	1073763328
 1472              		.cfi_endproc
 1473              	.LFE374:
 1474              		.size	i2c_lld_init, .-i2c_lld_init
 1475              		.align	1
 1476 02e4 AFF30080 		.p2align 4,,15
 1476      AFF30080 
 1476      AFF30080 
 1477              		.global	i2c_lld_start
 1478              		.syntax unified
ARM GAS  /tmp/ccMh4V5L.s 			page 27


 1479              		.thumb
 1480              		.thumb_func
 1481              		.fpu fpv4-sp-d16
 1482              		.type	i2c_lld_start, %function
 1483              	i2c_lld_start:
 1484              	.LVL65:
 1485              	.LFB375:
 1486              		.loc 1 802 37 is_stmt 1 view -0
 1487              		.cfi_startproc
 1488              		@ args = 0, pretend = 0, frame = 0
 1489              		@ frame_needed = 0, uses_anonymous_args = 0
 1490              		.loc 1 803 3 view .LVU403
 1491              		.loc 1 802 37 is_stmt 0 view .LVU404
 1492 02f0 F8B5     		push	{r3, r4, r5, r6, r7, lr}
 1493              		.cfi_def_cfa_offset 24
 1494              		.cfi_offset 3, -24
 1495              		.cfi_offset 4, -20
 1496              		.cfi_offset 5, -16
 1497              		.cfi_offset 6, -12
 1498              		.cfi_offset 7, -8
 1499              		.cfi_offset 14, -4
 1500              		.loc 1 803 16 view .LVU405
 1501 02f2 846B     		ldr	r4, [r0, #56]
 1502              	.LVL66:
 1503              		.loc 1 806 3 is_stmt 1 view .LVU406
 1504              		.loc 1 802 37 is_stmt 0 view .LVU407
 1505 02f4 0546     		mov	r5, r0
 1506              		.loc 1 809 6 view .LVU408
 1507 02f6 0278     		ldrb	r2, [r0]	@ zero_extendqisi2
 1508              		.loc 1 806 11 view .LVU409
 1509 02f8 2368     		ldr	r3, [r4]
 1510              		.loc 1 809 6 view .LVU410
 1511 02fa 012A     		cmp	r2, #1
 1512              		.loc 1 806 11 view .LVU411
 1513 02fc 23F00103 		bic	r3, r3, #1
 1514 0300 2360     		str	r3, [r4]
 1515              		.loc 1 809 3 is_stmt 1 view .LVU412
 1516              		.loc 1 809 6 is_stmt 0 view .LVU413
 1517 0302 16D0     		beq	.L65
 1518              	.LVL67:
 1519              	.L62:
 1520              		.loc 1 976 5 is_stmt 1 view .LVU414
 1521 0304 2F6B     		ldr	r7, [r5, #48]
 1522 0306 04F12406 		add	r6, r4, #36
 1523              		.loc 1 983 17 is_stmt 0 view .LVU415
 1524 030a 6A68     		ldr	r2, [r5, #4]
 1525              		.loc 1 987 27 view .LVU416
 1526 030c 4CF29003 		movw	r3, #49296
 1527              		.loc 1 977 5 view .LVU417
 1528 0310 696B     		ldr	r1, [r5, #52]
 1529 0312 04F12800 		add	r0, r4, #40
 1530              		.loc 1 976 5 view .LVU418
 1531 0316 3D68     		ldr	r5, [r7]
 1532              	.LVL68:
 1533              		.loc 1 977 5 view .LVU419
 1534 0318 0968     		ldr	r1, [r1]
 1535              		.loc 1 976 5 view .LVU420
ARM GAS  /tmp/ccMh4V5L.s 			page 28


 1536 031a AE60     		str	r6, [r5, #8]
 1537              		.loc 1 976 52 is_stmt 1 view .LVU421
 1538              		.loc 1 977 5 view .LVU422
 1539              		.loc 1 990 29 is_stmt 0 view .LVU423
 1540 031c D2E90025 		ldrd	r2, r5, [r2]
 1541              		.loc 1 977 5 view .LVU424
 1542 0320 8860     		str	r0, [r1, #8]
 1543              		.loc 1 977 52 is_stmt 1 view .LVU425
 1544              		.loc 1 983 3 view .LVU426
 1545              		.loc 1 987 27 is_stmt 0 view .LVU427
 1546 0322 2B43     		orrs	r3, r3, r5
 1547              		.loc 1 983 11 view .LVU428
 1548 0324 2360     		str	r3, [r4]
 1549              		.loc 1 990 3 is_stmt 1 view .LVU429
 1550              		.loc 1 990 15 is_stmt 0 view .LVU430
 1551 0326 2261     		str	r2, [r4, #16]
 1552              		.loc 1 993 3 is_stmt 1 view .LVU431
 1553              		.loc 1 993 11 is_stmt 0 view .LVU432
 1554 0328 2368     		ldr	r3, [r4]
 1555 032a 43F00103 		orr	r3, r3, #1
 1556 032e 2360     		str	r3, [r4]
 1557              		.loc 1 994 1 view .LVU433
 1558 0330 F8BD     		pop	{r3, r4, r5, r6, r7, pc}
 1559              	.LVL69:
 1560              	.L65:
 1561              		.loc 1 827 5 is_stmt 1 view .LVU434
 1562              		.loc 1 834 8 is_stmt 0 view .LVU435
 1563 0332 224B     		ldr	r3, .L66
 1564              		.loc 1 827 21 view .LVU436
 1565 0334 40F25641 		movw	r1, #1110
 1566              		.loc 1 828 21 view .LVU437
 1567 0338 40F21642 		movw	r2, #1046
 1568              		.loc 1 834 8 view .LVU438
 1569 033c 9842     		cmp	r0, r3
 1570              		.loc 1 828 21 view .LVU439
 1571 033e C0E90A21 		strd	r2, r1, [r0, #40]
 1572              		.loc 1 834 5 is_stmt 1 view .LVU440
 1573              		.loc 1 834 8 is_stmt 0 view .LVU441
 1574 0342 DFD1     		bne	.L62
 1575              		.loc 1 836 7 is_stmt 1 view .LVU442
 1576 0344 1E4E     		ldr	r6, .L66+4
 1577              		.loc 1 840 24 is_stmt 0 view .LVU443
 1578 0346 0023     		movs	r3, #0
 1579 0348 0521     		movs	r1, #5
 1580              		.loc 1 836 7 view .LVU444
 1581 034a D6F89070 		ldr	r7, [r6, #144]
 1582              		.loc 1 840 24 view .LVU445
 1583 034e 1A46     		mov	r2, r3
 1584 0350 0846     		mov	r0, r1
 1585              	.LVL70:
 1586              		.loc 1 836 7 view .LVU446
 1587 0352 47F40017 		orr	r7, r7, #2097152
 1588 0356 C6F89070 		str	r7, [r6, #144]
 1589              		.loc 1 836 7 is_stmt 1 view .LVU447
 1590 035a D6F89070 		ldr	r7, [r6, #144]
 1591 035e 27F40017 		bic	r7, r7, #2097152
 1592 0362 C6F89070 		str	r7, [r6, #144]
ARM GAS  /tmp/ccMh4V5L.s 			page 29


 1593              		.loc 1 836 7 view .LVU448
 1594 0366 D6F89070 		ldr	r7, [r6, #144]
 1595              		.loc 1 836 21 view .LVU449
 1596              		.loc 1 837 7 view .LVU450
 1597 036a D6F8E870 		ldr	r7, [r6, #232]
 1598 036e 47F40017 		orr	r7, r7, #2097152
 1599 0372 C6F8E870 		str	r7, [r6, #232]
 1600              		.loc 1 837 7 view .LVU451
 1601              		.loc 1 837 7 view .LVU452
 1602 0376 D6F81071 		ldr	r7, [r6, #272]
 1603 037a 47F40017 		orr	r7, r7, #2097152
 1604 037e C6F81071 		str	r7, [r6, #272]
 1605              		.loc 1 837 7 view .LVU453
 1606 0382 D6F81061 		ldr	r6, [r6, #272]
 1607              		.loc 1 837 26 view .LVU454
 1608              		.loc 1 840 9 view .LVU455
 1609              		.loc 1 840 24 is_stmt 0 view .LVU456
 1610 0386 FFF7FEFF 		bl	dmaStreamAllocI
 1611              	.LVL71:
 1612              		.loc 1 845 24 view .LVU457
 1613 038a 0023     		movs	r3, #0
 1614              		.loc 1 840 22 view .LVU458
 1615 038c 2863     		str	r0, [r5, #48]
 1616              		.loc 1 844 9 is_stmt 1 view .LVU459
 1617              		.loc 1 844 9 view .LVU460
 1618              		.loc 1 845 9 view .LVU461
 1619              		.loc 1 845 24 is_stmt 0 view .LVU462
 1620 038e 0521     		movs	r1, #5
 1621 0390 0620     		movs	r0, #6
 1622 0392 1A46     		mov	r2, r3
 1623 0394 FFF7FEFF 		bl	dmaStreamAllocI
 1624              	.LVL72:
 1625              		.loc 1 853 9 view .LVU463
 1626 0398 2121     		movs	r1, #33
 1627              		.loc 1 845 22 view .LVU464
 1628 039a 6863     		str	r0, [r5, #52]
 1629              		.loc 1 849 9 is_stmt 1 view .LVU465
 1630              		.loc 1 849 9 view .LVU466
 1631              		.loc 1 851 9 view .LVU467
 1632              		.loc 1 853 9 is_stmt 0 view .LVU468
 1633 039c 286B     		ldr	r0, [r5, #48]
 1634              		.loc 1 852 25 view .LVU469
 1635 039e D5E90A23 		ldrd	r2, r3, [r5, #40]
 1636              		.loc 1 851 25 view .LVU470
 1637 03a2 42F44032 		orr	r2, r2, #196608
 1638              		.loc 1 852 25 view .LVU471
 1639 03a6 43F44033 		orr	r3, r3, #196608
 1640 03aa C5E90A23 		strd	r2, r3, [r5, #40]
 1641              		.loc 1 853 9 is_stmt 1 view .LVU472
 1642 03ae FFF7FEFF 		bl	dmaSetRequestSource
 1643              	.LVL73:
 1644              		.loc 1 854 9 view .LVU473
 1645 03b2 2221     		movs	r1, #34
 1646 03b4 686B     		ldr	r0, [r5, #52]
 1647 03b6 FFF7FEFF 		bl	dmaSetRequestSource
 1648              	.LVL74:
 1649 03ba A3E7     		b	.L62
ARM GAS  /tmp/ccMh4V5L.s 			page 30


 1650              	.L67:
 1651              		.align	2
 1652              	.L66:
 1653 03bc 00000000 		.word	I2CD1
 1654 03c0 00440258 		.word	1476543488
 1655              		.cfi_endproc
 1656              	.LFE375:
 1657              		.size	i2c_lld_start, .-i2c_lld_start
 1658              		.align	1
 1659 03c4 AFF30080 		.p2align 4,,15
 1659      AFF30080 
 1659      AFF30080 
 1660              		.global	i2c_lld_stop
 1661              		.syntax unified
 1662              		.thumb
 1663              		.thumb_func
 1664              		.fpu fpv4-sp-d16
 1665              		.type	i2c_lld_stop, %function
 1666              	i2c_lld_stop:
 1667              	.LVL75:
 1668              	.LFB376:
 1669              		.loc 1 1003 36 view -0
 1670              		.cfi_startproc
 1671              		@ args = 0, pretend = 0, frame = 0
 1672              		@ frame_needed = 0, uses_anonymous_args = 0
 1673              		.loc 1 1006 3 view .LVU475
 1674              		.loc 1 1006 6 is_stmt 0 view .LVU476
 1675 03d0 0378     		ldrb	r3, [r0]	@ zero_extendqisi2
 1676 03d2 012B     		cmp	r3, #1
 1677 03d4 00D1     		bne	.L91
 1678 03d6 7047     		bx	lr
 1679              	.L91:
 1680              		.loc 1 1009 5 is_stmt 1 view .LVU477
 1681              	.LVL76:
 1682              	.LBB614:
 1683              	.LBI614:
 1684              		.loc 1 286 13 view .LVU478
 1685              	.LBB615:
 1686              		.loc 1 287 3 view .LVU479
 1687              		.loc 1 287 16 is_stmt 0 view .LVU480
 1688 03d8 836B     		ldr	r3, [r0, #56]
 1689              	.LVL77:
 1690              		.loc 1 289 3 is_stmt 1 view .LVU481
 1691              		.loc 1 289 9 is_stmt 0 view .LVU482
 1692 03da 1A68     		ldr	r2, [r3]
 1693              	.LBE615:
 1694              	.LBE614:
 1695              		.loc 1 1003 36 view .LVU483
 1696 03dc 70B5     		push	{r4, r5, r6, lr}
 1697              		.cfi_def_cfa_offset 16
 1698              		.cfi_offset 4, -16
 1699              		.cfi_offset 5, -12
 1700              		.cfi_offset 6, -8
 1701              		.cfi_offset 14, -4
 1702              	.LBB631:
 1703              	.LBB628:
 1704              		.loc 1 289 6 view .LVU484
ARM GAS  /tmp/ccMh4V5L.s 			page 31


 1705 03de D607     		lsls	r6, r2, #31
 1706 03e0 26D4     		bmi	.L90
 1707              	.L71:
 1708              		.loc 1 299 3 is_stmt 1 view .LVU485
 1709 03e2 026B     		ldr	r2, [r0, #48]
 1710              	.LBB616:
 1711              	.LBI616:
 1712              		.loc 1 157 20 view .LVU486
 1713              	.LVL78:
 1714              	.LBB617:
 1715              		.loc 1 174 5 view .LVU487
 1716 03e4 1368     		ldr	r3, [r2]
 1717              	.LVL79:
 1718              		.loc 1 174 5 is_stmt 0 view .LVU488
 1719 03e6 1968     		ldr	r1, [r3]
 1720 03e8 21F01F01 		bic	r1, r1, #31
 1721 03ec 1960     		str	r1, [r3]
 1722              		.loc 1 174 5 is_stmt 1 view .LVU489
 1723              	.L74:
 1724              		.loc 1 174 5 view .LVU490
 1725 03ee 1968     		ldr	r1, [r3]
 1726 03f0 CC07     		lsls	r4, r1, #31
 1727 03f2 FCD4     		bmi	.L74
 1728              		.loc 1 174 5 view .LVU491
 1729 03f4 137B     		ldrb	r3, [r2, #12]	@ zero_extendqisi2
 1730 03f6 3D21     		movs	r1, #61
 1731              	.LBE617:
 1732              	.LBE616:
 1733              		.loc 1 300 3 is_stmt 0 view .LVU492
 1734 03f8 456B     		ldr	r5, [r0, #52]
 1735              	.LBB620:
 1736              	.LBB618:
 1737              		.loc 1 174 5 view .LVU493
 1738 03fa 9940     		lsls	r1, r1, r3
 1739 03fc 5468     		ldr	r4, [r2, #4]
 1740              	.LBE618:
 1741              	.LBE620:
 1742              	.LBB621:
 1743              	.LBB622:
 1744              		.loc 1 196 5 view .LVU494
 1745 03fe 2B68     		ldr	r3, [r5]
 1746              	.LBE622:
 1747              	.LBE621:
 1748              	.LBB625:
 1749              	.LBB619:
 1750              		.loc 1 174 5 view .LVU495
 1751 0400 2160     		str	r1, [r4]
 1752              		.loc 1 174 5 is_stmt 1 view .LVU496
 1753              		.loc 1 174 35 view .LVU497
 1754              	.LBE619:
 1755              	.LBE625:
 1756              		.loc 1 300 3 view .LVU498
 1757              	.LBB626:
 1758              	.LBI621:
 1759              		.loc 1 179 20 view .LVU499
 1760              	.LVL80:
 1761              	.LBB623:
ARM GAS  /tmp/ccMh4V5L.s 			page 32


 1762              		.loc 1 196 5 view .LVU500
 1763 0402 1968     		ldr	r1, [r3]
 1764 0404 21F01F01 		bic	r1, r1, #31
 1765 0408 1960     		str	r1, [r3]
 1766              		.loc 1 196 5 view .LVU501
 1767              	.L75:
 1768              		.loc 1 196 5 view .LVU502
 1769 040a 1968     		ldr	r1, [r3]
 1770 040c C907     		lsls	r1, r1, #31
 1771 040e FCD4     		bmi	.L75
 1772              		.loc 1 196 5 view .LVU503
 1773 0410 2E7B     		ldrb	r6, [r5, #12]	@ zero_extendqisi2
 1774 0412 3D23     		movs	r3, #61
 1775 0414 6968     		ldr	r1, [r5, #4]
 1776 0416 0446     		mov	r4, r0
 1777 0418 B340     		lsls	r3, r3, r6
 1778              	.LBE623:
 1779              	.LBE626:
 1780              	.LBE628:
 1781              	.LBE631:
 1782              		.loc 1 1025 7 is_stmt 0 view .LVU504
 1783 041a 1046     		mov	r0, r2
 1784              	.LVL81:
 1785              	.LBB632:
 1786              	.LBB629:
 1787              	.LBB627:
 1788              	.LBB624:
 1789              		.loc 1 196 5 view .LVU505
 1790 041c 0B60     		str	r3, [r1]
 1791              		.loc 1 196 5 is_stmt 1 view .LVU506
 1792              		.loc 1 196 35 view .LVU507
 1793              	.LVL82:
 1794              		.loc 1 196 35 is_stmt 0 view .LVU508
 1795              	.LBE624:
 1796              	.LBE627:
 1797              	.LBE629:
 1798              	.LBE632:
 1799              		.loc 1 1025 7 is_stmt 1 view .LVU509
 1800 041e FFF7FEFF 		bl	dmaStreamFreeI
 1801              	.LVL83:
 1802              		.loc 1 1026 7 view .LVU510
 1803 0422 606B     		ldr	r0, [r4, #52]
 1804 0424 FFF7FEFF 		bl	dmaStreamFreeI
 1805              	.LVL84:
 1806              		.loc 1 1031 5 view .LVU511
 1807              		.loc 1 1031 8 is_stmt 0 view .LVU512
 1808 0428 0F4B     		ldr	r3, .L93
 1809 042a 9C42     		cmp	r4, r3
 1810 042c 0CD0     		beq	.L92
 1811              		.loc 1 1054 1 view .LVU513
 1812 042e 70BD     		pop	{r4, r5, r6, pc}
 1813              	.LVL85:
 1814              	.L90:
 1815              	.LBB633:
 1816              	.LBB630:
 1817              		.loc 1 291 5 is_stmt 1 view .LVU514
 1818              		.loc 1 291 13 is_stmt 0 view .LVU515
ARM GAS  /tmp/ccMh4V5L.s 			page 33


 1819 0430 1A68     		ldr	r2, [r3]
 1820 0432 22F00102 		bic	r2, r2, #1
 1821 0436 1A60     		str	r2, [r3]
 1822              		.loc 1 292 5 is_stmt 1 view .LVU516
 1823              		.loc 1 292 14 is_stmt 0 view .LVU517
 1824 0438 1A68     		ldr	r2, [r3]
 1825              		.loc 1 292 11 view .LVU518
 1826 043a D507     		lsls	r5, r2, #31
 1827 043c F8D4     		bmi	.L90
 1828              		.loc 1 294 5 is_stmt 1 view .LVU519
 1829              		.loc 1 294 13 is_stmt 0 view .LVU520
 1830 043e 1A68     		ldr	r2, [r3]
 1831 0440 42F00102 		orr	r2, r2, #1
 1832 0444 1A60     		str	r2, [r3]
 1833 0446 CCE7     		b	.L71
 1834              	.LVL86:
 1835              	.L92:
 1836              		.loc 1 294 13 view .LVU521
 1837              	.LBE630:
 1838              	.LBE633:
 1839              		.loc 1 1032 7 is_stmt 1 view .LVU522
 1840 0448 084B     		ldr	r3, .L93+4
 1841 044a D3F8E820 		ldr	r2, [r3, #232]
 1842 044e 22F40012 		bic	r2, r2, #2097152
 1843 0452 C3F8E820 		str	r2, [r3, #232]
 1844              		.loc 1 1032 7 view .LVU523
 1845 0456 D3F81021 		ldr	r2, [r3, #272]
 1846 045a 22F40012 		bic	r2, r2, #2097152
 1847 045e C3F81021 		str	r2, [r3, #272]
 1848              		.loc 1 1032 7 view .LVU524
 1849 0462 D3F81031 		ldr	r3, [r3, #272]
 1850              		.loc 1 1032 23 view .LVU525
 1851              		.loc 1 1054 1 is_stmt 0 view .LVU526
 1852 0466 70BD     		pop	{r4, r5, r6, pc}
 1853              	.LVL87:
 1854              	.L94:
 1855              		.loc 1 1054 1 view .LVU527
 1856              		.align	2
 1857              	.L93:
 1858 0468 00000000 		.word	I2CD1
 1859 046c 00440258 		.word	1476543488
 1860              		.cfi_endproc
 1861              	.LFE376:
 1862              		.size	i2c_lld_stop, .-i2c_lld_stop
 1863              		.align	1
 1864              		.p2align 4,,15
 1865              		.global	i2c_lld_master_receive_timeout
 1866              		.syntax unified
 1867              		.thumb
 1868              		.thumb_func
 1869              		.fpu fpv4-sp-d16
 1870              		.type	i2c_lld_master_receive_timeout, %function
 1871              	i2c_lld_master_receive_timeout:
 1872              	.LVL88:
 1873              	.LFB377:
 1874              		.loc 1 1079 61 is_stmt 1 view -0
 1875              		.cfi_startproc
ARM GAS  /tmp/ccMh4V5L.s 			page 34


 1876              		@ args = 4, pretend = 0, frame = 0
 1877              		@ frame_needed = 0, uses_anonymous_args = 0
 1878              		.loc 1 1080 3 view .LVU529
 1879              		.loc 1 1081 3 view .LVU530
 1880              		.loc 1 1079 61 is_stmt 0 view .LVU531
 1881 0470 2DE9F843 		push	{r3, r4, r5, r6, r7, r8, r9, lr}
 1882              		.cfi_def_cfa_offset 32
 1883              		.cfi_offset 3, -32
 1884              		.cfi_offset 4, -28
 1885              		.cfi_offset 5, -24
 1886              		.cfi_offset 6, -20
 1887              		.cfi_offset 7, -16
 1888              		.cfi_offset 8, -12
 1889              		.cfi_offset 9, -8
 1890              		.cfi_offset 14, -4
 1891              		.loc 1 1085 16 view .LVU532
 1892 0474 0024     		movs	r4, #0
 1893              		.loc 1 1079 61 view .LVU533
 1894 0476 0746     		mov	r7, r0
 1895 0478 8946     		mov	r9, r1
 1896              		.loc 1 1081 16 view .LVU534
 1897 047a 856B     		ldr	r5, [r0, #56]
 1898              	.LVL89:
 1899              		.loc 1 1082 3 is_stmt 1 view .LVU535
 1900              		.loc 1 1085 3 view .LVU536
 1901              		.loc 1 1085 16 is_stmt 0 view .LVU537
 1902 047c 8460     		str	r4, [r0, #8]
 1903              		.loc 1 1088 3 is_stmt 1 view .LVU538
 1904              	.LBB634:
 1905              	.LBI634:
 1906              		.loc 3 520 20 view .LVU539
 1907              	.LBE634:
 1908              		.loc 3 522 3 view .LVU540
 1909              	.LBB643:
 1910              	.LBB635:
 1911              	.LBI635:
 1912              		.loc 4 365 20 view .LVU541
 1913              	.LBB636:
 1914              		.loc 4 367 22 view .LVU542
 1915              		.loc 4 368 33 view .LVU543
 1916              		.loc 4 374 3 view .LVU544
 1917              		.loc 4 374 3 view .LVU545
 1918              		.loc 4 378 3 view .LVU546
 1919              	.LBB637:
 1920              	.LBI637:
 1921              		.loc 5 693 27 view .LVU547
 1922              	.LBE637:
 1923              	.LBE636:
 1924              	.LBE635:
 1925              	.LBE643:
 1926              		.loc 5 696 3 view .LVU548
 1927              	.LVL90:
 1928              	.LBB644:
 1929              	.LBB642:
 1930              	.LBB641:
 1931              	.LBB640:
 1932              	.LBB638:
ARM GAS  /tmp/ccMh4V5L.s 			page 35


 1933              	.LBI638:
 1934              		.loc 2 491 27 view .LVU549
 1935              	.LBB639:
 1936              		.loc 2 493 3 view .LVU550
 1937              		.syntax unified
 1938              	@ 493 "../../../external/ChibiOS/os/common/ext/ARM/CMSIS/Core/Include/cmsis_gcc.h" 1
 1939 047e 84F31188 		MSR basepri, r4
 1940              	@ 0 "" 2
 1941              	.LVL91:
 1942              		.loc 2 493 3 is_stmt 0 view .LVU551
 1943              		.thumb
 1944              		.syntax unified
 1945              	.LBE639:
 1946              	.LBE638:
 1947              	.LBE640:
 1948              	.LBE641:
 1949              	.LBE642:
 1950              	.LBE644:
 1951              		.loc 1 1091 3 is_stmt 1 view .LVU552
 1952              		.loc 1 1111 5 is_stmt 0 view .LVU553
 1953 0482 016B     		ldr	r1, [r0, #48]
 1954              	.LVL92:
 1955              	.LBB645:
 1956              	.LBB646:
 1957              	.LBB647:
 1958              	.LBB648:
 1959              	.LBB649:
 1960              		.loc 2 493 3 view .LVU554
 1961 0484 2026     		movs	r6, #32
 1962              	.LBE649:
 1963              	.LBE648:
 1964              	.LBE647:
 1965              	.LBE646:
 1966              	.LBE645:
 1967              		.loc 1 1111 5 view .LVU555
 1968 0486 806A     		ldr	r0, [r0, #40]
 1969              	.LVL93:
 1970              		.loc 1 1111 5 view .LVU556
 1971 0488 0968     		ldr	r1, [r1]
 1972              		.loc 1 1092 17 view .LVU557
 1973 048a C7E90843 		strd	r4, r3, [r7, #32]
 1974              		.loc 1 1111 5 is_stmt 1 view .LVU558
 1975 048e 0860     		str	r0, [r1]
 1976              		.loc 1 1111 52 view .LVU559
 1977              		.loc 1 1112 5 view .LVU560
 1978 0490 CA60     		str	r2, [r1, #12]
 1979              		.loc 1 1112 45 view .LVU561
 1980              		.loc 1 1113 5 view .LVU562
 1981 0492 4B60     		str	r3, [r1, #4]
 1982              		.loc 1 1113 55 view .LVU563
 1983              		.loc 1 1121 3 view .LVU564
 1984              	.LBB664:
 1985              	.LBI664:
 1986              		.loc 3 634 25 view .LVU565
 1987              	.LBE664:
 1988              		.loc 3 636 3 view .LVU566
 1989              	.LBB669:
ARM GAS  /tmp/ccMh4V5L.s 			page 36


 1990              	.LBB665:
 1991              	.LBI665:
 1992              		.file 6 "../../../external/ChibiOS/os/rt/include/chvt.h"
 1993              		.loc 6 116 25 view .LVU567
 1994              	.LBE665:
 1995              	.LBE669:
 1996              		.loc 6 121 3 view .LVU568
 1997              	.LBB670:
 1998              	.LBB668:
 1999              	.LBB666:
 2000              	.LBI666:
 2001              		.file 7 "../../../external/ChibiOS/os/common/ports/ARMCMx/chcore_timer.h"
 2002              		.loc 7 114 25 view .LVU569
 2003              	.LBB667:
 2004              		.loc 7 116 3 view .LVU570
 2005              		.loc 7 116 10 is_stmt 0 view .LVU571
 2006 0494 FFF7FEFF 		bl	stGetCounter
 2007              	.LVL94:
 2008              		.loc 7 116 10 view .LVU572
 2009              	.LBE667:
 2010              	.LBE666:
 2011              	.LBE668:
 2012              	.LBE670:
 2013              		.loc 1 1122 3 is_stmt 1 view .LVU573
 2014              		.loc 3 651 3 view .LVU574
 2015              		.file 8 "../../../external/ChibiOS/os/rt/include/chtime.h"
 2016              		.loc 8 447 3 view .LVU575
 2017              		.loc 1 1126 3 view .LVU576
 2018              		.loc 1 1127 5 view .LVU577
 2019              	.LBB671:
 2020              	.LBI645:
 2021              		.loc 3 509 20 view .LVU578
 2022              	.LBE671:
 2023              		.loc 3 511 3 view .LVU579
 2024              	.LBB672:
 2025              	.LBB658:
 2026              	.LBI646:
 2027              		.loc 4 353 20 view .LVU580
 2028              	.LBE658:
 2029              	.LBE672:
 2030              		.loc 4 355 3 view .LVU581
 2031              	.LBB673:
 2032              	.LBB659:
 2033              	.LBB654:
 2034              	.LBI647:
 2035              		.loc 5 669 27 view .LVU582
 2036              	.LBE654:
 2037              	.LBE659:
 2038              	.LBE673:
 2039              		.loc 5 677 3 view .LVU583
 2040              	.LBB674:
 2041              	.LBB660:
 2042              	.LBB655:
 2043              	.LBB652:
 2044              	.LBI648:
 2045              		.loc 2 491 27 view .LVU584
 2046              	.LBB650:
ARM GAS  /tmp/ccMh4V5L.s 			page 37


 2047              		.loc 2 493 3 view .LVU585
 2048              		.syntax unified
 2049              	@ 493 "../../../external/ChibiOS/os/common/ext/ARM/CMSIS/Core/Include/cmsis_gcc.h" 1
 2050 0498 86F31188 		MSR basepri, r6
 2051              	@ 0 "" 2
 2052              	.LVL95:
 2053              		.loc 2 493 3 is_stmt 0 view .LVU586
 2054              		.thumb
 2055              		.syntax unified
 2056              	.LBE650:
 2057              	.LBE652:
 2058              	.LBE655:
 2059              	.LBE660:
 2060              	.LBE674:
 2061              		.loc 4 356 34 is_stmt 1 view .LVU587
 2062              		.loc 4 357 20 view .LVU588
 2063              		.loc 1 1131 5 view .LVU589
 2064              		.loc 1 1131 12 is_stmt 0 view .LVU590
 2065 049c AB69     		ldr	r3, [r5, #24]
 2066              		.loc 1 1131 8 view .LVU591
 2067 049e 1B04     		lsls	r3, r3, #16
 2068 04a0 13D5     		bpl	.L100
 2069 04a2 8046     		mov	r8, r0
 2070 04a4 06E0     		b	.L96
 2071              	.LVL96:
 2072              	.L114:
 2073              	.LBB675:
 2074              	.LBB676:
 2075              	.LBB677:
 2076              	.LBB678:
 2077              	.LBB679:
 2078              	.LBB680:
 2079              		.loc 2 493 3 view .LVU592
 2080              		.syntax unified
 2081              	@ 493 "../../../external/ChibiOS/os/common/ext/ARM/CMSIS/Core/Include/cmsis_gcc.h" 1
 2082 04a6 84F31188 		MSR basepri, r4
 2083              	@ 0 "" 2
 2084              	.LVL97:
 2085              		.loc 2 493 3 view .LVU593
 2086              		.thumb
 2087              		.syntax unified
 2088              	.LBE680:
 2089              	.LBE679:
 2090              	.LBE678:
 2091              	.LBE677:
 2092              	.LBE676:
 2093              	.LBE675:
 2094              		.loc 1 1126 3 is_stmt 1 view .LVU594
 2095              		.loc 1 1127 5 view .LVU595
 2096              	.LBB689:
 2097              		.loc 3 509 20 view .LVU596
 2098              	.LBE689:
 2099              		.loc 3 511 3 view .LVU597
 2100              	.LBB690:
 2101              	.LBB661:
 2102              		.loc 4 353 20 view .LVU598
 2103              	.LBE661:
ARM GAS  /tmp/ccMh4V5L.s 			page 38


 2104              	.LBE690:
 2105              		.loc 4 355 3 view .LVU599
 2106              	.LBB691:
 2107              	.LBB662:
 2108              	.LBB656:
 2109              		.loc 5 669 27 view .LVU600
 2110              	.LBE656:
 2111              	.LBE662:
 2112              	.LBE691:
 2113              		.loc 5 677 3 view .LVU601
 2114              	.LBB692:
 2115              	.LBB663:
 2116              	.LBB657:
 2117              	.LBB653:
 2118              		.loc 2 491 27 view .LVU602
 2119              	.LBB651:
 2120              		.loc 2 493 3 view .LVU603
 2121              		.syntax unified
 2122              	@ 493 "../../../external/ChibiOS/os/common/ext/ARM/CMSIS/Core/Include/cmsis_gcc.h" 1
 2123 04aa 86F31188 		MSR basepri, r6
 2124              	@ 0 "" 2
 2125              	.LVL98:
 2126              		.loc 2 493 3 is_stmt 0 view .LVU604
 2127              		.thumb
 2128              		.syntax unified
 2129              	.LBE651:
 2130              	.LBE653:
 2131              	.LBE657:
 2132              	.LBE663:
 2133              	.LBE692:
 2134              		.loc 4 356 34 is_stmt 1 view .LVU605
 2135              		.loc 4 357 20 view .LVU606
 2136              		.loc 1 1131 5 view .LVU607
 2137              		.loc 1 1131 12 is_stmt 0 view .LVU608
 2138 04ae AB69     		ldr	r3, [r5, #24]
 2139              		.loc 1 1131 8 view .LVU609
 2140 04b0 1904     		lsls	r1, r3, #16
 2141 04b2 0AD5     		bpl	.L100
 2142              	.L96:
 2143              		.loc 1 1136 5 is_stmt 1 view .LVU610
 2144              	.LBB693:
 2145              	.LBI693:
 2146              		.loc 3 634 25 view .LVU611
 2147              	.LBE693:
 2148              		.loc 3 636 3 view .LVU612
 2149              	.LBB698:
 2150              	.LBB694:
 2151              	.LBI694:
 2152              		.loc 6 116 25 view .LVU613
 2153              	.LBE694:
 2154              	.LBE698:
 2155              		.loc 6 121 3 view .LVU614
 2156              	.LBB699:
 2157              	.LBB697:
 2158              	.LBB695:
 2159              	.LBI695:
 2160              		.loc 7 114 25 view .LVU615
ARM GAS  /tmp/ccMh4V5L.s 			page 39


 2161              	.LBB696:
 2162              		.loc 7 116 3 view .LVU616
 2163              		.loc 7 116 10 is_stmt 0 view .LVU617
 2164 04b4 FFF7FEFF 		bl	stGetCounter
 2165              	.LVL99:
 2166              		.loc 7 116 10 view .LVU618
 2167              	.LBE696:
 2168              	.LBE695:
 2169              	.LBE697:
 2170              	.LBE699:
 2171              	.LBB700:
 2172              	.LBI700:
 2173              		.loc 3 682 20 is_stmt 1 view .LVU619
 2174              	.LBE700:
 2175              		.loc 3 686 3 view .LVU620
 2176              	.LBB705:
 2177              	.LBB701:
 2178              	.LBI701:
 2179              		.loc 8 480 20 view .LVU621
 2180              	.LBB702:
 2181              		.loc 8 484 3 view .LVU622
 2182              		.loc 8 484 3 is_stmt 0 view .LVU623
 2183              	.LBE702:
 2184              	.LBE701:
 2185              	.LBE705:
 2186              		.loc 1 1140 5 is_stmt 1 view .LVU624
 2187              	.LBB706:
 2188              	.LBI675:
 2189              		.loc 3 520 20 view .LVU625
 2190              	.LBE706:
 2191              		.loc 3 522 3 view .LVU626
 2192              	.LBB707:
 2193              	.LBB687:
 2194              	.LBI676:
 2195              		.loc 4 365 20 view .LVU627
 2196              	.LBB685:
 2197              		.loc 4 367 22 view .LVU628
 2198              		.loc 4 368 33 view .LVU629
 2199              		.loc 4 374 3 view .LVU630
 2200              		.loc 4 374 3 view .LVU631
 2201              		.loc 4 378 3 view .LVU632
 2202              	.LBB683:
 2203              	.LBI678:
 2204              		.loc 5 693 27 view .LVU633
 2205              	.LBE683:
 2206              	.LBE685:
 2207              	.LBE687:
 2208              	.LBE707:
 2209              		.loc 5 696 3 view .LVU634
 2210              	.LBB708:
 2211              	.LBB688:
 2212              	.LBB686:
 2213              	.LBB684:
 2214              	.LBB682:
 2215              	.LBI679:
 2216              		.loc 2 491 27 view .LVU635
 2217              	.LBB681:
ARM GAS  /tmp/ccMh4V5L.s 			page 40


 2218              		.loc 2 493 3 view .LVU636
 2219              	.LBE681:
 2220              	.LBE682:
 2221              	.LBE684:
 2222              	.LBE686:
 2223              	.LBE688:
 2224              	.LBE708:
 2225              	.LBB709:
 2226              	.LBB704:
 2227              	.LBB703:
 2228              		.loc 8 484 17 is_stmt 0 view .LVU637
 2229 04b8 A0EB0800 		sub	r0, r0, r8
 2230              	.LBE703:
 2231              	.LBE704:
 2232              	.LBE709:
 2233              		.loc 1 1136 8 view .LVU638
 2234 04bc B0F5FA7F 		cmp	r0, #500
 2235 04c0 F1D3     		bcc	.L114
 2236              		.loc 1 1137 14 view .LVU639
 2237 04c2 4FF0FF30 		mov	r0, #-1
 2238              	.LVL100:
 2239              	.L95:
 2240              		.loc 1 1177 1 view .LVU640
 2241 04c6 BDE8F883 		pop	{r3, r4, r5, r6, r7, r8, r9, pc}
 2242              	.LVL101:
 2243              	.L100:
 2244              		.loc 1 1144 3 is_stmt 1 view .LVU641
 2245              	.LBB710:
 2246              	.LBB711:
 2247              		.loc 1 215 20 is_stmt 0 view .LVU642
 2248 04ca 7B68     		ldr	r3, [r7, #4]
 2249              	.LBE711:
 2250              	.LBE710:
 2251              		.loc 1 1144 3 view .LVU643
 2252 04cc BC6B     		ldr	r4, [r7, #56]
 2253              	.LVL102:
 2254              	.LBB715:
 2255              	.LBI710:
 2256              		.loc 1 211 13 is_stmt 1 view .LVU644
 2257              	.LBB712:
 2258              		.loc 1 212 3 view .LVU645
 2259              		.loc 1 215 3 view .LVU646
 2260              		.loc 1 215 20 is_stmt 0 view .LVU647
 2261 04ce 9B68     		ldr	r3, [r3, #8]
 2262              		.loc 1 215 6 view .LVU648
 2263 04d0 1805     		lsls	r0, r3, #20
 2264 04d2 3AD5     		bpl	.L97
 2265              		.loc 1 218 5 is_stmt 1 view .LVU649
 2266              	.LBE712:
 2267              	.LBE715:
 2268              	.LBB716:
 2269              	.LBB717:
 2270              		.loc 1 234 5 is_stmt 0 view .LVU650
 2271 04d4 7A6A     		ldr	r2, [r7, #36]
 2272              	.LBE717:
 2273              	.LBE716:
 2274              	.LBB722:
ARM GAS  /tmp/ccMh4V5L.s 			page 41


 2275              	.LBB713:
 2276              		.loc 1 218 13 view .LVU651
 2277 04d6 C4F80490 		str	r9, [r4, #4]
 2278              	.LVL103:
 2279              		.loc 1 218 13 view .LVU652
 2280              	.LBE713:
 2281              	.LBE722:
 2282              		.loc 1 1147 3 is_stmt 1 view .LVU653
 2283              	.LBB723:
 2284              	.LBI716:
 2285              		.loc 1 228 13 view .LVU654
 2286              	.LBB718:
 2287              		.loc 1 229 3 view .LVU655
 2288              		.loc 1 230 3 view .LVU656
 2289              		.loc 1 231 3 view .LVU657
 2290              		.loc 1 234 3 view .LVU658
 2291              		.loc 1 235 3 view .LVU659
 2292              		.loc 1 235 6 is_stmt 0 view .LVU660
 2293 04da FF2A     		cmp	r2, #255
 2294 04dc 3BD8     		bhi	.L102
 2295              	.L115:
 2296              		.loc 1 235 6 view .LVU661
 2297 04de 0021     		movs	r1, #0
 2298 04e0 1204     		lsls	r2, r2, #16
 2299              	.LVL104:
 2300              		.loc 1 240 12 view .LVU662
 2301 04e2 0E46     		mov	r6, r1
 2302              	.L103:
 2303              	.LVL105:
 2304              		.loc 1 242 3 is_stmt 1 view .LVU663
 2305              		.loc 1 246 16 is_stmt 0 view .LVU664
 2306 04e4 6068     		ldr	r0, [r4, #4]
 2307              		.loc 1 247 28 view .LVU665
 2308 04e6 1343     		orrs	r3, r3, r2
 2309              		.loc 1 246 22 view .LVU666
 2310 04e8 1E4A     		ldr	r2, .L116
 2311              		.loc 1 242 17 view .LVU667
 2312 04ea 7962     		str	r1, [r7, #36]
 2313              		.loc 1 246 3 is_stmt 1 view .LVU668
 2314              		.loc 1 246 22 is_stmt 0 view .LVU669
 2315 04ec 0240     		ands	r2, r2, r0
 2316              	.LBE718:
 2317              	.LBE723:
 2318              	.LBB724:
 2319              	.LBB725:
 2320              		.loc 1 130 5 view .LVU670
 2321 04ee 386B     		ldr	r0, [r7, #48]
 2322              	.LBE725:
 2323              	.LBE724:
 2324              	.LBB728:
 2325              	.LBB729:
 2326              		.loc 3 760 10 view .LVU671
 2327 04f0 0899     		ldr	r1, [sp, #32]
 2328              	.LBE729:
 2329              	.LBE728:
 2330              	.LBB732:
 2331              	.LBB719:
ARM GAS  /tmp/ccMh4V5L.s 			page 42


 2332              		.loc 1 247 28 view .LVU672
 2333 04f2 1343     		orrs	r3, r3, r2
 2334              	.LBE719:
 2335              	.LBE732:
 2336              	.LBB733:
 2337              	.LBB726:
 2338              		.loc 1 130 5 view .LVU673
 2339 04f4 0268     		ldr	r2, [r0]
 2340              	.LBE726:
 2341              	.LBE733:
 2342              	.LBB734:
 2343              	.LBB730:
 2344              		.loc 3 760 10 view .LVU674
 2345 04f6 07F11C00 		add	r0, r7, #28
 2346              	.LBE730:
 2347              	.LBE734:
 2348              	.LBB735:
 2349              	.LBB720:
 2350              		.loc 1 247 41 view .LVU675
 2351 04fa 3343     		orrs	r3, r3, r6
 2352 04fc 43F48063 		orr	r3, r3, #1024
 2353              		.loc 1 246 11 view .LVU676
 2354 0500 6360     		str	r3, [r4, #4]
 2355              	.LVL106:
 2356              		.loc 1 246 11 view .LVU677
 2357              	.LBE720:
 2358              	.LBE735:
 2359              		.loc 1 1151 3 is_stmt 1 view .LVU678
 2360              	.LBB736:
 2361              	.LBI724:
 2362              		.loc 1 113 20 view .LVU679
 2363              	.LBB727:
 2364              		.loc 1 130 5 view .LVU680
 2365 0502 1368     		ldr	r3, [r2]
 2366 0504 43F00103 		orr	r3, r3, #1
 2367 0508 1360     		str	r3, [r2]
 2368              		.loc 1 130 34 view .LVU681
 2369              	.LBE727:
 2370              	.LBE736:
 2371              		.loc 1 1154 3 view .LVU682
 2372              		.loc 1 1154 11 is_stmt 0 view .LVU683
 2373 050a 2B68     		ldr	r3, [r5]
 2374 050c 43F04003 		orr	r3, r3, #64
 2375 0510 2B60     		str	r3, [r5]
 2376              		.loc 1 1162 3 is_stmt 1 view .LVU684
 2377              		.loc 1 1162 11 is_stmt 0 view .LVU685
 2378 0512 6B68     		ldr	r3, [r5, #4]
 2379 0514 43F40053 		orr	r3, r3, #8192
 2380 0518 6B60     		str	r3, [r5, #4]
 2381              		.loc 1 1165 3 is_stmt 1 view .LVU686
 2382              	.LVL107:
 2383              	.LBB737:
 2384              	.LBI728:
 2385              		.loc 3 757 21 view .LVU687
 2386              	.LBB731:
 2387              		.loc 3 760 3 view .LVU688
 2388              		.loc 3 760 10 is_stmt 0 view .LVU689
ARM GAS  /tmp/ccMh4V5L.s 			page 43


 2389 051a FFF7FEFF 		bl	chThdSuspendTimeoutS
 2390              	.LVL108:
 2391              		.loc 3 760 10 view .LVU690
 2392              	.LBE731:
 2393              	.LBE737:
 2394              		.loc 1 1169 3 is_stmt 1 view .LVU691
 2395              		.loc 1 1169 6 is_stmt 0 view .LVU692
 2396 051e 421C     		adds	r2, r0, #1
 2397 0520 D1D1     		bne	.L95
 2398              		.loc 1 1170 5 is_stmt 1 view .LVU693
 2399              		.loc 1 1170 13 is_stmt 0 view .LVU694
 2400 0522 6B68     		ldr	r3, [r5, #4]
 2401              		.loc 1 1172 5 view .LVU695
 2402 0524 396B     		ldr	r1, [r7, #48]
 2403              		.loc 1 1170 13 view .LVU696
 2404 0526 43F48043 		orr	r3, r3, #16384
 2405              	.LBB738:
 2406              	.LBB739:
 2407              		.loc 1 174 5 view .LVU697
 2408 052a 0A68     		ldr	r2, [r1]
 2409              	.LBE739:
 2410              	.LBE738:
 2411              		.loc 1 1170 13 view .LVU698
 2412 052c 6B60     		str	r3, [r5, #4]
 2413              		.loc 1 1172 5 is_stmt 1 view .LVU699
 2414              	.LBB741:
 2415              	.LBI738:
 2416              		.loc 1 157 20 view .LVU700
 2417              	.LVL109:
 2418              	.LBB740:
 2419              		.loc 1 174 5 view .LVU701
 2420 052e 1368     		ldr	r3, [r2]
 2421 0530 23F01F03 		bic	r3, r3, #31
 2422 0534 1360     		str	r3, [r2]
 2423              		.loc 1 174 5 view .LVU702
 2424              	.L104:
 2425              		.loc 1 174 5 view .LVU703
 2426 0536 1368     		ldr	r3, [r2]
 2427 0538 DB07     		lsls	r3, r3, #31
 2428 053a FCD4     		bmi	.L104
 2429              		.loc 1 174 5 view .LVU704
 2430 053c 0C7B     		ldrb	r4, [r1, #12]	@ zero_extendqisi2
 2431 053e 3D23     		movs	r3, #61
 2432 0540 4A68     		ldr	r2, [r1, #4]
 2433 0542 A340     		lsls	r3, r3, r4
 2434 0544 1360     		str	r3, [r2]
 2435              		.loc 1 174 5 view .LVU705
 2436              		.loc 1 174 35 view .LVU706
 2437              	.LBE740:
 2438              	.LBE741:
 2439              		.loc 1 1177 1 is_stmt 0 view .LVU707
 2440 0546 BDE8F883 		pop	{r3, r4, r5, r6, r7, r8, r9, pc}
 2441              	.LVL110:
 2442              	.L97:
 2443              	.LBB742:
 2444              	.LBB714:
 2445              		.loc 1 216 5 is_stmt 1 view .LVU708
ARM GAS  /tmp/ccMh4V5L.s 			page 44


 2446              		.loc 1 216 30 is_stmt 0 view .LVU709
 2447 054a 4FEA4902 		lsl	r2, r9, #1
 2448              		.loc 1 216 13 view .LVU710
 2449 054e 6260     		str	r2, [r4, #4]
 2450              	.LVL111:
 2451              		.loc 1 216 13 view .LVU711
 2452              	.LBE714:
 2453              	.LBE742:
 2454              		.loc 1 1147 3 is_stmt 1 view .LVU712
 2455              	.LBB743:
 2456              		.loc 1 228 13 view .LVU713
 2457              	.LBB721:
 2458              		.loc 1 229 3 view .LVU714
 2459              		.loc 1 230 3 view .LVU715
 2460              		.loc 1 231 3 view .LVU716
 2461              		.loc 1 234 3 view .LVU717
 2462              		.loc 1 234 5 is_stmt 0 view .LVU718
 2463 0550 7A6A     		ldr	r2, [r7, #36]
 2464              	.LVL112:
 2465              		.loc 1 235 3 is_stmt 1 view .LVU719
 2466              		.loc 1 235 6 is_stmt 0 view .LVU720
 2467 0552 FF2A     		cmp	r2, #255
 2468 0554 C3D9     		bls	.L115
 2469              	.L102:
 2470              		.loc 1 235 6 view .LVU721
 2471 0556 A2F1FF01 		sub	r1, r2, #255
 2472              		.loc 1 237 12 view .LVU722
 2473 055a 4FF08076 		mov	r6, #16777216
 2474              		.loc 1 235 6 view .LVU723
 2475 055e 4FF47F02 		mov	r2, #16711680
 2476              	.LVL113:
 2477              		.loc 1 235 6 view .LVU724
 2478 0562 BFE7     		b	.L103
 2479              	.L117:
 2480              		.align	2
 2481              	.L116:
 2482 0564 FFFF00FE 		.word	-33488897
 2483              	.LBE721:
 2484              	.LBE743:
 2485              		.cfi_endproc
 2486              	.LFE377:
 2487              		.size	i2c_lld_master_receive_timeout, .-i2c_lld_master_receive_timeout
 2488              		.align	1
 2489 0568 AFF30080 		.p2align 4,,15
 2489      AFF30080 
 2490              		.global	i2c_lld_master_transmit_timeout
 2491              		.syntax unified
 2492              		.thumb
 2493              		.thumb_func
 2494              		.fpu fpv4-sp-d16
 2495              		.type	i2c_lld_master_transmit_timeout, %function
 2496              	i2c_lld_master_transmit_timeout:
 2497              	.LVL114:
 2498              	.LFB378:
 2499              		.loc 1 1205 62 is_stmt 1 view -0
 2500              		.cfi_startproc
 2501              		@ args = 12, pretend = 0, frame = 0
ARM GAS  /tmp/ccMh4V5L.s 			page 45


 2502              		@ frame_needed = 0, uses_anonymous_args = 0
 2503              		.loc 1 1206 3 view .LVU726
 2504              		.loc 1 1207 3 view .LVU727
 2505              		.loc 1 1205 62 is_stmt 0 view .LVU728
 2506 0570 2DE9F843 		push	{r3, r4, r5, r6, r7, r8, r9, lr}
 2507              		.cfi_def_cfa_offset 32
 2508              		.cfi_offset 3, -32
 2509              		.cfi_offset 4, -28
 2510              		.cfi_offset 5, -24
 2511              		.cfi_offset 6, -20
 2512              		.cfi_offset 7, -16
 2513              		.cfi_offset 8, -12
 2514              		.cfi_offset 9, -8
 2515              		.cfi_offset 14, -4
 2516              		.loc 1 1211 16 view .LVU729
 2517 0574 0024     		movs	r4, #0
 2518              		.loc 1 1205 62 view .LVU730
 2519 0576 9446     		mov	ip, r2
 2520 0578 0646     		mov	r6, r0
 2521 057a 8946     		mov	r9, r1
 2522 057c 1A46     		mov	r2, r3
 2523              	.LVL115:
 2524              		.loc 1 1207 16 view .LVU731
 2525 057e 856B     		ldr	r5, [r0, #56]
 2526              	.LVL116:
 2527              		.loc 1 1208 3 is_stmt 1 view .LVU732
 2528              		.loc 1 1211 3 view .LVU733
 2529              		.loc 1 1211 16 is_stmt 0 view .LVU734
 2530 0580 8460     		str	r4, [r0, #8]
 2531              		.loc 1 1214 3 is_stmt 1 view .LVU735
 2532              	.LBB744:
 2533              	.LBI744:
 2534              		.loc 3 520 20 view .LVU736
 2535              	.LBE744:
 2536              		.loc 3 522 3 view .LVU737
 2537              	.LBB758:
 2538              	.LBB745:
 2539              	.LBI745:
 2540              		.loc 4 365 20 view .LVU738
 2541              	.LBB746:
 2542              		.loc 4 367 22 view .LVU739
 2543              		.loc 4 368 33 view .LVU740
 2544              		.loc 4 374 3 view .LVU741
 2545              		.loc 4 374 3 view .LVU742
 2546              		.loc 4 378 3 view .LVU743
 2547              	.LBB747:
 2548              	.LBI747:
 2549              		.loc 5 693 27 view .LVU744
 2550              	.LBE747:
 2551              	.LBE746:
 2552              	.LBE745:
 2553              	.LBE758:
 2554              		.loc 5 696 3 view .LVU745
 2555              	.LVL117:
 2556              	.LBB759:
 2557              	.LBB756:
 2558              	.LBB754:
ARM GAS  /tmp/ccMh4V5L.s 			page 46


 2559              	.LBB752:
 2560              	.LBB748:
 2561              	.LBI748:
 2562              		.loc 2 491 27 view .LVU746
 2563              	.LBB749:
 2564              		.loc 2 493 3 view .LVU747
 2565              	.LBE749:
 2566              	.LBE748:
 2567              	.LBE752:
 2568              	.LBE754:
 2569              	.LBE756:
 2570              	.LBE759:
 2571              		.loc 1 1205 62 is_stmt 0 view .LVU748
 2572 0582 DDF824E0 		ldr	lr, [sp, #36]
 2573              	.LBB760:
 2574              	.LBB757:
 2575              	.LBB755:
 2576              	.LBB753:
 2577              	.LBB751:
 2578              	.LBB750:
 2579              		.loc 2 493 3 view .LVU749
 2580              		.syntax unified
 2581              	@ 493 "../../../external/ChibiOS/os/common/ext/ARM/CMSIS/Core/Include/cmsis_gcc.h" 1
 2582 0586 84F31188 		MSR basepri, r4
 2583              	@ 0 "" 2
 2584              	.LVL118:
 2585              		.loc 2 493 3 view .LVU750
 2586              		.thumb
 2587              		.syntax unified
 2588              	.LBE750:
 2589              	.LBE751:
 2590              	.LBE753:
 2591              	.LBE755:
 2592              	.LBE757:
 2593              	.LBE760:
 2594              		.loc 1 1217 3 is_stmt 1 view .LVU751
 2595              		.loc 1 1245 5 is_stmt 0 view .LVU752
 2596 058a 316B     		ldr	r1, [r6, #48]
 2597              	.LVL119:
 2598              		.loc 1 1241 5 view .LVU753
 2599 058c 406B     		ldr	r0, [r0, #52]
 2600              	.LVL120:
 2601              		.loc 1 1245 5 view .LVU754
 2602 058e 0968     		ldr	r1, [r1]
 2603              		.loc 1 1241 5 view .LVU755
 2604 0590 0068     		ldr	r0, [r0]
 2605              		.loc 1 1245 5 view .LVU756
 2606 0592 B76A     		ldr	r7, [r6, #40]
 2607              		.loc 1 1218 17 view .LVU757
 2608 0594 C6E9083E 		strd	r3, lr, [r6, #32]
 2609              		.loc 1 1241 5 is_stmt 1 view .LVU758
 2610 0598 F36A     		ldr	r3, [r6, #44]
 2611              	.LVL121:
 2612              		.loc 1 1241 5 is_stmt 0 view .LVU759
 2613 059a 0360     		str	r3, [r0]
 2614              		.loc 1 1241 52 is_stmt 1 view .LVU760
 2615              		.loc 1 1242 5 view .LVU761
ARM GAS  /tmp/ccMh4V5L.s 			page 47


 2616              		.loc 1 1246 5 is_stmt 0 view .LVU762
 2617 059c 089B     		ldr	r3, [sp, #32]
 2618              		.loc 1 1242 5 view .LVU763
 2619 059e C0F80CC0 		str	ip, [r0, #12]
 2620              		.loc 1 1242 45 is_stmt 1 view .LVU764
 2621              		.loc 1 1243 5 view .LVU765
 2622 05a2 4260     		str	r2, [r0, #4]
 2623              		.loc 1 1243 55 view .LVU766
 2624              		.loc 1 1245 5 view .LVU767
 2625 05a4 0F60     		str	r7, [r1]
 2626              		.loc 1 1245 52 view .LVU768
 2627              		.loc 1 1246 5 view .LVU769
 2628              	.LBB761:
 2629              	.LBB762:
 2630              	.LBB763:
 2631              	.LBB764:
 2632              	.LBB765:
 2633              		.loc 2 493 3 is_stmt 0 view .LVU770
 2634 05a6 2027     		movs	r7, #32
 2635              	.LBE765:
 2636              	.LBE764:
 2637              	.LBE763:
 2638              	.LBE762:
 2639              	.LBE761:
 2640              		.loc 1 1246 5 view .LVU771
 2641 05a8 CB60     		str	r3, [r1, #12]
 2642              		.loc 1 1246 45 is_stmt 1 view .LVU772
 2643              		.loc 1 1247 5 view .LVU773
 2644 05aa C1F804E0 		str	lr, [r1, #4]
 2645              		.loc 1 1247 55 view .LVU774
 2646              		.loc 1 1256 3 view .LVU775
 2647              	.LBB780:
 2648              	.LBI780:
 2649              		.loc 3 634 25 view .LVU776
 2650              	.LBE780:
 2651              		.loc 3 636 3 view .LVU777
 2652              	.LBB785:
 2653              	.LBB781:
 2654              	.LBI781:
 2655              		.loc 6 116 25 view .LVU778
 2656              	.LBE781:
 2657              	.LBE785:
 2658              		.loc 6 121 3 view .LVU779
 2659              	.LBB786:
 2660              	.LBB784:
 2661              	.LBB782:
 2662              	.LBI782:
 2663              		.loc 7 114 25 view .LVU780
 2664              	.LBB783:
 2665              		.loc 7 116 3 view .LVU781
 2666              		.loc 7 116 10 is_stmt 0 view .LVU782
 2667 05ae FFF7FEFF 		bl	stGetCounter
 2668              	.LVL122:
 2669              		.loc 7 116 10 view .LVU783
 2670              	.LBE783:
 2671              	.LBE782:
 2672              	.LBE784:
ARM GAS  /tmp/ccMh4V5L.s 			page 48


 2673              	.LBE786:
 2674              		.loc 1 1257 3 is_stmt 1 view .LVU784
 2675              		.loc 3 651 3 view .LVU785
 2676              		.loc 8 447 3 view .LVU786
 2677              		.loc 1 1261 3 view .LVU787
 2678              		.loc 1 1262 5 view .LVU788
 2679              	.LBB787:
 2680              	.LBI761:
 2681              		.loc 3 509 20 view .LVU789
 2682              	.LBE787:
 2683              		.loc 3 511 3 view .LVU790
 2684              	.LBB788:
 2685              	.LBB774:
 2686              	.LBI762:
 2687              		.loc 4 353 20 view .LVU791
 2688              	.LBE774:
 2689              	.LBE788:
 2690              		.loc 4 355 3 view .LVU792
 2691              	.LBB789:
 2692              	.LBB775:
 2693              	.LBB770:
 2694              	.LBI763:
 2695              		.loc 5 669 27 view .LVU793
 2696              	.LBE770:
 2697              	.LBE775:
 2698              	.LBE789:
 2699              		.loc 5 677 3 view .LVU794
 2700              	.LBB790:
 2701              	.LBB776:
 2702              	.LBB771:
 2703              	.LBB768:
 2704              	.LBI764:
 2705              		.loc 2 491 27 view .LVU795
 2706              	.LBB766:
 2707              		.loc 2 493 3 view .LVU796
 2708              		.syntax unified
 2709              	@ 493 "../../../external/ChibiOS/os/common/ext/ARM/CMSIS/Core/Include/cmsis_gcc.h" 1
 2710 05b2 87F31188 		MSR basepri, r7
 2711              	@ 0 "" 2
 2712              	.LVL123:
 2713              		.loc 2 493 3 is_stmt 0 view .LVU797
 2714              		.thumb
 2715              		.syntax unified
 2716              	.LBE766:
 2717              	.LBE768:
 2718              	.LBE771:
 2719              	.LBE776:
 2720              	.LBE790:
 2721              		.loc 4 356 34 is_stmt 1 view .LVU798
 2722              		.loc 4 357 20 view .LVU799
 2723              		.loc 1 1266 5 view .LVU800
 2724              		.loc 1 1266 12 is_stmt 0 view .LVU801
 2725 05b6 AB69     		ldr	r3, [r5, #24]
 2726              		.loc 1 1266 8 view .LVU802
 2727 05b8 1B04     		lsls	r3, r3, #16
 2728 05ba 13D5     		bpl	.L123
 2729 05bc 8046     		mov	r8, r0
ARM GAS  /tmp/ccMh4V5L.s 			page 49


 2730 05be 06E0     		b	.L119
 2731              	.LVL124:
 2732              	.L139:
 2733              	.LBB791:
 2734              	.LBB792:
 2735              	.LBB793:
 2736              	.LBB794:
 2737              	.LBB795:
 2738              	.LBB796:
 2739              		.loc 2 493 3 view .LVU803
 2740              		.syntax unified
 2741              	@ 493 "../../../external/ChibiOS/os/common/ext/ARM/CMSIS/Core/Include/cmsis_gcc.h" 1
 2742 05c0 84F31188 		MSR basepri, r4
 2743              	@ 0 "" 2
 2744              	.LVL125:
 2745              		.loc 2 493 3 view .LVU804
 2746              		.thumb
 2747              		.syntax unified
 2748              	.LBE796:
 2749              	.LBE795:
 2750              	.LBE794:
 2751              	.LBE793:
 2752              	.LBE792:
 2753              	.LBE791:
 2754              		.loc 1 1261 3 is_stmt 1 view .LVU805
 2755              		.loc 1 1262 5 view .LVU806
 2756              	.LBB805:
 2757              		.loc 3 509 20 view .LVU807
 2758              	.LBE805:
 2759              		.loc 3 511 3 view .LVU808
 2760              	.LBB806:
 2761              	.LBB777:
 2762              		.loc 4 353 20 view .LVU809
 2763              	.LBE777:
 2764              	.LBE806:
 2765              		.loc 4 355 3 view .LVU810
 2766              	.LBB807:
 2767              	.LBB778:
 2768              	.LBB772:
 2769              		.loc 5 669 27 view .LVU811
 2770              	.LBE772:
 2771              	.LBE778:
 2772              	.LBE807:
 2773              		.loc 5 677 3 view .LVU812
 2774              	.LBB808:
 2775              	.LBB779:
 2776              	.LBB773:
 2777              	.LBB769:
 2778              		.loc 2 491 27 view .LVU813
 2779              	.LBB767:
 2780              		.loc 2 493 3 view .LVU814
 2781              		.syntax unified
 2782              	@ 493 "../../../external/ChibiOS/os/common/ext/ARM/CMSIS/Core/Include/cmsis_gcc.h" 1
 2783 05c4 87F31188 		MSR basepri, r7
 2784              	@ 0 "" 2
 2785              	.LVL126:
 2786              		.loc 2 493 3 is_stmt 0 view .LVU815
ARM GAS  /tmp/ccMh4V5L.s 			page 50


 2787              		.thumb
 2788              		.syntax unified
 2789              	.LBE767:
 2790              	.LBE769:
 2791              	.LBE773:
 2792              	.LBE779:
 2793              	.LBE808:
 2794              		.loc 4 356 34 is_stmt 1 view .LVU816
 2795              		.loc 4 357 20 view .LVU817
 2796              		.loc 1 1266 5 view .LVU818
 2797              		.loc 1 1266 12 is_stmt 0 view .LVU819
 2798 05c8 AB69     		ldr	r3, [r5, #24]
 2799              		.loc 1 1266 8 view .LVU820
 2800 05ca 1B04     		lsls	r3, r3, #16
 2801 05cc 0AD5     		bpl	.L123
 2802              	.L119:
 2803              		.loc 1 1271 5 is_stmt 1 view .LVU821
 2804              	.LBB809:
 2805              	.LBI809:
 2806              		.loc 3 634 25 view .LVU822
 2807              	.LBE809:
 2808              		.loc 3 636 3 view .LVU823
 2809              	.LBB814:
 2810              	.LBB810:
 2811              	.LBI810:
 2812              		.loc 6 116 25 view .LVU824
 2813              	.LBE810:
 2814              	.LBE814:
 2815              		.loc 6 121 3 view .LVU825
 2816              	.LBB815:
 2817              	.LBB813:
 2818              	.LBB811:
 2819              	.LBI811:
 2820              		.loc 7 114 25 view .LVU826
 2821              	.LBB812:
 2822              		.loc 7 116 3 view .LVU827
 2823              		.loc 7 116 10 is_stmt 0 view .LVU828
 2824 05ce FFF7FEFF 		bl	stGetCounter
 2825              	.LVL127:
 2826              		.loc 7 116 10 view .LVU829
 2827              	.LBE812:
 2828              	.LBE811:
 2829              	.LBE813:
 2830              	.LBE815:
 2831              	.LBB816:
 2832              	.LBI816:
 2833              		.loc 3 682 20 is_stmt 1 view .LVU830
 2834              	.LBE816:
 2835              		.loc 3 686 3 view .LVU831
 2836              	.LBB821:
 2837              	.LBB817:
 2838              	.LBI817:
 2839              		.loc 8 480 20 view .LVU832
 2840              	.LBB818:
 2841              		.loc 8 484 3 view .LVU833
 2842              		.loc 8 484 3 is_stmt 0 view .LVU834
 2843              	.LBE818:
ARM GAS  /tmp/ccMh4V5L.s 			page 51


 2844              	.LBE817:
 2845              	.LBE821:
 2846              		.loc 1 1275 5 is_stmt 1 view .LVU835
 2847              	.LBB822:
 2848              	.LBI791:
 2849              		.loc 3 520 20 view .LVU836
 2850              	.LBE822:
 2851              		.loc 3 522 3 view .LVU837
 2852              	.LBB823:
 2853              	.LBB803:
 2854              	.LBI792:
 2855              		.loc 4 365 20 view .LVU838
 2856              	.LBB801:
 2857              		.loc 4 367 22 view .LVU839
 2858              		.loc 4 368 33 view .LVU840
 2859              		.loc 4 374 3 view .LVU841
 2860              		.loc 4 374 3 view .LVU842
 2861              		.loc 4 378 3 view .LVU843
 2862              	.LBB799:
 2863              	.LBI794:
 2864              		.loc 5 693 27 view .LVU844
 2865              	.LBE799:
 2866              	.LBE801:
 2867              	.LBE803:
 2868              	.LBE823:
 2869              		.loc 5 696 3 view .LVU845
 2870              	.LBB824:
 2871              	.LBB804:
 2872              	.LBB802:
 2873              	.LBB800:
 2874              	.LBB798:
 2875              	.LBI795:
 2876              		.loc 2 491 27 view .LVU846
 2877              	.LBB797:
 2878              		.loc 2 493 3 view .LVU847
 2879              	.LBE797:
 2880              	.LBE798:
 2881              	.LBE800:
 2882              	.LBE802:
 2883              	.LBE804:
 2884              	.LBE824:
 2885              	.LBB825:
 2886              	.LBB820:
 2887              	.LBB819:
 2888              		.loc 8 484 17 is_stmt 0 view .LVU848
 2889 05d2 A0EB0800 		sub	r0, r0, r8
 2890              	.LBE819:
 2891              	.LBE820:
 2892              	.LBE825:
 2893              		.loc 1 1271 8 view .LVU849
 2894 05d6 B0F5FA7F 		cmp	r0, #500
 2895 05da F1D3     		bcc	.L139
 2896              		.loc 1 1272 14 view .LVU850
 2897 05dc 4FF0FF30 		mov	r0, #-1
 2898              	.LVL128:
 2899              	.L118:
 2900              		.loc 1 1312 1 view .LVU851
ARM GAS  /tmp/ccMh4V5L.s 			page 52


 2901 05e0 BDE8F883 		pop	{r3, r4, r5, r6, r7, r8, r9, pc}
 2902              	.LVL129:
 2903              	.L123:
 2904              		.loc 1 1279 3 is_stmt 1 view .LVU852
 2905              	.LBB826:
 2906              	.LBB827:
 2907              		.loc 1 215 20 is_stmt 0 view .LVU853
 2908 05e4 7368     		ldr	r3, [r6, #4]
 2909              	.LBE827:
 2910              	.LBE826:
 2911              		.loc 1 1279 3 view .LVU854
 2912 05e6 B46B     		ldr	r4, [r6, #56]
 2913              	.LVL130:
 2914              	.LBB833:
 2915              	.LBI826:
 2916              		.loc 1 211 13 is_stmt 1 view .LVU855
 2917              	.LBB828:
 2918              		.loc 1 212 3 view .LVU856
 2919              		.loc 1 215 3 view .LVU857
 2920              		.loc 1 215 20 is_stmt 0 view .LVU858
 2921 05e8 9A68     		ldr	r2, [r3, #8]
 2922              		.loc 1 215 6 view .LVU859
 2923 05ea 1105     		lsls	r1, r2, #20
 2924 05ec 49D5     		bpl	.L120
 2925              		.loc 1 218 5 is_stmt 1 view .LVU860
 2926              	.LBE828:
 2927              	.LBE833:
 2928              	.LBB834:
 2929              	.LBB835:
 2930              		.loc 1 263 5 is_stmt 0 view .LVU861
 2931 05ee 376A     		ldr	r7, [r6, #32]
 2932              	.LBE835:
 2933              	.LBE834:
 2934              	.LBB842:
 2935              	.LBB829:
 2936              		.loc 1 218 13 view .LVU862
 2937 05f0 C4F80490 		str	r9, [r4, #4]
 2938              	.LVL131:
 2939              		.loc 1 218 13 view .LVU863
 2940              	.LBE829:
 2941              	.LBE842:
 2942              		.loc 1 1282 3 is_stmt 1 view .LVU864
 2943              	.LBB843:
 2944              	.LBI834:
 2945              		.loc 1 257 13 view .LVU865
 2946              	.LBB836:
 2947              		.loc 1 258 3 view .LVU866
 2948              		.loc 1 259 3 view .LVU867
 2949              		.loc 1 260 3 view .LVU868
 2950              		.loc 1 263 3 view .LVU869
 2951              		.loc 1 264 3 view .LVU870
 2952              		.loc 1 264 6 is_stmt 0 view .LVU871
 2953 05f4 FF2F     		cmp	r7, #255
 2954 05f6 4AD8     		bhi	.L125
 2955              	.L140:
 2956              		.loc 1 264 6 view .LVU872
 2957 05f8 0020     		movs	r0, #0
ARM GAS  /tmp/ccMh4V5L.s 			page 53


 2958 05fa 3F04     		lsls	r7, r7, #16
 2959              	.LVL132:
 2960              		.loc 1 269 12 view .LVU873
 2961 05fc 8646     		mov	lr, r0
 2962              	.L126:
 2963              	.LVL133:
 2964              		.loc 1 271 3 is_stmt 1 view .LVU874
 2965              		.loc 1 275 16 is_stmt 0 view .LVU875
 2966 05fe D4F804C0 		ldr	ip, [r4, #4]
 2967              		.loc 1 275 22 view .LVU876
 2968 0602 264B     		ldr	r3, .L141
 2969              		.loc 1 271 17 view .LVU877
 2970 0604 3062     		str	r0, [r6, #32]
 2971              		.loc 1 275 3 is_stmt 1 view .LVU878
 2972              		.loc 1 275 22 is_stmt 0 view .LVU879
 2973 0606 0CEA0303 		and	r3, ip, r3
 2974              	.LBE836:
 2975              	.LBE843:
 2976              	.LBB844:
 2977              	.LBB845:
 2978              		.loc 1 152 5 view .LVU880
 2979 060a 706B     		ldr	r0, [r6, #52]
 2980              	.LBE845:
 2981              	.LBE844:
 2982              	.LBB848:
 2983              	.LBB849:
 2984              		.loc 3 760 10 view .LVU881
 2985 060c 0A99     		ldr	r1, [sp, #40]
 2986              	.LBE849:
 2987              	.LBE848:
 2988              	.LBB852:
 2989              	.LBB837:
 2990              		.loc 1 275 60 view .LVU882
 2991 060e 1343     		orrs	r3, r3, r2
 2992              	.LBE837:
 2993              	.LBE852:
 2994              	.LBB853:
 2995              	.LBB846:
 2996              		.loc 1 152 5 view .LVU883
 2997 0610 0268     		ldr	r2, [r0]
 2998              	.LBE846:
 2999              	.LBE853:
 3000              	.LBB854:
 3001              	.LBB850:
 3002              		.loc 3 760 10 view .LVU884
 3003 0612 06F11C00 		add	r0, r6, #28
 3004              	.LBE850:
 3005              	.LBE854:
 3006              	.LBB855:
 3007              	.LBB838:
 3008              		.loc 1 276 24 view .LVU885
 3009 0616 43EA0E03 		orr	r3, r3, lr
 3010 061a 3B43     		orrs	r3, r3, r7
 3011              		.loc 1 275 11 view .LVU886
 3012 061c 6360     		str	r3, [r4, #4]
 3013              	.LVL134:
 3014              		.loc 1 275 11 view .LVU887
ARM GAS  /tmp/ccMh4V5L.s 			page 54


 3015              	.LBE838:
 3016              	.LBE855:
 3017              		.loc 1 1286 3 is_stmt 1 view .LVU888
 3018              	.LBB856:
 3019              	.LBI844:
 3020              		.loc 1 135 20 view .LVU889
 3021              	.LBB847:
 3022              		.loc 1 152 5 view .LVU890
 3023 061e 1368     		ldr	r3, [r2]
 3024 0620 43F00103 		orr	r3, r3, #1
 3025 0624 1360     		str	r3, [r2]
 3026              		.loc 1 152 34 view .LVU891
 3027              	.LBE847:
 3028              	.LBE856:
 3029              		.loc 1 1289 3 view .LVU892
 3030              		.loc 1 1289 11 is_stmt 0 view .LVU893
 3031 0626 2B68     		ldr	r3, [r5]
 3032 0628 43F04003 		orr	r3, r3, #64
 3033 062c 2B60     		str	r3, [r5]
 3034              		.loc 1 1296 3 is_stmt 1 view .LVU894
 3035              		.loc 1 1296 11 is_stmt 0 view .LVU895
 3036 062e 6B68     		ldr	r3, [r5, #4]
 3037 0630 43F40053 		orr	r3, r3, #8192
 3038 0634 6B60     		str	r3, [r5, #4]
 3039              		.loc 1 1299 3 is_stmt 1 view .LVU896
 3040              	.LVL135:
 3041              	.LBB857:
 3042              	.LBI848:
 3043              		.loc 3 757 21 view .LVU897
 3044              	.LBB851:
 3045              		.loc 3 760 3 view .LVU898
 3046              		.loc 3 760 10 is_stmt 0 view .LVU899
 3047 0636 FFF7FEFF 		bl	chThdSuspendTimeoutS
 3048              	.LVL136:
 3049              		.loc 3 760 10 view .LVU900
 3050              	.LBE851:
 3051              	.LBE857:
 3052              		.loc 1 1303 3 is_stmt 1 view .LVU901
 3053              		.loc 1 1303 6 is_stmt 0 view .LVU902
 3054 063a 441C     		adds	r4, r0, #1
 3055 063c D0D1     		bne	.L118
 3056              		.loc 1 1304 5 is_stmt 1 view .LVU903
 3057              		.loc 1 1304 13 is_stmt 0 view .LVU904
 3058 063e 6B68     		ldr	r3, [r5, #4]
 3059              		.loc 1 1306 5 view .LVU905
 3060 0640 346B     		ldr	r4, [r6, #48]
 3061              		.loc 1 1304 13 view .LVU906
 3062 0642 43F48043 		orr	r3, r3, #16384
 3063              	.LBB858:
 3064              	.LBB859:
 3065              		.loc 1 174 5 view .LVU907
 3066 0646 2268     		ldr	r2, [r4]
 3067              	.LBE859:
 3068              	.LBE858:
 3069              		.loc 1 1304 13 view .LVU908
 3070 0648 6B60     		str	r3, [r5, #4]
 3071              		.loc 1 1306 5 is_stmt 1 view .LVU909
ARM GAS  /tmp/ccMh4V5L.s 			page 55


 3072              	.LBB863:
 3073              	.LBI858:
 3074              		.loc 1 157 20 view .LVU910
 3075              	.LVL137:
 3076              	.LBB860:
 3077              		.loc 1 174 5 view .LVU911
 3078 064a 1368     		ldr	r3, [r2]
 3079 064c 23F01F03 		bic	r3, r3, #31
 3080 0650 1360     		str	r3, [r2]
 3081              		.loc 1 174 5 view .LVU912
 3082              	.L127:
 3083              		.loc 1 174 5 view .LVU913
 3084 0652 1368     		ldr	r3, [r2]
 3085 0654 D907     		lsls	r1, r3, #31
 3086 0656 FCD4     		bmi	.L127
 3087              		.loc 1 174 5 view .LVU914
 3088 0658 227B     		ldrb	r2, [r4, #12]	@ zero_extendqisi2
 3089 065a 3D23     		movs	r3, #61
 3090              	.LBE860:
 3091              	.LBE863:
 3092              		.loc 1 1307 5 is_stmt 0 view .LVU915
 3093 065c 716B     		ldr	r1, [r6, #52]
 3094              	.LBB864:
 3095              	.LBB861:
 3096              		.loc 1 174 5 view .LVU916
 3097 065e 9340     		lsls	r3, r3, r2
 3098 0660 6468     		ldr	r4, [r4, #4]
 3099              	.LBE861:
 3100              	.LBE864:
 3101              	.LBB865:
 3102              	.LBB866:
 3103              		.loc 1 196 5 view .LVU917
 3104 0662 0A68     		ldr	r2, [r1]
 3105              	.LBE866:
 3106              	.LBE865:
 3107              	.LBB868:
 3108              	.LBB862:
 3109              		.loc 1 174 5 view .LVU918
 3110 0664 2360     		str	r3, [r4]
 3111              		.loc 1 174 5 is_stmt 1 view .LVU919
 3112              		.loc 1 174 35 view .LVU920
 3113              	.LBE862:
 3114              	.LBE868:
 3115              		.loc 1 1307 5 view .LVU921
 3116              	.LBB869:
 3117              	.LBI865:
 3118              		.loc 1 179 20 view .LVU922
 3119              	.LVL138:
 3120              	.LBB867:
 3121              		.loc 1 196 5 view .LVU923
 3122 0666 1368     		ldr	r3, [r2]
 3123 0668 23F01F03 		bic	r3, r3, #31
 3124 066c 1360     		str	r3, [r2]
 3125              		.loc 1 196 5 view .LVU924
 3126              	.L128:
 3127              		.loc 1 196 5 view .LVU925
 3128 066e 1368     		ldr	r3, [r2]
ARM GAS  /tmp/ccMh4V5L.s 			page 56


 3129 0670 DB07     		lsls	r3, r3, #31
 3130 0672 FCD4     		bmi	.L128
 3131              		.loc 1 196 5 view .LVU926
 3132 0674 0C7B     		ldrb	r4, [r1, #12]	@ zero_extendqisi2
 3133 0676 3D23     		movs	r3, #61
 3134 0678 4A68     		ldr	r2, [r1, #4]
 3135 067a A340     		lsls	r3, r3, r4
 3136 067c 1360     		str	r3, [r2]
 3137              		.loc 1 196 5 view .LVU927
 3138              		.loc 1 196 35 view .LVU928
 3139              	.LBE867:
 3140              	.LBE869:
 3141              		.loc 1 1312 1 is_stmt 0 view .LVU929
 3142 067e BDE8F883 		pop	{r3, r4, r5, r6, r7, r8, r9, pc}
 3143              	.LVL139:
 3144              	.L120:
 3145              	.LBB870:
 3146              	.LBB830:
 3147              		.loc 1 216 5 is_stmt 1 view .LVU930
 3148              	.LBE830:
 3149              	.LBE870:
 3150              	.LBB871:
 3151              	.LBB839:
 3152              		.loc 1 263 5 is_stmt 0 view .LVU931
 3153 0682 376A     		ldr	r7, [r6, #32]
 3154              	.LBE839:
 3155              	.LBE871:
 3156              	.LBB872:
 3157              	.LBB831:
 3158              		.loc 1 216 30 view .LVU932
 3159 0684 4FEA4903 		lsl	r3, r9, #1
 3160              	.LBE831:
 3161              	.LBE872:
 3162              	.LBB873:
 3163              	.LBB840:
 3164              		.loc 1 264 6 view .LVU933
 3165 0688 FF2F     		cmp	r7, #255
 3166              	.LBE840:
 3167              	.LBE873:
 3168              	.LBB874:
 3169              	.LBB832:
 3170              		.loc 1 216 13 view .LVU934
 3171 068a 6360     		str	r3, [r4, #4]
 3172              	.LVL140:
 3173              		.loc 1 216 13 view .LVU935
 3174              	.LBE832:
 3175              	.LBE874:
 3176              		.loc 1 1282 3 is_stmt 1 view .LVU936
 3177              	.LBB875:
 3178              		.loc 1 257 13 view .LVU937
 3179              	.LBB841:
 3180              		.loc 1 258 3 view .LVU938
 3181              		.loc 1 259 3 view .LVU939
 3182              		.loc 1 260 3 view .LVU940
 3183              		.loc 1 263 3 view .LVU941
 3184              		.loc 1 264 3 view .LVU942
 3185              		.loc 1 264 6 is_stmt 0 view .LVU943
ARM GAS  /tmp/ccMh4V5L.s 			page 57


 3186 068c B4D9     		bls	.L140
 3187              	.L125:
 3188              		.loc 1 264 6 view .LVU944
 3189 068e A7F1FF00 		sub	r0, r7, #255
 3190              		.loc 1 266 12 view .LVU945
 3191 0692 4FF0807E 		mov	lr, #16777216
 3192              		.loc 1 264 6 view .LVU946
 3193 0696 4FF47F07 		mov	r7, #16711680
 3194              	.LVL141:
 3195              		.loc 1 264 6 view .LVU947
 3196 069a B0E7     		b	.L126
 3197              	.L142:
 3198              		.align	2
 3199              	.L141:
 3200 069c FFFF00FE 		.word	-33488897
 3201              	.LBE841:
 3202              	.LBE875:
 3203              		.cfi_endproc
 3204              	.LFE378:
 3205              		.size	i2c_lld_master_transmit_timeout, .-i2c_lld_master_transmit_timeout
 3206              		.comm	I2CD1,60,4
 3207              		.section	.rodata
 3208              		.align	2
 3209              		.set	.LANCHOR0,. + 0
 3210              		.type	__func__.11796, %object
 3211              		.size	__func__.11796, 9
 3212              	__func__.11796:
 3213 0000 56656374 		.ascii	"VectorBC\000"
 3213      6F724243 
 3213      00
 3214 0009 000000   		.space	3
 3215              		.type	__func__.11801, %object
 3216              		.size	__func__.11801, 9
 3217              	__func__.11801:
 3218 000c 56656374 		.ascii	"VectorC0\000"
 3218      6F724330 
 3218      00
 3219              		.text
 3220              	.Letext0:
 3221              		.file 9 "/home/nicolas/arm/gcc-arm-none-eabi-8-2019-q3-update/lib/gcc/arm-none-eabi/8.3.1/include/
 3222              		.file 10 "/home/nicolas/arm/gcc-arm-none-eabi-8-2019-q3-update/arm-none-eabi/include/machine/_defa
 3223              		.file 11 "/home/nicolas/arm/gcc-arm-none-eabi-8-2019-q3-update/arm-none-eabi/include/sys/_stdint.h
 3224              		.file 12 "/home/nicolas/arm/gcc-arm-none-eabi-8-2019-q3-update/arm-none-eabi/include/stdint.h"
 3225              		.file 13 "../../../external/ChibiOS/os/common/ports/ARMCMx/compilers/GCC/chtypes.h"
 3226              		.file 14 "../../../external/ChibiOS/os/rt/include/chsystypes.h"
 3227              		.file 15 "../../../external/ChibiOS/os/rt/include/chschd.h"
 3228              		.file 16 "../../../external/ChibiOS/os/common/ext/ARM/CMSIS/Core/Include/core_cm7.h"
 3229              		.file 17 "../../../external/ChibiOS/os/common/ext/ST/STM32H7xx/system_stm32h7xx.h"
 3230              		.file 18 "../../../external/ChibiOS/os/common/ext/ST/STM32H7xx/stm32h753xx.h"
 3231              		.file 19 "../../../external/ChibiOS/os/common/ports/ARMCMx/chcore.h"
 3232              		.file 20 "../../../external/ChibiOS/os/rt/include/chtrace.h"
 3233              		.file 21 "../../../external/ChibiOS/os/rt/include/chtm.h"
 3234              		.file 22 "../../../external/ChibiOS/os/rt/include/chsem.h"
 3235              		.file 23 "../../../external/ChibiOS/os/rt/include/chmtx.h"
 3236              		.file 24 "../../../external/ChibiOS/os/rt/include/chregistry.h"
 3237              		.file 25 "../../../external/ChibiOS/os/rt/include/chevents.h"
 3238              		.file 26 "../../../external/ChibiOS/os/oslib/include/chmemcore.h"
ARM GAS  /tmp/ccMh4V5L.s 			page 58


 3239              		.file 27 "../../../external/ChibiOS/os/oslib/include/chmempools.h"
 3240              		.file 28 "../../../external/ChibiOS/os/oslib/include/chfactory.h"
 3241              		.file 29 "../../../external/ChibiOS/os/hal/ports/STM32/LLD/DMAv2/stm32_dma.h"
 3242              		.file 30 "../../../external/ChibiOS/os/hal/ports/STM32/LLD/BDMAv1/stm32_bdma.h"
 3243              		.file 31 "../../../external/ChibiOS/os/hal/ports/STM32/LLD/TIMv1/stm32_tim.h"
 3244              		.file 32 "../../../external/ChibiOS/os/hal/include/hal_ioblock.h"
 3245              		.file 33 "../../../external/ChibiOS/os/hal/include/hal_queues.h"
 3246              		.file 34 "../../../external/ChibiOS/os/hal/ports/STM32/LLD/GPIOv2/stm32_gpio.h"
 3247              		.file 35 "../../../external/ChibiOS/os/hal/ports/STM32/LLD/GPIOv2/hal_pal_lld.h"
 3248              		.file 36 "../../../external/ChibiOS/os/hal/include/hal_adc.h"
 3249              		.file 37 "../../../external/ChibiOS/os/hal/ports/STM32/LLD/ADCv4/hal_adc_lld.h"
 3250              		.file 38 "../../../external/ChibiOS/os/hal/include/hal_i2c.h"
 3251              		.file 39 "../../../external/ChibiOS/os/hal/ports/STM32/LLD/I2Cv3/hal_i2c_lld.h"
 3252              		.file 40 "../../../external/ChibiOS/os/hal/include/hal_pwm.h"
 3253              		.file 41 "../../../external/ChibiOS/os/hal/ports/STM32/LLD/TIMv1/hal_pwm_lld.h"
 3254              		.file 42 "../../../external/ChibiOS/os/hal/include/hal_serial.h"
 3255              		.file 43 "../../../external/ChibiOS/os/hal/ports/STM32/LLD/USARTv2/hal_serial_lld.h"
 3256              		.file 44 "../../../external/ChibiOS/os/hal/include/hal_sdc.h"
 3257              		.file 45 "../../../external/ChibiOS/os/hal/ports/STM32/LLD/SDMMCv2/hal_sdc_lld.h"
 3258              		.file 46 "../../../external/ChibiOS/os/hal/include/hal_spi.h"
 3259              		.file 47 "../../../external/ChibiOS/os/hal/ports/STM32/LLD/SPIv3/hal_spi_lld.h"
 3260              		.file 48 "../../../external/ChibiOS/os/hal/include/hal_trng.h"
 3261              		.file 49 "../../../external/ChibiOS/os/hal/ports/STM32/LLD/RNGv1/hal_trng_lld.h"
 3262              		.file 50 "../../../external/ChibiOS/os/hal/include/hal_usb.h"
 3263              		.file 51 "../../../external/ChibiOS/os/hal/ports/STM32/LLD/OTGv1/hal_usb_lld.h"
 3264              		.file 52 "../../../external/ChibiOS/os/hal/ports/STM32/LLD/OTGv1/stm32_otg.h"
 3265              		.file 53 "../../../external/ChibiOS-Contrib/os/hal/include/hal_fsmc.h"
 3266              		.file 54 "../../../external/ChibiOS-Contrib/os/hal/include/hal_sdram.h"
 3267              		.file 55 "../../../external/ChibiOS/os/hal/include/hal_st.h"
 3268              		.file 56 "../../../external/ChibiOS/os/rt/include/chthreads.h"
 3269              		.file 57 "../../../external/ChibiOS/os/hal/ports/common/ARMCMx/nvic.h"