ARM GAS  /tmp/ccpnbTSa.s 			page 1


   1              		.cpu cortex-m7
   2              		.eabi_attribute 27, 1
   3              		.eabi_attribute 28, 1
   4              		.eabi_attribute 20, 1
   5              		.eabi_attribute 21, 1
   6              		.eabi_attribute 23, 3
   7              		.eabi_attribute 24, 1
   8              		.eabi_attribute 25, 1
   9              		.eabi_attribute 26, 1
  10              		.eabi_attribute 30, 2
  11              		.eabi_attribute 34, 1
  12              		.eabi_attribute 18, 4
  13              		.file	"hal_usb.c"
  14              		.text
  15              	.Ltext0:
  16              		.cfi_sections	.debug_frame
  17              		.align	1
  18              		.p2align 4,,15
  19              		.global	usbInit
  20              		.arch armv7e-m
  21              		.syntax unified
  22              		.thumb
  23              		.thumb_func
  24              		.fpu fpv4-sp-d16
  25              		.type	usbInit, %function
  26              	usbInit:
  27              	.LFB365:
  28              		.file 1 "../../../external/ChibiOS/os/hal/src/hal_usb.c"
  29              		.loc 1 270 20 view -0
  30              		.cfi_startproc
  31              		@ args = 0, pretend = 0, frame = 0
  32              		@ frame_needed = 0, uses_anonymous_args = 0
  33              		@ link register save eliminated.
  34              		.loc 1 272 3 view .LVU1
  35 0000 FFF7FEBF 		b	usb_lld_init
  36              	.LVL0:
  37              		.cfi_endproc
  38              	.LFE365:
  39              		.size	usbInit, .-usbInit
  40              		.align	1
  41 0004 AFF30080 		.p2align 4,,15
  41      AFF30080 
  41      AFF30080 
  42              		.global	usbObjectInit
  43              		.syntax unified
  44              		.thumb
  45              		.thumb_func
  46              		.fpu fpv4-sp-d16
  47              		.type	usbObjectInit, %function
  48              	usbObjectInit:
  49              	.LVL1:
  50              	.LFB366:
  51              		.loc 1 282 37 view -0
  52              		.cfi_startproc
  53              		@ args = 0, pretend = 0, frame = 0
  54              		@ frame_needed = 0, uses_anonymous_args = 0
  55              		@ link register save eliminated.
ARM GAS  /tmp/ccpnbTSa.s 			page 2


  56              		.loc 1 283 3 view .LVU3
  57              		.loc 1 285 3 view .LVU4
  58              		.loc 1 282 37 is_stmt 0 view .LVU5
  59 0010 30B4     		push	{r4, r5}
  60              		.cfi_def_cfa_offset 8
  61              		.cfi_offset 4, -8
  62              		.cfi_offset 5, -4
  63              		.loc 1 286 22 view .LVU6
  64 0012 0024     		movs	r4, #0
  65              		.loc 1 285 22 view .LVU7
  66 0014 0125     		movs	r5, #1
  67 0016 00F13003 		add	r3, r0, #48
  68 001a 00F15001 		add	r1, r0, #80
  69              		.loc 1 288 25 view .LVU8
  70 001e 2246     		mov	r2, r4
  71              		.loc 1 285 22 view .LVU9
  72 0020 0570     		strb	r5, [r0]
  73              		.loc 1 286 3 is_stmt 1 view .LVU10
  74              		.loc 1 286 22 is_stmt 0 view .LVU11
  75 0022 4460     		str	r4, [r0, #4]
  76              		.loc 1 287 3 is_stmt 1 view .LVU12
  77              	.LVL2:
  78              	.L4:
  79              		.loc 1 288 5 discriminator 3 view .LVU13
  80              		.loc 1 288 25 is_stmt 0 discriminator 3 view .LVU14
  81 0024 43F8042B 		str	r2, [r3], #4
  82              		.loc 1 289 5 is_stmt 1 discriminator 3 view .LVU15
  83              		.loc 1 287 3 is_stmt 0 discriminator 3 view .LVU16
  84 0028 8B42     		cmp	r3, r1
  85              		.loc 1 289 25 discriminator 3 view .LVU17
  86 002a DA61     		str	r2, [r3, #28]
  87              		.loc 1 287 3 discriminator 3 view .LVU18
  88 002c FAD1     		bne	.L4
  89              		.loc 1 291 3 is_stmt 1 view .LVU19
  90              		.loc 1 292 3 view .LVU20
  91              		.loc 1 291 22 is_stmt 0 view .LVU21
  92 002e 8260     		str	r2, [r0, #8]
  93              		.loc 1 293 1 view .LVU22
  94 0030 30BC     		pop	{r4, r5}
  95              		.cfi_restore 5
  96              		.cfi_restore 4
  97              		.cfi_def_cfa_offset 0
  98 0032 7047     		bx	lr
  99              		.cfi_endproc
 100              	.LFE366:
 101              		.size	usbObjectInit, .-usbObjectInit
 102              		.align	1
 103 0034 AFF30080 		.p2align 4,,15
 103      AFF30080 
 103      AFF30080 
 104              		.global	usbStart
 105              		.syntax unified
 106              		.thumb
 107              		.thumb_func
 108              		.fpu fpv4-sp-d16
 109              		.type	usbStart, %function
 110              	usbStart:
ARM GAS  /tmp/ccpnbTSa.s 			page 3


 111              	.LVL3:
 112              	.LFB367:
 113              		.loc 1 303 57 is_stmt 1 view -0
 114              		.cfi_startproc
 115              		@ args = 0, pretend = 0, frame = 0
 116              		@ frame_needed = 0, uses_anonymous_args = 0
 117              		.loc 1 304 3 view .LVU24
 118              		.loc 1 306 3 view .LVU25
 119              		.loc 1 306 3 view .LVU26
 120              		.loc 1 308 3 view .LVU27
 121              	.LBB309:
 122              	.LBI309:
 123              		.file 2 "../../../external/ChibiOS/os/hal/osal/rt-nil/osal.h"
 124              		.loc 2 509 20 view .LVU28
 125              	.LBE309:
 126              		.loc 2 511 3 view .LVU29
 127              	.LBB321:
 128              	.LBB310:
 129              	.LBI310:
 130              		.file 3 "../../../external/ChibiOS/os/rt/include/chsys.h"
 131              		.loc 3 353 20 view .LVU30
 132              	.LBE310:
 133              	.LBE321:
 134              		.loc 3 355 3 view .LVU31
 135              	.LBB322:
 136              	.LBB318:
 137              	.LBB311:
 138              	.LBI311:
 139              		.file 4 "../../../external/ChibiOS/os/common/ports/ARMCMx/chcore_v7m.h"
 140              		.loc 4 669 27 view .LVU32
 141              	.LBE311:
 142              	.LBE318:
 143              	.LBE322:
 144              		.loc 4 677 3 view .LVU33
 145              	.LBB323:
 146              	.LBB319:
 147              	.LBB316:
 148              	.LBB312:
 149              	.LBI312:
 150              		.file 5 "../../../external/ChibiOS/os/common/ext/ARM/CMSIS/Core/Include/cmsis_gcc.h"
 151              		.loc 5 491 27 view .LVU34
 152              	.LBB313:
 153              		.loc 5 493 3 view .LVU35
 154              	.LBE313:
 155              	.LBE312:
 156              	.LBE316:
 157              	.LBE319:
 158              	.LBE323:
 159              		.loc 1 303 57 is_stmt 0 view .LVU36
 160 0040 38B5     		push	{r3, r4, r5, lr}
 161              		.cfi_def_cfa_offset 16
 162              		.cfi_offset 3, -16
 163              		.cfi_offset 4, -12
 164              		.cfi_offset 5, -8
 165              		.cfi_offset 14, -4
 166              		.loc 1 303 57 view .LVU37
 167 0042 0546     		mov	r5, r0
ARM GAS  /tmp/ccpnbTSa.s 			page 4


 168              	.LBB324:
 169              	.LBB320:
 170              	.LBB317:
 171              	.LBB315:
 172              	.LBB314:
 173              		.loc 5 493 3 view .LVU38
 174 0044 2023     		movs	r3, #32
 175              		.syntax unified
 176              	@ 493 "../../../external/ChibiOS/os/common/ext/ARM/CMSIS/Core/Include/cmsis_gcc.h" 1
 177 0046 83F31188 		MSR basepri, r3
 178              	@ 0 "" 2
 179              	.LVL4:
 180              		.loc 5 493 3 view .LVU39
 181              		.thumb
 182              		.syntax unified
 183              	.LBE314:
 184              	.LBE315:
 185              	.LBE317:
 186              	.LBE320:
 187              	.LBE324:
 188              		.loc 3 356 34 is_stmt 1 view .LVU40
 189              		.loc 3 357 20 view .LVU41
 190              		.loc 1 309 3 view .LVU42
 191              		.loc 1 309 3 view .LVU43
 192              		.loc 1 311 3 view .LVU44
 193              		.loc 1 313 18 is_stmt 0 view .LVU45
 194 004a 0024     		movs	r4, #0
 195 004c 00F10803 		add	r3, r0, #8
 196 0050 00F12C02 		add	r2, r0, #44
 197              		.loc 1 311 16 view .LVU46
 198 0054 4160     		str	r1, [r0, #4]
 199              		.loc 1 312 3 is_stmt 1 view .LVU47
 200              	.LVL5:
 201              	.L8:
 202              		.loc 1 313 5 discriminator 3 view .LVU48
 203              		.loc 1 313 18 is_stmt 0 discriminator 3 view .LVU49
 204 0056 43F8044F 		str	r4, [r3, #4]!
 205              		.loc 1 312 3 discriminator 3 view .LVU50
 206 005a 9342     		cmp	r3, r2
 207 005c FBD1     		bne	.L8
 208              		.loc 1 315 3 is_stmt 1 view .LVU51
 209 005e 2846     		mov	r0, r5
 210              	.LVL6:
 211              		.loc 1 315 3 is_stmt 0 view .LVU52
 212 0060 FFF7FEFF 		bl	usb_lld_start
 213              	.LVL7:
 214              		.loc 1 316 3 is_stmt 1 view .LVU53
 215              		.loc 1 316 15 is_stmt 0 view .LVU54
 216 0064 0223     		movs	r3, #2
 217 0066 2B70     		strb	r3, [r5]
 218              		.loc 1 317 3 is_stmt 1 view .LVU55
 219              	.LBB325:
 220              	.LBI325:
 221              		.loc 2 520 20 view .LVU56
 222              	.LBE325:
 223              		.loc 2 522 3 view .LVU57
 224              	.LBB334:
ARM GAS  /tmp/ccpnbTSa.s 			page 5


 225              	.LBB326:
 226              	.LBI326:
 227              		.loc 3 365 20 view .LVU58
 228              	.LBB327:
 229              		.loc 3 367 22 view .LVU59
 230              		.loc 3 368 33 view .LVU60
 231              		.loc 3 374 3 view .LVU61
 232              		.loc 3 374 3 view .LVU62
 233              		.loc 3 378 3 view .LVU63
 234              	.LBB328:
 235              	.LBI328:
 236              		.loc 4 693 27 view .LVU64
 237              	.LBE328:
 238              	.LBE327:
 239              	.LBE326:
 240              	.LBE334:
 241              		.loc 4 696 3 view .LVU65
 242              	.LVL8:
 243              	.LBB335:
 244              	.LBB333:
 245              	.LBB332:
 246              	.LBB331:
 247              	.LBB329:
 248              	.LBI329:
 249              		.loc 5 491 27 view .LVU66
 250              	.LBB330:
 251              		.loc 5 493 3 view .LVU67
 252              		.syntax unified
 253              	@ 493 "../../../external/ChibiOS/os/common/ext/ARM/CMSIS/Core/Include/cmsis_gcc.h" 1
 254 0068 84F31188 		MSR basepri, r4
 255              	@ 0 "" 2
 256              	.LVL9:
 257              		.loc 5 493 3 is_stmt 0 view .LVU68
 258              		.thumb
 259              		.syntax unified
 260              	.LBE330:
 261              	.LBE329:
 262              	.LBE331:
 263              	.LBE332:
 264              	.LBE333:
 265              	.LBE335:
 266              		.loc 1 318 1 view .LVU69
 267 006c 38BD     		pop	{r3, r4, r5, pc}
 268              		.loc 1 318 1 view .LVU70
 269              		.cfi_endproc
 270              	.LFE367:
 271              		.size	usbStart, .-usbStart
 272              		.align	1
 273 006e 00BF     		.p2align 4,,15
 274              		.global	usbStop
 275              		.syntax unified
 276              		.thumb
 277              		.thumb_func
 278              		.fpu fpv4-sp-d16
 279              		.type	usbStop, %function
 280              	usbStop:
 281              	.LVL10:
ARM GAS  /tmp/ccpnbTSa.s 			page 6


 282              	.LFB368:
 283              		.loc 1 327 31 is_stmt 1 view -0
 284              		.cfi_startproc
 285              		@ args = 0, pretend = 0, frame = 0
 286              		@ frame_needed = 0, uses_anonymous_args = 0
 287              		.loc 1 328 3 view .LVU72
 288              		.loc 1 330 3 view .LVU73
 289              		.loc 1 330 3 view .LVU74
 290              		.loc 1 332 3 view .LVU75
 291              	.LBB336:
 292              	.LBI336:
 293              		.loc 2 509 20 view .LVU76
 294              	.LBE336:
 295              		.loc 2 511 3 view .LVU77
 296              	.LBB348:
 297              	.LBB337:
 298              	.LBI337:
 299              		.loc 3 353 20 view .LVU78
 300              	.LBE337:
 301              	.LBE348:
 302              		.loc 3 355 3 view .LVU79
 303              	.LBB349:
 304              	.LBB345:
 305              	.LBB338:
 306              	.LBI338:
 307              		.loc 4 669 27 view .LVU80
 308              	.LBE338:
 309              	.LBE345:
 310              	.LBE349:
 311              		.loc 4 677 3 view .LVU81
 312              	.LBB350:
 313              	.LBB346:
 314              	.LBB343:
 315              	.LBB339:
 316              	.LBI339:
 317              		.loc 5 491 27 view .LVU82
 318              	.LBB340:
 319              		.loc 5 493 3 view .LVU83
 320              	.LBE340:
 321              	.LBE339:
 322              	.LBE343:
 323              	.LBE346:
 324              	.LBE350:
 325              		.loc 1 327 31 is_stmt 0 view .LVU84
 326 0070 F8B5     		push	{r3, r4, r5, r6, r7, lr}
 327              		.cfi_def_cfa_offset 24
 328              		.cfi_offset 3, -24
 329              		.cfi_offset 4, -20
 330              		.cfi_offset 5, -16
 331              		.cfi_offset 6, -12
 332              		.cfi_offset 7, -8
 333              		.cfi_offset 14, -4
 334              		.loc 1 327 31 view .LVU85
 335 0072 0746     		mov	r7, r0
 336              	.LBB351:
 337              	.LBB347:
 338              	.LBB344:
ARM GAS  /tmp/ccpnbTSa.s 			page 7


 339              	.LBB342:
 340              	.LBB341:
 341              		.loc 5 493 3 view .LVU86
 342 0074 2023     		movs	r3, #32
 343              		.syntax unified
 344              	@ 493 "../../../external/ChibiOS/os/common/ext/ARM/CMSIS/Core/Include/cmsis_gcc.h" 1
 345 0076 83F31188 		MSR basepri, r3
 346              	@ 0 "" 2
 347              	.LVL11:
 348              		.loc 5 493 3 view .LVU87
 349              		.thumb
 350              		.syntax unified
 351              	.LBE341:
 352              	.LBE342:
 353              	.LBE344:
 354              	.LBE347:
 355              	.LBE351:
 356              		.loc 3 356 34 is_stmt 1 view .LVU88
 357              		.loc 3 357 20 view .LVU89
 358              		.loc 1 334 3 view .LVU90
 359              		.loc 1 334 3 view .LVU91
 360              		.loc 1 339 3 view .LVU92
 361 007a FFF7FEFF 		bl	usb_lld_stop
 362              	.LVL12:
 363              		.loc 1 340 3 view .LVU93
 364              		.loc 1 340 16 is_stmt 0 view .LVU94
 365 007e 0023     		movs	r3, #0
 366              		.loc 1 341 16 view .LVU95
 367 0080 3C46     		mov	r4, r7
 368 0082 0122     		movs	r2, #1
 369 0084 07F12C06 		add	r6, r7, #44
 370              		.loc 1 355 18 view .LVU96
 371 0088 1D46     		mov	r5, r3
 372              		.loc 1 340 16 view .LVU97
 373 008a 7B60     		str	r3, [r7, #4]
 374              		.loc 1 341 3 is_stmt 1 view .LVU98
 375              		.loc 1 341 16 is_stmt 0 view .LVU99
 376 008c 04F8082B 		strb	r2, [r4], #8
 377              		.loc 1 344 3 is_stmt 1 view .LVU100
 378              	.LVL13:
 379              	.L16:
 380              		.loc 1 346 5 view .LVU101
 381              		.loc 1 347 7 view .LVU102
 382              		.loc 1 346 18 is_stmt 0 view .LVU103
 383 0090 54F8043F 		ldr	r3, [r4, #4]!
 384              		.loc 1 346 8 view .LVU104
 385 0094 83B1     		cbz	r3, .L13
 386              		.loc 1 348 9 is_stmt 1 view .LVU105
 387              		.loc 1 347 23 is_stmt 0 view .LVU106
 388 0096 5A69     		ldr	r2, [r3, #20]
 389              	.LVL14:
 390              	.LBB352:
 391              	.LBI352:
 392              		.loc 2 773 20 is_stmt 1 view .LVU107
 393              	.LBB353:
 394              		.loc 2 775 3 view .LVU108
 395 0098 6FF00101 		mvn	r1, #1
ARM GAS  /tmp/ccpnbTSa.s 			page 8


 396 009c 02F10C00 		add	r0, r2, #12
 397              	.LVL15:
 398              		.loc 2 775 3 is_stmt 0 view .LVU109
 399              	.LBE353:
 400              	.LBE352:
 401              		.loc 1 347 10 view .LVU110
 402 00a0 12B1     		cbz	r2, .L14
 403              	.LBB355:
 404              	.LBB354:
 405              		.loc 2 775 3 view .LVU111
 406 00a2 FFF7FEFF 		bl	chThdResumeI
 407              	.LVL16:
 408              		.loc 2 775 3 view .LVU112
 409 00a6 2368     		ldr	r3, [r4]
 410              	.L14:
 411              	.LBE354:
 412              	.LBE355:
 413              		.loc 1 350 7 is_stmt 1 view .LVU113
 414              		.loc 1 351 9 view .LVU114
 415              		.loc 1 350 23 is_stmt 0 view .LVU115
 416 00a8 9B69     		ldr	r3, [r3, #24]
 417              	.LVL17:
 418              	.LBB356:
 419              	.LBI356:
 420              		.loc 2 773 20 is_stmt 1 view .LVU116
 421              	.LBB357:
 422              		.loc 2 775 3 view .LVU117
 423 00aa 6FF00101 		mvn	r1, #1
 424 00ae 03F10C00 		add	r0, r3, #12
 425              	.LVL18:
 426              		.loc 2 775 3 is_stmt 0 view .LVU118
 427              	.LBE357:
 428              	.LBE356:
 429              		.loc 1 350 10 view .LVU119
 430 00b2 0BB1     		cbz	r3, .L13
 431              	.LBB359:
 432              	.LBB358:
 433              		.loc 2 775 3 view .LVU120
 434 00b4 FFF7FEFF 		bl	chThdResumeI
 435              	.LVL19:
 436              	.L13:
 437              		.loc 2 775 3 view .LVU121
 438              	.LBE358:
 439              	.LBE359:
 440              		.loc 1 355 5 is_stmt 1 discriminator 2 view .LVU122
 441              		.loc 1 344 3 is_stmt 0 discriminator 2 view .LVU123
 442 00b8 B442     		cmp	r4, r6
 443              		.loc 1 355 18 discriminator 2 view .LVU124
 444 00ba 2560     		str	r5, [r4]
 445              		.loc 1 344 3 discriminator 2 view .LVU125
 446 00bc E8D1     		bne	.L16
 447              		.loc 1 357 3 is_stmt 1 view .LVU126
 448              	.LBB360:
 449              	.LBI360:
 450              		.loc 2 616 20 view .LVU127
 451              	.LBB361:
 452              		.loc 2 618 3 view .LVU128
ARM GAS  /tmp/ccpnbTSa.s 			page 9


 453 00be FFF7FEFF 		bl	chSchRescheduleS
 454              	.LVL20:
 455              	.LBE361:
 456              	.LBE360:
 457              		.loc 1 359 3 view .LVU129
 458              	.LBB362:
 459              	.LBI362:
 460              		.loc 2 520 20 view .LVU130
 461              	.LBE362:
 462              		.loc 2 522 3 view .LVU131
 463              	.LBB371:
 464              	.LBB363:
 465              	.LBI363:
 466              		.loc 3 365 20 view .LVU132
 467              	.LBB364:
 468              		.loc 3 367 22 view .LVU133
 469              		.loc 3 368 33 view .LVU134
 470              		.loc 3 374 3 view .LVU135
 471              		.loc 3 374 3 view .LVU136
 472              		.loc 3 378 3 view .LVU137
 473              	.LBB365:
 474              	.LBI365:
 475              		.loc 4 693 27 view .LVU138
 476              	.LBE365:
 477              	.LBE364:
 478              	.LBE363:
 479              	.LBE371:
 480              		.loc 4 696 3 view .LVU139
 481              	.LBB372:
 482              	.LBB370:
 483              	.LBB369:
 484              	.LBB368:
 485              	.LBB366:
 486              	.LBI366:
 487              		.loc 5 491 27 view .LVU140
 488              	.LBB367:
 489              		.loc 5 493 3 view .LVU141
 490              		.syntax unified
 491              	@ 493 "../../../external/ChibiOS/os/common/ext/ARM/CMSIS/Core/Include/cmsis_gcc.h" 1
 492 00c2 85F31188 		MSR basepri, r5
 493              	@ 0 "" 2
 494              	.LVL21:
 495              		.loc 5 493 3 is_stmt 0 view .LVU142
 496              		.thumb
 497              		.syntax unified
 498              	.LBE367:
 499              	.LBE366:
 500              	.LBE368:
 501              	.LBE369:
 502              	.LBE370:
 503              	.LBE372:
 504              		.loc 1 360 1 view .LVU143
 505 00c6 F8BD     		pop	{r3, r4, r5, r6, r7, pc}
 506              		.loc 1 360 1 view .LVU144
 507              		.cfi_endproc
 508              	.LFE368:
 509              		.size	usbStop, .-usbStop
ARM GAS  /tmp/ccpnbTSa.s 			page 10


 510              		.align	1
 511 00c8 AFF30080 		.p2align 4,,15
 511      AFF30080 
 512              		.global	usbInitEndpointI
 513              		.syntax unified
 514              		.thumb
 515              		.thumb_func
 516              		.fpu fpv4-sp-d16
 517              		.type	usbInitEndpointI, %function
 518              	usbInitEndpointI:
 519              	.LVL22:
 520              	.LFB369:
 521              		.loc 1 376 54 is_stmt 1 view -0
 522              		.cfi_startproc
 523              		@ args = 0, pretend = 0, frame = 0
 524              		@ frame_needed = 0, uses_anonymous_args = 0
 525              		@ link register save eliminated.
 526              		.loc 1 378 23 view .LVU146
 527              		.loc 1 379 3 view .LVU147
 528              		.loc 1 379 3 view .LVU148
 529              		.loc 1 380 3 view .LVU149
 530              		.loc 1 380 3 view .LVU150
 531              		.loc 1 382 3 view .LVU151
 532              		.loc 1 382 3 view .LVU152
 533              		.loc 1 385 3 view .LVU153
 534              		.loc 1 376 54 is_stmt 0 view .LVU154
 535 00d0 10B4     		push	{r4}
 536              		.cfi_def_cfa_offset 4
 537              		.cfi_offset 4, -4
 538              		.loc 1 388 11 view .LVU155
 539 00d2 5369     		ldr	r3, [r2, #20]
 540              		.loc 1 385 17 view .LVU156
 541 00d4 00EB8104 		add	r4, r0, r1, lsl #2
 542 00d8 E260     		str	r2, [r4, #12]
 543              		.loc 1 388 3 is_stmt 1 view .LVU157
 544              		.loc 1 388 6 is_stmt 0 view .LVU158
 545 00da 2BB1     		cbz	r3, .L26
 546              		.loc 1 389 5 is_stmt 1 view .LVU159
 547 00dc 0024     		movs	r4, #0
 548 00de 1C60     		str	r4, [r3]	@ unaligned
 549 00e0 5C60     		str	r4, [r3, #4]	@ unaligned
 550 00e2 9C60     		str	r4, [r3, #8]	@ unaligned
 551 00e4 DC60     		str	r4, [r3, #12]	@ unaligned
 552 00e6 1C61     		str	r4, [r3, #16]	@ unaligned
 553              	.L26:
 554              		.loc 1 391 3 view .LVU160
 555              		.loc 1 391 11 is_stmt 0 view .LVU161
 556 00e8 9369     		ldr	r3, [r2, #24]
 557              		.loc 1 391 6 view .LVU162
 558 00ea 2BB1     		cbz	r3, .L27
 559              		.loc 1 392 5 is_stmt 1 view .LVU163
 560 00ec 0022     		movs	r2, #0
 561              	.LVL23:
 562              		.loc 1 392 5 is_stmt 0 view .LVU164
 563 00ee 1A60     		str	r2, [r3]	@ unaligned
 564 00f0 5A60     		str	r2, [r3, #4]	@ unaligned
 565 00f2 9A60     		str	r2, [r3, #8]	@ unaligned
ARM GAS  /tmp/ccpnbTSa.s 			page 11


 566 00f4 DA60     		str	r2, [r3, #12]	@ unaligned
 567 00f6 1A61     		str	r2, [r3, #16]	@ unaligned
 568              	.L27:
 569              		.loc 1 396 3 is_stmt 1 view .LVU165
 570              		.loc 1 397 1 is_stmt 0 view .LVU166
 571 00f8 5DF8044B 		ldr	r4, [sp], #4
 572              		.cfi_restore 4
 573              		.cfi_def_cfa_offset 0
 574              		.loc 1 396 3 view .LVU167
 575 00fc FFF7FEBF 		b	usb_lld_init_endpoint
 576              	.LVL24:
 577              		.loc 1 396 3 view .LVU168
 578              		.cfi_endproc
 579              	.LFE369:
 580              		.size	usbInitEndpointI, .-usbInitEndpointI
 581              		.align	1
 582              		.p2align 4,,15
 583              		.global	usbDisableEndpointsI
 584              		.syntax unified
 585              		.thumb
 586              		.thumb_func
 587              		.fpu fpv4-sp-d16
 588              		.type	usbDisableEndpointsI, %function
 589              	usbDisableEndpointsI:
 590              	.LVL25:
 591              	.LFB370:
 592              		.loc 1 410 44 is_stmt 1 view -0
 593              		.cfi_startproc
 594              		@ args = 0, pretend = 0, frame = 0
 595              		@ frame_needed = 0, uses_anonymous_args = 0
 596              		.loc 1 411 3 view .LVU170
 597              		.loc 1 413 23 view .LVU171
 598              		.loc 1 414 3 view .LVU172
 599              		.loc 1 414 3 view .LVU173
 600              		.loc 1 415 3 view .LVU174
 601              		.loc 1 415 3 view .LVU175
 602              		.loc 1 417 3 view .LVU176
 603              		.loc 1 418 3 view .LVU177
 604              		.loc 1 410 44 is_stmt 0 view .LVU178
 605 0100 F8B5     		push	{r3, r4, r5, r6, r7, lr}
 606              		.cfi_def_cfa_offset 24
 607              		.cfi_offset 3, -24
 608              		.cfi_offset 4, -20
 609              		.cfi_offset 5, -16
 610              		.cfi_offset 6, -12
 611              		.cfi_offset 7, -8
 612              		.cfi_offset 14, -4
 613              		.loc 1 417 22 view .LVU179
 614 0102 8368     		ldr	r3, [r0, #8]
 615              		.loc 1 410 44 view .LVU180
 616 0104 0746     		mov	r7, r0
 617              		.loc 1 432 18 view .LVU181
 618 0106 0026     		movs	r6, #0
 619 0108 00F11004 		add	r4, r0, #16
 620              		.loc 1 417 22 view .LVU182
 621 010c 03F00113 		and	r3, r3, #65537
 622 0110 00F13005 		add	r5, r0, #48
ARM GAS  /tmp/ccpnbTSa.s 			page 12


 623 0114 8360     		str	r3, [r0, #8]
 624              		.loc 1 420 3 is_stmt 1 view .LVU183
 625              	.LVL26:
 626              	.L40:
 627              		.loc 1 423 5 view .LVU184
 628              		.loc 1 424 7 view .LVU185
 629              		.loc 1 423 18 is_stmt 0 view .LVU186
 630 0116 54F8043B 		ldr	r3, [r4], #4
 631              		.loc 1 423 8 view .LVU187
 632 011a 8BB1     		cbz	r3, .L37
 633              		.loc 1 425 9 is_stmt 1 view .LVU188
 634              		.loc 1 424 23 is_stmt 0 view .LVU189
 635 011c 5A69     		ldr	r2, [r3, #20]
 636              	.LVL27:
 637              	.LBB373:
 638              	.LBI373:
 639              		.loc 2 773 20 is_stmt 1 view .LVU190
 640              	.LBB374:
 641              		.loc 2 775 3 view .LVU191
 642 011e 6FF00101 		mvn	r1, #1
 643 0122 02F10C00 		add	r0, r2, #12
 644              	.LVL28:
 645              		.loc 2 775 3 is_stmt 0 view .LVU192
 646              	.LBE374:
 647              	.LBE373:
 648              		.loc 1 424 10 view .LVU193
 649 0126 1AB1     		cbz	r2, .L38
 650              	.LBB376:
 651              	.LBB375:
 652              		.loc 2 775 3 view .LVU194
 653 0128 FFF7FEFF 		bl	chThdResumeI
 654              	.LVL29:
 655              		.loc 2 775 3 view .LVU195
 656 012c 54F8043C 		ldr	r3, [r4, #-4]
 657              	.L38:
 658              	.LBE375:
 659              	.LBE376:
 660              		.loc 1 427 7 is_stmt 1 view .LVU196
 661              		.loc 1 428 9 view .LVU197
 662              		.loc 1 427 23 is_stmt 0 view .LVU198
 663 0130 9B69     		ldr	r3, [r3, #24]
 664              	.LVL30:
 665              	.LBB377:
 666              	.LBI377:
 667              		.loc 2 773 20 is_stmt 1 view .LVU199
 668              	.LBB378:
 669              		.loc 2 775 3 view .LVU200
 670 0132 6FF00101 		mvn	r1, #1
 671 0136 03F10C00 		add	r0, r3, #12
 672              	.LVL31:
 673              		.loc 2 775 3 is_stmt 0 view .LVU201
 674              	.LBE378:
 675              	.LBE377:
 676              		.loc 1 427 10 view .LVU202
 677 013a 0BB1     		cbz	r3, .L37
 678              	.LBB380:
 679              	.LBB379:
ARM GAS  /tmp/ccpnbTSa.s 			page 13


 680              		.loc 2 775 3 view .LVU203
 681 013c FFF7FEFF 		bl	chThdResumeI
 682              	.LVL32:
 683              	.L37:
 684              		.loc 2 775 3 view .LVU204
 685              	.LBE379:
 686              	.LBE380:
 687              		.loc 1 432 5 is_stmt 1 discriminator 2 view .LVU205
 688              		.loc 1 420 3 is_stmt 0 discriminator 2 view .LVU206
 689 0140 AC42     		cmp	r4, r5
 690              		.loc 1 432 18 discriminator 2 view .LVU207
 691 0142 44F8046C 		str	r6, [r4, #-4]
 692              		.loc 1 420 3 discriminator 2 view .LVU208
 693 0146 E6D1     		bne	.L40
 694              		.loc 1 436 3 is_stmt 1 view .LVU209
 695 0148 3846     		mov	r0, r7
 696              		.loc 1 437 1 is_stmt 0 view .LVU210
 697 014a BDE8F840 		pop	{r3, r4, r5, r6, r7, lr}
 698              		.cfi_restore 14
 699              		.cfi_restore 7
 700              		.cfi_restore 6
 701              		.cfi_restore 5
 702              		.cfi_restore 4
 703              		.cfi_restore 3
 704              		.cfi_def_cfa_offset 0
 705              	.LVL33:
 706              		.loc 1 436 3 view .LVU211
 707 014e FFF7FEBF 		b	usb_lld_disable_endpoints
 708              	.LVL34:
 709              		.loc 1 436 3 view .LVU212
 710              		.cfi_endproc
 711              	.LFE370:
 712              		.size	usbDisableEndpointsI, .-usbDisableEndpointsI
 713              		.align	1
 714 0152 00BFAFF3 		.p2align 4,,15
 714      0080AFF3 
 714      0080AFF3 
 714      0080
 715              		.global	usbStartReceiveI
 716              		.syntax unified
 717              		.thumb
 718              		.thumb_func
 719              		.fpu fpv4-sp-d16
 720              		.type	usbStartReceiveI, %function
 721              	usbStartReceiveI:
 722              	.LVL35:
 723              	.LFB371:
 724              		.loc 1 454 47 is_stmt 1 view -0
 725              		.cfi_startproc
 726              		@ args = 0, pretend = 0, frame = 0
 727              		@ frame_needed = 0, uses_anonymous_args = 0
 728              		.loc 1 455 3 view .LVU214
 729              		.loc 1 457 23 view .LVU215
 730              		.loc 1 458 3 view .LVU216
 731              		.loc 1 458 3 view .LVU217
 732              		.loc 1 459 3 view .LVU218
 733              		.loc 1 459 3 view .LVU219
ARM GAS  /tmp/ccpnbTSa.s 			page 14


 734              		.loc 1 462 3 view .LVU220
 735              		.loc 1 454 47 is_stmt 0 view .LVU221
 736 0160 F0B5     		push	{r4, r5, r6, r7, lr}
 737              		.cfi_def_cfa_offset 20
 738              		.cfi_offset 4, -20
 739              		.cfi_offset 5, -16
 740              		.cfi_offset 6, -12
 741              		.cfi_offset 7, -8
 742              		.cfi_offset 14, -4
 743              		.loc 1 466 18 view .LVU222
 744 0162 00EB810E 		add	lr, r0, r1, lsl #2
 745              		.loc 1 462 46 view .LVU223
 746 0166 0124     		movs	r4, #1
 747              		.loc 1 462 19 view .LVU224
 748 0168 B0F80AC0 		ldrh	ip, [r0, #10]
 749              		.loc 1 470 15 view .LVU225
 750 016c 0027     		movs	r7, #0
 751              		.loc 1 466 7 view .LVU226
 752 016e DEF80C50 		ldr	r5, [lr, #12]
 753              		.loc 1 462 46 view .LVU227
 754 0172 8C40     		lsls	r4, r4, r1
 755              		.loc 1 466 7 view .LVU228
 756 0174 AD69     		ldr	r5, [r5, #24]
 757              		.loc 1 462 19 view .LVU229
 758 0176 44EA0C04 		orr	r4, r4, ip
 759 017a 4481     		strh	r4, [r0, #10]	@ movhi
 760              		.loc 1 466 3 is_stmt 1 view .LVU230
 761              	.LVL36:
 762              		.loc 1 468 3 view .LVU231
 763              		.loc 1 468 15 is_stmt 0 view .LVU232
 764 017c AA60     		str	r2, [r5, #8]
 765              		.loc 1 469 3 is_stmt 1 view .LVU233
 766              		.loc 1 472 15 is_stmt 0 view .LVU234
 767 017e EF60     		str	r7, [r5, #12]
 768              		.loc 1 470 15 view .LVU235
 769 0180 C5E90037 		strd	r3, r7, [r5]
 770              		.loc 1 472 3 is_stmt 1 view .LVU236
 771              		.loc 1 476 3 view .LVU237
 772              		.loc 1 477 1 is_stmt 0 view .LVU238
 773 0184 BDE8F040 		pop	{r4, r5, r6, r7, lr}
 774              		.cfi_restore 14
 775              		.cfi_restore 7
 776              		.cfi_restore 6
 777              		.cfi_restore 5
 778              		.cfi_restore 4
 779              		.cfi_def_cfa_offset 0
 780              	.LVL37:
 781              		.loc 1 476 3 view .LVU239
 782 0188 FFF7FEBF 		b	usb_lld_start_out
 783              	.LVL38:
 784              		.loc 1 476 3 view .LVU240
 785              		.cfi_endproc
 786              	.LFE371:
 787              		.size	usbStartReceiveI, .-usbStartReceiveI
 788              		.align	1
 789 018c AFF30080 		.p2align 4,,15
 790              		.global	usbStartTransmitI
ARM GAS  /tmp/ccpnbTSa.s 			page 15


 791              		.syntax unified
 792              		.thumb
 793              		.thumb_func
 794              		.fpu fpv4-sp-d16
 795              		.type	usbStartTransmitI, %function
 796              	usbStartTransmitI:
 797              	.LVL39:
 798              	.LFB372:
 799              		.loc 1 493 54 is_stmt 1 view -0
 800              		.cfi_startproc
 801              		@ args = 0, pretend = 0, frame = 0
 802              		@ frame_needed = 0, uses_anonymous_args = 0
 803              		.loc 1 494 3 view .LVU242
 804              		.loc 1 496 23 view .LVU243
 805              		.loc 1 497 3 view .LVU244
 806              		.loc 1 497 3 view .LVU245
 807              		.loc 1 498 3 view .LVU246
 808              		.loc 1 498 3 view .LVU247
 809              		.loc 1 501 3 view .LVU248
 810              		.loc 1 493 54 is_stmt 0 view .LVU249
 811 0190 F0B5     		push	{r4, r5, r6, r7, lr}
 812              		.cfi_def_cfa_offset 20
 813              		.cfi_offset 4, -20
 814              		.cfi_offset 5, -16
 815              		.cfi_offset 6, -12
 816              		.cfi_offset 7, -8
 817              		.cfi_offset 14, -4
 818              		.loc 1 505 18 view .LVU250
 819 0192 00EB810E 		add	lr, r0, r1, lsl #2
 820              		.loc 1 501 49 view .LVU251
 821 0196 0124     		movs	r4, #1
 822              		.loc 1 501 22 view .LVU252
 823 0198 B0F808C0 		ldrh	ip, [r0, #8]
 824              		.loc 1 509 15 view .LVU253
 825 019c 0027     		movs	r7, #0
 826              		.loc 1 505 7 view .LVU254
 827 019e DEF80C50 		ldr	r5, [lr, #12]
 828              		.loc 1 501 49 view .LVU255
 829 01a2 8C40     		lsls	r4, r4, r1
 830              		.loc 1 505 7 view .LVU256
 831 01a4 6D69     		ldr	r5, [r5, #20]
 832              		.loc 1 501 22 view .LVU257
 833 01a6 44EA0C04 		orr	r4, r4, ip
 834 01aa 0481     		strh	r4, [r0, #8]	@ movhi
 835              		.loc 1 505 3 is_stmt 1 view .LVU258
 836              	.LVL40:
 837              		.loc 1 507 3 view .LVU259
 838              		.loc 1 507 15 is_stmt 0 view .LVU260
 839 01ac AA60     		str	r2, [r5, #8]
 840              		.loc 1 508 3 is_stmt 1 view .LVU261
 841              		.loc 1 511 15 is_stmt 0 view .LVU262
 842 01ae EF60     		str	r7, [r5, #12]
 843              		.loc 1 509 15 view .LVU263
 844 01b0 C5E90037 		strd	r3, r7, [r5]
 845              		.loc 1 511 3 is_stmt 1 view .LVU264
 846              		.loc 1 515 3 view .LVU265
 847              		.loc 1 516 1 is_stmt 0 view .LVU266
ARM GAS  /tmp/ccpnbTSa.s 			page 16


 848 01b4 BDE8F040 		pop	{r4, r5, r6, r7, lr}
 849              		.cfi_restore 14
 850              		.cfi_restore 7
 851              		.cfi_restore 6
 852              		.cfi_restore 5
 853              		.cfi_restore 4
 854              		.cfi_def_cfa_offset 0
 855              	.LVL41:
 856              		.loc 1 515 3 view .LVU267
 857 01b8 FFF7FEBF 		b	usb_lld_start_in
 858              	.LVL42:
 859              		.loc 1 515 3 view .LVU268
 860              		.cfi_endproc
 861              	.LFE372:
 862              		.size	usbStartTransmitI, .-usbStartTransmitI
 863              		.align	1
 864 01bc AFF30080 		.p2align 4,,15
 865              		.global	usbReceive
 866              		.syntax unified
 867              		.thumb
 868              		.thumb_func
 869              		.fpu fpv4-sp-d16
 870              		.type	usbReceive, %function
 871              	usbReceive:
 872              	.LVL43:
 873              	.LFB373:
 874              		.loc 1 536 71 is_stmt 1 view -0
 875              		.cfi_startproc
 876              		@ args = 0, pretend = 0, frame = 0
 877              		@ frame_needed = 0, uses_anonymous_args = 0
 878              		.loc 1 537 3 view .LVU270
 879              		.loc 1 539 3 view .LVU271
 880              	.LBB381:
 881              	.LBI381:
 882              		.loc 2 509 20 view .LVU272
 883              	.LBE381:
 884              		.loc 2 511 3 view .LVU273
 885              	.LBB393:
 886              	.LBB382:
 887              	.LBI382:
 888              		.loc 3 353 20 view .LVU274
 889              	.LBE382:
 890              	.LBE393:
 891              		.loc 3 355 3 view .LVU275
 892              	.LBB394:
 893              	.LBB390:
 894              	.LBB383:
 895              	.LBI383:
 896              		.loc 4 669 27 view .LVU276
 897              	.LBE383:
 898              	.LBE390:
 899              	.LBE394:
 900              		.loc 4 677 3 view .LVU277
 901              	.LBB395:
 902              	.LBB391:
 903              	.LBB388:
 904              	.LBB384:
ARM GAS  /tmp/ccpnbTSa.s 			page 17


 905              	.LBI384:
 906              		.loc 5 491 27 view .LVU278
 907              	.LBB385:
 908              		.loc 5 493 3 view .LVU279
 909              	.LBE385:
 910              	.LBE384:
 911              	.LBE388:
 912              	.LBE391:
 913              	.LBE395:
 914              		.loc 1 536 71 is_stmt 0 view .LVU280
 915 01c0 F8B5     		push	{r3, r4, r5, r6, r7, lr}
 916              		.cfi_def_cfa_offset 24
 917              		.cfi_offset 3, -24
 918              		.cfi_offset 4, -20
 919              		.cfi_offset 5, -16
 920              		.cfi_offset 6, -12
 921              		.cfi_offset 7, -8
 922              		.cfi_offset 14, -4
 923              	.LBB396:
 924              	.LBB392:
 925              	.LBB389:
 926              	.LBB387:
 927              	.LBB386:
 928              		.loc 5 493 3 view .LVU281
 929 01c2 2026     		movs	r6, #32
 930              		.syntax unified
 931              	@ 493 "../../../external/ChibiOS/os/common/ext/ARM/CMSIS/Core/Include/cmsis_gcc.h" 1
 932 01c4 86F31188 		MSR basepri, r6
 933              	@ 0 "" 2
 934              	.LVL44:
 935              		.loc 5 493 3 view .LVU282
 936              		.thumb
 937              		.syntax unified
 938              	.LBE386:
 939              	.LBE387:
 940              	.LBE389:
 941              	.LBE392:
 942              	.LBE396:
 943              		.loc 3 356 34 is_stmt 1 view .LVU283
 944              		.loc 3 357 20 view .LVU284
 945              		.loc 1 541 3 view .LVU285
 946              		.loc 1 541 6 is_stmt 0 view .LVU286
 947 01c8 0678     		ldrb	r6, [r0]	@ zero_extendqisi2
 948 01ca 042E     		cmp	r6, #4
 949 01cc 1BD1     		bne	.L57
 950              		.loc 1 546 3 is_stmt 1 view .LVU287
 951              	.LVL45:
 952              	.LBB397:
 953              	.LBI397:
 954              		.loc 1 453 6 view .LVU288
 955              	.LBB398:
 956              		.loc 1 455 3 view .LVU289
 957              		.loc 1 457 23 view .LVU290
 958              		.loc 1 458 3 view .LVU291
 959              		.loc 1 458 3 view .LVU292
 960              		.loc 1 459 3 view .LVU293
 961              		.loc 1 459 3 view .LVU294
ARM GAS  /tmp/ccpnbTSa.s 			page 18


 962              		.loc 1 462 3 view .LVU295
 963              		.loc 1 462 46 is_stmt 0 view .LVU296
 964 01ce 0125     		movs	r5, #1
 965              		.loc 1 462 19 view .LVU297
 966 01d0 B0F80AC0 		ldrh	ip, [r0, #10]
 967 01d4 00EB8107 		add	r7, r0, r1, lsl #2
 968              		.loc 1 470 15 view .LVU298
 969 01d8 0026     		movs	r6, #0
 970              		.loc 1 462 46 view .LVU299
 971 01da 8D40     		lsls	r5, r5, r1
 972              		.loc 1 462 19 view .LVU300
 973 01dc 45EA0C05 		orr	r5, r5, ip
 974 01e0 4581     		strh	r5, [r0, #10]	@ movhi
 975              		.loc 1 466 3 is_stmt 1 view .LVU301
 976              		.loc 1 466 7 is_stmt 0 view .LVU302
 977 01e2 FC68     		ldr	r4, [r7, #12]
 978 01e4 A469     		ldr	r4, [r4, #24]
 979              	.LVL46:
 980              		.loc 1 468 3 is_stmt 1 view .LVU303
 981              		.loc 1 468 15 is_stmt 0 view .LVU304
 982 01e6 A260     		str	r2, [r4, #8]
 983              		.loc 1 469 3 is_stmt 1 view .LVU305
 984              		.loc 1 472 15 is_stmt 0 view .LVU306
 985 01e8 E660     		str	r6, [r4, #12]
 986              		.loc 1 470 15 view .LVU307
 987 01ea C4E90036 		strd	r3, r6, [r4]
 988              		.loc 1 472 3 is_stmt 1 view .LVU308
 989              		.loc 1 476 3 view .LVU309
 990 01ee FFF7FEFF 		bl	usb_lld_start_out
 991              	.LVL47:
 992              		.loc 1 476 3 is_stmt 0 view .LVU310
 993              	.LBE398:
 994              	.LBE397:
 995              		.loc 1 547 3 is_stmt 1 view .LVU311
 996              	.LBB399:
 997              	.LBI399:
 998              		.loc 2 733 21 view .LVU312
 999              	.LBB400:
 1000              		.loc 2 735 3 view .LVU313
 1001              	.LBE400:
 1002              	.LBE399:
 1003              		.loc 1 547 42 is_stmt 0 view .LVU314
 1004 01f2 FB68     		ldr	r3, [r7, #12]
 1005              	.LBB403:
 1006              	.LBB401:
 1007              		.loc 2 735 10 view .LVU315
 1008 01f4 4FF0FF31 		mov	r1, #-1
 1009              	.LBE401:
 1010              	.LBE403:
 1011              		.loc 1 547 9 view .LVU316
 1012 01f8 9869     		ldr	r0, [r3, #24]
 1013              	.LBB404:
 1014              	.LBB402:
 1015              		.loc 2 735 10 view .LVU317
 1016 01fa 0C30     		adds	r0, r0, #12
 1017 01fc FFF7FEFF 		bl	chThdSuspendTimeoutS
 1018              	.LVL48:
ARM GAS  /tmp/ccpnbTSa.s 			page 19


 1019              		.loc 2 735 10 view .LVU318
 1020              	.LBE402:
 1021              	.LBE404:
 1022              		.loc 1 548 3 is_stmt 1 view .LVU319
 1023              	.LBB405:
 1024              	.LBI405:
 1025              		.loc 2 520 20 view .LVU320
 1026              	.LBE405:
 1027              		.loc 2 522 3 view .LVU321
 1028              	.LBB414:
 1029              	.LBB406:
 1030              	.LBI406:
 1031              		.loc 3 365 20 view .LVU322
 1032              	.LBB407:
 1033              		.loc 3 367 22 view .LVU323
 1034              		.loc 3 368 33 view .LVU324
 1035              		.loc 3 374 3 view .LVU325
 1036              		.loc 3 374 3 view .LVU326
 1037              		.loc 3 378 3 view .LVU327
 1038              	.LBB408:
 1039              	.LBI408:
 1040              		.loc 4 693 27 view .LVU328
 1041              	.LBE408:
 1042              	.LBE407:
 1043              	.LBE406:
 1044              	.LBE414:
 1045              		.loc 4 696 3 view .LVU329
 1046              	.LBB415:
 1047              	.LBB413:
 1048              	.LBB412:
 1049              	.LBB411:
 1050              	.LBB409:
 1051              	.LBI409:
 1052              		.loc 5 491 27 view .LVU330
 1053              	.LBB410:
 1054              		.loc 5 493 3 view .LVU331
 1055              		.syntax unified
 1056              	@ 493 "../../../external/ChibiOS/os/common/ext/ARM/CMSIS/Core/Include/cmsis_gcc.h" 1
 1057 0200 86F31188 		MSR basepri, r6
 1058              	@ 0 "" 2
 1059              	.LVL49:
 1060              		.loc 5 493 3 is_stmt 0 view .LVU332
 1061              		.thumb
 1062              		.syntax unified
 1063              	.LBE410:
 1064              	.LBE409:
 1065              	.LBE411:
 1066              	.LBE412:
 1067              	.LBE413:
 1068              	.LBE415:
 1069              		.loc 1 550 3 is_stmt 1 view .LVU333
 1070              		.loc 1 551 1 is_stmt 0 view .LVU334
 1071 0204 F8BD     		pop	{r3, r4, r5, r6, r7, pc}
 1072              	.LVL50:
 1073              	.L57:
 1074              		.loc 1 542 5 is_stmt 1 view .LVU335
 1075              	.LBB416:
ARM GAS  /tmp/ccpnbTSa.s 			page 20


 1076              	.LBI416:
 1077              		.loc 2 520 20 view .LVU336
 1078              	.LBE416:
 1079              		.loc 2 522 3 view .LVU337
 1080              	.LBB425:
 1081              	.LBB417:
 1082              	.LBI417:
 1083              		.loc 3 365 20 view .LVU338
 1084              	.LBB418:
 1085              		.loc 3 367 22 view .LVU339
 1086              		.loc 3 368 33 view .LVU340
 1087              		.loc 3 374 3 view .LVU341
 1088              		.loc 3 374 3 view .LVU342
 1089              		.loc 3 378 3 view .LVU343
 1090              	.LBB419:
 1091              	.LBI419:
 1092              		.loc 4 693 27 view .LVU344
 1093              	.LBE419:
 1094              	.LBE418:
 1095              	.LBE417:
 1096              	.LBE425:
 1097              		.loc 4 696 3 view .LVU345
 1098              	.LBB426:
 1099              	.LBB424:
 1100              	.LBB423:
 1101              	.LBB422:
 1102              	.LBB420:
 1103              	.LBI420:
 1104              		.loc 5 491 27 view .LVU346
 1105              	.LBB421:
 1106              		.loc 5 493 3 view .LVU347
 1107 0206 0023     		movs	r3, #0
 1108              	.LVL51:
 1109              		.loc 5 493 3 is_stmt 0 view .LVU348
 1110              		.syntax unified
 1111              	@ 493 "../../../external/ChibiOS/os/common/ext/ARM/CMSIS/Core/Include/cmsis_gcc.h" 1
 1112 0208 83F31188 		MSR basepri, r3
 1113              	@ 0 "" 2
 1114              	.LVL52:
 1115              		.loc 5 493 3 view .LVU349
 1116              		.thumb
 1117              		.syntax unified
 1118              	.LBE421:
 1119              	.LBE420:
 1120              	.LBE422:
 1121              	.LBE423:
 1122              	.LBE424:
 1123              	.LBE426:
 1124              		.loc 1 543 5 is_stmt 1 view .LVU350
 1125              		.loc 1 543 12 is_stmt 0 view .LVU351
 1126 020c 6FF00100 		mvn	r0, #1
 1127              	.LVL53:
 1128              		.loc 1 551 1 view .LVU352
 1129 0210 F8BD     		pop	{r3, r4, r5, r6, r7, pc}
 1130              		.cfi_endproc
 1131              	.LFE373:
 1132              		.size	usbReceive, .-usbReceive
ARM GAS  /tmp/ccpnbTSa.s 			page 21


 1133              		.align	1
 1134 0212 00BFAFF3 		.p2align 4,,15
 1134      0080AFF3 
 1134      0080AFF3 
 1134      0080
 1135              		.global	usbTransmit
 1136              		.syntax unified
 1137              		.thumb
 1138              		.thumb_func
 1139              		.fpu fpv4-sp-d16
 1140              		.type	usbTransmit, %function
 1141              	usbTransmit:
 1142              	.LVL54:
 1143              	.LFB374:
 1144              		.loc 1 569 78 is_stmt 1 view -0
 1145              		.cfi_startproc
 1146              		@ args = 0, pretend = 0, frame = 0
 1147              		@ frame_needed = 0, uses_anonymous_args = 0
 1148              		.loc 1 570 3 view .LVU354
 1149              		.loc 1 572 3 view .LVU355
 1150              	.LBB427:
 1151              	.LBI427:
 1152              		.loc 2 509 20 view .LVU356
 1153              	.LBE427:
 1154              		.loc 2 511 3 view .LVU357
 1155              	.LBB439:
 1156              	.LBB428:
 1157              	.LBI428:
 1158              		.loc 3 353 20 view .LVU358
 1159              	.LBE428:
 1160              	.LBE439:
 1161              		.loc 3 355 3 view .LVU359
 1162              	.LBB440:
 1163              	.LBB436:
 1164              	.LBB429:
 1165              	.LBI429:
 1166              		.loc 4 669 27 view .LVU360
 1167              	.LBE429:
 1168              	.LBE436:
 1169              	.LBE440:
 1170              		.loc 4 677 3 view .LVU361
 1171              	.LBB441:
 1172              	.LBB437:
 1173              	.LBB434:
 1174              	.LBB430:
 1175              	.LBI430:
 1176              		.loc 5 491 27 view .LVU362
 1177              	.LBB431:
 1178              		.loc 5 493 3 view .LVU363
 1179              	.LBE431:
 1180              	.LBE430:
 1181              	.LBE434:
 1182              	.LBE437:
 1183              	.LBE441:
 1184              		.loc 1 569 78 is_stmt 0 view .LVU364
 1185 0220 F8B5     		push	{r3, r4, r5, r6, r7, lr}
 1186              		.cfi_def_cfa_offset 24
ARM GAS  /tmp/ccpnbTSa.s 			page 22


 1187              		.cfi_offset 3, -24
 1188              		.cfi_offset 4, -20
 1189              		.cfi_offset 5, -16
 1190              		.cfi_offset 6, -12
 1191              		.cfi_offset 7, -8
 1192              		.cfi_offset 14, -4
 1193              	.LBB442:
 1194              	.LBB438:
 1195              	.LBB435:
 1196              	.LBB433:
 1197              	.LBB432:
 1198              		.loc 5 493 3 view .LVU365
 1199 0222 2026     		movs	r6, #32
 1200              		.syntax unified
 1201              	@ 493 "../../../external/ChibiOS/os/common/ext/ARM/CMSIS/Core/Include/cmsis_gcc.h" 1
 1202 0224 86F31188 		MSR basepri, r6
 1203              	@ 0 "" 2
 1204              	.LVL55:
 1205              		.loc 5 493 3 view .LVU366
 1206              		.thumb
 1207              		.syntax unified
 1208              	.LBE432:
 1209              	.LBE433:
 1210              	.LBE435:
 1211              	.LBE438:
 1212              	.LBE442:
 1213              		.loc 3 356 34 is_stmt 1 view .LVU367
 1214              		.loc 3 357 20 view .LVU368
 1215              		.loc 1 574 3 view .LVU369
 1216              		.loc 1 574 6 is_stmt 0 view .LVU370
 1217 0228 0678     		ldrb	r6, [r0]	@ zero_extendqisi2
 1218 022a 042E     		cmp	r6, #4
 1219 022c 1BD1     		bne	.L62
 1220              		.loc 1 579 3 is_stmt 1 view .LVU371
 1221              	.LVL56:
 1222              	.LBB443:
 1223              	.LBI443:
 1224              		.loc 1 492 6 view .LVU372
 1225              	.LBB444:
 1226              		.loc 1 494 3 view .LVU373
 1227              		.loc 1 496 23 view .LVU374
 1228              		.loc 1 497 3 view .LVU375
 1229              		.loc 1 497 3 view .LVU376
 1230              		.loc 1 498 3 view .LVU377
 1231              		.loc 1 498 3 view .LVU378
 1232              		.loc 1 501 3 view .LVU379
 1233              		.loc 1 501 49 is_stmt 0 view .LVU380
 1234 022e 0125     		movs	r5, #1
 1235              		.loc 1 501 22 view .LVU381
 1236 0230 B0F808C0 		ldrh	ip, [r0, #8]
 1237 0234 00EB8107 		add	r7, r0, r1, lsl #2
 1238              		.loc 1 509 15 view .LVU382
 1239 0238 0026     		movs	r6, #0
 1240              		.loc 1 501 49 view .LVU383
 1241 023a 8D40     		lsls	r5, r5, r1
 1242              		.loc 1 501 22 view .LVU384
 1243 023c 45EA0C05 		orr	r5, r5, ip
ARM GAS  /tmp/ccpnbTSa.s 			page 23


 1244 0240 0581     		strh	r5, [r0, #8]	@ movhi
 1245              		.loc 1 505 3 is_stmt 1 view .LVU385
 1246              		.loc 1 505 7 is_stmt 0 view .LVU386
 1247 0242 FC68     		ldr	r4, [r7, #12]
 1248 0244 6469     		ldr	r4, [r4, #20]
 1249              	.LVL57:
 1250              		.loc 1 507 3 is_stmt 1 view .LVU387
 1251              		.loc 1 507 15 is_stmt 0 view .LVU388
 1252 0246 A260     		str	r2, [r4, #8]
 1253              		.loc 1 508 3 is_stmt 1 view .LVU389
 1254              		.loc 1 511 15 is_stmt 0 view .LVU390
 1255 0248 E660     		str	r6, [r4, #12]
 1256              		.loc 1 509 15 view .LVU391
 1257 024a C4E90036 		strd	r3, r6, [r4]
 1258              		.loc 1 511 3 is_stmt 1 view .LVU392
 1259              		.loc 1 515 3 view .LVU393
 1260 024e FFF7FEFF 		bl	usb_lld_start_in
 1261              	.LVL58:
 1262              		.loc 1 515 3 is_stmt 0 view .LVU394
 1263              	.LBE444:
 1264              	.LBE443:
 1265              		.loc 1 580 3 is_stmt 1 view .LVU395
 1266              	.LBB445:
 1267              	.LBI445:
 1268              		.loc 2 733 21 view .LVU396
 1269              	.LBB446:
 1270              		.loc 2 735 3 view .LVU397
 1271              	.LBE446:
 1272              	.LBE445:
 1273              		.loc 1 580 42 is_stmt 0 view .LVU398
 1274 0252 FB68     		ldr	r3, [r7, #12]
 1275              	.LBB449:
 1276              	.LBB447:
 1277              		.loc 2 735 10 view .LVU399
 1278 0254 4FF0FF31 		mov	r1, #-1
 1279              	.LBE447:
 1280              	.LBE449:
 1281              		.loc 1 580 9 view .LVU400
 1282 0258 5869     		ldr	r0, [r3, #20]
 1283              	.LBB450:
 1284              	.LBB448:
 1285              		.loc 2 735 10 view .LVU401
 1286 025a 0C30     		adds	r0, r0, #12
 1287 025c FFF7FEFF 		bl	chThdSuspendTimeoutS
 1288              	.LVL59:
 1289              		.loc 2 735 10 view .LVU402
 1290              	.LBE448:
 1291              	.LBE450:
 1292              		.loc 1 581 3 is_stmt 1 view .LVU403
 1293              	.LBB451:
 1294              	.LBI451:
 1295              		.loc 2 520 20 view .LVU404
 1296              	.LBE451:
 1297              		.loc 2 522 3 view .LVU405
 1298              	.LBB460:
 1299              	.LBB452:
 1300              	.LBI452:
ARM GAS  /tmp/ccpnbTSa.s 			page 24


 1301              		.loc 3 365 20 view .LVU406
 1302              	.LBB453:
 1303              		.loc 3 367 22 view .LVU407
 1304              		.loc 3 368 33 view .LVU408
 1305              		.loc 3 374 3 view .LVU409
 1306              		.loc 3 374 3 view .LVU410
 1307              		.loc 3 378 3 view .LVU411
 1308              	.LBB454:
 1309              	.LBI454:
 1310              		.loc 4 693 27 view .LVU412
 1311              	.LBE454:
 1312              	.LBE453:
 1313              	.LBE452:
 1314              	.LBE460:
 1315              		.loc 4 696 3 view .LVU413
 1316              	.LBB461:
 1317              	.LBB459:
 1318              	.LBB458:
 1319              	.LBB457:
 1320              	.LBB455:
 1321              	.LBI455:
 1322              		.loc 5 491 27 view .LVU414
 1323              	.LBB456:
 1324              		.loc 5 493 3 view .LVU415
 1325              		.syntax unified
 1326              	@ 493 "../../../external/ChibiOS/os/common/ext/ARM/CMSIS/Core/Include/cmsis_gcc.h" 1
 1327 0260 86F31188 		MSR basepri, r6
 1328              	@ 0 "" 2
 1329              	.LVL60:
 1330              		.loc 5 493 3 is_stmt 0 view .LVU416
 1331              		.thumb
 1332              		.syntax unified
 1333              	.LBE456:
 1334              	.LBE455:
 1335              	.LBE457:
 1336              	.LBE458:
 1337              	.LBE459:
 1338              	.LBE461:
 1339              		.loc 1 583 3 is_stmt 1 view .LVU417
 1340              		.loc 1 584 1 is_stmt 0 view .LVU418
 1341 0264 F8BD     		pop	{r3, r4, r5, r6, r7, pc}
 1342              	.LVL61:
 1343              	.L62:
 1344              		.loc 1 575 5 is_stmt 1 view .LVU419
 1345              	.LBB462:
 1346              	.LBI462:
 1347              		.loc 2 520 20 view .LVU420
 1348              	.LBE462:
 1349              		.loc 2 522 3 view .LVU421
 1350              	.LBB471:
 1351              	.LBB463:
 1352              	.LBI463:
 1353              		.loc 3 365 20 view .LVU422
 1354              	.LBB464:
 1355              		.loc 3 367 22 view .LVU423
 1356              		.loc 3 368 33 view .LVU424
 1357              		.loc 3 374 3 view .LVU425
ARM GAS  /tmp/ccpnbTSa.s 			page 25


 1358              		.loc 3 374 3 view .LVU426
 1359              		.loc 3 378 3 view .LVU427
 1360              	.LBB465:
 1361              	.LBI465:
 1362              		.loc 4 693 27 view .LVU428
 1363              	.LBE465:
 1364              	.LBE464:
 1365              	.LBE463:
 1366              	.LBE471:
 1367              		.loc 4 696 3 view .LVU429
 1368              	.LBB472:
 1369              	.LBB470:
 1370              	.LBB469:
 1371              	.LBB468:
 1372              	.LBB466:
 1373              	.LBI466:
 1374              		.loc 5 491 27 view .LVU430
 1375              	.LBB467:
 1376              		.loc 5 493 3 view .LVU431
 1377 0266 0023     		movs	r3, #0
 1378              	.LVL62:
 1379              		.loc 5 493 3 is_stmt 0 view .LVU432
 1380              		.syntax unified
 1381              	@ 493 "../../../external/ChibiOS/os/common/ext/ARM/CMSIS/Core/Include/cmsis_gcc.h" 1
 1382 0268 83F31188 		MSR basepri, r3
 1383              	@ 0 "" 2
 1384              	.LVL63:
 1385              		.loc 5 493 3 view .LVU433
 1386              		.thumb
 1387              		.syntax unified
 1388              	.LBE467:
 1389              	.LBE466:
 1390              	.LBE468:
 1391              	.LBE469:
 1392              	.LBE470:
 1393              	.LBE472:
 1394              		.loc 1 576 5 is_stmt 1 view .LVU434
 1395              		.loc 1 576 12 is_stmt 0 view .LVU435
 1396 026c 6FF00100 		mvn	r0, #1
 1397              	.LVL64:
 1398              		.loc 1 584 1 view .LVU436
 1399 0270 F8BD     		pop	{r3, r4, r5, r6, r7, pc}
 1400              		.cfi_endproc
 1401              	.LFE374:
 1402              		.size	usbTransmit, .-usbTransmit
 1403              		.align	1
 1404 0272 00BFAFF3 		.p2align 4,,15
 1404      0080AFF3 
 1404      0080AFF3 
 1404      0080
 1405              		.global	usbStallReceiveI
 1406              		.syntax unified
 1407              		.thumb
 1408              		.thumb_func
 1409              		.fpu fpv4-sp-d16
 1410              		.type	usbStallReceiveI, %function
 1411              	usbStallReceiveI:
ARM GAS  /tmp/ccpnbTSa.s 			page 26


 1412              	.LVL65:
 1413              	.LFB375:
 1414              		.loc 1 599 52 is_stmt 1 view -0
 1415              		.cfi_startproc
 1416              		@ args = 0, pretend = 0, frame = 0
 1417              		@ frame_needed = 0, uses_anonymous_args = 0
 1418              		.loc 1 601 23 view .LVU438
 1419              		.loc 1 602 3 view .LVU439
 1420              		.loc 1 602 3 view .LVU440
 1421              		.loc 1 604 3 view .LVU441
 1422              		.loc 1 604 7 is_stmt 0 view .LVU442
 1423 0280 0123     		movs	r3, #1
 1424              		.loc 1 599 52 view .LVU443
 1425 0282 10B5     		push	{r4, lr}
 1426              		.cfi_def_cfa_offset 8
 1427              		.cfi_offset 4, -8
 1428              		.cfi_offset 14, -4
 1429              		.loc 1 604 7 view .LVU444
 1430 0284 03FA01F2 		lsl	r2, r3, r1
 1431 0288 4489     		ldrh	r4, [r0, #10]
 1432              		.loc 1 604 6 view .LVU445
 1433 028a 1440     		ands	r4, r2, r4
 1434 028c 01D0     		beq	.L67
 1435              		.loc 1 605 12 view .LVU446
 1436 028e 1846     		mov	r0, r3
 1437              	.LVL66:
 1438              		.loc 1 610 1 view .LVU447
 1439 0290 10BD     		pop	{r4, pc}
 1440              	.LVL67:
 1441              	.L67:
 1442              		.loc 1 608 3 is_stmt 1 view .LVU448
 1443 0292 FFF7FEFF 		bl	usb_lld_stall_out
 1444              	.LVL68:
 1445              		.loc 1 609 3 view .LVU449
 1446              		.loc 1 609 10 is_stmt 0 view .LVU450
 1447 0296 2046     		mov	r0, r4
 1448              		.loc 1 610 1 view .LVU451
 1449 0298 10BD     		pop	{r4, pc}
 1450              		.cfi_endproc
 1451              	.LFE375:
 1452              		.size	usbStallReceiveI, .-usbStallReceiveI
 1453              		.align	1
 1454 029a 00BFAFF3 		.p2align 4,,15
 1454      0080
 1455              		.global	usbStallTransmitI
 1456              		.syntax unified
 1457              		.thumb
 1458              		.thumb_func
 1459              		.fpu fpv4-sp-d16
 1460              		.type	usbStallTransmitI, %function
 1461              	usbStallTransmitI:
 1462              	.LVL69:
 1463              	.LFB376:
 1464              		.loc 1 624 53 is_stmt 1 view -0
 1465              		.cfi_startproc
 1466              		@ args = 0, pretend = 0, frame = 0
 1467              		@ frame_needed = 0, uses_anonymous_args = 0
ARM GAS  /tmp/ccpnbTSa.s 			page 27


 1468              		.loc 1 626 23 view .LVU453
 1469              		.loc 1 627 3 view .LVU454
 1470              		.loc 1 627 3 view .LVU455
 1471              		.loc 1 629 3 view .LVU456
 1472              		.loc 1 629 7 is_stmt 0 view .LVU457
 1473 02a0 0123     		movs	r3, #1
 1474              		.loc 1 624 53 view .LVU458
 1475 02a2 10B5     		push	{r4, lr}
 1476              		.cfi_def_cfa_offset 8
 1477              		.cfi_offset 4, -8
 1478              		.cfi_offset 14, -4
 1479              		.loc 1 629 7 view .LVU459
 1480 02a4 03FA01F2 		lsl	r2, r3, r1
 1481 02a8 0489     		ldrh	r4, [r0, #8]
 1482              		.loc 1 629 6 view .LVU460
 1483 02aa 1440     		ands	r4, r2, r4
 1484 02ac 01D0     		beq	.L72
 1485              		.loc 1 630 12 view .LVU461
 1486 02ae 1846     		mov	r0, r3
 1487              	.LVL70:
 1488              		.loc 1 635 1 view .LVU462
 1489 02b0 10BD     		pop	{r4, pc}
 1490              	.LVL71:
 1491              	.L72:
 1492              		.loc 1 633 3 is_stmt 1 view .LVU463
 1493 02b2 FFF7FEFF 		bl	usb_lld_stall_in
 1494              	.LVL72:
 1495              		.loc 1 634 3 view .LVU464
 1496              		.loc 1 634 10 is_stmt 0 view .LVU465
 1497 02b6 2046     		mov	r0, r4
 1498              		.loc 1 635 1 view .LVU466
 1499 02b8 10BD     		pop	{r4, pc}
 1500              		.cfi_endproc
 1501              	.LFE376:
 1502              		.size	usbStallTransmitI, .-usbStallTransmitI
 1503              		.align	1
 1504 02ba 00BFAFF3 		.p2align 4,,15
 1504      0080
 1505              		.global	usbWakeupHost
 1506              		.syntax unified
 1507              		.thumb
 1508              		.thumb_func
 1509              		.fpu fpv4-sp-d16
 1510              		.type	usbWakeupHost, %function
 1511              	usbWakeupHost:
 1512              	.LVL73:
 1513              	.LFB377:
 1514              		.loc 1 646 37 is_stmt 1 view -0
 1515              		.cfi_startproc
 1516              		@ args = 0, pretend = 0, frame = 0
 1517              		@ frame_needed = 0, uses_anonymous_args = 0
 1518              		.loc 1 648 3 view .LVU468
 1519              		.loc 1 648 6 is_stmt 0 view .LVU469
 1520 02c0 0378     		ldrb	r3, [r0]	@ zero_extendqisi2
 1521 02c2 052B     		cmp	r3, #5
 1522 02c4 00D0     		beq	.L79
 1523 02c6 7047     		bx	lr
ARM GAS  /tmp/ccpnbTSa.s 			page 28


 1524              	.L79:
 1525              		.loc 1 650 5 view .LVU470
 1526 02c8 D0F89020 		ldr	r2, [r0, #144]
 1527 02cc D2F80438 		ldr	r3, [r2, #2052]
 1528 02d0 43F00103 		orr	r3, r3, #1
 1529              		.loc 1 646 37 view .LVU471
 1530 02d4 10B5     		push	{r4, lr}
 1531              		.cfi_def_cfa_offset 8
 1532              		.cfi_offset 4, -8
 1533              		.cfi_offset 14, -4
 1534 02d6 0446     		mov	r4, r0
 1535              		.loc 1 650 5 is_stmt 1 view .LVU472
 1536              		.loc 1 650 5 view .LVU473
 1537 02d8 C2F80438 		str	r3, [r2, #2052]
 1538              		.loc 1 650 5 view .LVU474
 1539              	.LVL74:
 1540              	.LBB473:
 1541              	.LBI473:
 1542              		.loc 2 718 20 view .LVU475
 1543              	.LBB474:
 1544              		.loc 2 720 3 view .LVU476
 1545 02dc 1420     		movs	r0, #20
 1546              	.LVL75:
 1547              		.loc 2 720 3 is_stmt 0 view .LVU477
 1548 02de FFF7FEFF 		bl	chThdSleep
 1549              	.LVL76:
 1550              		.loc 2 720 3 view .LVU478
 1551              	.LBE474:
 1552              	.LBE473:
 1553              		.loc 1 650 5 is_stmt 1 view .LVU479
 1554 02e2 D4F89020 		ldr	r2, [r4, #144]
 1555 02e6 D2F80438 		ldr	r3, [r2, #2052]
 1556 02ea 23F00103 		bic	r3, r3, #1
 1557 02ee C2F80438 		str	r3, [r2, #2052]
 1558              		.loc 1 652 1 is_stmt 0 view .LVU480
 1559 02f2 10BD     		pop	{r4, pc}
 1560              		.loc 1 652 1 view .LVU481
 1561              		.cfi_endproc
 1562              	.LFE377:
 1563              		.size	usbWakeupHost, .-usbWakeupHost
 1564              		.align	1
 1565 02f4 AFF30080 		.p2align 4,,15
 1565      AFF30080 
 1565      AFF30080 
 1566              		.global	_usb_reset
 1567              		.syntax unified
 1568              		.thumb
 1569              		.thumb_func
 1570              		.fpu fpv4-sp-d16
 1571              		.type	_usb_reset, %function
 1572              	_usb_reset:
 1573              	.LVL77:
 1574              	.LFB378:
 1575              		.loc 1 663 34 is_stmt 1 view -0
 1576              		.cfi_startproc
 1577              		@ args = 0, pretend = 0, frame = 0
 1578              		@ frame_needed = 0, uses_anonymous_args = 0
ARM GAS  /tmp/ccpnbTSa.s 			page 29


 1579              		.loc 1 664 3 view .LVU483
 1580              		.loc 1 667 3 view .LVU484
 1581              		.loc 1 670 23 is_stmt 0 view .LVU485
 1582 0300 0023     		movs	r3, #0
 1583              		.loc 1 667 23 view .LVU486
 1584 0302 0222     		movs	r2, #2
 1585              		.loc 1 663 34 view .LVU487
 1586 0304 2DE9F041 		push	{r4, r5, r6, r7, r8, lr}
 1587              		.cfi_def_cfa_offset 24
 1588              		.cfi_offset 4, -24
 1589              		.cfi_offset 5, -20
 1590              		.cfi_offset 6, -16
 1591              		.cfi_offset 7, -12
 1592              		.cfi_offset 8, -8
 1593              		.cfi_offset 14, -4
 1594              		.loc 1 673 23 view .LVU488
 1595 0308 0446     		mov	r4, r0
 1596              		.loc 1 663 34 view .LVU489
 1597 030a 0646     		mov	r6, r0
 1598              	.LBB475:
 1599              	.LBB476:
 1600              	.LBB477:
 1601              	.LBB478:
 1602              	.LBB479:
 1603              	.LBB480:
 1604              		.loc 5 493 3 view .LVU490
 1605 030c 2027     		movs	r7, #32
 1606              	.LBE480:
 1607              	.LBE479:
 1608              	.LBE478:
 1609              	.LBE477:
 1610              	.LBE476:
 1611              	.LBE475:
 1612              	.LBB497:
 1613              	.LBB498:
 1614              	.LBB499:
 1615              	.LBB500:
 1616              	.LBB501:
 1617              	.LBB502:
 1618 030e 9846     		mov	r8, r3
 1619 0310 00F12C05 		add	r5, r0, #44
 1620              	.LBE502:
 1621              	.LBE501:
 1622              	.LBE500:
 1623              	.LBE499:
 1624              	.LBE498:
 1625              	.LBE497:
 1626              		.loc 1 667 23 view .LVU491
 1627 0314 0270     		strb	r2, [r0]
 1628              		.loc 1 670 3 is_stmt 1 view .LVU492
 1629              		.loc 1 671 3 view .LVU493
 1630              		.loc 1 672 3 view .LVU494
 1631              		.loc 1 670 23 is_stmt 0 view .LVU495
 1632 0316 C0F88830 		str	r3, [r0, #136]
 1633              		.loc 1 673 3 is_stmt 1 view .LVU496
 1634              		.loc 1 674 3 view .LVU497
 1635              		.loc 1 673 23 is_stmt 0 view .LVU498
ARM GAS  /tmp/ccpnbTSa.s 			page 30


 1636 031a 44F8083F 		str	r3, [r4, #8]!
 1637              		.loc 1 677 3 is_stmt 1 view .LVU499
 1638              	.LVL78:
 1639              	.L84:
 1640              		.loc 1 680 5 view .LVU500
 1641              		.loc 1 681 7 view .LVU501
 1642              	.LBB514:
 1643              	.LBI475:
 1644              		.loc 2 531 20 view .LVU502
 1645              	.LBE514:
 1646              		.loc 2 533 3 view .LVU503
 1647              	.LBB515:
 1648              	.LBB492:
 1649              	.LBI476:
 1650              		.loc 3 393 20 view .LVU504
 1651              	.LBE492:
 1652              	.LBE515:
 1653              		.loc 3 395 3 view .LVU505
 1654              	.LBB516:
 1655              	.LBB493:
 1656              	.LBB488:
 1657              	.LBI477:
 1658              		.loc 4 708 27 view .LVU506
 1659              	.LBE488:
 1660              	.LBE493:
 1661              	.LBE516:
 1662              		.loc 4 710 3 view .LVU507
 1663              	.LBB517:
 1664              	.LBB494:
 1665              	.LBB489:
 1666              	.LBB485:
 1667              	.LBI478:
 1668              		.loc 4 669 27 view .LVU508
 1669              	.LBE485:
 1670              	.LBE489:
 1671              	.LBE494:
 1672              	.LBE517:
 1673              		.loc 4 677 3 view .LVU509
 1674              	.LBB518:
 1675              	.LBB495:
 1676              	.LBB490:
 1677              	.LBB486:
 1678              	.LBB483:
 1679              	.LBI479:
 1680              		.loc 5 491 27 view .LVU510
 1681              	.LBB481:
 1682              		.loc 5 493 3 view .LVU511
 1683              	.LBE481:
 1684              	.LBE483:
 1685              	.LBE486:
 1686              	.LBE490:
 1687              	.LBE495:
 1688              	.LBE518:
 1689              		.loc 1 680 8 is_stmt 0 view .LVU512
 1690 031e 54F8043F 		ldr	r3, [r4, #4]!
 1691 0322 ABB1     		cbz	r3, .L81
 1692              	.LBB519:
ARM GAS  /tmp/ccpnbTSa.s 			page 31


 1693              	.LBB496:
 1694              	.LBB491:
 1695              	.LBB487:
 1696              	.LBB484:
 1697              	.LBB482:
 1698              		.loc 5 493 3 view .LVU513
 1699              		.syntax unified
 1700              	@ 493 "../../../external/ChibiOS/os/common/ext/ARM/CMSIS/Core/Include/cmsis_gcc.h" 1
 1701 0324 87F31188 		MSR basepri, r7
 1702              	@ 0 "" 2
 1703              	.LVL79:
 1704              		.loc 5 493 3 view .LVU514
 1705              		.thumb
 1706              		.syntax unified
 1707              	.LBE482:
 1708              	.LBE484:
 1709              	.LBE487:
 1710              	.LBE491:
 1711              	.LBE496:
 1712              	.LBE519:
 1713              		.loc 3 396 34 is_stmt 1 view .LVU515
 1714              		.loc 3 397 29 view .LVU516
 1715              		.loc 1 682 7 view .LVU517
 1716              		.loc 1 683 9 view .LVU518
 1717              		.loc 1 682 20 is_stmt 0 view .LVU519
 1718 0328 2368     		ldr	r3, [r4]
 1719              	.LBB520:
 1720              	.LBB521:
 1721              		.loc 2 775 3 view .LVU520
 1722 032a 6FF00101 		mvn	r1, #1
 1723              	.LBE521:
 1724              	.LBE520:
 1725              		.loc 1 682 23 view .LVU521
 1726 032e 5A69     		ldr	r2, [r3, #20]
 1727              	.LVL80:
 1728              	.LBB524:
 1729              	.LBI520:
 1730              		.loc 2 773 20 is_stmt 1 view .LVU522
 1731              	.LBB522:
 1732              		.loc 2 775 3 view .LVU523
 1733 0330 02F10C00 		add	r0, r2, #12
 1734              	.LVL81:
 1735              		.loc 2 775 3 is_stmt 0 view .LVU524
 1736              	.LBE522:
 1737              	.LBE524:
 1738              		.loc 1 682 10 view .LVU525
 1739 0334 12B1     		cbz	r2, .L82
 1740              	.LBB525:
 1741              	.LBB523:
 1742              		.loc 2 775 3 view .LVU526
 1743 0336 FFF7FEFF 		bl	chThdResumeI
 1744              	.LVL82:
 1745              		.loc 2 775 3 view .LVU527
 1746 033a 2368     		ldr	r3, [r4]
 1747              	.L82:
 1748              	.LBE523:
 1749              	.LBE525:
ARM GAS  /tmp/ccpnbTSa.s 			page 32


 1750              		.loc 1 685 7 is_stmt 1 view .LVU528
 1751              		.loc 1 686 9 view .LVU529
 1752              		.loc 1 685 23 is_stmt 0 view .LVU530
 1753 033c 9B69     		ldr	r3, [r3, #24]
 1754              	.LVL83:
 1755              	.LBB526:
 1756              	.LBI526:
 1757              		.loc 2 773 20 is_stmt 1 view .LVU531
 1758              	.LBB527:
 1759              		.loc 2 775 3 view .LVU532
 1760 033e 6FF00101 		mvn	r1, #1
 1761 0342 03F10C00 		add	r0, r3, #12
 1762              	.LVL84:
 1763              		.loc 2 775 3 is_stmt 0 view .LVU533
 1764              	.LBE527:
 1765              	.LBE526:
 1766              		.loc 1 685 10 view .LVU534
 1767 0346 0BB1     		cbz	r3, .L83
 1768              	.LBB529:
 1769              	.LBB528:
 1770              		.loc 2 775 3 view .LVU535
 1771 0348 FFF7FEFF 		bl	chThdResumeI
 1772              	.LVL85:
 1773              	.L83:
 1774              		.loc 2 775 3 view .LVU536
 1775              	.LBE528:
 1776              	.LBE529:
 1777              		.loc 1 688 7 is_stmt 1 view .LVU537
 1778              	.LBB530:
 1779              	.LBI497:
 1780              		.loc 2 542 20 view .LVU538
 1781              	.LBE530:
 1782              		.loc 2 544 3 view .LVU539
 1783              	.LBB531:
 1784              	.LBB510:
 1785              	.LBI498:
 1786              		.loc 3 413 20 view .LVU540
 1787              	.LBE510:
 1788              	.LBE531:
 1789              		.loc 3 415 31 view .LVU541
 1790              		.loc 3 416 33 view .LVU542
 1791              		.loc 3 417 3 view .LVU543
 1792              	.LBB532:
 1793              	.LBB511:
 1794              	.LBB507:
 1795              	.LBI499:
 1796              		.loc 4 719 27 view .LVU544
 1797              	.LBE507:
 1798              	.LBE511:
 1799              	.LBE532:
 1800              		.loc 4 721 3 view .LVU545
 1801              	.LBB533:
 1802              	.LBB512:
 1803              	.LBB508:
 1804              	.LBB505:
 1805              	.LBI500:
 1806              		.loc 4 693 27 view .LVU546
ARM GAS  /tmp/ccpnbTSa.s 			page 33


 1807              	.LBE505:
 1808              	.LBE508:
 1809              	.LBE512:
 1810              	.LBE533:
 1811              		.loc 4 696 3 view .LVU547
 1812              	.LBB534:
 1813              	.LBB513:
 1814              	.LBB509:
 1815              	.LBB506:
 1816              	.LBB504:
 1817              	.LBI501:
 1818              		.loc 5 491 27 view .LVU548
 1819              	.LBB503:
 1820              		.loc 5 493 3 view .LVU549
 1821              		.syntax unified
 1822              	@ 493 "../../../external/ChibiOS/os/common/ext/ARM/CMSIS/Core/Include/cmsis_gcc.h" 1
 1823 034c 88F31188 		MSR basepri, r8
 1824              	@ 0 "" 2
 1825              	.LVL86:
 1826              		.thumb
 1827              		.syntax unified
 1828              	.L81:
 1829              		.loc 5 493 3 is_stmt 0 view .LVU550
 1830              	.LBE503:
 1831              	.LBE504:
 1832              	.LBE506:
 1833              	.LBE509:
 1834              	.LBE513:
 1835              	.LBE534:
 1836              		.loc 1 691 5 is_stmt 1 discriminator 2 view .LVU551
 1837              		.loc 1 677 3 is_stmt 0 discriminator 2 view .LVU552
 1838 0350 AC42     		cmp	r4, r5
 1839              		.loc 1 691 18 discriminator 2 view .LVU553
 1840 0352 C4F80080 		str	r8, [r4]
 1841              		.loc 1 677 3 discriminator 2 view .LVU554
 1842 0356 E2D1     		bne	.L84
 1843              		.loc 1 695 3 is_stmt 1 view .LVU555
 1844              		.loc 1 695 18 is_stmt 0 view .LVU556
 1845 0358 86F87080 		strb	r8, [r6, #112]
 1846              		.loc 1 698 3 is_stmt 1 view .LVU557
 1847 035c 3046     		mov	r0, r6
 1848 035e FFF7FEFF 		bl	usb_lld_reset
 1849              	.LVL87:
 1850              		.loc 1 701 3 view .LVU558
 1851 0362 7368     		ldr	r3, [r6, #4]
 1852 0364 1B68     		ldr	r3, [r3]
 1853 0366 23B1     		cbz	r3, .L80
 1854              		.loc 1 701 3 discriminator 1 view .LVU559
 1855 0368 3046     		mov	r0, r6
 1856 036a 0021     		movs	r1, #0
 1857              		.loc 1 702 1 is_stmt 0 discriminator 1 view .LVU560
 1858 036c BDE8F041 		pop	{r4, r5, r6, r7, r8, lr}
 1859              		.cfi_remember_state
 1860              		.cfi_restore 14
 1861              		.cfi_restore 8
 1862              		.cfi_restore 7
 1863              		.cfi_restore 6
ARM GAS  /tmp/ccpnbTSa.s 			page 34


 1864              		.cfi_restore 5
 1865              		.cfi_restore 4
 1866              		.cfi_def_cfa_offset 0
 1867              	.LVL88:
 1868              		.loc 1 701 3 discriminator 1 view .LVU561
 1869 0370 1847     		bx	r3	@ indirect register sibling call
 1870              	.LVL89:
 1871              	.L80:
 1872              		.cfi_restore_state
 1873              		.loc 1 702 1 view .LVU562
 1874 0372 BDE8F081 		pop	{r4, r5, r6, r7, r8, pc}
 1875              		.loc 1 702 1 view .LVU563
 1876              		.cfi_endproc
 1877              	.LFE378:
 1878              		.size	_usb_reset, .-_usb_reset
 1879              		.align	1
 1880 0376 00BFAFF3 		.p2align 4,,15
 1880      0080AFF3 
 1880      0080
 1881              		.global	_usb_suspend
 1882              		.syntax unified
 1883              		.thumb
 1884              		.thumb_func
 1885              		.fpu fpv4-sp-d16
 1886              		.type	_usb_suspend, %function
 1887              	_usb_suspend:
 1888              	.LVL90:
 1889              	.LFB379:
 1890              		.loc 1 713 36 is_stmt 1 view -0
 1891              		.cfi_startproc
 1892              		@ args = 0, pretend = 0, frame = 0
 1893              		@ frame_needed = 0, uses_anonymous_args = 0
 1894              		.loc 1 717 3 view .LVU565
 1895              		.loc 1 713 36 is_stmt 0 view .LVU566
 1896 0380 F8B5     		push	{r3, r4, r5, r6, r7, lr}
 1897              		.cfi_def_cfa_offset 24
 1898              		.cfi_offset 3, -24
 1899              		.cfi_offset 4, -20
 1900              		.cfi_offset 5, -16
 1901              		.cfi_offset 6, -12
 1902              		.cfi_offset 7, -8
 1903              		.cfi_offset 14, -4
 1904              		.loc 1 721 3 view .LVU567
 1905 0382 4368     		ldr	r3, [r0, #4]
 1906              		.loc 1 718 21 view .LVU568
 1907 0384 0522     		movs	r2, #5
 1908              		.loc 1 717 21 view .LVU569
 1909 0386 0178     		ldrb	r1, [r0]	@ zero_extendqisi2
 1910              		.loc 1 713 36 view .LVU570
 1911 0388 0446     		mov	r4, r0
 1912              		.loc 1 721 3 view .LVU571
 1913 038a 1B68     		ldr	r3, [r3]
 1914              		.loc 1 717 21 view .LVU572
 1915 038c 80F88C10 		strb	r1, [r0, #140]
 1916              		.loc 1 718 3 is_stmt 1 view .LVU573
 1917              		.loc 1 718 21 is_stmt 0 view .LVU574
 1918 0390 0270     		strb	r2, [r0]
ARM GAS  /tmp/ccpnbTSa.s 			page 35


 1919              		.loc 1 721 3 is_stmt 1 view .LVU575
 1920 0392 0BB1     		cbz	r3, .L98
 1921              		.loc 1 721 3 discriminator 1 view .LVU576
 1922 0394 0421     		movs	r1, #4
 1923 0396 9847     		blx	r3
 1924              	.LVL91:
 1925              	.L98:
 1926              		.loc 1 721 52 discriminator 3 view .LVU577
 1927              		.loc 1 724 3 discriminator 3 view .LVU578
 1928              		.loc 1 725 3 discriminator 3 view .LVU579
 1929              		.loc 1 724 23 is_stmt 0 discriminator 3 view .LVU580
 1930 0398 0023     		movs	r3, #0
 1931              	.LBB535:
 1932              	.LBB536:
 1933              	.LBB537:
 1934              	.LBB538:
 1935              	.LBB539:
 1936              	.LBB540:
 1937              	.LBB541:
 1938              		.loc 5 493 3 discriminator 3 view .LVU581
 1939 039a 2027     		movs	r7, #32
 1940 039c 04F12C05 		add	r5, r4, #44
 1941              	.LBE541:
 1942              	.LBE540:
 1943              	.LBE539:
 1944              	.LBE538:
 1945              	.LBE537:
 1946              	.LBE536:
 1947              	.LBB558:
 1948              	.LBB559:
 1949              	.LBB560:
 1950              	.LBB561:
 1951              	.LBB562:
 1952              	.LBB563:
 1953 03a0 1E46     		mov	r6, r3
 1954              	.LBE563:
 1955              	.LBE562:
 1956              	.LBE561:
 1957              	.LBE560:
 1958              	.LBE559:
 1959              	.LBE558:
 1960              	.LBE535:
 1961              		.loc 1 724 23 discriminator 3 view .LVU582
 1962 03a2 44F8083F 		str	r3, [r4, #8]!
 1963              	.LVL92:
 1964              	.LBB596:
 1965              		.loc 1 730 5 is_stmt 1 discriminator 3 view .LVU583
 1966              		.loc 1 732 5 discriminator 3 view .LVU584
 1967              	.L102:
 1968              		.loc 1 733 7 view .LVU585
 1969              		.loc 1 734 9 view .LVU586
 1970              	.LBB575:
 1971              	.LBI536:
 1972              		.loc 2 531 20 view .LVU587
 1973              	.LBE575:
 1974              	.LBE596:
 1975              		.loc 2 533 3 view .LVU588
ARM GAS  /tmp/ccpnbTSa.s 			page 36


 1976              	.LBB597:
 1977              	.LBB576:
 1978              	.LBB553:
 1979              	.LBI537:
 1980              		.loc 3 393 20 view .LVU589
 1981              	.LBE553:
 1982              	.LBE576:
 1983              	.LBE597:
 1984              		.loc 3 395 3 view .LVU590
 1985              	.LBB598:
 1986              	.LBB577:
 1987              	.LBB554:
 1988              	.LBB549:
 1989              	.LBI538:
 1990              		.loc 4 708 27 view .LVU591
 1991              	.LBE549:
 1992              	.LBE554:
 1993              	.LBE577:
 1994              	.LBE598:
 1995              		.loc 4 710 3 view .LVU592
 1996              	.LBB599:
 1997              	.LBB578:
 1998              	.LBB555:
 1999              	.LBB550:
 2000              	.LBB546:
 2001              	.LBI539:
 2002              		.loc 4 669 27 view .LVU593
 2003              	.LBE546:
 2004              	.LBE550:
 2005              	.LBE555:
 2006              	.LBE578:
 2007              	.LBE599:
 2008              		.loc 4 677 3 view .LVU594
 2009              	.LBB600:
 2010              	.LBB579:
 2011              	.LBB556:
 2012              	.LBB551:
 2013              	.LBB547:
 2014              	.LBB544:
 2015              	.LBI540:
 2016              		.loc 5 491 27 view .LVU595
 2017              	.LBB542:
 2018              		.loc 5 493 3 view .LVU596
 2019              	.LBE542:
 2020              	.LBE544:
 2021              	.LBE547:
 2022              	.LBE551:
 2023              	.LBE556:
 2024              	.LBE579:
 2025              		.loc 1 733 10 is_stmt 0 view .LVU597
 2026 03a6 54F8043F 		ldr	r3, [r4, #4]!
 2027 03aa ABB1     		cbz	r3, .L99
 2028              	.LBB580:
 2029              	.LBB557:
 2030              	.LBB552:
 2031              	.LBB548:
 2032              	.LBB545:
ARM GAS  /tmp/ccpnbTSa.s 			page 37


 2033              	.LBB543:
 2034              		.loc 5 493 3 view .LVU598
 2035              		.syntax unified
 2036              	@ 493 "../../../external/ChibiOS/os/common/ext/ARM/CMSIS/Core/Include/cmsis_gcc.h" 1
 2037 03ac 87F31188 		MSR basepri, r7
 2038              	@ 0 "" 2
 2039              	.LVL93:
 2040              		.loc 5 493 3 view .LVU599
 2041              		.thumb
 2042              		.syntax unified
 2043              	.LBE543:
 2044              	.LBE545:
 2045              	.LBE548:
 2046              	.LBE552:
 2047              	.LBE557:
 2048              	.LBE580:
 2049              	.LBE600:
 2050              		.loc 3 396 34 is_stmt 1 view .LVU600
 2051              		.loc 3 397 29 view .LVU601
 2052              	.LBB601:
 2053              		.loc 1 735 9 view .LVU602
 2054              		.loc 1 736 11 view .LVU603
 2055              		.loc 1 735 22 is_stmt 0 view .LVU604
 2056 03b0 2368     		ldr	r3, [r4]
 2057              	.LBB581:
 2058              	.LBB582:
 2059              		.loc 2 775 3 view .LVU605
 2060 03b2 6FF00101 		mvn	r1, #1
 2061              	.LBE582:
 2062              	.LBE581:
 2063              		.loc 1 735 25 view .LVU606
 2064 03b6 5A69     		ldr	r2, [r3, #20]
 2065              	.LVL94:
 2066              	.LBB585:
 2067              	.LBI581:
 2068              		.loc 2 773 20 is_stmt 1 view .LVU607
 2069              	.LBB583:
 2070              		.loc 2 775 3 view .LVU608
 2071 03b8 02F10C00 		add	r0, r2, #12
 2072              	.LVL95:
 2073              		.loc 2 775 3 is_stmt 0 view .LVU609
 2074              	.LBE583:
 2075              	.LBE585:
 2076              		.loc 1 735 12 view .LVU610
 2077 03bc 12B1     		cbz	r2, .L100
 2078              	.LBB586:
 2079              	.LBB584:
 2080              		.loc 2 775 3 view .LVU611
 2081 03be FFF7FEFF 		bl	chThdResumeI
 2082              	.LVL96:
 2083              		.loc 2 775 3 view .LVU612
 2084 03c2 2368     		ldr	r3, [r4]
 2085              	.L100:
 2086              	.LBE584:
 2087              	.LBE586:
 2088              		.loc 1 738 9 is_stmt 1 view .LVU613
 2089              		.loc 1 739 11 view .LVU614
ARM GAS  /tmp/ccpnbTSa.s 			page 38


 2090              		.loc 1 738 25 is_stmt 0 view .LVU615
 2091 03c4 9B69     		ldr	r3, [r3, #24]
 2092              	.LVL97:
 2093              	.LBB587:
 2094              	.LBI587:
 2095              		.loc 2 773 20 is_stmt 1 view .LVU616
 2096              	.LBB588:
 2097              		.loc 2 775 3 view .LVU617
 2098 03c6 6FF00101 		mvn	r1, #1
 2099 03ca 03F10C00 		add	r0, r3, #12
 2100              	.LVL98:
 2101              		.loc 2 775 3 is_stmt 0 view .LVU618
 2102              	.LBE588:
 2103              	.LBE587:
 2104              		.loc 1 738 12 view .LVU619
 2105 03ce 0BB1     		cbz	r3, .L101
 2106              	.LBB590:
 2107              	.LBB589:
 2108              		.loc 2 775 3 view .LVU620
 2109 03d0 FFF7FEFF 		bl	chThdResumeI
 2110              	.LVL99:
 2111              	.L101:
 2112              		.loc 2 775 3 view .LVU621
 2113              	.LBE589:
 2114              	.LBE590:
 2115              		.loc 1 741 9 is_stmt 1 view .LVU622
 2116              	.LBB591:
 2117              	.LBI558:
 2118              		.loc 2 542 20 view .LVU623
 2119              	.LBE591:
 2120              	.LBE601:
 2121              		.loc 2 544 3 view .LVU624
 2122              	.LBB602:
 2123              	.LBB592:
 2124              	.LBB571:
 2125              	.LBI559:
 2126              		.loc 3 413 20 view .LVU625
 2127              	.LBE571:
 2128              	.LBE592:
 2129              	.LBE602:
 2130              		.loc 3 415 31 view .LVU626
 2131              		.loc 3 416 33 view .LVU627
 2132              		.loc 3 417 3 view .LVU628
 2133              	.LBB603:
 2134              	.LBB593:
 2135              	.LBB572:
 2136              	.LBB568:
 2137              	.LBI560:
 2138              		.loc 4 719 27 view .LVU629
 2139              	.LBE568:
 2140              	.LBE572:
 2141              	.LBE593:
 2142              	.LBE603:
 2143              		.loc 4 721 3 view .LVU630
 2144              	.LBB604:
 2145              	.LBB594:
 2146              	.LBB573:
ARM GAS  /tmp/ccpnbTSa.s 			page 39


 2147              	.LBB569:
 2148              	.LBB566:
 2149              	.LBI561:
 2150              		.loc 4 693 27 view .LVU631
 2151              	.LBE566:
 2152              	.LBE569:
 2153              	.LBE573:
 2154              	.LBE594:
 2155              	.LBE604:
 2156              		.loc 4 696 3 view .LVU632
 2157              	.LBB605:
 2158              	.LBB595:
 2159              	.LBB574:
 2160              	.LBB570:
 2161              	.LBB567:
 2162              	.LBB565:
 2163              	.LBI562:
 2164              		.loc 5 491 27 view .LVU633
 2165              	.LBB564:
 2166              		.loc 5 493 3 view .LVU634
 2167              		.syntax unified
 2168              	@ 493 "../../../external/ChibiOS/os/common/ext/ARM/CMSIS/Core/Include/cmsis_gcc.h" 1
 2169 03d4 86F31188 		MSR basepri, r6
 2170              	@ 0 "" 2
 2171              	.LVL100:
 2172              		.thumb
 2173              		.syntax unified
 2174              	.L99:
 2175              		.loc 5 493 3 is_stmt 0 view .LVU635
 2176              	.LBE564:
 2177              	.LBE565:
 2178              	.LBE567:
 2179              	.LBE570:
 2180              	.LBE574:
 2181              	.LBE595:
 2182              		.loc 1 732 5 discriminator 2 view .LVU636
 2183 03d8 AC42     		cmp	r4, r5
 2184 03da E4D1     		bne	.L102
 2185              	.LBE605:
 2186              		.loc 1 746 1 view .LVU637
 2187 03dc F8BD     		pop	{r3, r4, r5, r6, r7, pc}
 2188              		.loc 1 746 1 view .LVU638
 2189              		.cfi_endproc
 2190              	.LFE379:
 2191              		.size	_usb_suspend, .-_usb_suspend
 2192              		.align	1
 2193 03de 00BF     		.p2align 4,,15
 2194              		.global	_usb_wakeup
 2195              		.syntax unified
 2196              		.thumb
 2197              		.thumb_func
 2198              		.fpu fpv4-sp-d16
 2199              		.type	_usb_wakeup, %function
 2200              	_usb_wakeup:
 2201              	.LVL101:
 2202              	.LFB380:
 2203              		.loc 1 757 35 is_stmt 1 view -0
ARM GAS  /tmp/ccpnbTSa.s 			page 40


 2204              		.cfi_startproc
 2205              		@ args = 0, pretend = 0, frame = 0
 2206              		@ frame_needed = 0, uses_anonymous_args = 0
 2207              		@ link register save eliminated.
 2208              		.loc 1 760 3 view .LVU640
 2209              		.loc 1 763 3 is_stmt 0 view .LVU641
 2210 03e0 4268     		ldr	r2, [r0, #4]
 2211              		.loc 1 760 15 view .LVU642
 2212 03e2 90F88C10 		ldrb	r1, [r0, #140]	@ zero_extendqisi2
 2213              		.loc 1 763 3 view .LVU643
 2214 03e6 1268     		ldr	r2, [r2]
 2215              		.loc 1 760 15 view .LVU644
 2216 03e8 0170     		strb	r1, [r0]
 2217              		.loc 1 763 3 is_stmt 1 view .LVU645
 2218 03ea 0AB1     		cbz	r2, .L117
 2219              		.loc 1 763 3 discriminator 1 view .LVU646
 2220 03ec 0521     		movs	r1, #5
 2221 03ee 1047     		bx	r2	@ indirect register sibling call
 2222              	.LVL102:
 2223              	.L117:
 2224              		.loc 1 764 1 is_stmt 0 view .LVU647
 2225 03f0 7047     		bx	lr
 2226              		.cfi_endproc
 2227              	.LFE380:
 2228              		.size	_usb_wakeup, .-_usb_wakeup
 2229              		.align	1
 2230 03f2 00BFAFF3 		.p2align 4,,15
 2230      0080AFF3 
 2230      0080AFF3 
 2230      0080
 2231              		.global	_usb_ep0setup
 2232              		.syntax unified
 2233              		.thumb
 2234              		.thumb_func
 2235              		.fpu fpv4-sp-d16
 2236              		.type	_usb_ep0setup, %function
 2237              	_usb_ep0setup:
 2238              	.LVL103:
 2239              	.LFB381:
 2240              		.loc 1 776 49 is_stmt 1 view -0
 2241              		.cfi_startproc
 2242              		@ args = 0, pretend = 0, frame = 0
 2243              		@ frame_needed = 0, uses_anonymous_args = 0
 2244              		.loc 1 777 3 view .LVU649
 2245              		.loc 1 781 3 view .LVU650
 2246              		.loc 1 781 6 is_stmt 0 view .LVU651
 2247 0400 90F87030 		ldrb	r3, [r0, #112]	@ zero_extendqisi2
 2248              		.loc 1 776 49 view .LVU652
 2249 0404 70B5     		push	{r4, r5, r6, lr}
 2250              		.cfi_def_cfa_offset 16
 2251              		.cfi_offset 4, -16
 2252              		.cfi_offset 5, -12
 2253              		.cfi_offset 6, -8
 2254              		.cfi_offset 14, -4
 2255              		.loc 1 776 49 view .LVU653
 2256 0406 0446     		mov	r4, r0
 2257              		.loc 1 781 6 view .LVU654
ARM GAS  /tmp/ccpnbTSa.s 			page 41


 2258 0408 13B1     		cbz	r3, .L120
 2259              		.loc 1 786 5 is_stmt 1 view .LVU655
 2260              		.loc 1 786 20 is_stmt 0 view .LVU656
 2261 040a 0023     		movs	r3, #0
 2262 040c 80F87030 		strb	r3, [r0, #112]
 2263              	.L120:
 2264              		.loc 1 790 3 is_stmt 1 view .LVU657
 2265 0410 04F18002 		add	r2, r4, #128
 2266 0414 2046     		mov	r0, r4
 2267              	.LVL104:
 2268              		.loc 1 790 3 is_stmt 0 view .LVU658
 2269 0416 FFF7FEFF 		bl	usb_lld_read_setup
 2270              	.LVL105:
 2271              		.loc 1 795 3 is_stmt 1 view .LVU659
 2272              		.loc 1 795 20 is_stmt 0 view .LVU660
 2273 041a 6368     		ldr	r3, [r4, #4]
 2274 041c 9B68     		ldr	r3, [r3, #8]
 2275              		.loc 1 795 6 view .LVU661
 2276 041e 73B3     		cbz	r3, .L125
 2277              		.loc 1 796 9 discriminator 1 view .LVU662
 2278 0420 2046     		mov	r0, r4
 2279 0422 9847     		blx	r3
 2280              	.LVL106:
 2281              		.loc 1 795 48 discriminator 1 view .LVU663
 2282 0424 58B3     		cbz	r0, .L125
 2283 0426 A56F     		ldr	r5, [r4, #120]
 2284 0428 94F88020 		ldrb	r2, [r4, #128]	@ zero_extendqisi2
 2285              	.L142:
 2286              		.loc 1 823 3 is_stmt 1 view .LVU664
 2287              	.LVL107:
 2288              	.LBB682:
 2289              	.LBI682:
 2290              		.loc 1 51 17 view .LVU665
 2291              	.LBB683:
 2292              		.loc 1 52 3 view .LVU666
 2293              		.loc 1 54 3 view .LVU667
 2294              		.loc 1 55 3 view .LVU668
 2295              		.loc 1 56 3 view .LVU669
 2296              		.loc 1 55 9 is_stmt 0 view .LVU670
 2297 042c 94F88710 		ldrb	r1, [r4, #135]	@ zero_extendqisi2
 2298              		.loc 1 55 6 view .LVU671
 2299 0430 94F88630 		ldrb	r3, [r4, #134]	@ zero_extendqisi2
 2300              	.LBE683:
 2301              	.LBE682:
 2302              		.loc 1 823 7 view .LVU672
 2303 0434 43EA0123 		orr	r3, r3, r1, lsl #8
 2304              	.LVL108:
 2305              		.loc 1 825 3 is_stmt 1 view .LVU673
 2306              		.loc 1 825 6 is_stmt 0 view .LVU674
 2307 0438 AB42     		cmp	r3, r5
 2308 043a 01D2     		bcs	.L163
 2309              		.loc 1 826 5 is_stmt 1 view .LVU675
 2310              		.loc 1 826 16 is_stmt 0 view .LVU676
 2311 043c 1D46     		mov	r5, r3
 2312 043e A367     		str	r3, [r4, #120]
 2313              	.L163:
 2314              		.loc 1 828 3 is_stmt 1 view .LVU677
ARM GAS  /tmp/ccpnbTSa.s 			page 42


 2315              		.loc 1 828 6 is_stmt 0 view .LVU678
 2316 0440 1206     		lsls	r2, r2, #24
 2317 0442 00F1A380 		bmi	.L204
 2318              		.loc 1 852 5 is_stmt 1 view .LVU679
 2319              		.loc 1 852 8 is_stmt 0 view .LVU680
 2320 0446 002D     		cmp	r5, #0
 2321 0448 00F08880 		beq	.L166
 2322              		.loc 1 854 7 is_stmt 1 view .LVU681
 2323              		.loc 1 854 22 is_stmt 0 view .LVU682
 2324 044c 1522     		movs	r2, #21
 2325              	.LBB685:
 2326              	.LBB686:
 2327              	.LBB687:
 2328              	.LBB688:
 2329              	.LBB689:
 2330              	.LBB690:
 2331              		.loc 5 493 3 view .LVU683
 2332 044e 2023     		movs	r3, #32
 2333              	.LVL109:
 2334              		.loc 5 493 3 view .LVU684
 2335              	.LBE690:
 2336              	.LBE689:
 2337              	.LBE688:
 2338              	.LBE687:
 2339              	.LBE686:
 2340              	.LBE685:
 2341              		.loc 1 854 22 view .LVU685
 2342 0450 84F87020 		strb	r2, [r4, #112]
 2343              		.loc 1 855 7 is_stmt 1 view .LVU686
 2344              	.LBB702:
 2345              	.LBI685:
 2346              		.loc 2 531 20 view .LVU687
 2347              	.LBE702:
 2348              		.loc 2 533 3 view .LVU688
 2349              	.LBB703:
 2350              	.LBB698:
 2351              	.LBI686:
 2352              		.loc 3 393 20 view .LVU689
 2353              	.LBE698:
 2354              	.LBE703:
 2355              		.loc 3 395 3 view .LVU690
 2356              	.LBB704:
 2357              	.LBB699:
 2358              	.LBB695:
 2359              	.LBI687:
 2360              		.loc 4 708 27 view .LVU691
 2361              	.LBE695:
 2362              	.LBE699:
 2363              	.LBE704:
 2364              		.loc 4 710 3 view .LVU692
 2365              	.LBB705:
 2366              	.LBB700:
 2367              	.LBB696:
 2368              	.LBB693:
 2369              	.LBI688:
 2370              		.loc 4 669 27 view .LVU693
 2371              	.LBE693:
ARM GAS  /tmp/ccpnbTSa.s 			page 43


 2372              	.LBE696:
 2373              	.LBE700:
 2374              	.LBE705:
 2375              		.loc 4 677 3 view .LVU694
 2376              	.LVL110:
 2377              	.LBB706:
 2378              	.LBB701:
 2379              	.LBB697:
 2380              	.LBB694:
 2381              	.LBB692:
 2382              	.LBI689:
 2383              		.loc 5 491 27 view .LVU695
 2384              	.LBB691:
 2385              		.loc 5 493 3 view .LVU696
 2386              		.syntax unified
 2387              	@ 493 "../../../external/ChibiOS/os/common/ext/ARM/CMSIS/Core/Include/cmsis_gcc.h" 1
 2388 0454 83F31188 		MSR basepri, r3
 2389              	@ 0 "" 2
 2390              	.LVL111:
 2391              		.loc 5 493 3 is_stmt 0 view .LVU697
 2392              		.thumb
 2393              		.syntax unified
 2394              	.LBE691:
 2395              	.LBE692:
 2396              	.LBE694:
 2397              	.LBE697:
 2398              	.LBE701:
 2399              	.LBE706:
 2400              		.loc 3 396 34 is_stmt 1 view .LVU698
 2401              		.loc 3 397 29 view .LVU699
 2402              		.loc 1 856 7 view .LVU700
 2403              	.LBB707:
 2404              	.LBB708:
 2405              		.loc 1 462 19 is_stmt 0 view .LVU701
 2406 0458 6289     		ldrh	r2, [r4, #10]
 2407              		.loc 1 470 15 view .LVU702
 2408 045a 0025     		movs	r5, #0
 2409              		.loc 1 466 7 view .LVU703
 2410 045c E368     		ldr	r3, [r4, #12]
 2411              		.loc 1 476 3 view .LVU704
 2412 045e 2046     		mov	r0, r4
 2413              		.loc 1 462 19 view .LVU705
 2414 0460 42F00102 		orr	r2, r2, #1
 2415              	.LBE708:
 2416              	.LBE707:
 2417              		.loc 1 856 7 view .LVU706
 2418 0464 666F     		ldr	r6, [r4, #116]
 2419              	.LBB711:
 2420              	.LBB709:
 2421              		.loc 1 466 7 view .LVU707
 2422 0466 9B69     		ldr	r3, [r3, #24]
 2423              		.loc 1 476 3 view .LVU708
 2424 0468 2946     		mov	r1, r5
 2425              	.LVL112:
 2426              		.loc 1 462 19 view .LVU709
 2427 046a 6281     		strh	r2, [r4, #10]	@ movhi
 2428              	.LBE709:
ARM GAS  /tmp/ccpnbTSa.s 			page 44


 2429              	.LBE711:
 2430              		.loc 1 856 7 view .LVU710
 2431 046c A26F     		ldr	r2, [r4, #120]
 2432              	.LVL113:
 2433              	.LBB712:
 2434              	.LBI707:
 2435              		.loc 1 453 6 is_stmt 1 view .LVU711
 2436              	.LBB710:
 2437              		.loc 1 455 3 view .LVU712
 2438              		.loc 1 457 23 view .LVU713
 2439              		.loc 1 458 3 view .LVU714
 2440              		.loc 1 458 3 view .LVU715
 2441              		.loc 1 459 3 view .LVU716
 2442              		.loc 1 459 3 view .LVU717
 2443              		.loc 1 462 3 view .LVU718
 2444              		.loc 1 466 3 view .LVU719
 2445              		.loc 1 468 3 view .LVU720
 2446              		.loc 1 472 15 is_stmt 0 view .LVU721
 2447 046e DD60     		str	r5, [r3, #12]
 2448              	.LVL114:
 2449              		.loc 1 470 15 view .LVU722
 2450 0470 83E86400 		stm	r3, {r2, r5, r6}
 2451              		.loc 1 472 3 is_stmt 1 view .LVU723
 2452              		.loc 1 476 3 view .LVU724
 2453 0474 FFF7FEFF 		bl	usb_lld_start_out
 2454              	.LVL115:
 2455              		.loc 1 476 3 is_stmt 0 view .LVU725
 2456              	.LBE710:
 2457              	.LBE712:
 2458              		.loc 1 857 7 is_stmt 1 view .LVU726
 2459              	.LBB713:
 2460              	.LBI713:
 2461              		.loc 2 542 20 view .LVU727
 2462              	.LBE713:
 2463              		.loc 2 544 3 view .LVU728
 2464              	.LBB725:
 2465              	.LBB714:
 2466              	.LBI714:
 2467              		.loc 3 413 20 view .LVU729
 2468              	.LBE714:
 2469              	.LBE725:
 2470              		.loc 3 415 31 view .LVU730
 2471              		.loc 3 416 33 view .LVU731
 2472              		.loc 3 417 3 view .LVU732
 2473              	.LBB726:
 2474              	.LBB722:
 2475              	.LBB715:
 2476              	.LBI715:
 2477              		.loc 4 719 27 view .LVU733
 2478              	.LBE715:
 2479              	.LBE722:
 2480              	.LBE726:
 2481              		.loc 4 721 3 view .LVU734
 2482              	.LBB727:
 2483              	.LBB723:
 2484              	.LBB720:
 2485              	.LBB716:
ARM GAS  /tmp/ccpnbTSa.s 			page 45


 2486              	.LBI716:
 2487              		.loc 4 693 27 view .LVU735
 2488              	.LBE716:
 2489              	.LBE720:
 2490              	.LBE723:
 2491              	.LBE727:
 2492              		.loc 4 696 3 view .LVU736
 2493              	.LBB728:
 2494              	.LBB724:
 2495              	.LBB721:
 2496              	.LBB719:
 2497              	.LBB717:
 2498              	.LBI717:
 2499              		.loc 5 491 27 view .LVU737
 2500              	.LBB718:
 2501              		.loc 5 493 3 view .LVU738
 2502              		.syntax unified
 2503              	@ 493 "../../../external/ChibiOS/os/common/ext/ARM/CMSIS/Core/Include/cmsis_gcc.h" 1
 2504 0478 85F31188 		MSR basepri, r5
 2505              	@ 0 "" 2
 2506              	.LVL116:
 2507              		.loc 5 493 3 is_stmt 0 view .LVU739
 2508              		.thumb
 2509              		.syntax unified
 2510              	.LBE718:
 2511              	.LBE717:
 2512              	.LBE719:
 2513              	.LBE721:
 2514              	.LBE724:
 2515              	.LBE728:
 2516              		.loc 1 872 1 view .LVU740
 2517 047c 70BD     		pop	{r4, r5, r6, pc}
 2518              	.LVL117:
 2519              	.L125:
 2520              		.loc 1 801 5 is_stmt 1 view .LVU741
 2521              		.loc 1 801 22 is_stmt 0 view .LVU742
 2522 047e 94F88020 		ldrb	r2, [r4, #128]	@ zero_extendqisi2
 2523              		.loc 1 801 8 view .LVU743
 2524 0482 12F06006 		ands	r6, r2, #96
 2525 0486 1BD1     		bne	.L141
 2526              	.LVL118:
 2527              	.LBB729:
 2528              	.LBI729:
 2529              		.loc 1 84 13 is_stmt 1 view .LVU744
 2530              	.LBB730:
 2531              		.loc 1 85 3 view .LVU745
 2532              		.loc 1 88 3 view .LVU746
 2533              		.loc 1 90 13 is_stmt 0 view .LVU747
 2534 0488 94F88110 		ldrb	r1, [r4, #129]	@ zero_extendqisi2
 2535              		.loc 1 88 38 view .LVU748
 2536 048c 02F07F05 		and	r5, r2, #127
 2537              		.loc 1 88 3 view .LVU749
 2538 0490 40F20233 		movw	r3, #770
 2539              		.loc 1 89 63 view .LVU750
 2540 0494 45EA0125 		orr	r5, r5, r1, lsl #8
 2541              		.loc 1 88 3 view .LVU751
 2542 0498 9D42     		cmp	r5, r3
ARM GAS  /tmp/ccpnbTSa.s 			page 46


 2543 049a 00F0BB80 		beq	.L126
 2544 049e 2AD8     		bhi	.L127
 2545 04a0 022D     		cmp	r5, #2
 2546 04a2 00F0CA80 		beq	.L128
 2547 04a6 1DD9     		bls	.L205
 2548 04a8 B5F5817F 		cmp	r5, #258
 2549 04ac 00F0DA80 		beq	.L133
 2550 04b0 B5F5407F 		cmp	r5, #768
 2551 04b4 00F0E980 		beq	.L134
 2552 04b8 B5F5807F 		cmp	r5, #256
 2553 04bc 00F0F480 		beq	.L206
 2554              	.LVL119:
 2555              	.L141:
 2556              		.loc 1 88 3 view .LVU752
 2557              	.LBE730:
 2558              	.LBE729:
 2559              		.loc 1 807 7 is_stmt 1 view .LVU753
 2560 04c0 0021     		movs	r1, #0
 2561 04c2 2046     		mov	r0, r4
 2562 04c4 FFF7FEFF 		bl	usb_lld_stall_in
 2563              	.LVL120:
 2564              		.loc 1 808 7 view .LVU754
 2565 04c8 0021     		movs	r1, #0
 2566 04ca 2046     		mov	r0, r4
 2567 04cc FFF7FEFF 		bl	usb_lld_stall_out
 2568              	.LVL121:
 2569              		.loc 1 809 7 view .LVU755
 2570 04d0 6368     		ldr	r3, [r4, #4]
 2571 04d2 1B68     		ldr	r3, [r3]
 2572 04d4 13B1     		cbz	r3, .L161
 2573              		.loc 1 809 7 discriminator 1 view .LVU756
 2574 04d6 0621     		movs	r1, #6
 2575 04d8 2046     		mov	r0, r4
 2576 04da 9847     		blx	r3
 2577              	.LVL122:
 2578              	.L161:
 2579              		.loc 1 809 56 discriminator 3 view .LVU757
 2580              		.loc 1 810 7 discriminator 3 view .LVU758
 2581              		.loc 1 810 22 is_stmt 0 discriminator 3 view .LVU759
 2582 04dc 0623     		movs	r3, #6
 2583 04de 84F87030 		strb	r3, [r4, #112]
 2584              		.loc 1 811 7 is_stmt 1 discriminator 3 view .LVU760
 2585              		.loc 1 872 1 is_stmt 0 discriminator 3 view .LVU761
 2586 04e2 70BD     		pop	{r4, r5, r6, pc}
 2587              	.LVL123:
 2588              	.L205:
 2589              	.LBB780:
 2590              	.LBB769:
 2591              		.loc 1 88 3 view .LVU762
 2592 04e4 F5B9     		cbnz	r5, .L207
 2593              		.loc 1 93 5 is_stmt 1 view .LVU763
 2594 04e6 0223     		movs	r3, #2
 2595 04e8 04F18801 		add	r1, r4, #136
 2596 04ec E567     		str	r5, [r4, #124]
 2597 04ee 6167     		str	r1, [r4, #116]
 2598              		.loc 1 93 5 view .LVU764
 2599 04f0 1D46     		mov	r5, r3
ARM GAS  /tmp/ccpnbTSa.s 			page 47


 2600 04f2 A367     		str	r3, [r4, #120]
 2601              		.loc 1 93 5 view .LVU765
 2602              		.loc 1 93 62 view .LVU766
 2603              		.loc 1 94 5 view .LVU767
 2604              	.LVL124:
 2605              		.loc 1 94 5 is_stmt 0 view .LVU768
 2606 04f4 9AE7     		b	.L142
 2607              	.LVL125:
 2608              	.L127:
 2609              		.loc 1 88 3 view .LVU769
 2610 04f6 40F20163 		movw	r3, #1537
 2611 04fa 9D42     		cmp	r5, r3
 2612 04fc 1CD9     		bls	.L208
 2613 04fe B5F5106F 		cmp	r5, #2304
 2614 0502 00F0F980 		beq	.L139
 2615 0506 40F60243 		movw	r3, #3074
 2616 050a 9D42     		cmp	r5, r3
 2617 050c 0CD0     		beq	.L131
 2618 050e B5F5006F 		cmp	r5, #2048
 2619 0512 D5D1     		bne	.L141
 2620              		.loc 1 142 5 is_stmt 1 view .LVU770
 2621 0514 0123     		movs	r3, #1
 2622 0516 04F18B01 		add	r1, r4, #139
 2623 051a E667     		str	r6, [r4, #124]
 2624 051c 6167     		str	r1, [r4, #116]
 2625              		.loc 1 142 5 view .LVU771
 2626 051e 1D46     		mov	r5, r3
 2627 0520 A367     		str	r3, [r4, #120]
 2628              		.loc 1 142 5 view .LVU772
 2629              		.loc 1 142 58 view .LVU773
 2630              		.loc 1 143 5 view .LVU774
 2631              	.LVL126:
 2632              		.loc 1 143 5 is_stmt 0 view .LVU775
 2633 0522 83E7     		b	.L142
 2634              	.LVL127:
 2635              	.L207:
 2636              		.loc 1 88 3 view .LVU776
 2637 0524 012D     		cmp	r5, #1
 2638 0526 CBD1     		bne	.L141
 2639              	.L131:
 2640              		.loc 1 176 5 is_stmt 1 view .LVU777
 2641 0528 0223     		movs	r3, #2
 2642 052a 9348     		ldr	r0, .L214
 2643 052c 0021     		movs	r1, #0
 2644 052e 6067     		str	r0, [r4, #116]
 2645              		.loc 1 176 5 view .LVU778
 2646 0530 1D46     		mov	r5, r3
 2647 0532 C4E91E31 		strd	r3, r1, [r4, #120]
 2648              		.loc 1 176 60 view .LVU779
 2649              		.loc 1 178 5 view .LVU780
 2650              	.LVL128:
 2651              		.loc 1 178 5 is_stmt 0 view .LVU781
 2652 0536 79E7     		b	.L142
 2653              	.LVL129:
 2654              	.L208:
 2655              		.loc 1 88 3 view .LVU782
 2656 0538 B5F5C06F 		cmp	r5, #1536
ARM GAS  /tmp/ccpnbTSa.s 			page 48


 2657 053c 80F0C380 		bcs	.L137
 2658 0540 B5F5A06F 		cmp	r5, #1280
 2659 0544 BCD1     		bne	.L141
 2660              		.loc 1 118 5 is_stmt 1 view .LVU783
 2661              		.loc 1 118 8 is_stmt 0 view .LVU784
 2662 0546 B4F88030 		ldrh	r3, [r4, #128]
 2663 054a B3F5A06F 		cmp	r3, #1280
 2664 054e 4FD0     		beq	.L209
 2665              	.L159:
 2666              		.loc 1 245 5 is_stmt 1 view .LVU785
 2667 0550 0023     		movs	r3, #0
 2668 0552 C4E91D33 		strd	r3, r3, [r4, #116]
 2669              		.loc 1 245 5 view .LVU786
 2670 0556 E367     		str	r3, [r4, #124]
 2671              		.loc 1 245 42 view .LVU787
 2672              		.loc 1 246 5 view .LVU788
 2673              	.LVL130:
 2674              	.L143:
 2675              		.loc 1 246 5 is_stmt 0 view .LVU789
 2676              	.LBE769:
 2677              	.LBE780:
 2678              		.loc 1 823 3 is_stmt 1 view .LVU790
 2679              	.LBB781:
 2680              		.loc 1 51 17 view .LVU791
 2681              	.LBB684:
 2682              		.loc 1 52 3 view .LVU792
 2683              		.loc 1 54 3 view .LVU793
 2684              		.loc 1 55 3 view .LVU794
 2685              		.loc 1 56 3 view .LVU795
 2686              		.loc 1 56 3 is_stmt 0 view .LVU796
 2687              	.LBE684:
 2688              	.LBE781:
 2689              		.loc 1 825 3 is_stmt 1 view .LVU797
 2690              		.loc 1 828 3 view .LVU798
 2691              		.loc 1 828 6 is_stmt 0 view .LVU799
 2692 0558 1306     		lsls	r3, r2, #24
 2693 055a 31D4     		bmi	.L165
 2694              	.LVL131:
 2695              	.L166:
 2696              		.loc 1 862 7 is_stmt 1 view .LVU800
 2697              		.loc 1 862 22 is_stmt 0 view .LVU801
 2698 055c 0B22     		movs	r2, #11
 2699              	.LBB782:
 2700              	.LBB783:
 2701              	.LBB784:
 2702              	.LBB785:
 2703              	.LBB786:
 2704              	.LBB787:
 2705              		.loc 5 493 3 view .LVU802
 2706 055e 2023     		movs	r3, #32
 2707              	.LBE787:
 2708              	.LBE786:
 2709              	.LBE785:
 2710              	.LBE784:
 2711              	.LBE783:
 2712              	.LBE782:
 2713              		.loc 1 862 22 view .LVU803
ARM GAS  /tmp/ccpnbTSa.s 			page 49


 2714 0560 84F87020 		strb	r2, [r4, #112]
 2715              		.loc 1 864 7 is_stmt 1 view .LVU804
 2716              	.LBB799:
 2717              	.LBI782:
 2718              		.loc 2 531 20 view .LVU805
 2719              	.LBE799:
 2720              		.loc 2 533 3 view .LVU806
 2721              	.LBB800:
 2722              	.LBB795:
 2723              	.LBI783:
 2724              		.loc 3 393 20 view .LVU807
 2725              	.LBE795:
 2726              	.LBE800:
 2727              		.loc 3 395 3 view .LVU808
 2728              	.LBB801:
 2729              	.LBB796:
 2730              	.LBB792:
 2731              	.LBI784:
 2732              		.loc 4 708 27 view .LVU809
 2733              	.LBE792:
 2734              	.LBE796:
 2735              	.LBE801:
 2736              		.loc 4 710 3 view .LVU810
 2737              	.LBB802:
 2738              	.LBB797:
 2739              	.LBB793:
 2740              	.LBB790:
 2741              	.LBI785:
 2742              		.loc 4 669 27 view .LVU811
 2743              	.LBE790:
 2744              	.LBE793:
 2745              	.LBE797:
 2746              	.LBE802:
 2747              		.loc 4 677 3 view .LVU812
 2748              	.LVL132:
 2749              	.LBB803:
 2750              	.LBB798:
 2751              	.LBB794:
 2752              	.LBB791:
 2753              	.LBB789:
 2754              	.LBI786:
 2755              		.loc 5 491 27 view .LVU813
 2756              	.LBB788:
 2757              		.loc 5 493 3 view .LVU814
 2758              		.syntax unified
 2759              	@ 493 "../../../external/ChibiOS/os/common/ext/ARM/CMSIS/Core/Include/cmsis_gcc.h" 1
 2760 0564 83F31188 		MSR basepri, r3
 2761              	@ 0 "" 2
 2762              	.LVL133:
 2763              		.loc 5 493 3 is_stmt 0 view .LVU815
 2764              		.thumb
 2765              		.syntax unified
 2766              	.LBE788:
 2767              	.LBE789:
 2768              	.LBE791:
 2769              	.LBE794:
 2770              	.LBE798:
ARM GAS  /tmp/ccpnbTSa.s 			page 50


 2771              	.LBE803:
 2772              		.loc 3 396 34 is_stmt 1 view .LVU816
 2773              		.loc 3 397 29 view .LVU817
 2774              		.loc 1 865 7 view .LVU818
 2775              	.LBB804:
 2776              	.LBI804:
 2777              		.loc 1 492 6 view .LVU819
 2778              	.LBB805:
 2779              		.loc 1 494 3 view .LVU820
 2780              		.loc 1 496 23 view .LVU821
 2781              		.loc 1 497 3 view .LVU822
 2782              		.loc 1 497 3 view .LVU823
 2783              		.loc 1 498 3 view .LVU824
 2784              		.loc 1 498 3 view .LVU825
 2785              		.loc 1 501 3 view .LVU826
 2786              		.loc 1 501 22 is_stmt 0 view .LVU827
 2787 0568 2289     		ldrh	r2, [r4, #8]
 2788              		.loc 1 507 15 view .LVU828
 2789 056a 0025     		movs	r5, #0
 2790              		.loc 1 505 7 view .LVU829
 2791 056c E368     		ldr	r3, [r4, #12]
 2792              		.loc 1 515 3 view .LVU830
 2793 056e 2046     		mov	r0, r4
 2794              		.loc 1 501 22 view .LVU831
 2795 0570 42F00102 		orr	r2, r2, #1
 2796              		.loc 1 515 3 view .LVU832
 2797 0574 2946     		mov	r1, r5
 2798              		.loc 1 505 7 view .LVU833
 2799 0576 5B69     		ldr	r3, [r3, #20]
 2800              		.loc 1 501 22 view .LVU834
 2801 0578 2281     		strh	r2, [r4, #8]	@ movhi
 2802              		.loc 1 505 3 is_stmt 1 view .LVU835
 2803              	.LVL134:
 2804              		.loc 1 507 3 view .LVU836
 2805              		.loc 1 507 15 is_stmt 0 view .LVU837
 2806 057a 9D60     		str	r5, [r3, #8]
 2807              		.loc 1 508 3 is_stmt 1 view .LVU838
 2808              		.loc 1 511 15 is_stmt 0 view .LVU839
 2809 057c DD60     		str	r5, [r3, #12]
 2810              		.loc 1 509 15 view .LVU840
 2811 057e C3E90055 		strd	r5, r5, [r3]
 2812              		.loc 1 511 3 is_stmt 1 view .LVU841
 2813              		.loc 1 515 3 view .LVU842
 2814 0582 FFF7FEFF 		bl	usb_lld_start_in
 2815              	.LVL135:
 2816              		.loc 1 515 3 is_stmt 0 view .LVU843
 2817              	.LBE805:
 2818              	.LBE804:
 2819              		.loc 1 866 7 is_stmt 1 view .LVU844
 2820              	.LBB806:
 2821              	.LBI806:
 2822              		.loc 2 542 20 view .LVU845
 2823              	.LBE806:
 2824              		.loc 2 544 3 view .LVU846
 2825              	.LBB818:
 2826              	.LBB807:
 2827              	.LBI807:
ARM GAS  /tmp/ccpnbTSa.s 			page 51


 2828              		.loc 3 413 20 view .LVU847
 2829              	.LBE807:
 2830              	.LBE818:
 2831              		.loc 3 415 31 view .LVU848
 2832              		.loc 3 416 33 view .LVU849
 2833              		.loc 3 417 3 view .LVU850
 2834              	.LBB819:
 2835              	.LBB815:
 2836              	.LBB808:
 2837              	.LBI808:
 2838              		.loc 4 719 27 view .LVU851
 2839              	.LBE808:
 2840              	.LBE815:
 2841              	.LBE819:
 2842              		.loc 4 721 3 view .LVU852
 2843              	.LBB820:
 2844              	.LBB816:
 2845              	.LBB813:
 2846              	.LBB809:
 2847              	.LBI809:
 2848              		.loc 4 693 27 view .LVU853
 2849              	.LBE809:
 2850              	.LBE813:
 2851              	.LBE816:
 2852              	.LBE820:
 2853              		.loc 4 696 3 view .LVU854
 2854              	.LBB821:
 2855              	.LBB817:
 2856              	.LBB814:
 2857              	.LBB812:
 2858              	.LBB810:
 2859              	.LBI810:
 2860              		.loc 5 491 27 view .LVU855
 2861              	.LBB811:
 2862              		.loc 5 493 3 view .LVU856
 2863              		.syntax unified
 2864              	@ 493 "../../../external/ChibiOS/os/common/ext/ARM/CMSIS/Core/Include/cmsis_gcc.h" 1
 2865 0586 85F31188 		MSR basepri, r5
 2866              	@ 0 "" 2
 2867              	.LVL136:
 2868              		.loc 5 493 3 is_stmt 0 view .LVU857
 2869              		.thumb
 2870              		.syntax unified
 2871              	.LBE811:
 2872              	.LBE810:
 2873              	.LBE812:
 2874              	.LBE814:
 2875              	.LBE817:
 2876              	.LBE821:
 2877              		.loc 1 872 1 view .LVU858
 2878 058a 70BD     		pop	{r4, r5, r6, pc}
 2879              	.LVL137:
 2880              	.L204:
 2881              		.loc 1 830 5 is_stmt 1 view .LVU859
 2882              		.loc 1 830 8 is_stmt 0 view .LVU860
 2883 058c C5B1     		cbz	r5, .L165
 2884              		.loc 1 832 7 is_stmt 1 view .LVU861
ARM GAS  /tmp/ccpnbTSa.s 			page 52


 2885              		.loc 1 832 22 is_stmt 0 view .LVU862
 2886 058e 0922     		movs	r2, #9
 2887              	.LBB822:
 2888              	.LBB823:
 2889              	.LBB824:
 2890              	.LBB825:
 2891              	.LBB826:
 2892              	.LBB827:
 2893              		.loc 5 493 3 view .LVU863
 2894 0590 2023     		movs	r3, #32
 2895              	.LVL138:
 2896              		.loc 5 493 3 view .LVU864
 2897              	.LBE827:
 2898              	.LBE826:
 2899              	.LBE825:
 2900              	.LBE824:
 2901              	.LBE823:
 2902              	.LBE822:
 2903              		.loc 1 832 22 view .LVU865
 2904 0592 84F87020 		strb	r2, [r4, #112]
 2905              		.loc 1 833 7 is_stmt 1 view .LVU866
 2906              	.LBB839:
 2907              	.LBI822:
 2908              		.loc 2 531 20 view .LVU867
 2909              	.LBE839:
 2910              		.loc 2 533 3 view .LVU868
 2911              	.LBB840:
 2912              	.LBB835:
 2913              	.LBI823:
 2914              		.loc 3 393 20 view .LVU869
 2915              	.LBE835:
 2916              	.LBE840:
 2917              		.loc 3 395 3 view .LVU870
 2918              	.LBB841:
 2919              	.LBB836:
 2920              	.LBB832:
 2921              	.LBI824:
 2922              		.loc 4 708 27 view .LVU871
 2923              	.LBE832:
 2924              	.LBE836:
 2925              	.LBE841:
 2926              		.loc 4 710 3 view .LVU872
 2927              	.LBB842:
 2928              	.LBB837:
 2929              	.LBB833:
 2930              	.LBB830:
 2931              	.LBI825:
 2932              		.loc 4 669 27 view .LVU873
 2933              	.LBE830:
 2934              	.LBE833:
 2935              	.LBE837:
 2936              	.LBE842:
 2937              		.loc 4 677 3 view .LVU874
 2938              	.LVL139:
 2939              	.LBB843:
 2940              	.LBB838:
 2941              	.LBB834:
ARM GAS  /tmp/ccpnbTSa.s 			page 53


 2942              	.LBB831:
 2943              	.LBB829:
 2944              	.LBI826:
 2945              		.loc 5 491 27 view .LVU875
 2946              	.LBB828:
 2947              		.loc 5 493 3 view .LVU876
 2948              		.syntax unified
 2949              	@ 493 "../../../external/ChibiOS/os/common/ext/ARM/CMSIS/Core/Include/cmsis_gcc.h" 1
 2950 0596 83F31188 		MSR basepri, r3
 2951              	@ 0 "" 2
 2952              	.LVL140:
 2953              		.loc 5 493 3 is_stmt 0 view .LVU877
 2954              		.thumb
 2955              		.syntax unified
 2956              	.LBE828:
 2957              	.LBE829:
 2958              	.LBE831:
 2959              	.LBE834:
 2960              	.LBE838:
 2961              	.LBE843:
 2962              		.loc 3 396 34 is_stmt 1 view .LVU878
 2963              		.loc 3 397 29 view .LVU879
 2964              		.loc 1 834 7 view .LVU880
 2965              	.LBB844:
 2966              	.LBB845:
 2967              		.loc 1 501 22 is_stmt 0 view .LVU881
 2968 059a 2289     		ldrh	r2, [r4, #8]
 2969              		.loc 1 509 15 view .LVU882
 2970 059c 0025     		movs	r5, #0
 2971              		.loc 1 505 7 view .LVU883
 2972 059e E368     		ldr	r3, [r4, #12]
 2973              		.loc 1 515 3 view .LVU884
 2974 05a0 2046     		mov	r0, r4
 2975              		.loc 1 501 22 view .LVU885
 2976 05a2 42F00102 		orr	r2, r2, #1
 2977              	.LBE845:
 2978              	.LBE844:
 2979              		.loc 1 834 38 view .LVU886
 2980 05a6 666F     		ldr	r6, [r4, #116]
 2981              	.LBB848:
 2982              	.LBB846:
 2983              		.loc 1 505 7 view .LVU887
 2984 05a8 5B69     		ldr	r3, [r3, #20]
 2985              		.loc 1 515 3 view .LVU888
 2986 05aa 2946     		mov	r1, r5
 2987              	.LVL141:
 2988              		.loc 1 501 22 view .LVU889
 2989 05ac 2281     		strh	r2, [r4, #8]	@ movhi
 2990              	.LBE846:
 2991              	.LBE848:
 2992              		.loc 1 834 7 view .LVU890
 2993 05ae A26F     		ldr	r2, [r4, #120]
 2994              	.LVL142:
 2995              	.LBB849:
 2996              	.LBI844:
 2997              		.loc 1 492 6 is_stmt 1 view .LVU891
 2998              	.LBB847:
ARM GAS  /tmp/ccpnbTSa.s 			page 54


 2999              		.loc 1 494 3 view .LVU892
 3000              		.loc 1 496 23 view .LVU893
 3001              		.loc 1 497 3 view .LVU894
 3002              		.loc 1 497 3 view .LVU895
 3003              		.loc 1 498 3 view .LVU896
 3004              		.loc 1 498 3 view .LVU897
 3005              		.loc 1 501 3 view .LVU898
 3006              		.loc 1 505 3 view .LVU899
 3007              		.loc 1 507 3 view .LVU900
 3008              		.loc 1 511 15 is_stmt 0 view .LVU901
 3009 05b0 DD60     		str	r5, [r3, #12]
 3010              	.LVL143:
 3011              		.loc 1 509 15 view .LVU902
 3012 05b2 83E86400 		stm	r3, {r2, r5, r6}
 3013              		.loc 1 511 3 is_stmt 1 view .LVU903
 3014              		.loc 1 515 3 view .LVU904
 3015 05b6 FFF7FEFF 		bl	usb_lld_start_in
 3016              	.LVL144:
 3017              		.loc 1 515 3 is_stmt 0 view .LVU905
 3018              	.LBE847:
 3019              	.LBE849:
 3020              		.loc 1 835 7 is_stmt 1 view .LVU906
 3021              	.LBB850:
 3022              	.LBI850:
 3023              		.loc 2 542 20 view .LVU907
 3024              	.LBE850:
 3025              		.loc 2 544 3 view .LVU908
 3026              	.LBB862:
 3027              	.LBB851:
 3028              	.LBI851:
 3029              		.loc 3 413 20 view .LVU909
 3030              	.LBE851:
 3031              	.LBE862:
 3032              		.loc 3 415 31 view .LVU910
 3033              		.loc 3 416 33 view .LVU911
 3034              		.loc 3 417 3 view .LVU912
 3035              	.LBB863:
 3036              	.LBB859:
 3037              	.LBB852:
 3038              	.LBI852:
 3039              		.loc 4 719 27 view .LVU913
 3040              	.LBE852:
 3041              	.LBE859:
 3042              	.LBE863:
 3043              		.loc 4 721 3 view .LVU914
 3044              	.LBB864:
 3045              	.LBB860:
 3046              	.LBB857:
 3047              	.LBB853:
 3048              	.LBI853:
 3049              		.loc 4 693 27 view .LVU915
 3050              	.LBE853:
 3051              	.LBE857:
 3052              	.LBE860:
 3053              	.LBE864:
 3054              		.loc 4 696 3 view .LVU916
 3055              	.LBB865:
ARM GAS  /tmp/ccpnbTSa.s 			page 55


 3056              	.LBB861:
 3057              	.LBB858:
 3058              	.LBB856:
 3059              	.LBB854:
 3060              	.LBI854:
 3061              		.loc 5 491 27 view .LVU917
 3062              	.LBB855:
 3063              		.loc 5 493 3 view .LVU918
 3064              		.syntax unified
 3065              	@ 493 "../../../external/ChibiOS/os/common/ext/ARM/CMSIS/Core/Include/cmsis_gcc.h" 1
 3066 05ba 85F31188 		MSR basepri, r5
 3067              	@ 0 "" 2
 3068              	.LVL145:
 3069              		.loc 5 493 3 is_stmt 0 view .LVU919
 3070              		.thumb
 3071              		.syntax unified
 3072              	.LBE855:
 3073              	.LBE854:
 3074              	.LBE856:
 3075              	.LBE858:
 3076              	.LBE861:
 3077              	.LBE865:
 3078              		.loc 1 872 1 view .LVU920
 3079 05be 70BD     		pop	{r4, r5, r6, pc}
 3080              	.LVL146:
 3081              	.L165:
 3082              		.loc 1 840 7 is_stmt 1 view .LVU921
 3083              		.loc 1 840 22 is_stmt 0 view .LVU922
 3084 05c0 1422     		movs	r2, #20
 3085              	.LBB866:
 3086              	.LBB867:
 3087              	.LBB868:
 3088              	.LBB869:
 3089              	.LBB870:
 3090              	.LBB871:
 3091              		.loc 5 493 3 view .LVU923
 3092 05c2 2023     		movs	r3, #32
 3093              	.LBE871:
 3094              	.LBE870:
 3095              	.LBE869:
 3096              	.LBE868:
 3097              	.LBE867:
 3098              	.LBE866:
 3099              		.loc 1 840 22 view .LVU924
 3100 05c4 84F87020 		strb	r2, [r4, #112]
 3101              		.loc 1 842 7 is_stmt 1 view .LVU925
 3102              	.LBB883:
 3103              	.LBI866:
 3104              		.loc 2 531 20 view .LVU926
 3105              	.LBE883:
 3106              		.loc 2 533 3 view .LVU927
 3107              	.LBB884:
 3108              	.LBB879:
 3109              	.LBI867:
 3110              		.loc 3 393 20 view .LVU928
 3111              	.LBE879:
 3112              	.LBE884:
ARM GAS  /tmp/ccpnbTSa.s 			page 56


 3113              		.loc 3 395 3 view .LVU929
 3114              	.LBB885:
 3115              	.LBB880:
 3116              	.LBB876:
 3117              	.LBI868:
 3118              		.loc 4 708 27 view .LVU930
 3119              	.LBE876:
 3120              	.LBE880:
 3121              	.LBE885:
 3122              		.loc 4 710 3 view .LVU931
 3123              	.LBB886:
 3124              	.LBB881:
 3125              	.LBB877:
 3126              	.LBB874:
 3127              	.LBI869:
 3128              		.loc 4 669 27 view .LVU932
 3129              	.LBE874:
 3130              	.LBE877:
 3131              	.LBE881:
 3132              	.LBE886:
 3133              		.loc 4 677 3 view .LVU933
 3134              	.LVL147:
 3135              	.LBB887:
 3136              	.LBB882:
 3137              	.LBB878:
 3138              	.LBB875:
 3139              	.LBB873:
 3140              	.LBI870:
 3141              		.loc 5 491 27 view .LVU934
 3142              	.LBB872:
 3143              		.loc 5 493 3 view .LVU935
 3144              		.syntax unified
 3145              	@ 493 "../../../external/ChibiOS/os/common/ext/ARM/CMSIS/Core/Include/cmsis_gcc.h" 1
 3146 05c8 83F31188 		MSR basepri, r3
 3147              	@ 0 "" 2
 3148              	.LVL148:
 3149              		.loc 5 493 3 is_stmt 0 view .LVU936
 3150              		.thumb
 3151              		.syntax unified
 3152              	.LBE872:
 3153              	.LBE873:
 3154              	.LBE875:
 3155              	.LBE878:
 3156              	.LBE882:
 3157              	.LBE887:
 3158              		.loc 3 396 34 is_stmt 1 view .LVU937
 3159              		.loc 3 397 29 view .LVU938
 3160              		.loc 1 843 7 view .LVU939
 3161              	.LBB888:
 3162              	.LBI888:
 3163              		.loc 1 453 6 view .LVU940
 3164              	.LBB889:
 3165              		.loc 1 455 3 view .LVU941
 3166              		.loc 1 457 23 view .LVU942
 3167              		.loc 1 458 3 view .LVU943
 3168              		.loc 1 458 3 view .LVU944
 3169              		.loc 1 459 3 view .LVU945
ARM GAS  /tmp/ccpnbTSa.s 			page 57


 3170              		.loc 1 459 3 view .LVU946
 3171              		.loc 1 462 3 view .LVU947
 3172              		.loc 1 462 19 is_stmt 0 view .LVU948
 3173 05cc 6289     		ldrh	r2, [r4, #10]
 3174              		.loc 1 468 15 view .LVU949
 3175 05ce 0025     		movs	r5, #0
 3176              		.loc 1 466 7 view .LVU950
 3177 05d0 E368     		ldr	r3, [r4, #12]
 3178              		.loc 1 476 3 view .LVU951
 3179 05d2 2046     		mov	r0, r4
 3180              		.loc 1 462 19 view .LVU952
 3181 05d4 42F00102 		orr	r2, r2, #1
 3182              		.loc 1 476 3 view .LVU953
 3183 05d8 2946     		mov	r1, r5
 3184              		.loc 1 466 7 view .LVU954
 3185 05da 9B69     		ldr	r3, [r3, #24]
 3186              		.loc 1 462 19 view .LVU955
 3187 05dc 6281     		strh	r2, [r4, #10]	@ movhi
 3188              		.loc 1 466 3 is_stmt 1 view .LVU956
 3189              	.LVL149:
 3190              		.loc 1 468 3 view .LVU957
 3191              		.loc 1 468 15 is_stmt 0 view .LVU958
 3192 05de 9D60     		str	r5, [r3, #8]
 3193              		.loc 1 469 3 is_stmt 1 view .LVU959
 3194              		.loc 1 472 15 is_stmt 0 view .LVU960
 3195 05e0 DD60     		str	r5, [r3, #12]
 3196              		.loc 1 470 15 view .LVU961
 3197 05e2 C3E90055 		strd	r5, r5, [r3]
 3198              		.loc 1 472 3 is_stmt 1 view .LVU962
 3199              		.loc 1 476 3 view .LVU963
 3200 05e6 FFF7FEFF 		bl	usb_lld_start_out
 3201              	.LVL150:
 3202              		.loc 1 476 3 is_stmt 0 view .LVU964
 3203              	.LBE889:
 3204              	.LBE888:
 3205              		.loc 1 844 7 is_stmt 1 view .LVU965
 3206              	.LBB890:
 3207              	.LBI890:
 3208              		.loc 2 542 20 view .LVU966
 3209              	.LBE890:
 3210              		.loc 2 544 3 view .LVU967
 3211              	.LBB902:
 3212              	.LBB891:
 3213              	.LBI891:
 3214              		.loc 3 413 20 view .LVU968
 3215              	.LBE891:
 3216              	.LBE902:
 3217              		.loc 3 415 31 view .LVU969
 3218              		.loc 3 416 33 view .LVU970
 3219              		.loc 3 417 3 view .LVU971
 3220              	.LBB903:
 3221              	.LBB899:
 3222              	.LBB892:
 3223              	.LBI892:
 3224              		.loc 4 719 27 view .LVU972
 3225              	.LBE892:
 3226              	.LBE899:
ARM GAS  /tmp/ccpnbTSa.s 			page 58


 3227              	.LBE903:
 3228              		.loc 4 721 3 view .LVU973
 3229              	.LBB904:
 3230              	.LBB900:
 3231              	.LBB897:
 3232              	.LBB893:
 3233              	.LBI893:
 3234              		.loc 4 693 27 view .LVU974
 3235              	.LBE893:
 3236              	.LBE897:
 3237              	.LBE900:
 3238              	.LBE904:
 3239              		.loc 4 696 3 view .LVU975
 3240              	.LBB905:
 3241              	.LBB901:
 3242              	.LBB898:
 3243              	.LBB896:
 3244              	.LBB894:
 3245              	.LBI894:
 3246              		.loc 5 491 27 view .LVU976
 3247              	.LBB895:
 3248              		.loc 5 493 3 view .LVU977
 3249              		.syntax unified
 3250              	@ 493 "../../../external/ChibiOS/os/common/ext/ARM/CMSIS/Core/Include/cmsis_gcc.h" 1
 3251 05ea 85F31188 		MSR basepri, r5
 3252              	@ 0 "" 2
 3253              	.LVL151:
 3254              		.loc 5 493 3 is_stmt 0 view .LVU978
 3255              		.thumb
 3256              		.syntax unified
 3257              	.LBE895:
 3258              	.LBE894:
 3259              	.LBE896:
 3260              	.LBE898:
 3261              	.LBE901:
 3262              	.LBE905:
 3263              		.loc 1 872 1 view .LVU979
 3264 05ee 70BD     		pop	{r4, r5, r6, pc}
 3265              	.LVL152:
 3266              	.L209:
 3267              	.LBB906:
 3268              	.LBB770:
 3269              		.loc 1 120 7 is_stmt 1 view .LVU980
 3270              	.LBB731:
 3271              	.LBI731:
 3272              		.loc 1 64 13 view .LVU981
 3273              	.LBB732:
 3274              		.loc 1 66 3 view .LVU982
 3275              		.loc 1 66 17 is_stmt 0 view .LVU983
 3276 05f0 94F88230 		ldrb	r3, [r4, #130]	@ zero_extendqisi2
 3277              		.loc 1 67 3 view .LVU984
 3278 05f4 2046     		mov	r0, r4
 3279              		.loc 1 66 17 view .LVU985
 3280 05f6 84F88A30 		strb	r3, [r4, #138]
 3281              		.loc 1 67 3 is_stmt 1 view .LVU986
 3282 05fa FFF7FEFF 		bl	usb_lld_set_address
 3283              	.LVL153:
ARM GAS  /tmp/ccpnbTSa.s 			page 59


 3284              		.loc 1 68 3 view .LVU987
 3285 05fe 6368     		ldr	r3, [r4, #4]
 3286 0600 1B68     		ldr	r3, [r3]
 3287 0602 13B1     		cbz	r3, .L145
 3288              		.loc 1 68 3 view .LVU988
 3289 0604 0121     		movs	r1, #1
 3290 0606 2046     		mov	r0, r4
 3291 0608 9847     		blx	r3
 3292              	.LVL154:
 3293              	.L145:
 3294              		.loc 1 68 52 view .LVU989
 3295              		.loc 1 69 3 view .LVU990
 3296              		.loc 1 69 15 is_stmt 0 view .LVU991
 3297 060a 0323     		movs	r3, #3
 3298 060c 94F88020 		ldrb	r2, [r4, #128]	@ zero_extendqisi2
 3299 0610 2370     		strb	r3, [r4]
 3300              	.LBE732:
 3301              	.LBE731:
 3302              		.loc 1 122 5 is_stmt 1 view .LVU992
 3303 0612 9DE7     		b	.L159
 3304              	.LVL155:
 3305              	.L126:
 3306              		.loc 1 233 5 view .LVU993
 3307              		.loc 1 233 8 is_stmt 0 view .LVU994
 3308 0614 94F88230 		ldrb	r3, [r4, #130]	@ zero_extendqisi2
 3309 0618 002B     		cmp	r3, #0
 3310 061a 7FF451AF 		bne	.L141
 3311              		.loc 1 237 5 is_stmt 1 view .LVU995
 3312              		.loc 1 237 21 is_stmt 0 view .LVU996
 3313 061e 94F88430 		ldrb	r3, [r4, #132]	@ zero_extendqisi2
 3314              		.loc 1 237 8 view .LVU997
 3315 0622 13F00F01 		ands	r1, r3, #15
 3316 0626 93D0     		beq	.L159
 3317              		.loc 1 238 7 is_stmt 1 view .LVU998
 3318              		.loc 1 238 10 is_stmt 0 view .LVU999
 3319 0628 1D06     		lsls	r5, r3, #24
 3320              		.loc 1 239 9 view .LVU1000
 3321 062a 2046     		mov	r0, r4
 3322              		.loc 1 238 10 view .LVU1001
 3323 062c 00F19980 		bmi	.L210
 3324              	.LVL156:
 3325              		.loc 1 242 9 is_stmt 1 view .LVU1002
 3326 0630 FFF7FEFF 		bl	usb_lld_stall_out
 3327              	.LVL157:
 3328              		.loc 1 242 9 is_stmt 0 view .LVU1003
 3329 0634 94F88020 		ldrb	r2, [r4, #128]	@ zero_extendqisi2
 3330 0638 8AE7     		b	.L159
 3331              	.L128:
 3332              		.loc 1 181 5 is_stmt 1 view .LVU1004
 3333              		.loc 1 181 21 is_stmt 0 view .LVU1005
 3334 063a 94F88430 		ldrb	r3, [r4, #132]	@ zero_extendqisi2
 3335              		.loc 1 182 15 view .LVU1006
 3336 063e 2046     		mov	r0, r4
 3337 0640 03F00F01 		and	r1, r3, #15
 3338              		.loc 1 181 8 view .LVU1007
 3339 0644 1B06     		lsls	r3, r3, #24
 3340 0646 6ED4     		bmi	.L211
ARM GAS  /tmp/ccpnbTSa.s 			page 60


 3341              	.LVL158:
 3342              		.loc 1 199 7 is_stmt 1 view .LVU1008
 3343              		.loc 1 199 15 is_stmt 0 view .LVU1009
 3344 0648 FFF7FEFF 		bl	usb_lld_get_status_out
 3345              	.LVL159:
 3346              		.loc 1 199 7 view .LVU1010
 3347 064c 0128     		cmp	r0, #1
 3348 064e 6ED0     		beq	.L155
 3349              	.L203:
 3350              		.loc 1 199 7 view .LVU1011
 3351 0650 0228     		cmp	r0, #2
 3352 0652 7FF435AF 		bne	.L141
 3353              		.loc 1 207 9 is_stmt 1 view .LVU1012
 3354 0656 494B     		ldr	r3, .L214+4
 3355 0658 94F88020 		ldrb	r2, [r4, #128]	@ zero_extendqisi2
 3356 065c 6367     		str	r3, [r4, #116]
 3357              		.loc 1 207 9 view .LVU1013
 3358              		.loc 1 207 9 view .LVU1014
 3359              		.loc 1 207 66 view .LVU1015
 3360              		.loc 1 209 9 view .LVU1016
 3361              	.LVL160:
 3362              		.loc 1 207 9 is_stmt 0 view .LVU1017
 3363 065e C4E91E56 		strd	r5, r6, [r4, #120]
 3364 0662 E3E6     		b	.L142
 3365              	.LVL161:
 3366              	.L133:
 3367              		.loc 1 217 5 is_stmt 1 view .LVU1018
 3368              		.loc 1 217 8 is_stmt 0 view .LVU1019
 3369 0664 94F88230 		ldrb	r3, [r4, #130]	@ zero_extendqisi2
 3370 0668 002B     		cmp	r3, #0
 3371 066a 7FF429AF 		bne	.L141
 3372              		.loc 1 221 5 is_stmt 1 view .LVU1020
 3373              		.loc 1 221 21 is_stmt 0 view .LVU1021
 3374 066e 94F88430 		ldrb	r3, [r4, #132]	@ zero_extendqisi2
 3375              		.loc 1 221 8 view .LVU1022
 3376 0672 13F00F01 		ands	r1, r3, #15
 3377 0676 3FF46BAF 		beq	.L159
 3378              		.loc 1 222 7 is_stmt 1 view .LVU1023
 3379              		.loc 1 222 10 is_stmt 0 view .LVU1024
 3380 067a 1E06     		lsls	r6, r3, #24
 3381              		.loc 1 223 9 view .LVU1025
 3382 067c 2046     		mov	r0, r4
 3383              		.loc 1 222 10 view .LVU1026
 3384 067e 75D4     		bmi	.L212
 3385              	.LVL162:
 3386              		.loc 1 226 9 is_stmt 1 view .LVU1027
 3387 0680 FFF7FEFF 		bl	usb_lld_clear_out
 3388              	.LVL163:
 3389              		.loc 1 226 9 is_stmt 0 view .LVU1028
 3390 0684 94F88020 		ldrb	r2, [r4, #128]	@ zero_extendqisi2
 3391              		.loc 1 229 5 is_stmt 1 view .LVU1029
 3392 0688 62E7     		b	.L159
 3393              	.L134:
 3394              		.loc 1 107 5 view .LVU1030
 3395              		.loc 1 107 8 is_stmt 0 view .LVU1031
 3396 068a 94F88230 		ldrb	r3, [r4, #130]	@ zero_extendqisi2
 3397 068e 012B     		cmp	r3, #1
ARM GAS  /tmp/ccpnbTSa.s 			page 61


 3398 0690 7FF416AF 		bne	.L141
 3399              		.loc 1 108 7 is_stmt 1 view .LVU1032
 3400              		.loc 1 108 20 is_stmt 0 view .LVU1033
 3401 0694 B4F88830 		ldrh	r3, [r4, #136]
 3402              		.loc 1 109 7 view .LVU1034
 3403 0698 6667     		str	r6, [r4, #116]
 3404              		.loc 1 108 20 view .LVU1035
 3405 069a 43F00203 		orr	r3, r3, #2
 3406              		.loc 1 109 7 view .LVU1036
 3407 069e C4E91E66 		strd	r6, r6, [r4, #120]
 3408              		.loc 1 108 20 view .LVU1037
 3409 06a2 A4F88830 		strh	r3, [r4, #136]	@ movhi
 3410              		.loc 1 109 7 is_stmt 1 view .LVU1038
 3411              		.loc 1 109 7 view .LVU1039
 3412              		.loc 1 109 7 view .LVU1040
 3413              		.loc 1 109 44 view .LVU1041
 3414              		.loc 1 110 7 view .LVU1042
 3415              	.LVL164:
 3416              		.loc 1 110 7 is_stmt 0 view .LVU1043
 3417 06a6 57E7     		b	.L143
 3418              	.LVL165:
 3419              	.L206:
 3420              		.loc 1 98 5 is_stmt 1 view .LVU1044
 3421              		.loc 1 98 8 is_stmt 0 view .LVU1045
 3422 06a8 94F88230 		ldrb	r3, [r4, #130]	@ zero_extendqisi2
 3423 06ac 012B     		cmp	r3, #1
 3424 06ae 7FF407AF 		bne	.L141
 3425              		.loc 1 99 7 is_stmt 1 view .LVU1046
 3426              		.loc 1 99 20 is_stmt 0 view .LVU1047
 3427 06b2 B4F88830 		ldrh	r3, [r4, #136]
 3428              		.loc 1 100 7 view .LVU1048
 3429 06b6 6667     		str	r6, [r4, #116]
 3430              		.loc 1 99 20 view .LVU1049
 3431 06b8 23F00203 		bic	r3, r3, #2
 3432              		.loc 1 100 7 view .LVU1050
 3433 06bc C4E91E66 		strd	r6, r6, [r4, #120]
 3434              		.loc 1 99 20 view .LVU1051
 3435 06c0 A4F88830 		strh	r3, [r4, #136]	@ movhi
 3436              		.loc 1 100 7 is_stmt 1 view .LVU1052
 3437              		.loc 1 100 7 view .LVU1053
 3438              		.loc 1 100 7 view .LVU1054
 3439              		.loc 1 100 44 view .LVU1055
 3440              		.loc 1 101 7 view .LVU1056
 3441              	.LVL166:
 3442              		.loc 1 101 7 is_stmt 0 view .LVU1057
 3443 06c4 48E7     		b	.L143
 3444              	.LVL167:
 3445              	.L137:
 3446              		.loc 1 130 5 is_stmt 1 view .LVU1058
 3447              	.LBB733:
 3448              	.LBI733:
 3449              		.loc 1 51 17 view .LVU1059
 3450              	.LBB734:
 3451              		.loc 1 52 3 view .LVU1060
 3452              		.loc 1 54 3 view .LVU1061
 3453              		.loc 1 55 3 view .LVU1062
 3454              		.loc 1 56 3 view .LVU1063
ARM GAS  /tmp/ccpnbTSa.s 			page 62


 3455              		.loc 1 55 9 is_stmt 0 view .LVU1064
 3456 06c6 94F88520 		ldrb	r2, [r4, #133]	@ zero_extendqisi2
 3457              	.LBE734:
 3458              	.LBE733:
 3459              		.loc 1 130 10 view .LVU1065
 3460 06ca 2046     		mov	r0, r4
 3461              		.loc 1 130 22 view .LVU1066
 3462 06cc 6168     		ldr	r1, [r4, #4]
 3463              	.LBB736:
 3464              	.LBB735:
 3465              		.loc 1 55 6 view .LVU1067
 3466 06ce 94F88430 		ldrb	r3, [r4, #132]	@ zero_extendqisi2
 3467              	.LBE735:
 3468              	.LBE736:
 3469              		.loc 1 130 10 view .LVU1068
 3470 06d2 4D68     		ldr	r5, [r1, #4]
 3471 06d4 43EA0223 		orr	r3, r3, r2, lsl #8
 3472 06d8 94F88310 		ldrb	r1, [r4, #131]	@ zero_extendqisi2
 3473 06dc 94F88220 		ldrb	r2, [r4, #130]	@ zero_extendqisi2
 3474 06e0 A847     		blx	r5
 3475              	.LVL168:
 3476              		.loc 1 133 5 is_stmt 1 view .LVU1069
 3477              		.loc 1 133 8 is_stmt 0 view .LVU1070
 3478 06e2 0028     		cmp	r0, #0
 3479 06e4 3FF4ECAE 		beq	.L141
 3480              		.loc 1 137 5 is_stmt 1 view .LVU1071
 3481 06e8 94F88020 		ldrb	r2, [r4, #128]	@ zero_extendqisi2
 3482 06ec D0E90053 		ldrd	r5, r3, [r0]
 3483 06f0 E667     		str	r6, [r4, #124]
 3484 06f2 C4E91D35 		strd	r3, r5, [r4, #116]
 3485              		.loc 1 137 5 view .LVU1072
 3486              		.loc 1 137 72 view .LVU1073
 3487              		.loc 1 139 5 view .LVU1074
 3488              	.LVL169:
 3489              		.loc 1 139 5 is_stmt 0 view .LVU1075
 3490 06f6 99E6     		b	.L142
 3491              	.LVL170:
 3492              	.L139:
 3493              		.loc 1 153 7 is_stmt 1 view .LVU1076
 3494              		.loc 1 153 10 is_stmt 0 view .LVU1077
 3495 06f8 2378     		ldrb	r3, [r4]	@ zero_extendqisi2
 3496 06fa 042B     		cmp	r3, #4
 3497 06fc 1ED0     		beq	.L213
 3498              	.L147:
 3499              		.loc 1 160 63 is_stmt 1 view .LVU1078
 3500              		.loc 1 162 7 view .LVU1079
 3501              		.loc 1 162 22 is_stmt 0 view .LVU1080
 3502 06fe 94F88230 		ldrb	r3, [r4, #130]	@ zero_extendqisi2
 3503              		.loc 1 162 10 view .LVU1081
 3504 0702 4BB1     		cbz	r3, .L150
 3505              		.loc 1 164 9 is_stmt 1 view .LVU1082
 3506              		.loc 1 166 9 is_stmt 0 view .LVU1083
 3507 0704 6168     		ldr	r1, [r4, #4]
 3508              		.loc 1 165 21 view .LVU1084
 3509 0706 0422     		movs	r2, #4
 3510              		.loc 1 164 29 view .LVU1085
 3511 0708 84F88B30 		strb	r3, [r4, #139]
ARM GAS  /tmp/ccpnbTSa.s 			page 63


 3512              		.loc 1 165 9 is_stmt 1 view .LVU1086
 3513              		.loc 1 166 9 is_stmt 0 view .LVU1087
 3514 070c 0B68     		ldr	r3, [r1]
 3515              		.loc 1 165 21 view .LVU1088
 3516 070e 2270     		strb	r2, [r4]
 3517              		.loc 1 166 9 is_stmt 1 view .LVU1089
 3518 0710 13B1     		cbz	r3, .L150
 3519              		.loc 1 166 9 view .LVU1090
 3520 0712 0221     		movs	r1, #2
 3521 0714 2046     		mov	r0, r4
 3522 0716 9847     		blx	r3
 3523              	.LVL171:
 3524              	.L150:
 3525              		.loc 1 166 61 view .LVU1091
 3526              		.loc 1 169 5 view .LVU1092
 3527 0718 0023     		movs	r3, #0
 3528 071a 94F88020 		ldrb	r2, [r4, #128]	@ zero_extendqisi2
 3529 071e C4E91D33 		strd	r3, r3, [r4, #116]
 3530              		.loc 1 169 5 view .LVU1093
 3531 0722 E367     		str	r3, [r4, #124]
 3532              		.loc 1 169 42 view .LVU1094
 3533              		.loc 1 170 5 view .LVU1095
 3534              	.LVL172:
 3535              		.loc 1 170 5 is_stmt 0 view .LVU1096
 3536 0724 18E7     		b	.L143
 3537              	.LVL173:
 3538              	.L211:
 3539              		.loc 1 182 7 is_stmt 1 view .LVU1097
 3540              		.loc 1 182 15 is_stmt 0 view .LVU1098
 3541 0726 FFF7FEFF 		bl	usb_lld_get_status_in
 3542              	.LVL174:
 3543              		.loc 1 182 7 view .LVU1099
 3544 072a 0128     		cmp	r0, #1
 3545 072c 90D1     		bne	.L203
 3546              	.L155:
 3547              		.loc 1 202 9 is_stmt 1 view .LVU1100
 3548 072e 144B     		ldr	r3, .L214+8
 3549 0730 94F88020 		ldrb	r2, [r4, #128]	@ zero_extendqisi2
 3550 0734 6367     		str	r3, [r4, #116]
 3551              		.loc 1 202 9 view .LVU1101
 3552              		.loc 1 202 9 view .LVU1102
 3553              		.loc 1 202 66 view .LVU1103
 3554              		.loc 1 204 9 view .LVU1104
 3555              	.LVL175:
 3556              		.loc 1 202 9 is_stmt 0 view .LVU1105
 3557 0736 C4E91E56 		strd	r5, r6, [r4, #120]
 3558 073a 77E6     		b	.L142
 3559              	.LVL176:
 3560              	.L213:
 3561              		.loc 1 155 9 is_stmt 1 view .LVU1106
 3562              	.LBB737:
 3563              	.LBI737:
 3564              		.loc 2 531 20 view .LVU1107
 3565              	.LBE737:
 3566              	.LBE770:
 3567              	.LBE906:
 3568              		.loc 2 533 3 view .LVU1108
ARM GAS  /tmp/ccpnbTSa.s 			page 64


 3569              	.LBB907:
 3570              	.LBB771:
 3571              	.LBB749:
 3572              	.LBB738:
 3573              	.LBI738:
 3574              		.loc 3 393 20 view .LVU1109
 3575              	.LBE738:
 3576              	.LBE749:
 3577              	.LBE771:
 3578              	.LBE907:
 3579              		.loc 3 395 3 view .LVU1110
 3580              	.LBB908:
 3581              	.LBB772:
 3582              	.LBB750:
 3583              	.LBB746:
 3584              	.LBB739:
 3585              	.LBI739:
 3586              		.loc 4 708 27 view .LVU1111
 3587              	.LBE739:
 3588              	.LBE746:
 3589              	.LBE750:
 3590              	.LBE772:
 3591              	.LBE908:
 3592              		.loc 4 710 3 view .LVU1112
 3593              	.LBB909:
 3594              	.LBB773:
 3595              	.LBB751:
 3596              	.LBB747:
 3597              	.LBB744:
 3598              	.LBB740:
 3599              	.LBI740:
 3600              		.loc 4 669 27 view .LVU1113
 3601              	.LBE740:
 3602              	.LBE744:
 3603              	.LBE747:
 3604              	.LBE751:
 3605              	.LBE773:
 3606              	.LBE909:
 3607              		.loc 4 677 3 view .LVU1114
 3608              	.LBB910:
 3609              	.LBB774:
 3610              	.LBB752:
 3611              	.LBB748:
 3612              	.LBB745:
 3613              	.LBB743:
 3614              	.LBB741:
 3615              	.LBI741:
 3616              		.loc 5 491 27 view .LVU1115
 3617              	.LBB742:
 3618              		.loc 5 493 3 view .LVU1116
 3619 073c 2023     		movs	r3, #32
 3620              		.syntax unified
 3621              	@ 493 "../../../external/ChibiOS/os/common/ext/ARM/CMSIS/Core/Include/cmsis_gcc.h" 1
 3622 073e 83F31188 		MSR basepri, r3
 3623              	@ 0 "" 2
 3624              	.LVL177:
 3625              		.loc 5 493 3 is_stmt 0 view .LVU1117
ARM GAS  /tmp/ccpnbTSa.s 			page 65


 3626              		.thumb
 3627              		.syntax unified
 3628              	.LBE742:
 3629              	.LBE741:
 3630              	.LBE743:
 3631              	.LBE745:
 3632              	.LBE748:
 3633              	.LBE752:
 3634              	.LBE774:
 3635              	.LBE910:
 3636              		.loc 3 396 34 is_stmt 1 view .LVU1118
 3637              		.loc 3 397 29 view .LVU1119
 3638              	.LBB911:
 3639              	.LBB775:
 3640              		.loc 1 156 9 view .LVU1120
 3641 0742 2046     		mov	r0, r4
 3642 0744 FFF7FEFF 		bl	usbDisableEndpointsI
 3643              	.LVL178:
 3644              		.loc 1 157 9 view .LVU1121
 3645              	.LBB753:
 3646              	.LBI753:
 3647              		.loc 2 542 20 view .LVU1122
 3648              	.LBE753:
 3649              	.LBE775:
 3650              	.LBE911:
 3651              		.loc 2 544 3 view .LVU1123
 3652              	.LBB912:
 3653              	.LBB776:
 3654              	.LBB765:
 3655              	.LBB754:
 3656              	.LBI754:
 3657              		.loc 3 413 20 view .LVU1124
 3658              	.LBE754:
 3659              	.LBE765:
 3660              	.LBE776:
 3661              	.LBE912:
 3662              		.loc 3 415 31 view .LVU1125
 3663              		.loc 3 416 33 view .LVU1126
 3664              		.loc 3 417 3 view .LVU1127
 3665              	.LBB913:
 3666              	.LBB777:
 3667              	.LBB766:
 3668              	.LBB762:
 3669              	.LBB755:
 3670              	.LBI755:
 3671              		.loc 4 719 27 view .LVU1128
 3672              	.LBE755:
 3673              	.LBE762:
 3674              	.LBE766:
 3675              	.LBE777:
 3676              	.LBE913:
 3677              		.loc 4 721 3 view .LVU1129
 3678              	.LBB914:
 3679              	.LBB778:
 3680              	.LBB767:
 3681              	.LBB763:
 3682              	.LBB760:
ARM GAS  /tmp/ccpnbTSa.s 			page 66


 3683              	.LBB756:
 3684              	.LBI756:
 3685              		.loc 4 693 27 view .LVU1130
 3686              	.LBE756:
 3687              	.LBE760:
 3688              	.LBE763:
 3689              	.LBE767:
 3690              	.LBE778:
 3691              	.LBE914:
 3692              		.loc 4 696 3 view .LVU1131
 3693              	.LBB915:
 3694              	.LBB779:
 3695              	.LBB768:
 3696              	.LBB764:
 3697              	.LBB761:
 3698              	.LBB759:
 3699              	.LBB757:
 3700              	.LBI757:
 3701              		.loc 5 491 27 view .LVU1132
 3702              	.LBB758:
 3703              		.loc 5 493 3 view .LVU1133
 3704              		.syntax unified
 3705              	@ 493 "../../../external/ChibiOS/os/common/ext/ARM/CMSIS/Core/Include/cmsis_gcc.h" 1
 3706 0748 86F31188 		MSR basepri, r6
 3707              	@ 0 "" 2
 3708              	.LVL179:
 3709              		.loc 5 493 3 is_stmt 0 view .LVU1134
 3710              		.thumb
 3711              		.syntax unified
 3712              	.LBE758:
 3713              	.LBE757:
 3714              	.LBE759:
 3715              	.LBE761:
 3716              	.LBE764:
 3717              	.LBE768:
 3718              		.loc 1 158 9 is_stmt 1 view .LVU1135
 3719              		.loc 1 160 9 is_stmt 0 view .LVU1136
 3720 074c 6368     		ldr	r3, [r4, #4]
 3721              		.loc 1 159 21 view .LVU1137
 3722 074e 0321     		movs	r1, #3
 3723              		.loc 1 158 29 view .LVU1138
 3724 0750 84F88B60 		strb	r6, [r4, #139]
 3725              		.loc 1 159 9 is_stmt 1 view .LVU1139
 3726              		.loc 1 160 9 is_stmt 0 view .LVU1140
 3727 0754 1B68     		ldr	r3, [r3]
 3728              		.loc 1 159 21 view .LVU1141
 3729 0756 2170     		strb	r1, [r4]
 3730              		.loc 1 160 9 is_stmt 1 view .LVU1142
 3731 0758 002B     		cmp	r3, #0
 3732 075a D0D0     		beq	.L147
 3733              		.loc 1 160 9 view .LVU1143
 3734 075c 2046     		mov	r0, r4
 3735 075e 9847     		blx	r3
 3736              	.LVL180:
 3737 0760 CDE7     		b	.L147
 3738              	.LVL181:
 3739              	.L210:
ARM GAS  /tmp/ccpnbTSa.s 			page 67


 3740              		.loc 1 239 9 view .LVU1144
 3741 0762 FFF7FEFF 		bl	usb_lld_stall_in
 3742              	.LVL182:
 3743              		.loc 1 239 9 is_stmt 0 view .LVU1145
 3744 0766 94F88020 		ldrb	r2, [r4, #128]	@ zero_extendqisi2
 3745 076a F1E6     		b	.L159
 3746              	.LVL183:
 3747              	.L212:
 3748              		.loc 1 223 9 is_stmt 1 view .LVU1146
 3749 076c FFF7FEFF 		bl	usb_lld_clear_in
 3750              	.LVL184:
 3751              		.loc 1 223 9 is_stmt 0 view .LVU1147
 3752 0770 94F88020 		ldrb	r2, [r4, #128]	@ zero_extendqisi2
 3753 0774 ECE6     		b	.L159
 3754              	.L215:
 3755 0776 00BF     		.align	2
 3756              	.L214:
 3757 0778 00000000 		.word	.LANCHOR0
 3758 077c 08000000 		.word	.LANCHOR0+8
 3759 0780 04000000 		.word	.LANCHOR0+4
 3760              	.LBE779:
 3761              	.LBE915:
 3762              		.cfi_endproc
 3763              	.LFE381:
 3764              		.size	_usb_ep0setup, .-_usb_ep0setup
 3765              		.align	1
 3766 0784 AFF30080 		.p2align 4,,15
 3766      AFF30080 
 3766      AFF30080 
 3767              		.global	_usb_ep0in
 3768              		.syntax unified
 3769              		.thumb
 3770              		.thumb_func
 3771              		.fpu fpv4-sp-d16
 3772              		.type	_usb_ep0in, %function
 3773              	_usb_ep0in:
 3774              	.LVL185:
 3775              	.LFB382:
 3776              		.loc 1 884 46 is_stmt 1 view -0
 3777              		.cfi_startproc
 3778              		@ args = 0, pretend = 0, frame = 0
 3779              		@ frame_needed = 0, uses_anonymous_args = 0
 3780              		.loc 1 885 3 view .LVU1149
 3781              		.loc 1 887 3 view .LVU1150
 3782              		.loc 1 888 3 view .LVU1151
 3783              		.loc 1 884 46 is_stmt 0 view .LVU1152
 3784 0790 38B5     		push	{r3, r4, r5, lr}
 3785              		.cfi_def_cfa_offset 16
 3786              		.cfi_offset 3, -16
 3787              		.cfi_offset 4, -12
 3788              		.cfi_offset 5, -8
 3789              		.cfi_offset 14, -4
 3790              		.loc 1 888 3 view .LVU1153
 3791 0792 90F87030 		ldrb	r3, [r0, #112]	@ zero_extendqisi2
 3792              		.loc 1 884 46 view .LVU1154
 3793 0796 0446     		mov	r4, r0
 3794              		.loc 1 888 3 view .LVU1155
ARM GAS  /tmp/ccpnbTSa.s 			page 68


 3795 0798 152B     		cmp	r3, #21
 3796 079a 1CD8     		bhi	.L216
 3797 079c DFE803F0 		tbb	[pc, r3]
 3798              	.L219:
 3799 07a0 0B       		.byte	(.L218-.L219)/2
 3800 07a1 1B       		.byte	(.L216-.L219)/2
 3801 07a2 1B       		.byte	(.L216-.L219)/2
 3802 07a3 1B       		.byte	(.L216-.L219)/2
 3803 07a4 1B       		.byte	(.L216-.L219)/2
 3804 07a5 1B       		.byte	(.L216-.L219)/2
 3805 07a6 0B       		.byte	(.L218-.L219)/2
 3806 07a7 1B       		.byte	(.L216-.L219)/2
 3807 07a8 1B       		.byte	(.L216-.L219)/2
 3808 07a9 1C       		.byte	(.L222-.L219)/2
 3809 07aa 2C       		.byte	(.L221-.L219)/2
 3810 07ab 44       		.byte	(.L220-.L219)/2
 3811 07ac 1B       		.byte	(.L216-.L219)/2
 3812 07ad 1B       		.byte	(.L216-.L219)/2
 3813 07ae 1B       		.byte	(.L216-.L219)/2
 3814 07af 1B       		.byte	(.L216-.L219)/2
 3815 07b0 1B       		.byte	(.L216-.L219)/2
 3816 07b1 1B       		.byte	(.L216-.L219)/2
 3817 07b2 1B       		.byte	(.L216-.L219)/2
 3818 07b3 1B       		.byte	(.L216-.L219)/2
 3819 07b4 0B       		.byte	(.L218-.L219)/2
 3820 07b5 0B       		.byte	(.L218-.L219)/2
 3821              		.p2align 1
 3822              	.L218:
 3823              		.loc 1 931 5 is_stmt 1 view .LVU1156
 3824 07b6 0021     		movs	r1, #0
 3825              	.LVL186:
 3826              		.loc 1 931 5 is_stmt 0 view .LVU1157
 3827 07b8 FFF7FEFF 		bl	usb_lld_stall_in
 3828              	.LVL187:
 3829              		.loc 1 932 5 is_stmt 1 view .LVU1158
 3830 07bc 0021     		movs	r1, #0
 3831 07be 2046     		mov	r0, r4
 3832 07c0 FFF7FEFF 		bl	usb_lld_stall_out
 3833              	.LVL188:
 3834              		.loc 1 933 5 view .LVU1159
 3835 07c4 6368     		ldr	r3, [r4, #4]
 3836 07c6 1B68     		ldr	r3, [r3]
 3837 07c8 13B1     		cbz	r3, .L224
 3838              		.loc 1 933 5 discriminator 1 view .LVU1160
 3839 07ca 0621     		movs	r1, #6
 3840 07cc 2046     		mov	r0, r4
 3841 07ce 9847     		blx	r3
 3842              	.LVL189:
 3843              	.L224:
 3844              		.loc 1 933 54 discriminator 3 view .LVU1161
 3845              		.loc 1 934 5 discriminator 3 view .LVU1162
 3846              		.loc 1 934 20 is_stmt 0 discriminator 3 view .LVU1163
 3847 07d0 0623     		movs	r3, #6
 3848 07d2 84F87030 		strb	r3, [r4, #112]
 3849              		.loc 1 935 5 is_stmt 1 discriminator 3 view .LVU1164
 3850              	.L216:
 3851              		.loc 1 939 1 is_stmt 0 view .LVU1165
ARM GAS  /tmp/ccpnbTSa.s 			page 69


 3852 07d6 38BD     		pop	{r3, r4, r5, pc}
 3853              	.LVL190:
 3854              	.L222:
 3855              		.loc 1 890 5 is_stmt 1 view .LVU1166
 3856              	.LBB916:
 3857              	.LBI916:
 3858              		.loc 1 51 17 view .LVU1167
 3859              	.LBB917:
 3860              		.loc 1 52 3 view .LVU1168
 3861              		.loc 1 54 3 view .LVU1169
 3862              		.loc 1 55 3 view .LVU1170
 3863              		.loc 1 56 3 view .LVU1171
 3864              		.loc 1 56 3 is_stmt 0 view .LVU1172
 3865              	.LBE917:
 3866              	.LBE916:
 3867              		.loc 1 894 5 is_stmt 1 view .LVU1173
 3868              	.LBB919:
 3869              	.LBB918:
 3870              		.loc 1 55 9 is_stmt 0 view .LVU1174
 3871 07d8 90F88710 		ldrb	r1, [r0, #135]	@ zero_extendqisi2
 3872              	.LVL191:
 3873              		.loc 1 55 6 view .LVU1175
 3874 07dc 90F88630 		ldrb	r3, [r0, #134]	@ zero_extendqisi2
 3875              	.LBE918:
 3876              	.LBE919:
 3877              		.loc 1 894 14 view .LVU1176
 3878 07e0 826F     		ldr	r2, [r0, #120]
 3879              		.loc 1 890 9 view .LVU1177
 3880 07e2 43EA0123 		orr	r3, r3, r1, lsl #8
 3881              		.loc 1 894 8 view .LVU1178
 3882 07e6 9A42     		cmp	r2, r3
 3883 07e8 06D2     		bcs	.L221
 3884              		.loc 1 895 36 discriminator 1 view .LVU1179
 3885 07ea C368     		ldr	r3, [r0, #12]
 3886 07ec 1B8A     		ldrh	r3, [r3, #16]
 3887              		.loc 1 895 22 discriminator 1 view .LVU1180
 3888 07ee B2FBF3F5 		udiv	r5, r2, r3
 3889 07f2 03FB1525 		mls	r5, r3, r5, r2
 3890              		.loc 1 894 28 discriminator 1 view .LVU1181
 3891 07f6 F5B1     		cbz	r5, .L232
 3892              	.LVL192:
 3893              	.L221:
 3894              		.loc 1 905 5 is_stmt 1 view .LVU1182
 3895              		.loc 1 905 20 is_stmt 0 view .LVU1183
 3896 07f8 1422     		movs	r2, #20
 3897              	.LBB920:
 3898              	.LBB921:
 3899              	.LBB922:
 3900              	.LBB923:
 3901              	.LBB924:
 3902              	.LBB925:
 3903              		.loc 5 493 3 view .LVU1184
 3904 07fa 2023     		movs	r3, #32
 3905              	.LBE925:
 3906              	.LBE924:
 3907              	.LBE923:
 3908              	.LBE922:
ARM GAS  /tmp/ccpnbTSa.s 			page 70


 3909              	.LBE921:
 3910              	.LBE920:
 3911              		.loc 1 905 20 view .LVU1185
 3912 07fc 84F87020 		strb	r2, [r4, #112]
 3913              		.loc 1 907 5 is_stmt 1 view .LVU1186
 3914              	.LBB937:
 3915              	.LBI920:
 3916              		.loc 2 531 20 view .LVU1187
 3917              	.LBE937:
 3918              		.loc 2 533 3 view .LVU1188
 3919              	.LBB938:
 3920              	.LBB933:
 3921              	.LBI921:
 3922              		.loc 3 393 20 view .LVU1189
 3923              	.LBE933:
 3924              	.LBE938:
 3925              		.loc 3 395 3 view .LVU1190
 3926              	.LBB939:
 3927              	.LBB934:
 3928              	.LBB930:
 3929              	.LBI922:
 3930              		.loc 4 708 27 view .LVU1191
 3931              	.LBE930:
 3932              	.LBE934:
 3933              	.LBE939:
 3934              		.loc 4 710 3 view .LVU1192
 3935              	.LBB940:
 3936              	.LBB935:
 3937              	.LBB931:
 3938              	.LBB928:
 3939              	.LBI923:
 3940              		.loc 4 669 27 view .LVU1193
 3941              	.LBE928:
 3942              	.LBE931:
 3943              	.LBE935:
 3944              	.LBE940:
 3945              		.loc 4 677 3 view .LVU1194
 3946              	.LVL193:
 3947              	.LBB941:
 3948              	.LBB936:
 3949              	.LBB932:
 3950              	.LBB929:
 3951              	.LBB927:
 3952              	.LBI924:
 3953              		.loc 5 491 27 view .LVU1195
 3954              	.LBB926:
 3955              		.loc 5 493 3 view .LVU1196
 3956              		.syntax unified
 3957              	@ 493 "../../../external/ChibiOS/os/common/ext/ARM/CMSIS/Core/Include/cmsis_gcc.h" 1
 3958 0800 83F31188 		MSR basepri, r3
 3959              	@ 0 "" 2
 3960              	.LVL194:
 3961              		.loc 5 493 3 is_stmt 0 view .LVU1197
 3962              		.thumb
 3963              		.syntax unified
 3964              	.LBE926:
 3965              	.LBE927:
ARM GAS  /tmp/ccpnbTSa.s 			page 71


 3966              	.LBE929:
 3967              	.LBE932:
 3968              	.LBE936:
 3969              	.LBE941:
 3970              		.loc 3 396 34 is_stmt 1 view .LVU1198
 3971              		.loc 3 397 29 view .LVU1199
 3972              		.loc 1 908 5 view .LVU1200
 3973              	.LBB942:
 3974              	.LBI942:
 3975              		.loc 1 453 6 view .LVU1201
 3976              	.LBB943:
 3977              		.loc 1 455 3 view .LVU1202
 3978              		.loc 1 457 23 view .LVU1203
 3979              		.loc 1 458 3 view .LVU1204
 3980              		.loc 1 458 3 view .LVU1205
 3981              		.loc 1 459 3 view .LVU1206
 3982              		.loc 1 459 3 view .LVU1207
 3983              		.loc 1 462 3 view .LVU1208
 3984              		.loc 1 462 19 is_stmt 0 view .LVU1209
 3985 0804 6289     		ldrh	r2, [r4, #10]
 3986              		.loc 1 468 15 view .LVU1210
 3987 0806 0025     		movs	r5, #0
 3988              		.loc 1 466 7 view .LVU1211
 3989 0808 E368     		ldr	r3, [r4, #12]
 3990              		.loc 1 476 3 view .LVU1212
 3991 080a 2046     		mov	r0, r4
 3992              	.LVL195:
 3993              		.loc 1 462 19 view .LVU1213
 3994 080c 42F00102 		orr	r2, r2, #1
 3995              		.loc 1 476 3 view .LVU1214
 3996 0810 2946     		mov	r1, r5
 3997              		.loc 1 466 7 view .LVU1215
 3998 0812 9B69     		ldr	r3, [r3, #24]
 3999              		.loc 1 462 19 view .LVU1216
 4000 0814 6281     		strh	r2, [r4, #10]	@ movhi
 4001              		.loc 1 466 3 is_stmt 1 view .LVU1217
 4002              	.LVL196:
 4003              		.loc 1 468 3 view .LVU1218
 4004              		.loc 1 468 15 is_stmt 0 view .LVU1219
 4005 0816 9D60     		str	r5, [r3, #8]
 4006              		.loc 1 469 3 is_stmt 1 view .LVU1220
 4007              		.loc 1 472 15 is_stmt 0 view .LVU1221
 4008 0818 DD60     		str	r5, [r3, #12]
 4009              		.loc 1 470 15 view .LVU1222
 4010 081a C3E90055 		strd	r5, r5, [r3]
 4011              		.loc 1 472 3 is_stmt 1 view .LVU1223
 4012              		.loc 1 476 3 view .LVU1224
 4013 081e FFF7FEFF 		bl	usb_lld_start_out
 4014              	.LVL197:
 4015              		.loc 1 476 3 is_stmt 0 view .LVU1225
 4016              	.LBE943:
 4017              	.LBE942:
 4018              		.loc 1 909 5 is_stmt 1 view .LVU1226
 4019              	.LBB944:
 4020              	.LBI944:
 4021              		.loc 2 542 20 view .LVU1227
 4022              	.LBE944:
ARM GAS  /tmp/ccpnbTSa.s 			page 72


 4023              		.loc 2 544 3 view .LVU1228
 4024              	.LBB956:
 4025              	.LBB945:
 4026              	.LBI945:
 4027              		.loc 3 413 20 view .LVU1229
 4028              	.LBE945:
 4029              	.LBE956:
 4030              		.loc 3 415 31 view .LVU1230
 4031              		.loc 3 416 33 view .LVU1231
 4032              		.loc 3 417 3 view .LVU1232
 4033              	.LBB957:
 4034              	.LBB953:
 4035              	.LBB946:
 4036              	.LBI946:
 4037              		.loc 4 719 27 view .LVU1233
 4038              	.LBE946:
 4039              	.LBE953:
 4040              	.LBE957:
 4041              		.loc 4 721 3 view .LVU1234
 4042              	.LBB958:
 4043              	.LBB954:
 4044              	.LBB951:
 4045              	.LBB947:
 4046              	.LBI947:
 4047              		.loc 4 693 27 view .LVU1235
 4048              	.LBE947:
 4049              	.LBE951:
 4050              	.LBE954:
 4051              	.LBE958:
 4052              		.loc 4 696 3 view .LVU1236
 4053              	.LBB959:
 4054              	.LBB955:
 4055              	.LBB952:
 4056              	.LBB950:
 4057              	.LBB948:
 4058              	.LBI948:
 4059              		.loc 5 491 27 view .LVU1237
 4060              	.LBB949:
 4061              		.loc 5 493 3 view .LVU1238
 4062              		.syntax unified
 4063              	@ 493 "../../../external/ChibiOS/os/common/ext/ARM/CMSIS/Core/Include/cmsis_gcc.h" 1
 4064 0822 85F31188 		MSR basepri, r5
 4065              	@ 0 "" 2
 4066              	.LVL198:
 4067              		.loc 5 493 3 is_stmt 0 view .LVU1239
 4068              		.thumb
 4069              		.syntax unified
 4070              	.LBE949:
 4071              	.LBE948:
 4072              	.LBE950:
 4073              	.LBE952:
 4074              	.LBE955:
 4075              	.LBE959:
 4076              		.loc 1 939 1 view .LVU1240
 4077 0826 38BD     		pop	{r3, r4, r5, pc}
 4078              	.LVL199:
 4079              	.L220:
ARM GAS  /tmp/ccpnbTSa.s 			page 73


 4080              		.loc 1 916 5 is_stmt 1 view .LVU1241
 4081              		.loc 1 916 13 is_stmt 0 view .LVU1242
 4082 0828 C36F     		ldr	r3, [r0, #124]
 4083              		.loc 1 916 8 view .LVU1243
 4084 082a 03B1     		cbz	r3, .L223
 4085              		.loc 1 917 7 is_stmt 1 view .LVU1244
 4086 082c 9847     		blx	r3
 4087              	.LVL200:
 4088              	.L223:
 4089              		.loc 1 919 5 view .LVU1245
 4090              		.loc 1 919 20 is_stmt 0 view .LVU1246
 4091 082e 0023     		movs	r3, #0
 4092 0830 84F87030 		strb	r3, [r4, #112]
 4093              		.loc 1 920 5 is_stmt 1 view .LVU1247
 4094              		.loc 1 939 1 is_stmt 0 view .LVU1248
 4095 0834 38BD     		pop	{r3, r4, r5, pc}
 4096              	.LVL201:
 4097              	.L232:
 4098              		.loc 1 896 7 is_stmt 1 view .LVU1249
 4099              	.LBB960:
 4100              	.LBI960:
 4101              		.loc 2 531 20 view .LVU1250
 4102              	.LBE960:
 4103              		.loc 2 533 3 view .LVU1251
 4104              	.LBB972:
 4105              	.LBB961:
 4106              	.LBI961:
 4107              		.loc 3 393 20 view .LVU1252
 4108              	.LBE961:
 4109              	.LBE972:
 4110              		.loc 3 395 3 view .LVU1253
 4111              	.LBB973:
 4112              	.LBB969:
 4113              	.LBB962:
 4114              	.LBI962:
 4115              		.loc 4 708 27 view .LVU1254
 4116              	.LBE962:
 4117              	.LBE969:
 4118              	.LBE973:
 4119              		.loc 4 710 3 view .LVU1255
 4120              	.LBB974:
 4121              	.LBB970:
 4122              	.LBB967:
 4123              	.LBB963:
 4124              	.LBI963:
 4125              		.loc 4 669 27 view .LVU1256
 4126              	.LBE963:
 4127              	.LBE967:
 4128              	.LBE970:
 4129              	.LBE974:
 4130              		.loc 4 677 3 view .LVU1257
 4131              	.LBB975:
 4132              	.LBB971:
 4133              	.LBB968:
 4134              	.LBB966:
 4135              	.LBB964:
 4136              	.LBI964:
ARM GAS  /tmp/ccpnbTSa.s 			page 74


 4137              		.loc 5 491 27 view .LVU1258
 4138              	.LBB965:
 4139              		.loc 5 493 3 view .LVU1259
 4140 0836 2023     		movs	r3, #32
 4141              		.syntax unified
 4142              	@ 493 "../../../external/ChibiOS/os/common/ext/ARM/CMSIS/Core/Include/cmsis_gcc.h" 1
 4143 0838 83F31188 		MSR basepri, r3
 4144              	@ 0 "" 2
 4145              	.LVL202:
 4146              		.loc 5 493 3 is_stmt 0 view .LVU1260
 4147              		.thumb
 4148              		.syntax unified
 4149              	.LBE965:
 4150              	.LBE964:
 4151              	.LBE966:
 4152              	.LBE968:
 4153              	.LBE971:
 4154              	.LBE975:
 4155              		.loc 3 396 34 is_stmt 1 view .LVU1261
 4156              		.loc 3 397 29 view .LVU1262
 4157              		.loc 1 897 7 view .LVU1263
 4158              	.LBB976:
 4159              	.LBI976:
 4160              		.loc 1 492 6 view .LVU1264
 4161              	.LBB977:
 4162              		.loc 1 494 3 view .LVU1265
 4163              		.loc 1 496 23 view .LVU1266
 4164              		.loc 1 497 3 view .LVU1267
 4165              		.loc 1 497 3 view .LVU1268
 4166              		.loc 1 498 3 view .LVU1269
 4167              		.loc 1 498 3 view .LVU1270
 4168              		.loc 1 501 3 view .LVU1271
 4169              		.loc 1 501 22 is_stmt 0 view .LVU1272
 4170 083c 0289     		ldrh	r2, [r0, #8]
 4171              		.loc 1 515 3 view .LVU1273
 4172 083e 2946     		mov	r1, r5
 4173              	.LVL203:
 4174              		.loc 1 505 7 view .LVU1274
 4175 0840 C368     		ldr	r3, [r0, #12]
 4176              		.loc 1 501 22 view .LVU1275
 4177 0842 42F00102 		orr	r2, r2, #1
 4178              		.loc 1 505 7 view .LVU1276
 4179 0846 5B69     		ldr	r3, [r3, #20]
 4180              		.loc 1 501 22 view .LVU1277
 4181 0848 0281     		strh	r2, [r0, #8]	@ movhi
 4182              	.LVL204:
 4183              		.loc 1 505 3 is_stmt 1 view .LVU1278
 4184              		.loc 1 507 3 view .LVU1279
 4185              		.loc 1 507 15 is_stmt 0 view .LVU1280
 4186 084a 9D60     		str	r5, [r3, #8]
 4187              		.loc 1 508 3 is_stmt 1 view .LVU1281
 4188              		.loc 1 511 15 is_stmt 0 view .LVU1282
 4189 084c DD60     		str	r5, [r3, #12]
 4190              		.loc 1 509 15 view .LVU1283
 4191 084e C3E90055 		strd	r5, r5, [r3]
 4192              		.loc 1 511 3 is_stmt 1 view .LVU1284
 4193              		.loc 1 515 3 view .LVU1285
ARM GAS  /tmp/ccpnbTSa.s 			page 75


 4194 0852 FFF7FEFF 		bl	usb_lld_start_in
 4195              	.LVL205:
 4196              		.loc 1 515 3 is_stmt 0 view .LVU1286
 4197              	.LBE977:
 4198              	.LBE976:
 4199              		.loc 1 898 7 is_stmt 1 view .LVU1287
 4200              	.LBB978:
 4201              	.LBI978:
 4202              		.loc 2 542 20 view .LVU1288
 4203              	.LBE978:
 4204              		.loc 2 544 3 view .LVU1289
 4205              	.LBB990:
 4206              	.LBB979:
 4207              	.LBI979:
 4208              		.loc 3 413 20 view .LVU1290
 4209              	.LBE979:
 4210              	.LBE990:
 4211              		.loc 3 415 31 view .LVU1291
 4212              		.loc 3 416 33 view .LVU1292
 4213              		.loc 3 417 3 view .LVU1293
 4214              	.LBB991:
 4215              	.LBB987:
 4216              	.LBB980:
 4217              	.LBI980:
 4218              		.loc 4 719 27 view .LVU1294
 4219              	.LBE980:
 4220              	.LBE987:
 4221              	.LBE991:
 4222              		.loc 4 721 3 view .LVU1295
 4223              	.LBB992:
 4224              	.LBB988:
 4225              	.LBB985:
 4226              	.LBB981:
 4227              	.LBI981:
 4228              		.loc 4 693 27 view .LVU1296
 4229              	.LBE981:
 4230              	.LBE985:
 4231              	.LBE988:
 4232              	.LBE992:
 4233              		.loc 4 696 3 view .LVU1297
 4234              	.LBB993:
 4235              	.LBB989:
 4236              	.LBB986:
 4237              	.LBB984:
 4238              	.LBB982:
 4239              	.LBI982:
 4240              		.loc 5 491 27 view .LVU1298
 4241              	.LBB983:
 4242              		.loc 5 493 3 view .LVU1299
 4243              		.syntax unified
 4244              	@ 493 "../../../external/ChibiOS/os/common/ext/ARM/CMSIS/Core/Include/cmsis_gcc.h" 1
 4245 0856 85F31188 		MSR basepri, r5
 4246              	@ 0 "" 2
 4247              	.LVL206:
 4248              		.loc 5 493 3 is_stmt 0 view .LVU1300
 4249              		.thumb
 4250              		.syntax unified
ARM GAS  /tmp/ccpnbTSa.s 			page 76


 4251              	.LBE983:
 4252              	.LBE982:
 4253              	.LBE984:
 4254              	.LBE986:
 4255              	.LBE989:
 4256              	.LBE993:
 4257              		.loc 1 899 7 is_stmt 1 view .LVU1301
 4258              		.loc 1 899 22 is_stmt 0 view .LVU1302
 4259 085a 0A23     		movs	r3, #10
 4260 085c 84F87030 		strb	r3, [r4, #112]
 4261              		.loc 1 900 7 is_stmt 1 view .LVU1303
 4262              		.loc 1 939 1 is_stmt 0 view .LVU1304
 4263 0860 38BD     		pop	{r3, r4, r5, pc}
 4264              		.loc 1 939 1 view .LVU1305
 4265              		.cfi_endproc
 4266              	.LFE382:
 4267              		.size	_usb_ep0in, .-_usb_ep0in
 4268              		.align	1
 4269 0862 00BFAFF3 		.p2align 4,,15
 4269      0080AFF3 
 4269      0080AFF3 
 4269      0080
 4270              		.global	_usb_ep0out
 4271              		.syntax unified
 4272              		.thumb
 4273              		.thumb_func
 4274              		.fpu fpv4-sp-d16
 4275              		.type	_usb_ep0out, %function
 4276              	_usb_ep0out:
 4277              	.LVL207:
 4278              	.LFB383:
 4279              		.loc 1 951 47 is_stmt 1 view -0
 4280              		.cfi_startproc
 4281              		@ args = 0, pretend = 0, frame = 0
 4282              		@ frame_needed = 0, uses_anonymous_args = 0
 4283              		.loc 1 953 3 view .LVU1307
 4284              		.loc 1 954 3 view .LVU1308
 4285              		.loc 1 954 15 is_stmt 0 view .LVU1309
 4286 0870 90F87020 		ldrb	r2, [r0, #112]	@ zero_extendqisi2
 4287 0874 152A     		cmp	r2, #21
 4288 0876 15D8     		bhi	.L249
 4289 0878 40F64161 		movw	r1, #3649
 4290              	.LVL208:
 4291              		.loc 1 951 47 view .LVU1310
 4292 087c 38B5     		push	{r3, r4, r5, lr}
 4293              		.cfi_def_cfa_offset 16
 4294              		.cfi_offset 3, -16
 4295              		.cfi_offset 4, -12
 4296              		.cfi_offset 5, -8
 4297              		.cfi_offset 14, -4
 4298 087e 0123     		movs	r3, #1
 4299 0880 0446     		mov	r4, r0
 4300 0882 9340     		lsls	r3, r3, r2
 4301 0884 0B42     		tst	r3, r1
 4302 0886 26D1     		bne	.L235
 4303 0888 13F48015 		ands	r5, r3, #1048576
 4304 088c 0BD0     		beq	.L252
ARM GAS  /tmp/ccpnbTSa.s 			page 77


 4305              		.loc 1 970 5 is_stmt 1 view .LVU1311
 4306              		.loc 1 970 9 is_stmt 0 view .LVU1312
 4307 088e C368     		ldr	r3, [r0, #12]
 4308 0890 9B69     		ldr	r3, [r3, #24]
 4309              		.loc 1 970 8 view .LVU1313
 4310 0892 5B68     		ldr	r3, [r3, #4]
 4311 0894 2BB9     		cbnz	r3, .L233
 4312              		.loc 1 974 5 is_stmt 1 view .LVU1314
 4313              		.loc 1 974 13 is_stmt 0 view .LVU1315
 4314 0896 C36F     		ldr	r3, [r0, #124]
 4315              		.loc 1 974 8 view .LVU1316
 4316 0898 03B1     		cbz	r3, .L237
 4317              		.loc 1 975 7 is_stmt 1 view .LVU1317
 4318 089a 9847     		blx	r3
 4319              	.LVL209:
 4320              	.L237:
 4321              		.loc 1 977 5 view .LVU1318
 4322              		.loc 1 977 20 is_stmt 0 view .LVU1319
 4323 089c 0023     		movs	r3, #0
 4324 089e 84F87030 		strb	r3, [r4, #112]
 4325              		.loc 1 978 5 is_stmt 1 view .LVU1320
 4326              	.L233:
 4327              		.loc 1 998 1 is_stmt 0 view .LVU1321
 4328 08a2 38BD     		pop	{r3, r4, r5, pc}
 4329              	.LVL210:
 4330              	.L249:
 4331              		.cfi_def_cfa_offset 0
 4332              		.cfi_restore 3
 4333              		.cfi_restore 4
 4334              		.cfi_restore 5
 4335              		.cfi_restore 14
 4336              		.loc 1 998 1 view .LVU1322
 4337 08a4 7047     		bx	lr
 4338              	.LVL211:
 4339              	.L252:
 4340              		.cfi_def_cfa_offset 16
 4341              		.cfi_offset 3, -16
 4342              		.cfi_offset 4, -12
 4343              		.cfi_offset 5, -8
 4344              		.cfi_offset 14, -4
 4345              		.loc 1 998 1 view .LVU1323
 4346 08a6 9B02     		lsls	r3, r3, #10
 4347 08a8 FBD5     		bpl	.L233
 4348              		.loc 1 957 5 is_stmt 1 view .LVU1324
 4349              		.loc 1 957 20 is_stmt 0 view .LVU1325
 4350 08aa 0B22     		movs	r2, #11
 4351              	.LBB994:
 4352              	.LBB995:
 4353              	.LBB996:
 4354              	.LBB997:
 4355              	.LBB998:
 4356              	.LBB999:
 4357              		.loc 5 493 3 view .LVU1326
 4358 08ac 2023     		movs	r3, #32
 4359              	.LBE999:
 4360              	.LBE998:
 4361              	.LBE997:
ARM GAS  /tmp/ccpnbTSa.s 			page 78


 4362              	.LBE996:
 4363              	.LBE995:
 4364              	.LBE994:
 4365              		.loc 1 957 20 view .LVU1327
 4366 08ae 80F87020 		strb	r2, [r0, #112]
 4367              		.loc 1 959 5 is_stmt 1 view .LVU1328
 4368              	.LBB1011:
 4369              	.LBI994:
 4370              		.loc 2 531 20 view .LVU1329
 4371              	.LBE1011:
 4372              		.loc 2 533 3 view .LVU1330
 4373              	.LBB1012:
 4374              	.LBB1007:
 4375              	.LBI995:
 4376              		.loc 3 393 20 view .LVU1331
 4377              	.LBE1007:
 4378              	.LBE1012:
 4379              		.loc 3 395 3 view .LVU1332
 4380              	.LBB1013:
 4381              	.LBB1008:
 4382              	.LBB1004:
 4383              	.LBI996:
 4384              		.loc 4 708 27 view .LVU1333
 4385              	.LBE1004:
 4386              	.LBE1008:
 4387              	.LBE1013:
 4388              		.loc 4 710 3 view .LVU1334
 4389              	.LBB1014:
 4390              	.LBB1009:
 4391              	.LBB1005:
 4392              	.LBB1002:
 4393              	.LBI997:
 4394              		.loc 4 669 27 view .LVU1335
 4395              	.LBE1002:
 4396              	.LBE1005:
 4397              	.LBE1009:
 4398              	.LBE1014:
 4399              		.loc 4 677 3 view .LVU1336
 4400              	.LVL212:
 4401              	.LBB1015:
 4402              	.LBB1010:
 4403              	.LBB1006:
 4404              	.LBB1003:
 4405              	.LBB1001:
 4406              	.LBI998:
 4407              		.loc 5 491 27 view .LVU1337
 4408              	.LBB1000:
 4409              		.loc 5 493 3 view .LVU1338
 4410              		.syntax unified
 4411              	@ 493 "../../../external/ChibiOS/os/common/ext/ARM/CMSIS/Core/Include/cmsis_gcc.h" 1
 4412 08b2 83F31188 		MSR basepri, r3
 4413              	@ 0 "" 2
 4414              	.LVL213:
 4415              		.loc 5 493 3 is_stmt 0 view .LVU1339
 4416              		.thumb
 4417              		.syntax unified
 4418              	.LBE1000:
ARM GAS  /tmp/ccpnbTSa.s 			page 79


 4419              	.LBE1001:
 4420              	.LBE1003:
 4421              	.LBE1006:
 4422              	.LBE1010:
 4423              	.LBE1015:
 4424              		.loc 3 396 34 is_stmt 1 view .LVU1340
 4425              		.loc 3 397 29 view .LVU1341
 4426              		.loc 1 960 5 view .LVU1342
 4427              	.LBB1016:
 4428              	.LBI1016:
 4429              		.loc 1 492 6 view .LVU1343
 4430              	.LBB1017:
 4431              		.loc 1 494 3 view .LVU1344
 4432              		.loc 1 496 23 view .LVU1345
 4433              		.loc 1 497 3 view .LVU1346
 4434              		.loc 1 497 3 view .LVU1347
 4435              		.loc 1 498 3 view .LVU1348
 4436              		.loc 1 498 3 view .LVU1349
 4437              		.loc 1 501 3 view .LVU1350
 4438              		.loc 1 501 22 is_stmt 0 view .LVU1351
 4439 08b6 0289     		ldrh	r2, [r0, #8]
 4440              		.loc 1 515 3 view .LVU1352
 4441 08b8 2946     		mov	r1, r5
 4442              		.loc 1 505 7 view .LVU1353
 4443 08ba C368     		ldr	r3, [r0, #12]
 4444              		.loc 1 501 22 view .LVU1354
 4445 08bc 42F00102 		orr	r2, r2, #1
 4446              		.loc 1 505 7 view .LVU1355
 4447 08c0 5B69     		ldr	r3, [r3, #20]
 4448              		.loc 1 501 22 view .LVU1356
 4449 08c2 0281     		strh	r2, [r0, #8]	@ movhi
 4450              		.loc 1 505 3 is_stmt 1 view .LVU1357
 4451              	.LVL214:
 4452              		.loc 1 507 3 view .LVU1358
 4453              		.loc 1 507 15 is_stmt 0 view .LVU1359
 4454 08c4 9D60     		str	r5, [r3, #8]
 4455              		.loc 1 508 3 is_stmt 1 view .LVU1360
 4456              		.loc 1 511 15 is_stmt 0 view .LVU1361
 4457 08c6 DD60     		str	r5, [r3, #12]
 4458              		.loc 1 509 15 view .LVU1362
 4459 08c8 C3E90055 		strd	r5, r5, [r3]
 4460              		.loc 1 511 3 is_stmt 1 view .LVU1363
 4461              		.loc 1 515 3 view .LVU1364
 4462 08cc FFF7FEFF 		bl	usb_lld_start_in
 4463              	.LVL215:
 4464              		.loc 1 515 3 is_stmt 0 view .LVU1365
 4465              	.LBE1017:
 4466              	.LBE1016:
 4467              		.loc 1 961 5 is_stmt 1 view .LVU1366
 4468              	.LBB1018:
 4469              	.LBI1018:
 4470              		.loc 2 542 20 view .LVU1367
 4471              	.LBE1018:
 4472              		.loc 2 544 3 view .LVU1368
 4473              	.LBB1030:
 4474              	.LBB1019:
 4475              	.LBI1019:
ARM GAS  /tmp/ccpnbTSa.s 			page 80


 4476              		.loc 3 413 20 view .LVU1369
 4477              	.LBE1019:
 4478              	.LBE1030:
 4479              		.loc 3 415 31 view .LVU1370
 4480              		.loc 3 416 33 view .LVU1371
 4481              		.loc 3 417 3 view .LVU1372
 4482              	.LBB1031:
 4483              	.LBB1027:
 4484              	.LBB1020:
 4485              	.LBI1020:
 4486              		.loc 4 719 27 view .LVU1373
 4487              	.LBE1020:
 4488              	.LBE1027:
 4489              	.LBE1031:
 4490              		.loc 4 721 3 view .LVU1374
 4491              	.LBB1032:
 4492              	.LBB1028:
 4493              	.LBB1025:
 4494              	.LBB1021:
 4495              	.LBI1021:
 4496              		.loc 4 693 27 view .LVU1375
 4497              	.LBE1021:
 4498              	.LBE1025:
 4499              	.LBE1028:
 4500              	.LBE1032:
 4501              		.loc 4 696 3 view .LVU1376
 4502              	.LBB1033:
 4503              	.LBB1029:
 4504              	.LBB1026:
 4505              	.LBB1024:
 4506              	.LBB1022:
 4507              	.LBI1022:
 4508              		.loc 5 491 27 view .LVU1377
 4509              	.LBB1023:
 4510              		.loc 5 493 3 view .LVU1378
 4511              		.syntax unified
 4512              	@ 493 "../../../external/ChibiOS/os/common/ext/ARM/CMSIS/Core/Include/cmsis_gcc.h" 1
 4513 08d0 85F31188 		MSR basepri, r5
 4514              	@ 0 "" 2
 4515              	.LVL216:
 4516              		.loc 5 493 3 is_stmt 0 view .LVU1379
 4517              		.thumb
 4518              		.syntax unified
 4519              	.LBE1023:
 4520              	.LBE1022:
 4521              	.LBE1024:
 4522              	.LBE1026:
 4523              	.LBE1029:
 4524              	.LBE1033:
 4525              		.loc 1 998 1 view .LVU1380
 4526 08d4 38BD     		pop	{r3, r4, r5, pc}
 4527              	.LVL217:
 4528              	.L235:
 4529              		.loc 1 990 5 is_stmt 1 view .LVU1381
 4530 08d6 0021     		movs	r1, #0
 4531 08d8 FFF7FEFF 		bl	usb_lld_stall_in
 4532              	.LVL218:
ARM GAS  /tmp/ccpnbTSa.s 			page 81


 4533              		.loc 1 991 5 view .LVU1382
 4534 08dc 0021     		movs	r1, #0
 4535 08de 2046     		mov	r0, r4
 4536 08e0 FFF7FEFF 		bl	usb_lld_stall_out
 4537              	.LVL219:
 4538              		.loc 1 992 5 view .LVU1383
 4539 08e4 6368     		ldr	r3, [r4, #4]
 4540 08e6 1B68     		ldr	r3, [r3]
 4541 08e8 13B1     		cbz	r3, .L238
 4542              		.loc 1 992 5 discriminator 1 view .LVU1384
 4543 08ea 0621     		movs	r1, #6
 4544 08ec 2046     		mov	r0, r4
 4545 08ee 9847     		blx	r3
 4546              	.LVL220:
 4547              	.L238:
 4548              		.loc 1 992 54 discriminator 3 view .LVU1385
 4549              		.loc 1 993 5 discriminator 3 view .LVU1386
 4550              		.loc 1 993 20 is_stmt 0 discriminator 3 view .LVU1387
 4551 08f0 0623     		movs	r3, #6
 4552 08f2 84F87030 		strb	r3, [r4, #112]
 4553              		.loc 1 994 5 is_stmt 1 discriminator 3 view .LVU1388
 4554              		.loc 1 998 1 is_stmt 0 discriminator 3 view .LVU1389
 4555 08f6 38BD     		pop	{r3, r4, r5, pc}
 4556              		.loc 1 998 1 discriminator 3 view .LVU1390
 4557              		.cfi_endproc
 4558              	.LFE383:
 4559              		.size	_usb_ep0out, .-_usb_ep0out
 4560              		.section	.rodata
 4561              		.align	2
 4562              		.set	.LANCHOR0,. + 0
 4563              		.type	zero_status, %object
 4564              		.size	zero_status, 2
 4565              	zero_status:
 4566 0000 0000     		.space	2
 4567 0002 0000     		.space	2
 4568              		.type	halted_status, %object
 4569              		.size	halted_status, 2
 4570              	halted_status:
 4571 0004 01       		.byte	1
 4572 0005 00       		.byte	0
 4573 0006 0000     		.space	2
 4574              		.type	active_status, %object
 4575              		.size	active_status, 2
 4576              	active_status:
 4577 0008 0000     		.space	2
 4578              		.text
 4579              	.Letext0:
 4580              		.file 6 "/home/nicolas/arm/gcc-arm-none-eabi-8-2019-q3-update/lib/gcc/arm-none-eabi/8.3.1/include/
 4581              		.file 7 "/home/nicolas/arm/gcc-arm-none-eabi-8-2019-q3-update/arm-none-eabi/include/machine/_defau
 4582              		.file 8 "/home/nicolas/arm/gcc-arm-none-eabi-8-2019-q3-update/arm-none-eabi/include/sys/_types.h"
 4583              		.file 9 "/home/nicolas/arm/gcc-arm-none-eabi-8-2019-q3-update/arm-none-eabi/include/sys/reent.h"
 4584              		.file 10 "/home/nicolas/arm/gcc-arm-none-eabi-8-2019-q3-update/arm-none-eabi/include/sys/lock.h"
 4585              		.file 11 "/home/nicolas/arm/gcc-arm-none-eabi-8-2019-q3-update/arm-none-eabi/include/sys/_stdint.h
 4586              		.file 12 "/home/nicolas/arm/gcc-arm-none-eabi-8-2019-q3-update/arm-none-eabi/include/stdint.h"
 4587              		.file 13 "../../../external/ChibiOS/os/common/ports/ARMCMx/compilers/GCC/chtypes.h"
 4588              		.file 14 "../../../external/ChibiOS/os/rt/include/chsystypes.h"
 4589              		.file 15 "../../../external/ChibiOS/os/rt/include/chschd.h"
ARM GAS  /tmp/ccpnbTSa.s 			page 82


 4590              		.file 16 "../../../external/ChibiOS/os/rt/include/chtime.h"
 4591              		.file 17 "../../../external/ChibiOS/os/common/ext/ARM/CMSIS/Core/Include/core_cm7.h"
 4592              		.file 18 "../../../external/ChibiOS/os/common/ext/ST/STM32H7xx/system_stm32h7xx.h"
 4593              		.file 19 "../../../external/ChibiOS/os/common/ext/ST/STM32H7xx/stm32h753xx.h"
 4594              		.file 20 "../../../external/ChibiOS/os/common/ports/ARMCMx/chcore.h"
 4595              		.file 21 "../../../external/ChibiOS/os/rt/include/chtrace.h"
 4596              		.file 22 "../../../external/ChibiOS/os/rt/include/chtm.h"
 4597              		.file 23 "../../../external/ChibiOS/os/rt/include/chsem.h"
 4598              		.file 24 "../../../external/ChibiOS/os/rt/include/chmtx.h"
 4599              		.file 25 "../../../external/ChibiOS/os/rt/include/chregistry.h"
 4600              		.file 26 "../../../external/ChibiOS/os/rt/include/chevents.h"
 4601              		.file 27 "../../../external/ChibiOS/os/oslib/include/chmemcore.h"
 4602              		.file 28 "../../../external/ChibiOS/os/oslib/include/chmempools.h"
 4603              		.file 29 "../../../external/ChibiOS/os/oslib/include/chfactory.h"
 4604              		.file 30 "../../../external/ChibiOS/os/hal/ports/STM32/LLD/DMAv2/stm32_dma.h"
 4605              		.file 31 "../../../external/ChibiOS/os/hal/ports/STM32/LLD/BDMAv1/stm32_bdma.h"
 4606              		.file 32 "../../../external/ChibiOS/os/hal/ports/STM32/LLD/TIMv1/stm32_tim.h"
 4607              		.file 33 "../../../external/ChibiOS/os/hal/include/hal_ioblock.h"
 4608              		.file 34 "../../../external/ChibiOS/os/hal/include/hal_queues.h"
 4609              		.file 35 "../../../external/ChibiOS/os/hal/ports/STM32/LLD/GPIOv2/stm32_gpio.h"
 4610              		.file 36 "../../../external/ChibiOS/os/hal/ports/STM32/LLD/GPIOv2/hal_pal_lld.h"
 4611              		.file 37 "../../../external/ChibiOS/os/hal/include/hal_adc.h"
 4612              		.file 38 "../../../external/ChibiOS/os/hal/ports/STM32/LLD/ADCv4/hal_adc_lld.h"
 4613              		.file 39 "../../../external/ChibiOS/os/hal/include/hal_i2c.h"
 4614              		.file 40 "../../../external/ChibiOS/os/hal/ports/STM32/LLD/I2Cv3/hal_i2c_lld.h"
 4615              		.file 41 "../../../external/ChibiOS/os/hal/include/hal_pwm.h"
 4616              		.file 42 "../../../external/ChibiOS/os/hal/ports/STM32/LLD/TIMv1/hal_pwm_lld.h"
 4617              		.file 43 "../../../external/ChibiOS/os/hal/include/hal_serial.h"
 4618              		.file 44 "../../../external/ChibiOS/os/hal/ports/STM32/LLD/USARTv2/hal_serial_lld.h"
 4619              		.file 45 "../../../external/ChibiOS/os/hal/include/hal_sdc.h"
 4620              		.file 46 "../../../external/ChibiOS/os/hal/ports/STM32/LLD/SDMMCv2/hal_sdc_lld.h"
 4621              		.file 47 "../../../external/ChibiOS/os/hal/include/hal_spi.h"
 4622              		.file 48 "../../../external/ChibiOS/os/hal/ports/STM32/LLD/SPIv3/hal_spi_lld.h"
 4623              		.file 49 "../../../external/ChibiOS/os/hal/include/hal_trng.h"
 4624              		.file 50 "../../../external/ChibiOS/os/hal/ports/STM32/LLD/RNGv1/hal_trng_lld.h"
 4625              		.file 51 "../../../external/ChibiOS/os/hal/include/hal_usb.h"
 4626              		.file 52 "../../../external/ChibiOS/os/hal/ports/STM32/LLD/OTGv1/hal_usb_lld.h"
 4627              		.file 53 "../../../external/ChibiOS/os/hal/ports/STM32/LLD/OTGv1/stm32_otg.h"
 4628              		.file 54 "../../../external/ChibiOS-Contrib/os/hal/include/hal_fsmc.h"
 4629              		.file 55 "../../../external/ChibiOS-Contrib/os/hal/include/hal_sdram.h"
 4630              		.file 56 "../../../external/ChibiOS/os/rt/include/chthreads.h"