ARM GAS  /tmp/cc0Kwufm.s 			page 1


   1              		.cpu cortex-m7
   2              		.eabi_attribute 27, 1
   3              		.eabi_attribute 28, 1
   4              		.eabi_attribute 20, 1
   5              		.eabi_attribute 21, 1
   6              		.eabi_attribute 23, 3
   7              		.eabi_attribute 24, 1
   8              		.eabi_attribute 25, 1
   9              		.eabi_attribute 26, 1
  10              		.eabi_attribute 30, 2
  11              		.eabi_attribute 34, 1
  12              		.eabi_attribute 18, 4
  13              		.file	"hal_st_lld.c"
  14              		.text
  15              	.Ltext0:
  16              		.cfi_sections	.debug_frame
  17              		.align	1
  18              		.p2align 4,,15
  19              		.global	st_lld_init
  20              		.arch armv7e-m
  21              		.syntax unified
  22              		.thumb
  23              		.thumb_func
  24              		.fpu fpv4-sp-d16
  25              		.type	st_lld_init, %function
  26              	st_lld_init:
  27              	.LFB362:
  28              		.file 1 "../../../external/ChibiOS/os/hal/ports/STM32/LLD/TIMv1/hal_st_lld.c"
  29              		.loc 1 396 24 view -0
  30              		.cfi_startproc
  31              		@ args = 0, pretend = 0, frame = 0
  32              		@ frame_needed = 0, uses_anonymous_args = 0
  33              		@ link register save eliminated.
  34              		.loc 1 402 3 view .LVU1
  35 0000 124A     		ldr	r2, .L4
  36              		.loc 1 408 24 is_stmt 0 view .LVU2
  37 0002 4FF08043 		mov	r3, #1073741824
  38              		.loc 1 410 24 view .LVU3
  39 0006 0021     		movs	r1, #0
  40              		.loc 1 402 3 view .LVU4
  41 0008 D2F8E800 		ldr	r0, [r2, #232]
  42 000c 40F00100 		orr	r0, r0, #1
  43              		.loc 1 396 24 view .LVU5
  44 0010 70B4     		push	{r4, r5, r6}
  45              		.cfi_def_cfa_offset 12
  46              		.cfi_offset 4, -12
  47              		.cfi_offset 5, -8
  48              		.cfi_offset 6, -4
  49              		.loc 1 402 3 view .LVU6
  50 0012 C2F8E800 		str	r0, [r2, #232]
  51              		.loc 1 402 3 is_stmt 1 view .LVU7
  52              		.loc 1 402 3 view .LVU8
  53              		.loc 1 408 24 is_stmt 0 view .LVU9
  54 0016 45F6BF56 		movw	r6, #23999
  55              		.loc 1 402 3 view .LVU10
  56 001a D2F81001 		ldr	r0, [r2, #272]
  57              		.loc 1 409 24 view .LVU11
ARM GAS  /tmp/cc0Kwufm.s 			page 2


  58 001e 4FF0FF35 		mov	r5, #-1
  59              		.loc 1 405 3 view .LVU12
  60 0022 0B4C     		ldr	r4, .L4+4
  61              		.loc 1 402 3 view .LVU13
  62 0024 40F00100 		orr	r0, r0, #1
  63 0028 C2F81001 		str	r0, [r2, #272]
  64              		.loc 1 402 3 is_stmt 1 view .LVU14
  65              		.loc 1 423 24 is_stmt 0 view .LVU15
  66 002c 0120     		movs	r0, #1
  67              		.loc 1 402 3 view .LVU16
  68 002e D2F81021 		ldr	r2, [r2, #272]
  69              		.loc 1 402 20 is_stmt 1 view .LVU17
  70              		.loc 1 405 3 view .LVU18
  71 0032 E26B     		ldr	r2, [r4, #60]
  72 0034 0243     		orrs	r2, r2, r0
  73 0036 E263     		str	r2, [r4, #60]
  74              		.loc 1 408 3 view .LVU19
  75              		.loc 1 408 24 is_stmt 0 view .LVU20
  76 0038 9E62     		str	r6, [r3, #40]
  77              		.loc 1 409 3 is_stmt 1 view .LVU21
  78              		.loc 1 409 24 is_stmt 0 view .LVU22
  79 003a DD62     		str	r5, [r3, #44]
  80              		.loc 1 410 3 is_stmt 1 view .LVU23
  81              		.loc 1 410 24 is_stmt 0 view .LVU24
  82 003c 9961     		str	r1, [r3, #24]
  83              		.loc 1 411 3 is_stmt 1 view .LVU25
  84              		.loc 1 411 24 is_stmt 0 view .LVU26
  85 003e 5963     		str	r1, [r3, #52]
  86              		.loc 1 421 3 is_stmt 1 view .LVU27
  87              		.loc 1 421 24 is_stmt 0 view .LVU28
  88 0040 D960     		str	r1, [r3, #12]
  89              		.loc 1 422 3 is_stmt 1 view .LVU29
  90              		.loc 1 422 24 is_stmt 0 view .LVU30
  91 0042 5960     		str	r1, [r3, #4]
  92              		.loc 1 423 3 is_stmt 1 view .LVU31
  93              		.loc 1 423 24 is_stmt 0 view .LVU32
  94 0044 5861     		str	r0, [r3, #20]
  95              		.loc 1 424 3 is_stmt 1 view .LVU33
  96              		.loc 1 424 24 is_stmt 0 view .LVU34
  97 0046 1860     		str	r0, [r3]
  98              		.loc 1 444 1 view .LVU35
  99 0048 70BC     		pop	{r4, r5, r6}
 100              		.cfi_restore 6
 101              		.cfi_restore 5
 102              		.cfi_restore 4
 103              		.cfi_def_cfa_offset 0
 104 004a 7047     		bx	lr
 105              	.L5:
 106              		.align	2
 107              	.L4:
 108 004c 00440258 		.word	1476543488
 109 0050 0010005C 		.word	1543507968
 110              		.cfi_endproc
 111              	.LFE362:
 112              		.size	st_lld_init, .-st_lld_init
 113              		.align	1
 114 0054 AFF30080 		.p2align 4,,15
ARM GAS  /tmp/cc0Kwufm.s 			page 3


 114      AFF30080 
 114      AFF30080 
 115              		.global	st_lld_serve_interrupt
 116              		.syntax unified
 117              		.thumb
 118              		.thumb_func
 119              		.fpu fpv4-sp-d16
 120              		.type	st_lld_serve_interrupt, %function
 121              	st_lld_serve_interrupt:
 122              	.LFB363:
 123              		.loc 1 449 35 is_stmt 1 view -0
 124              		.cfi_startproc
 125              		@ args = 0, pretend = 0, frame = 0
 126              		@ frame_needed = 0, uses_anonymous_args = 0
 127              		.loc 1 451 3 view .LVU37
 128              		.loc 1 452 3 view .LVU38
 129              	.LVL0:
 130              		.loc 1 454 3 view .LVU39
 131              		.loc 1 454 7 is_stmt 0 view .LVU40
 132 0060 4FF08042 		mov	r2, #1073741824
 133              		.loc 1 449 35 view .LVU41
 134 0064 08B5     		push	{r3, lr}
 135              		.cfi_def_cfa_offset 8
 136              		.cfi_offset 3, -8
 137              		.cfi_offset 14, -4
 138              		.loc 1 454 7 view .LVU42
 139 0066 1169     		ldr	r1, [r2, #16]
 140              	.LVL1:
 141              		.loc 1 455 3 is_stmt 1 view .LVU43
 142              		.loc 1 455 13 is_stmt 0 view .LVU44
 143 0068 D368     		ldr	r3, [r2, #12]
 144 006a 0B40     		ands	r3, r3, r1
 145              	.LVL2:
 146              		.loc 1 456 3 is_stmt 1 view .LVU45
 147              		.loc 1 455 6 is_stmt 0 view .LVU46
 148 006c D9B2     		uxtb	r1, r3
 149              		.loc 1 458 6 view .LVU47
 150 006e 9B07     		lsls	r3, r3, #30
 151              	.LVL3:
 152              		.loc 1 456 14 view .LVU48
 153 0070 6FEA0101 		mvn	r1, r1
 154              		.loc 1 456 12 view .LVU49
 155 0074 1161     		str	r1, [r2, #16]
 156              		.loc 1 458 3 is_stmt 1 view .LVU50
 157              		.loc 1 458 6 is_stmt 0 view .LVU51
 158 0076 00D4     		bmi	.L12
 159              		.loc 1 488 1 view .LVU52
 160 0078 08BD     		pop	{r3, pc}
 161              	.L12:
 162              		.loc 1 461 5 is_stmt 1 view .LVU53
 163              	.LBB52:
 164              	.LBI52:
 165              		.file 2 "../../../external/ChibiOS/os/hal/osal/rt-nil/osal.h"
 166              		.loc 2 531 20 view .LVU54
 167              	.LBE52:
 168              		.loc 2 533 3 view .LVU55
 169              	.LBB64:
ARM GAS  /tmp/cc0Kwufm.s 			page 4


 170              	.LBB53:
 171              	.LBI53:
 172              		.file 3 "../../../external/ChibiOS/os/rt/include/chsys.h"
 173              		.loc 3 393 20 view .LVU56
 174              	.LBE53:
 175              	.LBE64:
 176              		.loc 3 395 3 view .LVU57
 177              	.LBB65:
 178              	.LBB61:
 179              	.LBB54:
 180              	.LBI54:
 181              		.file 4 "../../../external/ChibiOS/os/common/ports/ARMCMx/chcore_v7m.h"
 182              		.loc 4 708 27 view .LVU58
 183              	.LBE54:
 184              	.LBE61:
 185              	.LBE65:
 186              		.loc 4 710 3 view .LVU59
 187              	.LBB66:
 188              	.LBB62:
 189              	.LBB59:
 190              	.LBB55:
 191              	.LBI55:
 192              		.loc 4 669 27 view .LVU60
 193              	.LBE55:
 194              	.LBE59:
 195              	.LBE62:
 196              	.LBE66:
 197              		.loc 4 677 3 view .LVU61
 198              	.LVL4:
 199              	.LBB67:
 200              	.LBB63:
 201              	.LBB60:
 202              	.LBB58:
 203              	.LBB56:
 204              	.LBI56:
 205              		.file 5 "../../../external/ChibiOS/os/common/ext/ARM/CMSIS/Core/Include/cmsis_gcc.h"
 206              		.loc 5 491 27 view .LVU62
 207              	.LBB57:
 208              		.loc 5 493 3 view .LVU63
 209 007a 2023     		movs	r3, #32
 210              		.syntax unified
 211              	@ 493 "../../../external/ChibiOS/os/common/ext/ARM/CMSIS/Core/Include/cmsis_gcc.h" 1
 212 007c 83F31188 		MSR basepri, r3
 213              	@ 0 "" 2
 214              	.LVL5:
 215              		.loc 5 493 3 is_stmt 0 view .LVU64
 216              		.thumb
 217              		.syntax unified
 218              	.LBE57:
 219              	.LBE56:
 220              	.LBE58:
 221              	.LBE60:
 222              	.LBE63:
 223              	.LBE67:
 224              		.loc 3 396 34 is_stmt 1 view .LVU65
 225              		.loc 3 397 29 view .LVU66
 226              		.loc 1 462 5 view .LVU67
ARM GAS  /tmp/cc0Kwufm.s 			page 5


 227              	.LBB68:
 228              	.LBI68:
 229              		.loc 2 601 20 view .LVU68
 230              	.LBB69:
 231              		.loc 2 603 3 view .LVU69
 232 0080 FFF7FEFF 		bl	chSysTimerHandlerI
 233              	.LVL6:
 234              	.LBE69:
 235              	.LBE68:
 236              		.loc 1 463 5 view .LVU70
 237              	.LBB70:
 238              	.LBI70:
 239              		.loc 2 542 20 view .LVU71
 240              	.LBE70:
 241              		.loc 2 544 3 view .LVU72
 242              	.LBB82:
 243              	.LBB71:
 244              	.LBI71:
 245              		.loc 3 413 20 view .LVU73
 246              	.LBE71:
 247              	.LBE82:
 248              		.loc 3 415 31 view .LVU74
 249              		.loc 3 416 33 view .LVU75
 250              		.loc 3 417 3 view .LVU76
 251              	.LBB83:
 252              	.LBB79:
 253              	.LBB72:
 254              	.LBI72:
 255              		.loc 4 719 27 view .LVU77
 256              	.LBE72:
 257              	.LBE79:
 258              	.LBE83:
 259              		.loc 4 721 3 view .LVU78
 260              	.LBB84:
 261              	.LBB80:
 262              	.LBB77:
 263              	.LBB73:
 264              	.LBI73:
 265              		.loc 4 693 27 view .LVU79
 266              	.LBE73:
 267              	.LBE77:
 268              	.LBE80:
 269              	.LBE84:
 270              		.loc 4 696 3 view .LVU80
 271              	.LBB85:
 272              	.LBB81:
 273              	.LBB78:
 274              	.LBB76:
 275              	.LBB74:
 276              	.LBI74:
 277              		.loc 5 491 27 view .LVU81
 278              	.LBB75:
 279              		.loc 5 493 3 view .LVU82
 280 0084 0023     		movs	r3, #0
 281              		.syntax unified
 282              	@ 493 "../../../external/ChibiOS/os/common/ext/ARM/CMSIS/Core/Include/cmsis_gcc.h" 1
 283 0086 83F31188 		MSR basepri, r3
ARM GAS  /tmp/cc0Kwufm.s 			page 6


 284              	@ 0 "" 2
 285              	.LVL7:
 286              		.loc 5 493 3 is_stmt 0 view .LVU83
 287              		.thumb
 288              		.syntax unified
 289              	.LBE75:
 290              	.LBE74:
 291              	.LBE76:
 292              	.LBE78:
 293              	.LBE81:
 294              	.LBE85:
 295              		.loc 1 488 1 view .LVU84
 296 008a 08BD     		pop	{r3, pc}
 297              		.cfi_endproc
 298              	.LFE363:
 299              		.size	st_lld_serve_interrupt, .-st_lld_serve_interrupt
 300              	.Letext0:
 301              		.file 6 "/home/nicolas/arm/gcc-arm-none-eabi-8-2019-q3-update/lib/gcc/arm-none-eabi/8.3.1/include/
 302              		.file 7 "/home/nicolas/arm/gcc-arm-none-eabi-8-2019-q3-update/arm-none-eabi/include/machine/_defau
 303              		.file 8 "/home/nicolas/arm/gcc-arm-none-eabi-8-2019-q3-update/arm-none-eabi/include/sys/_stdint.h"
 304              		.file 9 "/home/nicolas/arm/gcc-arm-none-eabi-8-2019-q3-update/arm-none-eabi/include/stdint.h"
 305              		.file 10 "../../../external/ChibiOS/os/common/ports/ARMCMx/compilers/GCC/chtypes.h"
 306              		.file 11 "../../../external/ChibiOS/os/rt/include/chsystypes.h"
 307              		.file 12 "../../../external/ChibiOS/os/rt/include/chschd.h"
 308              		.file 13 "../../../external/ChibiOS/os/rt/include/chtime.h"
 309              		.file 14 "../../../external/ChibiOS/os/common/ext/ARM/CMSIS/Core/Include/core_cm7.h"
 310              		.file 15 "../../../external/ChibiOS/os/common/ext/ST/STM32H7xx/system_stm32h7xx.h"
 311              		.file 16 "../../../external/ChibiOS/os/common/ext/ST/STM32H7xx/stm32h753xx.h"
 312              		.file 17 "../../../external/ChibiOS/os/common/ports/ARMCMx/chcore.h"
 313              		.file 18 "../../../external/ChibiOS/os/rt/include/chtrace.h"
 314              		.file 19 "../../../external/ChibiOS/os/rt/include/chtm.h"
 315              		.file 20 "../../../external/ChibiOS/os/rt/include/chsem.h"
 316              		.file 21 "../../../external/ChibiOS/os/rt/include/chmtx.h"
 317              		.file 22 "../../../external/ChibiOS/os/rt/include/chregistry.h"
 318              		.file 23 "../../../external/ChibiOS/os/rt/include/chevents.h"
 319              		.file 24 "../../../external/ChibiOS/os/oslib/include/chmemcore.h"
 320              		.file 25 "../../../external/ChibiOS/os/oslib/include/chmempools.h"
 321              		.file 26 "../../../external/ChibiOS/os/oslib/include/chfactory.h"
 322              		.file 27 "../../../external/ChibiOS/os/hal/ports/STM32/LLD/DMAv2/stm32_dma.h"
 323              		.file 28 "../../../external/ChibiOS/os/hal/ports/STM32/LLD/BDMAv1/stm32_bdma.h"
 324              		.file 29 "../../../external/ChibiOS/os/hal/ports/STM32/LLD/TIMv1/stm32_tim.h"
 325              		.file 30 "../../../external/ChibiOS/os/hal/include/hal_ioblock.h"
 326              		.file 31 "../../../external/ChibiOS/os/hal/include/hal_queues.h"
 327              		.file 32 "../../../external/ChibiOS/os/hal/ports/STM32/LLD/GPIOv2/stm32_gpio.h"
 328              		.file 33 "../../../external/ChibiOS/os/hal/ports/STM32/LLD/GPIOv2/hal_pal_lld.h"
 329              		.file 34 "../../../external/ChibiOS/os/hal/include/hal_adc.h"
 330              		.file 35 "../../../external/ChibiOS/os/hal/ports/STM32/LLD/ADCv4/hal_adc_lld.h"
 331              		.file 36 "../../../external/ChibiOS/os/hal/include/hal_i2c.h"
 332              		.file 37 "../../../external/ChibiOS/os/hal/ports/STM32/LLD/I2Cv3/hal_i2c_lld.h"
 333              		.file 38 "../../../external/ChibiOS/os/hal/include/hal_pwm.h"
 334              		.file 39 "../../../external/ChibiOS/os/hal/ports/STM32/LLD/TIMv1/hal_pwm_lld.h"
 335              		.file 40 "../../../external/ChibiOS/os/hal/include/hal_serial.h"
 336              		.file 41 "../../../external/ChibiOS/os/hal/ports/STM32/LLD/USARTv2/hal_serial_lld.h"
 337              		.file 42 "../../../external/ChibiOS/os/hal/include/hal_sdc.h"
 338              		.file 43 "../../../external/ChibiOS/os/hal/ports/STM32/LLD/SDMMCv2/hal_sdc_lld.h"
 339              		.file 44 "../../../external/ChibiOS/os/hal/include/hal_spi.h"
 340              		.file 45 "../../../external/ChibiOS/os/hal/ports/STM32/LLD/SPIv3/hal_spi_lld.h"
ARM GAS  /tmp/cc0Kwufm.s 			page 7


 341              		.file 46 "../../../external/ChibiOS/os/hal/include/hal_trng.h"
 342              		.file 47 "../../../external/ChibiOS/os/hal/ports/STM32/LLD/RNGv1/hal_trng_lld.h"
 343              		.file 48 "../../../external/ChibiOS/os/hal/include/hal_usb.h"
 344              		.file 49 "../../../external/ChibiOS/os/hal/ports/STM32/LLD/OTGv1/hal_usb_lld.h"
 345              		.file 50 "../../../external/ChibiOS/os/hal/ports/STM32/LLD/OTGv1/stm32_otg.h"
 346              		.file 51 "../../../external/ChibiOS-Contrib/os/hal/include/hal_fsmc.h"
 347              		.file 52 "../../../external/ChibiOS-Contrib/os/hal/include/hal_sdram.h"