ARM GAS  /tmp/cczLTm0t.s 			page 1


   1              		.cpu cortex-m7
   2              		.eabi_attribute 27, 1
   3              		.eabi_attribute 28, 1
   4              		.eabi_attribute 20, 1
   5              		.eabi_attribute 21, 1
   6              		.eabi_attribute 23, 3
   7              		.eabi_attribute 24, 1
   8              		.eabi_attribute 25, 1
   9              		.eabi_attribute 26, 1
  10              		.eabi_attribute 30, 2
  11              		.eabi_attribute 34, 1
  12              		.eabi_attribute 18, 4
  13              		.file	"hal_pal_lld.c"
  14              		.text
  15              	.Ltext0:
  16              		.cfi_sections	.debug_frame
  17              		.align	1
  18              		.p2align 4,,15
  19              		.global	_pal_lld_init
  20              		.arch armv7e-m
  21              		.syntax unified
  22              		.thumb
  23              		.thumb_func
  24              		.fpu fpv4-sp-d16
  25              		.type	_pal_lld_init, %function
  26              	_pal_lld_init:
  27              	.LFB362:
  28              		.file 1 "../../../external/ChibiOS/os/hal/ports/STM32/LLD/GPIOv2/hal_pal_lld.c"
  29              		.loc 1 65 26 view -0
  30              		.cfi_startproc
  31              		@ args = 0, pretend = 0, frame = 0
  32              		@ frame_needed = 0, uses_anonymous_args = 0
  33              		@ link register save eliminated.
  34              		.loc 1 74 1 view .LVU1
  35 0000 7047     		bx	lr
  36              		.cfi_endproc
  37              	.LFE362:
  38              		.size	_pal_lld_init, .-_pal_lld_init
  39              		.align	1
  40 0002 00BFAFF3 		.p2align 4,,15
  40      0080AFF3 
  40      0080AFF3 
  40      0080
  41              		.global	_pal_lld_setgroupmode
  42              		.syntax unified
  43              		.thumb
  44              		.thumb_func
  45              		.fpu fpv4-sp-d16
  46              		.type	_pal_lld_setgroupmode, %function
  47              	_pal_lld_setgroupmode:
  48              	.LVL0:
  49              	.LFB363:
  50              		.loc 1 91 43 view -0
  51              		.cfi_startproc
  52              		@ args = 0, pretend = 0, frame = 0
  53              		@ frame_needed = 0, uses_anonymous_args = 0
  54              		.loc 1 93 3 view .LVU3
ARM GAS  /tmp/cczLTm0t.s 			page 2


  55              		.loc 1 91 43 is_stmt 0 view .LVU4
  56 0010 2DE9F04F 		push	{r4, r5, r6, r7, r8, r9, r10, fp, lr}
  57              		.cfi_def_cfa_offset 36
  58              		.cfi_offset 4, -36
  59              		.cfi_offset 5, -32
  60              		.cfi_offset 6, -28
  61              		.cfi_offset 7, -24
  62              		.cfi_offset 8, -20
  63              		.cfi_offset 9, -16
  64              		.cfi_offset 10, -12
  65              		.cfi_offset 11, -8
  66              		.cfi_offset 14, -4
  67              		.loc 1 93 12 view .LVU5
  68 0014 02F00309 		and	r9, r2, #3
  69              	.LVL1:
  70              		.loc 1 94 3 is_stmt 1 view .LVU6
  71              		.loc 1 94 12 is_stmt 0 view .LVU7
  72 0018 C2F3800E 		ubfx	lr, r2, #2, #1
  73              	.LVL2:
  74              		.loc 1 95 3 is_stmt 1 view .LVU8
  75              		.loc 1 95 12 is_stmt 0 view .LVU9
  76 001c C2F3C10C 		ubfx	ip, r2, #3, #2
  77              	.LVL3:
  78              		.loc 1 96 3 is_stmt 1 view .LVU10
  79              		.loc 1 96 12 is_stmt 0 view .LVU11
  80 0020 C2F34117 		ubfx	r7, r2, #5, #2
  81              	.LVL4:
  82              		.loc 1 97 3 is_stmt 1 view .LVU12
  83              		.loc 1 98 12 is_stmt 0 view .LVU13
  84 0024 0025     		movs	r5, #0
  85              		.loc 1 93 12 view .LVU14
  86 0026 4E46     		mov	r6, r9
  87              		.loc 1 97 12 view .LVU15
  88 0028 C2F3C312 		ubfx	r2, r2, #7, #4
  89              	.LVL5:
  90              		.loc 1 98 3 is_stmt 1 view .LVU16
  91              	.LBB2:
  92              		.loc 1 104 14 is_stmt 0 view .LVU17
  93 002c 4FF0010A 		mov	r10, #1
  94 0030 17E0     		b	.L10
  95              	.LVL6:
  96              	.L5:
  97              		.loc 1 122 9 is_stmt 1 view .LVU18
  98              		.loc 1 122 30 is_stmt 0 view .LVU19
  99 0032 D0F800B0 		ldr	fp, [r0]
 100              		.loc 1 123 12 view .LVU20
 101 0036 072D     		cmp	r5, #7
 102              		.loc 1 122 38 view .LVU21
 103 0038 03EA0B03 		and	r3, r3, fp
 104              	.LVL7:
 105              		.loc 1 122 45 view .LVU22
 106 003c 43EA0603 		orr	r3, r3, r6
 107              		.loc 1 122 23 view .LVU23
 108 0040 0360     		str	r3, [r0]
 109              		.loc 1 123 9 is_stmt 1 view .LVU24
 110              		.loc 1 123 12 is_stmt 0 view .LVU25
 111 0042 52D8     		bhi	.L8
ARM GAS  /tmp/cczLTm0t.s 			page 3


 112              		.loc 1 124 11 is_stmt 1 view .LVU26
 113              		.loc 1 124 29 is_stmt 0 view .LVU27
 114 0044 036A     		ldr	r3, [r0, #32]
 115              		.loc 1 124 36 view .LVU28
 116 0046 03EA0808 		and	r8, r3, r8
 117              		.loc 1 124 43 view .LVU29
 118 004a 48EA0404 		orr	r4, r8, r4
 119              	.LVL8:
 120              		.loc 1 124 22 view .LVU30
 121 004e 0462     		str	r4, [r0, #32]
 122              	.LVL9:
 123              	.L4:
 124              		.loc 1 124 22 view .LVU31
 125              	.LBE2:
 126              		.loc 1 129 5 is_stmt 1 view .LVU32
 127              		.loc 1 130 5 view .LVU33
 128              		.loc 1 130 8 is_stmt 0 view .LVU34
 129 0050 4908     		lsrs	r1, r1, #1
 130              	.LVL10:
 131              		.loc 1 130 8 view .LVU35
 132 0052 48D0     		beq	.L14
 133              	.LVL11:
 134              	.L16:
 135              		.loc 1 132 5 is_stmt 1 view .LVU36
 136              		.loc 1 132 12 is_stmt 0 view .LVU37
 137 0054 4FEA4E0E 		lsl	lr, lr, #1
 138              	.LVL12:
 139              		.loc 1 133 5 is_stmt 1 view .LVU38
 140              		.loc 1 136 8 is_stmt 0 view .LVU39
 141 0058 0135     		adds	r5, r5, #1
 142              	.LVL13:
 143              		.loc 1 133 13 view .LVU40
 144 005a 4FEA8C0C 		lsl	ip, ip, #2
 145              	.LVL14:
 146              		.loc 1 134 5 is_stmt 1 view .LVU41
 147              		.loc 1 134 11 is_stmt 0 view .LVU42
 148 005e BF00     		lsls	r7, r7, #2
 149              	.LVL15:
 150              		.loc 1 135 5 is_stmt 1 view .LVU43
 151              		.loc 1 135 11 is_stmt 0 view .LVU44
 152 0060 B600     		lsls	r6, r6, #2
 153              	.LVL16:
 154              		.loc 1 136 5 is_stmt 1 view .LVU45
 155              	.L10:
 156              		.loc 1 99 3 view .LVU46
 157              		.loc 1 100 5 view .LVU47
 158              		.loc 1 100 8 is_stmt 0 view .LVU48
 159 0062 CB07     		lsls	r3, r1, #31
 160 0064 F4D5     		bpl	.L4
 161              	.LBB3:
 162              		.loc 1 101 7 is_stmt 1 view .LVU49
 163              		.loc 1 103 7 view .LVU50
 164              		.loc 1 107 28 is_stmt 0 view .LVU51
 165 0066 D0F80480 		ldr	r8, [r0, #4]
 166              		.loc 1 104 14 view .LVU52
 167 006a 0AFA05FB 		lsl	fp, r10, r5
 168              		.loc 1 105 14 view .LVU53
ARM GAS  /tmp/cczLTm0t.s 			page 4


 169 006e 6B00     		lsls	r3, r5, #1
 170              		.loc 1 103 32 view .LVU54
 171 0070 05F00704 		and	r4, r5, #7
 172              		.loc 1 107 37 view .LVU55
 173 0074 28EA0B0B 		bic	fp, r8, fp
 174              		.loc 1 105 14 view .LVU56
 175 0078 4FF00308 		mov	r8, #3
 176              		.loc 1 103 37 view .LVU57
 177 007c A400     		lsls	r4, r4, #2
 178              		.loc 1 110 10 view .LVU58
 179 007e B9F1020F 		cmp	r9, #2
 180              		.loc 1 105 14 view .LVU59
 181 0082 08FA03F3 		lsl	r3, r8, r3
 182              		.loc 1 107 44 view .LVU60
 183 0086 4BEA0E0B 		orr	fp, fp, lr
 184              		.loc 1 106 15 view .LVU61
 185 008a 4FF00F08 		mov	r8, #15
 186              		.loc 1 107 21 view .LVU62
 187 008e C0F804B0 		str	fp, [r0, #4]
 188              		.loc 1 108 40 view .LVU63
 189 0092 6FEA0303 		mvn	r3, r3
 190              		.loc 1 108 28 view .LVU64
 191 0096 D0F808B0 		ldr	fp, [r0, #8]
 192              		.loc 1 106 15 view .LVU65
 193 009a 08FA04F8 		lsl	r8, r8, r4
 194              		.loc 1 103 16 view .LVU66
 195 009e 02FA04F4 		lsl	r4, r2, r4
 196              	.LVL17:
 197              		.loc 1 104 7 is_stmt 1 view .LVU67
 198              		.loc 1 105 7 view .LVU68
 199              		.loc 1 106 7 view .LVU69
 200              		.loc 1 107 7 view .LVU70
 201              		.loc 1 108 7 view .LVU71
 202              		.loc 1 108 38 is_stmt 0 view .LVU72
 203 00a2 0BEA030B 		and	fp, fp, r3
 204 00a6 6FEA0808 		mvn	r8, r8
 205              		.loc 1 108 45 view .LVU73
 206 00aa 4BEA0C0B 		orr	fp, fp, ip
 207              		.loc 1 108 21 view .LVU74
 208 00ae C0F808B0 		str	fp, [r0, #8]
 209              		.loc 1 109 7 is_stmt 1 view .LVU75
 210              		.loc 1 109 28 is_stmt 0 view .LVU76
 211 00b2 D0F80CB0 		ldr	fp, [r0, #12]
 212              		.loc 1 109 36 view .LVU77
 213 00b6 03EA0B0B 		and	fp, r3, fp
 214              		.loc 1 109 43 view .LVU78
 215 00ba 4BEA070B 		orr	fp, fp, r7
 216              		.loc 1 109 21 view .LVU79
 217 00be C0F80CB0 		str	fp, [r0, #12]
 218              		.loc 1 110 7 is_stmt 1 view .LVU80
 219              		.loc 1 110 10 is_stmt 0 view .LVU81
 220 00c2 B6D1     		bne	.L5
 221              		.loc 1 113 9 is_stmt 1 view .LVU82
 222              		.loc 1 113 12 is_stmt 0 view .LVU83
 223 00c4 072D     		cmp	r5, #7
 224 00c6 17D8     		bhi	.L6
 225              		.loc 1 114 11 is_stmt 1 view .LVU84
ARM GAS  /tmp/cczLTm0t.s 			page 5


 226              		.loc 1 114 29 is_stmt 0 view .LVU85
 227 00c8 D0F820B0 		ldr	fp, [r0, #32]
 228              		.loc 1 114 36 view .LVU86
 229 00cc 0BEA0808 		and	r8, fp, r8
 230              		.loc 1 114 43 view .LVU87
 231 00d0 48EA0404 		orr	r4, r8, r4
 232              	.LVL18:
 233              		.loc 1 114 22 view .LVU88
 234 00d4 0462     		str	r4, [r0, #32]
 235              	.L7:
 236              		.loc 1 117 9 is_stmt 1 view .LVU89
 237              		.loc 1 117 30 is_stmt 0 view .LVU90
 238 00d6 0468     		ldr	r4, [r0]
 239              	.LBE3:
 240              		.loc 1 130 8 view .LVU91
 241 00d8 4908     		lsrs	r1, r1, #1
 242              	.LVL19:
 243              	.LBB4:
 244              		.loc 1 117 38 view .LVU92
 245 00da 03EA0403 		and	r3, r3, r4
 246              	.LVL20:
 247              		.loc 1 117 45 view .LVU93
 248 00de 43EA0603 		orr	r3, r3, r6
 249              		.loc 1 117 23 view .LVU94
 250 00e2 0360     		str	r3, [r0]
 251              	.LBE4:
 252              		.loc 1 129 5 is_stmt 1 view .LVU95
 253              		.loc 1 130 5 view .LVU96
 254              		.loc 1 130 8 is_stmt 0 view .LVU97
 255 00e4 B6D1     		bne	.L16
 256              	.LVL21:
 257              	.L14:
 258              		.loc 1 138 1 view .LVU98
 259 00e6 BDE8F08F 		pop	{r4, r5, r6, r7, r8, r9, r10, fp, pc}
 260              	.LVL22:
 261              	.L8:
 262              	.LBB5:
 263              		.loc 1 126 11 is_stmt 1 view .LVU99
 264              		.loc 1 126 29 is_stmt 0 view .LVU100
 265 00ea 436A     		ldr	r3, [r0, #36]
 266              		.loc 1 126 36 view .LVU101
 267 00ec 03EA0808 		and	r8, r3, r8
 268              		.loc 1 126 43 view .LVU102
 269 00f0 48EA0404 		orr	r4, r8, r4
 270              	.LVL23:
 271              		.loc 1 126 22 view .LVU103
 272 00f4 4462     		str	r4, [r0, #36]
 273 00f6 ABE7     		b	.L4
 274              	.LVL24:
 275              	.L6:
 276              		.loc 1 116 11 is_stmt 1 view .LVU104
 277              		.loc 1 116 29 is_stmt 0 view .LVU105
 278 00f8 D0F824B0 		ldr	fp, [r0, #36]
 279              		.loc 1 116 36 view .LVU106
 280 00fc 0BEA0808 		and	r8, fp, r8
 281              		.loc 1 116 43 view .LVU107
 282 0100 48EA0404 		orr	r4, r8, r4
ARM GAS  /tmp/cczLTm0t.s 			page 6


 283              	.LVL25:
 284              		.loc 1 116 22 view .LVU108
 285 0104 4462     		str	r4, [r0, #36]
 286 0106 E6E7     		b	.L7
 287              	.LBE5:
 288              		.cfi_endproc
 289              	.LFE363:
 290              		.size	_pal_lld_setgroupmode, .-_pal_lld_setgroupmode
 291              	.Letext0:
 292              		.file 2 "/home/nicolas/arm/gcc-arm-none-eabi-8-2019-q3-update/lib/gcc/arm-none-eabi/8.3.1/include/
 293              		.file 3 "/home/nicolas/arm/gcc-arm-none-eabi-8-2019-q3-update/arm-none-eabi/include/machine/_defau
 294              		.file 4 "/home/nicolas/arm/gcc-arm-none-eabi-8-2019-q3-update/arm-none-eabi/include/sys/_stdint.h"
 295              		.file 5 "/home/nicolas/arm/gcc-arm-none-eabi-8-2019-q3-update/arm-none-eabi/include/stdint.h"
 296              		.file 6 "../../../external/ChibiOS/os/common/ports/ARMCMx/compilers/GCC/chtypes.h"
 297              		.file 7 "../../../external/ChibiOS/os/rt/include/chsystypes.h"
 298              		.file 8 "../../../external/ChibiOS/os/rt/include/chschd.h"
 299              		.file 9 "../../../external/ChibiOS/os/rt/include/chtime.h"
 300              		.file 10 "../../../external/ChibiOS/os/common/ext/ARM/CMSIS/Core/Include/core_cm7.h"
 301              		.file 11 "../../../external/ChibiOS/os/common/ext/ST/STM32H7xx/system_stm32h7xx.h"
 302              		.file 12 "../../../external/ChibiOS/os/common/ext/ST/STM32H7xx/stm32h753xx.h"
 303              		.file 13 "../../../external/ChibiOS/os/common/ports/ARMCMx/chcore.h"
 304              		.file 14 "../../../external/ChibiOS/os/common/ports/ARMCMx/chcore_v7m.h"
 305              		.file 15 "../../../external/ChibiOS/os/rt/include/chtrace.h"
 306              		.file 16 "../../../external/ChibiOS/os/rt/include/chtm.h"
 307              		.file 17 "../../../external/ChibiOS/os/rt/include/chsem.h"
 308              		.file 18 "../../../external/ChibiOS/os/rt/include/chmtx.h"
 309              		.file 19 "../../../external/ChibiOS/os/rt/include/chsys.h"
 310              		.file 20 "../../../external/ChibiOS/os/rt/include/chregistry.h"
 311              		.file 21 "../../../external/ChibiOS/os/rt/include/chevents.h"
 312              		.file 22 "../../../external/ChibiOS/os/oslib/include/chmemcore.h"
 313              		.file 23 "../../../external/ChibiOS/os/oslib/include/chmempools.h"
 314              		.file 24 "../../../external/ChibiOS/os/oslib/include/chfactory.h"
 315              		.file 25 "../../../external/ChibiOS/os/hal/ports/STM32/LLD/DMAv2/stm32_dma.h"
 316              		.file 26 "../../../external/ChibiOS/os/hal/ports/STM32/LLD/BDMAv1/stm32_bdma.h"
 317              		.file 27 "../../../external/ChibiOS/os/hal/ports/STM32/LLD/TIMv1/stm32_tim.h"
 318              		.file 28 "../../../external/ChibiOS/os/hal/include/hal_ioblock.h"
 319              		.file 29 "../../../external/ChibiOS/os/hal/include/hal_queues.h"
 320              		.file 30 "../../../external/ChibiOS/os/hal/ports/STM32/LLD/GPIOv2/stm32_gpio.h"
 321              		.file 31 "../../../external/ChibiOS/os/hal/ports/STM32/LLD/GPIOv2/hal_pal_lld.h"
 322              		.file 32 "../../../external/ChibiOS/os/hal/include/hal_adc.h"
 323              		.file 33 "../../../external/ChibiOS/os/hal/ports/STM32/LLD/ADCv4/hal_adc_lld.h"
 324              		.file 34 "../../../external/ChibiOS/os/hal/include/hal_i2c.h"
 325              		.file 35 "../../../external/ChibiOS/os/hal/ports/STM32/LLD/I2Cv3/hal_i2c_lld.h"
 326              		.file 36 "../../../external/ChibiOS/os/hal/include/hal_pwm.h"
 327              		.file 37 "../../../external/ChibiOS/os/hal/ports/STM32/LLD/TIMv1/hal_pwm_lld.h"
 328              		.file 38 "../../../external/ChibiOS/os/hal/include/hal_serial.h"
 329              		.file 39 "../../../external/ChibiOS/os/hal/ports/STM32/LLD/USARTv2/hal_serial_lld.h"
 330              		.file 40 "../../../external/ChibiOS/os/hal/include/hal_sdc.h"
 331              		.file 41 "../../../external/ChibiOS/os/hal/ports/STM32/LLD/SDMMCv2/hal_sdc_lld.h"
 332              		.file 42 "../../../external/ChibiOS/os/hal/include/hal_spi.h"
 333              		.file 43 "../../../external/ChibiOS/os/hal/ports/STM32/LLD/SPIv3/hal_spi_lld.h"
 334              		.file 44 "../../../external/ChibiOS/os/hal/include/hal_trng.h"
 335              		.file 45 "../../../external/ChibiOS/os/hal/ports/STM32/LLD/RNGv1/hal_trng_lld.h"
 336              		.file 46 "../../../external/ChibiOS/os/hal/include/hal_usb.h"
 337              		.file 47 "../../../external/ChibiOS/os/hal/ports/STM32/LLD/OTGv1/hal_usb_lld.h"
 338              		.file 48 "../../../external/ChibiOS/os/hal/ports/STM32/LLD/OTGv1/stm32_otg.h"
 339              		.file 49 "../../../external/ChibiOS-Contrib/os/hal/include/hal_fsmc.h"
ARM GAS  /tmp/cczLTm0t.s 			page 7


 340              		.file 50 "../../../external/ChibiOS-Contrib/os/hal/include/hal_sdram.h"