ARM GAS  /tmp/ccfraM8n.s 			page 1


   1              		.cpu cortex-m7
   2              		.eabi_attribute 27, 1
   3              		.eabi_attribute 28, 1
   4              		.eabi_attribute 20, 1
   5              		.eabi_attribute 21, 1
   6              		.eabi_attribute 23, 3
   7              		.eabi_attribute 24, 1
   8              		.eabi_attribute 25, 1
   9              		.eabi_attribute 26, 1
  10              		.eabi_attribute 30, 2
  11              		.eabi_attribute 34, 1
  12              		.eabi_attribute 18, 4
  13              		.file	"hal_usb_lld.c"
  14              		.text
  15              	.Ltext0:
  16              		.cfi_sections	.debug_frame
  17              		.align	1
  18              		.p2align 4,,15
  19              		.arch armv7e-m
  20              		.syntax unified
  21              		.thumb
  22              		.thumb_func
  23              		.fpu fpv4-sp-d16
  24              		.type	otg_txfifo_handler.constprop.11, %function
  25              	otg_txfifo_handler.constprop.11:
  26              	.LVL0:
  27              	.LFB401:
  28              		.file 1 "../../../external/ChibiOS/os/hal/ports/STM32/LLD/OTGv1/hal_usb_lld.c"
  29              		.loc 1 328 13 view -0
  30              		.cfi_startproc
  31              		@ args = 0, pretend = 0, frame = 0
  32              		@ frame_needed = 0, uses_anonymous_args = 0
  33              		.loc 1 331 3 view .LVU1
  34              	.LBB284:
  35              		.loc 1 332 5 view .LVU2
  36              		.loc 1 335 5 view .LVU3
  37              		.loc 1 335 18 is_stmt 0 view .LVU4
  38 0000 284B     		ldr	r3, .L14
  39 0002 03EB8002 		add	r2, r3, r0, lsl #2
  40              	.LBE284:
  41              		.loc 1 328 13 view .LVU5
  42 0006 2DE9F047 		push	{r4, r5, r6, r7, r8, r9, r10, lr}
  43              		.cfi_def_cfa_offset 32
  44              		.cfi_offset 4, -32
  45              		.cfi_offset 5, -28
  46              		.cfi_offset 6, -24
  47              		.cfi_offset 7, -20
  48              		.cfi_offset 8, -16
  49              		.cfi_offset 9, -12
  50              		.cfi_offset 10, -8
  51              		.cfi_offset 14, -4
  52 000a D3F890A0 		ldr	r10, [r3, #144]
  53              	.LBB287:
  54              		.loc 1 335 18 view .LVU6
  55 000e D368     		ldr	r3, [r2, #12]
  56              		.loc 1 335 22 view .LVU7
  57 0010 D3F814C0 		ldr	ip, [r3, #20]
ARM GAS  /tmp/ccfraM8n.s 			page 2


  58              		.loc 1 335 66 view .LVU8
  59 0014 DCE900E7 		ldrd	lr, r7, [ip]
  60              		.loc 1 335 8 view .LVU9
  61 0018 BE45     		cmp	lr, r7
  62 001a 36D9     		bls	.L2
  63              		.loc 1 343 5 is_stmt 1 view .LVU10
  64              		.loc 1 344 26 is_stmt 0 view .LVU11
  65 001c B3F81090 		ldrh	r9, [r3, #16]
  66              		.loc 1 343 7 view .LVU12
  67 0020 AEEB0704 		sub	r4, lr, r7
  68              		.loc 1 344 5 is_stmt 1 view .LVU13
  69              		.loc 1 349 28 is_stmt 0 view .LVU14
  70 0024 0AEB4018 		add	r8, r10, r0, lsl #5
  71 0028 4C45     		cmp	r4, r9
  72 002a D8F81839 		ldr	r3, [r8, #2328]
  73 002e 28BF     		it	cs
  74 0030 4C46     		movcs	r4, r9
  75              	.LVL1:
  76              		.loc 1 349 5 is_stmt 1 view .LVU15
  77              		.loc 1 349 37 is_stmt 0 view .LVU16
  78 0032 9BB2     		uxth	r3, r3
  79              		.loc 1 349 8 view .LVU17
  80 0034 B4EB830F 		cmp	r4, r3, lsl #2
  81 0038 24D8     		bhi	.L3
  82              		.loc 1 355 47 view .LVU18
  83 003a 451C     		adds	r5, r0, #1
  84 003c DCF80860 		ldr	r6, [ip, #8]
  85 0040 0AEB0535 		add	r5, r10, r5, lsl #12
  86              	.L4:
  87              		.loc 1 355 5 is_stmt 1 view .LVU19
  88              	.LVL2:
  89              	.LBB285:
  90              	.LBI285:
  91              		.loc 1 233 13 view .LVU20
  92              	.LBB286:
  93              		.loc 1 237 3 view .LVU21
  94              		.loc 1 237 3 view .LVU22
  95              		.loc 1 239 3 view .LVU23
  96              		.loc 1 240 5 view .LVU24
  97              		.loc 1 240 14 is_stmt 0 view .LVU25
  98 0044 3368     		ldr	r3, [r6]
  99              		.loc 1 241 8 view .LVU26
 100 0046 042C     		cmp	r4, #4
 101              		.loc 1 240 12 view .LVU27
 102 0048 2B60     		str	r3, [r5]
 103              		.loc 1 241 5 is_stmt 1 view .LVU28
 104              		.loc 1 241 8 is_stmt 0 view .LVU29
 105 004a 0AD9     		bls	.L8
 106              		.loc 1 241 8 view .LVU30
 107 004c 611F     		subs	r1, r4, #5
 108 004e 3346     		mov	r3, r6
 109 0050 21F00301 		bic	r1, r1, #3
 110 0054 0431     		adds	r1, r1, #4
 111 0056 3144     		add	r1, r1, r6
 112              	.LVL3:
 113              	.L9:
 114              		.loc 1 244 5 is_stmt 1 view .LVU31
ARM GAS  /tmp/ccfraM8n.s 			page 3


 115              		.loc 1 245 5 view .LVU32
 116              		.loc 1 239 3 view .LVU33
 117              		.loc 1 240 5 view .LVU34
 118              		.loc 1 240 14 is_stmt 0 view .LVU35
 119 0058 53F8042F 		ldr	r2, [r3, #4]!
 120              	.LVL4:
 121              		.loc 1 241 8 view .LVU36
 122 005c 9942     		cmp	r1, r3
 123              		.loc 1 240 12 view .LVU37
 124 005e 2A60     		str	r2, [r5]
 125              		.loc 1 241 5 is_stmt 1 view .LVU38
 126              		.loc 1 241 8 is_stmt 0 view .LVU39
 127 0060 FAD1     		bne	.L9
 128              	.LVL5:
 129              	.L8:
 130              		.loc 1 241 8 view .LVU40
 131              	.LBE286:
 132              	.LBE285:
 133              		.loc 1 358 5 is_stmt 1 view .LVU41
 134              		.loc 1 359 36 is_stmt 0 view .LVU42
 135 0062 2744     		add	r7, r7, r4
 136              		.loc 1 358 36 view .LVU43
 137 0064 2644     		add	r6, r6, r4
 138              		.loc 1 335 8 view .LVU44
 139 0066 7745     		cmp	r7, lr
 140              		.loc 1 359 36 view .LVU45
 141 0068 CCE90176 		strd	r7, r6, [ip, #4]
 142              	.LBE287:
 143              		.loc 1 331 3 is_stmt 1 view .LVU46
 144              	.LBB288:
 145              		.loc 1 332 5 view .LVU47
 146              		.loc 1 335 5 view .LVU48
 147              		.loc 1 335 8 is_stmt 0 view .LVU49
 148 006c 0DD2     		bcs	.L2
 149              		.loc 1 343 5 is_stmt 1 view .LVU50
 150              		.loc 1 343 7 is_stmt 0 view .LVU51
 151 006e AEEB0704 		sub	r4, lr, r7
 152              	.LVL6:
 153              		.loc 1 344 5 is_stmt 1 view .LVU52
 154              		.loc 1 349 28 is_stmt 0 view .LVU53
 155 0072 D8F81839 		ldr	r3, [r8, #2328]
 156 0076 4C45     		cmp	r4, r9
 157              		.loc 1 349 37 view .LVU54
 158 0078 9BB2     		uxth	r3, r3
 159 007a 28BF     		it	cs
 160 007c 4C46     		movcs	r4, r9
 161              	.LVL7:
 162              		.loc 1 349 5 is_stmt 1 view .LVU55
 163              		.loc 1 349 8 is_stmt 0 view .LVU56
 164 007e B4EB830F 		cmp	r4, r3, lsl #2
 165 0082 DFD9     		bls	.L4
 166              	.L3:
 167              		.loc 1 350 14 view .LVU57
 168 0084 0020     		movs	r0, #0
 169              	.LVL8:
 170              		.loc 1 350 14 view .LVU58
 171              	.LBE288:
ARM GAS  /tmp/ccfraM8n.s 			page 4


 172              		.loc 1 364 1 view .LVU59
 173 0086 BDE8F087 		pop	{r4, r5, r6, r7, r8, r9, r10, pc}
 174              	.LVL9:
 175              	.L2:
 176              	.LBB289:
 177              		.loc 1 337 7 is_stmt 1 view .LVU60
 178              		.loc 1 337 33 is_stmt 0 view .LVU61
 179 008a 0123     		movs	r3, #1
 180              		.loc 1 337 29 view .LVU62
 181 008c DAF83428 		ldr	r2, [r10, #2100]
 182              		.loc 1 337 33 view .LVU63
 183 0090 03FA00F1 		lsl	r1, r3, r0
 184              		.loc 1 339 14 view .LVU64
 185 0094 1846     		mov	r0, r3
 186              	.LVL10:
 187              		.loc 1 337 29 view .LVU65
 188 0096 22EA0102 		bic	r2, r2, r1
 189 009a CAF83428 		str	r2, [r10, #2100]
 190              		.loc 1 339 7 is_stmt 1 view .LVU66
 191              	.LBE289:
 192              		.loc 1 364 1 is_stmt 0 view .LVU67
 193 009e BDE8F087 		pop	{r4, r5, r6, r7, r8, r9, r10, pc}
 194              	.L15:
 195 00a2 00BF     		.align	2
 196              	.L14:
 197 00a4 00000000 		.word	USBD1
 198              		.cfi_endproc
 199              	.LFE401:
 200              		.size	otg_txfifo_handler.constprop.11, .-otg_txfifo_handler.constprop.11
 201              		.align	1
 202 00a8 AFF30080 		.p2align 4,,15
 202      AFF30080 
 203              		.global	usb_lld_init
 204              		.syntax unified
 205              		.thumb
 206              		.thumb_func
 207              		.fpu fpv4-sp-d16
 208              		.type	usb_lld_init, %function
 209              	usb_lld_init:
 210              	.LFB378:
 211              		.loc 1 716 25 is_stmt 1 view -0
 212              		.cfi_startproc
 213              		@ args = 0, pretend = 0, frame = 0
 214              		@ frame_needed = 0, uses_anonymous_args = 0
 215              		.loc 1 720 3 view .LVU69
 216              		.loc 1 716 25 is_stmt 0 view .LVU70
 217 00b0 10B5     		push	{r4, lr}
 218              		.cfi_def_cfa_offset 8
 219              		.cfi_offset 4, -8
 220              		.cfi_offset 14, -4
 221              		.loc 1 720 3 view .LVU71
 222 00b2 044C     		ldr	r4, .L18
 223 00b4 2046     		mov	r0, r4
 224 00b6 FFF7FEFF 		bl	usbObjectInit
 225              	.LVL11:
 226              		.loc 1 721 3 is_stmt 1 view .LVU72
 227              		.loc 1 721 19 is_stmt 0 view .LVU73
ARM GAS  /tmp/ccfraM8n.s 			page 5


 228 00ba 034A     		ldr	r2, .L18+4
 229              		.loc 1 722 19 view .LVU74
 230 00bc 034B     		ldr	r3, .L18+8
 231 00be C4E92423 		strd	r2, r3, [r4, #144]
 232              		.loc 1 731 1 view .LVU75
 233 00c2 10BD     		pop	{r4, pc}
 234              	.L19:
 235              		.align	2
 236              	.L18:
 237 00c4 00000000 		.word	USBD1
 238 00c8 00000840 		.word	1074266112
 239 00cc 00000000 		.word	.LANCHOR0
 240              		.cfi_endproc
 241              	.LFE378:
 242              		.size	usb_lld_init, .-usb_lld_init
 243              		.align	1
 244              		.p2align 4,,15
 245              		.global	usb_lld_start
 246              		.syntax unified
 247              		.thumb
 248              		.thumb_func
 249              		.fpu fpv4-sp-d16
 250              		.type	usb_lld_start, %function
 251              	usb_lld_start:
 252              	.LVL12:
 253              	.LFB379:
 254              		.loc 1 743 37 is_stmt 1 view -0
 255              		.cfi_startproc
 256              		@ args = 0, pretend = 0, frame = 0
 257              		@ frame_needed = 0, uses_anonymous_args = 0
 258              		.loc 1 744 3 view .LVU77
 259              		.loc 1 746 3 view .LVU78
 260              		.loc 1 743 37 is_stmt 0 view .LVU79
 261 00d0 F8B5     		push	{r3, r4, r5, r6, r7, lr}
 262              		.cfi_def_cfa_offset 24
 263              		.cfi_offset 3, -24
 264              		.cfi_offset 4, -20
 265              		.cfi_offset 5, -16
 266              		.cfi_offset 6, -12
 267              		.cfi_offset 7, -8
 268              		.cfi_offset 14, -4
 269              		.loc 1 746 6 view .LVU80
 270 00d2 0378     		ldrb	r3, [r0]	@ zero_extendqisi2
 271 00d4 012B     		cmp	r3, #1
 272 00d6 00D0     		beq	.L37
 273              		.loc 1 866 1 view .LVU81
 274 00d8 F8BD     		pop	{r3, r4, r5, r6, r7, pc}
 275              	.L37:
 276              		.loc 1 750 8 view .LVU82
 277 00da 474B     		ldr	r3, .L40
 278 00dc 0746     		mov	r7, r0
 279              		.loc 1 744 16 view .LVU83
 280 00de D0F89060 		ldr	r6, [r0, #144]
 281              		.loc 1 750 5 is_stmt 1 view .LVU84
 282              		.loc 1 750 8 is_stmt 0 view .LVU85
 283 00e2 9842     		cmp	r0, r3
 284 00e4 5ED0     		beq	.L38
ARM GAS  /tmp/ccfraM8n.s 			page 6


 285              		.loc 1 744 16 view .LVU86
 286 00e6 3546     		mov	r5, r6
 287              	.LVL13:
 288              	.L22:
 289              		.loc 1 815 5 is_stmt 1 view .LVU87
 290              		.loc 1 815 19 is_stmt 0 view .LVU88
 291 00e8 0021     		movs	r1, #0
 292              		.loc 1 818 19 view .LVU89
 293 00ea C022     		movs	r2, #192
 294              		.loc 1 833 17 view .LVU90
 295 00ec 4FF40413 		mov	r3, #2162688
 296              		.loc 1 815 19 view .LVU91
 297 00f0 C6F8001E 		str	r1, [r6, #3584]
 298              		.loc 1 818 5 is_stmt 1 view .LVU92
 299              		.loc 1 818 19 is_stmt 0 view .LVU93
 300 00f4 3260     		str	r2, [r6]
 301              		.loc 1 833 5 is_stmt 1 view .LVU94
 302              		.loc 1 833 17 is_stmt 0 view .LVU95
 303 00f6 B363     		str	r3, [r6, #56]
 304              		.loc 1 837 5 is_stmt 1 view .LVU96
 305              	.LBB298:
 306              	.LBI298:
 307              		.loc 1 134 13 view .LVU97
 308              	.LVL14:
 309              	.LBB299:
 310              		.loc 1 135 3 view .LVU98
 311              		.loc 1 138 3 view .LVU99
 312              	.L23:
 313              		.loc 1 139 5 view .LVU100
 314              		.loc 1 138 15 is_stmt 0 view .LVU101
 315 00f8 2B69     		ldr	r3, [r5, #16]
 316              		.loc 1 138 9 view .LVU102
 317 00fa 002B     		cmp	r3, #0
 318 00fc FCDA     		bge	.L23
 319              		.loc 1 142 3 is_stmt 1 view .LVU103
 320              		.loc 1 142 17 is_stmt 0 view .LVU104
 321 00fe 0123     		movs	r3, #1
 322              	.LBB300:
 323              	.LBB301:
 324              		.file 2 "../../../external/ChibiOS/os/hal/osal/rt-nil/osal.h"
 325              		.loc 2 591 3 view .LVU105
 326 0100 0C20     		movs	r0, #12
 327              	.LBE301:
 328              	.LBE300:
 329              		.loc 1 142 17 view .LVU106
 330 0102 2B61     		str	r3, [r5, #16]
 331              		.loc 1 143 3 is_stmt 1 view .LVU107
 332              	.LVL15:
 333              	.LBB303:
 334              	.LBI300:
 335              		.loc 2 589 20 view .LVU108
 336              	.LBB302:
 337              		.loc 2 591 3 view .LVU109
 338 0104 FFF7FEFF 		bl	chSysPolledDelayX
 339              	.LVL16:
 340              	.L24:
 341              		.loc 2 591 3 is_stmt 0 view .LVU110
ARM GAS  /tmp/ccfraM8n.s 			page 7


 342              	.LBE302:
 343              	.LBE303:
 344              		.loc 1 145 5 is_stmt 1 view .LVU111
 345              		.loc 1 144 15 is_stmt 0 view .LVU112
 346 0108 2C69     		ldr	r4, [r5, #16]
 347              		.loc 1 144 9 view .LVU113
 348 010a 14F00104 		ands	r4, r4, #1
 349 010e FBD1     		bne	.L24
 350              		.loc 1 147 3 is_stmt 1 view .LVU114
 351              	.LVL17:
 352              	.LBB304:
 353              	.LBI304:
 354              		.loc 2 589 20 view .LVU115
 355              	.LBB305:
 356              		.loc 2 591 3 view .LVU116
 357 0110 1220     		movs	r0, #18
 358 0112 FFF7FEFF 		bl	chSysPolledDelayX
 359              	.LVL18:
 360              	.L25:
 361              	.LBE305:
 362              	.LBE304:
 363              		.loc 1 151 5 view .LVU117
 364              		.loc 1 150 15 is_stmt 0 view .LVU118
 365 0116 2B69     		ldr	r3, [r5, #16]
 366              		.loc 1 150 9 view .LVU119
 367 0118 002B     		cmp	r3, #0
 368 011a FCDA     		bge	.L25
 369              		.loc 1 150 9 view .LVU120
 370              	.LBE299:
 371              	.LBE298:
 372              		.loc 1 840 5 is_stmt 1 view .LVU121
 373              		.loc 1 840 19 is_stmt 0 view .LVU122
 374 011c 0022     		movs	r2, #0
 375              	.LBB306:
 376              	.LBB307:
 377              		.loc 1 168 25 view .LVU123
 378 011e 4FF0FF30 		mov	r0, #-1
 379              	.LBE307:
 380              	.LBE306:
 381              		.loc 1 843 5 view .LVU124
 382 0122 D7E92413 		ldrd	r1, r3, [r7, #144]
 383              		.loc 1 840 19 view .LVU125
 384 0126 B260     		str	r2, [r6, #8]
 385              		.loc 1 843 5 is_stmt 1 view .LVU126
 386              	.LBB311:
 387              	.LBI306:
 388              		.loc 1 154 13 view .LVU127
 389              	.LVL19:
 390              	.LBB308:
 391              		.loc 1 155 3 view .LVU128
 392              		.loc 1 156 3 view .LVU129
 393              		.loc 1 158 3 view .LVU130
 394              		.loc 1 158 35 is_stmt 0 view .LVU131
 395 0128 D3F808E0 		ldr	lr, [r3, #8]
 396              	.LVL20:
 397              	.L28:
 398              		.loc 1 160 5 is_stmt 1 view .LVU132
ARM GAS  /tmp/ccfraM8n.s 			page 8


 399              		.loc 1 161 7 view .LVU133
 400              		.loc 1 164 5 view .LVU134
 401              		.loc 1 165 7 view .LVU135
 402              		.loc 1 168 5 view .LVU136
 403 012c 6301     		lsls	r3, r4, #5
 404              		.loc 1 158 53 is_stmt 0 view .LVU137
 405 012e 651C     		adds	r5, r4, #1
 406 0130 CA18     		adds	r2, r1, r3
 407              		.loc 1 160 21 view .LVU138
 408 0132 D2F800C9 		ldr	ip, [r2, #2304]
 409              		.loc 1 168 25 view .LVU139
 410 0136 1346     		mov	r3, r2
 411              		.loc 1 160 8 view .LVU140
 412 0138 BCF1000F 		cmp	ip, #0
 413 013c 05DA     		bge	.L26
 414              		.loc 1 161 27 view .LVU141
 415 013e D2F800C9 		ldr	ip, [r2, #2304]
 416 0142 4CF0804C 		orr	ip, ip, #1073741824
 417 0146 C2F800C9 		str	ip, [r2, #2304]
 418              	.L26:
 419              		.loc 1 164 21 view .LVU142
 420 014a D2F800CB 		ldr	ip, [r2, #2816]
 421              		.loc 1 164 8 view .LVU143
 422 014e BCF1000F 		cmp	ip, #0
 423 0152 05DA     		bge	.L27
 424              		.loc 1 165 27 view .LVU144
 425 0154 D2F800CB 		ldr	ip, [r2, #2816]
 426 0158 4CF0804C 		orr	ip, ip, #1073741824
 427 015c C2F800CB 		str	ip, [r2, #2816]
 428              	.L27:
 429              		.loc 1 158 3 view .LVU145
 430 0160 7445     		cmp	r4, lr
 431              		.loc 1 168 25 view .LVU146
 432 0162 C3F80809 		str	r0, [r3, #2312]
 433              		.loc 1 169 5 is_stmt 1 view .LVU147
 434              	.LVL21:
 435              		.loc 1 158 3 is_stmt 0 view .LVU148
 436 0166 2C46     		mov	r4, r5
 437              		.loc 1 169 25 view .LVU149
 438 0168 C3F8080B 		str	r0, [r3, #2824]
 439              		.loc 1 158 3 view .LVU150
 440 016c DED1     		bne	.L28
 441              	.LVL22:
 442              		.loc 1 171 3 is_stmt 1 view .LVU151
 443              	.LBE308:
 444              	.LBE311:
 445              		.loc 1 850 21 is_stmt 0 view .LVU152
 446 016e 7A68     		ldr	r2, [r7, #4]
 447              		.loc 1 847 20 view .LVU153
 448 0170 0023     		movs	r3, #0
 449              	.LBB312:
 450              	.LBB309:
 451              		.loc 1 171 18 view .LVU154
 452 0172 4FF00110 		mov	r0, #65537
 453              	.LBE309:
 454              	.LBE312:
 455              		.loc 1 850 8 view .LVU155
ARM GAS  /tmp/ccfraM8n.s 			page 9


 456 0176 D268     		ldr	r2, [r2, #12]
 457              	.LBB313:
 458              	.LBB310:
 459              		.loc 1 171 18 view .LVU156
 460 0178 C1F81C08 		str	r0, [r1, #2076]
 461              	.LVL23:
 462              		.loc 1 171 18 view .LVU157
 463              	.LBE310:
 464              	.LBE313:
 465              		.loc 1 847 5 is_stmt 1 view .LVU158
 466              		.loc 1 847 20 is_stmt 0 view .LVU159
 467 017c C6F81038 		str	r3, [r6, #2064]
 468              		.loc 1 848 5 is_stmt 1 view .LVU160
 469              		.loc 1 848 20 is_stmt 0 view .LVU161
 470 0180 C6F81438 		str	r3, [r6, #2068]
 471              		.loc 1 849 5 is_stmt 1 view .LVU162
 472              		.loc 1 849 20 is_stmt 0 view .LVU163
 473 0184 C6F81C38 		str	r3, [r6, #2076]
 474              		.loc 1 850 5 is_stmt 1 view .LVU164
 475              		.loc 1 850 8 is_stmt 0 view .LVU165
 476 0188 4AB1     		cbz	r2, .L39
 477              		.loc 1 855 7 is_stmt 1 view .LVU166
 478              		.loc 1 855 22 is_stmt 0 view .LVU167
 479 018a 1C4B     		ldr	r3, .L40+4
 480 018c B361     		str	r3, [r6, #24]
 481              	.L30:
 482              		.loc 1 861 5 is_stmt 1 view .LVU168
 483              		.loc 1 861 20 is_stmt 0 view .LVU169
 484 018e 4FF0FF33 		mov	r3, #-1
 485 0192 7361     		str	r3, [r6, #20]
 486              		.loc 1 864 5 is_stmt 1 view .LVU170
 487              		.loc 1 864 19 is_stmt 0 view .LVU171
 488 0194 B368     		ldr	r3, [r6, #8]
 489 0196 43F00103 		orr	r3, r3, #1
 490 019a B360     		str	r3, [r6, #8]
 491              		.loc 1 866 1 view .LVU172
 492 019c F8BD     		pop	{r3, r4, r5, r6, r7, pc}
 493              	.LVL24:
 494              	.L39:
 495              		.loc 1 851 7 is_stmt 1 view .LVU173
 496              		.loc 1 851 22 is_stmt 0 view .LVU174
 497 019e 184B     		ldr	r3, .L40+8
 498 01a0 B361     		str	r3, [r6, #24]
 499 01a2 F4E7     		b	.L30
 500              	.LVL25:
 501              	.L38:
 502              		.loc 1 752 7 is_stmt 1 view .LVU175
 503 01a4 174B     		ldr	r3, .L40+12
 504              		.loc 1 756 7 is_stmt 0 view .LVU176
 505 01a6 0E21     		movs	r1, #14
 506 01a8 6520     		movs	r0, #101
 507              	.LVL26:
 508              		.loc 1 752 7 view .LVU177
 509 01aa D3F8D820 		ldr	r2, [r3, #216]
 510 01ae 42F00062 		orr	r2, r2, #134217728
 511 01b2 C3F8D820 		str	r2, [r3, #216]
 512              		.loc 1 752 7 is_stmt 1 view .LVU178
ARM GAS  /tmp/ccfraM8n.s 			page 10


 513              		.loc 1 752 7 view .LVU179
 514 01b6 D3F80021 		ldr	r2, [r3, #256]
 515 01ba 42F00062 		orr	r2, r2, #134217728
 516 01be C3F80021 		str	r2, [r3, #256]
 517              		.loc 1 752 7 view .LVU180
 518 01c2 D3F80021 		ldr	r2, [r3, #256]
 519              		.loc 1 752 28 view .LVU181
 520              		.loc 1 753 7 view .LVU182
 521 01c6 D3F88020 		ldr	r2, [r3, #128]
 522 01ca 42F00062 		orr	r2, r2, #134217728
 523 01ce C3F88020 		str	r2, [r3, #128]
 524              		.loc 1 753 7 view .LVU183
 525 01d2 D3F88020 		ldr	r2, [r3, #128]
 526 01d6 22F00062 		bic	r2, r2, #134217728
 527 01da C3F88020 		str	r2, [r3, #128]
 528              		.loc 1 753 7 view .LVU184
 529 01de D3F88030 		ldr	r3, [r3, #128]
 530              		.loc 1 753 23 view .LVU185
 531              		.loc 1 756 7 view .LVU186
 532 01e2 FFF7FEFF 		bl	nvicEnableVector
 533              	.LVL27:
 534              		.loc 1 761 7 view .LVU187
 535              		.loc 1 761 21 is_stmt 0 view .LVU188
 536 01e6 084A     		ldr	r2, .L40+16
 537              		.loc 1 765 18 view .LVU189
 538 01e8 084B     		ldr	r3, .L40+20
 539              		.loc 1 761 21 view .LVU190
 540 01ea F260     		str	r2, [r6, #12]
 541              		.loc 1 765 7 is_stmt 1 view .LVU191
 542 01ec D7F89050 		ldr	r5, [r7, #144]
 543              		.loc 1 765 18 is_stmt 0 view .LVU192
 544 01f0 C6F80038 		str	r3, [r6, #2048]
 545 01f4 78E7     		b	.L22
 546              	.L41:
 547 01f6 00BF     		.align	2
 548              	.L40:
 549 01f8 00000000 		.word	USBD1
 550 01fc 083C30C0 		.word	-1070580728
 551 0200 003C30C0 		.word	-1070580736
 552 0204 00440258 		.word	1476543488
 553 0208 40140040 		.word	1073747008
 554 020c 03002002 		.word	35651587
 555              		.cfi_endproc
 556              	.LFE379:
 557              		.size	usb_lld_start, .-usb_lld_start
 558              		.align	1
 559              		.p2align 4,,15
 560              		.global	usb_lld_stop
 561              		.syntax unified
 562              		.thumb
 563              		.thumb_func
 564              		.fpu fpv4-sp-d16
 565              		.type	usb_lld_stop, %function
 566              	usb_lld_stop:
 567              	.LVL28:
 568              	.LFB380:
 569              		.loc 1 875 36 is_stmt 1 view -0
ARM GAS  /tmp/ccfraM8n.s 			page 11


 570              		.cfi_startproc
 571              		@ args = 0, pretend = 0, frame = 0
 572              		@ frame_needed = 0, uses_anonymous_args = 0
 573              		.loc 1 876 3 view .LVU194
 574              		.loc 1 879 3 view .LVU195
 575              		.loc 1 875 36 is_stmt 0 view .LVU196
 576 0210 F8B5     		push	{r3, r4, r5, r6, r7, lr}
 577              		.cfi_def_cfa_offset 24
 578              		.cfi_offset 3, -24
 579              		.cfi_offset 4, -20
 580              		.cfi_offset 5, -16
 581              		.cfi_offset 6, -12
 582              		.cfi_offset 7, -8
 583              		.cfi_offset 14, -4
 584              		.loc 1 879 6 view .LVU197
 585 0212 0378     		ldrb	r3, [r0]	@ zero_extendqisi2
 586 0214 012B     		cmp	r3, #1
 587 0216 33D0     		beq	.L42
 588              	.LBB314:
 589              	.LBB315:
 590              		.loc 1 158 35 view .LVU198
 591 0218 D0F89430 		ldr	r3, [r0, #148]
 592              		.loc 1 158 10 view .LVU199
 593 021c 0021     		movs	r1, #0
 594              	.LBE315:
 595              	.LBE314:
 596              		.loc 1 876 16 view .LVU200
 597 021e D0F89040 		ldr	r4, [r0, #144]
 598              		.loc 1 883 5 is_stmt 1 view .LVU201
 599              	.LBB319:
 600              	.LBI314:
 601              		.loc 1 154 13 view .LVU202
 602              	.LVL29:
 603              	.LBB316:
 604              		.loc 1 155 3 view .LVU203
 605              		.loc 1 156 3 view .LVU204
 606              		.loc 1 158 3 view .LVU205
 607              		.loc 1 168 25 is_stmt 0 view .LVU206
 608 0222 4FF0FF35 		mov	r5, #-1
 609              		.loc 1 158 35 view .LVU207
 610 0226 D3F808C0 		ldr	ip, [r3, #8]
 611              	.LVL30:
 612              	.L47:
 613              		.loc 1 160 5 is_stmt 1 view .LVU208
 614              		.loc 1 161 7 view .LVU209
 615              		.loc 1 164 5 view .LVU210
 616              		.loc 1 165 7 view .LVU211
 617              		.loc 1 168 5 view .LVU212
 618 022a 4B01     		lsls	r3, r1, #5
 619              		.loc 1 158 53 is_stmt 0 view .LVU213
 620 022c 4E1C     		adds	r6, r1, #1
 621 022e E218     		adds	r2, r4, r3
 622              		.loc 1 160 21 view .LVU214
 623 0230 D2F80079 		ldr	r7, [r2, #2304]
 624              		.loc 1 168 25 view .LVU215
 625 0234 1346     		mov	r3, r2
 626              		.loc 1 160 8 view .LVU216
ARM GAS  /tmp/ccfraM8n.s 			page 12


 627 0236 002F     		cmp	r7, #0
 628 0238 05DA     		bge	.L45
 629              		.loc 1 161 27 view .LVU217
 630 023a D2F80079 		ldr	r7, [r2, #2304]
 631 023e 47F08047 		orr	r7, r7, #1073741824
 632 0242 C2F80079 		str	r7, [r2, #2304]
 633              	.L45:
 634              		.loc 1 164 21 view .LVU218
 635 0246 D2F8007B 		ldr	r7, [r2, #2816]
 636              		.loc 1 164 8 view .LVU219
 637 024a 002F     		cmp	r7, #0
 638 024c 05DA     		bge	.L46
 639              		.loc 1 165 27 view .LVU220
 640 024e D2F8007B 		ldr	r7, [r2, #2816]
 641 0252 47F08047 		orr	r7, r7, #1073741824
 642 0256 C2F8007B 		str	r7, [r2, #2816]
 643              	.L46:
 644              		.loc 1 158 3 view .LVU221
 645 025a 6145     		cmp	r1, ip
 646              		.loc 1 168 25 view .LVU222
 647 025c C3F80859 		str	r5, [r3, #2312]
 648              		.loc 1 169 5 is_stmt 1 view .LVU223
 649              	.LVL31:
 650              		.loc 1 158 3 is_stmt 0 view .LVU224
 651 0260 3146     		mov	r1, r6
 652              		.loc 1 169 25 view .LVU225
 653 0262 C3F8085B 		str	r5, [r3, #2824]
 654              		.loc 1 158 3 view .LVU226
 655 0266 E0D1     		bne	.L47
 656              	.LVL32:
 657              		.loc 1 171 3 is_stmt 1 view .LVU227
 658              	.LBE316:
 659              	.LBE319:
 660              		.loc 1 890 8 is_stmt 0 view .LVU228
 661 0268 0F4A     		ldr	r2, .L52
 662              		.loc 1 885 22 view .LVU229
 663 026a 0023     		movs	r3, #0
 664              	.LBB320:
 665              	.LBB317:
 666              		.loc 1 171 18 view .LVU230
 667 026c 4FF00111 		mov	r1, #65537
 668              	.LVL33:
 669              		.loc 1 171 18 view .LVU231
 670              	.LBE317:
 671              	.LBE320:
 672              		.loc 1 890 8 view .LVU232
 673 0270 9042     		cmp	r0, r2
 674              	.LBB321:
 675              	.LBB318:
 676              		.loc 1 171 18 view .LVU233
 677 0272 C4F81C18 		str	r1, [r4, #2076]
 678              	.LVL34:
 679              		.loc 1 171 18 view .LVU234
 680              	.LBE318:
 681              	.LBE321:
 682              		.loc 1 885 5 is_stmt 1 view .LVU235
 683              		.loc 1 885 22 is_stmt 0 view .LVU236
ARM GAS  /tmp/ccfraM8n.s 			page 13


 684 0276 C4F81C38 		str	r3, [r4, #2076]
 685              		.loc 1 886 5 is_stmt 1 view .LVU237
 686              		.loc 1 886 22 is_stmt 0 view .LVU238
 687 027a A360     		str	r3, [r4, #8]
 688              		.loc 1 887 5 is_stmt 1 view .LVU239
 689              		.loc 1 887 22 is_stmt 0 view .LVU240
 690 027c A363     		str	r3, [r4, #56]
 691              		.loc 1 890 5 is_stmt 1 view .LVU241
 692              		.loc 1 890 8 is_stmt 0 view .LVU242
 693 027e 00D0     		beq	.L51
 694              	.LVL35:
 695              	.L42:
 696              		.loc 1 906 1 view .LVU243
 697 0280 F8BD     		pop	{r3, r4, r5, r6, r7, pc}
 698              	.LVL36:
 699              	.L51:
 700              		.loc 1 891 7 is_stmt 1 view .LVU244
 701 0282 6520     		movs	r0, #101
 702              	.LVL37:
 703              		.loc 1 891 7 is_stmt 0 view .LVU245
 704 0284 FFF7FEFF 		bl	nvicDisableVector
 705              	.LVL38:
 706              		.loc 1 892 7 is_stmt 1 view .LVU246
 707 0288 084B     		ldr	r3, .L52+4
 708 028a D3F8D820 		ldr	r2, [r3, #216]
 709 028e 22F00062 		bic	r2, r2, #134217728
 710 0292 C3F8D820 		str	r2, [r3, #216]
 711              		.loc 1 892 7 view .LVU247
 712 0296 D3F80021 		ldr	r2, [r3, #256]
 713 029a 22F00062 		bic	r2, r2, #134217728
 714 029e C3F80021 		str	r2, [r3, #256]
 715              		.loc 1 892 7 view .LVU248
 716 02a2 D3F80031 		ldr	r3, [r3, #256]
 717              		.loc 1 892 25 view .LVU249
 718              		.loc 1 906 1 is_stmt 0 view .LVU250
 719 02a6 F8BD     		pop	{r3, r4, r5, r6, r7, pc}
 720              	.L53:
 721              		.align	2
 722              	.L52:
 723 02a8 00000000 		.word	USBD1
 724 02ac 00440258 		.word	1476543488
 725              		.cfi_endproc
 726              	.LFE380:
 727              		.size	usb_lld_stop, .-usb_lld_stop
 728              		.align	1
 729              		.p2align 4,,15
 730              		.global	usb_lld_reset
 731              		.syntax unified
 732              		.thumb
 733              		.thumb_func
 734              		.fpu fpv4-sp-d16
 735              		.type	usb_lld_reset, %function
 736              	usb_lld_reset:
 737              	.LVL39:
 738              	.LFB381:
 739              		.loc 1 915 37 is_stmt 1 view -0
 740              		.cfi_startproc
ARM GAS  /tmp/ccfraM8n.s 			page 14


 741              		@ args = 0, pretend = 0, frame = 0
 742              		@ frame_needed = 0, uses_anonymous_args = 0
 743              		.loc 1 916 3 view .LVU252
 744              		.loc 1 917 3 view .LVU253
 745              		.loc 1 915 37 is_stmt 0 view .LVU254
 746 02b0 F8B5     		push	{r3, r4, r5, r6, r7, lr}
 747              		.cfi_def_cfa_offset 24
 748              		.cfi_offset 3, -24
 749              		.cfi_offset 4, -20
 750              		.cfi_offset 5, -16
 751              		.cfi_offset 6, -12
 752              		.cfi_offset 7, -8
 753              		.cfi_offset 14, -4
 754              	.LBB322:
 755              	.LBB323:
 756              		.loc 1 187 17 view .LVU255
 757 02b2 2023     		movs	r3, #32
 758              	.LBE323:
 759              	.LBE322:
 760              		.loc 1 917 16 view .LVU256
 761 02b4 D0F89050 		ldr	r5, [r0, #144]
 762              	.LVL40:
 763              		.loc 1 920 3 is_stmt 1 view .LVU257
 764              		.loc 1 915 37 is_stmt 0 view .LVU258
 765 02b8 0646     		mov	r6, r0
 766              	.LVL41:
 767              	.LBB327:
 768              	.LBI322:
 769              		.loc 1 184 13 is_stmt 1 view .LVU259
 770              	.LBB326:
 771              		.loc 1 185 3 view .LVU260
 772              		.loc 1 187 3 view .LVU261
 773              		.loc 1 187 17 is_stmt 0 view .LVU262
 774 02ba 2B61     		str	r3, [r5, #16]
 775              		.loc 1 188 3 is_stmt 1 view .LVU263
 776              	.L55:
 777              		.loc 1 189 5 view .LVU264
 778              		.loc 1 188 15 is_stmt 0 view .LVU265
 779 02bc 2C69     		ldr	r4, [r5, #16]
 780              		.loc 1 188 9 view .LVU266
 781 02be 14F02004 		ands	r4, r4, #32
 782 02c2 FBD1     		bne	.L55
 783              		.loc 1 191 3 is_stmt 1 view .LVU267
 784              	.LVL42:
 785              	.LBB324:
 786              	.LBI324:
 787              		.loc 2 589 20 view .LVU268
 788              	.LBB325:
 789              		.loc 2 591 3 view .LVU269
 790 02c4 1220     		movs	r0, #18
 791              	.LVL43:
 792              		.loc 2 591 3 is_stmt 0 view .LVU270
 793 02c6 FFF7FEFF 		bl	chSysPolledDelayX
 794              	.LVL44:
 795              		.loc 2 591 3 view .LVU271
 796              	.LBE325:
 797              	.LBE324:
ARM GAS  /tmp/ccfraM8n.s 			page 15


 798              	.LBE326:
 799              	.LBE327:
 800              		.loc 1 923 3 is_stmt 1 view .LVU272
 801              		.loc 1 927 24 is_stmt 0 view .LVU273
 802 02ca D6F894C0 		ldr	ip, [r6, #148]
 803              		.loc 1 924 20 view .LVU274
 804 02ce 4FF00113 		mov	r3, #65537
 805              		.loc 1 928 25 view .LVU275
 806 02d2 4FF00061 		mov	r1, #134217728
 807              		.loc 1 930 25 view .LVU276
 808 02d6 4FF0FF32 		mov	r2, #-1
 809              		.loc 1 927 35 view .LVU277
 810 02da DCF80870 		ldr	r7, [ip, #8]
 811              		.loc 1 923 20 view .LVU278
 812 02de C5F83448 		str	r4, [r5, #2100]
 813              		.loc 1 924 3 is_stmt 1 view .LVU279
 814              		.loc 1 924 20 is_stmt 0 view .LVU280
 815 02e2 C5F81C38 		str	r3, [r5, #2076]
 816              		.loc 1 927 3 is_stmt 1 view .LVU281
 817              	.LVL45:
 818              	.L56:
 819              		.loc 1 928 5 discriminator 3 view .LVU282
 820 02e6 05EB4413 		add	r3, r5, r4, lsl #5
 821              		.loc 1 927 53 is_stmt 0 discriminator 3 view .LVU283
 822 02ea 601C     		adds	r0, r4, #1
 823              		.loc 1 927 3 discriminator 3 view .LVU284
 824 02ec BC42     		cmp	r4, r7
 825              		.loc 1 928 25 discriminator 3 view .LVU285
 826 02ee C3F80019 		str	r1, [r3, #2304]
 827              		.loc 1 929 5 is_stmt 1 discriminator 3 view .LVU286
 828 02f2 0446     		mov	r4, r0
 829              	.LVL46:
 830              		.loc 1 929 25 is_stmt 0 discriminator 3 view .LVU287
 831 02f4 C3F8001B 		str	r1, [r3, #2816]
 832              		.loc 1 930 5 is_stmt 1 discriminator 3 view .LVU288
 833              		.loc 1 930 25 is_stmt 0 discriminator 3 view .LVU289
 834 02f8 C3F80829 		str	r2, [r3, #2312]
 835              		.loc 1 931 5 is_stmt 1 discriminator 3 view .LVU290
 836              	.LVL47:
 837              		.loc 1 931 25 is_stmt 0 discriminator 3 view .LVU291
 838 02fc C3F8082B 		str	r2, [r3, #2824]
 839              		.loc 1 927 3 discriminator 3 view .LVU292
 840 0300 F1D1     		bne	.L56
 841              		.loc 1 935 3 is_stmt 1 view .LVU293
 842              	.LBB328:
 843              	.LBI328:
 844              		.loc 1 201 13 view .LVU294
 845              	.LVL48:
 846              	.LBB329:
 847              		.loc 1 203 3 view .LVU295
 848              		.loc 1 203 33 is_stmt 0 view .LVU296
 849 0302 DCF80010 		ldr	r1, [ip]
 850              	.LBE329:
 851              	.LBE328:
 852              	.LBB331:
 853              	.LBB332:
 854              		.loc 1 177 17 view .LVU297
ARM GAS  /tmp/ccfraM8n.s 			page 16


 855 0306 1023     		movs	r3, #16
 856              	.LBE332:
 857              	.LBE331:
 858              		.loc 1 939 3 view .LVU298
 859 0308 D6F89020 		ldr	r2, [r6, #144]
 860              	.LBB339:
 861              	.LBB330:
 862              		.loc 1 203 16 view .LVU299
 863 030c C6F89810 		str	r1, [r6, #152]
 864              	.LBE330:
 865              	.LBE339:
 866              		.loc 1 938 3 is_stmt 1 view .LVU300
 867              		.loc 1 938 34 is_stmt 0 view .LVU301
 868 0310 DCF80010 		ldr	r1, [ip]
 869              		.loc 1 938 17 view .LVU302
 870 0314 6962     		str	r1, [r5, #36]
 871              		.loc 1 939 3 is_stmt 1 view .LVU303
 872              	.LBB340:
 873              	.LBI331:
 874              		.loc 1 174 13 view .LVU304
 875              	.LVL49:
 876              	.LBB337:
 877              		.loc 1 175 3 view .LVU305
 878              		.loc 1 177 3 view .LVU306
 879              		.loc 1 177 17 is_stmt 0 view .LVU307
 880 0316 1361     		str	r3, [r2, #16]
 881              		.loc 1 178 3 is_stmt 1 view .LVU308
 882              	.L57:
 883              		.loc 1 179 5 view .LVU309
 884              		.loc 1 178 15 is_stmt 0 view .LVU310
 885 0318 1469     		ldr	r4, [r2, #16]
 886              		.loc 1 178 9 view .LVU311
 887 031a 14F01004 		ands	r4, r4, #16
 888 031e FBD1     		bne	.L57
 889              		.loc 1 181 3 is_stmt 1 view .LVU312
 890              	.LVL50:
 891              	.LBB333:
 892              	.LBI333:
 893              		.loc 2 589 20 view .LVU313
 894              	.LBB334:
 895              		.loc 2 591 3 view .LVU314
 896 0320 1220     		movs	r0, #18
 897              	.LVL51:
 898              		.loc 2 591 3 is_stmt 0 view .LVU315
 899              	.LBE334:
 900              	.LBE333:
 901              	.LBE337:
 902              	.LBE340:
 903              		.loc 1 950 16 view .LVU316
 904 0322 144F     		ldr	r7, .L62
 905              	.LBB341:
 906              	.LBB338:
 907              	.LBB336:
 908              	.LBB335:
 909              		.loc 2 591 3 view .LVU317
 910 0324 FFF7FEFF 		bl	chSysPolledDelayX
 911              	.LVL52:
ARM GAS  /tmp/ccfraM8n.s 			page 17


 912              		.loc 2 591 3 view .LVU318
 913              	.LBE335:
 914              	.LBE336:
 915              	.LBE338:
 916              	.LBE341:
 917              		.loc 1 942 3 is_stmt 1 view .LVU319
 918              		.loc 1 942 21 is_stmt 0 view .LVU320
 919 0328 D5F80028 		ldr	r2, [r5, #2048]
 920              		.loc 1 945 18 view .LVU321
 921 032c 124B     		ldr	r3, .L62+4
 922              		.loc 1 946 19 view .LVU322
 923 032e 0921     		movs	r1, #9
 924              		.loc 1 942 46 view .LVU323
 925 0330 22F4FE62 		bic	r2, r2, #2032
 926              		.loc 1 951 24 view .LVU324
 927 0334 4FF0C040 		mov	r0, #1610612736
 928              		.loc 1 942 14 view .LVU325
 929 0338 C5F80028 		str	r2, [r5, #2048]
 930              		.loc 1 945 3 is_stmt 1 view .LVU326
 931              		.loc 1 945 18 is_stmt 0 view .LVU327
 932 033c AA69     		ldr	r2, [r5, #24]
 933 033e 1343     		orrs	r3, r3, r2
 934              		.loc 1 952 23 view .LVU328
 935 0340 0E4A     		ldr	r2, .L62+8
 936              		.loc 1 945 18 view .LVU329
 937 0342 AB61     		str	r3, [r5, #24]
 938              		.loc 1 946 3 is_stmt 1 view .LVU330
 939              		.loc 1 946 19 is_stmt 0 view .LVU331
 940 0344 C5F81018 		str	r1, [r5, #2064]
 941              		.loc 1 947 3 is_stmt 1 view .LVU332
 942              		.loc 1 947 19 is_stmt 0 view .LVU333
 943 0348 C5F81418 		str	r1, [r5, #2068]
 944              		.loc 1 950 3 is_stmt 1 view .LVU334
 945              		.loc 1 950 16 is_stmt 0 view .LVU335
 946 034c F760     		str	r7, [r6, #12]
 947              		.loc 1 951 3 is_stmt 1 view .LVU336
 948              		.loc 1 951 24 is_stmt 0 view .LVU337
 949 034e C5F8100B 		str	r0, [r5, #2832]
 950              		.loc 1 952 3 is_stmt 1 view .LVU338
 951              		.loc 1 952 23 is_stmt 0 view .LVU339
 952 0352 C5F8002B 		str	r2, [r5, #2816]
 953              		.loc 1 954 3 is_stmt 1 view .LVU340
 954              		.loc 1 954 24 is_stmt 0 view .LVU341
 955 0356 C5F81049 		str	r4, [r5, #2320]
 956              		.loc 1 955 3 is_stmt 1 view .LVU342
 957              		.loc 1 955 23 is_stmt 0 view .LVU343
 958 035a C5F80029 		str	r2, [r5, #2304]
 959              		.loc 1 957 3 is_stmt 1 view .LVU344
 960              	.LVL53:
 961              	.LBB342:
 962              	.LBI342:
 963              		.loc 1 214 17 view .LVU345
 964              	.LBB343:
 965              		.loc 1 215 3 view .LVU346
 966              		.loc 1 217 3 view .LVU347
 967              		.loc 1 217 8 is_stmt 0 view .LVU348
 968 035e D6F89830 		ldr	r3, [r6, #152]
ARM GAS  /tmp/ccfraM8n.s 			page 18


 969              	.LVL54:
 970              		.loc 1 218 3 is_stmt 1 view .LVU349
 971              		.loc 1 218 16 is_stmt 0 view .LVU350
 972 0362 03F11002 		add	r2, r3, #16
 973              	.LBE343:
 974              	.LBE342:
 975              		.loc 1 957 63 view .LVU351
 976 0366 43F48013 		orr	r3, r3, #1048576
 977              	.LVL55:
 978              	.LBB345:
 979              	.LBB344:
 980              		.loc 1 218 16 view .LVU352
 981 036a C6F89820 		str	r2, [r6, #152]
 982              	.LVL56:
 983              		.loc 1 219 3 is_stmt 1 view .LVU353
 984              		.loc 1 219 3 view .LVU354
 985              		.loc 1 221 3 view .LVU355
 986              		.loc 1 221 3 is_stmt 0 view .LVU356
 987              	.LBE344:
 988              	.LBE345:
 989              		.loc 1 957 18 view .LVU357
 990 036e AB62     		str	r3, [r5, #40]
 991              		.loc 1 960 1 view .LVU358
 992 0370 F8BD     		pop	{r3, r4, r5, r6, r7, pc}
 993              	.LVL57:
 994              	.L63:
 995              		.loc 1 960 1 view .LVU359
 996 0372 00BF     		.align	2
 997              	.L62:
 998 0374 0C000000 		.word	.LANCHOR0+12
 999 0378 10000C00 		.word	786448
 1000 037c 40800010 		.word	268468288
 1001              		.cfi_endproc
 1002              	.LFE381:
 1003              		.size	usb_lld_reset, .-usb_lld_reset
 1004              		.align	1
 1005              		.p2align 4,,15
 1006              		.global	usb_lld_set_address
 1007              		.syntax unified
 1008              		.thumb
 1009              		.thumb_func
 1010              		.fpu fpv4-sp-d16
 1011              		.type	usb_lld_set_address, %function
 1012              	usb_lld_set_address:
 1013              	.LVL58:
 1014              	.LFB382:
 1015              		.loc 1 969 43 is_stmt 1 view -0
 1016              		.cfi_startproc
 1017              		@ args = 0, pretend = 0, frame = 0
 1018              		@ frame_needed = 0, uses_anonymous_args = 0
 1019              		@ link register save eliminated.
 1020              		.loc 1 970 3 view .LVU361
 1021              		.loc 1 970 16 is_stmt 0 view .LVU362
 1022 0380 D0F89020 		ldr	r2, [r0, #144]
 1023              	.LVL59:
 1024              		.loc 1 972 3 is_stmt 1 view .LVU363
 1025              		.loc 1 972 48 is_stmt 0 view .LVU364
ARM GAS  /tmp/ccfraM8n.s 			page 19


 1026 0384 90F88A10 		ldrb	r1, [r0, #138]	@ zero_extendqisi2
 1027              		.loc 1 972 21 view .LVU365
 1028 0388 D2F80038 		ldr	r3, [r2, #2048]
 1029              		.loc 1 972 28 view .LVU366
 1030 038c 23F4FE63 		bic	r3, r3, #2032
 1031              		.loc 1 972 46 view .LVU367
 1032 0390 43EA0113 		orr	r3, r3, r1, lsl #4
 1033              		.loc 1 972 14 view .LVU368
 1034 0394 C2F80038 		str	r3, [r2, #2048]
 1035              		.loc 1 973 1 view .LVU369
 1036 0398 7047     		bx	lr
 1037              		.cfi_endproc
 1038              	.LFE382:
 1039              		.size	usb_lld_set_address, .-usb_lld_set_address
 1040              		.align	1
 1041 039a 00BFAFF3 		.p2align 4,,15
 1041      0080
 1042              		.global	usb_lld_init_endpoint
 1043              		.syntax unified
 1044              		.thumb
 1045              		.thumb_func
 1046              		.fpu fpv4-sp-d16
 1047              		.type	usb_lld_init_endpoint, %function
 1048              	usb_lld_init_endpoint:
 1049              	.LVL60:
 1050              	.LFB383:
 1051              		.loc 1 983 57 is_stmt 1 view -0
 1052              		.cfi_startproc
 1053              		@ args = 0, pretend = 0, frame = 0
 1054              		@ frame_needed = 0, uses_anonymous_args = 0
 1055              		.loc 1 983 57 is_stmt 0 view .LVU371
 1056 03a0 2DE9F047 		push	{r4, r5, r6, r7, r8, r9, r10, lr}
 1057              		.cfi_def_cfa_offset 32
 1058              		.cfi_offset 4, -32
 1059              		.cfi_offset 5, -28
 1060              		.cfi_offset 6, -24
 1061              		.cfi_offset 7, -20
 1062              		.cfi_offset 8, -16
 1063              		.cfi_offset 9, -12
 1064              		.cfi_offset 10, -8
 1065              		.cfi_offset 14, -4
 1066 03a4 0FFA81F8 		sxth	r8, r1
 1067              		.loc 1 985 16 view .LVU372
 1068 03a8 D0F89040 		ldr	r4, [r0, #144]
 1069              		.loc 1 1006 25 view .LVU373
 1070 03ac 4FEA411C 		lsl	ip, r1, #5
 1071 03b0 01F1100E 		add	lr, r1, #16
 1072 03b4 00EB8807 		add	r7, r0, r8, lsl #2
 1073              		.loc 1 983 57 view .LVU374
 1074 03b8 0D46     		mov	r5, r1
 1075              		.loc 1 984 3 is_stmt 1 view .LVU375
 1076              		.loc 1 985 3 view .LVU376
 1077              	.LVL61:
 1078              		.loc 1 988 3 view .LVU377
 1079              		.loc 1 1006 25 is_stmt 0 view .LVU378
 1080 03ba 4FF00009 		mov	r9, #0
 1081 03be 04EB0C06 		add	r6, r4, ip
ARM GAS  /tmp/ccfraM8n.s 			page 20


 1082              		.loc 1 988 20 view .LVU379
 1083 03c2 FB68     		ldr	r3, [r7, #12]
 1084 03c4 4FF0010A 		mov	r10, #1
 1085 03c8 414A     		ldr	r2, .L76
 1086              		.loc 1 988 34 view .LVU380
 1087 03ca 1968     		ldr	r1, [r3]
 1088              	.LVL62:
 1089              		.loc 1 988 34 view .LVU381
 1090 03cc 0AFA0EFE 		lsl	lr, r10, lr
 1091              		.loc 1 1006 25 view .LVU382
 1092 03d0 C6F8109B 		str	r9, [r6, #2832]
 1093              		.loc 1 988 34 view .LVU383
 1094 03d4 01F00301 		and	r1, r1, #3
 1095              		.loc 1 1007 6 view .LVU384
 1096 03d8 9E69     		ldr	r6, [r3, #24]
 1097 03da 02EB8102 		add	r2, r2, r1, lsl #2
 1098 03de D2F83090 		ldr	r9, [r2, #48]
 1099              	.LVL63:
 1100              		.loc 1 1006 3 is_stmt 1 view .LVU385
 1101              		.loc 1 1007 3 view .LVU386
 1102              		.loc 1 1007 6 is_stmt 0 view .LVU387
 1103 03e2 002E     		cmp	r6, #0
 1104 03e4 65D0     		beq	.L66
 1105              		.loc 1 1008 5 is_stmt 1 view .LVU388
 1106              		.loc 1 1008 34 is_stmt 0 view .LVU389
 1107 03e6 598A     		ldrh	r1, [r3, #18]
 1108              		.loc 1 1008 26 view .LVU390
 1109 03e8 05F15802 		add	r2, r5, #88
 1110              		.loc 1 1008 32 view .LVU391
 1111 03ec 41EA0901 		orr	r1, r1, r9
 1112              		.loc 1 1008 26 view .LVU392
 1113 03f0 5201     		lsls	r2, r2, #5
 1114 03f2 A150     		str	r1, [r4, r2]
 1115              		.loc 1 1009 5 is_stmt 1 view .LVU393
 1116              		.loc 1 1009 20 is_stmt 0 view .LVU394
 1117 03f4 D4F81C28 		ldr	r2, [r4, #2076]
 1118 03f8 42EA0E02 		orr	r2, r2, lr
 1119 03fc C4F81C28 		str	r2, [r4, #2076]
 1120              	.L67:
 1121              		.loc 1 1017 3 is_stmt 1 view .LVU395
 1122              		.loc 1 1017 25 is_stmt 0 view .LVU396
 1123 0400 0021     		movs	r1, #0
 1124 0402 A444     		add	ip, ip, r4
 1125 0404 AA01     		lsls	r2, r5, #6
 1126              		.loc 1 1018 6 view .LVU397
 1127 0406 5E69     		ldr	r6, [r3, #20]
 1128              		.loc 1 1017 25 view .LVU398
 1129 0408 CCF81019 		str	r1, [ip, #2320]
 1130              		.loc 1 1018 3 is_stmt 1 view .LVU399
 1131 040c 691E     		subs	r1, r5, #1
 1132 040e 42F02002 		orr	r2, r2, #32
 1133              		.loc 1 1018 6 is_stmt 0 view .LVU400
 1134 0412 7EB3     		cbz	r6, .L68
 1135              		.loc 1 1020 5 is_stmt 1 view .LVU401
 1136              		.loc 1 1021 22 is_stmt 0 view .LVU402
 1137 0414 B3F81CC0 		ldrh	ip, [r3, #28]
 1138              		.loc 1 1023 27 view .LVU403
ARM GAS  /tmp/ccfraM8n.s 			page 21


 1139 0418 4031     		adds	r1, r1, #64
 1140              		.loc 1 1020 39 view .LVU404
 1141 041a 1E8A     		ldrh	r6, [r3, #16]
 1142              		.loc 1 1021 8 view .LVU405
 1143 041c BCF1010F 		cmp	ip, #1
 1144              		.loc 1 1023 27 view .LVU406
 1145 0420 04EB8101 		add	r1, r4, r1, lsl #2
 1146              		.loc 1 1020 11 view .LVU407
 1147 0424 4FEA9603 		lsr	r3, r6, #2
 1148              	.LVL64:
 1149              		.loc 1 1021 5 is_stmt 1 view .LVU408
 1150              		.loc 1 1022 7 view .LVU409
 1151              	.LBB346:
 1152              	.LBB347:
 1153              		.loc 1 217 8 is_stmt 0 view .LVU410
 1154 0428 D0F89860 		ldr	r6, [r0, #152]
 1155              	.LBE347:
 1156              	.LBE346:
 1157              		.loc 1 1022 13 view .LVU411
 1158 042c 88BF     		it	hi
 1159 042e 0CFB03F3 		mulhi	r3, ip, r3
 1160              	.LVL65:
 1161              		.loc 1 1023 5 is_stmt 1 view .LVU412
 1162              	.LBB350:
 1163              	.LBI346:
 1164              		.loc 1 214 17 view .LVU413
 1165              	.LBB348:
 1166              		.loc 1 215 3 view .LVU414
 1167              		.loc 1 217 3 view .LVU415
 1168              		.loc 1 218 3 view .LVU416
 1169              		.loc 1 218 16 is_stmt 0 view .LVU417
 1170 0432 03EB060C 		add	ip, r3, r6
 1171              	.LBE348:
 1172              	.LBE350:
 1173              		.loc 1 1023 53 view .LVU418
 1174 0436 46EA0343 		orr	r3, r6, r3, lsl #16
 1175              	.LVL66:
 1176              	.LBB351:
 1177              	.LBB349:
 1178              		.loc 1 218 16 view .LVU419
 1179 043a C0F898C0 		str	ip, [r0, #152]
 1180              		.loc 1 219 3 is_stmt 1 view .LVU420
 1181              		.loc 1 219 3 view .LVU421
 1182              		.loc 1 221 3 view .LVU422
 1183              	.LVL67:
 1184              		.loc 1 221 3 is_stmt 0 view .LVU423
 1185              	.LBE349:
 1186              	.LBE351:
 1187              		.loc 1 1023 27 view .LVU424
 1188 043e 4B60     		str	r3, [r1, #4]
 1189              		.loc 1 1025 5 is_stmt 1 view .LVU425
 1190              	.LVL68:
 1191              	.LBB352:
 1192              	.LBI352:
 1193              		.loc 1 184 13 view .LVU426
 1194              	.LBB353:
 1195              		.loc 1 185 3 view .LVU427
ARM GAS  /tmp/ccfraM8n.s 			page 22


 1196              		.loc 1 187 3 view .LVU428
 1197              		.loc 1 187 17 is_stmt 0 view .LVU429
 1198 0440 2261     		str	r2, [r4, #16]
 1199              		.loc 1 188 3 is_stmt 1 view .LVU430
 1200              	.L70:
 1201              		.loc 1 189 5 view .LVU431
 1202              		.loc 1 188 15 is_stmt 0 view .LVU432
 1203 0442 2369     		ldr	r3, [r4, #16]
 1204              		.loc 1 188 9 view .LVU433
 1205 0444 9A06     		lsls	r2, r3, #26
 1206 0446 FCD4     		bmi	.L70
 1207              		.loc 1 191 3 is_stmt 1 view .LVU434
 1208              	.LVL69:
 1209              	.LBB354:
 1210              	.LBI354:
 1211              		.loc 2 589 20 view .LVU435
 1212              	.LBB355:
 1213              		.loc 2 591 3 view .LVU436
 1214 0448 1220     		movs	r0, #18
 1215              	.LVL70:
 1216              		.loc 2 591 3 is_stmt 0 view .LVU437
 1217 044a FFF7FEFF 		bl	chSysPolledDelayX
 1218              	.LVL71:
 1219              		.loc 2 591 3 view .LVU438
 1220              	.LBE355:
 1221              	.LBE354:
 1222              	.LBE353:
 1223              	.LBE352:
 1224              		.loc 1 1027 5 is_stmt 1 view .LVU439
 1225              		.loc 1 1029 28 is_stmt 0 view .LVU440
 1226 044e F968     		ldr	r1, [r7, #12]
 1227              		.loc 1 1027 26 view .LVU441
 1228 0450 05F14802 		add	r2, r5, #72
 1229              		.loc 1 1030 23 view .LVU442
 1230 0454 0123     		movs	r3, #1
 1231              		.loc 1 1029 28 view .LVU443
 1232 0456 098A     		ldrh	r1, [r1, #16]
 1233              		.loc 1 1027 26 view .LVU444
 1234 0458 5201     		lsls	r2, r2, #5
 1235              		.loc 1 1030 23 view .LVU445
 1236 045a AB40     		lsls	r3, r3, r5
 1237              		.loc 1 1028 47 view .LVU446
 1238 045c 41EA8551 		orr	r1, r1, r5, lsl #22
 1239 0460 41EA0901 		orr	r1, r1, r9
 1240              		.loc 1 1027 26 view .LVU447
 1241 0464 A150     		str	r1, [r4, r2]
 1242              		.loc 1 1030 5 is_stmt 1 view .LVU448
 1243              		.loc 1 1030 20 is_stmt 0 view .LVU449
 1244 0466 D4F81C28 		ldr	r2, [r4, #2076]
 1245 046a 1343     		orrs	r3, r3, r2
 1246 046c C4F81C38 		str	r3, [r4, #2076]
 1247              		.loc 1 1038 1 view .LVU450
 1248 0470 BDE8F087 		pop	{r4, r5, r6, r7, r8, r9, r10, pc}
 1249              	.LVL72:
 1250              	.L68:
 1251              		.loc 1 1033 5 is_stmt 1 view .LVU451
 1252              		.loc 1 1033 27 is_stmt 0 view .LVU452
ARM GAS  /tmp/ccfraM8n.s 			page 23


 1253 0474 05F13F03 		add	r3, r5, #63
 1254 0478 1649     		ldr	r1, .L76+4
 1255 047a 04EB8303 		add	r3, r4, r3, lsl #2
 1256 047e 5960     		str	r1, [r3, #4]
 1257              		.loc 1 1034 5 is_stmt 1 view .LVU453
 1258              	.LVL73:
 1259              	.LBB356:
 1260              	.LBI356:
 1261              		.loc 1 184 13 view .LVU454
 1262              	.LBB357:
 1263              		.loc 1 185 3 view .LVU455
 1264              		.loc 1 187 3 view .LVU456
 1265              		.loc 1 187 17 is_stmt 0 view .LVU457
 1266 0480 2261     		str	r2, [r4, #16]
 1267              		.loc 1 188 3 is_stmt 1 view .LVU458
 1268              	.L72:
 1269              		.loc 1 189 5 view .LVU459
 1270              		.loc 1 188 15 is_stmt 0 view .LVU460
 1271 0482 2369     		ldr	r3, [r4, #16]
 1272              		.loc 1 188 9 view .LVU461
 1273 0484 9B06     		lsls	r3, r3, #26
 1274 0486 FCD4     		bmi	.L72
 1275              		.loc 1 191 3 is_stmt 1 view .LVU462
 1276              	.LVL74:
 1277              	.LBB358:
 1278              	.LBI358:
 1279              		.loc 2 589 20 view .LVU463
 1280              	.LBB359:
 1281              		.loc 2 591 3 view .LVU464
 1282 0488 04EB4818 		add	r8, r4, r8, lsl #5
 1283 048c 1220     		movs	r0, #18
 1284              	.LVL75:
 1285              		.loc 2 591 3 is_stmt 0 view .LVU465
 1286 048e FFF7FEFF 		bl	chSysPolledDelayX
 1287              	.LVL76:
 1288              		.loc 2 591 3 view .LVU466
 1289              	.LBE359:
 1290              	.LBE358:
 1291              	.LBE357:
 1292              	.LBE356:
 1293              		.loc 1 1035 5 is_stmt 1 view .LVU467
 1294              		.loc 1 1036 24 is_stmt 0 view .LVU468
 1295 0492 0123     		movs	r3, #1
 1296              		.loc 1 1035 26 view .LVU469
 1297 0494 D8F80029 		ldr	r2, [r8, #2304]
 1298              		.loc 1 1036 24 view .LVU470
 1299 0498 AB40     		lsls	r3, r3, r5
 1300              		.loc 1 1035 26 view .LVU471
 1301 049a 22F40042 		bic	r2, r2, #32768
 1302 049e C8F80029 		str	r2, [r8, #2304]
 1303              		.loc 1 1036 5 is_stmt 1 view .LVU472
 1304              		.loc 1 1036 20 is_stmt 0 view .LVU473
 1305 04a2 D4F81C58 		ldr	r5, [r4, #2076]
 1306 04a6 25EA0305 		bic	r5, r5, r3
 1307 04aa C4F81C58 		str	r5, [r4, #2076]
 1308              		.loc 1 1038 1 view .LVU474
 1309 04ae BDE8F087 		pop	{r4, r5, r6, r7, r8, r9, r10, pc}
ARM GAS  /tmp/ccfraM8n.s 			page 24


 1310              	.LVL77:
 1311              	.L66:
 1312              		.loc 1 1012 5 is_stmt 1 view .LVU475
 1313 04b2 04EB4811 		add	r1, r4, r8, lsl #5
 1314              		.loc 1 1012 26 is_stmt 0 view .LVU476
 1315 04b6 D1F8002B 		ldr	r2, [r1, #2816]
 1316 04ba 22F40042 		bic	r2, r2, #32768
 1317 04be C1F8002B 		str	r2, [r1, #2816]
 1318              		.loc 1 1013 5 is_stmt 1 view .LVU477
 1319              		.loc 1 1013 20 is_stmt 0 view .LVU478
 1320 04c2 D4F81C28 		ldr	r2, [r4, #2076]
 1321 04c6 22EA0E02 		bic	r2, r2, lr
 1322 04ca C4F81C28 		str	r2, [r4, #2076]
 1323 04ce 97E7     		b	.L67
 1324              	.L77:
 1325              		.align	2
 1326              	.L76:
 1327 04d0 00000000 		.word	.LANCHOR0
 1328 04d4 00040002 		.word	33555456
 1329              		.cfi_endproc
 1330              	.LFE383:
 1331              		.size	usb_lld_init_endpoint, .-usb_lld_init_endpoint
 1332              		.align	1
 1333 04d8 AFF30080 		.p2align 4,,15
 1333      AFF30080 
 1334              		.global	usb_lld_disable_endpoints
 1335              		.syntax unified
 1336              		.thumb
 1337              		.thumb_func
 1338              		.fpu fpv4-sp-d16
 1339              		.type	usb_lld_disable_endpoints, %function
 1340              	usb_lld_disable_endpoints:
 1341              	.LVL78:
 1342              	.LFB384:
 1343              		.loc 1 1047 49 is_stmt 1 view -0
 1344              		.cfi_startproc
 1345              		@ args = 0, pretend = 0, frame = 0
 1346              		@ frame_needed = 0, uses_anonymous_args = 0
 1347              		@ link register save eliminated.
 1348              		.loc 1 1050 3 view .LVU480
 1349              		.loc 1 1047 49 is_stmt 0 view .LVU481
 1350 04e0 F0B4     		push	{r4, r5, r6, r7}
 1351              		.cfi_def_cfa_offset 16
 1352              		.cfi_offset 4, -16
 1353              		.cfi_offset 5, -12
 1354              		.cfi_offset 6, -8
 1355              		.cfi_offset 7, -4
 1356              		.loc 1 1053 3 view .LVU482
 1357 04e2 D0E92443 		ldrd	r4, r3, [r0, #144]
 1358              	.LBB360:
 1359              	.LBB361:
 1360              		.loc 1 158 10 view .LVU483
 1361 04e6 0021     		movs	r1, #0
 1362              		.loc 1 168 25 view .LVU484
 1363 04e8 4FF0FF35 		mov	r5, #-1
 1364              	.LBE361:
 1365              	.LBE360:
ARM GAS  /tmp/ccfraM8n.s 			page 25


 1366              	.LBB363:
 1367              	.LBB364:
 1368              		.loc 1 203 33 view .LVU485
 1369 04ec 1A68     		ldr	r2, [r3]
 1370              		.loc 1 203 16 view .LVU486
 1371 04ee C0F89820 		str	r2, [r0, #152]
 1372              	.LBE364:
 1373              	.LBE363:
 1374              		.loc 1 1053 3 is_stmt 1 view .LVU487
 1375              	.LBB365:
 1376              	.LBI360:
 1377              		.loc 1 154 13 view .LVU488
 1378              	.LVL79:
 1379              	.LBB362:
 1380              		.loc 1 155 3 view .LVU489
 1381              		.loc 1 156 3 view .LVU490
 1382              		.loc 1 158 3 view .LVU491
 1383              		.loc 1 158 35 is_stmt 0 view .LVU492
 1384 04f2 9F68     		ldr	r7, [r3, #8]
 1385              	.LVL80:
 1386              	.L81:
 1387              		.loc 1 160 5 is_stmt 1 view .LVU493
 1388              		.loc 1 161 7 view .LVU494
 1389              		.loc 1 164 5 view .LVU495
 1390              		.loc 1 165 7 view .LVU496
 1391              		.loc 1 168 5 view .LVU497
 1392 04f4 4B01     		lsls	r3, r1, #5
 1393              		.loc 1 158 53 is_stmt 0 view .LVU498
 1394 04f6 481C     		adds	r0, r1, #1
 1395 04f8 E218     		adds	r2, r4, r3
 1396              		.loc 1 160 21 view .LVU499
 1397 04fa D2F80069 		ldr	r6, [r2, #2304]
 1398              		.loc 1 168 25 view .LVU500
 1399 04fe 1346     		mov	r3, r2
 1400              		.loc 1 160 8 view .LVU501
 1401 0500 002E     		cmp	r6, #0
 1402 0502 05DA     		bge	.L79
 1403              		.loc 1 161 27 view .LVU502
 1404 0504 D2F80069 		ldr	r6, [r2, #2304]
 1405 0508 46F08046 		orr	r6, r6, #1073741824
 1406 050c C2F80069 		str	r6, [r2, #2304]
 1407              	.L79:
 1408              		.loc 1 164 21 view .LVU503
 1409 0510 D2F8006B 		ldr	r6, [r2, #2816]
 1410              		.loc 1 164 8 view .LVU504
 1411 0514 002E     		cmp	r6, #0
 1412 0516 05DA     		bge	.L80
 1413              		.loc 1 165 27 view .LVU505
 1414 0518 D2F8006B 		ldr	r6, [r2, #2816]
 1415 051c 46F08046 		orr	r6, r6, #1073741824
 1416 0520 C2F8006B 		str	r6, [r2, #2816]
 1417              	.L80:
 1418              		.loc 1 158 3 view .LVU506
 1419 0524 8F42     		cmp	r7, r1
 1420              		.loc 1 168 25 view .LVU507
 1421 0526 C3F80859 		str	r5, [r3, #2312]
 1422              		.loc 1 169 5 is_stmt 1 view .LVU508
ARM GAS  /tmp/ccfraM8n.s 			page 26


 1423              	.LVL81:
 1424              		.loc 1 158 3 is_stmt 0 view .LVU509
 1425 052a 0146     		mov	r1, r0
 1426              		.loc 1 169 25 view .LVU510
 1427 052c C3F8085B 		str	r5, [r3, #2824]
 1428              		.loc 1 158 3 view .LVU511
 1429 0530 E0D1     		bne	.L81
 1430              		.loc 1 171 3 is_stmt 1 view .LVU512
 1431              		.loc 1 171 18 is_stmt 0 view .LVU513
 1432 0532 4FF00113 		mov	r3, #65537
 1433 0536 C4F81C38 		str	r3, [r4, #2076]
 1434              	.LVL82:
 1435              		.loc 1 171 18 view .LVU514
 1436              	.LBE362:
 1437              	.LBE365:
 1438              		.loc 1 1054 1 view .LVU515
 1439 053a F0BC     		pop	{r4, r5, r6, r7}
 1440              		.cfi_restore 7
 1441              		.cfi_restore 6
 1442              		.cfi_restore 5
 1443              		.cfi_restore 4
 1444              		.cfi_def_cfa_offset 0
 1445 053c 7047     		bx	lr
 1446              		.cfi_endproc
 1447              	.LFE384:
 1448              		.size	usb_lld_disable_endpoints, .-usb_lld_disable_endpoints
 1449              		.align	1
 1450 053e 00BF     		.p2align 4,,15
 1451              		.global	usb_lld_get_status_out
 1452              		.syntax unified
 1453              		.thumb
 1454              		.thumb_func
 1455              		.fpu fpv4-sp-d16
 1456              		.type	usb_lld_get_status_out, %function
 1457              	usb_lld_get_status_out:
 1458              	.LVL83:
 1459              	.LFB385:
 1460              		.loc 1 1068 67 is_stmt 1 view -0
 1461              		.cfi_startproc
 1462              		@ args = 0, pretend = 0, frame = 0
 1463              		@ frame_needed = 0, uses_anonymous_args = 0
 1464              		@ link register save eliminated.
 1465              		.loc 1 1069 3 view .LVU517
 1466              		.loc 1 1071 3 view .LVU518
 1467              		.loc 1 1073 3 view .LVU519
 1468              		.loc 1 1073 7 is_stmt 0 view .LVU520
 1469 0540 5831     		adds	r1, r1, #88
 1470              	.LVL84:
 1471              		.loc 1 1073 13 view .LVU521
 1472 0542 D0F89030 		ldr	r3, [r0, #144]
 1473              		.loc 1 1073 7 view .LVU522
 1474 0546 4901     		lsls	r1, r1, #5
 1475 0548 5B58     		ldr	r3, [r3, r1]
 1476              	.LVL85:
 1477              		.loc 1 1074 3 is_stmt 1 view .LVU523
 1478              		.loc 1 1074 6 is_stmt 0 view .LVU524
 1479 054a 13F40040 		ands	r0, r3, #32768
ARM GAS  /tmp/ccfraM8n.s 			page 27


 1480              	.LVL86:
 1481              		.loc 1 1074 6 view .LVU525
 1482 054e 04D0     		beq	.L85
 1483              		.loc 1 1076 3 is_stmt 1 view .LVU526
 1484              		.loc 1 1076 6 is_stmt 0 view .LVU527
 1485 0550 13F4001F 		tst	r3, #2097152
 1486              		.loc 1 1077 12 view .LVU528
 1487 0554 0CBF     		ite	eq
 1488 0556 0220     		moveq	r0, #2
 1489 0558 0120     		movne	r0, #1
 1490              	.L85:
 1491              		.loc 1 1079 1 view .LVU529
 1492 055a 7047     		bx	lr
 1493              		.cfi_endproc
 1494              	.LFE385:
 1495              		.size	usb_lld_get_status_out, .-usb_lld_get_status_out
 1496              		.align	1
 1497 055c AFF30080 		.p2align 4,,15
 1498              		.global	usb_lld_get_status_in
 1499              		.syntax unified
 1500              		.thumb
 1501              		.thumb_func
 1502              		.fpu fpv4-sp-d16
 1503              		.type	usb_lld_get_status_in, %function
 1504              	usb_lld_get_status_in:
 1505              	.LVL87:
 1506              	.LFB386:
 1507              		.loc 1 1093 66 is_stmt 1 view -0
 1508              		.cfi_startproc
 1509              		@ args = 0, pretend = 0, frame = 0
 1510              		@ frame_needed = 0, uses_anonymous_args = 0
 1511              		@ link register save eliminated.
 1512              		.loc 1 1094 3 view .LVU531
 1513              		.loc 1 1096 3 view .LVU532
 1514              		.loc 1 1098 3 view .LVU533
 1515              		.loc 1 1098 7 is_stmt 0 view .LVU534
 1516 0560 4831     		adds	r1, r1, #72
 1517              	.LVL88:
 1518              		.loc 1 1098 13 view .LVU535
 1519 0562 D0F89030 		ldr	r3, [r0, #144]
 1520              		.loc 1 1098 7 view .LVU536
 1521 0566 4901     		lsls	r1, r1, #5
 1522 0568 5B58     		ldr	r3, [r3, r1]
 1523              	.LVL89:
 1524              		.loc 1 1099 3 is_stmt 1 view .LVU537
 1525              		.loc 1 1099 6 is_stmt 0 view .LVU538
 1526 056a 13F40040 		ands	r0, r3, #32768
 1527              	.LVL90:
 1528              		.loc 1 1099 6 view .LVU539
 1529 056e 04D0     		beq	.L89
 1530              		.loc 1 1101 3 is_stmt 1 view .LVU540
 1531              		.loc 1 1101 6 is_stmt 0 view .LVU541
 1532 0570 13F4001F 		tst	r3, #2097152
 1533              		.loc 1 1102 12 view .LVU542
 1534 0574 0CBF     		ite	eq
 1535 0576 0220     		moveq	r0, #2
 1536 0578 0120     		movne	r0, #1
ARM GAS  /tmp/ccfraM8n.s 			page 28


 1537              	.L89:
 1538              		.loc 1 1104 1 view .LVU543
 1539 057a 7047     		bx	lr
 1540              		.cfi_endproc
 1541              	.LFE386:
 1542              		.size	usb_lld_get_status_in, .-usb_lld_get_status_in
 1543              		.align	1
 1544 057c AFF30080 		.p2align 4,,15
 1545              		.global	usb_lld_read_setup
 1546              		.syntax unified
 1547              		.thumb
 1548              		.thumb_func
 1549              		.fpu fpv4-sp-d16
 1550              		.type	usb_lld_read_setup, %function
 1551              	usb_lld_read_setup:
 1552              	.LVL91:
 1553              	.LFB387:
 1554              		.loc 1 1120 68 is_stmt 1 view -0
 1555              		.cfi_startproc
 1556              		@ args = 0, pretend = 0, frame = 0
 1557              		@ frame_needed = 0, uses_anonymous_args = 0
 1558              		@ link register save eliminated.
 1559              		.loc 1 1122 3 view .LVU545
 1560              		.loc 1 1122 24 is_stmt 0 view .LVU546
 1561 0580 00EB8101 		add	r1, r0, r1, lsl #2
 1562              	.LVL92:
 1563              		.loc 1 1122 28 view .LVU547
 1564 0584 CB68     		ldr	r3, [r1, #12]
 1565              		.loc 1 1122 3 view .LVU548
 1566 0586 1B6A     		ldr	r3, [r3, #32]
 1567 0588 1968     		ldr	r1, [r3]	@ unaligned
 1568 058a 5B68     		ldr	r3, [r3, #4]	@ unaligned
 1569 058c 1160     		str	r1, [r2]	@ unaligned
 1570 058e 5360     		str	r3, [r2, #4]	@ unaligned
 1571              		.loc 1 1123 1 view .LVU549
 1572 0590 7047     		bx	lr
 1573              		.cfi_endproc
 1574              	.LFE387:
 1575              		.size	usb_lld_read_setup, .-usb_lld_read_setup
 1576              		.align	1
 1577 0592 00BFAFF3 		.p2align 4,,15
 1577      0080AFF3 
 1577      0080AFF3 
 1577      0080
 1578              		.global	usb_lld_start_out
 1579              		.syntax unified
 1580              		.thumb
 1581              		.thumb_func
 1582              		.fpu fpv4-sp-d16
 1583              		.type	usb_lld_start_out, %function
 1584              	usb_lld_start_out:
 1585              	.LVL93:
 1586              	.LFB388:
 1587              		.loc 1 1133 53 is_stmt 1 view -0
 1588              		.cfi_startproc
 1589              		@ args = 0, pretend = 0, frame = 0
 1590              		@ frame_needed = 0, uses_anonymous_args = 0
ARM GAS  /tmp/ccfraM8n.s 			page 29


 1591              		@ link register save eliminated.
 1592              		.loc 1 1134 3 view .LVU551
 1593              		.loc 1 1135 3 view .LVU552
 1594              		.loc 1 1135 39 is_stmt 0 view .LVU553
 1595 05a0 00EB8103 		add	r3, r0, r1, lsl #2
 1596              		.loc 1 1133 53 view .LVU554
 1597 05a4 70B4     		push	{r4, r5, r6}
 1598              		.cfi_def_cfa_offset 12
 1599              		.cfi_offset 4, -12
 1600              		.cfi_offset 5, -8
 1601              		.cfi_offset 6, -4
 1602              		.loc 1 1135 39 view .LVU555
 1603 05a6 DC68     		ldr	r4, [r3, #12]
 1604              		.loc 1 1135 24 view .LVU556
 1605 05a8 A369     		ldr	r3, [r4, #24]
 1606              	.LVL94:
 1607              		.loc 1 1138 3 is_stmt 1 view .LVU557
 1608              		.loc 1 1138 21 is_stmt 0 view .LVU558
 1609 05aa 1E68     		ldr	r6, [r3]
 1610              		.loc 1 1138 16 view .LVU559
 1611 05ac 1E61     		str	r6, [r3, #16]
 1612              		.loc 1 1139 3 is_stmt 1 view .LVU560
 1613              		.loc 1 1139 17 is_stmt 0 view .LVU561
 1614 05ae 09B9     		cbnz	r1, .L94
 1615 05b0 402E     		cmp	r6, #64
 1616 05b2 24D8     		bhi	.L106
 1617              	.L94:
 1618              		.loc 1 1147 3 is_stmt 1 view .LVU562
 1619              		.loc 1 1147 40 is_stmt 0 view .LVU563
 1620 05b4 638A     		ldrh	r3, [r4, #18]
 1621              	.LVL95:
 1622              		.loc 1 1156 31 view .LVU564
 1623 05b6 2468     		ldr	r4, [r4]
 1624              	.LVL96:
 1625              		.loc 1 1147 54 view .LVU565
 1626 05b8 5A1E     		subs	r2, r3, #1
 1627              		.loc 1 1152 7 view .LVU566
 1628 05ba D0F89000 		ldr	r0, [r0, #144]
 1629              	.LVL97:
 1630              		.loc 1 1156 31 view .LVU567
 1631 05be 04F00304 		and	r4, r4, #3
 1632              		.loc 1 1147 54 view .LVU568
 1633 05c2 3244     		add	r2, r2, r6
 1634              		.loc 1 1152 30 view .LVU569
 1635 05c4 00EB4115 		add	r5, r0, r1, lsl #5
 1636              		.loc 1 1156 6 view .LVU570
 1637 05c8 012C     		cmp	r4, #1
 1638              		.loc 1 1147 10 view .LVU571
 1639 05ca B2FBF3F2 		udiv	r2, r2, r3
 1640              	.LVL98:
 1641              		.loc 1 1149 3 is_stmt 1 view .LVU572
 1642              		.loc 1 1152 3 view .LVU573
 1643              		.loc 1 1149 18 is_stmt 0 view .LVU574
 1644 05ce 02FB03F3 		mul	r3, r2, r3
 1645              	.LVL99:
 1646              		.loc 1 1149 47 view .LVU575
 1647 05d2 03F10303 		add	r3, r3, #3
ARM GAS  /tmp/ccfraM8n.s 			page 30


 1648              		.loc 1 1149 10 view .LVU576
 1649 05d6 23F00303 		bic	r3, r3, #3
 1650              	.LVL100:
 1651              		.loc 1 1152 76 view .LVU577
 1652 05da 43EAC243 		orr	r3, r3, r2, lsl #19
 1653              	.LVL101:
 1654              		.loc 1 1152 76 view .LVU578
 1655 05de 43F0C043 		orr	r3, r3, #1610612736
 1656              		.loc 1 1152 30 view .LVU579
 1657 05e2 C5F8103B 		str	r3, [r5, #2832]
 1658              		.loc 1 1156 3 is_stmt 1 view .LVU580
 1659              		.loc 1 1156 6 is_stmt 0 view .LVU581
 1660 05e6 0ED0     		beq	.L104
 1661 05e8 09B2     		sxth	r1, r1
 1662              	.LVL102:
 1663              	.L95:
 1664              		.loc 1 1165 3 is_stmt 1 view .LVU582
 1665 05ea 00EB4111 		add	r1, r0, r1, lsl #5
 1666              		.loc 1 1165 29 is_stmt 0 view .LVU583
 1667 05ee D1F8003B 		ldr	r3, [r1, #2816]
 1668 05f2 43F00443 		orr	r3, r3, #-2080374784
 1669              		.loc 1 1166 1 view .LVU584
 1670 05f6 70BC     		pop	{r4, r5, r6}
 1671              		.cfi_remember_state
 1672              		.cfi_restore 6
 1673              		.cfi_restore 5
 1674              		.cfi_restore 4
 1675              		.cfi_def_cfa_offset 0
 1676              		.loc 1 1165 29 view .LVU585
 1677 05f8 C1F8003B 		str	r3, [r1, #2816]
 1678              		.loc 1 1166 1 view .LVU586
 1679 05fc 7047     		bx	lr
 1680              	.LVL103:
 1681              	.L106:
 1682              		.cfi_restore_state
 1683              		.loc 1 1140 7 is_stmt 1 view .LVU587
 1684              		.loc 1 1140 19 is_stmt 0 view .LVU588
 1685 05fe 4022     		movs	r2, #64
 1686 0600 1646     		mov	r6, r2
 1687 0602 1A60     		str	r2, [r3]
 1688 0604 D6E7     		b	.L94
 1689              	.LVL104:
 1690              	.L104:
 1691              		.loc 1 1158 5 is_stmt 1 view .LVU589
 1692              		.loc 1 1159 7 view .LVU590
 1693              		.loc 1 1161 7 view .LVU591
 1694 0606 09B2     		sxth	r1, r1
 1695              	.LVL105:
 1696              		.loc 1 1158 18 is_stmt 0 view .LVU592
 1697 0608 D0F80838 		ldr	r3, [r0, #2056]
 1698 060c 00EB4112 		add	r2, r0, r1, lsl #5
 1699              	.LVL106:
 1700              		.loc 1 1158 8 view .LVU593
 1701 0610 13F4807F 		tst	r3, #256
 1702              		.loc 1 1159 33 view .LVU594
 1703 0614 D2F8003B 		ldr	r3, [r2, #2816]
 1704 0618 14BF     		ite	ne
ARM GAS  /tmp/ccfraM8n.s 			page 31


 1705 061a 43F08053 		orrne	r3, r3, #268435456
 1706              		.loc 1 1161 33 view .LVU595
 1707 061e 43F00053 		orreq	r3, r3, #536870912
 1708 0622 C2F8003B 		str	r3, [r2, #2816]
 1709 0626 E0E7     		b	.L95
 1710              		.cfi_endproc
 1711              	.LFE388:
 1712              		.size	usb_lld_start_out, .-usb_lld_start_out
 1713              		.align	1
 1714 0628 AFF30080 		.p2align 4,,15
 1714      AFF30080 
 1715              		.syntax unified
 1716              		.thumb
 1717              		.thumb_func
 1718              		.fpu fpv4-sp-d16
 1719              		.type	otg_epout_handler.constprop.9, %function
 1720              	otg_epout_handler.constprop.9:
 1721              	.LVL107:
 1722              	.LFB403:
 1723              		.loc 1 417 13 is_stmt 1 view -0
 1724              		.cfi_startproc
 1725              		@ args = 0, pretend = 0, frame = 0
 1726              		@ frame_needed = 0, uses_anonymous_args = 0
 1727              		.loc 1 418 3 view .LVU597
 1728              		.loc 1 417 13 is_stmt 0 view .LVU598
 1729 0630 F8B5     		push	{r3, r4, r5, r6, r7, lr}
 1730              		.cfi_def_cfa_offset 24
 1731              		.cfi_offset 3, -24
 1732              		.cfi_offset 4, -20
 1733              		.cfi_offset 5, -16
 1734              		.cfi_offset 6, -12
 1735              		.cfi_offset 7, -8
 1736              		.cfi_offset 14, -4
 1737              		.loc 1 418 16 view .LVU599
 1738 0632 2B4D     		ldr	r5, .L130
 1739              		.loc 1 417 13 view .LVU600
 1740 0634 0646     		mov	r6, r0
 1741              		.loc 1 418 16 view .LVU601
 1742 0636 D5F89070 		ldr	r7, [r5, #144]
 1743              	.LVL108:
 1744              		.loc 1 419 3 is_stmt 1 view .LVU602
 1745              		.loc 1 419 12 is_stmt 0 view .LVU603
 1746 063a 07EB4013 		add	r3, r7, r0, lsl #5
 1747 063e D3F8084B 		ldr	r4, [r3, #2824]
 1748              	.LVL109:
 1749              		.loc 1 422 3 is_stmt 1 view .LVU604
 1750              		.loc 1 424 6 is_stmt 0 view .LVU605
 1751 0642 2007     		lsls	r0, r4, #28
 1752              	.LVL110:
 1753              		.loc 1 422 24 view .LVU606
 1754 0644 C3F8084B 		str	r4, [r3, #2824]
 1755              		.loc 1 424 3 is_stmt 1 view .LVU607
 1756              		.loc 1 424 6 is_stmt 0 view .LVU608
 1757 0648 03D5     		bpl	.L108
 1758              		.loc 1 424 38 view .LVU609
 1759 064a D7F81438 		ldr	r3, [r7, #2068]
 1760              		.loc 1 424 30 view .LVU610
ARM GAS  /tmp/ccfraM8n.s 			page 32


 1761 064e 1907     		lsls	r1, r3, #28
 1762 0650 30D4     		bmi	.L128
 1763              	.L108:
 1764              		.loc 1 427 39 is_stmt 1 view .LVU611
 1765              		.loc 1 430 3 view .LVU612
 1766              		.loc 1 430 6 is_stmt 0 view .LVU613
 1767 0652 E207     		lsls	r2, r4, #31
 1768 0654 2DD5     		bpl	.L107
 1769              		.loc 1 430 38 view .LVU614
 1770 0656 D7F81438 		ldr	r3, [r7, #2068]
 1771              		.loc 1 430 30 view .LVU615
 1772 065a DB07     		lsls	r3, r3, #31
 1773 065c 29D5     		bpl	.L107
 1774              	.LBB366:
 1775              		.loc 1 431 5 is_stmt 1 view .LVU616
 1776              		.loc 1 434 5 view .LVU617
 1777              		.loc 1 434 20 is_stmt 0 view .LVU618
 1778 065e B41C     		adds	r4, r6, #2
 1779              	.LVL111:
 1780              		.loc 1 434 20 view .LVU619
 1781 0660 05EB8403 		add	r3, r5, r4, lsl #2
 1782 0664 5968     		ldr	r1, [r3, #4]
 1783              	.LVL112:
 1784              		.loc 1 437 5 is_stmt 1 view .LVU620
 1785              		.loc 1 437 8 is_stmt 0 view .LVU621
 1786 0666 5EB9     		cbnz	r6, .L110
 1787              		.loc 1 434 9 view .LVU622
 1788 0668 8A69     		ldr	r2, [r1, #24]
 1789              		.loc 1 451 7 is_stmt 1 view .LVU623
 1790              		.loc 1 451 39 is_stmt 0 view .LVU624
 1791 066a 488A     		ldrh	r0, [r1, #18]
 1792              		.loc 1 451 24 view .LVU625
 1793 066c 5768     		ldr	r7, [r2, #4]
 1794              	.LVL113:
 1795              		.loc 1 451 24 view .LVU626
 1796 066e B7FBF0F3 		udiv	r3, r7, r0
 1797 0672 00FB1373 		mls	r3, r0, r3, r7
 1798              		.loc 1 451 10 view .LVU627
 1799 0676 1BB9     		cbnz	r3, .L110
 1800              		.loc 1 452 15 view .LVU628
 1801 0678 1068     		ldr	r0, [r2]
 1802              		.loc 1 452 29 view .LVU629
 1803 067a 1369     		ldr	r3, [r2, #16]
 1804              		.loc 1 451 60 view .LVU630
 1805 067c 9842     		cmp	r0, r3
 1806 067e 21D3     		bcc	.L129
 1807              	.L110:
 1808              		.loc 1 463 5 is_stmt 1 view .LVU631
 1809 0680 0122     		movs	r2, #1
 1810 0682 6B89     		ldrh	r3, [r5, #10]
 1811 0684 CF68     		ldr	r7, [r1, #12]
 1812 0686 B240     		lsls	r2, r2, r6
 1813 0688 23EA0203 		bic	r3, r3, r2
 1814 068c 6B81     		strh	r3, [r5, #10]	@ movhi
 1815              		.loc 1 463 5 view .LVU632
 1816 068e 17B1     		cbz	r7, .L111
 1817              		.loc 1 463 5 view .LVU633
ARM GAS  /tmp/ccfraM8n.s 			page 33


 1818 0690 3146     		mov	r1, r6
 1819              	.LVL114:
 1820              		.loc 1 463 5 is_stmt 0 view .LVU634
 1821 0692 1348     		ldr	r0, .L130
 1822 0694 B847     		blx	r7
 1823              	.LVL115:
 1824              	.L111:
 1825              		.loc 1 463 5 is_stmt 1 view .LVU635
 1826              	.LBB367:
 1827              	.LBI367:
 1828              		.loc 2 531 20 view .LVU636
 1829              	.LBE367:
 1830              	.LBE366:
 1831              		.loc 2 533 3 view .LVU637
 1832              	.LBB439:
 1833              	.LBB379:
 1834              	.LBB368:
 1835              	.LBI368:
 1836              		.file 3 "../../../external/ChibiOS/os/rt/include/chsys.h"
 1837              		.loc 3 393 20 view .LVU638
 1838              	.LBE368:
 1839              	.LBE379:
 1840              	.LBE439:
 1841              		.loc 3 395 3 view .LVU639
 1842              	.LBB440:
 1843              	.LBB380:
 1844              	.LBB376:
 1845              	.LBB369:
 1846              	.LBI369:
 1847              		.file 4 "../../../external/ChibiOS/os/common/ports/ARMCMx/chcore_v7m.h"
 1848              		.loc 4 708 27 view .LVU640
 1849              	.LBE369:
 1850              	.LBE376:
 1851              	.LBE380:
 1852              	.LBE440:
 1853              		.loc 4 710 3 view .LVU641
 1854              	.LBB441:
 1855              	.LBB381:
 1856              	.LBB377:
 1857              	.LBB374:
 1858              	.LBB370:
 1859              	.LBI370:
 1860              		.loc 4 669 27 view .LVU642
 1861              	.LBE370:
 1862              	.LBE374:
 1863              	.LBE377:
 1864              	.LBE381:
 1865              	.LBE441:
 1866              		.loc 4 677 3 view .LVU643
 1867              	.LBB442:
 1868              	.LBB382:
 1869              	.LBB378:
 1870              	.LBB375:
 1871              	.LBB373:
 1872              	.LBB371:
 1873              	.LBI371:
 1874              		.file 5 "../../../external/ChibiOS/os/common/ext/ARM/CMSIS/Core/Include/cmsis_gcc.h"
ARM GAS  /tmp/ccfraM8n.s 			page 34


 1875              		.loc 5 491 27 view .LVU644
 1876              	.LBB372:
 1877              		.loc 5 493 3 view .LVU645
 1878 0696 2023     		movs	r3, #32
 1879              		.syntax unified
 1880              	@ 493 "../../../external/ChibiOS/os/common/ext/ARM/CMSIS/Core/Include/cmsis_gcc.h" 1
 1881 0698 83F31188 		MSR basepri, r3
 1882              	@ 0 "" 2
 1883              	.LVL116:
 1884              		.loc 5 493 3 is_stmt 0 view .LVU646
 1885              		.thumb
 1886              		.syntax unified
 1887              	.LBE372:
 1888              	.LBE371:
 1889              	.LBE373:
 1890              	.LBE375:
 1891              	.LBE378:
 1892              	.LBE382:
 1893              	.LBE442:
 1894              		.loc 3 396 34 is_stmt 1 view .LVU647
 1895              		.loc 3 397 29 view .LVU648
 1896              	.LBB443:
 1897              		.loc 1 463 5 view .LVU649
 1898 069c 05EB8405 		add	r5, r5, r4, lsl #2
 1899 06a0 6B68     		ldr	r3, [r5, #4]
 1900 06a2 9869     		ldr	r0, [r3, #24]
 1901              	.LVL117:
 1902              	.LBB383:
 1903              	.LBI383:
 1904              		.loc 2 773 20 view .LVU650
 1905              	.LBB384:
 1906              		.loc 2 775 3 view .LVU651
 1907 06a4 4168     		ldr	r1, [r0, #4]
 1908 06a6 0C30     		adds	r0, r0, #12
 1909              	.LVL118:
 1910              		.loc 2 775 3 is_stmt 0 view .LVU652
 1911 06a8 FFF7FEFF 		bl	chThdResumeI
 1912              	.LVL119:
 1913              		.loc 2 775 3 view .LVU653
 1914              	.LBE384:
 1915              	.LBE383:
 1916              		.loc 1 463 5 is_stmt 1 view .LVU654
 1917              	.LBB385:
 1918              	.LBI385:
 1919              		.loc 2 542 20 view .LVU655
 1920              	.LBE385:
 1921              	.LBE443:
 1922              		.loc 2 544 3 view .LVU656
 1923              	.LBB444:
 1924              	.LBB397:
 1925              	.LBB386:
 1926              	.LBI386:
 1927              		.loc 3 413 20 view .LVU657
 1928              	.LBE386:
 1929              	.LBE397:
 1930              	.LBE444:
 1931              		.loc 3 415 31 view .LVU658
ARM GAS  /tmp/ccfraM8n.s 			page 35


 1932              		.loc 3 416 33 view .LVU659
 1933              		.loc 3 417 3 view .LVU660
 1934              	.LBB445:
 1935              	.LBB398:
 1936              	.LBB394:
 1937              	.LBB387:
 1938              	.LBI387:
 1939              		.loc 4 719 27 view .LVU661
 1940              	.LBE387:
 1941              	.LBE394:
 1942              	.LBE398:
 1943              	.LBE445:
 1944              		.loc 4 721 3 view .LVU662
 1945              	.LBB446:
 1946              	.LBB399:
 1947              	.LBB395:
 1948              	.LBB392:
 1949              	.LBB388:
 1950              	.LBI388:
 1951              		.loc 4 693 27 view .LVU663
 1952              	.LBE388:
 1953              	.LBE392:
 1954              	.LBE395:
 1955              	.LBE399:
 1956              	.LBE446:
 1957              		.loc 4 696 3 view .LVU664
 1958              	.LBB447:
 1959              	.LBB400:
 1960              	.LBB396:
 1961              	.LBB393:
 1962              	.LBB391:
 1963              	.LBB389:
 1964              	.LBI389:
 1965              		.loc 5 491 27 view .LVU665
 1966              	.LBB390:
 1967              		.loc 5 493 3 view .LVU666
 1968 06ac 0023     		movs	r3, #0
 1969              		.syntax unified
 1970              	@ 493 "../../../external/ChibiOS/os/common/ext/ARM/CMSIS/Core/Include/cmsis_gcc.h" 1
 1971 06ae 83F31188 		MSR basepri, r3
 1972              	@ 0 "" 2
 1973              	.LVL120:
 1974              		.loc 5 493 3 is_stmt 0 view .LVU667
 1975              		.thumb
 1976              		.syntax unified
 1977              	.LBE390:
 1978              	.LBE389:
 1979              	.LBE391:
 1980              	.LBE393:
 1981              	.LBE396:
 1982              	.LBE400:
 1983              		.loc 1 463 37 is_stmt 1 view .LVU668
 1984              	.L107:
 1985              		.loc 1 463 37 is_stmt 0 view .LVU669
 1986              	.LBE447:
 1987              		.loc 1 465 1 view .LVU670
 1988 06b2 F8BD     		pop	{r3, r4, r5, r6, r7, pc}
ARM GAS  /tmp/ccfraM8n.s 			page 36


 1989              	.LVL121:
 1990              	.L128:
 1991              		.loc 1 427 5 is_stmt 1 view .LVU671
 1992 06b4 05EB8603 		add	r3, r5, r6, lsl #2
 1993 06b8 3146     		mov	r1, r6
 1994 06ba 2846     		mov	r0, r5
 1995 06bc DB68     		ldr	r3, [r3, #12]
 1996 06be 5B68     		ldr	r3, [r3, #4]
 1997 06c0 9847     		blx	r3
 1998              	.LVL122:
 1999 06c2 C6E7     		b	.L108
 2000              	.LVL123:
 2001              	.L129:
 2002              	.LBB448:
 2003              		.loc 1 453 9 view .LVU672
 2004              		.loc 1 453 36 is_stmt 0 view .LVU673
 2005 06c4 1B1A     		subs	r3, r3, r0
 2006              		.loc 1 454 21 view .LVU674
 2007 06c6 5660     		str	r6, [r2, #4]
 2008              	.LBB401:
 2009              	.LBB402:
 2010              	.LBB403:
 2011              	.LBB404:
 2012              	.LBB405:
 2013              	.LBB406:
 2014              		.loc 5 493 3 view .LVU675
 2015 06c8 2021     		movs	r1, #32
 2016              	.LBE406:
 2017              	.LBE405:
 2018              	.LBE404:
 2019              	.LBE403:
 2020              	.LBE402:
 2021              	.LBE401:
 2022              		.loc 1 453 21 view .LVU676
 2023 06ca 1360     		str	r3, [r2]
 2024              		.loc 1 454 9 is_stmt 1 view .LVU677
 2025              		.loc 1 455 9 view .LVU678
 2026              	.LBB418:
 2027              	.LBI401:
 2028              		.loc 2 531 20 view .LVU679
 2029              	.LBE418:
 2030              	.LBE448:
 2031              		.loc 2 533 3 view .LVU680
 2032              	.LBB449:
 2033              	.LBB419:
 2034              	.LBB414:
 2035              	.LBI402:
 2036              		.loc 3 393 20 view .LVU681
 2037              	.LBE414:
 2038              	.LBE419:
 2039              	.LBE449:
 2040              		.loc 3 395 3 view .LVU682
 2041              	.LBB450:
 2042              	.LBB420:
 2043              	.LBB415:
 2044              	.LBB411:
 2045              	.LBI403:
ARM GAS  /tmp/ccfraM8n.s 			page 37


 2046              		.loc 4 708 27 view .LVU683
 2047              	.LBE411:
 2048              	.LBE415:
 2049              	.LBE420:
 2050              	.LBE450:
 2051              		.loc 4 710 3 view .LVU684
 2052              	.LBB451:
 2053              	.LBB421:
 2054              	.LBB416:
 2055              	.LBB412:
 2056              	.LBB409:
 2057              	.LBI404:
 2058              		.loc 4 669 27 view .LVU685
 2059              	.LBE409:
 2060              	.LBE412:
 2061              	.LBE416:
 2062              	.LBE421:
 2063              	.LBE451:
 2064              		.loc 4 677 3 view .LVU686
 2065              	.LVL124:
 2066              	.LBB452:
 2067              	.LBB422:
 2068              	.LBB417:
 2069              	.LBB413:
 2070              	.LBB410:
 2071              	.LBB408:
 2072              	.LBI405:
 2073              		.loc 5 491 27 view .LVU687
 2074              	.LBB407:
 2075              		.loc 5 493 3 view .LVU688
 2076              		.syntax unified
 2077              	@ 493 "../../../external/ChibiOS/os/common/ext/ARM/CMSIS/Core/Include/cmsis_gcc.h" 1
 2078 06cc 81F31188 		MSR basepri, r1
 2079              	@ 0 "" 2
 2080              	.LVL125:
 2081              		.loc 5 493 3 is_stmt 0 view .LVU689
 2082              		.thumb
 2083              		.syntax unified
 2084              	.LBE407:
 2085              	.LBE408:
 2086              	.LBE410:
 2087              	.LBE413:
 2088              	.LBE417:
 2089              	.LBE422:
 2090              	.LBE452:
 2091              		.loc 3 396 34 is_stmt 1 view .LVU690
 2092              		.loc 3 397 29 view .LVU691
 2093              	.LBB453:
 2094              		.loc 1 456 9 view .LVU692
 2095 06d0 0348     		ldr	r0, .L130
 2096 06d2 3146     		mov	r1, r6
 2097 06d4 FFF7FEFF 		bl	usb_lld_start_out
 2098              	.LVL126:
 2099              		.loc 1 457 9 view .LVU693
 2100              	.LBB423:
 2101              	.LBI423:
 2102              		.loc 2 542 20 view .LVU694
ARM GAS  /tmp/ccfraM8n.s 			page 38


 2103              	.LBE423:
 2104              	.LBE453:
 2105              		.loc 2 544 3 view .LVU695
 2106              	.LBB454:
 2107              	.LBB435:
 2108              	.LBB424:
 2109              	.LBI424:
 2110              		.loc 3 413 20 view .LVU696
 2111              	.LBE424:
 2112              	.LBE435:
 2113              	.LBE454:
 2114              		.loc 3 415 31 view .LVU697
 2115              		.loc 3 416 33 view .LVU698
 2116              		.loc 3 417 3 view .LVU699
 2117              	.LBB455:
 2118              	.LBB436:
 2119              	.LBB432:
 2120              	.LBB425:
 2121              	.LBI425:
 2122              		.loc 4 719 27 view .LVU700
 2123              	.LBE425:
 2124              	.LBE432:
 2125              	.LBE436:
 2126              	.LBE455:
 2127              		.loc 4 721 3 view .LVU701
 2128              	.LBB456:
 2129              	.LBB437:
 2130              	.LBB433:
 2131              	.LBB430:
 2132              	.LBB426:
 2133              	.LBI426:
 2134              		.loc 4 693 27 view .LVU702
 2135              	.LBE426:
 2136              	.LBE430:
 2137              	.LBE433:
 2138              	.LBE437:
 2139              	.LBE456:
 2140              		.loc 4 696 3 view .LVU703
 2141              	.LBB457:
 2142              	.LBB438:
 2143              	.LBB434:
 2144              	.LBB431:
 2145              	.LBB429:
 2146              	.LBB427:
 2147              	.LBI427:
 2148              		.loc 5 491 27 view .LVU704
 2149              	.LBB428:
 2150              		.loc 5 493 3 view .LVU705
 2151              		.syntax unified
 2152              	@ 493 "../../../external/ChibiOS/os/common/ext/ARM/CMSIS/Core/Include/cmsis_gcc.h" 1
 2153 06d8 86F31188 		MSR basepri, r6
 2154              	@ 0 "" 2
 2155              	.LVL127:
 2156              		.loc 5 493 3 is_stmt 0 view .LVU706
 2157              		.thumb
 2158              		.syntax unified
 2159              	.LBE428:
ARM GAS  /tmp/ccfraM8n.s 			page 39


 2160              	.LBE427:
 2161              	.LBE429:
 2162              	.LBE431:
 2163              	.LBE434:
 2164              	.LBE438:
 2165              		.loc 1 458 9 is_stmt 1 view .LVU707
 2166              	.LBE457:
 2167              		.loc 1 465 1 is_stmt 0 view .LVU708
 2168 06dc F8BD     		pop	{r3, r4, r5, r6, r7, pc}
 2169              	.L131:
 2170 06de 00BF     		.align	2
 2171              	.L130:
 2172 06e0 00000000 		.word	USBD1
 2173              		.cfi_endproc
 2174              	.LFE403:
 2175              		.size	otg_epout_handler.constprop.9, .-otg_epout_handler.constprop.9
 2176              		.align	1
 2177 06e4 AFF30080 		.p2align 4,,15
 2177      AFF30080 
 2177      AFF30080 
 2178              		.global	usb_lld_start_in
 2179              		.syntax unified
 2180              		.thumb
 2181              		.thumb_func
 2182              		.fpu fpv4-sp-d16
 2183              		.type	usb_lld_start_in, %function
 2184              	usb_lld_start_in:
 2185              	.LVL128:
 2186              	.LFB389:
 2187              		.loc 1 1176 52 is_stmt 1 view -0
 2188              		.cfi_startproc
 2189              		@ args = 0, pretend = 0, frame = 0
 2190              		@ frame_needed = 0, uses_anonymous_args = 0
 2191              		@ link register save eliminated.
 2192              		.loc 1 1177 3 view .LVU710
 2193              		.loc 1 1177 38 is_stmt 0 view .LVU711
 2194 06f0 00EB8103 		add	r3, r0, r1, lsl #2
 2195 06f4 D0F89020 		ldr	r2, [r0, #144]
 2196 06f8 D868     		ldr	r0, [r3, #12]
 2197              	.LVL129:
 2198              		.loc 1 1176 52 view .LVU712
 2199 06fa 70B4     		push	{r4, r5, r6}
 2200              		.cfi_def_cfa_offset 12
 2201              		.cfi_offset 4, -12
 2202              		.cfi_offset 5, -8
 2203              		.cfi_offset 6, -4
 2204              		.loc 1 1177 23 view .LVU713
 2205 06fc 4469     		ldr	r4, [r0, #20]
 2206              	.LVL130:
 2207              		.loc 1 1180 3 is_stmt 1 view .LVU714
 2208              		.loc 1 1180 21 is_stmt 0 view .LVU715
 2209 06fe 2368     		ldr	r3, [r4]
 2210              		.loc 1 1180 16 view .LVU716
 2211 0700 2361     		str	r3, [r4, #16]
 2212              		.loc 1 1181 3 is_stmt 1 view .LVU717
 2213              		.loc 1 1181 6 is_stmt 0 view .LVU718
 2214 0702 E3B9     		cbnz	r3, .L133
ARM GAS  /tmp/ccfraM8n.s 			page 40


 2215              		.loc 1 1183 5 is_stmt 1 view .LVU719
 2216              		.loc 1 1183 32 is_stmt 0 view .LVU720
 2217 0704 02EB4113 		add	r3, r2, r1, lsl #5
 2218 0708 4FF40024 		mov	r4, #524288
 2219              	.LVL131:
 2220              		.loc 1 1183 32 view .LVU721
 2221 070c C3F81049 		str	r4, [r3, #2320]
 2222              		.loc 1 1198 3 is_stmt 1 view .LVU722
 2223              		.loc 1 1198 31 is_stmt 0 view .LVU723
 2224 0710 0368     		ldr	r3, [r0]
 2225 0712 03F00303 		and	r3, r3, #3
 2226              		.loc 1 1198 6 view .LVU724
 2227 0716 012B     		cmp	r3, #1
 2228 0718 26D0     		beq	.L145
 2229              	.L148:
 2230 071a 08B2     		sxth	r0, r1
 2231              	.LVL132:
 2232              	.L136:
 2233              		.loc 1 1207 3 is_stmt 1 view .LVU725
 2234 071c 02EB4010 		add	r0, r2, r0, lsl #5
 2235              		.loc 1 1208 28 is_stmt 0 view .LVU726
 2236 0720 0123     		movs	r3, #1
 2237              		.loc 1 1207 29 view .LVU727
 2238 0722 D0F80049 		ldr	r4, [r0, #2304]
 2239              		.loc 1 1208 28 view .LVU728
 2240 0726 8B40     		lsls	r3, r3, r1
 2241              		.loc 1 1207 29 view .LVU729
 2242 0728 44F00444 		orr	r4, r4, #-2080374784
 2243 072c C0F80049 		str	r4, [r0, #2304]
 2244              		.loc 1 1208 3 is_stmt 1 view .LVU730
 2245              		.loc 1 1208 25 is_stmt 0 view .LVU731
 2246 0730 D2F83418 		ldr	r1, [r2, #2100]
 2247              	.LVL133:
 2248              		.loc 1 1208 25 view .LVU732
 2249 0734 0B43     		orrs	r3, r3, r1
 2250              		.loc 1 1209 1 view .LVU733
 2251 0736 70BC     		pop	{r4, r5, r6}
 2252              		.cfi_remember_state
 2253              		.cfi_restore 6
 2254              		.cfi_restore 5
 2255              		.cfi_restore 4
 2256              		.cfi_def_cfa_offset 0
 2257              		.loc 1 1208 25 view .LVU734
 2258 0738 C2F83438 		str	r3, [r2, #2100]
 2259              		.loc 1 1209 1 view .LVU735
 2260 073c 7047     		bx	lr
 2261              	.LVL134:
 2262              	.L133:
 2263              		.cfi_restore_state
 2264              	.LBB458:
 2265              		.loc 1 1186 5 is_stmt 1 discriminator 1 view .LVU736
 2266              		.loc 1 1186 19 is_stmt 0 discriminator 1 view .LVU737
 2267 073e 09B9     		cbnz	r1, .L135
 2268 0740 402B     		cmp	r3, #64
 2269 0742 22D8     		bhi	.L147
 2270              	.L135:
 2271              		.loc 1 1190 5 is_stmt 1 view .LVU738
ARM GAS  /tmp/ccfraM8n.s 			page 41


 2272              		.loc 1 1190 49 is_stmt 0 view .LVU739
 2273 0744 068A     		ldrh	r6, [r0, #16]
 2274              	.LVL135:
 2275              		.loc 1 1193 5 is_stmt 1 view .LVU740
 2276              		.loc 1 1193 32 is_stmt 0 view .LVU741
 2277 0746 02EB4115 		add	r5, r2, r1, lsl #5
 2278              		.loc 1 1190 62 view .LVU742
 2279 074a 741E     		subs	r4, r6, #1
 2280              	.LVL136:
 2281              		.loc 1 1190 62 view .LVU743
 2282 074c 1C44     		add	r4, r4, r3
 2283              		.loc 1 1190 14 view .LVU744
 2284 074e B4FBF6F4 		udiv	r4, r4, r6
 2285              		.loc 1 1193 75 view .LVU745
 2286 0752 43EAC443 		orr	r3, r3, r4, lsl #19
 2287              	.LVL137:
 2288              		.loc 1 1193 75 view .LVU746
 2289 0756 43F00053 		orr	r3, r3, #536870912
 2290              		.loc 1 1193 32 view .LVU747
 2291 075a C5F81039 		str	r3, [r5, #2320]
 2292              	.LBE458:
 2293              		.loc 1 1198 3 is_stmt 1 view .LVU748
 2294              		.loc 1 1198 31 is_stmt 0 view .LVU749
 2295 075e 0368     		ldr	r3, [r0]
 2296 0760 03F00303 		and	r3, r3, #3
 2297              		.loc 1 1198 6 view .LVU750
 2298 0764 012B     		cmp	r3, #1
 2299 0766 D8D1     		bne	.L148
 2300              	.L145:
 2301              		.loc 1 1200 5 is_stmt 1 view .LVU751
 2302              		.loc 1 1201 7 view .LVU752
 2303              		.loc 1 1203 7 view .LVU753
 2304 0768 08B2     		sxth	r0, r1
 2305              	.LVL138:
 2306              		.loc 1 1200 18 is_stmt 0 view .LVU754
 2307 076a D2F80838 		ldr	r3, [r2, #2056]
 2308 076e 02EB4014 		add	r4, r2, r0, lsl #5
 2309              		.loc 1 1200 8 view .LVU755
 2310 0772 13F4807F 		tst	r3, #256
 2311              		.loc 1 1201 33 view .LVU756
 2312 0776 D4F80039 		ldr	r3, [r4, #2304]
 2313 077a 14BF     		ite	ne
 2314 077c 43F08053 		orrne	r3, r3, #268435456
 2315              		.loc 1 1203 33 view .LVU757
 2316 0780 43F00053 		orreq	r3, r3, #536870912
 2317 0784 C4F80039 		str	r3, [r4, #2304]
 2318 0788 C8E7     		b	.L136
 2319              	.LVL139:
 2320              	.L147:
 2321              	.LBB459:
 2322              		.loc 1 1187 7 is_stmt 1 view .LVU758
 2323              		.loc 1 1187 19 is_stmt 0 view .LVU759
 2324 078a 4025     		movs	r5, #64
 2325 078c 2B46     		mov	r3, r5
 2326 078e 2560     		str	r5, [r4]
 2327 0790 D8E7     		b	.L135
 2328              	.LBE459:
ARM GAS  /tmp/ccfraM8n.s 			page 42


 2329              		.cfi_endproc
 2330              	.LFE389:
 2331              		.size	usb_lld_start_in, .-usb_lld_start_in
 2332              		.align	1
 2333 0792 00BFAFF3 		.p2align 4,,15
 2333      0080AFF3 
 2333      0080AFF3 
 2333      0080
 2334              		.syntax unified
 2335              		.thumb
 2336              		.thumb_func
 2337              		.fpu fpv4-sp-d16
 2338              		.type	otg_epin_handler.constprop.10, %function
 2339              	otg_epin_handler.constprop.10:
 2340              	.LVL140:
 2341              	.LFB402:
 2342              		.loc 1 374 13 is_stmt 1 view -0
 2343              		.cfi_startproc
 2344              		@ args = 0, pretend = 0, frame = 0
 2345              		@ frame_needed = 0, uses_anonymous_args = 0
 2346              		.loc 1 375 3 view .LVU761
 2347              		.loc 1 374 13 is_stmt 0 view .LVU762
 2348 07a0 2DE9F843 		push	{r3, r4, r5, r6, r7, r8, r9, lr}
 2349              		.cfi_def_cfa_offset 32
 2350              		.cfi_offset 3, -32
 2351              		.cfi_offset 4, -28
 2352              		.cfi_offset 5, -24
 2353              		.cfi_offset 6, -20
 2354              		.cfi_offset 7, -16
 2355              		.cfi_offset 8, -12
 2356              		.cfi_offset 9, -8
 2357              		.cfi_offset 14, -4
 2358              		.loc 1 375 16 view .LVU763
 2359 07a4 2A4D     		ldr	r5, .L173
 2360              		.loc 1 374 13 view .LVU764
 2361 07a6 0646     		mov	r6, r0
 2362              		.loc 1 375 16 view .LVU765
 2363 07a8 D5F89070 		ldr	r7, [r5, #144]
 2364              	.LVL141:
 2365              		.loc 1 376 3 is_stmt 1 view .LVU766
 2366              		.loc 1 376 12 is_stmt 0 view .LVU767
 2367 07ac 07EB4013 		add	r3, r7, r0, lsl #5
 2368 07b0 D3F80849 		ldr	r4, [r3, #2312]
 2369              	.LVL142:
 2370              		.loc 1 378 3 is_stmt 1 view .LVU768
 2371              		.loc 1 383 6 is_stmt 0 view .LVU769
 2372 07b4 E107     		lsls	r1, r4, #31
 2373              		.loc 1 378 24 view .LVU770
 2374 07b6 C3F80849 		str	r4, [r3, #2312]
 2375              		.loc 1 380 3 is_stmt 1 view .LVU771
 2376              		.loc 1 382 3 view .LVU772
 2377              		.loc 1 383 3 view .LVU773
 2378              		.loc 1 383 6 is_stmt 0 view .LVU774
 2379 07ba 03D5     		bpl	.L150
 2380              		.loc 1 383 38 view .LVU775
 2381 07bc D7F81038 		ldr	r3, [r7, #2064]
 2382              		.loc 1 383 30 view .LVU776
ARM GAS  /tmp/ccfraM8n.s 			page 43


 2383 07c0 DA07     		lsls	r2, r3, #31
 2384 07c2 09D4     		bmi	.L170
 2385              	.LVL143:
 2386              	.L150:
 2387              	.LBB460:
 2388              		.loc 1 399 38 is_stmt 1 view .LVU777
 2389              	.LBE460:
 2390              		.loc 1 402 3 view .LVU778
 2391              		.loc 1 402 6 is_stmt 0 view .LVU779
 2392 07c4 2306     		lsls	r3, r4, #24
 2393 07c6 05D5     		bpl	.L149
 2394              		.loc 1 403 27 view .LVU780
 2395 07c8 0123     		movs	r3, #1
 2396              		.loc 1 403 12 view .LVU781
 2397 07ca D7F83428 		ldr	r2, [r7, #2100]
 2398              		.loc 1 403 27 view .LVU782
 2399 07ce B340     		lsls	r3, r3, r6
 2400              		.loc 1 402 30 view .LVU783
 2401 07d0 1342     		tst	r3, r2
 2402 07d2 28D1     		bne	.L171
 2403              	.L149:
 2404              		.loc 1 407 1 view .LVU784
 2405 07d4 BDE8F883 		pop	{r3, r4, r5, r6, r7, r8, r9, pc}
 2406              	.LVL144:
 2407              	.L170:
 2408              	.LBB537:
 2409              		.loc 1 385 5 is_stmt 1 view .LVU785
 2410              		.loc 1 385 40 is_stmt 0 view .LVU786
 2411 07d8 00F10208 		add	r8, r0, #2
 2412 07dc 05EB8803 		add	r3, r5, r8, lsl #2
 2413 07e0 5968     		ldr	r1, [r3, #4]
 2414              		.loc 1 385 25 view .LVU787
 2415 07e2 4B69     		ldr	r3, [r1, #20]
 2416              	.LVL145:
 2417              		.loc 1 387 5 is_stmt 1 view .LVU788
 2418              		.loc 1 387 12 is_stmt 0 view .LVU789
 2419 07e4 1868     		ldr	r0, [r3]
 2420              	.LVL146:
 2421              		.loc 1 387 26 view .LVU790
 2422 07e6 1A69     		ldr	r2, [r3, #16]
 2423              		.loc 1 387 8 view .LVU791
 2424 07e8 9042     		cmp	r0, r2
 2425 07ea 21D3     		bcc	.L172
 2426              		.loc 1 399 7 is_stmt 1 view .LVU792
 2427 07ec 0122     		movs	r2, #1
 2428 07ee 2B89     		ldrh	r3, [r5, #8]
 2429              	.LVL147:
 2430              		.loc 1 399 7 is_stmt 0 view .LVU793
 2431 07f0 D1F80890 		ldr	r9, [r1, #8]
 2432 07f4 B240     		lsls	r2, r2, r6
 2433 07f6 23EA0203 		bic	r3, r3, r2
 2434 07fa 2B81     		strh	r3, [r5, #8]	@ movhi
 2435              		.loc 1 399 7 is_stmt 1 view .LVU794
 2436 07fc B9F1000F 		cmp	r9, #0
 2437 0800 02D0     		beq	.L152
 2438              		.loc 1 399 7 view .LVU795
 2439 0802 3146     		mov	r1, r6
ARM GAS  /tmp/ccfraM8n.s 			page 44


 2440              	.LVL148:
 2441              		.loc 1 399 7 is_stmt 0 view .LVU796
 2442 0804 2846     		mov	r0, r5
 2443 0806 C847     		blx	r9
 2444              	.LVL149:
 2445              	.L152:
 2446              		.loc 1 399 7 is_stmt 1 view .LVU797
 2447              	.LBB461:
 2448              	.LBI461:
 2449              		.loc 2 531 20 view .LVU798
 2450              	.LBE461:
 2451              	.LBE537:
 2452              		.loc 2 533 3 view .LVU799
 2453              	.LBB538:
 2454              	.LBB473:
 2455              	.LBB462:
 2456              	.LBI462:
 2457              		.loc 3 393 20 view .LVU800
 2458              	.LBE462:
 2459              	.LBE473:
 2460              	.LBE538:
 2461              		.loc 3 395 3 view .LVU801
 2462              	.LBB539:
 2463              	.LBB474:
 2464              	.LBB470:
 2465              	.LBB463:
 2466              	.LBI463:
 2467              		.loc 4 708 27 view .LVU802
 2468              	.LBE463:
 2469              	.LBE470:
 2470              	.LBE474:
 2471              	.LBE539:
 2472              		.loc 4 710 3 view .LVU803
 2473              	.LBB540:
 2474              	.LBB475:
 2475              	.LBB471:
 2476              	.LBB468:
 2477              	.LBB464:
 2478              	.LBI464:
 2479              		.loc 4 669 27 view .LVU804
 2480              	.LBE464:
 2481              	.LBE468:
 2482              	.LBE471:
 2483              	.LBE475:
 2484              	.LBE540:
 2485              		.loc 4 677 3 view .LVU805
 2486              	.LBB541:
 2487              	.LBB476:
 2488              	.LBB472:
 2489              	.LBB469:
 2490              	.LBB467:
 2491              	.LBB465:
 2492              	.LBI465:
 2493              		.loc 5 491 27 view .LVU806
 2494              	.LBB466:
 2495              		.loc 5 493 3 view .LVU807
 2496 0808 2023     		movs	r3, #32
ARM GAS  /tmp/ccfraM8n.s 			page 45


 2497              		.syntax unified
 2498              	@ 493 "../../../external/ChibiOS/os/common/ext/ARM/CMSIS/Core/Include/cmsis_gcc.h" 1
 2499 080a 83F31188 		MSR basepri, r3
 2500              	@ 0 "" 2
 2501              	.LVL150:
 2502              		.loc 5 493 3 is_stmt 0 view .LVU808
 2503              		.thumb
 2504              		.syntax unified
 2505              	.LBE466:
 2506              	.LBE465:
 2507              	.LBE467:
 2508              	.LBE469:
 2509              	.LBE472:
 2510              	.LBE476:
 2511              	.LBE541:
 2512              		.loc 3 396 34 is_stmt 1 view .LVU809
 2513              		.loc 3 397 29 view .LVU810
 2514              	.LBB542:
 2515              		.loc 1 399 7 view .LVU811
 2516              	.LBB477:
 2517              	.LBI477:
 2518              		.loc 2 773 20 view .LVU812
 2519              	.LBB478:
 2520              		.loc 2 775 3 view .LVU813
 2521              	.LBE478:
 2522              	.LBE477:
 2523              		.loc 1 399 7 is_stmt 0 view .LVU814
 2524 080e 05EB8805 		add	r5, r5, r8, lsl #2
 2525              	.LBB481:
 2526              	.LBB479:
 2527              		.loc 2 775 3 view .LVU815
 2528 0812 0021     		movs	r1, #0
 2529              	.LBE479:
 2530              	.LBE481:
 2531              		.loc 1 399 7 view .LVU816
 2532 0814 6B68     		ldr	r3, [r5, #4]
 2533 0816 5869     		ldr	r0, [r3, #20]
 2534              	.LBB482:
 2535              	.LBB480:
 2536              		.loc 2 775 3 view .LVU817
 2537 0818 0C30     		adds	r0, r0, #12
 2538 081a FFF7FEFF 		bl	chThdResumeI
 2539              	.LVL151:
 2540              		.loc 2 775 3 view .LVU818
 2541              	.LBE480:
 2542              	.LBE482:
 2543              		.loc 1 399 7 is_stmt 1 view .LVU819
 2544              	.LBB483:
 2545              	.LBI483:
 2546              		.loc 2 542 20 view .LVU820
 2547              	.LBE483:
 2548              	.LBE542:
 2549              		.loc 2 544 3 view .LVU821
 2550              	.LBB543:
 2551              	.LBB495:
 2552              	.LBB484:
 2553              	.LBI484:
ARM GAS  /tmp/ccfraM8n.s 			page 46


 2554              		.loc 3 413 20 view .LVU822
 2555              	.LBE484:
 2556              	.LBE495:
 2557              	.LBE543:
 2558              		.loc 3 415 31 view .LVU823
 2559              		.loc 3 416 33 view .LVU824
 2560              		.loc 3 417 3 view .LVU825
 2561              	.LBB544:
 2562              	.LBB496:
 2563              	.LBB492:
 2564              	.LBB485:
 2565              	.LBI485:
 2566              		.loc 4 719 27 view .LVU826
 2567              	.LBE485:
 2568              	.LBE492:
 2569              	.LBE496:
 2570              	.LBE544:
 2571              		.loc 4 721 3 view .LVU827
 2572              	.LBB545:
 2573              	.LBB497:
 2574              	.LBB493:
 2575              	.LBB490:
 2576              	.LBB486:
 2577              	.LBI486:
 2578              		.loc 4 693 27 view .LVU828
 2579              	.LBE486:
 2580              	.LBE490:
 2581              	.LBE493:
 2582              	.LBE497:
 2583              	.LBE545:
 2584              		.loc 4 696 3 view .LVU829
 2585              	.LBB546:
 2586              	.LBB498:
 2587              	.LBB494:
 2588              	.LBB491:
 2589              	.LBB489:
 2590              	.LBB487:
 2591              	.LBI487:
 2592              		.loc 5 491 27 view .LVU830
 2593              	.LBB488:
 2594              		.loc 5 493 3 view .LVU831
 2595 081e 0023     		movs	r3, #0
 2596              		.syntax unified
 2597              	@ 493 "../../../external/ChibiOS/os/common/ext/ARM/CMSIS/Core/Include/cmsis_gcc.h" 1
 2598 0820 83F31188 		MSR basepri, r3
 2599              	@ 0 "" 2
 2600              	.LVL152:
 2601              		.loc 5 493 3 is_stmt 0 view .LVU832
 2602              		.thumb
 2603              		.syntax unified
 2604 0824 CEE7     		b	.L150
 2605              	.L171:
 2606              		.loc 5 493 3 view .LVU833
 2607              	.LBE488:
 2608              	.LBE487:
 2609              	.LBE489:
 2610              	.LBE491:
ARM GAS  /tmp/ccfraM8n.s 			page 47


 2611              	.LBE494:
 2612              	.LBE498:
 2613              	.LBE546:
 2614              		.loc 1 405 5 is_stmt 1 view .LVU834
 2615 0826 3046     		mov	r0, r6
 2616              		.loc 1 407 1 is_stmt 0 view .LVU835
 2617 0828 BDE8F843 		pop	{r3, r4, r5, r6, r7, r8, r9, lr}
 2618              		.cfi_remember_state
 2619              		.cfi_restore 14
 2620              		.cfi_restore 9
 2621              		.cfi_restore 8
 2622              		.cfi_restore 7
 2623              		.cfi_restore 6
 2624              		.cfi_restore 5
 2625              		.cfi_restore 4
 2626              		.cfi_restore 3
 2627              		.cfi_def_cfa_offset 0
 2628              	.LVL153:
 2629              		.loc 1 405 5 view .LVU836
 2630 082c FFF7E8BB 		b	otg_txfifo_handler.constprop.11
 2631              	.LVL154:
 2632              	.L172:
 2633              		.cfi_restore_state
 2634              	.LBB547:
 2635              		.loc 1 391 7 is_stmt 1 view .LVU837
 2636              		.loc 1 391 34 is_stmt 0 view .LVU838
 2637 0830 121A     		subs	r2, r2, r0
 2638              		.loc 1 392 19 view .LVU839
 2639 0832 4FF00008 		mov	r8, #0
 2640              	.LBB499:
 2641              	.LBB500:
 2642              	.LBB501:
 2643              	.LBB502:
 2644              	.LBB503:
 2645              	.LBB504:
 2646              		.loc 5 493 3 view .LVU840
 2647 0836 2021     		movs	r1, #32
 2648              	.LBE504:
 2649              	.LBE503:
 2650              	.LBE502:
 2651              	.LBE501:
 2652              	.LBE500:
 2653              	.LBE499:
 2654              		.loc 1 392 19 view .LVU841
 2655 0838 C3E90028 		strd	r2, r8, [r3]
 2656              		.loc 1 393 7 is_stmt 1 view .LVU842
 2657              	.LBB516:
 2658              	.LBI499:
 2659              		.loc 2 531 20 view .LVU843
 2660              	.LBE516:
 2661              	.LBE547:
 2662              		.loc 2 533 3 view .LVU844
 2663              	.LBB548:
 2664              	.LBB517:
 2665              	.LBB512:
 2666              	.LBI500:
 2667              		.loc 3 393 20 view .LVU845
ARM GAS  /tmp/ccfraM8n.s 			page 48


 2668              	.LBE512:
 2669              	.LBE517:
 2670              	.LBE548:
 2671              		.loc 3 395 3 view .LVU846
 2672              	.LBB549:
 2673              	.LBB518:
 2674              	.LBB513:
 2675              	.LBB509:
 2676              	.LBI501:
 2677              		.loc 4 708 27 view .LVU847
 2678              	.LBE509:
 2679              	.LBE513:
 2680              	.LBE518:
 2681              	.LBE549:
 2682              		.loc 4 710 3 view .LVU848
 2683              	.LBB550:
 2684              	.LBB519:
 2685              	.LBB514:
 2686              	.LBB510:
 2687              	.LBB507:
 2688              	.LBI502:
 2689              		.loc 4 669 27 view .LVU849
 2690              	.LBE507:
 2691              	.LBE510:
 2692              	.LBE514:
 2693              	.LBE519:
 2694              	.LBE550:
 2695              		.loc 4 677 3 view .LVU850
 2696              	.LVL155:
 2697              	.LBB551:
 2698              	.LBB520:
 2699              	.LBB515:
 2700              	.LBB511:
 2701              	.LBB508:
 2702              	.LBB506:
 2703              	.LBI503:
 2704              		.loc 5 491 27 view .LVU851
 2705              	.LBB505:
 2706              		.loc 5 493 3 view .LVU852
 2707              		.syntax unified
 2708              	@ 493 "../../../external/ChibiOS/os/common/ext/ARM/CMSIS/Core/Include/cmsis_gcc.h" 1
 2709 083c 81F31188 		MSR basepri, r1
 2710              	@ 0 "" 2
 2711              	.LVL156:
 2712              		.loc 5 493 3 is_stmt 0 view .LVU853
 2713              		.thumb
 2714              		.syntax unified
 2715              	.LBE505:
 2716              	.LBE506:
 2717              	.LBE508:
 2718              	.LBE511:
 2719              	.LBE515:
 2720              	.LBE520:
 2721              	.LBE551:
 2722              		.loc 3 396 34 is_stmt 1 view .LVU854
 2723              		.loc 3 397 29 view .LVU855
 2724              	.LBB552:
ARM GAS  /tmp/ccfraM8n.s 			page 49


 2725              		.loc 1 394 7 view .LVU856
 2726 0840 2846     		mov	r0, r5
 2727 0842 3146     		mov	r1, r6
 2728 0844 FFF7FEFF 		bl	usb_lld_start_in
 2729              	.LVL157:
 2730              		.loc 1 395 7 view .LVU857
 2731              	.LBB521:
 2732              	.LBI521:
 2733              		.loc 2 542 20 view .LVU858
 2734              	.LBE521:
 2735              	.LBE552:
 2736              		.loc 2 544 3 view .LVU859
 2737              	.LBB553:
 2738              	.LBB533:
 2739              	.LBB522:
 2740              	.LBI522:
 2741              		.loc 3 413 20 view .LVU860
 2742              	.LBE522:
 2743              	.LBE533:
 2744              	.LBE553:
 2745              		.loc 3 415 31 view .LVU861
 2746              		.loc 3 416 33 view .LVU862
 2747              		.loc 3 417 3 view .LVU863
 2748              	.LBB554:
 2749              	.LBB534:
 2750              	.LBB530:
 2751              	.LBB523:
 2752              	.LBI523:
 2753              		.loc 4 719 27 view .LVU864
 2754              	.LBE523:
 2755              	.LBE530:
 2756              	.LBE534:
 2757              	.LBE554:
 2758              		.loc 4 721 3 view .LVU865
 2759              	.LBB555:
 2760              	.LBB535:
 2761              	.LBB531:
 2762              	.LBB528:
 2763              	.LBB524:
 2764              	.LBI524:
 2765              		.loc 4 693 27 view .LVU866
 2766              	.LBE524:
 2767              	.LBE528:
 2768              	.LBE531:
 2769              	.LBE535:
 2770              	.LBE555:
 2771              		.loc 4 696 3 view .LVU867
 2772              	.LBB556:
 2773              	.LBB536:
 2774              	.LBB532:
 2775              	.LBB529:
 2776              	.LBB527:
 2777              	.LBB525:
 2778              	.LBI525:
 2779              		.loc 5 491 27 view .LVU868
 2780              	.LBB526:
 2781              		.loc 5 493 3 view .LVU869
ARM GAS  /tmp/ccfraM8n.s 			page 50


 2782              		.syntax unified
 2783              	@ 493 "../../../external/ChibiOS/os/common/ext/ARM/CMSIS/Core/Include/cmsis_gcc.h" 1
 2784 0848 88F31188 		MSR basepri, r8
 2785              	@ 0 "" 2
 2786              	.LVL158:
 2787              		.loc 5 493 3 is_stmt 0 view .LVU870
 2788              		.thumb
 2789              		.syntax unified
 2790 084c BAE7     		b	.L150
 2791              	.L174:
 2792 084e 00BF     		.align	2
 2793              	.L173:
 2794 0850 00000000 		.word	USBD1
 2795              	.LBE526:
 2796              	.LBE525:
 2797              	.LBE527:
 2798              	.LBE529:
 2799              	.LBE532:
 2800              	.LBE536:
 2801              	.LBE556:
 2802              		.cfi_endproc
 2803              	.LFE402:
 2804              		.size	otg_epin_handler.constprop.10, .-otg_epin_handler.constprop.10
 2805              		.align	1
 2806 0854 AFF30080 		.p2align 4,,15
 2806      AFF30080 
 2806      AFF30080 
 2807              		.global	Vector1D4
 2808              		.syntax unified
 2809              		.thumb
 2810              		.thumb_func
 2811              		.fpu fpv4-sp-d16
 2812              		.type	Vector1D4, %function
 2813              	Vector1D4:
 2814              	.LFB377:
 2815              		.loc 1 681 38 is_stmt 1 view -0
 2816              		.cfi_startproc
 2817              		@ args = 0, pretend = 0, frame = 0
 2818              		@ frame_needed = 0, uses_anonymous_args = 0
 2819              		.loc 1 683 3 view .LVU872
 2820              		.loc 1 683 3 view .LVU873
 2821              		.loc 1 683 3 view .LVU874
 2822              		.loc 1 683 3 view .LVU875
 2823              		.loc 1 683 3 view .LVU876
 2824              		.loc 1 681 38 is_stmt 0 view .LVU877
 2825 0860 2DE9F84F 		push	{r3, r4, r5, r6, r7, r8, r9, r10, fp, lr}
 2826              		.cfi_def_cfa_offset 40
 2827              		.cfi_offset 3, -40
 2828              		.cfi_offset 4, -36
 2829              		.cfi_offset 5, -32
 2830              		.cfi_offset 6, -28
 2831              		.cfi_offset 7, -24
 2832              		.cfi_offset 8, -20
 2833              		.cfi_offset 9, -16
 2834              		.cfi_offset 10, -12
 2835              		.cfi_offset 11, -8
 2836              		.cfi_offset 14, -4
ARM GAS  /tmp/ccfraM8n.s 			page 51


 2837              	.LBB603:
 2838              	.LBB604:
 2839              		.loc 1 533 16 view .LVU878
 2840 0864 C44D     		ldr	r5, .L345
 2841              	.LBE604:
 2842              	.LBE603:
 2843              		.loc 1 683 3 view .LVU879
 2844 0866 C548     		ldr	r0, .L345+4
 2845 0868 FFF7FEFF 		bl	_trace_isr_enter
 2846              	.LVL159:
 2847              		.loc 1 683 22 is_stmt 1 view .LVU880
 2848              		.loc 1 685 3 view .LVU881
 2849              	.LBB763:
 2850              	.LBI603:
 2851              		.loc 1 532 13 view .LVU882
 2852              	.LBB741:
 2853              		.loc 1 533 3 view .LVU883
 2854              		.loc 1 533 16 is_stmt 0 view .LVU884
 2855 086c D5F89070 		ldr	r7, [r5, #144]
 2856              	.LVL160:
 2857              		.loc 1 534 3 is_stmt 1 view .LVU885
 2858              		.loc 1 536 3 view .LVU886
 2859              		.loc 1 536 8 is_stmt 0 view .LVU887
 2860 0870 7C69     		ldr	r4, [r7, #20]
 2861              	.LVL161:
 2862              		.loc 1 537 3 is_stmt 1 view .LVU888
 2863              		.loc 1 537 14 is_stmt 0 view .LVU889
 2864 0872 BB69     		ldr	r3, [r7, #24]
 2865              		.loc 1 537 7 view .LVU890
 2866 0874 1C40     		ands	r4, r4, r3
 2867              	.LVL162:
 2868              		.loc 1 538 3 is_stmt 1 view .LVU891
 2869              		.loc 1 541 6 is_stmt 0 view .LVU892
 2870 0876 14F48058 		ands	r8, r4, #4096
 2871              		.loc 1 538 17 view .LVU893
 2872 087a 7C61     		str	r4, [r7, #20]
 2873              		.loc 1 541 3 is_stmt 1 view .LVU894
 2874              		.loc 1 541 6 is_stmt 0 view .LVU895
 2875 087c 40F06B81 		bne	.L320
 2876              		.loc 1 550 3 is_stmt 1 view .LVU896
 2877              		.loc 1 550 6 is_stmt 0 view .LVU897
 2878 0880 002C     		cmp	r4, #0
 2879 0882 C0F2EB80 		blt	.L321
 2880              		.loc 1 565 3 is_stmt 1 view .LVU898
 2881              		.loc 1 565 6 is_stmt 0 view .LVU899
 2882 0886 2105     		lsls	r1, r4, #20
 2883 0888 2FD5     		bpl	.L180
 2884              	.L343:
 2885              		.loc 1 567 5 is_stmt 1 view .LVU900
 2886              	.LBB605:
 2887              	.LBB606:
 2888              		.loc 1 158 35 is_stmt 0 view .LVU901
 2889 088a D5F89430 		ldr	r3, [r5, #148]
 2890              		.loc 1 158 10 view .LVU902
 2891 088e 0021     		movs	r1, #0
 2892              	.LBE606:
 2893              	.LBE605:
ARM GAS  /tmp/ccfraM8n.s 			page 52


 2894              		.loc 1 567 5 view .LVU903
 2895 0890 D5F89060 		ldr	r6, [r5, #144]
 2896              	.LBB609:
 2897              	.LBI605:
 2898              		.loc 1 154 13 is_stmt 1 view .LVU904
 2899              	.LVL163:
 2900              	.LBB607:
 2901              		.loc 1 155 3 view .LVU905
 2902              		.loc 1 156 3 view .LVU906
 2903              		.loc 1 158 3 view .LVU907
 2904              		.loc 1 168 25 is_stmt 0 view .LVU908
 2905 0894 4FF0FF3C 		mov	ip, #-1
 2906              		.loc 1 158 35 view .LVU909
 2907 0898 D3F80890 		ldr	r9, [r3, #8]
 2908              	.LVL164:
 2909              	.L183:
 2910              		.loc 1 160 5 is_stmt 1 view .LVU910
 2911              		.loc 1 161 7 view .LVU911
 2912              		.loc 1 164 5 view .LVU912
 2913              		.loc 1 165 7 view .LVU913
 2914              		.loc 1 168 5 view .LVU914
 2915 089c 4B01     		lsls	r3, r1, #5
 2916              		.loc 1 158 53 is_stmt 0 view .LVU915
 2917 089e 01F1010E 		add	lr, r1, #1
 2918 08a2 F218     		adds	r2, r6, r3
 2919              		.loc 1 160 21 view .LVU916
 2920 08a4 D2F80009 		ldr	r0, [r2, #2304]
 2921              		.loc 1 168 25 view .LVU917
 2922 08a8 1346     		mov	r3, r2
 2923              		.loc 1 160 8 view .LVU918
 2924 08aa 0028     		cmp	r0, #0
 2925 08ac 05DA     		bge	.L181
 2926              		.loc 1 161 27 view .LVU919
 2927 08ae D2F80009 		ldr	r0, [r2, #2304]
 2928 08b2 40F08040 		orr	r0, r0, #1073741824
 2929 08b6 C2F80009 		str	r0, [r2, #2304]
 2930              	.L181:
 2931              		.loc 1 164 21 view .LVU920
 2932 08ba D2F8000B 		ldr	r0, [r2, #2816]
 2933              		.loc 1 164 8 view .LVU921
 2934 08be 0028     		cmp	r0, #0
 2935 08c0 05DA     		bge	.L182
 2936              		.loc 1 165 27 view .LVU922
 2937 08c2 D2F8000B 		ldr	r0, [r2, #2816]
 2938 08c6 40F08040 		orr	r0, r0, #1073741824
 2939 08ca C2F8000B 		str	r0, [r2, #2816]
 2940              	.L182:
 2941              		.loc 1 158 3 view .LVU923
 2942 08ce 4945     		cmp	r1, r9
 2943              		.loc 1 168 25 view .LVU924
 2944 08d0 C3F808C9 		str	ip, [r3, #2312]
 2945              		.loc 1 169 5 is_stmt 1 view .LVU925
 2946              	.LVL165:
 2947              		.loc 1 158 3 is_stmt 0 view .LVU926
 2948 08d4 7146     		mov	r1, lr
 2949              		.loc 1 169 25 view .LVU927
 2950 08d6 C3F808CB 		str	ip, [r3, #2824]
ARM GAS  /tmp/ccfraM8n.s 			page 53


 2951              		.loc 1 158 3 view .LVU928
 2952 08da DFD1     		bne	.L183
 2953              	.LVL166:
 2954              		.loc 1 171 3 is_stmt 1 view .LVU929
 2955              		.loc 1 171 18 is_stmt 0 view .LVU930
 2956 08dc 4FF00113 		mov	r3, #65537
 2957              	.LBE607:
 2958              	.LBE609:
 2959              		.loc 1 570 5 view .LVU931
 2960 08e0 A548     		ldr	r0, .L345
 2961              	.LBB610:
 2962              	.LBB608:
 2963              		.loc 1 171 18 view .LVU932
 2964 08e2 C6F81C38 		str	r3, [r6, #2076]
 2965              	.LVL167:
 2966              		.loc 1 171 18 view .LVU933
 2967              	.LBE608:
 2968              	.LBE610:
 2969              		.loc 1 570 5 is_stmt 1 view .LVU934
 2970 08e6 FFF7FEFF 		bl	_usb_suspend
 2971              	.LVL168:
 2972              	.L180:
 2973              		.loc 1 574 3 view .LVU935
 2974              		.loc 1 574 6 is_stmt 0 view .LVU936
 2975 08ea A204     		lsls	r2, r4, #18
 2976 08ec 0CD5     		bpl	.L184
 2977              		.loc 1 576 5 is_stmt 1 view .LVU937
 2978              		.loc 1 576 14 is_stmt 0 view .LVU938
 2979 08ee D7F80838 		ldr	r3, [r7, #2056]
 2980              		.loc 1 576 8 view .LVU939
 2981 08f2 13F0060F 		tst	r3, #6
 2982              		.loc 1 577 28 view .LVU940
 2983 08f6 FB68     		ldr	r3, [r7, #12]
 2984              		.loc 1 577 38 view .LVU941
 2985 08f8 23F47053 		bic	r3, r3, #15360
 2986              		.loc 1 577 7 is_stmt 1 view .LVU942
 2987              		.loc 1 577 62 is_stmt 0 view .LVU943
 2988 08fc 0CBF     		ite	eq
 2989 08fe 43F41053 		orreq	r3, r3, #9216
 2990              		.loc 1 581 7 is_stmt 1 view .LVU944
 2991              		.loc 1 581 62 is_stmt 0 view .LVU945
 2992 0902 43F4A053 		orrne	r3, r3, #5120
 2993              		.loc 1 581 21 view .LVU946
 2994 0906 FB60     		str	r3, [r7, #12]
 2995              	.L184:
 2996              		.loc 1 587 3 is_stmt 1 view .LVU947
 2997              		.loc 1 587 6 is_stmt 0 view .LVU948
 2998 0908 2307     		lsls	r3, r4, #28
 2999 090a 4AD4     		bmi	.L322
 3000              	.L186:
 3001              		.loc 1 588 33 is_stmt 1 view .LVU949
 3002              		.loc 1 592 3 view .LVU950
 3003              		.loc 1 592 6 is_stmt 0 view .LVU951
 3004 090c E602     		lsls	r6, r4, #11
 3005 090e 50D4     		bmi	.L187
 3006              	.L195:
 3007              		.loc 1 597 3 is_stmt 1 view .LVU952
ARM GAS  /tmp/ccfraM8n.s 			page 54


 3008              		.loc 1 597 6 is_stmt 0 view .LVU953
 3009 0910 A002     		lsls	r0, r4, #10
 3010 0912 00F1E580 		bmi	.L323
 3011              	.L189:
 3012              		.loc 1 603 3 is_stmt 1 view .LVU954
 3013              		.loc 1 603 6 is_stmt 0 view .LVU955
 3014 0916 E306     		lsls	r3, r4, #27
 3015 0918 00F1B780 		bmi	.L324
 3016              	.L201:
 3017              		.loc 1 608 3 is_stmt 1 view .LVU956
 3018              		.loc 1 609 6 is_stmt 0 view .LVU957
 3019 091c 2303     		lsls	r3, r4, #12
 3020              		.loc 1 608 7 view .LVU958
 3021 091e D7F81858 		ldr	r5, [r7, #2072]
 3022              	.LVL169:
 3023              		.loc 1 609 3 is_stmt 1 view .LVU959
 3024              		.loc 1 609 6 is_stmt 0 view .LVU960
 3025 0922 1AD5     		bpl	.L211
 3026              		.loc 1 610 5 is_stmt 1 view .LVU961
 3027              		.loc 1 610 8 is_stmt 0 view .LVU962
 3028 0924 EF03     		lsls	r7, r5, #15
 3029              	.LVL170:
 3030              		.loc 1 610 8 view .LVU963
 3031 0926 00F1B381 		bmi	.L325
 3032              	.L212:
 3033              		.loc 1 612 5 is_stmt 1 view .LVU964
 3034              		.loc 1 612 8 is_stmt 0 view .LVU965
 3035 092a AE03     		lsls	r6, r5, #14
 3036 092c 00F1AC81 		bmi	.L326
 3037              	.L213:
 3038              		.loc 1 614 5 is_stmt 1 view .LVU966
 3039              		.loc 1 614 8 is_stmt 0 view .LVU967
 3040 0930 6803     		lsls	r0, r5, #13
 3041 0932 00F1A581 		bmi	.L327
 3042              	.L214:
 3043              		.loc 1 616 5 is_stmt 1 view .LVU968
 3044              		.loc 1 616 8 is_stmt 0 view .LVU969
 3045 0936 2903     		lsls	r1, r5, #12
 3046 0938 00F18681 		bmi	.L328
 3047              		.loc 1 619 5 is_stmt 1 view .LVU970
 3048              		.loc 1 619 8 is_stmt 0 view .LVU971
 3049 093c EA02     		lsls	r2, r5, #11
 3050 093e 00F18981 		bmi	.L329
 3051              	.L216:
 3052              		.loc 1 623 5 is_stmt 1 view .LVU972
 3053              		.loc 1 623 8 is_stmt 0 view .LVU973
 3054 0942 AB02     		lsls	r3, r5, #10
 3055 0944 00F18C81 		bmi	.L330
 3056              	.L217:
 3057              		.loc 1 627 5 is_stmt 1 view .LVU974
 3058              		.loc 1 627 8 is_stmt 0 view .LVU975
 3059 0948 6F02     		lsls	r7, r5, #9
 3060 094a 00F18F81 		bmi	.L331
 3061              	.L218:
 3062              		.loc 1 631 5 is_stmt 1 view .LVU976
 3063              		.loc 1 631 8 is_stmt 0 view .LVU977
 3064 094e 2E02     		lsls	r6, r5, #8
ARM GAS  /tmp/ccfraM8n.s 			page 55


 3065 0950 00F19281 		bmi	.L332
 3066              	.L219:
 3067              		.loc 1 635 5 is_stmt 1 view .LVU978
 3068              		.loc 1 635 8 is_stmt 0 view .LVU979
 3069 0954 E801     		lsls	r0, r5, #7
 3070 0956 00F10881 		bmi	.L333
 3071              	.L211:
 3072              		.loc 1 639 3 is_stmt 1 view .LVU980
 3073              		.loc 1 639 6 is_stmt 0 view .LVU981
 3074 095a 6103     		lsls	r1, r4, #13
 3075 095c 1AD5     		bpl	.L177
 3076              	.L344:
 3077              		.loc 1 640 5 is_stmt 1 view .LVU982
 3078              		.loc 1 640 8 is_stmt 0 view .LVU983
 3079 095e EA07     		lsls	r2, r5, #31
 3080 0960 00F14481 		bmi	.L334
 3081              		.loc 1 642 5 is_stmt 1 view .LVU984
 3082              		.loc 1 642 8 is_stmt 0 view .LVU985
 3083 0964 AB07     		lsls	r3, r5, #30
 3084 0966 00F14781 		bmi	.L335
 3085              	.L223:
 3086              		.loc 1 644 5 is_stmt 1 view .LVU986
 3087              		.loc 1 644 8 is_stmt 0 view .LVU987
 3088 096a 6F07     		lsls	r7, r5, #29
 3089 096c 00F14A81 		bmi	.L336
 3090              	.L224:
 3091              		.loc 1 646 5 is_stmt 1 view .LVU988
 3092              		.loc 1 646 8 is_stmt 0 view .LVU989
 3093 0970 2E07     		lsls	r6, r5, #28
 3094 0972 00F14D81 		bmi	.L337
 3095              	.L225:
 3096              		.loc 1 649 5 is_stmt 1 view .LVU990
 3097              		.loc 1 649 8 is_stmt 0 view .LVU991
 3098 0976 EC06     		lsls	r4, r5, #27
 3099              	.LVL171:
 3100              		.loc 1 649 8 view .LVU992
 3101 0978 00F15081 		bmi	.L338
 3102              	.L226:
 3103              		.loc 1 653 5 is_stmt 1 view .LVU993
 3104              		.loc 1 653 8 is_stmt 0 view .LVU994
 3105 097c A806     		lsls	r0, r5, #26
 3106 097e 00F15381 		bmi	.L339
 3107              	.L227:
 3108              		.loc 1 657 5 is_stmt 1 view .LVU995
 3109              		.loc 1 657 8 is_stmt 0 view .LVU996
 3110 0982 6906     		lsls	r1, r5, #25
 3111 0984 00F15681 		bmi	.L340
 3112              	.L228:
 3113              		.loc 1 661 5 is_stmt 1 view .LVU997
 3114              		.loc 1 661 8 is_stmt 0 view .LVU998
 3115 0988 2A06     		lsls	r2, r5, #24
 3116 098a 00F15981 		bmi	.L341
 3117              	.L229:
 3118              		.loc 1 665 5 is_stmt 1 view .LVU999
 3119              		.loc 1 665 8 is_stmt 0 view .LVU1000
 3120 098e EB05     		lsls	r3, r5, #23
 3121 0990 00F1F680 		bmi	.L342
ARM GAS  /tmp/ccfraM8n.s 			page 56


 3122              	.L177:
 3123              	.LVL172:
 3124              		.loc 1 665 8 view .LVU1001
 3125              	.LBE741:
 3126              	.LBE763:
 3127              		.loc 1 687 3 is_stmt 1 view .LVU1002
 3128              		.loc 1 687 3 view .LVU1003
 3129 0994 7948     		ldr	r0, .L345+4
 3130 0996 FFF7FEFF 		bl	_trace_isr_leave
 3131              	.LVL173:
 3132              		.loc 1 687 3 view .LVU1004
 3133              		.loc 1 687 3 view .LVU1005
 3134              		.loc 1 687 3 view .LVU1006
 3135              		.loc 1 688 1 is_stmt 0 view .LVU1007
 3136 099a BDE8F84F 		pop	{r3, r4, r5, r6, r7, r8, r9, r10, fp, lr}
 3137              		.cfi_remember_state
 3138              		.cfi_restore 14
 3139              		.cfi_restore 11
 3140              		.cfi_restore 10
 3141              		.cfi_restore 9
 3142              		.cfi_restore 8
 3143              		.cfi_restore 7
 3144              		.cfi_restore 6
 3145              		.cfi_restore 5
 3146              		.cfi_restore 4
 3147              		.cfi_restore 3
 3148              		.cfi_def_cfa_offset 0
 3149              		.loc 1 687 3 view .LVU1008
 3150 099e FFF7FEBF 		b	_port_irq_epilogue
 3151              	.LVL174:
 3152              	.L322:
 3153              		.cfi_restore_state
 3154              	.LBB764:
 3155              	.LBB742:
 3156              		.loc 1 588 5 is_stmt 1 view .LVU1009
 3157 09a2 6B68     		ldr	r3, [r5, #4]
 3158 09a4 DB68     		ldr	r3, [r3, #12]
 3159 09a6 002B     		cmp	r3, #0
 3160 09a8 B0D0     		beq	.L186
 3161              		.loc 1 588 5 view .LVU1010
 3162 09aa 7348     		ldr	r0, .L345
 3163 09ac 9847     		blx	r3
 3164              	.LVL175:
 3165              		.loc 1 588 33 view .LVU1011
 3166              		.loc 1 592 3 view .LVU1012
 3167              		.loc 1 592 6 is_stmt 0 view .LVU1013
 3168 09ae E602     		lsls	r6, r4, #11
 3169 09b0 AED5     		bpl	.L195
 3170              	.L187:
 3171              		.loc 1 593 5 is_stmt 1 view .LVU1014
 3172              	.LBB611:
 3173              	.LBI611:
 3174              		.loc 1 474 13 view .LVU1015
 3175              	.LVL176:
 3176              	.LBB612:
 3177              		.loc 1 475 3 view .LVU1016
 3178              		.loc 1 476 3 view .LVU1017
ARM GAS  /tmp/ccfraM8n.s 			page 57


 3179              		.loc 1 478 19 is_stmt 0 view .LVU1018
 3180 09b2 0020     		movs	r0, #0
 3181              		.loc 1 476 16 view .LVU1019
 3182 09b4 D5F890A0 		ldr	r10, [r5, #144]
 3183              	.LVL177:
 3184              		.loc 1 478 3 is_stmt 1 view .LVU1020
 3185              		.loc 1 491 7 is_stmt 0 view .LVU1021
 3186 09b8 4FF00109 		mov	r9, #1
 3187              		.loc 1 478 11 view .LVU1022
 3188 09bc 0646     		mov	r6, r0
 3189 09be 07E0     		b	.L194
 3190              	.LVL178:
 3191              	.L190:
 3192              		.loc 1 478 56 view .LVU1023
 3193 09c0 0136     		adds	r6, r6, #1
 3194              	.LVL179:
 3195              		.loc 1 478 37 view .LVU1024
 3196 09c2 D5F89430 		ldr	r3, [r5, #148]
 3197              		.loc 1 478 56 view .LVU1025
 3198 09c6 F6B2     		uxtb	r6, r6
 3199              	.LVL180:
 3200              		.loc 1 478 3 view .LVU1026
 3201 09c8 9B68     		ldr	r3, [r3, #8]
 3202 09ca 9E42     		cmp	r6, r3
 3203              		.loc 1 478 19 view .LVU1027
 3204 09cc 3046     		mov	r0, r6
 3205              		.loc 1 478 3 view .LVU1028
 3206 09ce 9FD8     		bhi	.L195
 3207              	.LVL181:
 3208              	.L194:
 3209              		.loc 1 479 5 is_stmt 1 view .LVU1029
 3210 09d0 0AEB4613 		add	r3, r10, r6, lsl #5
 3211              		.loc 1 479 23 is_stmt 0 view .LVU1030
 3212 09d4 D3F80029 		ldr	r2, [r3, #2304]
 3213              		.loc 1 479 32 view .LVU1031
 3214 09d8 02F44022 		and	r2, r2, #786432
 3215              		.loc 1 479 8 view .LVU1032
 3216 09dc B2F5802F 		cmp	r2, #262144
 3217 09e0 EED1     		bne	.L190
 3218              		.loc 1 480 23 view .LVU1033
 3219 09e2 D3F80029 		ldr	r2, [r3, #2304]
 3220              		.loc 1 479 76 view .LVU1034
 3221 09e6 002A     		cmp	r2, #0
 3222 09e8 EADA     		bge	.L190
 3223              		.loc 1 483 7 is_stmt 1 view .LVU1035
 3224              		.loc 1 483 28 is_stmt 0 view .LVU1036
 3225 09ea D3F80029 		ldr	r2, [r3, #2304]
 3226 09ee 42F09042 		orr	r2, r2, #1207959552
 3227 09f2 C3F80029 		str	r2, [r3, #2304]
 3228              		.loc 1 484 7 is_stmt 1 view .LVU1037
 3229              	.L191:
 3230              		.loc 1 485 9 view .LVU1038
 3231              		.loc 1 484 26 is_stmt 0 view .LVU1039
 3232 09f6 D3F80029 		ldr	r2, [r3, #2304]
 3233              		.loc 1 484 13 view .LVU1040
 3234 09fa 002A     		cmp	r2, #0
 3235 09fc FBDB     		blt	.L191
ARM GAS  /tmp/ccfraM8n.s 			page 58


 3236              		.loc 1 488 7 is_stmt 1 view .LVU1041
 3237              	.LBB613:
 3238              	.LBB614:
 3239              		.loc 1 187 19 is_stmt 0 view .LVU1042
 3240 09fe 8001     		lsls	r0, r0, #6
 3241              	.LBE614:
 3242              	.LBE613:
 3243              		.loc 1 488 7 view .LVU1043
 3244 0a00 D5F89020 		ldr	r2, [r5, #144]
 3245              	.LVL182:
 3246              	.LBB621:
 3247              	.LBI613:
 3248              		.loc 1 184 13 is_stmt 1 view .LVU1044
 3249              	.LBB619:
 3250              		.loc 1 185 3 view .LVU1045
 3251              		.loc 1 187 3 view .LVU1046
 3252              		.loc 1 187 40 is_stmt 0 view .LVU1047
 3253 0a04 40F02000 		orr	r0, r0, #32
 3254              		.loc 1 187 17 view .LVU1048
 3255 0a08 1061     		str	r0, [r2, #16]
 3256              		.loc 1 188 3 is_stmt 1 view .LVU1049
 3257              	.L192:
 3258              		.loc 1 189 5 view .LVU1050
 3259              		.loc 1 188 15 is_stmt 0 view .LVU1051
 3260 0a0a 1369     		ldr	r3, [r2, #16]
 3261              		.loc 1 188 9 view .LVU1052
 3262 0a0c 9906     		lsls	r1, r3, #26
 3263 0a0e FCD4     		bmi	.L192
 3264              		.loc 1 191 3 is_stmt 1 view .LVU1053
 3265              	.LVL183:
 3266              	.LBB615:
 3267              	.LBI615:
 3268              		.loc 2 589 20 view .LVU1054
 3269              	.LBB616:
 3270              		.loc 2 591 3 view .LVU1055
 3271              	.LBE616:
 3272              	.LBE615:
 3273              	.LBE619:
 3274              	.LBE621:
 3275              		.loc 1 491 7 is_stmt 0 view .LVU1056
 3276 0a10 06F1020B 		add	fp, r6, #2
 3277              	.LBB622:
 3278              	.LBB620:
 3279              	.LBB618:
 3280              	.LBB617:
 3281              		.loc 2 591 3 view .LVU1057
 3282 0a14 1220     		movs	r0, #18
 3283 0a16 FFF7FEFF 		bl	chSysPolledDelayX
 3284              	.LVL184:
 3285              		.loc 2 591 3 view .LVU1058
 3286              	.LBE617:
 3287              	.LBE618:
 3288              	.LBE620:
 3289              	.LBE622:
 3290              		.loc 1 491 7 is_stmt 1 view .LVU1059
 3291 0a1a 2A89     		ldrh	r2, [r5, #8]
 3292 0a1c 05EB8B01 		add	r1, r5, fp, lsl #2
ARM GAS  /tmp/ccfraM8n.s 			page 59


 3293 0a20 09FA06F3 		lsl	r3, r9, r6
 3294 0a24 4968     		ldr	r1, [r1, #4]
 3295 0a26 22EA0303 		bic	r3, r2, r3
 3296 0a2a 8A68     		ldr	r2, [r1, #8]
 3297 0a2c 2B81     		strh	r3, [r5, #8]	@ movhi
 3298              		.loc 1 491 7 view .LVU1060
 3299 0a2e 12B1     		cbz	r2, .L193
 3300              		.loc 1 491 7 view .LVU1061
 3301 0a30 3146     		mov	r1, r6
 3302 0a32 5148     		ldr	r0, .L345
 3303 0a34 9047     		blx	r2
 3304              	.LVL185:
 3305              	.L193:
 3306              		.loc 1 491 7 view .LVU1062
 3307              	.LBB623:
 3308              	.LBI623:
 3309              		.loc 2 531 20 view .LVU1063
 3310              	.LBE623:
 3311              	.LBE612:
 3312              	.LBE611:
 3313              	.LBE742:
 3314              	.LBE764:
 3315              		.loc 2 533 3 view .LVU1064
 3316              	.LBB765:
 3317              	.LBB743:
 3318              	.LBB670:
 3319              	.LBB661:
 3320              	.LBB635:
 3321              	.LBB624:
 3322              	.LBI624:
 3323              		.loc 3 393 20 view .LVU1065
 3324              	.LBE624:
 3325              	.LBE635:
 3326              	.LBE661:
 3327              	.LBE670:
 3328              	.LBE743:
 3329              	.LBE765:
 3330              		.loc 3 395 3 view .LVU1066
 3331              	.LBB766:
 3332              	.LBB744:
 3333              	.LBB671:
 3334              	.LBB662:
 3335              	.LBB636:
 3336              	.LBB632:
 3337              	.LBB625:
 3338              	.LBI625:
 3339              		.loc 4 708 27 view .LVU1067
 3340              	.LBE625:
 3341              	.LBE632:
 3342              	.LBE636:
 3343              	.LBE662:
 3344              	.LBE671:
 3345              	.LBE744:
 3346              	.LBE766:
 3347              		.loc 4 710 3 view .LVU1068
 3348              	.LBB767:
 3349              	.LBB745:
ARM GAS  /tmp/ccfraM8n.s 			page 60


 3350              	.LBB672:
 3351              	.LBB663:
 3352              	.LBB637:
 3353              	.LBB633:
 3354              	.LBB630:
 3355              	.LBB626:
 3356              	.LBI626:
 3357              		.loc 4 669 27 view .LVU1069
 3358              	.LBE626:
 3359              	.LBE630:
 3360              	.LBE633:
 3361              	.LBE637:
 3362              	.LBE663:
 3363              	.LBE672:
 3364              	.LBE745:
 3365              	.LBE767:
 3366              		.loc 4 677 3 view .LVU1070
 3367              	.LBB768:
 3368              	.LBB746:
 3369              	.LBB673:
 3370              	.LBB664:
 3371              	.LBB638:
 3372              	.LBB634:
 3373              	.LBB631:
 3374              	.LBB629:
 3375              	.LBB627:
 3376              	.LBI627:
 3377              		.loc 5 491 27 view .LVU1071
 3378              	.LBB628:
 3379              		.loc 5 493 3 view .LVU1072
 3380 0a36 2023     		movs	r3, #32
 3381              		.syntax unified
 3382              	@ 493 "../../../external/ChibiOS/os/common/ext/ARM/CMSIS/Core/Include/cmsis_gcc.h" 1
 3383 0a38 83F31188 		MSR basepri, r3
 3384              	@ 0 "" 2
 3385              	.LVL186:
 3386              		.loc 5 493 3 is_stmt 0 view .LVU1073
 3387              		.thumb
 3388              		.syntax unified
 3389              	.LBE628:
 3390              	.LBE627:
 3391              	.LBE629:
 3392              	.LBE631:
 3393              	.LBE634:
 3394              	.LBE638:
 3395              	.LBE664:
 3396              	.LBE673:
 3397              	.LBE746:
 3398              	.LBE768:
 3399              		.loc 3 396 34 is_stmt 1 view .LVU1074
 3400              		.loc 3 397 29 view .LVU1075
 3401              	.LBB769:
 3402              	.LBB747:
 3403              	.LBB674:
 3404              	.LBB665:
 3405              		.loc 1 491 7 view .LVU1076
 3406              	.LBB639:
ARM GAS  /tmp/ccfraM8n.s 			page 61


 3407              	.LBI639:
 3408              		.loc 2 773 20 view .LVU1077
 3409              	.LBB640:
 3410              		.loc 2 775 3 view .LVU1078
 3411              	.LBE640:
 3412              	.LBE639:
 3413              		.loc 1 491 7 is_stmt 0 view .LVU1079
 3414 0a3c 05EB8B0B 		add	fp, r5, fp, lsl #2
 3415              	.LBB643:
 3416              	.LBB641:
 3417              		.loc 2 775 3 view .LVU1080
 3418 0a40 0021     		movs	r1, #0
 3419              	.LBE641:
 3420              	.LBE643:
 3421              		.loc 1 491 7 view .LVU1081
 3422 0a42 DBF80430 		ldr	r3, [fp, #4]
 3423 0a46 5869     		ldr	r0, [r3, #20]
 3424              	.LBB644:
 3425              	.LBB642:
 3426              		.loc 2 775 3 view .LVU1082
 3427 0a48 0C30     		adds	r0, r0, #12
 3428 0a4a FFF7FEFF 		bl	chThdResumeI
 3429              	.LVL187:
 3430              		.loc 2 775 3 view .LVU1083
 3431              	.LBE642:
 3432              	.LBE644:
 3433              		.loc 1 491 7 is_stmt 1 view .LVU1084
 3434              	.LBB645:
 3435              	.LBI645:
 3436              		.loc 2 542 20 view .LVU1085
 3437              	.LBE645:
 3438              	.LBE665:
 3439              	.LBE674:
 3440              	.LBE747:
 3441              	.LBE769:
 3442              		.loc 2 544 3 view .LVU1086
 3443              	.LBB770:
 3444              	.LBB748:
 3445              	.LBB675:
 3446              	.LBB666:
 3447              	.LBB657:
 3448              	.LBB646:
 3449              	.LBI646:
 3450              		.loc 3 413 20 view .LVU1087
 3451              	.LBE646:
 3452              	.LBE657:
 3453              	.LBE666:
 3454              	.LBE675:
 3455              	.LBE748:
 3456              	.LBE770:
 3457              		.loc 3 415 31 view .LVU1088
 3458              		.loc 3 416 33 view .LVU1089
 3459              		.loc 3 417 3 view .LVU1090
 3460              	.LBB771:
 3461              	.LBB749:
 3462              	.LBB676:
 3463              	.LBB667:
ARM GAS  /tmp/ccfraM8n.s 			page 62


 3464              	.LBB658:
 3465              	.LBB654:
 3466              	.LBB647:
 3467              	.LBI647:
 3468              		.loc 4 719 27 view .LVU1091
 3469              	.LBE647:
 3470              	.LBE654:
 3471              	.LBE658:
 3472              	.LBE667:
 3473              	.LBE676:
 3474              	.LBE749:
 3475              	.LBE771:
 3476              		.loc 4 721 3 view .LVU1092
 3477              	.LBB772:
 3478              	.LBB750:
 3479              	.LBB677:
 3480              	.LBB668:
 3481              	.LBB659:
 3482              	.LBB655:
 3483              	.LBB652:
 3484              	.LBB648:
 3485              	.LBI648:
 3486              		.loc 4 693 27 view .LVU1093
 3487              	.LBE648:
 3488              	.LBE652:
 3489              	.LBE655:
 3490              	.LBE659:
 3491              	.LBE668:
 3492              	.LBE677:
 3493              	.LBE750:
 3494              	.LBE772:
 3495              		.loc 4 696 3 view .LVU1094
 3496              	.LBB773:
 3497              	.LBB751:
 3498              	.LBB678:
 3499              	.LBB669:
 3500              	.LBB660:
 3501              	.LBB656:
 3502              	.LBB653:
 3503              	.LBB651:
 3504              	.LBB649:
 3505              	.LBI649:
 3506              		.loc 5 491 27 view .LVU1095
 3507              	.LBB650:
 3508              		.loc 5 493 3 view .LVU1096
 3509 0a4e 0023     		movs	r3, #0
 3510              		.syntax unified
 3511              	@ 493 "../../../external/ChibiOS/os/common/ext/ARM/CMSIS/Core/Include/cmsis_gcc.h" 1
 3512 0a50 83F31188 		MSR basepri, r3
 3513              	@ 0 "" 2
 3514              	.LVL188:
 3515              		.loc 5 493 3 is_stmt 0 view .LVU1097
 3516              		.thumb
 3517              		.syntax unified
 3518              	.LBE650:
 3519              	.LBE649:
 3520              	.LBE651:
ARM GAS  /tmp/ccfraM8n.s 			page 63


 3521              	.LBE653:
 3522              	.LBE656:
 3523              	.LBE660:
 3524              		.loc 1 491 38 is_stmt 1 view .LVU1098
 3525              		.loc 1 494 7 view .LVU1099
 3526 0a54 3046     		mov	r0, r6
 3527 0a56 FFF7D3FA 		bl	otg_txfifo_handler.constprop.11
 3528              	.LVL189:
 3529 0a5a B1E7     		b	.L190
 3530              	.LVL190:
 3531              	.L321:
 3532              		.loc 1 494 7 is_stmt 0 view .LVU1100
 3533              	.LBE669:
 3534              	.LBE678:
 3535              		.loc 1 553 5 is_stmt 1 view .LVU1101
 3536              		.loc 1 553 13 is_stmt 0 view .LVU1102
 3537 0a5c D7F8003E 		ldr	r3, [r7, #3584]
 3538              		.loc 1 553 8 view .LVU1103
 3539 0a60 9807     		lsls	r0, r3, #30
 3540 0a62 05D0     		beq	.L179
 3541              		.loc 1 555 7 is_stmt 1 view .LVU1104
 3542              		.loc 1 555 21 is_stmt 0 view .LVU1105
 3543 0a64 D7F8003E 		ldr	r3, [r7, #3584]
 3544 0a68 23F00303 		bic	r3, r3, #3
 3545 0a6c C7F8003E 		str	r3, [r7, #3584]
 3546              	.L179:
 3547              		.loc 1 559 5 is_stmt 1 view .LVU1106
 3548              		.loc 1 559 16 is_stmt 0 view .LVU1107
 3549 0a70 D7F80438 		ldr	r3, [r7, #2052]
 3550              		.loc 1 561 5 view .LVU1108
 3551 0a74 4048     		ldr	r0, .L345
 3552              		.loc 1 559 16 view .LVU1109
 3553 0a76 23F00103 		bic	r3, r3, #1
 3554 0a7a C7F80438 		str	r3, [r7, #2052]
 3555              		.loc 1 561 5 is_stmt 1 view .LVU1110
 3556 0a7e FFF7FEFF 		bl	_usb_wakeup
 3557              	.LVL191:
 3558              		.loc 1 565 3 view .LVU1111
 3559              		.loc 1 565 6 is_stmt 0 view .LVU1112
 3560 0a82 2105     		lsls	r1, r4, #20
 3561 0a84 7FF531AF 		bpl	.L180
 3562 0a88 FFE6     		b	.L343
 3563              	.L324:
 3564              		.loc 1 604 5 is_stmt 1 view .LVU1113
 3565              	.LBB679:
 3566              	.LBI679:
 3567              		.loc 1 285 13 view .LVU1114
 3568              	.LVL192:
 3569              	.LBB680:
 3570              		.loc 1 286 3 view .LVU1115
 3571              		.loc 1 289 3 view .LVU1116
 3572              		.loc 1 289 13 is_stmt 0 view .LVU1117
 3573 0a8a D5F89010 		ldr	r1, [r5, #144]
 3574              		.loc 1 289 7 view .LVU1118
 3575 0a8e 0B6A     		ldr	r3, [r1, #32]
 3576              	.LVL193:
 3577              		.loc 1 292 3 is_stmt 1 view .LVU1119
ARM GAS  /tmp/ccfraM8n.s 			page 64


 3578              		.loc 1 295 15 is_stmt 0 view .LVU1120
 3579 0a90 03F4F010 		and	r0, r3, #1966080
 3580              		.loc 1 292 7 view .LVU1121
 3581 0a94 C3F30A12 		ubfx	r2, r3, #4, #11
 3582              	.LVL194:
 3583              		.loc 1 293 3 is_stmt 1 view .LVU1122
 3584              		.loc 1 293 7 is_stmt 0 view .LVU1123
 3585 0a98 03F00F03 		and	r3, r3, #15
 3586              	.LVL195:
 3587              		.loc 1 295 3 is_stmt 1 view .LVU1124
 3588 0a9c B0F5802F 		cmp	r0, #262144
 3589 0aa0 78D0     		beq	.L202
 3590 0aa2 B0F5402F 		cmp	r0, #786432
 3591 0aa6 7FF439AF 		bne	.L201
 3592              		.loc 1 297 5 view .LVU1125
 3593              		.loc 1 297 58 is_stmt 0 view .LVU1126
 3594 0aaa 05EB8303 		add	r3, r5, r3, lsl #2
 3595              	.LVL196:
 3596              		.loc 1 297 5 view .LVU1127
 3597 0aae DB68     		ldr	r3, [r3, #12]
 3598 0ab0 186A     		ldr	r0, [r3, #32]
 3599              	.LVL197:
 3600              	.LBB681:
 3601              	.LBI681:
 3602              		.loc 1 259 13 is_stmt 1 view .LVU1128
 3603              	.LBB682:
 3604              		.loc 1 263 3 view .LVU1129
 3605              		.loc 1 264 3 view .LVU1130
 3606              		.loc 1 266 3 view .LVU1131
 3607              		.loc 1 266 9 is_stmt 0 view .LVU1132
 3608 0ab2 002A     		cmp	r2, #0
 3609 0ab4 3FF432AF 		beq	.L201
 3610              		.loc 1 268 9 view .LVU1133
 3611 0ab8 01F58055 		add	r5, r1, #4096
 3612              	.LVL198:
 3613              		.loc 1 264 10 view .LVU1134
 3614 0abc 0023     		movs	r3, #0
 3615 0abe 4646     		mov	r6, r8
 3616              	.LVL199:
 3617              	.L205:
 3618              		.loc 1 267 5 is_stmt 1 view .LVU1135
 3619              		.loc 1 268 7 view .LVU1136
 3620              		.loc 1 270 5 view .LVU1137
 3621              		.loc 1 271 7 view .LVU1138
 3622              		.loc 1 267 8 is_stmt 0 view .LVU1139
 3623 0ac0 13F0030F 		tst	r3, #3
 3624              		.loc 1 271 11 view .LVU1140
 3625 0ac4 0146     		mov	r1, r0
 3626              		.loc 1 267 8 view .LVU1141
 3627 0ac6 00D1     		bne	.L203
 3628              		.loc 1 268 9 view .LVU1142
 3629 0ac8 2E68     		ldr	r6, [r5]
 3630              	.L203:
 3631              		.loc 1 270 8 view .LVU1143
 3632 0aca 072B     		cmp	r3, #7
 3633              		.loc 1 274 6 view .LVU1144
 3634 0acc 03F10103 		add	r3, r3, #1
ARM GAS  /tmp/ccfraM8n.s 			page 65


 3635              	.LVL200:
 3636              		.loc 1 270 8 view .LVU1145
 3637 0ad0 03D8     		bhi	.L204
 3638              		.loc 1 271 16 view .LVU1146
 3639 0ad2 01F8016B 		strb	r6, [r1], #1
 3640              		.loc 1 272 7 is_stmt 1 view .LVU1147
 3641              	.LVL201:
 3642              		.loc 1 272 9 is_stmt 0 view .LVU1148
 3643 0ad6 360A     		lsrs	r6, r6, #8
 3644              	.LVL202:
 3645              		.loc 1 271 11 view .LVU1149
 3646 0ad8 0846     		mov	r0, r1
 3647              	.LVL203:
 3648              	.L204:
 3649              		.loc 1 274 5 is_stmt 1 view .LVU1150
 3650              		.loc 1 266 9 is_stmt 0 view .LVU1151
 3651 0ada 9A42     		cmp	r2, r3
 3652 0adc F0D1     		bne	.L205
 3653 0ade 1DE7     		b	.L201
 3654              	.LVL204:
 3655              	.L323:
 3656              		.loc 1 266 9 view .LVU1152
 3657              	.LBE682:
 3658              	.LBE681:
 3659              	.LBE680:
 3660              	.LBE679:
 3661              		.loc 1 598 5 is_stmt 1 view .LVU1153
 3662              	.LBB686:
 3663              	.LBI686:
 3664              		.loc 1 506 13 view .LVU1154
 3665              	.LBB687:
 3666              		.loc 1 507 3 view .LVU1155
 3667              		.loc 1 508 3 view .LVU1156
 3668              		.loc 1 508 16 is_stmt 0 view .LVU1157
 3669 0ae0 D5F890B0 		ldr	fp, [r5, #144]
 3670              	.LVL205:
 3671              		.loc 1 510 3 is_stmt 1 view .LVU1158
 3672              		.loc 1 510 11 is_stmt 0 view .LVU1159
 3673 0ae4 0026     		movs	r6, #0
 3674              		.loc 1 520 7 view .LVU1160
 3675 0ae6 4FF0010A 		mov	r10, #1
 3676 0aea 07E0     		b	.L200
 3677              	.LVL206:
 3678              	.L198:
 3679              		.loc 1 520 39 is_stmt 1 view .LVU1161
 3680              		.loc 1 510 56 is_stmt 0 view .LVU1162
 3681 0aec 0136     		adds	r6, r6, #1
 3682              	.LVL207:
 3683              		.loc 1 510 37 view .LVU1163
 3684 0aee D5F89430 		ldr	r3, [r5, #148]
 3685              		.loc 1 510 56 view .LVU1164
 3686 0af2 F6B2     		uxtb	r6, r6
 3687              	.LVL208:
 3688              		.loc 1 510 3 view .LVU1165
 3689 0af4 9B68     		ldr	r3, [r3, #8]
 3690 0af6 9E42     		cmp	r6, r3
 3691 0af8 3FF60DAF 		bhi	.L189
ARM GAS  /tmp/ccfraM8n.s 			page 66


 3692              	.LVL209:
 3693              	.L200:
 3694              		.loc 1 511 5 is_stmt 1 view .LVU1166
 3695 0afc 0BEB4612 		add	r2, fp, r6, lsl #5
 3696              		.loc 1 511 23 is_stmt 0 view .LVU1167
 3697 0b00 D2F8003B 		ldr	r3, [r2, #2816]
 3698              		.loc 1 511 32 view .LVU1168
 3699 0b04 03F44023 		and	r3, r3, #786432
 3700              		.loc 1 511 8 view .LVU1169
 3701 0b08 B3F5802F 		cmp	r3, #262144
 3702 0b0c EED1     		bne	.L198
 3703              		.loc 1 520 7 is_stmt 1 view .LVU1170
 3704              		.loc 1 512 23 is_stmt 0 view .LVU1171
 3705 0b0e D2F8003B 		ldr	r3, [r2, #2816]
 3706              		.loc 1 520 7 view .LVU1172
 3707 0b12 06F10209 		add	r9, r6, #2
 3708 0b16 0AFA06FC 		lsl	ip, r10, r6
 3709              		.loc 1 511 76 view .LVU1173
 3710 0b1a 002B     		cmp	r3, #0
 3711              		.loc 1 520 7 view .LVU1174
 3712 0b1c 05EB8902 		add	r2, r5, r9, lsl #2
 3713              		.loc 1 511 76 view .LVU1175
 3714 0b20 E4DA     		bge	.L198
 3715              		.loc 1 520 7 is_stmt 1 view .LVU1176
 3716 0b22 6B89     		ldrh	r3, [r5, #10]
 3717 0b24 3146     		mov	r1, r6
 3718 0b26 5268     		ldr	r2, [r2, #4]
 3719 0b28 23EA0C03 		bic	r3, r3, ip
 3720 0b2c 1248     		ldr	r0, .L345
 3721 0b2e D268     		ldr	r2, [r2, #12]
 3722 0b30 6B81     		strh	r3, [r5, #10]	@ movhi
 3723              		.loc 1 520 7 view .LVU1177
 3724 0b32 02B1     		cbz	r2, .L199
 3725 0b34 9047     		blx	r2
 3726              	.LVL210:
 3727              	.L199:
 3728              		.loc 1 520 7 view .LVU1178
 3729              	.LBB688:
 3730              	.LBI688:
 3731              		.loc 2 531 20 view .LVU1179
 3732              	.LBE688:
 3733              	.LBE687:
 3734              	.LBE686:
 3735              	.LBE751:
 3736              	.LBE773:
 3737              		.loc 2 533 3 view .LVU1180
 3738              	.LBB774:
 3739              	.LBB752:
 3740              	.LBB731:
 3741              	.LBB722:
 3742              	.LBB700:
 3743              	.LBB689:
 3744              	.LBI689:
 3745              		.loc 3 393 20 view .LVU1181
 3746              	.LBE689:
 3747              	.LBE700:
 3748              	.LBE722:
ARM GAS  /tmp/ccfraM8n.s 			page 67


 3749              	.LBE731:
 3750              	.LBE752:
 3751              	.LBE774:
 3752              		.loc 3 395 3 view .LVU1182
 3753              	.LBB775:
 3754              	.LBB753:
 3755              	.LBB732:
 3756              	.LBB723:
 3757              	.LBB701:
 3758              	.LBB697:
 3759              	.LBB690:
 3760              	.LBI690:
 3761              		.loc 4 708 27 view .LVU1183
 3762              	.LBE690:
 3763              	.LBE697:
 3764              	.LBE701:
 3765              	.LBE723:
 3766              	.LBE732:
 3767              	.LBE753:
 3768              	.LBE775:
 3769              		.loc 4 710 3 view .LVU1184
 3770              	.LBB776:
 3771              	.LBB754:
 3772              	.LBB733:
 3773              	.LBB724:
 3774              	.LBB702:
 3775              	.LBB698:
 3776              	.LBB695:
 3777              	.LBB691:
 3778              	.LBI691:
 3779              		.loc 4 669 27 view .LVU1185
 3780              	.LBE691:
 3781              	.LBE695:
 3782              	.LBE698:
 3783              	.LBE702:
 3784              	.LBE724:
 3785              	.LBE733:
 3786              	.LBE754:
 3787              	.LBE776:
 3788              		.loc 4 677 3 view .LVU1186
 3789              	.LBB777:
 3790              	.LBB755:
 3791              	.LBB734:
 3792              	.LBB725:
 3793              	.LBB703:
 3794              	.LBB699:
 3795              	.LBB696:
 3796              	.LBB694:
 3797              	.LBB692:
 3798              	.LBI692:
 3799              		.loc 5 491 27 view .LVU1187
 3800              	.LBB693:
 3801              		.loc 5 493 3 view .LVU1188
 3802 0b36 2023     		movs	r3, #32
 3803              		.syntax unified
 3804              	@ 493 "../../../external/ChibiOS/os/common/ext/ARM/CMSIS/Core/Include/cmsis_gcc.h" 1
 3805 0b38 83F31188 		MSR basepri, r3
ARM GAS  /tmp/ccfraM8n.s 			page 68


 3806              	@ 0 "" 2
 3807              	.LVL211:
 3808              		.loc 5 493 3 is_stmt 0 view .LVU1189
 3809              		.thumb
 3810              		.syntax unified
 3811              	.LBE693:
 3812              	.LBE692:
 3813              	.LBE694:
 3814              	.LBE696:
 3815              	.LBE699:
 3816              	.LBE703:
 3817              	.LBE725:
 3818              	.LBE734:
 3819              	.LBE755:
 3820              	.LBE777:
 3821              		.loc 3 396 34 is_stmt 1 view .LVU1190
 3822              		.loc 3 397 29 view .LVU1191
 3823              	.LBB778:
 3824              	.LBB756:
 3825              	.LBB735:
 3826              	.LBB726:
 3827              		.loc 1 520 7 view .LVU1192
 3828 0b3c 05EB8909 		add	r9, r5, r9, lsl #2
 3829 0b40 D9F80430 		ldr	r3, [r9, #4]
 3830 0b44 9869     		ldr	r0, [r3, #24]
 3831              	.LVL212:
 3832              	.LBB704:
 3833              	.LBI704:
 3834              		.loc 2 773 20 view .LVU1193
 3835              	.LBB705:
 3836              		.loc 2 775 3 view .LVU1194
 3837 0b46 4168     		ldr	r1, [r0, #4]
 3838 0b48 0C30     		adds	r0, r0, #12
 3839              	.LVL213:
 3840              		.loc 2 775 3 is_stmt 0 view .LVU1195
 3841 0b4a FFF7FEFF 		bl	chThdResumeI
 3842              	.LVL214:
 3843              		.loc 2 775 3 view .LVU1196
 3844              	.LBE705:
 3845              	.LBE704:
 3846              		.loc 1 520 7 is_stmt 1 view .LVU1197
 3847              	.LBB706:
 3848              	.LBI706:
 3849              		.loc 2 542 20 view .LVU1198
 3850              	.LBE706:
 3851              	.LBE726:
 3852              	.LBE735:
 3853              	.LBE756:
 3854              	.LBE778:
 3855              		.loc 2 544 3 view .LVU1199
 3856              	.LBB779:
 3857              	.LBB757:
 3858              	.LBB736:
 3859              	.LBB727:
 3860              	.LBB718:
 3861              	.LBB707:
 3862              	.LBI707:
ARM GAS  /tmp/ccfraM8n.s 			page 69


 3863              		.loc 3 413 20 view .LVU1200
 3864              	.LBE707:
 3865              	.LBE718:
 3866              	.LBE727:
 3867              	.LBE736:
 3868              	.LBE757:
 3869              	.LBE779:
 3870              		.loc 3 415 31 view .LVU1201
 3871              		.loc 3 416 33 view .LVU1202
 3872              		.loc 3 417 3 view .LVU1203
 3873              	.LBB780:
 3874              	.LBB758:
 3875              	.LBB737:
 3876              	.LBB728:
 3877              	.LBB719:
 3878              	.LBB715:
 3879              	.LBB708:
 3880              	.LBI708:
 3881              		.loc 4 719 27 view .LVU1204
 3882              	.LBE708:
 3883              	.LBE715:
 3884              	.LBE719:
 3885              	.LBE728:
 3886              	.LBE737:
 3887              	.LBE758:
 3888              	.LBE780:
 3889              		.loc 4 721 3 view .LVU1205
 3890              	.LBB781:
 3891              	.LBB759:
 3892              	.LBB738:
 3893              	.LBB729:
 3894              	.LBB720:
 3895              	.LBB716:
 3896              	.LBB713:
 3897              	.LBB709:
 3898              	.LBI709:
 3899              		.loc 4 693 27 view .LVU1206
 3900              	.LBE709:
 3901              	.LBE713:
 3902              	.LBE716:
 3903              	.LBE720:
 3904              	.LBE729:
 3905              	.LBE738:
 3906              	.LBE759:
 3907              	.LBE781:
 3908              		.loc 4 696 3 view .LVU1207
 3909              	.LBB782:
 3910              	.LBB760:
 3911              	.LBB739:
 3912              	.LBB730:
 3913              	.LBB721:
 3914              	.LBB717:
 3915              	.LBB714:
 3916              	.LBB712:
 3917              	.LBB710:
 3918              	.LBI710:
 3919              		.loc 5 491 27 view .LVU1208
ARM GAS  /tmp/ccfraM8n.s 			page 70


 3920              	.LBB711:
 3921              		.loc 5 493 3 view .LVU1209
 3922 0b4e 0023     		movs	r3, #0
 3923              		.syntax unified
 3924              	@ 493 "../../../external/ChibiOS/os/common/ext/ARM/CMSIS/Core/Include/cmsis_gcc.h" 1
 3925 0b50 83F31188 		MSR basepri, r3
 3926              	@ 0 "" 2
 3927              	.LVL215:
 3928              		.loc 5 493 3 is_stmt 0 view .LVU1210
 3929              		.thumb
 3930              		.syntax unified
 3931 0b54 CAE7     		b	.L198
 3932              	.LVL216:
 3933              	.L320:
 3934              		.loc 5 493 3 view .LVU1211
 3935              	.LBE711:
 3936              	.LBE710:
 3937              	.LBE712:
 3938              	.LBE714:
 3939              	.LBE717:
 3940              	.LBE721:
 3941              	.LBE730:
 3942              	.LBE739:
 3943              		.loc 1 543 5 is_stmt 1 view .LVU1212
 3944 0b56 2846     		mov	r0, r5
 3945 0b58 FFF7FEFF 		bl	_usb_reset
 3946              	.LVL217:
 3947              		.loc 1 546 5 view .LVU1213
 3948              		.loc 1 546 5 is_stmt 0 view .LVU1214
 3949              	.LBE760:
 3950              	.LBE782:
 3951              		.loc 1 687 3 is_stmt 1 view .LVU1215
 3952              		.loc 1 687 3 view .LVU1216
 3953 0b5c 0748     		ldr	r0, .L345+4
 3954 0b5e FFF7FEFF 		bl	_trace_isr_leave
 3955              	.LVL218:
 3956              		.loc 1 687 3 view .LVU1217
 3957              		.loc 1 687 3 view .LVU1218
 3958              		.loc 1 687 3 view .LVU1219
 3959              		.loc 1 688 1 is_stmt 0 view .LVU1220
 3960 0b62 BDE8F84F 		pop	{r3, r4, r5, r6, r7, r8, r9, r10, fp, lr}
 3961              		.cfi_remember_state
 3962              		.cfi_restore 14
 3963              		.cfi_restore 11
 3964              		.cfi_restore 10
 3965              		.cfi_restore 9
 3966              		.cfi_restore 8
 3967              		.cfi_restore 7
 3968              		.cfi_restore 6
 3969              		.cfi_restore 5
 3970              		.cfi_restore 4
 3971              		.cfi_restore 3
 3972              		.cfi_def_cfa_offset 0
 3973              		.loc 1 687 3 view .LVU1221
 3974 0b66 FFF7FEBF 		b	_port_irq_epilogue
 3975              	.LVL219:
 3976              	.L333:
ARM GAS  /tmp/ccfraM8n.s 			page 71


 3977              		.cfi_restore_state
 3978              	.LBB783:
 3979              	.LBB761:
 3980              		.loc 1 636 7 is_stmt 1 view .LVU1222
 3981 0b6a 0820     		movs	r0, #8
 3982 0b6c FFF760FD 		bl	otg_epout_handler.constprop.9
 3983              	.LVL220:
 3984              		.loc 1 639 3 view .LVU1223
 3985              		.loc 1 639 6 is_stmt 0 view .LVU1224
 3986 0b70 6103     		lsls	r1, r4, #13
 3987 0b72 7FF50FAF 		bpl	.L177
 3988 0b76 F2E6     		b	.L344
 3989              	.L346:
 3990              		.align	2
 3991              	.L345:
 3992 0b78 00000000 		.word	USBD1
 3993 0b7c 40000000 		.word	.LANCHOR0+64
 3994              	.LVL221:
 3995              	.L342:
 3996              		.loc 1 666 7 is_stmt 1 view .LVU1225
 3997 0b80 0820     		movs	r0, #8
 3998 0b82 FFF70DFE 		bl	otg_epin_handler.constprop.10
 3999              	.LVL222:
 4000              		.loc 1 666 7 is_stmt 0 view .LVU1226
 4001              	.LBE761:
 4002              	.LBE783:
 4003              		.loc 1 687 3 is_stmt 1 view .LVU1227
 4004              		.loc 1 687 3 view .LVU1228
 4005 0b86 4448     		ldr	r0, .L347
 4006 0b88 FFF7FEFF 		bl	_trace_isr_leave
 4007              	.LVL223:
 4008              		.loc 1 687 3 view .LVU1229
 4009              		.loc 1 687 3 view .LVU1230
 4010              		.loc 1 687 3 view .LVU1231
 4011              		.loc 1 688 1 is_stmt 0 view .LVU1232
 4012 0b8c BDE8F84F 		pop	{r3, r4, r5, r6, r7, r8, r9, r10, fp, lr}
 4013              		.cfi_remember_state
 4014              		.cfi_restore 14
 4015              		.cfi_restore 11
 4016              		.cfi_restore 10
 4017              		.cfi_restore 9
 4018              		.cfi_restore 8
 4019              		.cfi_restore 7
 4020              		.cfi_restore 6
 4021              		.cfi_restore 5
 4022              		.cfi_restore 4
 4023              		.cfi_restore 3
 4024              		.cfi_def_cfa_offset 0
 4025              		.loc 1 687 3 view .LVU1233
 4026 0b90 FFF7FEBF 		b	_port_irq_epilogue
 4027              	.LVL224:
 4028              	.L202:
 4029              		.cfi_restore_state
 4030              	.LBB784:
 4031              	.LBB762:
 4032              	.LBB740:
 4033              	.LBB685:
ARM GAS  /tmp/ccfraM8n.s 			page 72


 4034              		.loc 1 303 5 is_stmt 1 view .LVU1234
 4035              		.loc 1 304 38 is_stmt 0 view .LVU1235
 4036 0b94 981C     		adds	r0, r3, #2
 4037 0b96 05EB8003 		add	r3, r5, r0, lsl #2
 4038              	.LVL225:
 4039              		.loc 1 304 42 view .LVU1236
 4040 0b9a 5B68     		ldr	r3, [r3, #4]
 4041 0b9c 9B69     		ldr	r3, [r3, #24]
 4042              		.loc 1 303 5 view .LVU1237
 4043 0b9e D3E9019A 		ldrd	r9, r10, [r3, #4]
 4044 0ba2 1E68     		ldr	r6, [r3]
 4045 0ba4 A6EB090E 		sub	lr, r6, r9
 4046              	.LVL226:
 4047              	.LBB683:
 4048              	.LBI683:
 4049              		.loc 1 259 13 is_stmt 1 view .LVU1238
 4050              	.LBB684:
 4051              		.loc 1 263 3 view .LVU1239
 4052              		.loc 1 264 3 view .LVU1240
 4053              		.loc 1 266 3 view .LVU1241
 4054              		.loc 1 266 9 is_stmt 0 view .LVU1242
 4055 0ba8 D2B1     		cbz	r2, .L206
 4056              		.loc 1 264 10 view .LVU1243
 4057 0baa 4646     		mov	r6, r8
 4058              		.loc 1 268 9 view .LVU1244
 4059 0bac 01F5805C 		add	ip, r1, #4096
 4060              	.LVL227:
 4061              		.loc 1 264 10 view .LVU1245
 4062 0bb0 0023     		movs	r3, #0
 4063 0bb2 D046     		mov	r8, r10
 4064              	.LVL228:
 4065              	.L209:
 4066              		.loc 1 267 5 is_stmt 1 view .LVU1246
 4067              		.loc 1 268 7 view .LVU1247
 4068              		.loc 1 270 5 view .LVU1248
 4069              		.loc 1 271 7 view .LVU1249
 4070              		.loc 1 267 8 is_stmt 0 view .LVU1250
 4071 0bb4 13F0030F 		tst	r3, #3
 4072              		.loc 1 271 11 view .LVU1251
 4073 0bb8 4146     		mov	r1, r8
 4074              		.loc 1 267 8 view .LVU1252
 4075 0bba 01D1     		bne	.L207
 4076              	.LVL229:
 4077              		.loc 1 268 9 view .LVU1253
 4078 0bbc DCF80060 		ldr	r6, [ip]
 4079              	.L207:
 4080              		.loc 1 270 8 view .LVU1254
 4081 0bc0 9E45     		cmp	lr, r3
 4082              		.loc 1 274 6 view .LVU1255
 4083 0bc2 03F10103 		add	r3, r3, #1
 4084              	.LVL230:
 4085              		.loc 1 270 8 view .LVU1256
 4086 0bc6 03D9     		bls	.L208
 4087              		.loc 1 271 16 view .LVU1257
 4088 0bc8 01F8016B 		strb	r6, [r1], #1
 4089              	.LVL231:
 4090              		.loc 1 272 7 is_stmt 1 view .LVU1258
ARM GAS  /tmp/ccfraM8n.s 			page 73


 4091              		.loc 1 272 9 is_stmt 0 view .LVU1259
 4092 0bcc 360A     		lsrs	r6, r6, #8
 4093              	.LVL232:
 4094              		.loc 1 271 11 view .LVU1260
 4095 0bce 8846     		mov	r8, r1
 4096              	.LVL233:
 4097              	.L208:
 4098              		.loc 1 274 5 is_stmt 1 view .LVU1261
 4099              		.loc 1 266 9 is_stmt 0 view .LVU1262
 4100 0bd0 9A42     		cmp	r2, r3
 4101 0bd2 EFD1     		bne	.L209
 4102 0bd4 05EB8005 		add	r5, r5, r0, lsl #2
 4103 0bd8 6B68     		ldr	r3, [r5, #4]
 4104              	.LVL234:
 4105              		.loc 1 266 9 view .LVU1263
 4106 0bda 9B69     		ldr	r3, [r3, #24]
 4107 0bdc D3E9019A 		ldrd	r9, r10, [r3, #4]
 4108              	.LVL235:
 4109              	.L206:
 4110              		.loc 1 266 9 view .LVU1264
 4111              	.LBE684:
 4112              	.LBE683:
 4113              		.loc 1 308 5 is_stmt 1 view .LVU1265
 4114              		.loc 1 308 37 is_stmt 0 view .LVU1266
 4115 0be0 0AEB0206 		add	r6, r10, r2
 4116              		.loc 1 309 37 view .LVU1267
 4117 0be4 4A44     		add	r2, r2, r9
 4118              	.LVL236:
 4119              		.loc 1 309 37 view .LVU1268
 4120 0be6 C3E90126 		strd	r2, r6, [r3, #4]
 4121              		.loc 1 310 5 is_stmt 1 view .LVU1269
 4122 0bea 97E6     		b	.L201
 4123              	.LVL237:
 4124              	.L334:
 4125              		.loc 1 310 5 is_stmt 0 view .LVU1270
 4126              	.LBE685:
 4127              	.LBE740:
 4128              		.loc 1 641 7 is_stmt 1 view .LVU1271
 4129 0bec 0020     		movs	r0, #0
 4130 0bee FFF7D7FD 		bl	otg_epin_handler.constprop.10
 4131              	.LVL238:
 4132              		.loc 1 642 5 view .LVU1272
 4133              		.loc 1 642 8 is_stmt 0 view .LVU1273
 4134 0bf2 AB07     		lsls	r3, r5, #30
 4135 0bf4 7FF5B9AE 		bpl	.L223
 4136              	.L335:
 4137              		.loc 1 643 7 is_stmt 1 view .LVU1274
 4138 0bf8 0120     		movs	r0, #1
 4139 0bfa FFF7D1FD 		bl	otg_epin_handler.constprop.10
 4140              	.LVL239:
 4141              		.loc 1 644 5 view .LVU1275
 4142              		.loc 1 644 8 is_stmt 0 view .LVU1276
 4143 0bfe 6F07     		lsls	r7, r5, #29
 4144 0c00 7FF5B6AE 		bpl	.L224
 4145              	.L336:
 4146              		.loc 1 645 7 is_stmt 1 view .LVU1277
 4147 0c04 0220     		movs	r0, #2
ARM GAS  /tmp/ccfraM8n.s 			page 74


 4148 0c06 FFF7CBFD 		bl	otg_epin_handler.constprop.10
 4149              	.LVL240:
 4150              		.loc 1 646 5 view .LVU1278
 4151              		.loc 1 646 8 is_stmt 0 view .LVU1279
 4152 0c0a 2E07     		lsls	r6, r5, #28
 4153 0c0c 7FF5B3AE 		bpl	.L225
 4154              	.L337:
 4155              		.loc 1 647 7 is_stmt 1 view .LVU1280
 4156 0c10 0320     		movs	r0, #3
 4157 0c12 FFF7C5FD 		bl	otg_epin_handler.constprop.10
 4158              	.LVL241:
 4159              		.loc 1 649 5 view .LVU1281
 4160              		.loc 1 649 8 is_stmt 0 view .LVU1282
 4161 0c16 EC06     		lsls	r4, r5, #27
 4162              	.LVL242:
 4163              		.loc 1 649 8 view .LVU1283
 4164 0c18 7FF5B0AE 		bpl	.L226
 4165              	.L338:
 4166              		.loc 1 650 7 is_stmt 1 view .LVU1284
 4167 0c1c 0420     		movs	r0, #4
 4168 0c1e FFF7BFFD 		bl	otg_epin_handler.constprop.10
 4169              	.LVL243:
 4170              		.loc 1 653 5 view .LVU1285
 4171              		.loc 1 653 8 is_stmt 0 view .LVU1286
 4172 0c22 A806     		lsls	r0, r5, #26
 4173 0c24 7FF5ADAE 		bpl	.L227
 4174              	.L339:
 4175              		.loc 1 654 7 is_stmt 1 view .LVU1287
 4176 0c28 0520     		movs	r0, #5
 4177 0c2a FFF7B9FD 		bl	otg_epin_handler.constprop.10
 4178              	.LVL244:
 4179              		.loc 1 657 5 view .LVU1288
 4180              		.loc 1 657 8 is_stmt 0 view .LVU1289
 4181 0c2e 6906     		lsls	r1, r5, #25
 4182 0c30 7FF5AAAE 		bpl	.L228
 4183              	.L340:
 4184              		.loc 1 658 7 is_stmt 1 view .LVU1290
 4185 0c34 0620     		movs	r0, #6
 4186 0c36 FFF7B3FD 		bl	otg_epin_handler.constprop.10
 4187              	.LVL245:
 4188              		.loc 1 661 5 view .LVU1291
 4189              		.loc 1 661 8 is_stmt 0 view .LVU1292
 4190 0c3a 2A06     		lsls	r2, r5, #24
 4191 0c3c 7FF5A7AE 		bpl	.L229
 4192              	.L341:
 4193              		.loc 1 662 7 is_stmt 1 view .LVU1293
 4194 0c40 0720     		movs	r0, #7
 4195 0c42 FFF7ADFD 		bl	otg_epin_handler.constprop.10
 4196              	.LVL246:
 4197 0c46 A2E6     		b	.L229
 4198              	.LVL247:
 4199              	.L328:
 4200              		.loc 1 617 7 view .LVU1294
 4201 0c48 0320     		movs	r0, #3
 4202 0c4a FFF7F1FC 		bl	otg_epout_handler.constprop.9
 4203              	.LVL248:
 4204              		.loc 1 619 5 view .LVU1295
ARM GAS  /tmp/ccfraM8n.s 			page 75


 4205              		.loc 1 619 8 is_stmt 0 view .LVU1296
 4206 0c4e EA02     		lsls	r2, r5, #11
 4207 0c50 7FF577AE 		bpl	.L216
 4208              	.L329:
 4209              		.loc 1 620 7 is_stmt 1 view .LVU1297
 4210 0c54 0420     		movs	r0, #4
 4211 0c56 FFF7EBFC 		bl	otg_epout_handler.constprop.9
 4212              	.LVL249:
 4213              		.loc 1 623 5 view .LVU1298
 4214              		.loc 1 623 8 is_stmt 0 view .LVU1299
 4215 0c5a AB02     		lsls	r3, r5, #10
 4216 0c5c 7FF574AE 		bpl	.L217
 4217              	.L330:
 4218              		.loc 1 624 7 is_stmt 1 view .LVU1300
 4219 0c60 0520     		movs	r0, #5
 4220 0c62 FFF7E5FC 		bl	otg_epout_handler.constprop.9
 4221              	.LVL250:
 4222              		.loc 1 627 5 view .LVU1301
 4223              		.loc 1 627 8 is_stmt 0 view .LVU1302
 4224 0c66 6F02     		lsls	r7, r5, #9
 4225 0c68 7FF571AE 		bpl	.L218
 4226              	.L331:
 4227              		.loc 1 628 7 is_stmt 1 view .LVU1303
 4228 0c6c 0620     		movs	r0, #6
 4229 0c6e FFF7DFFC 		bl	otg_epout_handler.constprop.9
 4230              	.LVL251:
 4231              		.loc 1 631 5 view .LVU1304
 4232              		.loc 1 631 8 is_stmt 0 view .LVU1305
 4233 0c72 2E02     		lsls	r6, r5, #8
 4234 0c74 7FF56EAE 		bpl	.L219
 4235              	.L332:
 4236              		.loc 1 632 7 is_stmt 1 view .LVU1306
 4237 0c78 0720     		movs	r0, #7
 4238 0c7a FFF7D9FC 		bl	otg_epout_handler.constprop.9
 4239              	.LVL252:
 4240 0c7e 69E6     		b	.L219
 4241              	.L327:
 4242              		.loc 1 615 7 view .LVU1307
 4243 0c80 0220     		movs	r0, #2
 4244 0c82 FFF7D5FC 		bl	otg_epout_handler.constprop.9
 4245              	.LVL253:
 4246 0c86 56E6     		b	.L214
 4247              	.L326:
 4248              		.loc 1 613 7 view .LVU1308
 4249 0c88 0120     		movs	r0, #1
 4250 0c8a FFF7D1FC 		bl	otg_epout_handler.constprop.9
 4251              	.LVL254:
 4252 0c8e 4FE6     		b	.L213
 4253              	.L325:
 4254              		.loc 1 611 7 view .LVU1309
 4255 0c90 0020     		movs	r0, #0
 4256 0c92 FFF7CDFC 		bl	otg_epout_handler.constprop.9
 4257              	.LVL255:
 4258 0c96 48E6     		b	.L212
 4259              	.L348:
 4260              		.align	2
 4261              	.L347:
ARM GAS  /tmp/ccfraM8n.s 			page 76


 4262 0c98 40000000 		.word	.LANCHOR0+64
 4263              	.LBE762:
 4264              	.LBE784:
 4265              		.cfi_endproc
 4266              	.LFE377:
 4267              		.size	Vector1D4, .-Vector1D4
 4268              		.align	1
 4269 0c9c AFF30080 		.p2align 4,,15
 4270              		.global	usb_lld_stall_out
 4271              		.syntax unified
 4272              		.thumb
 4273              		.thumb_func
 4274              		.fpu fpv4-sp-d16
 4275              		.type	usb_lld_stall_out, %function
 4276              	usb_lld_stall_out:
 4277              	.LVL256:
 4278              	.LFB390:
 4279              		.loc 1 1219 53 view -0
 4280              		.cfi_startproc
 4281              		@ args = 0, pretend = 0, frame = 0
 4282              		@ frame_needed = 0, uses_anonymous_args = 0
 4283              		@ link register save eliminated.
 4284              		.loc 1 1221 3 view .LVU1311
 4285 0ca0 D0F89030 		ldr	r3, [r0, #144]
 4286 0ca4 03EB4111 		add	r1, r3, r1, lsl #5
 4287              	.LVL257:
 4288              		.loc 1 1221 29 is_stmt 0 view .LVU1312
 4289 0ca8 D1F8003B 		ldr	r3, [r1, #2816]
 4290 0cac 43F40013 		orr	r3, r3, #2097152
 4291 0cb0 C1F8003B 		str	r3, [r1, #2816]
 4292              		.loc 1 1222 1 view .LVU1313
 4293 0cb4 7047     		bx	lr
 4294              		.cfi_endproc
 4295              	.LFE390:
 4296              		.size	usb_lld_stall_out, .-usb_lld_stall_out
 4297              		.align	1
 4298 0cb6 00BFAFF3 		.p2align 4,,15
 4298      0080AFF3 
 4298      0080
 4299              		.global	usb_lld_stall_in
 4300              		.syntax unified
 4301              		.thumb
 4302              		.thumb_func
 4303              		.fpu fpv4-sp-d16
 4304              		.type	usb_lld_stall_in, %function
 4305              	usb_lld_stall_in:
 4306              	.LVL258:
 4307              	.LFB391:
 4308              		.loc 1 1232 52 is_stmt 1 view -0
 4309              		.cfi_startproc
 4310              		@ args = 0, pretend = 0, frame = 0
 4311              		@ frame_needed = 0, uses_anonymous_args = 0
 4312              		@ link register save eliminated.
 4313              		.loc 1 1234 3 view .LVU1315
 4314 0cc0 D0F89030 		ldr	r3, [r0, #144]
 4315 0cc4 03EB4111 		add	r1, r3, r1, lsl #5
 4316              	.LVL259:
ARM GAS  /tmp/ccfraM8n.s 			page 77


 4317              		.loc 1 1234 29 is_stmt 0 view .LVU1316
 4318 0cc8 D1F80039 		ldr	r3, [r1, #2304]
 4319 0ccc 43F40013 		orr	r3, r3, #2097152
 4320 0cd0 C1F80039 		str	r3, [r1, #2304]
 4321              		.loc 1 1235 1 view .LVU1317
 4322 0cd4 7047     		bx	lr
 4323              		.cfi_endproc
 4324              	.LFE391:
 4325              		.size	usb_lld_stall_in, .-usb_lld_stall_in
 4326              		.align	1
 4327 0cd6 00BFAFF3 		.p2align 4,,15
 4327      0080AFF3 
 4327      0080
 4328              		.global	usb_lld_clear_out
 4329              		.syntax unified
 4330              		.thumb
 4331              		.thumb_func
 4332              		.fpu fpv4-sp-d16
 4333              		.type	usb_lld_clear_out, %function
 4334              	usb_lld_clear_out:
 4335              	.LVL260:
 4336              	.LFB392:
 4337              		.loc 1 1245 53 is_stmt 1 view -0
 4338              		.cfi_startproc
 4339              		@ args = 0, pretend = 0, frame = 0
 4340              		@ frame_needed = 0, uses_anonymous_args = 0
 4341              		@ link register save eliminated.
 4342              		.loc 1 1247 3 view .LVU1319
 4343 0ce0 D0F89030 		ldr	r3, [r0, #144]
 4344 0ce4 03EB4111 		add	r1, r3, r1, lsl #5
 4345              	.LVL261:
 4346              		.loc 1 1247 29 is_stmt 0 view .LVU1320
 4347 0ce8 D1F8003B 		ldr	r3, [r1, #2816]
 4348 0cec 23F40013 		bic	r3, r3, #2097152
 4349 0cf0 C1F8003B 		str	r3, [r1, #2816]
 4350              		.loc 1 1248 1 view .LVU1321
 4351 0cf4 7047     		bx	lr
 4352              		.cfi_endproc
 4353              	.LFE392:
 4354              		.size	usb_lld_clear_out, .-usb_lld_clear_out
 4355              		.align	1
 4356 0cf6 00BFAFF3 		.p2align 4,,15
 4356      0080AFF3 
 4356      0080
 4357              		.global	usb_lld_clear_in
 4358              		.syntax unified
 4359              		.thumb
 4360              		.thumb_func
 4361              		.fpu fpv4-sp-d16
 4362              		.type	usb_lld_clear_in, %function
 4363              	usb_lld_clear_in:
 4364              	.LVL262:
 4365              	.LFB393:
 4366              		.loc 1 1258 52 is_stmt 1 view -0
 4367              		.cfi_startproc
 4368              		@ args = 0, pretend = 0, frame = 0
 4369              		@ frame_needed = 0, uses_anonymous_args = 0
ARM GAS  /tmp/ccfraM8n.s 			page 78


 4370              		@ link register save eliminated.
 4371              		.loc 1 1260 3 view .LVU1323
 4372 0d00 D0F89030 		ldr	r3, [r0, #144]
 4373 0d04 03EB4111 		add	r1, r3, r1, lsl #5
 4374              	.LVL263:
 4375              		.loc 1 1260 29 is_stmt 0 view .LVU1324
 4376 0d08 D1F80039 		ldr	r3, [r1, #2304]
 4377 0d0c 23F40013 		bic	r3, r3, #2097152
 4378 0d10 C1F80039 		str	r3, [r1, #2304]
 4379              		.loc 1 1261 1 view .LVU1325
 4380 0d14 7047     		bx	lr
 4381              		.cfi_endproc
 4382              	.LFE393:
 4383              		.size	usb_lld_clear_in, .-usb_lld_clear_in
 4384              		.comm	USBD1,156,4
 4385              		.section	.rodata
 4386              		.align	2
 4387              		.set	.LANCHOR0,. + 0
 4388              		.type	fsparams, %object
 4389              		.size	fsparams, 12
 4390              	fsparams:
 4391 0000 80000000 		.word	128
 4392 0004 40010000 		.word	320
 4393 0008 08000000 		.word	8
 4394              		.type	ep0config, %object
 4395              		.size	ep0config, 36
 4396              	ep0config:
 4397 000c 00000000 		.word	0
 4398 0010 00000000 		.word	_usb_ep0setup
 4399 0014 00000000 		.word	_usb_ep0in
 4400 0018 00000000 		.word	_usb_ep0out
 4401 001c 4000     		.short	64
 4402 001e 4000     		.short	64
 4403 0020 08000000 		.word	ep0_state
 4404 0024 08000000 		.word	ep0_state
 4405 0028 0100     		.short	1
 4406 002a 0000     		.space	2
 4407 002c 00000000 		.word	ep0setup_buffer
 4408              		.type	CSWTCH.15, %object
 4409              		.size	CSWTCH.15, 16
 4410              	CSWTCH.15:
 4411 0030 00800010 		.word	268468224
 4412 0034 00800410 		.word	268730368
 4413 0038 00800810 		.word	268992512
 4414 003c 00800C10 		.word	269254656
 4415              		.type	__func__.12282, %object
 4416              		.size	__func__.12282, 10
 4417              	__func__.12282:
 4418 0040 56656374 		.ascii	"Vector1D4\000"
 4418      6F723144 
 4418      3400
 4419              		.bss
 4420              		.align	2
 4421              		.type	ep0setup_buffer, %object
 4422              		.size	ep0setup_buffer, 8
 4423              	ep0setup_buffer:
 4424 0000 00000000 		.space	8
ARM GAS  /tmp/ccfraM8n.s 			page 79


 4424      00000000 
 4425              		.type	ep0_state, %object
 4426              		.size	ep0_state, 20
 4427              	ep0_state:
 4428 0008 00000000 		.space	20
 4428      00000000 
 4428      00000000 
 4428      00000000 
 4428      00000000 
 4429              		.text
 4430              	.Letext0:
 4431              		.file 6 "/home/nicolas/arm/gcc-arm-none-eabi-8-2019-q3-update/lib/gcc/arm-none-eabi/8.3.1/include/
 4432              		.file 7 "/home/nicolas/arm/gcc-arm-none-eabi-8-2019-q3-update/arm-none-eabi/include/machine/_defau
 4433              		.file 8 "/home/nicolas/arm/gcc-arm-none-eabi-8-2019-q3-update/arm-none-eabi/include/sys/_types.h"
 4434              		.file 9 "/home/nicolas/arm/gcc-arm-none-eabi-8-2019-q3-update/arm-none-eabi/include/sys/reent.h"
 4435              		.file 10 "/home/nicolas/arm/gcc-arm-none-eabi-8-2019-q3-update/arm-none-eabi/include/sys/lock.h"
 4436              		.file 11 "/home/nicolas/arm/gcc-arm-none-eabi-8-2019-q3-update/arm-none-eabi/include/sys/_stdint.h
 4437              		.file 12 "/home/nicolas/arm/gcc-arm-none-eabi-8-2019-q3-update/arm-none-eabi/include/stdint.h"
 4438              		.file 13 "../../../external/ChibiOS/os/common/ports/ARMCMx/compilers/GCC/chtypes.h"
 4439              		.file 14 "../../../external/ChibiOS/os/rt/include/chsystypes.h"
 4440              		.file 15 "../../../external/ChibiOS/os/rt/include/chschd.h"
 4441              		.file 16 "../../../external/ChibiOS/os/rt/include/chtime.h"
 4442              		.file 17 "../../../external/ChibiOS/os/common/ext/ARM/CMSIS/Core/Include/core_cm7.h"
 4443              		.file 18 "../../../external/ChibiOS/os/common/ext/ST/STM32H7xx/system_stm32h7xx.h"
 4444              		.file 19 "../../../external/ChibiOS/os/common/ext/ST/STM32H7xx/stm32h753xx.h"
 4445              		.file 20 "../../../external/ChibiOS/os/common/ports/ARMCMx/chcore.h"
 4446              		.file 21 "../../../external/ChibiOS/os/rt/include/chtrace.h"
 4447              		.file 22 "../../../external/ChibiOS/os/rt/include/chtm.h"
 4448              		.file 23 "../../../external/ChibiOS/os/rt/include/chsem.h"
 4449              		.file 24 "../../../external/ChibiOS/os/rt/include/chmtx.h"
 4450              		.file 25 "../../../external/ChibiOS/os/rt/include/chregistry.h"
 4451              		.file 26 "../../../external/ChibiOS/os/rt/include/chevents.h"
 4452              		.file 27 "../../../external/ChibiOS/os/oslib/include/chmemcore.h"
 4453              		.file 28 "../../../external/ChibiOS/os/oslib/include/chmempools.h"
 4454              		.file 29 "../../../external/ChibiOS/os/oslib/include/chfactory.h"
 4455              		.file 30 "../../../external/ChibiOS/os/hal/ports/STM32/LLD/DMAv2/stm32_dma.h"
 4456              		.file 31 "../../../external/ChibiOS/os/hal/ports/STM32/LLD/BDMAv1/stm32_bdma.h"
 4457              		.file 32 "../../../external/ChibiOS/os/hal/ports/STM32/LLD/TIMv1/stm32_tim.h"
 4458              		.file 33 "../../../external/ChibiOS/os/hal/include/hal_ioblock.h"
 4459              		.file 34 "../../../external/ChibiOS/os/hal/include/hal_queues.h"
 4460              		.file 35 "../../../external/ChibiOS/os/hal/ports/STM32/LLD/GPIOv2/stm32_gpio.h"
 4461              		.file 36 "../../../external/ChibiOS/os/hal/ports/STM32/LLD/GPIOv2/hal_pal_lld.h"
 4462              		.file 37 "../../../external/ChibiOS/os/hal/include/hal_adc.h"
 4463              		.file 38 "../../../external/ChibiOS/os/hal/ports/STM32/LLD/ADCv4/hal_adc_lld.h"
 4464              		.file 39 "../../../external/ChibiOS/os/hal/include/hal_i2c.h"
 4465              		.file 40 "../../../external/ChibiOS/os/hal/ports/STM32/LLD/I2Cv3/hal_i2c_lld.h"
 4466              		.file 41 "../../../external/ChibiOS/os/hal/include/hal_pwm.h"
 4467              		.file 42 "../../../external/ChibiOS/os/hal/ports/STM32/LLD/TIMv1/hal_pwm_lld.h"
 4468              		.file 43 "../../../external/ChibiOS/os/hal/include/hal_serial.h"
 4469              		.file 44 "../../../external/ChibiOS/os/hal/ports/STM32/LLD/USARTv2/hal_serial_lld.h"
 4470              		.file 45 "../../../external/ChibiOS/os/hal/include/hal_sdc.h"
 4471              		.file 46 "../../../external/ChibiOS/os/hal/ports/STM32/LLD/SDMMCv2/hal_sdc_lld.h"
 4472              		.file 47 "../../../external/ChibiOS/os/hal/include/hal_spi.h"
 4473              		.file 48 "../../../external/ChibiOS/os/hal/ports/STM32/LLD/SPIv3/hal_spi_lld.h"
 4474              		.file 49 "../../../external/ChibiOS/os/hal/include/hal_trng.h"
 4475              		.file 50 "../../../external/ChibiOS/os/hal/ports/STM32/LLD/RNGv1/hal_trng_lld.h"
 4476              		.file 51 "../../../external/ChibiOS/os/hal/include/hal_usb.h"
ARM GAS  /tmp/ccfraM8n.s 			page 80


 4477              		.file 52 "../../../external/ChibiOS/os/hal/ports/STM32/LLD/OTGv1/hal_usb_lld.h"
 4478              		.file 53 "../../../external/ChibiOS/os/hal/ports/STM32/LLD/OTGv1/stm32_otg.h"
 4479              		.file 54 "../../../external/ChibiOS-Contrib/os/hal/include/hal_fsmc.h"
 4480              		.file 55 "../../../external/ChibiOS-Contrib/os/hal/include/hal_sdram.h"
 4481              		.file 56 "../../../external/ChibiOS/os/hal/ports/common/ARMCMx/nvic.h"
 4482              		.file 57 "../../../external/ChibiOS/os/rt/include/chthreads.h"