ARM GAS  /tmp/cc9ZHD5t.s 			page 1


   1              		.cpu cortex-m7
   2              		.eabi_attribute 27, 1
   3              		.eabi_attribute 28, 1
   4              		.eabi_attribute 20, 1
   5              		.eabi_attribute 21, 1
   6              		.eabi_attribute 23, 3
   7              		.eabi_attribute 24, 1
   8              		.eabi_attribute 25, 1
   9              		.eabi_attribute 26, 1
  10              		.eabi_attribute 30, 2
  11              		.eabi_attribute 34, 1
  12              		.eabi_attribute 18, 4
  13              		.file	"lib_scsi.c"
  14              		.text
  15              	.Ltext0:
  16              		.cfi_sections	.debug_frame
  17              		.align	1
  18              		.p2align 4,,15
  19              		.arch armv7e-m
  20              		.syntax unified
  21              		.thumb
  22              		.thumb_func
  23              		.fpu fpv4-sp-d16
  24              		.type	data_read_write10, %function
  25              	data_read_write10:
  26              	.LVL0:
  27              	.LFB378:
  28              		.file 1 "../../../external/ChibiOS-Contrib/os/various/lib_scsi.c"
  29              		.loc 1 352 70 view -0
  30              		.cfi_startproc
  31              		@ args = 0, pretend = 0, frame = 8
  32              		@ frame_needed = 0, uses_anonymous_args = 0
  33              		.loc 1 354 3 view .LVU1
  34              		.loc 1 352 70 is_stmt 0 view .LVU2
  35 0000 2DE9F04F 		push	{r4, r5, r6, r7, r8, r9, r10, fp, lr}
  36              		.cfi_def_cfa_offset 36
  37              		.cfi_offset 4, -36
  38              		.cfi_offset 5, -32
  39              		.cfi_offset 6, -28
  40              		.cfi_offset 7, -24
  41              		.cfi_offset 8, -20
  42              		.cfi_offset 9, -16
  43              		.cfi_offset 10, -12
  44              		.cfi_offset 11, -8
  45              		.cfi_offset 14, -4
  46              	.LBB81:
  47              	.LBB82:
  48              		.loc 1 71 3 view .LVU3
  49 0004 D1F80230 		ldr	r3, [r1, #2]	@ unaligned
  50              	.LBE82:
  51              	.LBE81:
  52              		.loc 1 352 70 view .LVU4
  53 0008 8846     		mov	r8, r1
  54              	.LVL1:
  55              	.LBB113:
  56              	.LBI81:
  57              		.loc 1 65 23 is_stmt 1 view .LVU5
ARM GAS  /tmp/cc9ZHD5t.s 			page 2


  58              	.LBB107:
  59              		.loc 1 67 3 view .LVU6
  60              		.loc 1 68 3 view .LVU7
  61              		.loc 1 69 3 view .LVU8
  62              		.loc 1 71 3 view .LVU9
  63              		.loc 1 72 3 view .LVU10
  64 000a B1F80720 		ldrh	r2, [r1, #7]	@ unaligned
  65              	.LVL2:
  66              		.loc 1 74 3 view .LVU11
  67              	.LBB83:
  68              	.LBI83:
  69              		.file 2 "../../../external/ChibiOS-Contrib/os/various/bswap.h"
  70              		.loc 2 134 24 view .LVU12
  71              	.LBB84:
  72              		.loc 2 135 5 view .LVU13
  73              		.loc 2 138 5 view .LVU14
  74              		.loc 2 139 5 view .LVU15
  75              		.loc 2 141 5 view .LVU16
  76              		.loc 2 142 5 view .LVU17
  77              		.loc 2 143 5 view .LVU18
  78              		.loc 2 143 15 is_stmt 0 view .LVU19
  79 000e 0024     		movs	r4, #0
  80              	.LVL3:
  81              		.loc 2 143 15 view .LVU20
  82 0010 190E     		lsrs	r1, r3, #24
  83              	.LVL4:
  84              		.loc 2 143 15 view .LVU21
  85              	.LBE84:
  86              	.LBE83:
  87              	.LBE107:
  88              	.LBE113:
  89              		.loc 1 352 70 view .LVU22
  90 0012 0546     		mov	r5, r0
  91              	.LBB114:
  92              	.LBB108:
  93              	.LBB91:
  94              	.LBB92:
  95              		.loc 2 122 15 view .LVU23
  96 0014 4FF0000B 		mov	fp, #0	@ movhi
  97              	.LVL5:
  98              		.loc 2 122 15 view .LVU24
  99 0018 100A     		lsrs	r0, r2, #8
 100              	.LVL6:
 101              		.loc 2 122 15 view .LVU25
 102              	.LBE92:
 103              	.LBE91:
 104              	.LBB97:
 105              	.LBB85:
 106              		.loc 2 143 15 view .LVU26
 107 001a 61F30704 		bfi	r4, r1, #0, #8
 108              	.LVL7:
 109              		.loc 2 144 5 is_stmt 1 view .LVU27
 110              	.LBE85:
 111              	.LBE97:
 112              	.LBE108:
 113              	.LBE114:
 114              	.LBB115:
ARM GAS  /tmp/cc9ZHD5t.s 			page 3


 115              	.LBB116:
 116              		.loc 1 329 3 is_stmt 0 view .LVU28
 117 001e 2968     		ldr	r1, [r5]
 118              	.LBE116:
 119              	.LBE115:
 120              	.LBB127:
 121              	.LBB109:
 122              	.LBB98:
 123              	.LBB86:
 124              		.loc 2 146 15 view .LVU29
 125 0020 C3F30747 		ubfx	r7, r3, #16, #8
 126              	.LBE86:
 127              	.LBE98:
 128              	.LBB99:
 129              	.LBB93:
 130              		.loc 2 122 15 view .LVU30
 131 0024 60F3070B 		bfi	fp, r0, #0, #8
 132              	.LVL8:
 133              		.loc 2 122 15 view .LVU31
 134              	.LBE93:
 135              	.LBE99:
 136              	.LBB100:
 137              	.LBB87:
 138              		.loc 2 144 15 view .LVU32
 139 0028 63F31F64 		bfi	r4, r3, #24, #8
 140              	.LBE87:
 141              	.LBE100:
 142              	.LBE109:
 143              	.LBE127:
 144              	.LBB128:
 145              	.LBB121:
 146              		.loc 1 329 3 view .LVU33
 147 002c 4868     		ldr	r0, [r1, #4]
 148              	.LBE121:
 149              	.LBE128:
 150              	.LBB129:
 151              	.LBB110:
 152              	.LBB101:
 153              	.LBB88:
 154              		.loc 2 147 15 view .LVU34
 155 002e C3F30726 		ubfx	r6, r3, #8, #8
 156              		.loc 2 145 5 is_stmt 1 view .LVU35
 157              	.LVL9:
 158              		.loc 2 146 5 view .LVU36
 159              	.LBE88:
 160              	.LBE101:
 161              	.LBB102:
 162              	.LBB94:
 163              		.loc 2 123 15 is_stmt 0 view .LVU37
 164 0032 62F30F2B 		bfi	fp, r2, #8, #8
 165              		.loc 2 123 15 view .LVU38
 166              	.LBE94:
 167              	.LBE102:
 168              	.LBB103:
 169              	.LBB89:
 170              		.loc 2 146 15 view .LVU39
 171 0036 67F30F24 		bfi	r4, r7, #8, #8
ARM GAS  /tmp/cc9ZHD5t.s 			page 4


 172              		.loc 2 147 5 is_stmt 1 view .LVU40
 173              	.LBE89:
 174              	.LBE103:
 175              	.LBE110:
 176              	.LBE129:
 177              		.loc 1 352 70 is_stmt 0 view .LVU41
 178 003a 83B0     		sub	sp, sp, #12
 179              		.cfi_def_cfa_offset 48
 180              	.LBB130:
 181              	.LBB122:
 182              		.loc 1 329 3 view .LVU42
 183 003c 0368     		ldr	r3, [r0]
 184              	.LVL10:
 185              		.loc 1 329 3 view .LVU43
 186              	.LBE122:
 187              	.LBE130:
 188              	.LBB131:
 189              	.LBB111:
 190              	.LBB104:
 191              	.LBB95:
 192              		.loc 2 125 16 view .LVU44
 193 003e 1FFA8BFB 		uxth	fp, fp
 194              	.LVL11:
 195              		.loc 2 125 16 view .LVU45
 196              	.LBE95:
 197              	.LBE104:
 198              	.LBB105:
 199              	.LBB90:
 200              		.loc 2 147 15 view .LVU46
 201 0042 66F31744 		bfi	r4, r6, #16, #8
 202              		.loc 2 149 5 is_stmt 1 view .LVU47
 203              	.LBE90:
 204              	.LBE105:
 205              	.LBE111:
 206              	.LBE131:
 207              	.LBB132:
 208              	.LBB123:
 209              		.loc 1 329 3 is_stmt 0 view .LVU48
 210 0046 6946     		mov	r1, sp
 211 0048 1B6A     		ldr	r3, [r3, #32]
 212              	.LVL12:
 213              		.loc 1 329 3 view .LVU49
 214              	.LBE123:
 215              	.LBE132:
 216              	.LBB133:
 217              	.LBB112:
 218              		.loc 1 75 3 is_stmt 1 view .LVU50
 219              	.LBB106:
 220              	.LBI91:
 221              		.loc 2 113 24 view .LVU51
 222              	.LBB96:
 223              		.loc 2 114 5 view .LVU52
 224              		.loc 2 117 5 view .LVU53
 225              		.loc 2 118 5 view .LVU54
 226              		.loc 2 120 5 view .LVU55
 227              		.loc 2 121 5 view .LVU56
 228              		.loc 2 122 5 view .LVU57
ARM GAS  /tmp/cc9ZHD5t.s 			page 5


 229              		.loc 2 123 5 view .LVU58
 230              		.loc 2 125 5 view .LVU59
 231              		.loc 2 125 5 is_stmt 0 view .LVU60
 232              	.LBE96:
 233              	.LBE106:
 234              		.loc 1 77 3 is_stmt 1 view .LVU61
 235              		.loc 1 77 3 is_stmt 0 view .LVU62
 236              	.LBE112:
 237              	.LBE133:
 238              		.loc 1 356 3 is_stmt 1 view .LVU63
 239              	.LBB134:
 240              	.LBI115:
 241              		.loc 1 326 13 view .LVU64
 242              	.LBB124:
 243              		.loc 1 328 3 view .LVU65
 244              		.loc 1 329 3 view .LVU66
 245 004a 9847     		blx	r3
 246              	.LVL13:
 247              		.loc 1 331 3 view .LVU67
 248              		.loc 1 331 22 is_stmt 0 view .LVU68
 249 004c 0BEB040A 		add	r10, fp, r4
 250              		.loc 1 331 6 view .LVU69
 251 0050 019B     		ldr	r3, [sp, #4]
 252 0052 9A45     		cmp	r10, r3
 253 0054 37D8     		bhi	.L2
 254              	.LVL14:
 255              		.loc 1 331 6 view .LVU70
 256              	.LBE124:
 257              	.LBE134:
 258              	.LBB135:
 259              		.loc 1 360 5 is_stmt 1 view .LVU71
 260              		.loc 1 360 36 is_stmt 0 view .LVU72
 261 0056 2B68     		ldr	r3, [r5]
 262              		.loc 1 363 5 view .LVU73
 263 0058 6946     		mov	r1, sp
 264              		.loc 1 360 26 view .LVU74
 265 005a D3E90067 		ldrd	r6, r7, [r3]
 266              	.LVL15:
 267              		.loc 1 361 5 is_stmt 1 view .LVU75
 268              		.loc 1 362 5 view .LVU76
 269              		.loc 1 363 5 view .LVU77
 270 005e 3B68     		ldr	r3, [r7]
 271 0060 3846     		mov	r0, r7
 272 0062 1B6A     		ldr	r3, [r3, #32]
 273 0064 9847     		blx	r3
 274              	.LVL16:
 275              		.loc 1 364 5 view .LVU78
 276              		.loc 1 365 14 is_stmt 0 view .LVU79
 277 0066 2B68     		ldr	r3, [r5]
 278              		.loc 1 364 12 view .LVU80
 279 0068 DDF80090 		ldr	r9, [sp]
 280              	.LVL17:
 281              		.loc 1 365 5 is_stmt 1 view .LVU81
 282              		.loc 1 365 14 is_stmt 0 view .LVU82
 283 006c 9D68     		ldr	r5, [r3, #8]
 284              	.LVL18:
 285              		.loc 1 367 5 is_stmt 1 view .LVU83
ARM GAS  /tmp/cc9ZHD5t.s 			page 6


 286              		.loc 1 368 5 view .LVU84
 287              		.loc 1 368 5 is_stmt 0 view .LVU85
 288 006e BBF1000F 		cmp	fp, #0
 289 0072 0DD1     		bne	.L3
 290 0074 23E0     		b	.L7
 291              	.LVL19:
 292              	.L5:
 293              		.loc 1 376 9 view .LVU86
 294 0076 7368     		ldr	r3, [r6, #4]
 295 0078 9847     		blx	r3
 296              	.LVL20:
 297              		.loc 1 377 9 is_stmt 1 view .LVU87
 298 007a 3968     		ldr	r1, [r7]
 299 007c 0123     		movs	r3, #1
 300 007e 2A46     		mov	r2, r5
 301 0080 D1F818B0 		ldr	fp, [r1, #24]
 302 0084 2146     		mov	r1, r4
 303 0086 0134     		adds	r4, r4, #1
 304 0088 3846     		mov	r0, r7
 305 008a D847     		blx	fp
 306              	.LVL21:
 307              		.loc 1 368 5 is_stmt 0 view .LVU88
 308 008c A245     		cmp	r10, r4
 309 008e 16D0     		beq	.L7
 310              	.LVL22:
 311              	.L3:
 312              		.loc 1 369 7 is_stmt 1 view .LVU89
 313              		.loc 1 376 9 view .LVU90
 314              		.loc 1 369 10 is_stmt 0 view .LVU91
 315 0090 98F80030 		ldrb	r3, [r8]	@ zero_extendqisi2
 316              		.loc 1 376 9 view .LVU92
 317 0094 4A46     		mov	r2, r9
 318 0096 2946     		mov	r1, r5
 319 0098 3046     		mov	r0, r6
 320              		.loc 1 369 10 view .LVU93
 321 009a 282B     		cmp	r3, #40
 322 009c EBD1     		bne	.L5
 323              	.LVL23:
 324              		.loc 1 371 9 is_stmt 1 view .LVU94
 325 009e 3868     		ldr	r0, [r7]
 326              	.LVL24:
 327              		.loc 1 371 9 is_stmt 0 view .LVU95
 328 00a0 2146     		mov	r1, r4
 329              	.LVL25:
 330              		.loc 1 371 9 view .LVU96
 331 00a2 0123     		movs	r3, #1
 332 00a4 2A46     		mov	r2, r5
 333              	.LVL26:
 334              		.loc 1 371 9 view .LVU97
 335 00a6 D0F814B0 		ldr	fp, [r0, #20]
 336 00aa 0134     		adds	r4, r4, #1
 337 00ac 3846     		mov	r0, r7
 338 00ae D847     		blx	fp
 339              	.LVL27:
 340              		.loc 1 372 9 is_stmt 1 view .LVU98
 341 00b0 3368     		ldr	r3, [r6]
 342 00b2 4A46     		mov	r2, r9
ARM GAS  /tmp/cc9ZHD5t.s 			page 7


 343 00b4 2946     		mov	r1, r5
 344 00b6 3046     		mov	r0, r6
 345 00b8 9847     		blx	r3
 346              	.LVL28:
 347              		.loc 1 368 5 is_stmt 0 view .LVU99
 348 00ba A245     		cmp	r10, r4
 349 00bc E8D1     		bne	.L3
 350              	.LVL29:
 351              	.L7:
 352              		.loc 1 368 5 view .LVU100
 353              	.LBE135:
 354              		.loc 1 381 3 is_stmt 1 view .LVU101
 355              		.loc 1 381 10 is_stmt 0 view .LVU102
 356 00be 0020     		movs	r0, #0
 357              		.loc 1 382 1 view .LVU103
 358 00c0 03B0     		add	sp, sp, #12
 359              		.cfi_remember_state
 360              		.cfi_def_cfa_offset 36
 361              		@ sp needed
 362 00c2 BDE8F08F 		pop	{r4, r5, r6, r7, r8, r9, r10, fp, pc}
 363              	.LVL30:
 364              	.L2:
 365              		.cfi_restore_state
 366              	.LBB136:
 367              	.LBB125:
 368              		.loc 1 332 5 is_stmt 1 view .LVU104
 369              	.LBB117:
 370              	.LBI117:
 371              		.loc 1 90 13 view .LVU105
 372              	.LBB118:
 373              		.loc 1 93 3 view .LVU106
 374              		.loc 1 94 3 view .LVU107
 375 00c6 0023     		movs	r3, #0
 376              		.loc 1 96 19 is_stmt 0 view .LVU108
 377 00c8 7027     		movs	r7, #112
 378              		.loc 1 97 19 view .LVU109
 379 00ca 0526     		movs	r6, #5
 380              		.loc 1 98 19 view .LVU110
 381 00cc 0824     		movs	r4, #8
 382              	.LVL31:
 383              		.loc 1 99 19 view .LVU111
 384 00ce 2121     		movs	r1, #33
 385              	.LBE118:
 386              	.LBE117:
 387              	.LBE125:
 388              	.LBE136:
 389              		.loc 1 357 12 view .LVU112
 390 00d0 0120     		movs	r0, #1
 391              	.LBB137:
 392              	.LBB126:
 393              	.LBB120:
 394              	.LBB119:
 395              		.loc 1 94 3 view .LVU113
 396 00d2 C5F80530 		str	r3, [r5, #5]	@ unaligned
 397 00d6 C5F81130 		str	r3, [r5, #17]	@ unaligned
 398 00da C5F80930 		str	r3, [r5, #9]	@ unaligned
 399 00de C5F80D30 		str	r3, [r5, #13]	@ unaligned
ARM GAS  /tmp/cc9ZHD5t.s 			page 8


 400 00e2 A5F81530 		strh	r3, [r5, #21]	@ unaligned
 401              		.loc 1 96 3 is_stmt 1 view .LVU114
 402              		.loc 1 100 19 is_stmt 0 view .LVU115
 403 00e6 AB74     		strb	r3, [r5, #18]
 404              		.loc 1 96 19 view .LVU116
 405 00e8 6F71     		strb	r7, [r5, #5]
 406              		.loc 1 97 3 is_stmt 1 view .LVU117
 407              		.loc 1 97 19 is_stmt 0 view .LVU118
 408 00ea EE71     		strb	r6, [r5, #7]
 409              		.loc 1 98 3 is_stmt 1 view .LVU119
 410              		.loc 1 98 19 is_stmt 0 view .LVU120
 411 00ec 2C73     		strb	r4, [r5, #12]
 412              		.loc 1 99 3 is_stmt 1 view .LVU121
 413              		.loc 1 99 19 is_stmt 0 view .LVU122
 414 00ee 6974     		strb	r1, [r5, #17]
 415              		.loc 1 100 3 is_stmt 1 view .LVU123
 416              	.LVL32:
 417              		.loc 1 100 3 is_stmt 0 view .LVU124
 418              	.LBE119:
 419              	.LBE120:
 420              		.loc 1 335 5 is_stmt 1 view .LVU125
 421              		.loc 1 335 5 is_stmt 0 view .LVU126
 422              	.LBE126:
 423              	.LBE137:
 424              		.loc 1 382 1 view .LVU127
 425 00f0 03B0     		add	sp, sp, #12
 426              		.cfi_def_cfa_offset 36
 427              		@ sp needed
 428 00f2 BDE8F08F 		pop	{r4, r5, r6, r7, r8, r9, r10, fp, pc}
 429              		.loc 1 382 1 view .LVU128
 430              		.cfi_endproc
 431              	.LFE378:
 432              		.size	data_read_write10, .-data_read_write10
 433              		.align	1
 434 00f6 00BFAFF3 		.p2align 4,,15
 434      0080AFF3 
 434      0080
 435              		.global	scsiExecCmd
 436              		.syntax unified
 437              		.thumb
 438              		.thumb_func
 439              		.fpu fpv4-sp-d16
 440              		.type	scsiExecCmd, %function
 441              	scsiExecCmd:
 442              	.LVL33:
 443              	.LFB380:
 444              		.loc 1 425 57 is_stmt 1 view -0
 445              		.cfi_startproc
 446              		@ args = 0, pretend = 0, frame = 24
 447              		@ frame_needed = 0, uses_anonymous_args = 0
 448              		.loc 1 425 57 is_stmt 0 view .LVU130
 449 0100 F0B5     		push	{r4, r5, r6, r7, lr}
 450              		.cfi_def_cfa_offset 20
 451              		.cfi_offset 4, -20
 452              		.cfi_offset 5, -16
 453              		.cfi_offset 6, -12
 454              		.cfi_offset 7, -8
ARM GAS  /tmp/cc9ZHD5t.s 			page 9


 455              		.cfi_offset 14, -4
 456              		.loc 1 429 3 view .LVU131
 457 0102 0B78     		ldrb	r3, [r1]	@ zero_extendqisi2
 458              		.loc 1 425 57 view .LVU132
 459 0104 87B0     		sub	sp, sp, #28
 460              		.cfi_def_cfa_offset 48
 461              		.loc 1 425 57 view .LVU133
 462 0106 0446     		mov	r4, r0
 463              		.loc 1 427 3 is_stmt 1 view .LVU134
 464              	.LVL34:
 465              		.loc 1 429 3 view .LVU135
 466 0108 2F2B     		cmp	r3, #47
 467 010a 00F2FF80 		bhi	.L13
 468 010e DFE813F0 		tbh	[pc, r3, lsl #1]
 469              	.L15:
 470 0112 A500     		.2byte	(.L22-.L15)/2
 471 0114 FD00     		.2byte	(.L13-.L15)/2
 472 0116 FD00     		.2byte	(.L13-.L15)/2
 473 0118 E400     		.2byte	(.L21-.L15)/2
 474 011a FD00     		.2byte	(.L13-.L15)/2
 475 011c FD00     		.2byte	(.L13-.L15)/2
 476 011e FD00     		.2byte	(.L13-.L15)/2
 477 0120 FD00     		.2byte	(.L13-.L15)/2
 478 0122 FD00     		.2byte	(.L13-.L15)/2
 479 0124 FD00     		.2byte	(.L13-.L15)/2
 480 0126 FD00     		.2byte	(.L13-.L15)/2
 481 0128 FD00     		.2byte	(.L13-.L15)/2
 482 012a FD00     		.2byte	(.L13-.L15)/2
 483 012c FD00     		.2byte	(.L13-.L15)/2
 484 012e FD00     		.2byte	(.L13-.L15)/2
 485 0130 FD00     		.2byte	(.L13-.L15)/2
 486 0132 FD00     		.2byte	(.L13-.L15)/2
 487 0134 FD00     		.2byte	(.L13-.L15)/2
 488 0136 4400     		.2byte	(.L20-.L15)/2
 489 0138 FD00     		.2byte	(.L13-.L15)/2
 490 013a FD00     		.2byte	(.L13-.L15)/2
 491 013c FD00     		.2byte	(.L13-.L15)/2
 492 013e FD00     		.2byte	(.L13-.L15)/2
 493 0140 FD00     		.2byte	(.L13-.L15)/2
 494 0142 FD00     		.2byte	(.L13-.L15)/2
 495 0144 FD00     		.2byte	(.L13-.L15)/2
 496 0146 8800     		.2byte	(.L19-.L15)/2
 497 0148 FD00     		.2byte	(.L13-.L15)/2
 498 014a FD00     		.2byte	(.L13-.L15)/2
 499 014c FD00     		.2byte	(.L13-.L15)/2
 500 014e 3300     		.2byte	(.L34-.L15)/2
 501 0150 FD00     		.2byte	(.L13-.L15)/2
 502 0152 FD00     		.2byte	(.L13-.L15)/2
 503 0154 FD00     		.2byte	(.L13-.L15)/2
 504 0156 FD00     		.2byte	(.L13-.L15)/2
 505 0158 5700     		.2byte	(.L18-.L15)/2
 506 015a FD00     		.2byte	(.L13-.L15)/2
 507 015c BF00     		.2byte	(.L17-.L15)/2
 508 015e FD00     		.2byte	(.L13-.L15)/2
 509 0160 FD00     		.2byte	(.L13-.L15)/2
 510 0162 3000     		.2byte	(.L16-.L15)/2
 511 0164 FD00     		.2byte	(.L13-.L15)/2
ARM GAS  /tmp/cc9ZHD5t.s 			page 10


 512 0166 3000     		.2byte	(.L16-.L15)/2
 513 0168 FD00     		.2byte	(.L13-.L15)/2
 514 016a FD00     		.2byte	(.L13-.L15)/2
 515 016c FD00     		.2byte	(.L13-.L15)/2
 516 016e FD00     		.2byte	(.L13-.L15)/2
 517 0170 3300     		.2byte	(.L34-.L15)/2
 518              		.p2align 1
 519              	.L16:
 520              		.loc 1 446 5 view .LVU136
 521              		.loc 1 446 5 view .LVU137
 522              		.loc 1 447 5 view .LVU138
 523              		.loc 1 447 11 is_stmt 0 view .LVU139
 524 0172 FFF745FF 		bl	data_read_write10
 525              	.LVL35:
 526              		.loc 1 448 5 is_stmt 1 view .LVU140
 527              		.loc 1 486 3 view .LVU141
 528              		.loc 1 486 6 is_stmt 0 view .LVU142
 529 0176 70B9     		cbnz	r0, .L26
 530              	.LVL36:
 531              	.L34:
 532              		.loc 1 486 3 is_stmt 1 view .LVU143
 533 0178 651D     		adds	r5, r4, #5
 534              	.L23:
 535              		.loc 1 487 5 view .LVU144
 536              	.LVL37:
 537              	.LBB181:
 538              	.LBI181:
 539              		.loc 1 110 13 view .LVU145
 540              	.LBE181:
 541              		.loc 1 111 3 view .LVU146
 542              	.LBB184:
 543              	.LBB182:
 544              	.LBI182:
 545              		.loc 1 90 13 view .LVU147
 546              	.LBB183:
 547              		.loc 1 93 3 view .LVU148
 548              		.loc 1 94 3 view .LVU149
 549 017a 0023     		movs	r3, #0
 550              		.loc 1 96 19 is_stmt 0 view .LVU150
 551 017c 7021     		movs	r1, #112
 552              		.loc 1 98 19 view .LVU151
 553 017e 0822     		movs	r2, #8
 554              		.loc 1 100 19 view .LVU152
 555 0180 1846     		mov	r0, r3
 556              		.loc 1 94 3 view .LVU153
 557 0182 2B60     		str	r3, [r5]	@ unaligned
 558 0184 6B60     		str	r3, [r5, #4]	@ unaligned
 559 0186 AB60     		str	r3, [r5, #8]	@ unaligned
 560 0188 EB60     		str	r3, [r5, #12]	@ unaligned
 561 018a 2B82     		strh	r3, [r5, #16]	@ unaligned
 562              		.loc 1 96 3 is_stmt 1 view .LVU154
 563              		.loc 1 97 19 is_stmt 0 view .LVU155
 564 018c E371     		strb	r3, [r4, #7]
 565              		.loc 1 99 19 view .LVU156
 566 018e 6374     		strb	r3, [r4, #17]
 567              		.loc 1 100 19 view .LVU157
 568 0190 A374     		strb	r3, [r4, #18]
ARM GAS  /tmp/cc9ZHD5t.s 			page 11


 569              		.loc 1 96 19 view .LVU158
 570 0192 6171     		strb	r1, [r4, #5]
 571              		.loc 1 97 3 is_stmt 1 view .LVU159
 572              		.loc 1 98 3 view .LVU160
 573              		.loc 1 98 19 is_stmt 0 view .LVU161
 574 0194 2273     		strb	r2, [r4, #12]
 575              		.loc 1 99 3 is_stmt 1 view .LVU162
 576              		.loc 1 100 3 view .LVU163
 577              	.LVL38:
 578              	.L26:
 579              		.loc 1 100 3 is_stmt 0 view .LVU164
 580              	.LBE183:
 581              	.LBE182:
 582              	.LBE184:
 583              		.loc 1 489 3 is_stmt 1 view .LVU165
 584              		.loc 1 490 1 is_stmt 0 view .LVU166
 585 0196 07B0     		add	sp, sp, #28
 586              		.cfi_remember_state
 587              		.cfi_def_cfa_offset 20
 588              		@ sp needed
 589 0198 F0BD     		pop	{r4, r5, r6, r7, pc}
 590              	.LVL39:
 591              	.L20:
 592              		.cfi_restore_state
 593              		.loc 1 431 5 is_stmt 1 view .LVU167
 594              		.loc 1 431 5 view .LVU168
 595              		.loc 1 432 5 view .LVU169
 596              	.LBB185:
 597              	.LBI185:
 598              		.loc 1 175 13 view .LVU170
 599              	.LBB186:
 600              		.loc 1 177 3 view .LVU171
 601              		.loc 1 177 11 is_stmt 0 view .LVU172
 602 019a 4B78     		ldrb	r3, [r1, #1]	@ zero_extendqisi2
 603              		.loc 1 177 6 view .LVU173
 604 019c D807     		lsls	r0, r3, #31
 605              	.LVL40:
 606              		.loc 1 177 6 view .LVU174
 607 019e 03D5     		bpl	.L24
 608              		.loc 1 177 22 view .LVU175
 609 01a0 8A78     		ldrb	r2, [r1, #2]	@ zero_extendqisi2
 610 01a2 802A     		cmp	r2, #128
 611 01a4 00F0D480 		beq	.L54
 612              	.L24:
 613              		.loc 1 182 8 is_stmt 1 view .LVU176
 614              		.loc 1 182 11 is_stmt 0 view .LVU177
 615 01a8 9A07     		lsls	r2, r3, #30
 616 01aa 03D1     		bne	.L27
 617              		.loc 1 182 28 view .LVU178
 618 01ac 8B78     		ldrb	r3, [r1, #2]	@ zero_extendqisi2
 619 01ae 002B     		cmp	r3, #0
 620 01b0 00F0C380 		beq	.L28
 621              	.L27:
 622              		.loc 1 183 5 is_stmt 1 view .LVU179
 623              	.LVL41:
 624              	.LBB187:
 625              	.LBI187:
ARM GAS  /tmp/cc9ZHD5t.s 			page 12


 626              		.loc 1 90 13 view .LVU180
 627              	.LBB188:
 628              		.loc 1 93 3 view .LVU181
 629              		.loc 1 94 3 view .LVU182
 630 01b4 0023     		movs	r3, #0
 631              		.loc 1 96 19 is_stmt 0 view .LVU183
 632 01b6 7027     		movs	r7, #112
 633              		.loc 1 97 19 view .LVU184
 634 01b8 0526     		movs	r6, #5
 635              		.loc 1 98 19 view .LVU185
 636 01ba 0825     		movs	r5, #8
 637              		.loc 1 99 19 view .LVU186
 638 01bc 2421     		movs	r1, #36
 639              	.LVL42:
 640              		.loc 1 99 19 view .LVU187
 641 01be AAE0     		b	.L53
 642              	.LVL43:
 643              	.L18:
 644              		.loc 1 99 19 view .LVU188
 645              	.LBE188:
 646              	.LBE187:
 647              	.LBE186:
 648              	.LBE185:
 649              		.loc 1 471 5 is_stmt 1 view .LVU189
 650              		.loc 1 471 5 view .LVU190
 651              		.loc 1 472 5 view .LVU191
 652              	.LBB194:
 653              	.LBI194:
 654              		.loc 1 255 13 view .LVU192
 655              	.LBB195:
 656              		.loc 1 263 3 view .LVU193
 657              		.loc 1 265 3 view .LVU194
 658              		.loc 1 263 21 is_stmt 0 view .LVU195
 659 01c0 CA79     		ldrb	r2, [r1, #7]	@ zero_extendqisi2
 660              		.loc 1 263 35 view .LVU196
 661 01c2 0B7A     		ldrb	r3, [r1, #8]	@ zero_extendqisi2
 662              		.loc 1 265 6 view .LVU197
 663 01c4 53EA0223 		orrs	r3, r3, r2, lsl #8
 664 01c8 D6D0     		beq	.L34
 665              	.LBB196:
 666              		.loc 1 269 5 is_stmt 1 view .LVU198
 667              		.loc 1 270 5 view .LVU199
 668              		.loc 1 271 5 view .LVU200
 669 01ca 0368     		ldr	r3, [r0]
 670 01cc 01A9     		add	r1, sp, #4
 671              	.LVL44:
 672              		.loc 1 278 21 is_stmt 0 view .LVU201
 673 01ce 0226     		movs	r6, #2
 674              		.loc 1 271 5 view .LVU202
 675 01d0 5868     		ldr	r0, [r3, #4]
 676              	.LVL45:
 677              		.loc 1 271 5 view .LVU203
 678 01d2 0368     		ldr	r3, [r0]
 679 01d4 1B6A     		ldr	r3, [r3, #32]
 680 01d6 9847     		blx	r3
 681              	.LVL46:
 682              		.loc 1 273 5 is_stmt 1 view .LVU204
ARM GAS  /tmp/cc9ZHD5t.s 			page 13


 683              		.loc 1 273 20 is_stmt 0 view .LVU205
 684 01d8 029A     		ldr	r2, [sp, #8]
 685              	.LVL47:
 686              	.LBB197:
 687              	.LBI197:
 688              		.loc 2 134 24 is_stmt 1 view .LVU206
 689              	.LBB198:
 690              		.loc 2 135 5 view .LVU207
 691              		.loc 2 138 5 view .LVU208
 692              		.loc 2 139 5 view .LVU209
 693              		.loc 2 141 5 view .LVU210
 694              		.loc 2 142 5 view .LVU211
 695              		.loc 2 143 5 view .LVU212
 696              		.loc 2 143 15 is_stmt 0 view .LVU213
 697 01da 0023     		movs	r3, #0
 698              	.LVL48:
 699              		.loc 2 143 15 view .LVU214
 700 01dc BDF80410 		ldrh	r1, [sp, #4]
 701 01e0 150E     		lsrs	r5, r2, #24
 702              		.loc 2 146 15 view .LVU215
 703 01e2 C2F30740 		ubfx	r0, r2, #16, #8
 704 01e6 49BA     		rev16	r1, r1
 705              	.LBE198:
 706              	.LBE197:
 707              		.loc 1 278 21 view .LVU216
 708 01e8 ADF81460 		strh	r6, [sp, #20]	@ movhi
 709              	.LBB203:
 710              	.LBB199:
 711              		.loc 2 143 15 view .LVU217
 712 01ec 65F30703 		bfi	r3, r5, #0, #8
 713              	.LVL49:
 714              		.loc 2 144 5 is_stmt 1 view .LVU218
 715              		.loc 2 147 15 is_stmt 0 view .LVU219
 716 01f0 C2F30725 		ubfx	r5, r2, #8, #8
 717              	.LBE199:
 718              	.LBE203:
 719              		.loc 1 280 21 view .LVU220
 720 01f4 ADF81610 		strh	r1, [sp, #22]	@ movhi
 721              		.loc 1 283 19 view .LVU221
 722 01f8 0821     		movs	r1, #8
 723              	.LBB204:
 724              	.LBB200:
 725              		.loc 2 144 15 view .LVU222
 726 01fa 62F31F63 		bfi	r3, r2, #24, #8
 727              		.loc 2 145 5 is_stmt 1 view .LVU223
 728              	.LVL50:
 729              		.loc 2 146 5 view .LVU224
 730              	.LBE200:
 731              	.LBE204:
 732              	.LBB205:
 733              	.LBB206:
 734              		.loc 1 130 34 is_stmt 0 view .LVU225
 735 01fe 0C22     		movs	r2, #12
 736              	.LVL51:
 737              		.loc 1 130 34 view .LVU226
 738              	.LBE206:
 739              	.LBE205:
ARM GAS  /tmp/cc9ZHD5t.s 			page 14


 740              		.loc 1 283 19 view .LVU227
 741 0200 8DF80F10 		strb	r1, [sp, #15]
 742              	.LBB211:
 743              	.LBB201:
 744              		.loc 2 146 15 view .LVU228
 745 0204 60F30F23 		bfi	r3, r0, #8, #8
 746              		.loc 2 147 5 is_stmt 1 view .LVU229
 747              	.LBE201:
 748              	.LBE211:
 749              	.LBB212:
 750              	.LBB207:
 751              		.loc 1 129 24 is_stmt 0 view .LVU230
 752 0208 2068     		ldr	r0, [r4]
 753              		.loc 1 130 34 view .LVU231
 754 020a 0DEB0201 		add	r1, sp, r2
 755              	.LBE207:
 756              	.LBE212:
 757              	.LBB213:
 758              	.LBB202:
 759              		.loc 2 147 15 view .LVU232
 760 020e 65F31743 		bfi	r3, r5, #16, #8
 761              		.loc 2 149 5 is_stmt 1 view .LVU233
 762              	.LVL52:
 763              		.loc 2 149 5 is_stmt 0 view .LVU234
 764              	.LBE202:
 765              	.LBE213:
 766              		.loc 1 274 5 is_stmt 1 view .LVU235
 767 0212 0493     		str	r3, [sp, #16]
 768              		.loc 1 276 5 view .LVU236
 769              	.LVL53:
 770              		.loc 1 277 5 view .LVU237
 771              		.loc 1 278 5 view .LVU238
 772              		.loc 1 279 5 view .LVU239
 773              		.loc 1 280 5 view .LVU240
 774              		.loc 1 281 5 view .LVU241
 775              		.loc 1 283 5 view .LVU242
 776              		.loc 1 285 5 view .LVU243
 777              	.LBB214:
 778              	.LBI205:
 779              		.loc 1 127 13 view .LVU244
 780              	.LBB208:
 781              		.loc 1 129 3 view .LVU245
 782              		.loc 1 129 24 is_stmt 0 view .LVU246
 783 0214 0068     		ldr	r0, [r0]
 784              	.LVL54:
 785              		.loc 1 130 3 is_stmt 1 view .LVU247
 786              		.loc 1 130 34 is_stmt 0 view .LVU248
 787 0216 0368     		ldr	r3, [r0]
 788              	.LVL55:
 789              		.loc 1 130 34 view .LVU249
 790 0218 9847     		blx	r3
 791              	.LVL56:
 792              		.loc 1 132 3 is_stmt 1 view .LVU250
 793              		.loc 1 132 6 is_stmt 0 view .LVU251
 794 021a D0F10C00 		rsbs	r0, r0, #12
 795              	.LVL57:
 796              		.loc 1 132 6 view .LVU252
ARM GAS  /tmp/cc9ZHD5t.s 			page 15


 797 021e ABD0     		beq	.L34
 798 0220 18E0     		b	.L52
 799              	.LVL58:
 800              	.L19:
 801              		.loc 1 132 6 view .LVU253
 802              	.LBE208:
 803              	.LBE214:
 804              	.LBE196:
 805              	.LBE195:
 806              	.LBE194:
 807              		.loc 1 466 5 is_stmt 1 view .LVU254
 808              		.loc 1 466 5 view .LVU255
 809              		.loc 1 467 5 view .LVU256
 810              	.LBB221:
 811              	.LBI221:
 812              		.loc 1 228 13 view .LVU257
 813              	.LBB222:
 814              		.loc 1 229 3 view .LVU258
 815              		.loc 1 231 3 view .LVU259
 816              		.loc 1 232 29 is_stmt 0 view .LVU260
 817 0222 0025     		movs	r5, #0
 818              		.loc 1 231 29 view .LVU261
 819 0224 0322     		movs	r2, #3
 820              		.loc 1 233 7 view .LVU262
 821 0226 0368     		ldr	r3, [r0]
 822              		.loc 1 231 29 view .LVU263
 823 0228 C275     		strb	r2, [r0, #23]
 824              		.loc 1 232 3 is_stmt 1 view .LVU264
 825              		.loc 1 232 29 is_stmt 0 view .LVU265
 826 022a 0576     		strb	r5, [r0, #24]
 827              		.loc 1 233 3 is_stmt 1 view .LVU266
 828              		.loc 1 233 7 is_stmt 0 view .LVU267
 829 022c 5868     		ldr	r0, [r3, #4]
 830              	.LVL59:
 831              		.loc 1 233 7 view .LVU268
 832 022e 0368     		ldr	r3, [r0]
 833 0230 9B68     		ldr	r3, [r3, #8]
 834 0232 9847     		blx	r3
 835              	.LVL60:
 836              		.loc 1 237 31 view .LVU269
 837 0234 A842     		cmp	r0, r5
 838              	.LBB223:
 839              	.LBB224:
 840              		.loc 1 129 24 view .LVU270
 841 0236 2146     		mov	r1, r4
 842              	.LBE224:
 843              	.LBE223:
 844              		.loc 1 239 29 view .LVU271
 845 0238 A576     		strb	r5, [r4, #26]
 846              		.loc 1 237 31 view .LVU272
 847 023a 14BF     		ite	ne
 848 023c 8023     		movne	r3, #128
 849 023e 2B46     		moveq	r3, r5
 850              	.LBB227:
 851              	.LBB225:
 852              		.loc 1 130 34 view .LVU273
 853 0240 0422     		movs	r2, #4
ARM GAS  /tmp/cc9ZHD5t.s 			page 16


 854 0242 6376     		strb	r3, [r4, #25]
 855              	.LBE225:
 856              	.LBE227:
 857              		.loc 1 239 3 is_stmt 1 view .LVU274
 858              		.loc 1 241 3 view .LVU275
 859              	.LVL61:
 860              	.LBB228:
 861              	.LBI223:
 862              		.loc 1 127 13 view .LVU276
 863              	.LBB226:
 864              		.loc 1 129 3 view .LVU277
 865              		.loc 1 129 24 is_stmt 0 view .LVU278
 866 0244 51F8173B 		ldr	r3, [r1], #23
 867              	.LVL62:
 868              		.loc 1 129 24 view .LVU279
 869 0248 1868     		ldr	r0, [r3]
 870              	.LVL63:
 871              		.loc 1 130 3 is_stmt 1 view .LVU280
 872              		.loc 1 130 34 is_stmt 0 view .LVU281
 873 024a 0368     		ldr	r3, [r0]
 874 024c 9847     		blx	r3
 875              	.LVL64:
 876              		.loc 1 132 3 is_stmt 1 view .LVU282
 877              		.loc 1 132 6 is_stmt 0 view .LVU283
 878 024e D0F10400 		rsbs	r0, r0, #4
 879              	.LVL65:
 880              		.loc 1 132 6 view .LVU284
 881 0252 91D0     		beq	.L34
 882              	.LVL66:
 883              	.L52:
 884              		.loc 1 132 6 view .LVU285
 885              	.LBE226:
 886              	.LBE228:
 887              	.LBE222:
 888              	.LBE221:
 889              	.LBB229:
 890              	.LBB219:
 891              	.LBB217:
 892              	.LBB215:
 893              	.LBB209:
 894              		.loc 1 133 5 is_stmt 1 view .LVU286
 895              		.loc 1 133 20 is_stmt 0 view .LVU287
 896 0254 E061     		str	r0, [r4, #28]
 897              		.loc 1 134 5 is_stmt 1 view .LVU288
 898              	.LVL67:
 899              		.loc 1 134 5 is_stmt 0 view .LVU289
 900              	.LBE209:
 901              	.LBE215:
 902              	.LBE217:
 903              	.LBE219:
 904              	.LBE229:
 905              		.loc 1 486 3 is_stmt 1 view .LVU290
 906              	.LBB230:
 907              	.LBB220:
 908              	.LBB218:
 909              	.LBB216:
 910              	.LBB210:
ARM GAS  /tmp/cc9ZHD5t.s 			page 17


 911              		.loc 1 134 12 is_stmt 0 view .LVU291
 912 0256 0120     		movs	r0, #1
 913              	.LBE210:
 914              	.LBE216:
 915              	.LBE218:
 916              	.LBE220:
 917              	.LBE230:
 918              		.loc 1 489 3 is_stmt 1 view .LVU292
 919              		.loc 1 490 1 is_stmt 0 view .LVU293
 920 0258 07B0     		add	sp, sp, #28
 921              		.cfi_remember_state
 922              		.cfi_def_cfa_offset 20
 923              		@ sp needed
 924 025a F0BD     		pop	{r4, r5, r6, r7, pc}
 925              	.LVL68:
 926              	.L22:
 927              		.cfi_restore_state
 928              		.loc 1 456 5 is_stmt 1 view .LVU294
 929              		.loc 1 456 5 view .LVU295
 930              		.loc 1 457 5 view .LVU296
 931              	.LBB231:
 932              	.LBI231:
 933              		.loc 1 391 13 view .LVU297
 934              	.LBB232:
 935              		.loc 1 392 3 view .LVU298
 936              		.loc 1 394 3 view .LVU299
 937              		.loc 1 394 7 is_stmt 0 view .LVU300
 938 025c 0546     		mov	r5, r0
 939 025e 55F8053B 		ldr	r3, [r5], #5
 940 0262 5868     		ldr	r0, [r3, #4]
 941              	.LVL69:
 942              		.loc 1 394 7 view .LVU301
 943 0264 0368     		ldr	r3, [r0]
 944 0266 5B68     		ldr	r3, [r3, #4]
 945 0268 9847     		blx	r3
 946              	.LVL70:
 947              		.loc 1 394 6 view .LVU302
 948 026a 0028     		cmp	r0, #0
 949 026c 85D1     		bne	.L23
 950              		.loc 1 398 5 is_stmt 1 view .LVU303
 951              		.loc 1 398 5 view .LVU304
 952              		.loc 1 399 5 view .LVU305
 953              	.LVL71:
 954              	.LBB233:
 955              	.LBI233:
 956              		.loc 1 90 13 view .LVU306
 957              	.LBB234:
 958              		.loc 1 93 3 view .LVU307
 959              		.loc 1 94 3 view .LVU308
 960              		.loc 1 96 19 is_stmt 0 view .LVU309
 961 026e 7026     		movs	r6, #112
 962              		.loc 1 97 19 view .LVU310
 963 0270 0221     		movs	r1, #2
 964              		.loc 1 98 19 view .LVU311
 965 0272 0822     		movs	r2, #8
 966              		.loc 1 99 19 view .LVU312
 967 0274 3A23     		movs	r3, #58
ARM GAS  /tmp/cc9ZHD5t.s 			page 18


 968              		.loc 1 94 3 view .LVU313
 969 0276 C4F80500 		str	r0, [r4, #5]	@ unaligned
 970 027a 6860     		str	r0, [r5, #4]	@ unaligned
 971 027c A860     		str	r0, [r5, #8]	@ unaligned
 972 027e E860     		str	r0, [r5, #12]	@ unaligned
 973 0280 2882     		strh	r0, [r5, #16]	@ unaligned
 974              		.loc 1 96 3 is_stmt 1 view .LVU314
 975              		.loc 1 100 19 is_stmt 0 view .LVU315
 976 0282 A074     		strb	r0, [r4, #18]
 977              	.LBE234:
 978              	.LBE233:
 979              		.loc 1 402 12 view .LVU316
 980 0284 0120     		movs	r0, #1
 981              	.LBB236:
 982              	.LBB235:
 983              		.loc 1 96 19 view .LVU317
 984 0286 6671     		strb	r6, [r4, #5]
 985              		.loc 1 97 3 is_stmt 1 view .LVU318
 986              		.loc 1 97 19 is_stmt 0 view .LVU319
 987 0288 E171     		strb	r1, [r4, #7]
 988              		.loc 1 98 3 is_stmt 1 view .LVU320
 989              		.loc 1 98 19 is_stmt 0 view .LVU321
 990 028a 2273     		strb	r2, [r4, #12]
 991              		.loc 1 99 3 is_stmt 1 view .LVU322
 992              		.loc 1 99 19 is_stmt 0 view .LVU323
 993 028c 6374     		strb	r3, [r4, #17]
 994              		.loc 1 100 3 is_stmt 1 view .LVU324
 995              	.LVL72:
 996              		.loc 1 100 3 is_stmt 0 view .LVU325
 997              	.LBE235:
 998              	.LBE236:
 999              		.loc 1 402 5 is_stmt 1 view .LVU326
 1000              		.loc 1 402 5 is_stmt 0 view .LVU327
 1001              	.LBE232:
 1002              	.LBE231:
 1003              		.loc 1 486 3 is_stmt 1 view .LVU328
 1004 028e 82E7     		b	.L26
 1005              	.LVL73:
 1006              	.L17:
 1007              		.loc 1 441 5 view .LVU329
 1008              		.loc 1 441 5 view .LVU330
 1009              		.loc 1 442 5 view .LVU331
 1010              	.LBB237:
 1011              	.LBI237:
 1012              		.loc 1 300 13 view .LVU332
 1013              	.LBB238:
 1014              		.loc 1 302 3 view .LVU333
 1015              		.loc 1 304 3 view .LVU334
 1016              		.loc 1 305 3 view .LVU335
 1017 0290 0368     		ldr	r3, [r0]
 1018 0292 01A9     		add	r1, sp, #4
 1019              	.LVL74:
 1020              		.loc 1 305 3 is_stmt 0 view .LVU336
 1021 0294 5868     		ldr	r0, [r3, #4]
 1022              	.LVL75:
 1023              		.loc 1 305 3 view .LVU337
 1024 0296 0368     		ldr	r3, [r0]
ARM GAS  /tmp/cc9ZHD5t.s 			page 19


 1025 0298 1B6A     		ldr	r3, [r3, #32]
 1026 029a 9847     		blx	r3
 1027              	.LVL76:
 1028              		.loc 1 306 3 is_stmt 1 view .LVU338
 1029              		.loc 1 307 3 view .LVU339
 1030              		.loc 1 307 25 is_stmt 0 view .LVU340
 1031 029c 0199     		ldr	r1, [sp, #4]
 1032              	.LVL77:
 1033              	.LBB239:
 1034              	.LBI239:
 1035              		.loc 2 134 24 is_stmt 1 view .LVU341
 1036              	.LBB240:
 1037              		.loc 2 135 5 view .LVU342
 1038              		.loc 2 138 5 view .LVU343
 1039              		.loc 2 139 5 view .LVU344
 1040              		.loc 2 141 5 view .LVU345
 1041              		.loc 2 142 5 view .LVU346
 1042              		.loc 2 143 5 view .LVU347
 1043              		.loc 2 143 15 is_stmt 0 view .LVU348
 1044 029e 0023     		movs	r3, #0
 1045              	.LVL78:
 1046              		.loc 2 143 15 view .LVU349
 1047              	.LBE240:
 1048              	.LBE239:
 1049              		.loc 1 308 25 view .LVU350
 1050 02a0 029A     		ldr	r2, [sp, #8]
 1051              	.LBB245:
 1052              	.LBB241:
 1053              		.loc 2 143 15 view .LVU351
 1054 02a2 0D0E     		lsrs	r5, r1, #24
 1055              		.loc 2 146 15 view .LVU352
 1056 02a4 C1F30740 		ubfx	r0, r1, #16, #8
 1057              	.LBE241:
 1058              	.LBE245:
 1059              		.loc 1 308 25 view .LVU353
 1060 02a8 013A     		subs	r2, r2, #1
 1061              	.LBB246:
 1062              	.LBB242:
 1063              		.loc 2 143 15 view .LVU354
 1064 02aa 65F30703 		bfi	r3, r5, #0, #8
 1065              	.LVL79:
 1066              		.loc 2 144 5 is_stmt 1 view .LVU355
 1067              		.loc 2 147 15 is_stmt 0 view .LVU356
 1068 02ae C1F30725 		ubfx	r5, r1, #8, #8
 1069 02b2 12BA     		rev	r2, r2
 1070              		.loc 2 144 15 view .LVU357
 1071 02b4 61F31F63 		bfi	r3, r1, #24, #8
 1072              		.loc 2 145 5 is_stmt 1 view .LVU358
 1073              	.LVL80:
 1074              		.loc 2 146 5 view .LVU359
 1075              	.LBE242:
 1076              	.LBE246:
 1077              	.LBB247:
 1078              	.LBB248:
 1079              		.loc 1 129 24 is_stmt 0 view .LVU360
 1080 02b8 2168     		ldr	r1, [r4]
 1081              	.LVL81:
ARM GAS  /tmp/cc9ZHD5t.s 			page 20


 1082              		.loc 1 129 24 view .LVU361
 1083              	.LBE248:
 1084              	.LBE247:
 1085              		.loc 1 308 23 view .LVU362
 1086 02ba 0392     		str	r2, [sp, #12]
 1087              	.LBB253:
 1088              	.LBB249:
 1089              		.loc 1 130 34 view .LVU363
 1090 02bc 0822     		movs	r2, #8
 1091              	.LBE249:
 1092              	.LBE253:
 1093              	.LBB254:
 1094              	.LBB243:
 1095              		.loc 2 146 15 view .LVU364
 1096 02be 60F30F23 		bfi	r3, r0, #8, #8
 1097              		.loc 2 147 5 is_stmt 1 view .LVU365
 1098              	.LBE243:
 1099              	.LBE254:
 1100              	.LBB255:
 1101              	.LBB250:
 1102              		.loc 1 129 24 is_stmt 0 view .LVU366
 1103 02c2 0868     		ldr	r0, [r1]
 1104              		.loc 1 130 34 view .LVU367
 1105 02c4 03A9     		add	r1, sp, #12
 1106              	.LBE250:
 1107              	.LBE255:
 1108              	.LBB256:
 1109              	.LBB244:
 1110              		.loc 2 147 15 view .LVU368
 1111 02c6 65F31743 		bfi	r3, r5, #16, #8
 1112              		.loc 2 149 5 is_stmt 1 view .LVU369
 1113              	.LVL82:
 1114              		.loc 2 149 5 is_stmt 0 view .LVU370
 1115              	.LBE244:
 1116              	.LBE256:
 1117              	.LBB257:
 1118              	.LBB251:
 1119              		.loc 1 130 34 view .LVU371
 1120 02ca 0568     		ldr	r5, [r0]
 1121              	.LBE251:
 1122              	.LBE257:
 1123              		.loc 1 307 23 view .LVU372
 1124 02cc 0493     		str	r3, [sp, #16]
 1125              		.loc 1 308 3 is_stmt 1 view .LVU373
 1126              	.LVL83:
 1127              	.LBB258:
 1128              	.LBI258:
 1129              		.loc 2 134 24 view .LVU374
 1130              	.LBB259:
 1131              		.loc 2 135 5 view .LVU375
 1132              		.loc 2 138 5 view .LVU376
 1133              		.loc 2 139 5 view .LVU377
 1134              		.loc 2 141 5 view .LVU378
 1135              		.loc 2 142 5 view .LVU379
 1136              		.loc 2 143 5 view .LVU380
 1137              		.loc 2 144 5 view .LVU381
 1138              		.loc 2 145 5 view .LVU382
ARM GAS  /tmp/cc9ZHD5t.s 			page 21


 1139              		.loc 2 146 5 view .LVU383
 1140              		.loc 2 147 5 view .LVU384
 1141              		.loc 2 149 5 view .LVU385
 1142              		.loc 2 149 5 is_stmt 0 view .LVU386
 1143              	.LBE259:
 1144              	.LBE258:
 1145              		.loc 1 310 3 is_stmt 1 view .LVU387
 1146              	.LBB260:
 1147              	.LBI247:
 1148              		.loc 1 127 13 view .LVU388
 1149              	.LBB252:
 1150              		.loc 1 129 3 view .LVU389
 1151              		.loc 1 130 3 view .LVU390
 1152              		.loc 1 130 34 is_stmt 0 view .LVU391
 1153 02ce A847     		blx	r5
 1154              	.LVL84:
 1155              		.loc 1 132 3 is_stmt 1 view .LVU392
 1156              		.loc 1 132 6 is_stmt 0 view .LVU393
 1157 02d0 D0F10800 		rsbs	r0, r0, #8
 1158              	.LVL85:
 1159              		.loc 1 132 6 view .LVU394
 1160 02d4 3FF450AF 		beq	.L34
 1161 02d8 BCE7     		b	.L52
 1162              	.LVL86:
 1163              	.L21:
 1164              		.loc 1 132 6 view .LVU395
 1165              	.LBE252:
 1166              	.LBE260:
 1167              	.LBE238:
 1168              	.LBE237:
 1169              		.loc 1 436 5 is_stmt 1 view .LVU396
 1170              		.loc 1 436 5 view .LVU397
 1171              		.loc 1 437 5 view .LVU398
 1172              	.LBB261:
 1173              	.LBI261:
 1174              		.loc 1 204 13 view .LVU399
 1175              	.LBB262:
 1176              		.loc 1 206 3 view .LVU400
 1177              		.loc 1 206 6 is_stmt 0 view .LVU401
 1178 02da 4B78     		ldrb	r3, [r1, #1]	@ zero_extendqisi2
 1179 02dc 451D     		adds	r5, r0, #5
 1180 02de DB07     		lsls	r3, r3, #31
 1181 02e0 02D4     		bmi	.L30
 1182              		.loc 1 206 30 view .LVU402
 1183 02e2 0A79     		ldrb	r2, [r1, #4]	@ zero_extendqisi2
 1184 02e4 122A     		cmp	r2, #18
 1185 02e6 3ED0     		beq	.L31
 1186              	.L30:
 1187              		.loc 1 207 5 is_stmt 1 view .LVU403
 1188              	.LVL87:
 1189              	.LBB263:
 1190              	.LBI263:
 1191              		.loc 1 90 13 view .LVU404
 1192              	.LBB264:
 1193              		.loc 1 93 3 view .LVU405
 1194              		.loc 1 94 3 view .LVU406
 1195 02e8 0023     		movs	r3, #0
ARM GAS  /tmp/cc9ZHD5t.s 			page 22


 1196              		.loc 1 96 19 is_stmt 0 view .LVU407
 1197 02ea 7027     		movs	r7, #112
 1198              		.loc 1 97 19 view .LVU408
 1199 02ec 0526     		movs	r6, #5
 1200              		.loc 1 98 19 view .LVU409
 1201 02ee 0821     		movs	r1, #8
 1202              	.LVL88:
 1203              		.loc 1 99 19 view .LVU410
 1204 02f0 2422     		movs	r2, #36
 1205              		.loc 1 94 3 view .LVU411
 1206 02f2 C4F80530 		str	r3, [r4, #5]	@ unaligned
 1207              	.LBE264:
 1208              	.LBE263:
 1209              		.loc 1 210 12 view .LVU412
 1210 02f6 0120     		movs	r0, #1
 1211              	.LVL89:
 1212              	.LBB266:
 1213              	.LBB265:
 1214              		.loc 1 94 3 view .LVU413
 1215 02f8 6B60     		str	r3, [r5, #4]	@ unaligned
 1216 02fa AB60     		str	r3, [r5, #8]	@ unaligned
 1217 02fc EB60     		str	r3, [r5, #12]	@ unaligned
 1218 02fe 2B82     		strh	r3, [r5, #16]	@ unaligned
 1219              		.loc 1 96 3 is_stmt 1 view .LVU414
 1220              		.loc 1 100 19 is_stmt 0 view .LVU415
 1221 0300 A374     		strb	r3, [r4, #18]
 1222              		.loc 1 96 19 view .LVU416
 1223 0302 6771     		strb	r7, [r4, #5]
 1224              		.loc 1 97 3 is_stmt 1 view .LVU417
 1225              		.loc 1 97 19 is_stmt 0 view .LVU418
 1226 0304 E671     		strb	r6, [r4, #7]
 1227              		.loc 1 98 3 is_stmt 1 view .LVU419
 1228              		.loc 1 98 19 is_stmt 0 view .LVU420
 1229 0306 2173     		strb	r1, [r4, #12]
 1230              		.loc 1 99 3 is_stmt 1 view .LVU421
 1231              		.loc 1 99 19 is_stmt 0 view .LVU422
 1232 0308 6274     		strb	r2, [r4, #17]
 1233              		.loc 1 100 3 is_stmt 1 view .LVU423
 1234              	.LVL90:
 1235              		.loc 1 100 3 is_stmt 0 view .LVU424
 1236              	.LBE265:
 1237              	.LBE266:
 1238              		.loc 1 210 5 is_stmt 1 view .LVU425
 1239              		.loc 1 210 5 is_stmt 0 view .LVU426
 1240              	.LBE262:
 1241              	.LBE261:
 1242              		.loc 1 486 3 is_stmt 1 view .LVU427
 1243 030a 44E7     		b	.L26
 1244              	.LVL91:
 1245              	.L13:
 1246              		.loc 1 481 5 view .LVU428
 1247              		.loc 1 481 5 view .LVU429
 1248              		.loc 1 482 5 view .LVU430
 1249              	.LBB270:
 1250              	.LBI270:
 1251              		.loc 1 145 13 view .LVU431
 1252              		.loc 1 145 13 is_stmt 0 view .LVU432
ARM GAS  /tmp/cc9ZHD5t.s 			page 23


 1253              	.LBE270:
 1254              		.loc 1 146 3 is_stmt 1 view .LVU433
 1255              		.loc 1 148 3 view .LVU434
 1256              	.LBB275:
 1257              	.LBB271:
 1258              	.LBI271:
 1259              		.loc 1 90 13 view .LVU435
 1260              	.LBB272:
 1261              		.loc 1 93 3 view .LVU436
 1262              		.loc 1 94 3 view .LVU437
 1263 030c 0023     		movs	r3, #0
 1264              		.loc 1 96 19 is_stmt 0 view .LVU438
 1265 030e 7027     		movs	r7, #112
 1266              		.loc 1 97 19 view .LVU439
 1267 0310 0526     		movs	r6, #5
 1268              		.loc 1 98 19 view .LVU440
 1269 0312 0825     		movs	r5, #8
 1270              		.loc 1 99 19 view .LVU441
 1271 0314 2021     		movs	r1, #32
 1272              	.LVL92:
 1273              	.L53:
 1274              		.loc 1 99 19 view .LVU442
 1275              	.LBE272:
 1276              	.LBE271:
 1277              	.LBE275:
 1278              		.loc 1 482 11 view .LVU443
 1279 0316 0120     		movs	r0, #1
 1280              	.LBB276:
 1281              	.LBB274:
 1282              	.LBB273:
 1283              		.loc 1 94 3 view .LVU444
 1284 0318 C4F80530 		str	r3, [r4, #5]	@ unaligned
 1285 031c C4F81130 		str	r3, [r4, #17]	@ unaligned
 1286 0320 C4F80930 		str	r3, [r4, #9]	@ unaligned
 1287 0324 C4F80D30 		str	r3, [r4, #13]	@ unaligned
 1288 0328 A4F81530 		strh	r3, [r4, #21]	@ unaligned
 1289              		.loc 1 96 3 is_stmt 1 view .LVU445
 1290              		.loc 1 100 19 is_stmt 0 view .LVU446
 1291 032c A374     		strb	r3, [r4, #18]
 1292              		.loc 1 96 19 view .LVU447
 1293 032e 6771     		strb	r7, [r4, #5]
 1294              		.loc 1 97 3 is_stmt 1 view .LVU448
 1295              		.loc 1 97 19 is_stmt 0 view .LVU449
 1296 0330 E671     		strb	r6, [r4, #7]
 1297              		.loc 1 98 3 is_stmt 1 view .LVU450
 1298              		.loc 1 98 19 is_stmt 0 view .LVU451
 1299 0332 2573     		strb	r5, [r4, #12]
 1300              		.loc 1 99 3 is_stmt 1 view .LVU452
 1301              		.loc 1 99 19 is_stmt 0 view .LVU453
 1302 0334 6174     		strb	r1, [r4, #17]
 1303              		.loc 1 100 3 is_stmt 1 view .LVU454
 1304              	.LBE273:
 1305              	.LBE274:
 1306              	.LBE276:
 1307              		.loc 1 151 3 view .LVU455
 1308              	.LVL93:
 1309              		.loc 1 483 5 view .LVU456
ARM GAS  /tmp/cc9ZHD5t.s 			page 24


 1310              		.loc 1 486 3 view .LVU457
 1311              		.loc 1 489 3 view .LVU458
 1312              		.loc 1 490 1 is_stmt 0 view .LVU459
 1313 0336 07B0     		add	sp, sp, #28
 1314              		.cfi_remember_state
 1315              		.cfi_def_cfa_offset 20
 1316              		@ sp needed
 1317 0338 F0BD     		pop	{r4, r5, r6, r7, pc}
 1318              	.LVL94:
 1319              	.L28:
 1320              		.cfi_restore_state
 1321              	.LBB277:
 1322              	.LBB193:
 1323              		.loc 1 189 5 is_stmt 1 view .LVU460
 1324              		.loc 1 189 55 is_stmt 0 view .LVU461
 1325 033a 2368     		ldr	r3, [r4]
 1326              	.LVL95:
 1327              	.LBB189:
 1328              	.LBI189:
 1329              		.loc 1 127 13 is_stmt 1 view .LVU462
 1330              	.LBB190:
 1331              		.loc 1 129 3 view .LVU463
 1332              		.loc 1 130 34 is_stmt 0 view .LVU464
 1333 033c 2422     		movs	r2, #36
 1334              		.loc 1 129 24 view .LVU465
 1335 033e 1868     		ldr	r0, [r3]
 1336              	.LVL96:
 1337              		.loc 1 130 3 is_stmt 1 view .LVU466
 1338              		.loc 1 130 34 is_stmt 0 view .LVU467
 1339 0340 D968     		ldr	r1, [r3, #12]
 1340              	.LVL97:
 1341              		.loc 1 130 34 view .LVU468
 1342 0342 0368     		ldr	r3, [r0]
 1343              	.LVL98:
 1344              		.loc 1 130 34 view .LVU469
 1345 0344 9847     		blx	r3
 1346              	.LVL99:
 1347              		.loc 1 132 3 is_stmt 1 view .LVU470
 1348              		.loc 1 132 6 is_stmt 0 view .LVU471
 1349 0346 D0F12400 		rsbs	r0, r0, #36
 1350              	.LVL100:
 1351              		.loc 1 132 6 view .LVU472
 1352 034a 3FF415AF 		beq	.L34
 1353 034e 81E7     		b	.L52
 1354              	.LVL101:
 1355              	.L54:
 1356              		.loc 1 132 6 view .LVU473
 1357              	.LBE190:
 1358              	.LBE189:
 1359              		.loc 1 179 5 is_stmt 1 view .LVU474
 1360              		.loc 1 179 55 is_stmt 0 view .LVU475
 1361 0350 2368     		ldr	r3, [r4]
 1362              	.LVL102:
 1363              	.LBB191:
 1364              	.LBI191:
 1365              		.loc 1 127 13 is_stmt 1 view .LVU476
 1366              	.LBB192:
ARM GAS  /tmp/cc9ZHD5t.s 			page 25


 1367              		.loc 1 129 3 view .LVU477
 1368              		.loc 1 130 34 is_stmt 0 view .LVU478
 1369 0352 0C22     		movs	r2, #12
 1370              		.loc 1 129 24 view .LVU479
 1371 0354 1868     		ldr	r0, [r3]
 1372              	.LVL103:
 1373              		.loc 1 130 3 is_stmt 1 view .LVU480
 1374              		.loc 1 130 34 is_stmt 0 view .LVU481
 1375 0356 1969     		ldr	r1, [r3, #16]
 1376              	.LVL104:
 1377              		.loc 1 130 34 view .LVU482
 1378 0358 0368     		ldr	r3, [r0]
 1379              	.LVL105:
 1380              		.loc 1 130 34 view .LVU483
 1381 035a 9847     		blx	r3
 1382              	.LVL106:
 1383              		.loc 1 132 3 is_stmt 1 view .LVU484
 1384              		.loc 1 132 6 is_stmt 0 view .LVU485
 1385 035c D0F10C00 		rsbs	r0, r0, #12
 1386              	.LVL107:
 1387              		.loc 1 132 6 view .LVU486
 1388 0360 7FF478AF 		bne	.L52
 1389 0364 08E7     		b	.L34
 1390              	.LVL108:
 1391              	.L31:
 1392              		.loc 1 132 6 view .LVU487
 1393              	.LBE192:
 1394              	.LBE191:
 1395              	.LBE193:
 1396              	.LBE277:
 1397              	.LBB278:
 1398              	.LBB269:
 1399              		.loc 1 213 5 is_stmt 1 view .LVU488
 1400              	.LBB267:
 1401              	.LBI267:
 1402              		.loc 1 127 13 view .LVU489
 1403              	.LBB268:
 1404              		.loc 1 129 3 view .LVU490
 1405              		.loc 1 129 24 is_stmt 0 view .LVU491
 1406 0366 0368     		ldr	r3, [r0]
 1407              		.loc 1 130 34 view .LVU492
 1408 0368 2946     		mov	r1, r5
 1409              	.LVL109:
 1410              		.loc 1 129 24 view .LVU493
 1411 036a 1868     		ldr	r0, [r3]
 1412              	.LVL110:
 1413              		.loc 1 130 3 is_stmt 1 view .LVU494
 1414              		.loc 1 130 34 is_stmt 0 view .LVU495
 1415 036c 0368     		ldr	r3, [r0]
 1416 036e 9847     		blx	r3
 1417              	.LVL111:
 1418              		.loc 1 132 3 is_stmt 1 view .LVU496
 1419              		.loc 1 132 6 is_stmt 0 view .LVU497
 1420 0370 D0F11200 		rsbs	r0, r0, #18
 1421              	.LVL112:
 1422              		.loc 1 132 6 view .LVU498
 1423 0374 3FF401AF 		beq	.L23
ARM GAS  /tmp/cc9ZHD5t.s 			page 26


 1424 0378 6CE7     		b	.L52
 1425              	.LBE268:
 1426              	.LBE267:
 1427              	.LBE269:
 1428              	.LBE278:
 1429              		.cfi_endproc
 1430              	.LFE380:
 1431              		.size	scsiExecCmd, .-scsiExecCmd
 1432              		.align	1
 1433 037a 00BFAFF3 		.p2align 4,,15
 1433      0080
 1434              		.global	scsiObjectInit
 1435              		.syntax unified
 1436              		.thumb
 1437              		.thumb_func
 1438              		.fpu fpv4-sp-d16
 1439              		.type	scsiObjectInit, %function
 1440              	scsiObjectInit:
 1441              	.LVL113:
 1442              	.LFB381:
 1443              		.loc 1 499 40 is_stmt 1 view -0
 1444              		.cfi_startproc
 1445              		@ args = 0, pretend = 0, frame = 0
 1446              		@ frame_needed = 0, uses_anonymous_args = 0
 1447              		@ link register save eliminated.
 1448              		.loc 1 501 3 view .LVU500
 1449              		.loc 1 501 17 is_stmt 0 view .LVU501
 1450 0380 0023     		movs	r3, #0
 1451              		.loc 1 504 16 view .LVU502
 1452 0382 0121     		movs	r1, #1
 1453              		.loc 1 501 17 view .LVU503
 1454 0384 0360     		str	r3, [r0]
 1455              		.loc 1 502 3 is_stmt 1 view .LVU504
 1456              		.loc 1 502 18 is_stmt 0 view .LVU505
 1457 0386 C361     		str	r3, [r0, #28]
 1458              		.loc 1 503 3 is_stmt 1 view .LVU506
 1459 0388 C0F80530 		str	r3, [r0, #5]	@ unaligned
 1460 038c C0F80930 		str	r3, [r0, #9]	@ unaligned
 1461 0390 C0F80D30 		str	r3, [r0, #13]	@ unaligned
 1462 0394 C0F81130 		str	r3, [r0, #17]	@ unaligned
 1463 0398 A0F81530 		strh	r3, [r0, #21]	@ unaligned
 1464              		.loc 1 504 3 view .LVU507
 1465              		.loc 1 504 16 is_stmt 0 view .LVU508
 1466 039c 0171     		strb	r1, [r0, #4]
 1467              		.loc 1 505 1 view .LVU509
 1468 039e 7047     		bx	lr
 1469              		.cfi_endproc
 1470              	.LFE381:
 1471              		.size	scsiObjectInit, .-scsiObjectInit
 1472              		.align	1
 1473              		.p2align 4,,15
 1474              		.global	scsiStart
 1475              		.syntax unified
 1476              		.thumb
 1477              		.thumb_func
 1478              		.fpu fpv4-sp-d16
 1479              		.type	scsiStart, %function
ARM GAS  /tmp/cc9ZHD5t.s 			page 27


 1480              	scsiStart:
 1481              	.LVL114:
 1482              	.LFB382:
 1483              		.loc 1 515 67 is_stmt 1 view -0
 1484              		.cfi_startproc
 1485              		@ args = 0, pretend = 0, frame = 0
 1486              		@ frame_needed = 0, uses_anonymous_args = 0
 1487              		@ link register save eliminated.
 1488              		.loc 1 517 3 view .LVU511
 1489              		.loc 1 518 16 is_stmt 0 view .LVU512
 1490 03a0 0223     		movs	r3, #2
 1491              		.loc 1 517 17 view .LVU513
 1492 03a2 0160     		str	r1, [r0]
 1493              		.loc 1 518 3 is_stmt 1 view .LVU514
 1494              		.loc 1 518 16 is_stmt 0 view .LVU515
 1495 03a4 0371     		strb	r3, [r0, #4]
 1496              		.loc 1 519 1 view .LVU516
 1497 03a6 7047     		bx	lr
 1498              		.cfi_endproc
 1499              	.LFE382:
 1500              		.size	scsiStart, .-scsiStart
 1501              		.align	1
 1502 03a8 AFF30080 		.p2align 4,,15
 1502      AFF30080 
 1503              		.global	scsiStop
 1504              		.syntax unified
 1505              		.thumb
 1506              		.thumb_func
 1507              		.fpu fpv4-sp-d16
 1508              		.type	scsiStop, %function
 1509              	scsiStop:
 1510              	.LVL115:
 1511              	.LFB383:
 1512              		.loc 1 528 34 is_stmt 1 view -0
 1513              		.cfi_startproc
 1514              		@ args = 0, pretend = 0, frame = 0
 1515              		@ frame_needed = 0, uses_anonymous_args = 0
 1516              		@ link register save eliminated.
 1517              		.loc 1 530 3 view .LVU518
 1518              		.loc 1 530 17 is_stmt 0 view .LVU519
 1519 03b0 0022     		movs	r2, #0
 1520              		.loc 1 531 16 view .LVU520
 1521 03b2 0123     		movs	r3, #1
 1522              		.loc 1 530 17 view .LVU521
 1523 03b4 0260     		str	r2, [r0]
 1524              		.loc 1 531 3 is_stmt 1 view .LVU522
 1525              		.loc 1 531 16 is_stmt 0 view .LVU523
 1526 03b6 0371     		strb	r3, [r0, #4]
 1527              		.loc 1 532 1 view .LVU524
 1528 03b8 7047     		bx	lr
 1529              		.cfi_endproc
 1530              	.LFE383:
 1531              		.size	scsiStop, .-scsiStop
 1532              		.align	1
 1533 03ba 00BFAFF3 		.p2align 4,,15
 1533      0080
 1534              		.global	scsiResidue
ARM GAS  /tmp/cc9ZHD5t.s 			page 28


 1535              		.syntax unified
 1536              		.thumb
 1537              		.thumb_func
 1538              		.fpu fpv4-sp-d16
 1539              		.type	scsiResidue, %function
 1540              	scsiResidue:
 1541              	.LVL116:
 1542              	.LFB384:
 1543              		.loc 1 543 47 is_stmt 1 view -0
 1544              		.cfi_startproc
 1545              		@ args = 0, pretend = 0, frame = 0
 1546              		@ frame_needed = 0, uses_anonymous_args = 0
 1547              		@ link register save eliminated.
 1548              		.loc 1 545 3 view .LVU526
 1549              		.loc 1 546 1 is_stmt 0 view .LVU527
 1550 03c0 C069     		ldr	r0, [r0, #28]
 1551              	.LVL117:
 1552              		.loc 1 546 1 view .LVU528
 1553 03c2 7047     		bx	lr
 1554              		.cfi_endproc
 1555              	.LFE384:
 1556              		.size	scsiResidue, .-scsiResidue
 1557              	.Letext0:
 1558              		.file 3 "/home/nicolas/arm/gcc-arm-none-eabi-8-2019-q3-update/lib/gcc/arm-none-eabi/8.3.1/include/
 1559              		.file 4 "/home/nicolas/arm/gcc-arm-none-eabi-8-2019-q3-update/arm-none-eabi/include/machine/_defau
 1560              		.file 5 "/home/nicolas/arm/gcc-arm-none-eabi-8-2019-q3-update/arm-none-eabi/include/sys/_types.h"
 1561              		.file 6 "/home/nicolas/arm/gcc-arm-none-eabi-8-2019-q3-update/arm-none-eabi/include/sys/reent.h"
 1562              		.file 7 "/home/nicolas/arm/gcc-arm-none-eabi-8-2019-q3-update/arm-none-eabi/include/sys/lock.h"
 1563              		.file 8 "/home/nicolas/arm/gcc-arm-none-eabi-8-2019-q3-update/arm-none-eabi/include/sys/_stdint.h"
 1564              		.file 9 "/home/nicolas/arm/gcc-arm-none-eabi-8-2019-q3-update/arm-none-eabi/include/stdint.h"
 1565              		.file 10 "../../../external/ChibiOS/os/common/ports/ARMCMx/compilers/GCC/chtypes.h"
 1566              		.file 11 "../../../external/ChibiOS/os/rt/include/chsystypes.h"
 1567              		.file 12 "../../../external/ChibiOS/os/rt/include/chschd.h"
 1568              		.file 13 "../../../external/ChibiOS/os/rt/include/chtime.h"
 1569              		.file 14 "../../../external/ChibiOS/os/common/ext/ARM/CMSIS/Core/Include/core_cm7.h"
 1570              		.file 15 "../../../external/ChibiOS/os/common/ext/ST/STM32H7xx/system_stm32h7xx.h"
 1571              		.file 16 "../../../external/ChibiOS/os/common/ext/ST/STM32H7xx/stm32h753xx.h"
 1572              		.file 17 "../../../external/ChibiOS/os/common/ports/ARMCMx/chcore.h"
 1573              		.file 18 "../../../external/ChibiOS/os/common/ports/ARMCMx/chcore_v7m.h"
 1574              		.file 19 "../../../external/ChibiOS/os/rt/include/chtrace.h"
 1575              		.file 20 "../../../external/ChibiOS/os/rt/include/chtm.h"
 1576              		.file 21 "../../../external/ChibiOS/os/rt/include/chsem.h"
 1577              		.file 22 "../../../external/ChibiOS/os/rt/include/chmtx.h"
 1578              		.file 23 "../../../external/ChibiOS/os/rt/include/chsys.h"
 1579              		.file 24 "../../../external/ChibiOS/os/rt/include/chregistry.h"
 1580              		.file 25 "../../../external/ChibiOS/os/rt/include/chevents.h"
 1581              		.file 26 "../../../external/ChibiOS/os/oslib/include/chmemcore.h"
 1582              		.file 27 "../../../external/ChibiOS/os/oslib/include/chmempools.h"
 1583              		.file 28 "../../../external/ChibiOS/os/oslib/include/chfactory.h"
 1584              		.file 29 "../../../external/ChibiOS/os/hal/ports/STM32/LLD/DMAv2/stm32_dma.h"
 1585              		.file 30 "../../../external/ChibiOS/os/hal/ports/STM32/LLD/BDMAv1/stm32_bdma.h"
 1586              		.file 31 "../../../external/ChibiOS/os/hal/ports/STM32/LLD/TIMv1/stm32_tim.h"
 1587              		.file 32 "../../../external/ChibiOS/os/hal/include/hal_ioblock.h"
 1588              		.file 33 "../../../external/ChibiOS/os/hal/include/hal_queues.h"
 1589              		.file 34 "../../../external/ChibiOS/os/hal/ports/STM32/LLD/GPIOv2/stm32_gpio.h"
 1590              		.file 35 "../../../external/ChibiOS/os/hal/ports/STM32/LLD/GPIOv2/hal_pal_lld.h"
 1591              		.file 36 "../../../external/ChibiOS/os/hal/include/hal_adc.h"
ARM GAS  /tmp/cc9ZHD5t.s 			page 29


 1592              		.file 37 "../../../external/ChibiOS/os/hal/ports/STM32/LLD/ADCv4/hal_adc_lld.h"
 1593              		.file 38 "../../../external/ChibiOS/os/hal/include/hal_i2c.h"
 1594              		.file 39 "../../../external/ChibiOS/os/hal/ports/STM32/LLD/I2Cv3/hal_i2c_lld.h"
 1595              		.file 40 "../../../external/ChibiOS/os/hal/include/hal_pwm.h"
 1596              		.file 41 "../../../external/ChibiOS/os/hal/ports/STM32/LLD/TIMv1/hal_pwm_lld.h"
 1597              		.file 42 "../../../external/ChibiOS/os/hal/include/hal_serial.h"
 1598              		.file 43 "../../../external/ChibiOS/os/hal/ports/STM32/LLD/USARTv2/hal_serial_lld.h"
 1599              		.file 44 "../../../external/ChibiOS/os/hal/include/hal_sdc.h"
 1600              		.file 45 "../../../external/ChibiOS/os/hal/ports/STM32/LLD/SDMMCv2/hal_sdc_lld.h"
 1601              		.file 46 "../../../external/ChibiOS/os/hal/include/hal_spi.h"
 1602              		.file 47 "../../../external/ChibiOS/os/hal/ports/STM32/LLD/SPIv3/hal_spi_lld.h"
 1603              		.file 48 "../../../external/ChibiOS/os/hal/include/hal_trng.h"
 1604              		.file 49 "../../../external/ChibiOS/os/hal/ports/STM32/LLD/RNGv1/hal_trng_lld.h"
 1605              		.file 50 "../../../external/ChibiOS/os/hal/include/hal_usb.h"
 1606              		.file 51 "../../../external/ChibiOS/os/hal/ports/STM32/LLD/OTGv1/hal_usb_lld.h"
 1607              		.file 52 "../../../external/ChibiOS/os/hal/ports/STM32/LLD/OTGv1/stm32_otg.h"
 1608              		.file 53 "../../../external/ChibiOS-Contrib/os/hal/include/hal_fsmc.h"
 1609              		.file 54 "../../../external/ChibiOS-Contrib/os/hal/include/hal_sdram.h"
 1610              		.file 55 "../../../external/ChibiOS-Contrib/os/various/lib_scsi.h"