ARM GAS  /tmp/ccCYAU1G.s 			page 1


   1              		.cpu cortex-m7
   2              		.eabi_attribute 27, 1
   3              		.eabi_attribute 28, 1
   4              		.eabi_attribute 20, 1
   5              		.eabi_attribute 21, 1
   6              		.eabi_attribute 23, 3
   7              		.eabi_attribute 24, 1
   8              		.eabi_attribute 25, 1
   9              		.eabi_attribute 26, 1
  10              		.eabi_attribute 30, 2
  11              		.eabi_attribute 34, 1
  12              		.eabi_attribute 18, 4
  13              		.file	"memstreams.c"
  14              		.text
  15              	.Ltext0:
  16              		.cfi_sections	.debug_frame
  17              		.align	1
  18              		.p2align 4,,15
  19              		.arch armv7e-m
  20              		.syntax unified
  21              		.thumb
  22              		.thumb_func
  23              		.fpu fpv4-sp-d16
  24              		.type	_put, %function
  25              	_put:
  26              	.LVL0:
  27              	.LFB364:
  28              		.file 1 "../../../external/ChibiOS/os/hal/lib/streams/memstreams.c"
  29              		.loc 1 67 40 view -0
  30              		.cfi_startproc
  31              		@ args = 0, pretend = 0, frame = 0
  32              		@ frame_needed = 0, uses_anonymous_args = 0
  33              		@ link register save eliminated.
  34              		.loc 1 68 3 view .LVU1
  35              		.loc 1 67 40 is_stmt 0 view .LVU2
  36 0000 0346     		mov	r3, r0
  37              	.LVL1:
  38              		.loc 1 70 3 is_stmt 1 view .LVU3
  39              		.loc 1 70 6 is_stmt 0 view .LVU4
  40 0002 D0E90202 		ldrd	r0, r2, [r0, #8]
  41              	.LVL2:
  42              		.loc 1 70 6 view .LVU5
  43 0006 9042     		cmp	r0, r2
  44 0008 09D0     		beq	.L3
  45              		.loc 1 72 3 is_stmt 1 view .LVU6
  46              		.loc 1 74 10 is_stmt 0 view .LVU7
  47 000a 0020     		movs	r0, #0
  48              		.loc 1 67 40 view .LVU8
  49 000c 10B4     		push	{r4}
  50              		.cfi_def_cfa_offset 4
  51              		.cfi_offset 4, -4
  52              		.loc 1 72 29 view .LVU9
  53 000e 5C68     		ldr	r4, [r3, #4]
  54 0010 A154     		strb	r1, [r4, r2]
  55              		.loc 1 73 3 is_stmt 1 view .LVU10
  56              		.loc 1 73 12 is_stmt 0 view .LVU11
  57 0012 DA68     		ldr	r2, [r3, #12]
ARM GAS  /tmp/ccCYAU1G.s 			page 2


  58              		.loc 1 75 1 view .LVU12
  59 0014 5DF8044B 		ldr	r4, [sp], #4
  60              		.cfi_restore 4
  61              		.cfi_def_cfa_offset 0
  62              		.loc 1 73 12 view .LVU13
  63 0018 0132     		adds	r2, r2, #1
  64 001a DA60     		str	r2, [r3, #12]
  65              		.loc 1 74 3 is_stmt 1 view .LVU14
  66              		.loc 1 75 1 is_stmt 0 view .LVU15
  67 001c 7047     		bx	lr
  68              	.L3:
  69              		.loc 1 71 12 view .LVU16
  70 001e 6FF00100 		mvn	r0, #1
  71              		.loc 1 75 1 view .LVU17
  72 0022 7047     		bx	lr
  73              		.cfi_endproc
  74              	.LFE364:
  75              		.size	_put, .-_put
  76              		.align	1
  77 0024 AFF30080 		.p2align 4,,15
  77      AFF30080 
  77      AFF30080 
  78              		.syntax unified
  79              		.thumb
  80              		.thumb_func
  81              		.fpu fpv4-sp-d16
  82              		.type	_get, %function
  83              	_get:
  84              	.LVL3:
  85              	.LFB365:
  86              		.loc 1 77 29 is_stmt 1 view -0
  87              		.cfi_startproc
  88              		@ args = 0, pretend = 0, frame = 0
  89              		@ frame_needed = 0, uses_anonymous_args = 0
  90              		@ link register save eliminated.
  91              		.loc 1 78 3 view .LVU19
  92              		.loc 1 79 3 view .LVU20
  93              		.loc 1 81 3 view .LVU21
  94              		.loc 1 81 6 is_stmt 0 view .LVU22
  95 0030 D0E90323 		ldrd	r2, r3, [r0, #12]
  96 0034 9A42     		cmp	r2, r3
  97 0036 05D0     		beq	.L11
  98              		.loc 1 83 3 is_stmt 1 view .LVU23
  99              		.loc 1 83 5 is_stmt 0 view .LVU24
 100 0038 4168     		ldr	r1, [r0, #4]
 101              		.loc 1 84 15 view .LVU25
 102 003a 5A1C     		adds	r2, r3, #1
 103              		.loc 1 83 5 view .LVU26
 104 003c CB5C     		ldrb	r3, [r1, r3]	@ zero_extendqisi2
 105              	.LVL4:
 106              		.loc 1 84 3 is_stmt 1 view .LVU27
 107              		.loc 1 84 15 is_stmt 0 view .LVU28
 108 003e 0261     		str	r2, [r0, #16]
 109              		.loc 1 85 3 is_stmt 1 view .LVU29
 110              		.loc 1 85 10 is_stmt 0 view .LVU30
 111 0040 1846     		mov	r0, r3
 112              	.LVL5:
ARM GAS  /tmp/ccCYAU1G.s 			page 3


 113              		.loc 1 85 10 view .LVU31
 114 0042 7047     		bx	lr
 115              	.LVL6:
 116              	.L11:
 117              		.loc 1 82 12 view .LVU32
 118 0044 6FF00100 		mvn	r0, #1
 119              	.LVL7:
 120              		.loc 1 86 1 view .LVU33
 121 0048 7047     		bx	lr
 122              		.cfi_endproc
 123              	.LFE365:
 124              		.size	_get, .-_get
 125              		.align	1
 126 004a 00BFAFF3 		.p2align 4,,15
 126      0080
 127              		.syntax unified
 128              		.thumb
 129              		.thumb_func
 130              		.fpu fpv4-sp-d16
 131              		.type	_reads, %function
 132              	_reads:
 133              	.LVL8:
 134              	.LFB363:
 135              		.loc 1 57 55 is_stmt 1 view -0
 136              		.cfi_startproc
 137              		@ args = 0, pretend = 0, frame = 0
 138              		@ frame_needed = 0, uses_anonymous_args = 0
 139              		.loc 1 58 3 view .LVU35
 140              		.loc 1 57 55 is_stmt 0 view .LVU36
 141 0050 38B5     		push	{r3, r4, r5, lr}
 142              		.cfi_def_cfa_offset 16
 143              		.cfi_offset 3, -16
 144              		.cfi_offset 4, -12
 145              		.cfi_offset 5, -8
 146              		.cfi_offset 14, -4
 147              		.loc 1 57 55 view .LVU37
 148 0052 0546     		mov	r5, r0
 149              	.LVL9:
 150              		.loc 1 60 3 is_stmt 1 view .LVU38
 151              		.loc 1 60 21 is_stmt 0 view .LVU39
 152 0054 0369     		ldr	r3, [r0, #16]
 153              		.loc 1 62 3 view .LVU40
 154 0056 0846     		mov	r0, r1
 155              	.LVL10:
 156              		.loc 1 60 16 view .LVU41
 157 0058 EC68     		ldr	r4, [r5, #12]
 158              		.loc 1 62 26 view .LVU42
 159 005a 6968     		ldr	r1, [r5, #4]
 160              	.LVL11:
 161              		.loc 1 60 16 view .LVU43
 162 005c E41A     		subs	r4, r4, r3
 163              		.loc 1 62 3 view .LVU44
 164 005e 1944     		add	r1, r1, r3
 165 0060 9442     		cmp	r4, r2
 166 0062 28BF     		it	cs
 167 0064 1446     		movcs	r4, r2
 168              	.LVL12:
ARM GAS  /tmp/ccCYAU1G.s 			page 4


 169              		.loc 1 62 3 is_stmt 1 view .LVU45
 170 0066 2246     		mov	r2, r4
 171 0068 FFF7FEFF 		bl	memcpy
 172              	.LVL13:
 173              		.loc 1 63 3 view .LVU46
 174              		.loc 1 63 15 is_stmt 0 view .LVU47
 175 006c 2B69     		ldr	r3, [r5, #16]
 176              		.loc 1 65 1 view .LVU48
 177 006e 2046     		mov	r0, r4
 178              		.loc 1 63 15 view .LVU49
 179 0070 1C44     		add	r4, r4, r3
 180              	.LVL14:
 181              		.loc 1 63 15 view .LVU50
 182 0072 2C61     		str	r4, [r5, #16]
 183              		.loc 1 64 3 is_stmt 1 view .LVU51
 184              		.loc 1 65 1 is_stmt 0 view .LVU52
 185 0074 38BD     		pop	{r3, r4, r5, pc}
 186              		.loc 1 65 1 view .LVU53
 187              		.cfi_endproc
 188              	.LFE363:
 189              		.size	_reads, .-_reads
 190              		.align	1
 191 0076 00BFAFF3 		.p2align 4,,15
 191      0080AFF3 
 191      0080
 192              		.syntax unified
 193              		.thumb
 194              		.thumb_func
 195              		.fpu fpv4-sp-d16
 196              		.type	_writes, %function
 197              	_writes:
 198              	.LVL15:
 199              	.LFB362:
 200              		.loc 1 47 62 is_stmt 1 view -0
 201              		.cfi_startproc
 202              		@ args = 0, pretend = 0, frame = 0
 203              		@ frame_needed = 0, uses_anonymous_args = 0
 204              		.loc 1 48 3 view .LVU55
 205              		.loc 1 47 62 is_stmt 0 view .LVU56
 206 0080 38B5     		push	{r3, r4, r5, lr}
 207              		.cfi_def_cfa_offset 16
 208              		.cfi_offset 3, -16
 209              		.cfi_offset 4, -12
 210              		.cfi_offset 5, -8
 211              		.cfi_offset 14, -4
 212              		.loc 1 50 17 view .LVU57
 213 0082 D0E90243 		ldrd	r4, r3, [r0, #8]
 214              		.loc 1 47 62 view .LVU58
 215 0086 0546     		mov	r5, r0
 216              	.LVL16:
 217              		.loc 1 50 3 is_stmt 1 view .LVU59
 218              		.loc 1 52 22 is_stmt 0 view .LVU60
 219 0088 4068     		ldr	r0, [r0, #4]
 220              	.LVL17:
 221              		.loc 1 50 17 view .LVU61
 222 008a E41A     		subs	r4, r4, r3
 223              		.loc 1 52 3 view .LVU62
ARM GAS  /tmp/ccCYAU1G.s 			page 5


 224 008c 1844     		add	r0, r0, r3
 225 008e 9442     		cmp	r4, r2
 226 0090 28BF     		it	cs
 227 0092 1446     		movcs	r4, r2
 228              	.LVL18:
 229              		.loc 1 52 3 is_stmt 1 view .LVU63
 230 0094 2246     		mov	r2, r4
 231 0096 FFF7FEFF 		bl	memcpy
 232              	.LVL19:
 233              		.loc 1 53 3 view .LVU64
 234              		.loc 1 53 12 is_stmt 0 view .LVU65
 235 009a EB68     		ldr	r3, [r5, #12]
 236              		.loc 1 55 1 view .LVU66
 237 009c 2046     		mov	r0, r4
 238              		.loc 1 53 12 view .LVU67
 239 009e 1C44     		add	r4, r4, r3
 240              	.LVL20:
 241              		.loc 1 53 12 view .LVU68
 242 00a0 EC60     		str	r4, [r5, #12]
 243              		.loc 1 54 3 is_stmt 1 view .LVU69
 244              		.loc 1 55 1 is_stmt 0 view .LVU70
 245 00a2 38BD     		pop	{r3, r4, r5, pc}
 246              		.loc 1 55 1 view .LVU71
 247              		.cfi_endproc
 248              	.LFE362:
 249              		.size	_writes, .-_writes
 250              		.align	1
 251 00a4 AFF30080 		.p2align 4,,15
 251      AFF30080 
 251      AFF30080 
 252              		.global	msObjectInit
 253              		.syntax unified
 254              		.thumb
 255              		.thumb_func
 256              		.fpu fpv4-sp-d16
 257              		.type	msObjectInit, %function
 258              	msObjectInit:
 259              	.LVL21:
 260              	.LFB366:
 261              		.loc 1 105 44 is_stmt 1 view -0
 262              		.cfi_startproc
 263              		@ args = 0, pretend = 0, frame = 0
 264              		@ frame_needed = 0, uses_anonymous_args = 0
 265              		@ link register save eliminated.
 266              		.loc 1 107 3 view .LVU73
 267              		.loc 1 105 44 is_stmt 0 view .LVU74
 268 00b0 30B4     		push	{r4, r5}
 269              		.cfi_def_cfa_offset 8
 270              		.cfi_offset 4, -8
 271              		.cfi_offset 5, -4
 272              		.loc 1 107 15 view .LVU75
 273 00b2 044D     		ldr	r5, .L18
 274              		.loc 1 111 15 view .LVU76
 275 00b4 0024     		movs	r4, #0
 276              		.loc 1 110 15 view .LVU77
 277 00b6 C360     		str	r3, [r0, #12]
 278              		.loc 1 107 15 view .LVU78
ARM GAS  /tmp/ccCYAU1G.s 			page 6


 279 00b8 0560     		str	r5, [r0]
 280              		.loc 1 108 3 is_stmt 1 view .LVU79
 281              		.loc 1 109 3 view .LVU80
 282              		.loc 1 110 3 view .LVU81
 283              		.loc 1 111 3 view .LVU82
 284              		.loc 1 111 15 is_stmt 0 view .LVU83
 285 00ba 0461     		str	r4, [r0, #16]
 286              		.loc 1 109 15 view .LVU84
 287 00bc C0E90112 		strd	r1, r2, [r0, #4]
 288              		.loc 1 112 1 view .LVU85
 289 00c0 30BC     		pop	{r4, r5}
 290              		.cfi_restore 5
 291              		.cfi_restore 4
 292              		.cfi_def_cfa_offset 0
 293 00c2 7047     		bx	lr
 294              	.L19:
 295              		.align	2
 296              	.L18:
 297 00c4 00000000 		.word	.LANCHOR0
 298              		.cfi_endproc
 299              	.LFE366:
 300              		.size	msObjectInit, .-msObjectInit
 301              		.section	.rodata
 302              		.align	2
 303              		.set	.LANCHOR0,. + 0
 304              		.type	vmt, %object
 305              		.size	vmt, 20
 306              	vmt:
 307 0000 00000000 		.word	0
 308 0004 00000000 		.word	_writes
 309 0008 00000000 		.word	_reads
 310 000c 00000000 		.word	_put
 311 0010 00000000 		.word	_get
 312              		.text
 313              	.Letext0:
 314              		.file 2 "/home/nicolas/arm/gcc-arm-none-eabi-8-2019-q3-update/lib/gcc/arm-none-eabi/8.3.1/include/
 315              		.file 3 "/home/nicolas/arm/gcc-arm-none-eabi-8-2019-q3-update/arm-none-eabi/include/machine/_defau
 316              		.file 4 "/home/nicolas/arm/gcc-arm-none-eabi-8-2019-q3-update/arm-none-eabi/include/sys/_types.h"
 317              		.file 5 "/home/nicolas/arm/gcc-arm-none-eabi-8-2019-q3-update/arm-none-eabi/include/sys/reent.h"
 318              		.file 6 "/home/nicolas/arm/gcc-arm-none-eabi-8-2019-q3-update/arm-none-eabi/include/sys/lock.h"
 319              		.file 7 "/home/nicolas/arm/gcc-arm-none-eabi-8-2019-q3-update/arm-none-eabi/include/sys/_stdint.h"
 320              		.file 8 "/home/nicolas/arm/gcc-arm-none-eabi-8-2019-q3-update/arm-none-eabi/include/stdint.h"
 321              		.file 9 "../../../external/ChibiOS/os/common/ports/ARMCMx/compilers/GCC/chtypes.h"
 322              		.file 10 "../../../external/ChibiOS/os/rt/include/chsystypes.h"
 323              		.file 11 "../../../external/ChibiOS/os/rt/include/chschd.h"
 324              		.file 12 "../../../external/ChibiOS/os/rt/include/chtime.h"
 325              		.file 13 "../../../external/ChibiOS/os/common/ext/ARM/CMSIS/Core/Include/core_cm7.h"
 326              		.file 14 "../../../external/ChibiOS/os/common/ext/ST/STM32H7xx/system_stm32h7xx.h"
 327              		.file 15 "../../../external/ChibiOS/os/common/ext/ST/STM32H7xx/stm32h753xx.h"
 328              		.file 16 "../../../external/ChibiOS/os/common/ports/ARMCMx/chcore.h"
 329              		.file 17 "../../../external/ChibiOS/os/common/ports/ARMCMx/chcore_v7m.h"
 330              		.file 18 "../../../external/ChibiOS/os/rt/include/chtrace.h"
 331              		.file 19 "../../../external/ChibiOS/os/rt/include/chtm.h"
 332              		.file 20 "../../../external/ChibiOS/os/rt/include/chsem.h"
 333              		.file 21 "../../../external/ChibiOS/os/rt/include/chmtx.h"
 334              		.file 22 "../../../external/ChibiOS/os/rt/include/chsys.h"
 335              		.file 23 "../../../external/ChibiOS/os/rt/include/chregistry.h"
ARM GAS  /tmp/ccCYAU1G.s 			page 7


 336              		.file 24 "../../../external/ChibiOS/os/rt/include/chevents.h"
 337              		.file 25 "../../../external/ChibiOS/os/oslib/include/chmemcore.h"
 338              		.file 26 "../../../external/ChibiOS/os/oslib/include/chmempools.h"
 339              		.file 27 "../../../external/ChibiOS/os/oslib/include/chfactory.h"
 340              		.file 28 "../../../external/ChibiOS/os/hal/ports/STM32/LLD/DMAv2/stm32_dma.h"
 341              		.file 29 "../../../external/ChibiOS/os/hal/ports/STM32/LLD/BDMAv1/stm32_bdma.h"
 342              		.file 30 "../../../external/ChibiOS/os/hal/ports/STM32/LLD/TIMv1/stm32_tim.h"
 343              		.file 31 "../../../external/ChibiOS/os/hal/include/hal_ioblock.h"
 344              		.file 32 "../../../external/ChibiOS/os/hal/include/hal_queues.h"
 345              		.file 33 "../../../external/ChibiOS/os/hal/ports/STM32/LLD/GPIOv2/stm32_gpio.h"
 346              		.file 34 "../../../external/ChibiOS/os/hal/ports/STM32/LLD/GPIOv2/hal_pal_lld.h"
 347              		.file 35 "../../../external/ChibiOS/os/hal/include/hal_adc.h"
 348              		.file 36 "../../../external/ChibiOS/os/hal/ports/STM32/LLD/ADCv4/hal_adc_lld.h"
 349              		.file 37 "../../../external/ChibiOS/os/hal/include/hal_i2c.h"
 350              		.file 38 "../../../external/ChibiOS/os/hal/ports/STM32/LLD/I2Cv3/hal_i2c_lld.h"
 351              		.file 39 "../../../external/ChibiOS/os/hal/include/hal_pwm.h"
 352              		.file 40 "../../../external/ChibiOS/os/hal/ports/STM32/LLD/TIMv1/hal_pwm_lld.h"
 353              		.file 41 "../../../external/ChibiOS/os/hal/include/hal_serial.h"
 354              		.file 42 "../../../external/ChibiOS/os/hal/ports/STM32/LLD/USARTv2/hal_serial_lld.h"
 355              		.file 43 "../../../external/ChibiOS/os/hal/include/hal_sdc.h"
 356              		.file 44 "../../../external/ChibiOS/os/hal/ports/STM32/LLD/SDMMCv2/hal_sdc_lld.h"
 357              		.file 45 "../../../external/ChibiOS/os/hal/include/hal_spi.h"
 358              		.file 46 "../../../external/ChibiOS/os/hal/ports/STM32/LLD/SPIv3/hal_spi_lld.h"
 359              		.file 47 "../../../external/ChibiOS/os/hal/include/hal_trng.h"
 360              		.file 48 "../../../external/ChibiOS/os/hal/ports/STM32/LLD/RNGv1/hal_trng_lld.h"
 361              		.file 49 "../../../external/ChibiOS/os/hal/include/hal_usb.h"
 362              		.file 50 "../../../external/ChibiOS/os/hal/ports/STM32/LLD/OTGv1/hal_usb_lld.h"
 363              		.file 51 "../../../external/ChibiOS/os/hal/ports/STM32/LLD/OTGv1/stm32_otg.h"
 364              		.file 52 "../../../external/ChibiOS-Contrib/os/hal/include/hal_fsmc.h"
 365              		.file 53 "../../../external/ChibiOS-Contrib/os/hal/include/hal_sdram.h"
 366              		.file 54 "../../../external/ChibiOS/os/hal/lib/streams/memstreams.h"
 367              		.file 55 "<built-in>"