ARM GAS  /tmp/ccMpHXhU.s 			page 1


   1              		.cpu cortex-m7
   2              		.eabi_attribute 27, 1
   3              		.eabi_attribute 28, 1
   4              		.eabi_attribute 20, 1
   5              		.eabi_attribute 21, 1
   6              		.eabi_attribute 23, 3
   7              		.eabi_attribute 24, 1
   8              		.eabi_attribute 25, 1
   9              		.eabi_attribute 26, 1
  10              		.eabi_attribute 30, 2
  11              		.eabi_attribute 34, 1
  12              		.eabi_attribute 18, 4
  13              		.file	"stm32h7xx_hal_flash.c"
  14              		.text
  15              	.Ltext0:
  16              		.cfi_sections	.debug_frame
  17              		.align	1
  18              		.p2align 4,,15
  19              		.weak	HAL_FLASH_EndOfOperationCallback
  20              		.arch armv7e-m
  21              		.syntax unified
  22              		.thumb
  23              		.thumb_func
  24              		.fpu fpv4-sp-d16
  25              		.type	HAL_FLASH_EndOfOperationCallback, %function
  26              	HAL_FLASH_EndOfOperationCallback:
  27              	.LVL0:
  28              	.LFB144:
  29              		.file 1 "../../../external/STM32H7xx_HAL_Driver/Src/stm32h7xx_hal_flash.c"
  30              		.loc 1 652 1 view -0
  31              		.cfi_startproc
  32              		@ args = 0, pretend = 0, frame = 0
  33              		@ frame_needed = 0, uses_anonymous_args = 0
  34              		@ link register save eliminated.
  35              		.loc 1 654 3 view .LVU1
  36              		.loc 1 659 1 is_stmt 0 view .LVU2
  37 0000 7047     		bx	lr
  38              		.cfi_endproc
  39              	.LFE144:
  40              		.size	HAL_FLASH_EndOfOperationCallback, .-HAL_FLASH_EndOfOperationCallback
  41              		.align	1
  42 0002 00BFAFF3 		.p2align 4,,15
  42      0080AFF3 
  42      0080AFF3 
  42      0080
  43              		.weak	HAL_FLASH_OperationErrorCallback
  44              		.syntax unified
  45              		.thumb
  46              		.thumb_func
  47              		.fpu fpv4-sp-d16
  48              		.type	HAL_FLASH_OperationErrorCallback, %function
  49              	HAL_FLASH_OperationErrorCallback:
  50              	.LFB158:
  51              		.cfi_startproc
  52              		@ args = 0, pretend = 0, frame = 0
  53              		@ frame_needed = 0, uses_anonymous_args = 0
  54              		@ link register save eliminated.
ARM GAS  /tmp/ccMpHXhU.s 			page 2


  55 0010 7047     		bx	lr
  56              		.cfi_endproc
  57              	.LFE158:
  58              		.size	HAL_FLASH_OperationErrorCallback, .-HAL_FLASH_OperationErrorCallback
  59              		.align	1
  60 0012 00BFAFF3 		.p2align 4,,15
  60      0080AFF3 
  60      0080AFF3 
  60      0080
  61              		.global	HAL_FLASH_IRQHandler
  62              		.syntax unified
  63              		.thumb
  64              		.thumb_func
  65              		.fpu fpv4-sp-d16
  66              		.type	HAL_FLASH_IRQHandler, %function
  67              	HAL_FLASH_IRQHandler:
  68              	.LFB143:
  69              		.loc 1 390 1 is_stmt 1 view -0
  70              		.cfi_startproc
  71              		@ args = 0, pretend = 0, frame = 0
  72              		@ frame_needed = 0, uses_anonymous_args = 0
  73              		.loc 1 391 3 view .LVU4
  74              		.loc 1 392 3 view .LVU5
  75              		.loc 1 393 3 view .LVU6
  76              		.loc 1 396 3 view .LVU7
  77              		.loc 1 390 1 is_stmt 0 view .LVU8
  78 0020 70B5     		push	{r4, r5, r6, lr}
  79              		.cfi_def_cfa_offset 16
  80              		.cfi_offset 4, -16
  81              		.cfi_offset 5, -12
  82              		.cfi_offset 6, -8
  83              		.cfi_offset 14, -4
  84              		.loc 1 396 6 view .LVU9
  85 0022 744D     		ldr	r5, .L48
  86              		.loc 1 398 14 view .LVU10
  87 0024 744C     		ldr	r4, .L48+4
  88              		.loc 1 396 6 view .LVU11
  89 0026 2B69     		ldr	r3, [r5, #16]
  90              		.loc 1 396 5 view .LVU12
  91 0028 DA03     		lsls	r2, r3, #15
  92 002a 13D5     		bpl	.L6
  93              		.loc 1 398 5 is_stmt 1 view .LVU13
  94              		.loc 1 398 14 is_stmt 0 view .LVU14
  95 002c 2678     		ldrb	r6, [r4]	@ zero_extendqisi2
  96 002e F6B2     		uxtb	r6, r6
  97              		.loc 1 398 7 view .LVU15
  98 0030 012E     		cmp	r6, #1
  99 0032 00F08E80 		beq	.L40
 100              		.loc 1 433 7 is_stmt 1 view .LVU16
 101              		.loc 1 433 17 is_stmt 0 view .LVU17
 102 0036 2578     		ldrb	r5, [r4]	@ zero_extendqisi2
 103 0038 EDB2     		uxtb	r5, r5
 104              	.LVL1:
 105              		.loc 1 435 7 is_stmt 1 view .LVU18
 106              		.loc 1 435 9 is_stmt 0 view .LVU19
 107 003a 022D     		cmp	r5, #2
 108 003c 00F0B680 		beq	.L29
ARM GAS  /tmp/ccMpHXhU.s 			page 3


 109 0040 072D     		cmp	r5, #7
 110 0042 00F0B380 		beq	.L29
 111              		.loc 1 441 12 is_stmt 1 view .LVU20
 112              		.loc 1 441 14 is_stmt 0 view .LVU21
 113 0046 032D     		cmp	r5, #3
 114 0048 00F09980 		beq	.L41
 115              		.loc 1 450 7 is_stmt 1 view .LVU22
 116              		.loc 1 452 7 view .LVU23
 117              		.loc 1 452 9 is_stmt 0 view .LVU24
 118 004c 043D     		subs	r5, r5, #4
 119              	.LVL2:
 120              		.loc 1 452 9 view .LVU25
 121 004e 022D     		cmp	r5, #2
 122 0050 00F29880 		bhi	.L12
 123              	.LVL3:
 124              	.L6:
 125              		.loc 1 464 3 is_stmt 1 view .LVU26
 126              		.loc 1 464 6 is_stmt 0 view .LVU27
 127 0054 674D     		ldr	r5, .L48
 128 0056 D5F81031 		ldr	r3, [r5, #272]
 129              		.loc 1 464 5 view .LVU28
 130 005a DB03     		lsls	r3, r3, #15
 131 005c 10D5     		bpl	.L14
 132              		.loc 1 466 5 is_stmt 1 view .LVU29
 133              		.loc 1 466 14 is_stmt 0 view .LVU30
 134 005e 2378     		ldrb	r3, [r4]	@ zero_extendqisi2
 135              		.loc 1 466 7 view .LVU31
 136 0060 042B     		cmp	r3, #4
 137 0062 57D0     		beq	.L42
 138              		.loc 1 501 7 is_stmt 1 view .LVU32
 139              		.loc 1 501 17 is_stmt 0 view .LVU33
 140 0064 2378     		ldrb	r3, [r4]	@ zero_extendqisi2
 141 0066 DBB2     		uxtb	r3, r3
 142              	.LVL4:
 143              		.loc 1 503 7 is_stmt 1 view .LVU34
 144              		.loc 1 503 9 is_stmt 0 view .LVU35
 145 0068 03F0FD02 		and	r2, r3, #253
 146 006c 052A     		cmp	r2, #5
 147 006e 00F09280 		beq	.L43
 148              		.loc 1 509 12 is_stmt 1 view .LVU36
 149              		.loc 1 509 14 is_stmt 0 view .LVU37
 150 0072 062B     		cmp	r3, #6
 151 0074 00F0B980 		beq	.L44
 152              		.loc 1 518 7 is_stmt 1 view .LVU38
 153              		.loc 1 520 7 view .LVU39
 154              		.loc 1 520 9 is_stmt 0 view .LVU40
 155 0078 013B     		subs	r3, r3, #1
 156              	.LVL5:
 157              		.loc 1 520 9 view .LVU41
 158 007a 022B     		cmp	r3, #2
 159 007c 00F28E80 		bhi	.L18
 160              	.LVL6:
 161              	.L14:
 162              		.loc 1 533 3 is_stmt 1 view .LVU42
 163              		.loc 1 533 20 is_stmt 0 view .LVU43
 164 0080 5C4A     		ldr	r2, .L48
 165 0082 1369     		ldr	r3, [r2, #16]
ARM GAS  /tmp/ccMpHXhU.s 			page 4


 166              	.LVL7:
 167              		.loc 1 540 3 is_stmt 1 view .LVU44
 168              		.loc 1 540 5 is_stmt 0 view .LVU45
 169 0084 13F4DC03 		ands	r3, r3, #7208960
 170              	.LVL8:
 171              		.loc 1 540 5 view .LVU46
 172 0088 10D0     		beq	.L20
 173              		.loc 1 543 5 is_stmt 1 view .LVU47
 174              		.loc 1 543 22 is_stmt 0 view .LVU48
 175 008a A169     		ldr	r1, [r4, #24]
 176 008c 1943     		orrs	r1, r1, r3
 177 008e A161     		str	r1, [r4, #24]
 178              		.loc 1 546 5 is_stmt 1 view .LVU49
 179 0090 5361     		str	r3, [r2, #20]
 180              		.loc 1 548 5 view .LVU50
 181              		.loc 1 548 15 is_stmt 0 view .LVU51
 182 0092 2378     		ldrb	r3, [r4]	@ zero_extendqisi2
 183              	.LVL9:
 184              		.loc 1 548 15 view .LVU52
 185 0094 DBB2     		uxtb	r3, r3
 186              	.LVL10:
 187              		.loc 1 550 5 is_stmt 1 view .LVU53
 188              		.loc 1 550 7 is_stmt 0 view .LVU54
 189 0096 012B     		cmp	r3, #1
 190 0098 33D0     		beq	.L45
 191              		.loc 1 556 10 is_stmt 1 view .LVU55
 192              		.loc 1 556 12 is_stmt 0 view .LVU56
 193 009a 022B     		cmp	r3, #2
 194 009c 79D0     		beq	.L27
 195 009e 072B     		cmp	r3, #7
 196 00a0 77D0     		beq	.L27
 197              		.loc 1 564 7 is_stmt 1 view .LVU57
 198              		.loc 1 568 29 is_stmt 0 view .LVU58
 199 00a2 0023     		movs	r3, #0
 200              	.LVL11:
 201              		.loc 1 564 12 view .LVU59
 202 00a4 2069     		ldr	r0, [r4, #16]
 203              	.LVL12:
 204              		.loc 1 568 5 is_stmt 1 view .LVU60
 205              		.loc 1 568 29 is_stmt 0 view .LVU61
 206 00a6 2370     		strb	r3, [r4]
 207              	.LVL13:
 208              		.loc 1 571 5 is_stmt 1 view .LVU62
 209 00a8 FFF7FEFF 		bl	HAL_FLASH_OperationErrorCallback
 210              	.LVL14:
 211              	.L20:
 212              		.loc 1 576 3 view .LVU63
 213              		.loc 1 576 20 is_stmt 0 view .LVU64
 214 00ac 5149     		ldr	r1, .L48
 215 00ae D1F81031 		ldr	r3, [r1, #272]
 216              	.LVL15:
 217              		.loc 1 583 3 is_stmt 1 view .LVU65
 218              		.loc 1 583 5 is_stmt 0 view .LVU66
 219 00b2 13F4DC03 		ands	r3, r3, #7208960
 220              	.LVL16:
 221              		.loc 1 583 5 view .LVU67
 222 00b6 13D0     		beq	.L23
ARM GAS  /tmp/ccMpHXhU.s 			page 5


 223              		.loc 1 586 5 is_stmt 1 view .LVU68
 224              		.loc 1 586 22 is_stmt 0 view .LVU69
 225 00b8 A269     		ldr	r2, [r4, #24]
 226 00ba 1A43     		orrs	r2, r2, r3
 227 00bc 42F00042 		orr	r2, r2, #-2147483648
 228 00c0 A261     		str	r2, [r4, #24]
 229              		.loc 1 589 5 is_stmt 1 view .LVU70
 230 00c2 C1F81431 		str	r3, [r1, #276]
 231              		.loc 1 591 5 view .LVU71
 232              		.loc 1 591 15 is_stmt 0 view .LVU72
 233 00c6 2378     		ldrb	r3, [r4]	@ zero_extendqisi2
 234              	.LVL17:
 235              		.loc 1 591 15 view .LVU73
 236 00c8 DBB2     		uxtb	r3, r3
 237              	.LVL18:
 238              		.loc 1 593 5 is_stmt 1 view .LVU74
 239              		.loc 1 593 7 is_stmt 0 view .LVU75
 240 00ca 042B     		cmp	r3, #4
 241 00cc 38D0     		beq	.L46
 242              		.loc 1 599 10 is_stmt 1 view .LVU76
 243              		.loc 1 599 12 is_stmt 0 view .LVU77
 244 00ce 03F0FD03 		and	r3, r3, #253
 245              	.LVL19:
 246              		.loc 1 599 12 view .LVU78
 247 00d2 052B     		cmp	r3, #5
 248 00d4 51D1     		bne	.L47
 249              		.loc 1 611 29 view .LVU79
 250 00d6 0023     		movs	r3, #0
 251              		.loc 1 602 12 view .LVU80
 252 00d8 0220     		movs	r0, #2
 253              	.LVL20:
 254              		.loc 1 611 5 is_stmt 1 view .LVU81
 255              		.loc 1 611 29 is_stmt 0 view .LVU82
 256 00da 2370     		strb	r3, [r4]
 257              	.LVL21:
 258              		.loc 1 614 5 is_stmt 1 view .LVU83
 259 00dc FFF7FEFF 		bl	HAL_FLASH_OperationErrorCallback
 260              	.LVL22:
 261              	.L23:
 262              		.loc 1 617 3 view .LVU84
 263              		.loc 1 617 12 is_stmt 0 view .LVU85
 264 00e0 2378     		ldrb	r3, [r4]	@ zero_extendqisi2
 265              		.loc 1 617 5 view .LVU86
 266 00e2 03F0FF01 		and	r1, r3, #255
 267 00e6 5BB9     		cbnz	r3, .L4
 268              		.loc 1 621 5 is_stmt 1 view .LVU87
 269 00e8 424B     		ldr	r3, .L48
 270 00ea DA68     		ldr	r2, [r3, #12]
 271 00ec 22F4DE02 		bic	r2, r2, #7274496
 272 00f0 DA60     		str	r2, [r3, #12]
 273              		.loc 1 625 5 view .LVU88
 274 00f2 D3F80C21 		ldr	r2, [r3, #268]
 275 00f6 22F4DE02 		bic	r2, r2, #7274496
 276 00fa C3F80C21 		str	r2, [r3, #268]
 277              		.loc 1 638 5 view .LVU89
 278              		.loc 1 638 5 view .LVU90
 279 00fe 2175     		strb	r1, [r4, #20]
ARM GAS  /tmp/ccMpHXhU.s 			page 6


 280              	.L4:
 281              		.loc 1 640 1 is_stmt 0 view .LVU91
 282 0100 70BD     		pop	{r4, r5, r6, pc}
 283              	.LVL23:
 284              	.L45:
 285              		.loc 1 553 7 is_stmt 1 view .LVU92
 286              		.loc 1 554 21 is_stmt 0 view .LVU93
 287 0102 4FF0FF33 		mov	r3, #-1
 288              	.LVL24:
 289              		.loc 1 553 12 view .LVU94
 290 0106 E068     		ldr	r0, [r4, #12]
 291              	.LVL25:
 292              		.loc 1 554 7 is_stmt 1 view .LVU95
 293              		.loc 1 554 21 is_stmt 0 view .LVU96
 294 0108 E360     		str	r3, [r4, #12]
 295              	.LVL26:
 296              	.L22:
 297              		.loc 1 568 5 is_stmt 1 view .LVU97
 298              		.loc 1 568 29 is_stmt 0 view .LVU98
 299 010a 0023     		movs	r3, #0
 300 010c 2370     		strb	r3, [r4]
 301              	.LVL27:
 302              		.loc 1 571 5 is_stmt 1 view .LVU99
 303 010e FFF7FEFF 		bl	HAL_FLASH_OperationErrorCallback
 304              	.LVL28:
 305              		.loc 1 571 5 is_stmt 0 view .LVU100
 306 0112 CBE7     		b	.L20
 307              	.L42:
 308              		.loc 1 469 7 is_stmt 1 view .LVU101
 309              		.loc 1 469 13 is_stmt 0 view .LVU102
 310 0114 6368     		ldr	r3, [r4, #4]
 311              		.loc 1 469 30 view .LVU103
 312 0116 013B     		subs	r3, r3, #1
 313 0118 6360     		str	r3, [r4, #4]
 314              		.loc 1 472 7 is_stmt 1 view .LVU104
 315              		.loc 1 472 16 is_stmt 0 view .LVU105
 316 011a 6368     		ldr	r3, [r4, #4]
 317              		.loc 1 472 9 view .LVU106
 318 011c 002B     		cmp	r3, #0
 319 011e 58D0     		beq	.L16
 320              		.loc 1 475 9 is_stmt 1 view .LVU107
 321 0120 E068     		ldr	r0, [r4, #12]
 322 0122 FFF7FEFF 		bl	HAL_FLASH_EndOfOperationCallback
 323              	.LVL29:
 324              		.loc 1 478 9 view .LVU108
 325 0126 4FF48033 		mov	r3, #65536
 326              		.loc 1 483 9 is_stmt 0 view .LVU109
 327 012a 0221     		movs	r1, #2
 328              		.loc 1 478 9 view .LVU110
 329 012c C5F81431 		str	r3, [r5, #276]
 330              		.loc 1 481 9 is_stmt 1 view .LVU111
 331              		.loc 1 481 15 is_stmt 0 view .LVU112
 332 0130 E368     		ldr	r3, [r4, #12]
 333              		.loc 1 481 22 view .LVU113
 334 0132 0133     		adds	r3, r3, #1
 335 0134 E360     		str	r3, [r4, #12]
 336              		.loc 1 482 9 is_stmt 1 view .LVU114
ARM GAS  /tmp/ccMpHXhU.s 			page 7


 337              		.loc 1 482 14 is_stmt 0 view .LVU115
 338 0136 E068     		ldr	r0, [r4, #12]
 339              	.LVL30:
 340              		.loc 1 483 9 is_stmt 1 view .LVU116
 341 0138 A268     		ldr	r2, [r4, #8]
 342 013a FFF7FEFF 		bl	FLASH_Erase_Sector
 343              	.LVL31:
 344              		.loc 1 483 9 is_stmt 0 view .LVU117
 345 013e 9FE7     		b	.L14
 346              	.LVL32:
 347              	.L46:
 348              		.loc 1 596 7 is_stmt 1 view .LVU118
 349              		.loc 1 597 21 is_stmt 0 view .LVU119
 350 0140 4FF0FF33 		mov	r3, #-1
 351              	.LVL33:
 352              		.loc 1 596 12 view .LVU120
 353 0144 E068     		ldr	r0, [r4, #12]
 354              	.LVL34:
 355              		.loc 1 597 7 is_stmt 1 view .LVU121
 356              		.loc 1 597 21 is_stmt 0 view .LVU122
 357 0146 E360     		str	r3, [r4, #12]
 358              	.LVL35:
 359              	.L25:
 360              		.loc 1 611 5 is_stmt 1 view .LVU123
 361              		.loc 1 611 29 is_stmt 0 view .LVU124
 362 0148 0023     		movs	r3, #0
 363 014a 2370     		strb	r3, [r4]
 364              	.LVL36:
 365              		.loc 1 614 5 is_stmt 1 view .LVU125
 366 014c FFF7FEFF 		bl	HAL_FLASH_OperationErrorCallback
 367              	.LVL37:
 368              		.loc 1 614 5 is_stmt 0 view .LVU126
 369 0150 C6E7     		b	.L23
 370              	.L40:
 371              		.loc 1 401 7 is_stmt 1 view .LVU127
 372              		.loc 1 401 13 is_stmt 0 view .LVU128
 373 0152 6368     		ldr	r3, [r4, #4]
 374              		.loc 1 401 30 view .LVU129
 375 0154 013B     		subs	r3, r3, #1
 376 0156 6360     		str	r3, [r4, #4]
 377              		.loc 1 404 7 is_stmt 1 view .LVU130
 378              		.loc 1 404 16 is_stmt 0 view .LVU131
 379 0158 6368     		ldr	r3, [r4, #4]
 380              		.loc 1 404 9 view .LVU132
 381 015a 7BB3     		cbz	r3, .L8
 382              		.loc 1 407 9 is_stmt 1 view .LVU133
 383 015c E068     		ldr	r0, [r4, #12]
 384 015e FFF7FEFF 		bl	HAL_FLASH_EndOfOperationCallback
 385              	.LVL38:
 386              		.loc 1 410 9 view .LVU134
 387 0162 4FF48033 		mov	r3, #65536
 388              		.loc 1 415 9 is_stmt 0 view .LVU135
 389 0166 3146     		mov	r1, r6
 390              		.loc 1 410 9 view .LVU136
 391 0168 6B61     		str	r3, [r5, #20]
 392              		.loc 1 413 9 is_stmt 1 view .LVU137
 393              		.loc 1 413 15 is_stmt 0 view .LVU138
ARM GAS  /tmp/ccMpHXhU.s 			page 8


 394 016a E368     		ldr	r3, [r4, #12]
 395              		.loc 1 413 22 view .LVU139
 396 016c 0133     		adds	r3, r3, #1
 397 016e E360     		str	r3, [r4, #12]
 398              		.loc 1 414 9 is_stmt 1 view .LVU140
 399              		.loc 1 414 14 is_stmt 0 view .LVU141
 400 0170 E068     		ldr	r0, [r4, #12]
 401              	.LVL39:
 402              		.loc 1 415 9 is_stmt 1 view .LVU142
 403 0172 A268     		ldr	r2, [r4, #8]
 404 0174 FFF7FEFF 		bl	FLASH_Erase_Sector
 405              	.LVL40:
 406              		.loc 1 415 9 is_stmt 0 view .LVU143
 407 0178 6CE7     		b	.L6
 408              	.LVL41:
 409              	.L47:
 410              		.loc 1 607 7 is_stmt 1 view .LVU144
 411              		.loc 1 607 12 is_stmt 0 view .LVU145
 412 017a 2069     		ldr	r0, [r4, #16]
 413              	.LVL42:
 414              		.loc 1 607 12 view .LVU146
 415 017c E4E7     		b	.L25
 416              	.LVL43:
 417              	.L41:
 418              		.loc 1 445 9 is_stmt 1 view .LVU147
 419 017e 2069     		ldr	r0, [r4, #16]
 420 0180 FFF7FEFF 		bl	HAL_FLASH_EndOfOperationCallback
 421              	.LVL44:
 422              		.loc 1 450 7 view .LVU148
 423              		.loc 1 452 7 view .LVU149
 424              	.L12:
 425              		.loc 1 456 9 view .LVU150
 426              		.loc 1 456 33 is_stmt 0 view .LVU151
 427 0184 0021     		movs	r1, #0
 428              		.loc 1 458 9 view .LVU152
 429 0186 1B4B     		ldr	r3, .L48
 430 0188 4FF48032 		mov	r2, #65536
 431              		.loc 1 456 33 view .LVU153
 432 018c 2170     		strb	r1, [r4]
 433              		.loc 1 458 9 is_stmt 1 view .LVU154
 434 018e 5A61     		str	r2, [r3, #20]
 435 0190 60E7     		b	.L6
 436              	.LVL45:
 437              	.L27:
 438              		.loc 1 559 12 is_stmt 0 view .LVU155
 439 0192 0120     		movs	r0, #1
 440 0194 B9E7     		b	.L22
 441              	.LVL46:
 442              	.L43:
 443              		.loc 1 507 9 is_stmt 1 view .LVU156
 444 0196 0220     		movs	r0, #2
 445 0198 FFF7FEFF 		bl	HAL_FLASH_EndOfOperationCallback
 446              	.LVL47:
 447              		.loc 1 518 7 view .LVU157
 448              		.loc 1 520 7 view .LVU158
 449              	.L18:
 450              		.loc 1 524 9 view .LVU159
ARM GAS  /tmp/ccMpHXhU.s 			page 9


 451              		.loc 1 524 33 is_stmt 0 view .LVU160
 452 019c 0021     		movs	r1, #0
 453              		.loc 1 526 9 view .LVU161
 454 019e 154B     		ldr	r3, .L48
 455 01a0 4FF48032 		mov	r2, #65536
 456              		.loc 1 524 33 view .LVU162
 457 01a4 2170     		strb	r1, [r4]
 458              		.loc 1 526 9 is_stmt 1 view .LVU163
 459 01a6 C3F81421 		str	r2, [r3, #276]
 460 01aa 69E7     		b	.L14
 461              	.LVL48:
 462              	.L29:
 463              		.loc 1 439 9 view .LVU164
 464              		.loc 1 452 9 is_stmt 0 view .LVU165
 465 01ac 043D     		subs	r5, r5, #4
 466              	.LVL49:
 467              		.loc 1 439 9 view .LVU166
 468 01ae 0120     		movs	r0, #1
 469 01b0 FFF7FEFF 		bl	HAL_FLASH_EndOfOperationCallback
 470              	.LVL50:
 471              		.loc 1 450 7 is_stmt 1 view .LVU167
 472              		.loc 1 452 7 view .LVU168
 473              		.loc 1 452 9 is_stmt 0 view .LVU169
 474 01b4 022D     		cmp	r5, #2
 475 01b6 7FF64DAF 		bls	.L6
 476 01ba E3E7     		b	.L12
 477              	.LVL51:
 478              	.L8:
 479              		.loc 1 421 9 is_stmt 1 view .LVU170
 480              		.loc 1 421 23 is_stmt 0 view .LVU171
 481 01bc 4FF0FF32 		mov	r2, #-1
 482 01c0 E260     		str	r2, [r4, #12]
 483              		.loc 1 422 9 is_stmt 1 view .LVU172
 484              		.loc 1 422 33 is_stmt 0 view .LVU173
 485 01c2 2370     		strb	r3, [r4]
 486              		.loc 1 425 9 is_stmt 1 view .LVU174
 487 01c4 E068     		ldr	r0, [r4, #12]
 488 01c6 FFF7FEFF 		bl	HAL_FLASH_EndOfOperationCallback
 489              	.LVL52:
 490              		.loc 1 428 9 view .LVU175
 491 01ca 4FF48033 		mov	r3, #65536
 492 01ce 6B61     		str	r3, [r5, #20]
 493 01d0 40E7     		b	.L6
 494              	.L16:
 495              		.loc 1 489 9 view .LVU176
 496              		.loc 1 489 23 is_stmt 0 view .LVU177
 497 01d2 4FF0FF32 		mov	r2, #-1
 498 01d6 E260     		str	r2, [r4, #12]
 499              		.loc 1 490 9 is_stmt 1 view .LVU178
 500              		.loc 1 490 33 is_stmt 0 view .LVU179
 501 01d8 2370     		strb	r3, [r4]
 502              		.loc 1 493 9 is_stmt 1 view .LVU180
 503 01da E068     		ldr	r0, [r4, #12]
 504 01dc FFF7FEFF 		bl	HAL_FLASH_EndOfOperationCallback
 505              	.LVL53:
 506              		.loc 1 496 9 view .LVU181
 507 01e0 4FF48033 		mov	r3, #65536
ARM GAS  /tmp/ccMpHXhU.s 			page 10


 508 01e4 C5F81431 		str	r3, [r5, #276]
 509 01e8 4AE7     		b	.L14
 510              	.LVL54:
 511              	.L44:
 512              		.loc 1 513 9 view .LVU182
 513 01ea 2069     		ldr	r0, [r4, #16]
 514 01ec FFF7FEFF 		bl	HAL_FLASH_EndOfOperationCallback
 515              	.LVL55:
 516              		.loc 1 518 7 view .LVU183
 517              		.loc 1 520 7 view .LVU184
 518 01f0 D4E7     		b	.L18
 519              	.L49:
 520 01f2 00BF     		.align	2
 521              	.L48:
 522 01f4 00200052 		.word	1375739904
 523 01f8 00000000 		.word	pFlash
 524              		.cfi_endproc
 525              	.LFE143:
 526              		.size	HAL_FLASH_IRQHandler, .-HAL_FLASH_IRQHandler
 527              		.align	1
 528 01fc AFF30080 		.p2align 4,,15
 529              		.global	HAL_FLASH_Unlock
 530              		.syntax unified
 531              		.thumb
 532              		.thumb_func
 533              		.fpu fpv4-sp-d16
 534              		.type	HAL_FLASH_Unlock, %function
 535              	HAL_FLASH_Unlock:
 536              	.LFB146:
 537              		.loc 1 703 1 view -0
 538              		.cfi_startproc
 539              		@ args = 0, pretend = 0, frame = 0
 540              		@ frame_needed = 0, uses_anonymous_args = 0
 541              		@ link register save eliminated.
 542              		.loc 1 704 3 view .LVU186
 543              		.loc 1 704 6 is_stmt 0 view .LVU187
 544 0200 0F4B     		ldr	r3, .L58
 545 0202 DA68     		ldr	r2, [r3, #12]
 546              		.loc 1 704 5 view .LVU188
 547 0204 D207     		lsls	r2, r2, #31
 548 0206 06D5     		bpl	.L54
 549              		.loc 1 707 5 is_stmt 1 view .LVU189
 550 0208 0E49     		ldr	r1, .L58+4
 551              		.loc 1 708 5 is_stmt 0 view .LVU190
 552 020a 0F4A     		ldr	r2, .L58+8
 553              		.loc 1 707 5 view .LVU191
 554 020c 5960     		str	r1, [r3, #4]
 555              		.loc 1 708 5 is_stmt 1 view .LVU192
 556 020e 5A60     		str	r2, [r3, #4]
 557              		.loc 1 711 5 view .LVU193
 558              		.loc 1 711 9 is_stmt 0 view .LVU194
 559 0210 DB68     		ldr	r3, [r3, #12]
 560              		.loc 1 711 8 view .LVU195
 561 0212 DB07     		lsls	r3, r3, #31
 562 0214 11D4     		bmi	.L56
 563              	.L54:
 564              		.loc 1 717 3 is_stmt 1 view .LVU196
ARM GAS  /tmp/ccMpHXhU.s 			page 11


 565              		.loc 1 717 6 is_stmt 0 view .LVU197
 566 0216 0A4B     		ldr	r3, .L58
 567 0218 D3F80C01 		ldr	r0, [r3, #268]
 568              		.loc 1 717 5 view .LVU198
 569 021c 10F00100 		ands	r0, r0, #1
 570 0220 0AD0     		beq	.L57
 571              		.loc 1 720 5 is_stmt 1 view .LVU199
 572 0222 0849     		ldr	r1, .L58+4
 573              		.loc 1 721 5 is_stmt 0 view .LVU200
 574 0224 084A     		ldr	r2, .L58+8
 575              		.loc 1 720 5 view .LVU201
 576 0226 C3F80411 		str	r1, [r3, #260]
 577              		.loc 1 721 5 is_stmt 1 view .LVU202
 578 022a C3F80421 		str	r2, [r3, #260]
 579              		.loc 1 724 5 view .LVU203
 580              		.loc 1 724 9 is_stmt 0 view .LVU204
 581 022e D3F80C01 		ldr	r0, [r3, #268]
 582              		.loc 1 713 14 view .LVU205
 583 0232 00F00100 		and	r0, r0, #1
 584 0236 7047     		bx	lr
 585              	.L57:
 586 0238 7047     		bx	lr
 587              	.L56:
 588 023a 0120     		movs	r0, #1
 589              		.loc 1 731 1 view .LVU206
 590 023c 7047     		bx	lr
 591              	.L59:
 592 023e 00BF     		.align	2
 593              	.L58:
 594 0240 00200052 		.word	1375739904
 595 0244 23016745 		.word	1164378403
 596 0248 AB89EFCD 		.word	-839939669
 597              		.cfi_endproc
 598              	.LFE146:
 599              		.size	HAL_FLASH_Unlock, .-HAL_FLASH_Unlock
 600              		.align	1
 601 024c AFF30080 		.p2align 4,,15
 602              		.global	HAL_FLASH_Lock
 603              		.syntax unified
 604              		.thumb
 605              		.thumb_func
 606              		.fpu fpv4-sp-d16
 607              		.type	HAL_FLASH_Lock, %function
 608              	HAL_FLASH_Lock:
 609              	.LFB147:
 610              		.loc 1 738 1 is_stmt 1 view -0
 611              		.cfi_startproc
 612              		@ args = 0, pretend = 0, frame = 0
 613              		@ frame_needed = 0, uses_anonymous_args = 0
 614              		@ link register save eliminated.
 615              		.loc 1 740 3 view .LVU208
 616 0250 0A4B     		ldr	r3, .L63
 617 0252 DA68     		ldr	r2, [r3, #12]
 618 0254 42F00102 		orr	r2, r2, #1
 619 0258 DA60     		str	r2, [r3, #12]
 620              		.loc 1 743 3 view .LVU209
 621              		.loc 1 743 7 is_stmt 0 view .LVU210
ARM GAS  /tmp/ccMpHXhU.s 			page 12


 622 025a DA68     		ldr	r2, [r3, #12]
 623              		.loc 1 743 6 view .LVU211
 624 025c D207     		lsls	r2, r2, #31
 625 025e 0BD5     		bpl	.L62
 626              		.loc 1 749 3 is_stmt 1 view .LVU212
 627 0260 D3F80C21 		ldr	r2, [r3, #268]
 628 0264 42F00102 		orr	r2, r2, #1
 629 0268 C3F80C21 		str	r2, [r3, #268]
 630              		.loc 1 752 3 view .LVU213
 631              		.loc 1 752 7 is_stmt 0 view .LVU214
 632 026c D3F80C01 		ldr	r0, [r3, #268]
 633              		.loc 1 745 12 view .LVU215
 634 0270 C043     		mvns	r0, r0
 635 0272 00F00100 		and	r0, r0, #1
 636 0276 7047     		bx	lr
 637              	.L62:
 638 0278 0120     		movs	r0, #1
 639              		.loc 1 758 1 view .LVU216
 640 027a 7047     		bx	lr
 641              	.L64:
 642              		.align	2
 643              	.L63:
 644 027c 00200052 		.word	1375739904
 645              		.cfi_endproc
 646              	.LFE147:
 647              		.size	HAL_FLASH_Lock, .-HAL_FLASH_Lock
 648              		.align	1
 649              		.p2align 4,,15
 650              		.global	HAL_FLASH_OB_Unlock
 651              		.syntax unified
 652              		.thumb
 653              		.thumb_func
 654              		.fpu fpv4-sp-d16
 655              		.type	HAL_FLASH_OB_Unlock, %function
 656              	HAL_FLASH_OB_Unlock:
 657              	.LFB148:
 658              		.loc 1 765 1 is_stmt 1 view -0
 659              		.cfi_startproc
 660              		@ args = 0, pretend = 0, frame = 0
 661              		@ frame_needed = 0, uses_anonymous_args = 0
 662              		@ link register save eliminated.
 663              		.loc 1 766 3 view .LVU218
 664              		.loc 1 766 6 is_stmt 0 view .LVU219
 665 0280 064B     		ldr	r3, .L68
 666 0282 9869     		ldr	r0, [r3, #24]
 667              		.loc 1 766 5 view .LVU220
 668 0284 10F00100 		ands	r0, r0, #1
 669 0288 06D0     		beq	.L66
 670              		.loc 1 769 5 is_stmt 1 view .LVU221
 671 028a 0549     		ldr	r1, .L68+4
 672              		.loc 1 770 5 is_stmt 0 view .LVU222
 673 028c 054A     		ldr	r2, .L68+8
 674              		.loc 1 769 5 view .LVU223
 675 028e 9960     		str	r1, [r3, #8]
 676              		.loc 1 770 5 is_stmt 1 view .LVU224
 677 0290 9A60     		str	r2, [r3, #8]
 678              		.loc 1 773 5 view .LVU225
ARM GAS  /tmp/ccMpHXhU.s 			page 13


 679              		.loc 1 773 9 is_stmt 0 view .LVU226
 680 0292 9869     		ldr	r0, [r3, #24]
 681              		.loc 1 775 14 view .LVU227
 682 0294 00F00100 		and	r0, r0, #1
 683              	.L66:
 684              		.loc 1 780 1 view .LVU228
 685 0298 7047     		bx	lr
 686              	.L69:
 687 029a 00BF     		.align	2
 688              	.L68:
 689 029c 00200052 		.word	1375739904
 690 02a0 3B2A1908 		.word	135866939
 691 02a4 7F6E5D4C 		.word	1281191551
 692              		.cfi_endproc
 693              	.LFE148:
 694              		.size	HAL_FLASH_OB_Unlock, .-HAL_FLASH_OB_Unlock
 695              		.align	1
 696 02a8 AFF30080 		.p2align 4,,15
 696      AFF30080 
 697              		.global	HAL_FLASH_OB_Lock
 698              		.syntax unified
 699              		.thumb
 700              		.thumb_func
 701              		.fpu fpv4-sp-d16
 702              		.type	HAL_FLASH_OB_Lock, %function
 703              	HAL_FLASH_OB_Lock:
 704              	.LFB149:
 705              		.loc 1 787 1 is_stmt 1 view -0
 706              		.cfi_startproc
 707              		@ args = 0, pretend = 0, frame = 0
 708              		@ frame_needed = 0, uses_anonymous_args = 0
 709              		@ link register save eliminated.
 710              		.loc 1 789 3 view .LVU230
 711 02b0 044B     		ldr	r3, .L71
 712 02b2 9A69     		ldr	r2, [r3, #24]
 713 02b4 42F00102 		orr	r2, r2, #1
 714 02b8 9A61     		str	r2, [r3, #24]
 715              		.loc 1 792 3 view .LVU231
 716              		.loc 1 792 7 is_stmt 0 view .LVU232
 717 02ba 9869     		ldr	r0, [r3, #24]
 718              		.loc 1 794 12 view .LVU233
 719 02bc C043     		mvns	r0, r0
 720              		.loc 1 798 1 view .LVU234
 721 02be 00F00100 		and	r0, r0, #1
 722 02c2 7047     		bx	lr
 723              	.L72:
 724              		.align	2
 725              	.L71:
 726 02c4 00200052 		.word	1375739904
 727              		.cfi_endproc
 728              	.LFE149:
 729              		.size	HAL_FLASH_OB_Lock, .-HAL_FLASH_OB_Lock
 730              		.align	1
 731 02c8 AFF30080 		.p2align 4,,15
 731      AFF30080 
 732              		.global	HAL_FLASH_GetError
 733              		.syntax unified
ARM GAS  /tmp/ccMpHXhU.s 			page 14


 734              		.thumb
 735              		.thumb_func
 736              		.fpu fpv4-sp-d16
 737              		.type	HAL_FLASH_GetError, %function
 738              	HAL_FLASH_GetError:
 739              	.LFB151:
 740              		.loc 1 881 1 is_stmt 1 view -0
 741              		.cfi_startproc
 742              		@ args = 0, pretend = 0, frame = 0
 743              		@ frame_needed = 0, uses_anonymous_args = 0
 744              		@ link register save eliminated.
 745              		.loc 1 882 4 view .LVU236
 746              		.loc 1 882 17 is_stmt 0 view .LVU237
 747 02d0 014B     		ldr	r3, .L74
 748 02d2 9869     		ldr	r0, [r3, #24]
 749              		.loc 1 883 1 view .LVU238
 750 02d4 7047     		bx	lr
 751              	.L75:
 752 02d6 00BF     		.align	2
 753              	.L74:
 754 02d8 00000000 		.word	pFlash
 755              		.cfi_endproc
 756              	.LFE151:
 757              		.size	HAL_FLASH_GetError, .-HAL_FLASH_GetError
 758              		.align	1
 759 02dc AFF30080 		.p2align 4,,15
 760              		.global	FLASH_WaitForLastOperation
 761              		.syntax unified
 762              		.thumb
 763              		.thumb_func
 764              		.fpu fpv4-sp-d16
 765              		.type	FLASH_WaitForLastOperation, %function
 766              	FLASH_WaitForLastOperation:
 767              	.LVL56:
 768              	.LFB152:
 769              		.loc 1 906 1 is_stmt 1 view -0
 770              		.cfi_startproc
 771              		@ args = 0, pretend = 0, frame = 0
 772              		@ frame_needed = 0, uses_anonymous_args = 0
 773              		.loc 1 911 3 view .LVU240
 774              		.loc 1 912 3 view .LVU241
 775              		.loc 1 906 1 is_stmt 0 view .LVU242
 776 02e0 2DE9F041 		push	{r4, r5, r6, r7, r8, lr}
 777              		.cfi_def_cfa_offset 24
 778              		.cfi_offset 4, -24
 779              		.cfi_offset 5, -20
 780              		.cfi_offset 6, -16
 781              		.cfi_offset 7, -12
 782              		.cfi_offset 8, -8
 783              		.cfi_offset 14, -4
 784              		.loc 1 906 1 view .LVU243
 785 02e4 0F46     		mov	r7, r1
 786 02e6 0546     		mov	r5, r0
 787              		.loc 1 912 24 view .LVU244
 788 02e8 FFF7FEFF 		bl	HAL_GetTick
 789              	.LVL57:
 790              		.loc 1 923 13 view .LVU245
ARM GAS  /tmp/ccMpHXhU.s 			page 15


 791 02ec 2B4C     		ldr	r4, .L104
 792 02ee 012F     		cmp	r7, #1
 793              		.loc 1 912 24 view .LVU246
 794 02f0 8046     		mov	r8, r0
 795              	.LVL58:
 796              		.loc 1 914 3 is_stmt 1 view .LVU247
 797              		.loc 1 917 3 view .LVU248
 798              		.loc 1 926 9 is_stmt 0 view .LVU249
 799 02f2 2B4E     		ldr	r6, .L104+4
 800              		.loc 1 923 13 view .LVU250
 801 02f4 08BF     		it	eq
 802 02f6 0424     		moveq	r4, #4
 803              	.LVL59:
 804              	.L78:
 805              		.loc 1 926 9 view .LVU251
 806 02f8 042C     		cmp	r4, #4
 807 02fa 15D0     		beq	.L99
 808              		.loc 1 928 5 is_stmt 1 discriminator 2 view .LVU252
 809              		.loc 1 926 9 is_stmt 0 discriminator 2 view .LVU253
 810 02fc D6F81031 		ldr	r3, [r6, #272]
 811 0300 24EA0303 		bic	r3, r4, r3
 812 0304 13F0040F 		tst	r3, #4
 813 0308 0CBF     		ite	eq
 814 030a 0120     		moveq	r0, #1
 815 030c 0020     		movne	r0, #0
 816              		.loc 1 926 8 discriminator 2 view .LVU254
 817 030e 80B1     		cbz	r0, .L100
 818              	.L83:
 819              		.loc 1 928 7 view .LVU255
 820 0310 6B1C     		adds	r3, r5, #1
 821 0312 F1D0     		beq	.L78
 822              		.loc 1 930 7 is_stmt 1 view .LVU256
 823              		.loc 1 930 12 is_stmt 0 view .LVU257
 824 0314 FFF7FEFF 		bl	HAL_GetTick
 825              	.LVL60:
 826              		.loc 1 930 26 view .LVU258
 827 0318 A0EB0800 		sub	r0, r0, r8
 828              		.loc 1 930 50 view .LVU259
 829 031c A842     		cmp	r0, r5
 830 031e 01D8     		bhi	.L90
 831 0320 002D     		cmp	r5, #0
 832 0322 E9D1     		bne	.L78
 833              	.L90:
 834              		.loc 1 932 16 view .LVU260
 835 0324 0320     		movs	r0, #3
 836 0326 14E0     		b	.L97
 837              	.L99:
 838              		.loc 1 926 9 discriminator 1 view .LVU261
 839 0328 3069     		ldr	r0, [r6, #16]
 840 032a C0F38000 		ubfx	r0, r0, #2, #1
 841              		.loc 1 928 5 is_stmt 1 discriminator 1 view .LVU262
 842              		.loc 1 926 8 is_stmt 0 discriminator 1 view .LVU263
 843 032e 0028     		cmp	r0, #0
 844 0330 EED1     		bne	.L83
 845              	.L100:
 846              		.loc 1 938 3 is_stmt 1 view .LVU264
 847              		.loc 1 938 6 is_stmt 0 view .LVU265
ARM GAS  /tmp/ccMpHXhU.s 			page 16


 848 0332 012F     		cmp	r7, #1
 849              		.loc 1 940 22 view .LVU266
 850 0334 1A4B     		ldr	r3, .L104+4
 851              		.loc 1 948 17 view .LVU267
 852 0336 1B49     		ldr	r1, .L104+8
 853              		.loc 1 938 6 view .LVU268
 854 0338 1AD0     		beq	.L101
 855              		.loc 1 944 5 is_stmt 1 view .LVU269
 856              		.loc 1 944 23 is_stmt 0 view .LVU270
 857 033a D3F81021 		ldr	r2, [r3, #272]
 858              	.LVL61:
 859              		.loc 1 948 3 is_stmt 1 view .LVU271
 860              		.loc 1 948 5 is_stmt 0 view .LVU272
 861 033e 0A42     		tst	r2, r1
 862 0340 09D1     		bne	.L102
 863              		.loc 1 960 3 is_stmt 1 view .LVU273
 864              		.loc 1 970 5 view .LVU274
 865              		.loc 1 970 9 is_stmt 0 view .LVU275
 866 0342 D3F81021 		ldr	r2, [r3, #272]
 867              	.LVL62:
 868              		.loc 1 970 8 view .LVU276
 869 0346 D203     		lsls	r2, r2, #15
 870 0348 03D5     		bpl	.L97
 871              		.loc 1 973 7 is_stmt 1 view .LVU277
 872 034a 4FF48032 		mov	r2, #65536
 873 034e C3F81421 		str	r2, [r3, #276]
 874              	.L97:
 875              		.loc 1 978 1 is_stmt 0 view .LVU278
 876 0352 BDE8F081 		pop	{r4, r5, r6, r7, r8, pc}
 877              	.LVL63:
 878              	.L102:
 879              		.loc 1 951 22 view .LVU279
 880 0356 144C     		ldr	r4, .L104+12
 881              	.LVL64:
 882              		.loc 1 956 12 view .LVU280
 883 0358 0120     		movs	r0, #1
 884              		.loc 1 944 60 view .LVU281
 885 035a 1449     		ldr	r1, .L104+16
 886 035c 0A40     		ands	r2, r2, r1
 887              	.LVL65:
 888              		.loc 1 951 5 is_stmt 1 view .LVU282
 889              		.loc 1 951 22 is_stmt 0 view .LVU283
 890 035e A169     		ldr	r1, [r4, #24]
 891 0360 1143     		orrs	r1, r1, r2
 892 0362 41F00041 		orr	r1, r1, #-2147483648
 893 0366 A161     		str	r1, [r4, #24]
 894              		.loc 1 954 5 is_stmt 1 view .LVU284
 895 0368 C3F81421 		str	r2, [r3, #276]
 896              		.loc 1 978 1 is_stmt 0 view .LVU285
 897 036c BDE8F081 		pop	{r4, r5, r6, r7, r8, pc}
 898              	.LVL66:
 899              	.L101:
 900              		.loc 1 940 5 is_stmt 1 view .LVU286
 901              		.loc 1 940 22 is_stmt 0 view .LVU287
 902 0370 1A69     		ldr	r2, [r3, #16]
 903              	.LVL67:
 904              		.loc 1 948 3 is_stmt 1 view .LVU288
ARM GAS  /tmp/ccMpHXhU.s 			page 17


 905              		.loc 1 948 5 is_stmt 0 view .LVU289
 906 0372 0A42     		tst	r2, r1
 907 0374 07D1     		bne	.L103
 908              		.loc 1 962 5 is_stmt 1 view .LVU290
 909              		.loc 1 962 9 is_stmt 0 view .LVU291
 910 0376 1A69     		ldr	r2, [r3, #16]
 911              	.LVL68:
 912              		.loc 1 962 8 view .LVU292
 913 0378 D103     		lsls	r1, r2, #15
 914 037a EAD5     		bpl	.L97
 915              		.loc 1 965 7 is_stmt 1 view .LVU293
 916 037c 4FF48032 		mov	r2, #65536
 917 0380 5A61     		str	r2, [r3, #20]
 918              		.loc 1 978 1 is_stmt 0 view .LVU294
 919 0382 BDE8F081 		pop	{r4, r5, r6, r7, r8, pc}
 920              	.LVL69:
 921              	.L103:
 922              		.loc 1 951 22 view .LVU295
 923 0386 084C     		ldr	r4, .L104+12
 924              	.LVL70:
 925              		.loc 1 956 12 view .LVU296
 926 0388 3846     		mov	r0, r7
 927              		.loc 1 940 15 view .LVU297
 928 038a 0849     		ldr	r1, .L104+16
 929 038c 0A40     		ands	r2, r2, r1
 930              	.LVL71:
 931              		.loc 1 951 5 is_stmt 1 view .LVU298
 932              		.loc 1 951 22 is_stmt 0 view .LVU299
 933 038e A169     		ldr	r1, [r4, #24]
 934 0390 1143     		orrs	r1, r1, r2
 935 0392 A161     		str	r1, [r4, #24]
 936              		.loc 1 954 5 is_stmt 1 view .LVU300
 937 0394 5A61     		str	r2, [r3, #20]
 938              		.loc 1 978 1 is_stmt 0 view .LVU301
 939 0396 BDE8F081 		pop	{r4, r5, r6, r7, r8, pc}
 940              	.LVL72:
 941              	.L105:
 942              		.loc 1 978 1 view .LVU302
 943 039a 00BF     		.align	2
 944              	.L104:
 945 039c 04000080 		.word	-2147483644
 946 03a0 00200052 		.word	1375739904
 947 03a4 0000EE15 		.word	367919104
 948 03a8 00000000 		.word	pFlash
 949 03ac 0000EE17 		.word	401473536
 950              		.cfi_endproc
 951              	.LFE152:
 952              		.size	FLASH_WaitForLastOperation, .-FLASH_WaitForLastOperation
 953              		.align	1
 954              		.p2align 4,,15
 955              		.global	HAL_FLASH_Program
 956              		.syntax unified
 957              		.thumb
 958              		.thumb_func
 959              		.fpu fpv4-sp-d16
 960              		.type	HAL_FLASH_Program, %function
 961              	HAL_FLASH_Program:
ARM GAS  /tmp/ccMpHXhU.s 			page 18


 962              	.LVL73:
 963              	.LFB141:
 964              		.loc 1 147 1 is_stmt 1 view -0
 965              		.cfi_startproc
 966              		@ args = 0, pretend = 0, frame = 0
 967              		@ frame_needed = 0, uses_anonymous_args = 0
 968              		.loc 1 147 1 is_stmt 0 view .LVU304
 969 03b0 F8B5     		push	{r3, r4, r5, r6, r7, lr}
 970              		.cfi_def_cfa_offset 24
 971              		.cfi_offset 3, -24
 972              		.cfi_offset 4, -20
 973              		.cfi_offset 5, -16
 974              		.cfi_offset 6, -12
 975              		.cfi_offset 7, -8
 976              		.cfi_offset 14, -4
 977              		.loc 1 159 3 view .LVU305
 978 03b2 2A4D     		ldr	r5, .L120
 979              		.loc 1 148 3 is_stmt 1 view .LVU306
 980              		.loc 1 149 3 view .LVU307
 981              	.LVL74:
 982              		.loc 1 150 3 view .LVU308
 983              		.loc 1 151 3 view .LVU309
 984              		.loc 1 152 3 view .LVU310
 985              		.loc 1 155 3 view .LVU311
 986              		.loc 1 156 3 view .LVU312
 987              		.loc 1 159 3 view .LVU313
 988              		.loc 1 159 3 view .LVU314
 989 03b4 2B7D     		ldrb	r3, [r5, #20]	@ zero_extendqisi2
 990 03b6 012B     		cmp	r3, #1
 991 03b8 4DD0     		beq	.L115
 992              		.loc 1 159 3 discriminator 2 view .LVU315
 993              		.loc 1 164 6 is_stmt 0 discriminator 2 view .LVU316
 994 03ba 01F17843 		add	r3, r1, #-134217728
 995              		.loc 1 159 3 discriminator 2 view .LVU317
 996 03be 0126     		movs	r6, #1
 997 03c0 1746     		mov	r7, r2
 998 03c2 0C46     		mov	r4, r1
 999              		.loc 1 164 5 discriminator 2 view .LVU318
 1000 03c4 B3F5801F 		cmp	r3, #1048576
 1001              		.loc 1 159 3 discriminator 2 view .LVU319
 1002 03c8 2E75     		strb	r6, [r5, #20]
 1003              		.loc 1 164 3 is_stmt 1 discriminator 2 view .LVU320
 1004              		.loc 1 175 20 is_stmt 0 discriminator 2 view .LVU321
 1005 03ca 4FF00003 		mov	r3, #0
 1006              		.loc 1 164 5 discriminator 2 view .LVU322
 1007 03ce 2FD3     		bcc	.L118
 1008              		.loc 1 171 5 is_stmt 1 view .LVU323
 1009              	.LVL75:
 1010              		.loc 1 175 3 view .LVU324
 1011              		.loc 1 178 12 is_stmt 0 view .LVU325
 1012 03d0 0221     		movs	r1, #2
 1013              	.LVL76:
 1014              		.loc 1 178 12 view .LVU326
 1015 03d2 4CF25030 		movw	r0, #50000
 1016              	.LVL77:
 1017              		.loc 1 175 20 view .LVU327
 1018 03d6 AB61     		str	r3, [r5, #24]
ARM GAS  /tmp/ccMpHXhU.s 			page 19


 1019              		.loc 1 178 3 is_stmt 1 view .LVU328
 1020              		.loc 1 178 12 is_stmt 0 view .LVU329
 1021 03d8 FFF7FEFF 		bl	FLASH_WaitForLastOperation
 1022              	.LVL78:
 1023              		.loc 1 180 3 is_stmt 1 view .LVU330
 1024              		.loc 1 180 5 is_stmt 0 view .LVU331
 1025 03dc 28BB     		cbnz	r0, .L110
 1026              		.loc 1 182 5 is_stmt 1 view .LVU332
 1027              		.loc 1 200 7 view .LVU333
 1028 03de 204A     		ldr	r2, .L120+4
 1029              		.loc 1 171 10 is_stmt 0 view .LVU334
 1030 03e0 0226     		movs	r6, #2
 1031              		.loc 1 200 7 view .LVU335
 1032 03e2 D2F80C31 		ldr	r3, [r2, #268]
 1033 03e6 3343     		orrs	r3, r3, r6
 1034 03e8 C2F80C31 		str	r3, [r2, #268]
 1035              	.LVL79:
 1036              	.L112:
 1037              		.loc 1 150 18 view .LVU336
 1038 03ec 3A46     		mov	r2, r7
 1039              		.loc 1 203 5 is_stmt 1 view .LVU337
 1040              	.LBB18:
 1041              	.LBI18:
 1042              		.file 2 "../../../external/ChibiOS/os/common/ext/ARM/CMSIS/Core/Include/cmsis_gcc.h"
 1043              		.loc 2 866 27 view .LVU338
 1044              	.LBB19:
 1045              		.loc 2 868 3 view .LVU339
 1046              		.syntax unified
 1047              	@ 868 "../../../external/ChibiOS/os/common/ext/ARM/CMSIS/Core/Include/cmsis_gcc.h" 1
 1048 03ee BFF36F8F 		isb 0xF
 1049              	@ 0 "" 2
 1050              		.thumb
 1051              		.syntax unified
 1052              	.LBE19:
 1053              	.LBE18:
 1054              		.loc 1 204 5 view .LVU340
 1055              	.LBB20:
 1056              	.LBI20:
 1057              		.loc 2 877 27 view .LVU341
 1058              	.LBB21:
 1059              		.loc 2 879 3 view .LVU342
 1060              		.syntax unified
 1061              	@ 879 "../../../external/ChibiOS/os/common/ext/ARM/CMSIS/Core/Include/cmsis_gcc.h" 1
 1062 03f2 BFF34F8F 		dsb 0xF
 1063              	@ 0 "" 2
 1064              		.thumb
 1065              		.syntax unified
 1066 03f6 E01B     		subs	r0, r4, r7
 1067              	.LVL80:
 1068              		.loc 2 879 3 is_stmt 0 view .LVU343
 1069 03f8 07F12004 		add	r4, r7, #32
 1070              	.LVL81:
 1071              	.L113:
 1072              		.loc 2 879 3 view .LVU344
 1073              	.LBE21:
 1074              	.LBE20:
 1075              		.loc 1 216 7 is_stmt 1 discriminator 1 view .LVU345
ARM GAS  /tmp/ccMpHXhU.s 			page 20


 1076              		.loc 1 218 9 discriminator 1 view .LVU346
 1077              		.loc 1 218 22 is_stmt 0 discriminator 1 view .LVU347
 1078 03fc 1368     		ldr	r3, [r2]
 1079              		.loc 1 218 20 discriminator 1 view .LVU348
 1080 03fe 1350     		str	r3, [r2, r0]
 1081              		.loc 1 219 9 is_stmt 1 discriminator 1 view .LVU349
 1082              	.LVL82:
 1083              		.loc 1 220 9 discriminator 1 view .LVU350
 1084              		.loc 1 220 17 is_stmt 0 discriminator 1 view .LVU351
 1085 0400 0432     		adds	r2, r2, #4
 1086              	.LVL83:
 1087              		.loc 1 221 9 is_stmt 1 discriminator 1 view .LVU352
 1088              		.loc 1 222 6 is_stmt 0 discriminator 1 view .LVU353
 1089 0402 A242     		cmp	r2, r4
 1090 0404 FAD1     		bne	.L113
 1091              		.loc 1 225 5 is_stmt 1 view .LVU354
 1092              	.LBB22:
 1093              	.LBI22:
 1094              		.loc 2 866 27 view .LVU355
 1095              	.LBB23:
 1096              		.loc 2 868 3 view .LVU356
 1097              		.syntax unified
 1098              	@ 868 "../../../external/ChibiOS/os/common/ext/ARM/CMSIS/Core/Include/cmsis_gcc.h" 1
 1099 0406 BFF36F8F 		isb 0xF
 1100              	@ 0 "" 2
 1101              		.thumb
 1102              		.syntax unified
 1103              	.LBE23:
 1104              	.LBE22:
 1105              		.loc 1 226 5 view .LVU357
 1106              	.LBB24:
 1107              	.LBI24:
 1108              		.loc 2 877 27 view .LVU358
 1109              	.LBB25:
 1110              		.loc 2 879 3 view .LVU359
 1111              		.syntax unified
 1112              	@ 879 "../../../external/ChibiOS/os/common/ext/ARM/CMSIS/Core/Include/cmsis_gcc.h" 1
 1113 040a BFF34F8F 		dsb 0xF
 1114              	@ 0 "" 2
 1115              		.thumb
 1116              		.syntax unified
 1117              	.LBE25:
 1118              	.LBE24:
 1119              		.loc 1 229 5 view .LVU360
 1120              		.loc 1 229 14 is_stmt 0 view .LVU361
 1121 040e 4CF25030 		movw	r0, #50000
 1122 0412 3146     		mov	r1, r6
 1123 0414 FFF7FEFF 		bl	FLASH_WaitForLastOperation
 1124              	.LVL84:
 1125              		.loc 1 240 7 is_stmt 1 view .LVU362
 1126              		.loc 1 240 9 is_stmt 0 view .LVU363
 1127 0418 012E     		cmp	r6, #1
 1128              		.loc 1 243 9 view .LVU364
 1129 041a 114A     		ldr	r2, .L120+4
 1130              		.loc 1 240 9 view .LVU365
 1131 041c 16D0     		beq	.L119
 1132              		.loc 1 248 9 is_stmt 1 view .LVU366
ARM GAS  /tmp/ccMpHXhU.s 			page 21


 1133 041e D2F80C31 		ldr	r3, [r2, #268]
 1134 0422 23F00203 		bic	r3, r3, #2
 1135 0426 C2F80C31 		str	r3, [r2, #268]
 1136              	.L110:
 1137              		.loc 1 254 3 view .LVU367
 1138              		.loc 1 254 3 view .LVU368
 1139 042a 0023     		movs	r3, #0
 1140 042c 2B75     		strb	r3, [r5, #20]
 1141              		.loc 1 256 3 view .LVU369
 1142              		.loc 1 257 1 is_stmt 0 view .LVU370
 1143 042e F8BD     		pop	{r3, r4, r5, r6, r7, pc}
 1144              	.LVL85:
 1145              	.L118:
 1146              		.loc 1 175 3 is_stmt 1 view .LVU371
 1147              		.loc 1 178 12 is_stmt 0 view .LVU372
 1148 0430 3146     		mov	r1, r6
 1149              	.LVL86:
 1150              		.loc 1 178 12 view .LVU373
 1151 0432 4CF25030 		movw	r0, #50000
 1152              	.LVL87:
 1153              		.loc 1 175 20 view .LVU374
 1154 0436 AB61     		str	r3, [r5, #24]
 1155              		.loc 1 178 3 is_stmt 1 view .LVU375
 1156              		.loc 1 178 12 is_stmt 0 view .LVU376
 1157 0438 FFF7FEFF 		bl	FLASH_WaitForLastOperation
 1158              	.LVL88:
 1159              		.loc 1 180 3 is_stmt 1 view .LVU377
 1160              		.loc 1 180 5 is_stmt 0 view .LVU378
 1161 043c 0028     		cmp	r0, #0
 1162 043e F4D1     		bne	.L110
 1163              		.loc 1 182 5 is_stmt 1 view .LVU379
 1164              		.loc 1 194 9 view .LVU380
 1165 0440 074A     		ldr	r2, .L120+4
 1166 0442 D368     		ldr	r3, [r2, #12]
 1167 0444 43F00203 		orr	r3, r3, #2
 1168 0448 D360     		str	r3, [r2, #12]
 1169 044a CFE7     		b	.L112
 1170              	.LVL89:
 1171              	.L119:
 1172              		.loc 1 243 9 view .LVU381
 1173 044c D368     		ldr	r3, [r2, #12]
 1174 044e 23F00203 		bic	r3, r3, #2
 1175 0452 D360     		str	r3, [r2, #12]
 1176 0454 E9E7     		b	.L110
 1177              	.LVL90:
 1178              	.L115:
 1179              		.loc 1 159 3 is_stmt 0 view .LVU382
 1180 0456 0220     		movs	r0, #2
 1181              	.LVL91:
 1182              		.loc 1 257 1 view .LVU383
 1183 0458 F8BD     		pop	{r3, r4, r5, r6, r7, pc}
 1184              	.L121:
 1185 045a 00BF     		.align	2
 1186              	.L120:
 1187 045c 00000000 		.word	pFlash
 1188 0460 00200052 		.word	1375739904
 1189              		.cfi_endproc
ARM GAS  /tmp/ccMpHXhU.s 			page 22


 1190              	.LFE141:
 1191              		.size	HAL_FLASH_Program, .-HAL_FLASH_Program
 1192              		.align	1
 1193 0464 AFF30080 		.p2align 4,,15
 1193      AFF30080 
 1193      AFF30080 
 1194              		.global	HAL_FLASH_Program_IT
 1195              		.syntax unified
 1196              		.thumb
 1197              		.thumb_func
 1198              		.fpu fpv4-sp-d16
 1199              		.type	HAL_FLASH_Program_IT, %function
 1200              	HAL_FLASH_Program_IT:
 1201              	.LVL92:
 1202              	.LFB142:
 1203              		.loc 1 269 1 is_stmt 1 view -0
 1204              		.cfi_startproc
 1205              		@ args = 0, pretend = 0, frame = 0
 1206              		@ frame_needed = 0, uses_anonymous_args = 0
 1207              		.loc 1 269 1 is_stmt 0 view .LVU385
 1208 0470 70B5     		push	{r4, r5, r6, lr}
 1209              		.cfi_def_cfa_offset 16
 1210              		.cfi_offset 4, -16
 1211              		.cfi_offset 5, -12
 1212              		.cfi_offset 6, -8
 1213              		.cfi_offset 14, -4
 1214              		.loc 1 281 3 view .LVU386
 1215 0472 274E     		ldr	r6, .L132
 1216              		.loc 1 270 3 is_stmt 1 view .LVU387
 1217              		.loc 1 271 3 view .LVU388
 1218              	.LVL93:
 1219              		.loc 1 272 3 view .LVU389
 1220              		.loc 1 273 3 view .LVU390
 1221              		.loc 1 274 3 view .LVU391
 1222              		.loc 1 277 3 view .LVU392
 1223              		.loc 1 278 3 view .LVU393
 1224              		.loc 1 281 3 view .LVU394
 1225              		.loc 1 281 3 view .LVU395
 1226 0474 337D     		ldrb	r3, [r6, #20]	@ zero_extendqisi2
 1227 0476 012B     		cmp	r3, #1
 1228 0478 48D0     		beq	.L128
 1229              		.loc 1 281 3 discriminator 2 view .LVU396
 1230 047a 0C46     		mov	r4, r1
 1231 047c 1546     		mov	r5, r2
 1232 047e 0121     		movs	r1, #1
 1233              	.LVL94:
 1234              		.loc 1 284 20 is_stmt 0 discriminator 2 view .LVU397
 1235 0480 0022     		movs	r2, #0
 1236              	.LVL95:
 1237              		.loc 1 289 6 discriminator 2 view .LVU398
 1238 0482 04F17843 		add	r3, r4, #-134217728
 1239              		.loc 1 281 3 discriminator 2 view .LVU399
 1240 0486 3175     		strb	r1, [r6, #20]
 1241              		.loc 1 284 3 is_stmt 1 discriminator 2 view .LVU400
 1242              		.loc 1 289 5 is_stmt 0 discriminator 2 view .LVU401
 1243 0488 B3F5801F 		cmp	r3, #1048576
 1244              		.loc 1 284 20 discriminator 2 view .LVU402
ARM GAS  /tmp/ccMpHXhU.s 			page 23


 1245 048c B261     		str	r2, [r6, #24]
 1246              		.loc 1 289 3 is_stmt 1 discriminator 2 view .LVU403
 1247              		.loc 1 289 5 is_stmt 0 discriminator 2 view .LVU404
 1248 048e 28D3     		bcc	.L131
 1249              		.loc 1 296 5 is_stmt 1 view .LVU405
 1250              	.LVL96:
 1251              		.loc 1 300 3 view .LVU406
 1252              		.loc 1 300 12 is_stmt 0 view .LVU407
 1253 0490 0221     		movs	r1, #2
 1254 0492 4CF25030 		movw	r0, #50000
 1255              	.LVL97:
 1256              		.loc 1 300 12 view .LVU408
 1257 0496 FFF7FEFF 		bl	FLASH_WaitForLastOperation
 1258              	.LVL98:
 1259              		.loc 1 302 3 is_stmt 1 view .LVU409
 1260              		.loc 1 302 6 is_stmt 0 view .LVU410
 1261 049a A0BB     		cbnz	r0, .L125
 1262              		.loc 1 309 5 is_stmt 1 view .LVU411
 1263              		.loc 1 344 7 is_stmt 0 view .LVU412
 1264 049c 1D4B     		ldr	r3, .L132+4
 1265              		.loc 1 341 31 view .LVU413
 1266 049e 0622     		movs	r2, #6
 1267              		.loc 1 309 20 view .LVU414
 1268 04a0 3461     		str	r4, [r6, #16]
 1269              		.loc 1 311 5 is_stmt 1 view .LVU415
 1270              		.loc 1 341 7 view .LVU416
 1271              		.loc 1 341 31 is_stmt 0 view .LVU417
 1272 04a2 3270     		strb	r2, [r6]
 1273              		.loc 1 344 7 is_stmt 1 view .LVU418
 1274 04a4 D3F80C21 		ldr	r2, [r3, #268]
 1275 04a8 42F00202 		orr	r2, r2, #2
 1276 04ac C3F80C21 		str	r2, [r3, #268]
 1277              		.loc 1 348 7 view .LVU419
 1278 04b0 D3F80C21 		ldr	r2, [r3, #268]
 1279 04b4 42F4DE02 		orr	r2, r2, #7274496
 1280 04b8 C3F80C21 		str	r2, [r3, #268]
 1281              	.LVL99:
 1282              	.L126:
 1283              		.loc 1 272 18 is_stmt 0 view .LVU420
 1284 04bc 2A46     		mov	r2, r5
 1285              		.loc 1 356 5 is_stmt 1 view .LVU421
 1286              	.LBB26:
 1287              	.LBI26:
 1288              		.loc 2 866 27 view .LVU422
 1289              	.LBB27:
 1290              		.loc 2 868 3 view .LVU423
 1291              		.syntax unified
 1292              	@ 868 "../../../external/ChibiOS/os/common/ext/ARM/CMSIS/Core/Include/cmsis_gcc.h" 1
 1293 04be BFF36F8F 		isb 0xF
 1294              	@ 0 "" 2
 1295              		.thumb
 1296              		.syntax unified
 1297              	.LBE27:
 1298              	.LBE26:
 1299              		.loc 1 357 5 view .LVU424
 1300              	.LBB28:
 1301              	.LBI28:
ARM GAS  /tmp/ccMpHXhU.s 			page 24


 1302              		.loc 2 877 27 view .LVU425
 1303              	.LBB29:
 1304              		.loc 2 879 3 view .LVU426
 1305              		.syntax unified
 1306              	@ 879 "../../../external/ChibiOS/os/common/ext/ARM/CMSIS/Core/Include/cmsis_gcc.h" 1
 1307 04c2 BFF34F8F 		dsb 0xF
 1308              	@ 0 "" 2
 1309              		.thumb
 1310              		.syntax unified
 1311 04c6 611B     		subs	r1, r4, r5
 1312 04c8 05F12000 		add	r0, r5, #32
 1313              	.LVL100:
 1314              	.L127:
 1315              		.loc 2 879 3 is_stmt 0 view .LVU427
 1316              	.LBE29:
 1317              	.LBE28:
 1318              		.loc 1 369 7 is_stmt 1 discriminator 1 view .LVU428
 1319              		.loc 1 371 9 discriminator 1 view .LVU429
 1320              		.loc 1 371 22 is_stmt 0 discriminator 1 view .LVU430
 1321 04cc 1368     		ldr	r3, [r2]
 1322              		.loc 1 371 20 discriminator 1 view .LVU431
 1323 04ce 5350     		str	r3, [r2, r1]
 1324              		.loc 1 372 9 is_stmt 1 discriminator 1 view .LVU432
 1325              	.LVL101:
 1326              		.loc 1 373 9 discriminator 1 view .LVU433
 1327              		.loc 1 373 17 is_stmt 0 discriminator 1 view .LVU434
 1328 04d0 0432     		adds	r2, r2, #4
 1329              	.LVL102:
 1330              		.loc 1 374 9 is_stmt 1 discriminator 1 view .LVU435
 1331              		.loc 1 375 7 is_stmt 0 discriminator 1 view .LVU436
 1332 04d2 8242     		cmp	r2, r0
 1333 04d4 FAD1     		bne	.L127
 1334              		.loc 1 378 5 is_stmt 1 view .LVU437
 1335              	.LBB30:
 1336              	.LBI30:
 1337              		.loc 2 866 27 view .LVU438
 1338              	.LBB31:
 1339              		.loc 2 868 3 view .LVU439
 1340              		.syntax unified
 1341              	@ 868 "../../../external/ChibiOS/os/common/ext/ARM/CMSIS/Core/Include/cmsis_gcc.h" 1
 1342 04d6 BFF36F8F 		isb 0xF
 1343              	@ 0 "" 2
 1344              		.thumb
 1345              		.syntax unified
 1346              	.LBE31:
 1347              	.LBE30:
 1348              		.loc 1 379 5 view .LVU440
 1349              	.LBB32:
 1350              	.LBI32:
 1351              		.loc 2 877 27 view .LVU441
 1352              	.LBB33:
 1353              		.loc 2 879 3 view .LVU442
 1354              		.syntax unified
 1355              	@ 879 "../../../external/ChibiOS/os/common/ext/ARM/CMSIS/Core/Include/cmsis_gcc.h" 1
 1356 04da BFF34F8F 		dsb 0xF
 1357              	@ 0 "" 2
 1358              		.thumb
ARM GAS  /tmp/ccMpHXhU.s 			page 25


 1359              		.syntax unified
 1360 04de 0020     		movs	r0, #0
 1361              	.LBE33:
 1362              	.LBE32:
 1363              		.loc 1 383 1 is_stmt 0 view .LVU443
 1364 04e0 70BD     		pop	{r4, r5, r6, pc}
 1365              	.LVL103:
 1366              	.L131:
 1367              		.loc 1 300 3 is_stmt 1 view .LVU444
 1368              		.loc 1 300 12 is_stmt 0 view .LVU445
 1369 04e2 4CF25030 		movw	r0, #50000
 1370              	.LVL104:
 1371              		.loc 1 300 12 view .LVU446
 1372 04e6 FFF7FEFF 		bl	FLASH_WaitForLastOperation
 1373              	.LVL105:
 1374              		.loc 1 302 3 is_stmt 1 view .LVU447
 1375              		.loc 1 302 6 is_stmt 0 view .LVU448
 1376 04ea 60B9     		cbnz	r0, .L125
 1377              		.loc 1 309 5 is_stmt 1 view .LVU449
 1378              		.loc 1 326 9 is_stmt 0 view .LVU450
 1379 04ec 094B     		ldr	r3, .L132+4
 1380              		.loc 1 314 31 view .LVU451
 1381 04ee 0322     		movs	r2, #3
 1382              		.loc 1 309 20 view .LVU452
 1383 04f0 3461     		str	r4, [r6, #16]
 1384              		.loc 1 311 5 is_stmt 1 view .LVU453
 1385              		.loc 1 314 7 view .LVU454
 1386              		.loc 1 314 31 is_stmt 0 view .LVU455
 1387 04f2 3270     		strb	r2, [r6]
 1388              		.loc 1 326 9 is_stmt 1 view .LVU456
 1389 04f4 DA68     		ldr	r2, [r3, #12]
 1390 04f6 42F00202 		orr	r2, r2, #2
 1391 04fa DA60     		str	r2, [r3, #12]
 1392              		.loc 1 331 7 view .LVU457
 1393 04fc DA68     		ldr	r2, [r3, #12]
 1394 04fe 42F4DE02 		orr	r2, r2, #7274496
 1395 0502 DA60     		str	r2, [r3, #12]
 1396 0504 DAE7     		b	.L126
 1397              	.LVL106:
 1398              	.L125:
 1399              		.loc 1 305 5 view .LVU458
 1400              		.loc 1 305 5 view .LVU459
 1401 0506 0023     		movs	r3, #0
 1402 0508 3375     		strb	r3, [r6, #20]
 1403              		.loc 1 383 1 is_stmt 0 view .LVU460
 1404 050a 70BD     		pop	{r4, r5, r6, pc}
 1405              	.LVL107:
 1406              	.L128:
 1407              		.loc 1 281 3 view .LVU461
 1408 050c 0220     		movs	r0, #2
 1409              	.LVL108:
 1410              		.loc 1 383 1 view .LVU462
 1411 050e 70BD     		pop	{r4, r5, r6, pc}
 1412              	.L133:
 1413              		.align	2
 1414              	.L132:
 1415 0510 00000000 		.word	pFlash
ARM GAS  /tmp/ccMpHXhU.s 			page 26


 1416 0514 00200052 		.word	1375739904
 1417              		.cfi_endproc
 1418              	.LFE142:
 1419              		.size	HAL_FLASH_Program_IT, .-HAL_FLASH_Program_IT
 1420              		.align	1
 1421 0518 AFF30080 		.p2align 4,,15
 1421      AFF30080 
 1422              		.global	FLASH_OB_WaitForLastOperation
 1423              		.syntax unified
 1424              		.thumb
 1425              		.thumb_func
 1426              		.fpu fpv4-sp-d16
 1427              		.type	FLASH_OB_WaitForLastOperation, %function
 1428              	FLASH_OB_WaitForLastOperation:
 1429              	.LVL109:
 1430              	.LFB153:
 1431              		.loc 1 986 1 is_stmt 1 view -0
 1432              		.cfi_startproc
 1433              		@ args = 0, pretend = 0, frame = 0
 1434              		@ frame_needed = 0, uses_anonymous_args = 0
 1435              		.loc 1 988 3 view .LVU464
 1436              		.loc 1 986 1 is_stmt 0 view .LVU465
 1437 0520 70B5     		push	{r4, r5, r6, lr}
 1438              		.cfi_def_cfa_offset 16
 1439              		.cfi_offset 4, -16
 1440              		.cfi_offset 5, -12
 1441              		.cfi_offset 6, -8
 1442              		.cfi_offset 14, -4
 1443              		.loc 1 986 1 view .LVU466
 1444 0522 0546     		mov	r5, r0
 1445              		.loc 1 991 9 view .LVU467
 1446 0524 114C     		ldr	r4, .L146
 1447              		.loc 1 988 24 view .LVU468
 1448 0526 FFF7FEFF 		bl	HAL_GetTick
 1449              	.LVL110:
 1450              		.loc 1 988 24 view .LVU469
 1451 052a 0646     		mov	r6, r0
 1452              	.LVL111:
 1453              		.loc 1 991 3 is_stmt 1 view .LVU470
 1454              		.loc 1 991 8 is_stmt 0 view .LVU471
 1455 052c 01E0     		b	.L136
 1456              	.LVL112:
 1457              	.L138:
 1458              		.loc 1 993 7 view .LVU472
 1459 052e 6A1C     		adds	r2, r5, #1
 1460 0530 07D1     		bne	.L144
 1461              	.L136:
 1462              		.loc 1 993 5 is_stmt 1 view .LVU473
 1463              		.loc 1 991 9 is_stmt 0 view .LVU474
 1464 0532 E369     		ldr	r3, [r4, #28]
 1465              		.loc 1 991 8 view .LVU475
 1466 0534 DB07     		lsls	r3, r3, #31
 1467 0536 FAD4     		bmi	.L138
 1468              		.loc 1 1003 3 is_stmt 1 view .LVU476
 1469              		.loc 1 1003 6 is_stmt 0 view .LVU477
 1470 0538 E069     		ldr	r0, [r4, #28]
 1471              		.loc 1 1003 5 view .LVU478
ARM GAS  /tmp/ccMpHXhU.s 			page 27


 1472 053a 10F08040 		ands	r0, r0, #1073741824
 1473 053e 09D1     		bne	.L145
 1474              		.loc 1 1016 1 view .LVU479
 1475 0540 70BD     		pop	{r4, r5, r6, pc}
 1476              	.LVL113:
 1477              	.L144:
 1478              		.loc 1 995 7 is_stmt 1 view .LVU480
 1479              		.loc 1 995 12 is_stmt 0 view .LVU481
 1480 0542 FFF7FEFF 		bl	HAL_GetTick
 1481              	.LVL114:
 1482              		.loc 1 995 26 view .LVU482
 1483 0546 801B     		subs	r0, r0, r6
 1484              		.loc 1 995 50 view .LVU483
 1485 0548 A842     		cmp	r0, r5
 1486 054a 01D8     		bhi	.L139
 1487 054c 002D     		cmp	r5, #0
 1488 054e F0D1     		bne	.L136
 1489              	.L139:
 1490              		.loc 1 997 16 view .LVU484
 1491 0550 0320     		movs	r0, #3
 1492              		.loc 1 1016 1 view .LVU485
 1493 0552 70BD     		pop	{r4, r5, r6, pc}
 1494              	.LVL115:
 1495              	.L145:
 1496              	.LBB36:
 1497              	.LBI36:
 1498              		.loc 1 985 19 is_stmt 1 view .LVU486
 1499              	.LBB37:
 1500              		.loc 1 1006 5 view .LVU487
 1501              		.loc 1 1006 22 is_stmt 0 view .LVU488
 1502 0554 064A     		ldr	r2, .L146+4
 1503              		.loc 1 1009 19 view .LVU489
 1504 0556 0120     		movs	r0, #1
 1505              		.loc 1 1006 22 view .LVU490
 1506 0558 9369     		ldr	r3, [r2, #24]
 1507 055a 43F08043 		orr	r3, r3, #1073741824
 1508 055e 9361     		str	r3, [r2, #24]
 1509              		.loc 1 1009 5 is_stmt 1 view .LVU491
 1510              		.loc 1 1009 19 is_stmt 0 view .LVU492
 1511 0560 636A     		ldr	r3, [r4, #36]
 1512 0562 43F08043 		orr	r3, r3, #1073741824
 1513 0566 6362     		str	r3, [r4, #36]
 1514              		.loc 1 1011 5 is_stmt 1 view .LVU493
 1515              	.LVL116:
 1516              		.loc 1 1011 5 is_stmt 0 view .LVU494
 1517              	.LBE37:
 1518              	.LBE36:
 1519              		.loc 1 1016 1 view .LVU495
 1520 0568 70BD     		pop	{r4, r5, r6, pc}
 1521              	.LVL117:
 1522              	.L147:
 1523              		.loc 1 1016 1 view .LVU496
 1524 056a 00BF     		.align	2
 1525              	.L146:
 1526 056c 00200052 		.word	1375739904
 1527 0570 00000000 		.word	pFlash
 1528              		.cfi_endproc
ARM GAS  /tmp/ccMpHXhU.s 			page 28


 1529              	.LFE153:
 1530              		.size	FLASH_OB_WaitForLastOperation, .-FLASH_OB_WaitForLastOperation
 1531              		.align	1
 1532 0574 AFF30080 		.p2align 4,,15
 1532      AFF30080 
 1532      AFF30080 
 1533              		.global	FLASH_CRC_WaitForLastOperation
 1534              		.syntax unified
 1535              		.thumb
 1536              		.thumb_func
 1537              		.fpu fpv4-sp-d16
 1538              		.type	FLASH_CRC_WaitForLastOperation, %function
 1539              	FLASH_CRC_WaitForLastOperation:
 1540              	.LVL118:
 1541              	.LFB154:
 1542              		.loc 1 1025 1 is_stmt 1 view -0
 1543              		.cfi_startproc
 1544              		@ args = 0, pretend = 0, frame = 0
 1545              		@ frame_needed = 0, uses_anonymous_args = 0
 1546              		.loc 1 1026 3 view .LVU498
 1547              		.loc 1 1027 3 view .LVU499
 1548              		.loc 1 1025 1 is_stmt 0 view .LVU500
 1549 0580 2DE9F041 		push	{r4, r5, r6, r7, r8, lr}
 1550              		.cfi_def_cfa_offset 24
 1551              		.cfi_offset 4, -24
 1552              		.cfi_offset 5, -20
 1553              		.cfi_offset 6, -16
 1554              		.cfi_offset 7, -12
 1555              		.cfi_offset 8, -8
 1556              		.cfi_offset 14, -4
 1557              		.loc 1 1025 1 view .LVU501
 1558 0584 0E46     		mov	r6, r1
 1559 0586 0546     		mov	r5, r0
 1560              		.loc 1 1027 24 view .LVU502
 1561 0588 FFF7FEFF 		bl	HAL_GetTick
 1562              	.LVL119:
 1563              		.loc 1 1038 13 view .LVU503
 1564 058c 214C     		ldr	r4, .L167
 1565 058e 012E     		cmp	r6, #1
 1566              		.loc 1 1027 24 view .LVU504
 1567 0590 8046     		mov	r8, r0
 1568              	.LVL120:
 1569              		.loc 1 1029 3 is_stmt 1 view .LVU505
 1570              		.loc 1 1032 3 view .LVU506
 1571              		.loc 1 1042 9 is_stmt 0 view .LVU507
 1572 0592 214F     		ldr	r7, .L167+4
 1573              		.loc 1 1038 13 view .LVU508
 1574 0594 08BF     		it	eq
 1575 0596 0824     		moveq	r4, #8
 1576              	.LVL121:
 1577              	.L150:
 1578              		.loc 1 1042 9 view .LVU509
 1579 0598 082C     		cmp	r4, #8
 1580 059a 16D0     		beq	.L164
 1581              		.loc 1 1044 5 is_stmt 1 discriminator 2 view .LVU510
 1582              		.loc 1 1042 9 is_stmt 0 discriminator 2 view .LVU511
 1583 059c D7F81031 		ldr	r3, [r7, #272]
ARM GAS  /tmp/ccMpHXhU.s 			page 29


 1584 05a0 24EA0303 		bic	r3, r4, r3
 1585 05a4 13F0080F 		tst	r3, #8
 1586 05a8 0CBF     		ite	eq
 1587 05aa 0120     		moveq	r0, #1
 1588 05ac 0020     		movne	r0, #0
 1589              		.loc 1 1042 8 discriminator 2 view .LVU512
 1590 05ae 88B1     		cbz	r0, .L165
 1591              	.L155:
 1592              		.loc 1 1044 7 view .LVU513
 1593 05b0 6B1C     		adds	r3, r5, #1
 1594 05b2 F1D0     		beq	.L150
 1595              		.loc 1 1046 7 is_stmt 1 view .LVU514
 1596              		.loc 1 1046 12 is_stmt 0 view .LVU515
 1597 05b4 FFF7FEFF 		bl	HAL_GetTick
 1598              	.LVL122:
 1599              		.loc 1 1046 26 view .LVU516
 1600 05b8 A0EB0800 		sub	r0, r0, r8
 1601              		.loc 1 1046 50 view .LVU517
 1602 05bc A842     		cmp	r0, r5
 1603 05be 01D8     		bhi	.L158
 1604 05c0 002D     		cmp	r5, #0
 1605 05c2 E9D1     		bne	.L150
 1606              	.L158:
 1607              		.loc 1 1048 16 view .LVU518
 1608 05c4 0320     		movs	r0, #3
 1609              	.L151:
 1610              		.loc 1 1083 1 view .LVU519
 1611 05c6 BDE8F081 		pop	{r4, r5, r6, r7, r8, pc}
 1612              	.LVL123:
 1613              	.L164:
 1614              		.loc 1 1042 9 discriminator 1 view .LVU520
 1615 05ca 3869     		ldr	r0, [r7, #16]
 1616 05cc C0F3C000 		ubfx	r0, r0, #3, #1
 1617              		.loc 1 1044 5 is_stmt 1 discriminator 1 view .LVU521
 1618              		.loc 1 1042 8 is_stmt 0 discriminator 1 view .LVU522
 1619 05d0 0028     		cmp	r0, #0
 1620 05d2 EDD1     		bne	.L155
 1621              	.L165:
 1622              		.loc 1 1054 3 is_stmt 1 view .LVU523
 1623              		.loc 1 1054 5 is_stmt 0 view .LVU524
 1624 05d4 012E     		cmp	r6, #1
 1625              	.LBB40:
 1626              	.LBB41:
 1627              		.loc 1 1056 9 view .LVU525
 1628 05d6 104B     		ldr	r3, .L167+4
 1629              	.LBE41:
 1630              	.LBE40:
 1631              		.loc 1 1054 5 view .LVU526
 1632 05d8 0FD0     		beq	.L166
 1633              		.loc 1 1069 5 is_stmt 1 view .LVU527
 1634              		.loc 1 1069 9 is_stmt 0 view .LVU528
 1635 05da D3F81021 		ldr	r2, [r3, #272]
 1636              		.loc 1 1069 8 view .LVU529
 1637 05de D200     		lsls	r2, r2, #3
 1638 05e0 F1D5     		bpl	.L151
 1639              		.loc 1 1072 7 is_stmt 1 view .LVU530
 1640              		.loc 1 1072 24 is_stmt 0 view .LVU531
ARM GAS  /tmp/ccMpHXhU.s 			page 30


 1641 05e2 0E49     		ldr	r1, .L167+8
 1642              		.loc 1 1075 7 view .LVU532
 1643 05e4 4FF08054 		mov	r4, #268435456
 1644              	.LVL124:
 1645              		.loc 1 1077 14 view .LVU533
 1646 05e8 0120     		movs	r0, #1
 1647              		.loc 1 1072 24 view .LVU534
 1648 05ea 8A69     		ldr	r2, [r1, #24]
 1649 05ec 42F01042 		orr	r2, r2, #-1879048192
 1650 05f0 8A61     		str	r2, [r1, #24]
 1651              		.loc 1 1075 7 is_stmt 1 view .LVU535
 1652 05f2 C3F81441 		str	r4, [r3, #276]
 1653              		.loc 1 1077 7 view .LVU536
 1654              		.loc 1 1083 1 is_stmt 0 view .LVU537
 1655 05f6 BDE8F081 		pop	{r4, r5, r6, r7, r8, pc}
 1656              	.LVL125:
 1657              	.L166:
 1658              	.LBB43:
 1659              	.LBI40:
 1660              		.loc 1 1024 19 is_stmt 1 view .LVU538
 1661              	.LBB42:
 1662              		.loc 1 1056 5 view .LVU539
 1663              		.loc 1 1056 9 is_stmt 0 view .LVU540
 1664 05fa 1A69     		ldr	r2, [r3, #16]
 1665              		.loc 1 1056 8 view .LVU541
 1666 05fc D100     		lsls	r1, r2, #3
 1667 05fe E2D5     		bpl	.L151
 1668              		.loc 1 1059 7 is_stmt 1 view .LVU542
 1669              		.loc 1 1059 24 is_stmt 0 view .LVU543
 1670 0600 0649     		ldr	r1, .L167+8
 1671              		.loc 1 1062 7 view .LVU544
 1672 0602 4FF08054 		mov	r4, #268435456
 1673              	.LVL126:
 1674              		.loc 1 1064 14 view .LVU545
 1675 0606 3046     		mov	r0, r6
 1676              		.loc 1 1059 24 view .LVU546
 1677 0608 8A69     		ldr	r2, [r1, #24]
 1678 060a 2243     		orrs	r2, r2, r4
 1679 060c 8A61     		str	r2, [r1, #24]
 1680              		.loc 1 1062 7 is_stmt 1 view .LVU547
 1681 060e 5C61     		str	r4, [r3, #20]
 1682              		.loc 1 1064 7 view .LVU548
 1683              	.LBE42:
 1684              	.LBE43:
 1685              		.loc 1 1083 1 is_stmt 0 view .LVU549
 1686 0610 BDE8F081 		pop	{r4, r5, r6, r7, r8, pc}
 1687              	.LVL127:
 1688              	.L168:
 1689              		.loc 1 1083 1 view .LVU550
 1690              		.align	2
 1691              	.L167:
 1692 0614 08000080 		.word	-2147483640
 1693 0618 00200052 		.word	1375739904
 1694 061c 00000000 		.word	pFlash
 1695              		.cfi_endproc
 1696              	.LFE154:
 1697              		.size	FLASH_CRC_WaitForLastOperation, .-FLASH_CRC_WaitForLastOperation
ARM GAS  /tmp/ccMpHXhU.s 			page 31


 1698              		.align	1
 1699              		.p2align 4,,15
 1700              		.global	HAL_FLASH_OB_Launch
 1701              		.syntax unified
 1702              		.thumb
 1703              		.thumb_func
 1704              		.fpu fpv4-sp-d16
 1705              		.type	HAL_FLASH_OB_Launch, %function
 1706              	HAL_FLASH_OB_Launch:
 1707              	.LFB150:
 1708              		.loc 1 805 1 is_stmt 1 view -0
 1709              		.cfi_startproc
 1710              		@ args = 0, pretend = 0, frame = 0
 1711              		@ frame_needed = 0, uses_anonymous_args = 0
 1712              		.loc 1 806 3 view .LVU552
 1713              		.loc 1 809 3 view .LVU553
 1714              		.loc 1 805 1 is_stmt 0 view .LVU554
 1715 0620 08B5     		push	{r3, lr}
 1716              		.cfi_def_cfa_offset 8
 1717              		.cfi_offset 3, -8
 1718              		.cfi_offset 14, -4
 1719              		.loc 1 809 7 view .LVU555
 1720 0622 0121     		movs	r1, #1
 1721 0624 4CF25030 		movw	r0, #50000
 1722 0628 FFF7FEFF 		bl	FLASH_CRC_WaitForLastOperation
 1723              	.LVL128:
 1724              		.loc 1 809 6 view .LVU556
 1725 062c 08B1     		cbz	r0, .L174
 1726              	.L171:
 1727              	.LVL129:
 1728              		.loc 1 831 3 is_stmt 1 view .LVU557
 1729              		.loc 1 832 1 is_stmt 0 view .LVU558
 1730 062e 0120     		movs	r0, #1
 1731 0630 08BD     		pop	{r3, pc}
 1732              	.LVL130:
 1733              	.L174:
 1734              		.loc 1 813 8 is_stmt 1 view .LVU559
 1735              		.loc 1 813 12 is_stmt 0 view .LVU560
 1736 0632 0221     		movs	r1, #2
 1737 0634 4CF25030 		movw	r0, #50000
 1738 0638 FFF7FEFF 		bl	FLASH_CRC_WaitForLastOperation
 1739              	.LVL131:
 1740              		.loc 1 813 11 view .LVU561
 1741 063c 0028     		cmp	r0, #0
 1742 063e F6D1     		bne	.L171
 1743              		.loc 1 819 5 is_stmt 1 view .LVU562
 1744              	.LVL132:
 1745              		.loc 1 822 3 view .LVU563
 1746              		.loc 1 825 5 view .LVU564
 1747 0640 054A     		ldr	r2, .L175
 1748              		.loc 1 828 14 is_stmt 0 view .LVU565
 1749 0642 4CF25030 		movw	r0, #50000
 1750              		.loc 1 825 5 view .LVU566
 1751 0646 9369     		ldr	r3, [r2, #24]
 1752 0648 43F00203 		orr	r3, r3, #2
 1753 064c 9361     		str	r3, [r2, #24]
 1754              		.loc 1 828 5 is_stmt 1 view .LVU567
ARM GAS  /tmp/ccMpHXhU.s 			page 32


 1755              		.loc 1 832 1 is_stmt 0 view .LVU568
 1756 064e BDE80840 		pop	{r3, lr}
 1757              		.cfi_restore 14
 1758              		.cfi_restore 3
 1759              		.cfi_def_cfa_offset 0
 1760              		.loc 1 828 14 view .LVU569
 1761 0652 FFF7FEBF 		b	FLASH_OB_WaitForLastOperation
 1762              	.LVL133:
 1763              	.L176:
 1764 0656 00BF     		.align	2
 1765              	.L175:
 1766 0658 00200052 		.word	1375739904
 1767              		.cfi_endproc
 1768              	.LFE150:
 1769              		.size	HAL_FLASH_OB_Launch, .-HAL_FLASH_OB_Launch
 1770              		.comm	pFlash,28,4
 1771              	.Letext0:
 1772              		.file 3 "/home/nicolas/arm/gcc-arm-none-eabi-8-2019-q3-update/arm-none-eabi/include/machine/_defau
 1773              		.file 4 "/home/nicolas/arm/gcc-arm-none-eabi-8-2019-q3-update/arm-none-eabi/include/sys/_stdint.h"
 1774              		.file 5 "../../../external/ChibiOS/os/common/ext/ARM/CMSIS/Core/Include/core_cm7.h"
 1775              		.file 6 "../../../external/ChibiOS/os/common/ext/ST/STM32H7xx/system_stm32h7xx.h"
 1776              		.file 7 "../../../external/ChibiOS/os/common/ext/ST/STM32H7xx/stm32h753xx.h"
 1777              		.file 8 "/home/nicolas/arm/gcc-arm-none-eabi-8-2019-q3-update/lib/gcc/arm-none-eabi/8.3.1/include/
 1778              		.file 9 "/home/nicolas/arm/gcc-arm-none-eabi-8-2019-q3-update/arm-none-eabi/include/sys/_types.h"
 1779              		.file 10 "/home/nicolas/arm/gcc-arm-none-eabi-8-2019-q3-update/arm-none-eabi/include/sys/reent.h"
 1780              		.file 11 "/home/nicolas/arm/gcc-arm-none-eabi-8-2019-q3-update/arm-none-eabi/include/sys/lock.h"
 1781              		.file 12 "/home/nicolas/arm/gcc-arm-none-eabi-8-2019-q3-update/arm-none-eabi/include/math.h"
 1782              		.file 13 "../../../external/ChibiOS/os/common/ext/ST/STM32H7xx/stm32h7xx.h"
 1783              		.file 14 "../../../external/STM32H7xx_HAL_Driver/Inc/stm32h7xx_hal_def.h"
 1784              		.file 15 "../../../external/STM32H7xx_HAL_Driver/Inc/stm32h7xx_hal_flash.h"
 1785              		.file 16 "../../../external/STM32H7xx_HAL_Driver/Inc/stm32h7xx_hal.h"
 1786              		.file 17 "../../../external/STM32H7xx_HAL_Driver/Inc/stm32h7xx_hal_flash_ex.h"