ARM GAS  /tmp/ccfgf64Q.s 			page 1


   1              		.cpu cortex-m7
   2              		.eabi_attribute 27, 1
   3              		.eabi_attribute 28, 1
   4              		.eabi_attribute 20, 1
   5              		.eabi_attribute 21, 1
   6              		.eabi_attribute 23, 3
   7              		.eabi_attribute 24, 1
   8              		.eabi_attribute 25, 1
   9              		.eabi_attribute 26, 1
  10              		.eabi_attribute 30, 2
  11              		.eabi_attribute 34, 1
  12              		.eabi_attribute 18, 4
  13              		.file	"stm32_dma.c"
  14              		.text
  15              	.Ltext0:
  16              		.cfi_sections	.debug_frame
  17              		.align	1
  18              		.p2align 4,,15
  19              		.global	Vector6C
  20              		.arch armv7e-m
  21              		.syntax unified
  22              		.thumb
  23              		.thumb_func
  24              		.fpu fpv4-sp-d16
  25              		.type	Vector6C, %function
  26              	Vector6C:
  27              	.LFB362:
  28              		.file 1 "../../../external/ChibiOS/os/hal/ports/STM32/LLD/DMAv2/stm32_dma.c"
  29              		.loc 1 162 42 view -0
  30              		.cfi_startproc
  31              		@ args = 0, pretend = 0, frame = 0
  32              		@ frame_needed = 0, uses_anonymous_args = 0
  33              		.loc 1 163 3 view .LVU1
  34              		.loc 1 165 3 view .LVU2
  35              		.loc 1 165 3 view .LVU3
  36              		.loc 1 165 3 view .LVU4
  37              		.loc 1 165 3 view .LVU5
  38              		.loc 1 165 3 view .LVU6
  39              		.loc 1 162 42 is_stmt 0 view .LVU7
  40 0000 08B5     		push	{r3, lr}
  41              		.cfi_def_cfa_offset 8
  42              		.cfi_offset 3, -8
  43              		.cfi_offset 14, -4
  44              		.loc 1 165 3 view .LVU8
  45 0002 0A48     		ldr	r0, .L8
  46 0004 FFF7FEFF 		bl	_trace_isr_enter
  47              	.LVL0:
  48              		.loc 1 165 22 is_stmt 1 view .LVU9
  49              		.loc 1 167 3 view .LVU10
  50              		.loc 1 167 23 is_stmt 0 view .LVU11
  51 0008 094B     		ldr	r3, .L8+4
  52              		.loc 1 169 21 view .LVU12
  53 000a 0A48     		ldr	r0, .L8+8
  54              		.loc 1 167 23 view .LVU13
  55 000c 1968     		ldr	r1, [r3]
  56              		.loc 1 169 21 view .LVU14
  57 000e 4268     		ldr	r2, [r0, #4]
ARM GAS  /tmp/ccfgf64Q.s 			page 2


  58              		.loc 1 167 9 view .LVU15
  59 0010 01F03D01 		and	r1, r1, #61
  60              	.LVL1:
  61              		.loc 1 168 3 is_stmt 1 view .LVU16
  62              		.loc 1 168 15 is_stmt 0 view .LVU17
  63 0014 9960     		str	r1, [r3, #8]
  64              		.loc 1 169 3 is_stmt 1 view .LVU18
  65              		.loc 1 169 6 is_stmt 0 view .LVU19
  66 0016 0AB1     		cbz	r2, .L2
  67              		.loc 1 170 5 is_stmt 1 view .LVU20
  68 0018 8068     		ldr	r0, [r0, #8]
  69 001a 9047     		blx	r2
  70              	.LVL2:
  71              	.L2:
  72              		.loc 1 172 3 view .LVU21
  73              		.loc 1 172 3 view .LVU22
  74 001c 0348     		ldr	r0, .L8
  75 001e FFF7FEFF 		bl	_trace_isr_leave
  76              	.LVL3:
  77              		.loc 1 172 3 view .LVU23
  78              		.loc 1 172 3 view .LVU24
  79              		.loc 1 172 3 view .LVU25
  80              		.loc 1 173 1 is_stmt 0 view .LVU26
  81 0022 BDE80840 		pop	{r3, lr}
  82              		.cfi_restore 14
  83              		.cfi_restore 3
  84              		.cfi_def_cfa_offset 0
  85              		.loc 1 172 3 view .LVU27
  86 0026 FFF7FEBF 		b	_port_irq_epilogue
  87              	.LVL4:
  88              	.L9:
  89 002a 00BF     		.align	2
  90              	.L8:
  91 002c 00000000 		.word	.LANCHOR0
  92 0030 00000240 		.word	1073872896
  93 0034 00000000 		.word	.LANCHOR1
  94              		.cfi_endproc
  95              	.LFE362:
  96              		.size	Vector6C, .-Vector6C
  97              		.align	1
  98 0038 AFF30080 		.p2align 4,,15
  98      AFF30080 
  99              		.global	Vector70
 100              		.syntax unified
 101              		.thumb
 102              		.thumb_func
 103              		.fpu fpv4-sp-d16
 104              		.type	Vector70, %function
 105              	Vector70:
 106              	.LFB363:
 107              		.loc 1 180 42 is_stmt 1 view -0
 108              		.cfi_startproc
 109              		@ args = 0, pretend = 0, frame = 0
 110              		@ frame_needed = 0, uses_anonymous_args = 0
 111              		.loc 1 181 3 view .LVU29
 112              		.loc 1 183 3 view .LVU30
 113              		.loc 1 183 3 view .LVU31
ARM GAS  /tmp/ccfgf64Q.s 			page 3


 114              		.loc 1 183 3 view .LVU32
 115              		.loc 1 183 3 view .LVU33
 116              		.loc 1 183 3 view .LVU34
 117              		.loc 1 180 42 is_stmt 0 view .LVU35
 118 0040 10B5     		push	{r4, lr}
 119              		.cfi_def_cfa_offset 8
 120              		.cfi_offset 4, -8
 121              		.cfi_offset 14, -4
 122              		.loc 1 183 3 view .LVU36
 123 0042 0B48     		ldr	r0, .L16
 124 0044 FFF7FEFF 		bl	_trace_isr_enter
 125              	.LVL5:
 126              		.loc 1 183 22 is_stmt 1 view .LVU37
 127              		.loc 1 185 3 view .LVU38
 128              		.loc 1 185 16 is_stmt 0 view .LVU39
 129 0048 0A4B     		ldr	r3, .L16+4
 130              		.loc 1 187 21 view .LVU40
 131 004a 0B48     		ldr	r0, .L16+8
 132              		.loc 1 185 16 view .LVU41
 133 004c 1968     		ldr	r1, [r3]
 134              		.loc 1 187 21 view .LVU42
 135 004e C268     		ldr	r2, [r0, #12]
 136              		.loc 1 185 23 view .LVU43
 137 0050 8909     		lsrs	r1, r1, #6
 138              		.loc 1 185 9 view .LVU44
 139 0052 01F03D01 		and	r1, r1, #61
 140              	.LVL6:
 141              		.loc 1 186 3 is_stmt 1 view .LVU45
 142              		.loc 1 186 23 is_stmt 0 view .LVU46
 143 0056 8C01     		lsls	r4, r1, #6
 144              		.loc 1 186 15 view .LVU47
 145 0058 9C60     		str	r4, [r3, #8]
 146              		.loc 1 187 3 is_stmt 1 view .LVU48
 147              		.loc 1 187 6 is_stmt 0 view .LVU49
 148 005a 0AB1     		cbz	r2, .L11
 149              		.loc 1 188 5 is_stmt 1 view .LVU50
 150 005c 0069     		ldr	r0, [r0, #16]
 151 005e 9047     		blx	r2
 152              	.LVL7:
 153              	.L11:
 154              		.loc 1 190 3 view .LVU51
 155              		.loc 1 190 3 view .LVU52
 156 0060 0348     		ldr	r0, .L16
 157 0062 FFF7FEFF 		bl	_trace_isr_leave
 158              	.LVL8:
 159              		.loc 1 190 3 view .LVU53
 160              		.loc 1 190 3 view .LVU54
 161              		.loc 1 190 3 view .LVU55
 162              		.loc 1 191 1 is_stmt 0 view .LVU56
 163 0066 BDE81040 		pop	{r4, lr}
 164              		.cfi_restore 14
 165              		.cfi_restore 4
 166              		.cfi_def_cfa_offset 0
 167              		.loc 1 190 3 view .LVU57
 168 006a FFF7FEBF 		b	_port_irq_epilogue
 169              	.LVL9:
 170              	.L17:
ARM GAS  /tmp/ccfgf64Q.s 			page 4


 171 006e 00BF     		.align	2
 172              	.L16:
 173 0070 0C000000 		.word	.LANCHOR0+12
 174 0074 00000240 		.word	1073872896
 175 0078 00000000 		.word	.LANCHOR1
 176              		.cfi_endproc
 177              	.LFE363:
 178              		.size	Vector70, .-Vector70
 179              		.align	1
 180 007c AFF30080 		.p2align 4,,15
 181              		.global	Vector74
 182              		.syntax unified
 183              		.thumb
 184              		.thumb_func
 185              		.fpu fpv4-sp-d16
 186              		.type	Vector74, %function
 187              	Vector74:
 188              	.LFB364:
 189              		.loc 1 198 42 is_stmt 1 view -0
 190              		.cfi_startproc
 191              		@ args = 0, pretend = 0, frame = 0
 192              		@ frame_needed = 0, uses_anonymous_args = 0
 193              		.loc 1 199 3 view .LVU59
 194              		.loc 1 201 3 view .LVU60
 195              		.loc 1 201 3 view .LVU61
 196              		.loc 1 201 3 view .LVU62
 197              		.loc 1 201 3 view .LVU63
 198              		.loc 1 201 3 view .LVU64
 199              		.loc 1 198 42 is_stmt 0 view .LVU65
 200 0080 10B5     		push	{r4, lr}
 201              		.cfi_def_cfa_offset 8
 202              		.cfi_offset 4, -8
 203              		.cfi_offset 14, -4
 204              		.loc 1 201 3 view .LVU66
 205 0082 0B48     		ldr	r0, .L24
 206 0084 FFF7FEFF 		bl	_trace_isr_enter
 207              	.LVL10:
 208              		.loc 1 201 22 is_stmt 1 view .LVU67
 209              		.loc 1 203 3 view .LVU68
 210              		.loc 1 203 16 is_stmt 0 view .LVU69
 211 0088 0A4B     		ldr	r3, .L24+4
 212              		.loc 1 205 21 view .LVU70
 213 008a 0B48     		ldr	r0, .L24+8
 214              		.loc 1 203 16 view .LVU71
 215 008c 1968     		ldr	r1, [r3]
 216              		.loc 1 205 21 view .LVU72
 217 008e 4269     		ldr	r2, [r0, #20]
 218              		.loc 1 203 23 view .LVU73
 219 0090 090C     		lsrs	r1, r1, #16
 220              		.loc 1 203 9 view .LVU74
 221 0092 01F03D01 		and	r1, r1, #61
 222              	.LVL11:
 223              		.loc 1 204 3 is_stmt 1 view .LVU75
 224              		.loc 1 204 23 is_stmt 0 view .LVU76
 225 0096 0C04     		lsls	r4, r1, #16
 226              		.loc 1 204 15 view .LVU77
 227 0098 9C60     		str	r4, [r3, #8]
ARM GAS  /tmp/ccfgf64Q.s 			page 5


 228              		.loc 1 205 3 is_stmt 1 view .LVU78
 229              		.loc 1 205 6 is_stmt 0 view .LVU79
 230 009a 0AB1     		cbz	r2, .L19
 231              		.loc 1 206 5 is_stmt 1 view .LVU80
 232 009c 8069     		ldr	r0, [r0, #24]
 233 009e 9047     		blx	r2
 234              	.LVL12:
 235              	.L19:
 236              		.loc 1 208 3 view .LVU81
 237              		.loc 1 208 3 view .LVU82
 238 00a0 0348     		ldr	r0, .L24
 239 00a2 FFF7FEFF 		bl	_trace_isr_leave
 240              	.LVL13:
 241              		.loc 1 208 3 view .LVU83
 242              		.loc 1 208 3 view .LVU84
 243              		.loc 1 208 3 view .LVU85
 244              		.loc 1 209 1 is_stmt 0 view .LVU86
 245 00a6 BDE81040 		pop	{r4, lr}
 246              		.cfi_restore 14
 247              		.cfi_restore 4
 248              		.cfi_def_cfa_offset 0
 249              		.loc 1 208 3 view .LVU87
 250 00aa FFF7FEBF 		b	_port_irq_epilogue
 251              	.LVL14:
 252              	.L25:
 253 00ae 00BF     		.align	2
 254              	.L24:
 255 00b0 18000000 		.word	.LANCHOR0+24
 256 00b4 00000240 		.word	1073872896
 257 00b8 00000000 		.word	.LANCHOR1
 258              		.cfi_endproc
 259              	.LFE364:
 260              		.size	Vector74, .-Vector74
 261              		.align	1
 262 00bc AFF30080 		.p2align 4,,15
 263              		.global	Vector78
 264              		.syntax unified
 265              		.thumb
 266              		.thumb_func
 267              		.fpu fpv4-sp-d16
 268              		.type	Vector78, %function
 269              	Vector78:
 270              	.LFB365:
 271              		.loc 1 216 42 is_stmt 1 view -0
 272              		.cfi_startproc
 273              		@ args = 0, pretend = 0, frame = 0
 274              		@ frame_needed = 0, uses_anonymous_args = 0
 275              		.loc 1 217 3 view .LVU89
 276              		.loc 1 219 3 view .LVU90
 277              		.loc 1 219 3 view .LVU91
 278              		.loc 1 219 3 view .LVU92
 279              		.loc 1 219 3 view .LVU93
 280              		.loc 1 219 3 view .LVU94
 281              		.loc 1 216 42 is_stmt 0 view .LVU95
 282 00c0 10B5     		push	{r4, lr}
 283              		.cfi_def_cfa_offset 8
 284              		.cfi_offset 4, -8
ARM GAS  /tmp/ccfgf64Q.s 			page 6


 285              		.cfi_offset 14, -4
 286              		.loc 1 219 3 view .LVU96
 287 00c2 0B48     		ldr	r0, .L32
 288 00c4 FFF7FEFF 		bl	_trace_isr_enter
 289              	.LVL15:
 290              		.loc 1 219 22 is_stmt 1 view .LVU97
 291              		.loc 1 221 3 view .LVU98
 292              		.loc 1 221 16 is_stmt 0 view .LVU99
 293 00c8 0A4B     		ldr	r3, .L32+4
 294              		.loc 1 223 21 view .LVU100
 295 00ca 0B48     		ldr	r0, .L32+8
 296              		.loc 1 221 16 view .LVU101
 297 00cc 1968     		ldr	r1, [r3]
 298              		.loc 1 223 21 view .LVU102
 299 00ce C269     		ldr	r2, [r0, #28]
 300              		.loc 1 221 23 view .LVU103
 301 00d0 890D     		lsrs	r1, r1, #22
 302              		.loc 1 221 9 view .LVU104
 303 00d2 01F03D01 		and	r1, r1, #61
 304              	.LVL16:
 305              		.loc 1 222 3 is_stmt 1 view .LVU105
 306              		.loc 1 222 23 is_stmt 0 view .LVU106
 307 00d6 8C05     		lsls	r4, r1, #22
 308              		.loc 1 222 15 view .LVU107
 309 00d8 9C60     		str	r4, [r3, #8]
 310              		.loc 1 223 3 is_stmt 1 view .LVU108
 311              		.loc 1 223 6 is_stmt 0 view .LVU109
 312 00da 0AB1     		cbz	r2, .L27
 313              		.loc 1 224 5 is_stmt 1 view .LVU110
 314 00dc 006A     		ldr	r0, [r0, #32]
 315 00de 9047     		blx	r2
 316              	.LVL17:
 317              	.L27:
 318              		.loc 1 226 3 view .LVU111
 319              		.loc 1 226 3 view .LVU112
 320 00e0 0348     		ldr	r0, .L32
 321 00e2 FFF7FEFF 		bl	_trace_isr_leave
 322              	.LVL18:
 323              		.loc 1 226 3 view .LVU113
 324              		.loc 1 226 3 view .LVU114
 325              		.loc 1 226 3 view .LVU115
 326              		.loc 1 227 1 is_stmt 0 view .LVU116
 327 00e6 BDE81040 		pop	{r4, lr}
 328              		.cfi_restore 14
 329              		.cfi_restore 4
 330              		.cfi_def_cfa_offset 0
 331              		.loc 1 226 3 view .LVU117
 332 00ea FFF7FEBF 		b	_port_irq_epilogue
 333              	.LVL19:
 334              	.L33:
 335 00ee 00BF     		.align	2
 336              	.L32:
 337 00f0 24000000 		.word	.LANCHOR0+36
 338 00f4 00000240 		.word	1073872896
 339 00f8 00000000 		.word	.LANCHOR1
 340              		.cfi_endproc
 341              	.LFE365:
ARM GAS  /tmp/ccfgf64Q.s 			page 7


 342              		.size	Vector78, .-Vector78
 343              		.align	1
 344 00fc AFF30080 		.p2align 4,,15
 345              		.global	Vector7C
 346              		.syntax unified
 347              		.thumb
 348              		.thumb_func
 349              		.fpu fpv4-sp-d16
 350              		.type	Vector7C, %function
 351              	Vector7C:
 352              	.LFB366:
 353              		.loc 1 234 42 is_stmt 1 view -0
 354              		.cfi_startproc
 355              		@ args = 0, pretend = 0, frame = 0
 356              		@ frame_needed = 0, uses_anonymous_args = 0
 357              		.loc 1 235 3 view .LVU119
 358              		.loc 1 237 3 view .LVU120
 359              		.loc 1 237 3 view .LVU121
 360              		.loc 1 237 3 view .LVU122
 361              		.loc 1 237 3 view .LVU123
 362              		.loc 1 237 3 view .LVU124
 363              		.loc 1 234 42 is_stmt 0 view .LVU125
 364 0100 08B5     		push	{r3, lr}
 365              		.cfi_def_cfa_offset 8
 366              		.cfi_offset 3, -8
 367              		.cfi_offset 14, -4
 368              		.loc 1 237 3 view .LVU126
 369 0102 0A48     		ldr	r0, .L40
 370 0104 FFF7FEFF 		bl	_trace_isr_enter
 371              	.LVL20:
 372              		.loc 1 237 22 is_stmt 1 view .LVU127
 373              		.loc 1 239 3 view .LVU128
 374              		.loc 1 239 23 is_stmt 0 view .LVU129
 375 0108 094B     		ldr	r3, .L40+4
 376              		.loc 1 241 21 view .LVU130
 377 010a 0A48     		ldr	r0, .L40+8
 378              		.loc 1 239 23 view .LVU131
 379 010c 5968     		ldr	r1, [r3, #4]
 380              		.loc 1 241 21 view .LVU132
 381 010e 426A     		ldr	r2, [r0, #36]
 382              		.loc 1 239 9 view .LVU133
 383 0110 01F03D01 		and	r1, r1, #61
 384              	.LVL21:
 385              		.loc 1 240 3 is_stmt 1 view .LVU134
 386              		.loc 1 240 15 is_stmt 0 view .LVU135
 387 0114 D960     		str	r1, [r3, #12]
 388              		.loc 1 241 3 is_stmt 1 view .LVU136
 389              		.loc 1 241 6 is_stmt 0 view .LVU137
 390 0116 0AB1     		cbz	r2, .L35
 391              		.loc 1 242 5 is_stmt 1 view .LVU138
 392 0118 806A     		ldr	r0, [r0, #40]
 393 011a 9047     		blx	r2
 394              	.LVL22:
 395              	.L35:
 396              		.loc 1 244 3 view .LVU139
 397              		.loc 1 244 3 view .LVU140
 398 011c 0348     		ldr	r0, .L40
ARM GAS  /tmp/ccfgf64Q.s 			page 8


 399 011e FFF7FEFF 		bl	_trace_isr_leave
 400              	.LVL23:
 401              		.loc 1 244 3 view .LVU141
 402              		.loc 1 244 3 view .LVU142
 403              		.loc 1 244 3 view .LVU143
 404              		.loc 1 245 1 is_stmt 0 view .LVU144
 405 0122 BDE80840 		pop	{r3, lr}
 406              		.cfi_restore 14
 407              		.cfi_restore 3
 408              		.cfi_def_cfa_offset 0
 409              		.loc 1 244 3 view .LVU145
 410 0126 FFF7FEBF 		b	_port_irq_epilogue
 411              	.LVL24:
 412              	.L41:
 413 012a 00BF     		.align	2
 414              	.L40:
 415 012c 30000000 		.word	.LANCHOR0+48
 416 0130 00000240 		.word	1073872896
 417 0134 00000000 		.word	.LANCHOR1
 418              		.cfi_endproc
 419              	.LFE366:
 420              		.size	Vector7C, .-Vector7C
 421              		.align	1
 422 0138 AFF30080 		.p2align 4,,15
 422      AFF30080 
 423              		.global	Vector80
 424              		.syntax unified
 425              		.thumb
 426              		.thumb_func
 427              		.fpu fpv4-sp-d16
 428              		.type	Vector80, %function
 429              	Vector80:
 430              	.LFB367:
 431              		.loc 1 252 42 is_stmt 1 view -0
 432              		.cfi_startproc
 433              		@ args = 0, pretend = 0, frame = 0
 434              		@ frame_needed = 0, uses_anonymous_args = 0
 435              		.loc 1 253 3 view .LVU147
 436              		.loc 1 255 3 view .LVU148
 437              		.loc 1 255 3 view .LVU149
 438              		.loc 1 255 3 view .LVU150
 439              		.loc 1 255 3 view .LVU151
 440              		.loc 1 255 3 view .LVU152
 441              		.loc 1 252 42 is_stmt 0 view .LVU153
 442 0140 10B5     		push	{r4, lr}
 443              		.cfi_def_cfa_offset 8
 444              		.cfi_offset 4, -8
 445              		.cfi_offset 14, -4
 446              		.loc 1 255 3 view .LVU154
 447 0142 0B48     		ldr	r0, .L48
 448 0144 FFF7FEFF 		bl	_trace_isr_enter
 449              	.LVL25:
 450              		.loc 1 255 22 is_stmt 1 view .LVU155
 451              		.loc 1 257 3 view .LVU156
 452              		.loc 1 257 16 is_stmt 0 view .LVU157
 453 0148 0A4B     		ldr	r3, .L48+4
 454              		.loc 1 259 21 view .LVU158
ARM GAS  /tmp/ccfgf64Q.s 			page 9


 455 014a 0B48     		ldr	r0, .L48+8
 456              		.loc 1 257 16 view .LVU159
 457 014c 5968     		ldr	r1, [r3, #4]
 458              		.loc 1 259 21 view .LVU160
 459 014e C26A     		ldr	r2, [r0, #44]
 460              		.loc 1 257 23 view .LVU161
 461 0150 8909     		lsrs	r1, r1, #6
 462              		.loc 1 257 9 view .LVU162
 463 0152 01F03D01 		and	r1, r1, #61
 464              	.LVL26:
 465              		.loc 1 258 3 is_stmt 1 view .LVU163
 466              		.loc 1 258 23 is_stmt 0 view .LVU164
 467 0156 8C01     		lsls	r4, r1, #6
 468              		.loc 1 258 15 view .LVU165
 469 0158 DC60     		str	r4, [r3, #12]
 470              		.loc 1 259 3 is_stmt 1 view .LVU166
 471              		.loc 1 259 6 is_stmt 0 view .LVU167
 472 015a 0AB1     		cbz	r2, .L43
 473              		.loc 1 260 5 is_stmt 1 view .LVU168
 474 015c 006B     		ldr	r0, [r0, #48]
 475 015e 9047     		blx	r2
 476              	.LVL27:
 477              	.L43:
 478              		.loc 1 262 3 view .LVU169
 479              		.loc 1 262 3 view .LVU170
 480 0160 0348     		ldr	r0, .L48
 481 0162 FFF7FEFF 		bl	_trace_isr_leave
 482              	.LVL28:
 483              		.loc 1 262 3 view .LVU171
 484              		.loc 1 262 3 view .LVU172
 485              		.loc 1 262 3 view .LVU173
 486              		.loc 1 263 1 is_stmt 0 view .LVU174
 487 0166 BDE81040 		pop	{r4, lr}
 488              		.cfi_restore 14
 489              		.cfi_restore 4
 490              		.cfi_def_cfa_offset 0
 491              		.loc 1 262 3 view .LVU175
 492 016a FFF7FEBF 		b	_port_irq_epilogue
 493              	.LVL29:
 494              	.L49:
 495 016e 00BF     		.align	2
 496              	.L48:
 497 0170 3C000000 		.word	.LANCHOR0+60
 498 0174 00000240 		.word	1073872896
 499 0178 00000000 		.word	.LANCHOR1
 500              		.cfi_endproc
 501              	.LFE367:
 502              		.size	Vector80, .-Vector80
 503              		.align	1
 504 017c AFF30080 		.p2align 4,,15
 505              		.global	Vector84
 506              		.syntax unified
 507              		.thumb
 508              		.thumb_func
 509              		.fpu fpv4-sp-d16
 510              		.type	Vector84, %function
 511              	Vector84:
ARM GAS  /tmp/ccfgf64Q.s 			page 10


 512              	.LFB368:
 513              		.loc 1 270 42 is_stmt 1 view -0
 514              		.cfi_startproc
 515              		@ args = 0, pretend = 0, frame = 0
 516              		@ frame_needed = 0, uses_anonymous_args = 0
 517              		.loc 1 271 3 view .LVU177
 518              		.loc 1 273 3 view .LVU178
 519              		.loc 1 273 3 view .LVU179
 520              		.loc 1 273 3 view .LVU180
 521              		.loc 1 273 3 view .LVU181
 522              		.loc 1 273 3 view .LVU182
 523              		.loc 1 270 42 is_stmt 0 view .LVU183
 524 0180 10B5     		push	{r4, lr}
 525              		.cfi_def_cfa_offset 8
 526              		.cfi_offset 4, -8
 527              		.cfi_offset 14, -4
 528              		.loc 1 273 3 view .LVU184
 529 0182 0B48     		ldr	r0, .L56
 530 0184 FFF7FEFF 		bl	_trace_isr_enter
 531              	.LVL30:
 532              		.loc 1 273 22 is_stmt 1 view .LVU185
 533              		.loc 1 275 3 view .LVU186
 534              		.loc 1 275 16 is_stmt 0 view .LVU187
 535 0188 0A4B     		ldr	r3, .L56+4
 536              		.loc 1 277 21 view .LVU188
 537 018a 0B48     		ldr	r0, .L56+8
 538              		.loc 1 275 16 view .LVU189
 539 018c 5968     		ldr	r1, [r3, #4]
 540              		.loc 1 277 21 view .LVU190
 541 018e 426B     		ldr	r2, [r0, #52]
 542              		.loc 1 275 23 view .LVU191
 543 0190 090C     		lsrs	r1, r1, #16
 544              		.loc 1 275 9 view .LVU192
 545 0192 01F03D01 		and	r1, r1, #61
 546              	.LVL31:
 547              		.loc 1 276 3 is_stmt 1 view .LVU193
 548              		.loc 1 276 23 is_stmt 0 view .LVU194
 549 0196 0C04     		lsls	r4, r1, #16
 550              		.loc 1 276 15 view .LVU195
 551 0198 DC60     		str	r4, [r3, #12]
 552              		.loc 1 277 3 is_stmt 1 view .LVU196
 553              		.loc 1 277 6 is_stmt 0 view .LVU197
 554 019a 0AB1     		cbz	r2, .L51
 555              		.loc 1 278 5 is_stmt 1 view .LVU198
 556 019c 806B     		ldr	r0, [r0, #56]
 557 019e 9047     		blx	r2
 558              	.LVL32:
 559              	.L51:
 560              		.loc 1 280 3 view .LVU199
 561              		.loc 1 280 3 view .LVU200
 562 01a0 0348     		ldr	r0, .L56
 563 01a2 FFF7FEFF 		bl	_trace_isr_leave
 564              	.LVL33:
 565              		.loc 1 280 3 view .LVU201
 566              		.loc 1 280 3 view .LVU202
 567              		.loc 1 280 3 view .LVU203
 568              		.loc 1 281 1 is_stmt 0 view .LVU204
ARM GAS  /tmp/ccfgf64Q.s 			page 11


 569 01a6 BDE81040 		pop	{r4, lr}
 570              		.cfi_restore 14
 571              		.cfi_restore 4
 572              		.cfi_def_cfa_offset 0
 573              		.loc 1 280 3 view .LVU205
 574 01aa FFF7FEBF 		b	_port_irq_epilogue
 575              	.LVL34:
 576              	.L57:
 577 01ae 00BF     		.align	2
 578              	.L56:
 579 01b0 48000000 		.word	.LANCHOR0+72
 580 01b4 00000240 		.word	1073872896
 581 01b8 00000000 		.word	.LANCHOR1
 582              		.cfi_endproc
 583              	.LFE368:
 584              		.size	Vector84, .-Vector84
 585              		.align	1
 586 01bc AFF30080 		.p2align 4,,15
 587              		.global	VectorFC
 588              		.syntax unified
 589              		.thumb
 590              		.thumb_func
 591              		.fpu fpv4-sp-d16
 592              		.type	VectorFC, %function
 593              	VectorFC:
 594              	.LFB369:
 595              		.loc 1 288 42 is_stmt 1 view -0
 596              		.cfi_startproc
 597              		@ args = 0, pretend = 0, frame = 0
 598              		@ frame_needed = 0, uses_anonymous_args = 0
 599              		.loc 1 289 3 view .LVU207
 600              		.loc 1 291 3 view .LVU208
 601              		.loc 1 291 3 view .LVU209
 602              		.loc 1 291 3 view .LVU210
 603              		.loc 1 291 3 view .LVU211
 604              		.loc 1 291 3 view .LVU212
 605              		.loc 1 288 42 is_stmt 0 view .LVU213
 606 01c0 10B5     		push	{r4, lr}
 607              		.cfi_def_cfa_offset 8
 608              		.cfi_offset 4, -8
 609              		.cfi_offset 14, -4
 610              		.loc 1 291 3 view .LVU214
 611 01c2 0B48     		ldr	r0, .L64
 612 01c4 FFF7FEFF 		bl	_trace_isr_enter
 613              	.LVL35:
 614              		.loc 1 291 22 is_stmt 1 view .LVU215
 615              		.loc 1 293 3 view .LVU216
 616              		.loc 1 293 16 is_stmt 0 view .LVU217
 617 01c8 0A4B     		ldr	r3, .L64+4
 618              		.loc 1 295 21 view .LVU218
 619 01ca 0B48     		ldr	r0, .L64+8
 620              		.loc 1 293 16 view .LVU219
 621 01cc 5968     		ldr	r1, [r3, #4]
 622              		.loc 1 295 21 view .LVU220
 623 01ce C26B     		ldr	r2, [r0, #60]
 624              		.loc 1 293 23 view .LVU221
 625 01d0 890D     		lsrs	r1, r1, #22
ARM GAS  /tmp/ccfgf64Q.s 			page 12


 626              		.loc 1 293 9 view .LVU222
 627 01d2 01F03D01 		and	r1, r1, #61
 628              	.LVL36:
 629              		.loc 1 294 3 is_stmt 1 view .LVU223
 630              		.loc 1 294 23 is_stmt 0 view .LVU224
 631 01d6 8C05     		lsls	r4, r1, #22
 632              		.loc 1 294 15 view .LVU225
 633 01d8 DC60     		str	r4, [r3, #12]
 634              		.loc 1 295 3 is_stmt 1 view .LVU226
 635              		.loc 1 295 6 is_stmt 0 view .LVU227
 636 01da 0AB1     		cbz	r2, .L59
 637              		.loc 1 296 5 is_stmt 1 view .LVU228
 638 01dc 006C     		ldr	r0, [r0, #64]
 639 01de 9047     		blx	r2
 640              	.LVL37:
 641              	.L59:
 642              		.loc 1 298 3 view .LVU229
 643              		.loc 1 298 3 view .LVU230
 644 01e0 0348     		ldr	r0, .L64
 645 01e2 FFF7FEFF 		bl	_trace_isr_leave
 646              	.LVL38:
 647              		.loc 1 298 3 view .LVU231
 648              		.loc 1 298 3 view .LVU232
 649              		.loc 1 298 3 view .LVU233
 650              		.loc 1 299 1 is_stmt 0 view .LVU234
 651 01e6 BDE81040 		pop	{r4, lr}
 652              		.cfi_restore 14
 653              		.cfi_restore 4
 654              		.cfi_def_cfa_offset 0
 655              		.loc 1 298 3 view .LVU235
 656 01ea FFF7FEBF 		b	_port_irq_epilogue
 657              	.LVL39:
 658              	.L65:
 659 01ee 00BF     		.align	2
 660              	.L64:
 661 01f0 54000000 		.word	.LANCHOR0+84
 662 01f4 00000240 		.word	1073872896
 663 01f8 00000000 		.word	.LANCHOR1
 664              		.cfi_endproc
 665              	.LFE369:
 666              		.size	VectorFC, .-VectorFC
 667              		.align	1
 668 01fc AFF30080 		.p2align 4,,15
 669              		.global	Vector120
 670              		.syntax unified
 671              		.thumb
 672              		.thumb_func
 673              		.fpu fpv4-sp-d16
 674              		.type	Vector120, %function
 675              	Vector120:
 676              	.LFB370:
 677              		.loc 1 306 42 is_stmt 1 view -0
 678              		.cfi_startproc
 679              		@ args = 0, pretend = 0, frame = 0
 680              		@ frame_needed = 0, uses_anonymous_args = 0
 681              		.loc 1 307 3 view .LVU237
 682              		.loc 1 309 3 view .LVU238
ARM GAS  /tmp/ccfgf64Q.s 			page 13


 683              		.loc 1 309 3 view .LVU239
 684              		.loc 1 309 3 view .LVU240
 685              		.loc 1 309 3 view .LVU241
 686              		.loc 1 309 3 view .LVU242
 687              		.loc 1 306 42 is_stmt 0 view .LVU243
 688 0200 08B5     		push	{r3, lr}
 689              		.cfi_def_cfa_offset 8
 690              		.cfi_offset 3, -8
 691              		.cfi_offset 14, -4
 692              		.loc 1 309 3 view .LVU244
 693 0202 0A48     		ldr	r0, .L72
 694 0204 FFF7FEFF 		bl	_trace_isr_enter
 695              	.LVL40:
 696              		.loc 1 309 22 is_stmt 1 view .LVU245
 697              		.loc 1 311 3 view .LVU246
 698              		.loc 1 311 23 is_stmt 0 view .LVU247
 699 0208 094B     		ldr	r3, .L72+4
 700              		.loc 1 313 21 view .LVU248
 701 020a 0A48     		ldr	r0, .L72+8
 702              		.loc 1 311 23 view .LVU249
 703 020c 1968     		ldr	r1, [r3]
 704              		.loc 1 313 21 view .LVU250
 705 020e 426C     		ldr	r2, [r0, #68]
 706              		.loc 1 311 9 view .LVU251
 707 0210 01F03D01 		and	r1, r1, #61
 708              	.LVL41:
 709              		.loc 1 312 3 is_stmt 1 view .LVU252
 710              		.loc 1 312 15 is_stmt 0 view .LVU253
 711 0214 9960     		str	r1, [r3, #8]
 712              		.loc 1 313 3 is_stmt 1 view .LVU254
 713              		.loc 1 313 6 is_stmt 0 view .LVU255
 714 0216 0AB1     		cbz	r2, .L67
 715              		.loc 1 314 5 is_stmt 1 view .LVU256
 716 0218 806C     		ldr	r0, [r0, #72]
 717 021a 9047     		blx	r2
 718              	.LVL42:
 719              	.L67:
 720              		.loc 1 316 3 view .LVU257
 721              		.loc 1 316 3 view .LVU258
 722 021c 0348     		ldr	r0, .L72
 723 021e FFF7FEFF 		bl	_trace_isr_leave
 724              	.LVL43:
 725              		.loc 1 316 3 view .LVU259
 726              		.loc 1 316 3 view .LVU260
 727              		.loc 1 316 3 view .LVU261
 728              		.loc 1 317 1 is_stmt 0 view .LVU262
 729 0222 BDE80840 		pop	{r3, lr}
 730              		.cfi_restore 14
 731              		.cfi_restore 3
 732              		.cfi_def_cfa_offset 0
 733              		.loc 1 316 3 view .LVU263
 734 0226 FFF7FEBF 		b	_port_irq_epilogue
 735              	.LVL44:
 736              	.L73:
 737 022a 00BF     		.align	2
 738              	.L72:
 739 022c 60000000 		.word	.LANCHOR0+96
ARM GAS  /tmp/ccfgf64Q.s 			page 14


 740 0230 00040240 		.word	1073873920
 741 0234 00000000 		.word	.LANCHOR1
 742              		.cfi_endproc
 743              	.LFE370:
 744              		.size	Vector120, .-Vector120
 745              		.align	1
 746 0238 AFF30080 		.p2align 4,,15
 746      AFF30080 
 747              		.global	Vector124
 748              		.syntax unified
 749              		.thumb
 750              		.thumb_func
 751              		.fpu fpv4-sp-d16
 752              		.type	Vector124, %function
 753              	Vector124:
 754              	.LFB371:
 755              		.loc 1 324 42 is_stmt 1 view -0
 756              		.cfi_startproc
 757              		@ args = 0, pretend = 0, frame = 0
 758              		@ frame_needed = 0, uses_anonymous_args = 0
 759              		.loc 1 325 3 view .LVU265
 760              		.loc 1 327 3 view .LVU266
 761              		.loc 1 327 3 view .LVU267
 762              		.loc 1 327 3 view .LVU268
 763              		.loc 1 327 3 view .LVU269
 764              		.loc 1 327 3 view .LVU270
 765              		.loc 1 324 42 is_stmt 0 view .LVU271
 766 0240 10B5     		push	{r4, lr}
 767              		.cfi_def_cfa_offset 8
 768              		.cfi_offset 4, -8
 769              		.cfi_offset 14, -4
 770              		.loc 1 327 3 view .LVU272
 771 0242 0B48     		ldr	r0, .L80
 772 0244 FFF7FEFF 		bl	_trace_isr_enter
 773              	.LVL45:
 774              		.loc 1 327 22 is_stmt 1 view .LVU273
 775              		.loc 1 329 3 view .LVU274
 776              		.loc 1 329 16 is_stmt 0 view .LVU275
 777 0248 0A4B     		ldr	r3, .L80+4
 778              		.loc 1 331 21 view .LVU276
 779 024a 0B48     		ldr	r0, .L80+8
 780              		.loc 1 329 16 view .LVU277
 781 024c 1968     		ldr	r1, [r3]
 782              		.loc 1 331 21 view .LVU278
 783 024e C26C     		ldr	r2, [r0, #76]
 784              		.loc 1 329 23 view .LVU279
 785 0250 8909     		lsrs	r1, r1, #6
 786              		.loc 1 329 9 view .LVU280
 787 0252 01F03D01 		and	r1, r1, #61
 788              	.LVL46:
 789              		.loc 1 330 3 is_stmt 1 view .LVU281
 790              		.loc 1 330 23 is_stmt 0 view .LVU282
 791 0256 8C01     		lsls	r4, r1, #6
 792              		.loc 1 330 15 view .LVU283
 793 0258 9C60     		str	r4, [r3, #8]
 794              		.loc 1 331 3 is_stmt 1 view .LVU284
 795              		.loc 1 331 6 is_stmt 0 view .LVU285
ARM GAS  /tmp/ccfgf64Q.s 			page 15


 796 025a 0AB1     		cbz	r2, .L75
 797              		.loc 1 332 5 is_stmt 1 view .LVU286
 798 025c 006D     		ldr	r0, [r0, #80]
 799 025e 9047     		blx	r2
 800              	.LVL47:
 801              	.L75:
 802              		.loc 1 334 3 view .LVU287
 803              		.loc 1 334 3 view .LVU288
 804 0260 0348     		ldr	r0, .L80
 805 0262 FFF7FEFF 		bl	_trace_isr_leave
 806              	.LVL48:
 807              		.loc 1 334 3 view .LVU289
 808              		.loc 1 334 3 view .LVU290
 809              		.loc 1 334 3 view .LVU291
 810              		.loc 1 335 1 is_stmt 0 view .LVU292
 811 0266 BDE81040 		pop	{r4, lr}
 812              		.cfi_restore 14
 813              		.cfi_restore 4
 814              		.cfi_def_cfa_offset 0
 815              		.loc 1 334 3 view .LVU293
 816 026a FFF7FEBF 		b	_port_irq_epilogue
 817              	.LVL49:
 818              	.L81:
 819 026e 00BF     		.align	2
 820              	.L80:
 821 0270 6C000000 		.word	.LANCHOR0+108
 822 0274 00040240 		.word	1073873920
 823 0278 00000000 		.word	.LANCHOR1
 824              		.cfi_endproc
 825              	.LFE371:
 826              		.size	Vector124, .-Vector124
 827              		.align	1
 828 027c AFF30080 		.p2align 4,,15
 829              		.global	Vector128
 830              		.syntax unified
 831              		.thumb
 832              		.thumb_func
 833              		.fpu fpv4-sp-d16
 834              		.type	Vector128, %function
 835              	Vector128:
 836              	.LFB372:
 837              		.loc 1 342 42 is_stmt 1 view -0
 838              		.cfi_startproc
 839              		@ args = 0, pretend = 0, frame = 0
 840              		@ frame_needed = 0, uses_anonymous_args = 0
 841              		.loc 1 343 3 view .LVU295
 842              		.loc 1 345 3 view .LVU296
 843              		.loc 1 345 3 view .LVU297
 844              		.loc 1 345 3 view .LVU298
 845              		.loc 1 345 3 view .LVU299
 846              		.loc 1 345 3 view .LVU300
 847              		.loc 1 342 42 is_stmt 0 view .LVU301
 848 0280 10B5     		push	{r4, lr}
 849              		.cfi_def_cfa_offset 8
 850              		.cfi_offset 4, -8
 851              		.cfi_offset 14, -4
 852              		.loc 1 345 3 view .LVU302
ARM GAS  /tmp/ccfgf64Q.s 			page 16


 853 0282 0B48     		ldr	r0, .L88
 854 0284 FFF7FEFF 		bl	_trace_isr_enter
 855              	.LVL50:
 856              		.loc 1 345 22 is_stmt 1 view .LVU303
 857              		.loc 1 347 3 view .LVU304
 858              		.loc 1 347 16 is_stmt 0 view .LVU305
 859 0288 0A4B     		ldr	r3, .L88+4
 860              		.loc 1 349 22 view .LVU306
 861 028a 0B48     		ldr	r0, .L88+8
 862              		.loc 1 347 16 view .LVU307
 863 028c 1968     		ldr	r1, [r3]
 864              		.loc 1 349 22 view .LVU308
 865 028e 426D     		ldr	r2, [r0, #84]
 866              		.loc 1 347 23 view .LVU309
 867 0290 090C     		lsrs	r1, r1, #16
 868              		.loc 1 347 9 view .LVU310
 869 0292 01F03D01 		and	r1, r1, #61
 870              	.LVL51:
 871              		.loc 1 348 3 is_stmt 1 view .LVU311
 872              		.loc 1 348 23 is_stmt 0 view .LVU312
 873 0296 0C04     		lsls	r4, r1, #16
 874              		.loc 1 348 15 view .LVU313
 875 0298 9C60     		str	r4, [r3, #8]
 876              		.loc 1 349 3 is_stmt 1 view .LVU314
 877              		.loc 1 349 6 is_stmt 0 view .LVU315
 878 029a 0AB1     		cbz	r2, .L83
 879              		.loc 1 350 5 is_stmt 1 view .LVU316
 880 029c 806D     		ldr	r0, [r0, #88]
 881 029e 9047     		blx	r2
 882              	.LVL52:
 883              	.L83:
 884              		.loc 1 352 3 view .LVU317
 885              		.loc 1 352 3 view .LVU318
 886 02a0 0348     		ldr	r0, .L88
 887 02a2 FFF7FEFF 		bl	_trace_isr_leave
 888              	.LVL53:
 889              		.loc 1 352 3 view .LVU319
 890              		.loc 1 352 3 view .LVU320
 891              		.loc 1 352 3 view .LVU321
 892              		.loc 1 353 1 is_stmt 0 view .LVU322
 893 02a6 BDE81040 		pop	{r4, lr}
 894              		.cfi_restore 14
 895              		.cfi_restore 4
 896              		.cfi_def_cfa_offset 0
 897              		.loc 1 352 3 view .LVU323
 898 02aa FFF7FEBF 		b	_port_irq_epilogue
 899              	.LVL54:
 900              	.L89:
 901 02ae 00BF     		.align	2
 902              	.L88:
 903 02b0 78000000 		.word	.LANCHOR0+120
 904 02b4 00040240 		.word	1073873920
 905 02b8 00000000 		.word	.LANCHOR1
 906              		.cfi_endproc
 907              	.LFE372:
 908              		.size	Vector128, .-Vector128
 909              		.align	1
ARM GAS  /tmp/ccfgf64Q.s 			page 17


 910 02bc AFF30080 		.p2align 4,,15
 911              		.global	Vector12C
 912              		.syntax unified
 913              		.thumb
 914              		.thumb_func
 915              		.fpu fpv4-sp-d16
 916              		.type	Vector12C, %function
 917              	Vector12C:
 918              	.LFB373:
 919              		.loc 1 360 42 is_stmt 1 view -0
 920              		.cfi_startproc
 921              		@ args = 0, pretend = 0, frame = 0
 922              		@ frame_needed = 0, uses_anonymous_args = 0
 923              		.loc 1 361 3 view .LVU325
 924              		.loc 1 363 3 view .LVU326
 925              		.loc 1 363 3 view .LVU327
 926              		.loc 1 363 3 view .LVU328
 927              		.loc 1 363 3 view .LVU329
 928              		.loc 1 363 3 view .LVU330
 929              		.loc 1 360 42 is_stmt 0 view .LVU331
 930 02c0 10B5     		push	{r4, lr}
 931              		.cfi_def_cfa_offset 8
 932              		.cfi_offset 4, -8
 933              		.cfi_offset 14, -4
 934              		.loc 1 363 3 view .LVU332
 935 02c2 0B48     		ldr	r0, .L96
 936 02c4 FFF7FEFF 		bl	_trace_isr_enter
 937              	.LVL55:
 938              		.loc 1 363 22 is_stmt 1 view .LVU333
 939              		.loc 1 365 3 view .LVU334
 940              		.loc 1 365 16 is_stmt 0 view .LVU335
 941 02c8 0A4B     		ldr	r3, .L96+4
 942              		.loc 1 367 22 view .LVU336
 943 02ca 0B48     		ldr	r0, .L96+8
 944              		.loc 1 365 16 view .LVU337
 945 02cc 1968     		ldr	r1, [r3]
 946              		.loc 1 367 22 view .LVU338
 947 02ce C26D     		ldr	r2, [r0, #92]
 948              		.loc 1 365 23 view .LVU339
 949 02d0 890D     		lsrs	r1, r1, #22
 950              		.loc 1 365 9 view .LVU340
 951 02d2 01F03D01 		and	r1, r1, #61
 952              	.LVL56:
 953              		.loc 1 366 3 is_stmt 1 view .LVU341
 954              		.loc 1 366 23 is_stmt 0 view .LVU342
 955 02d6 8C05     		lsls	r4, r1, #22
 956              		.loc 1 366 15 view .LVU343
 957 02d8 9C60     		str	r4, [r3, #8]
 958              		.loc 1 367 3 is_stmt 1 view .LVU344
 959              		.loc 1 367 6 is_stmt 0 view .LVU345
 960 02da 0AB1     		cbz	r2, .L91
 961              		.loc 1 368 5 is_stmt 1 view .LVU346
 962 02dc 006E     		ldr	r0, [r0, #96]
 963 02de 9047     		blx	r2
 964              	.LVL57:
 965              	.L91:
 966              		.loc 1 370 3 view .LVU347
ARM GAS  /tmp/ccfgf64Q.s 			page 18


 967              		.loc 1 370 3 view .LVU348
 968 02e0 0348     		ldr	r0, .L96
 969 02e2 FFF7FEFF 		bl	_trace_isr_leave
 970              	.LVL58:
 971              		.loc 1 370 3 view .LVU349
 972              		.loc 1 370 3 view .LVU350
 973              		.loc 1 370 3 view .LVU351
 974              		.loc 1 371 1 is_stmt 0 view .LVU352
 975 02e6 BDE81040 		pop	{r4, lr}
 976              		.cfi_restore 14
 977              		.cfi_restore 4
 978              		.cfi_def_cfa_offset 0
 979              		.loc 1 370 3 view .LVU353
 980 02ea FFF7FEBF 		b	_port_irq_epilogue
 981              	.LVL59:
 982              	.L97:
 983 02ee 00BF     		.align	2
 984              	.L96:
 985 02f0 84000000 		.word	.LANCHOR0+132
 986 02f4 00040240 		.word	1073873920
 987 02f8 00000000 		.word	.LANCHOR1
 988              		.cfi_endproc
 989              	.LFE373:
 990              		.size	Vector12C, .-Vector12C
 991              		.align	1
 992 02fc AFF30080 		.p2align 4,,15
 993              		.global	Vector130
 994              		.syntax unified
 995              		.thumb
 996              		.thumb_func
 997              		.fpu fpv4-sp-d16
 998              		.type	Vector130, %function
 999              	Vector130:
 1000              	.LFB374:
 1001              		.loc 1 378 42 is_stmt 1 view -0
 1002              		.cfi_startproc
 1003              		@ args = 0, pretend = 0, frame = 0
 1004              		@ frame_needed = 0, uses_anonymous_args = 0
 1005              		.loc 1 379 3 view .LVU355
 1006              		.loc 1 381 3 view .LVU356
 1007              		.loc 1 381 3 view .LVU357
 1008              		.loc 1 381 3 view .LVU358
 1009              		.loc 1 381 3 view .LVU359
 1010              		.loc 1 381 3 view .LVU360
 1011              		.loc 1 378 42 is_stmt 0 view .LVU361
 1012 0300 08B5     		push	{r3, lr}
 1013              		.cfi_def_cfa_offset 8
 1014              		.cfi_offset 3, -8
 1015              		.cfi_offset 14, -4
 1016              		.loc 1 381 3 view .LVU362
 1017 0302 0A48     		ldr	r0, .L104
 1018 0304 FFF7FEFF 		bl	_trace_isr_enter
 1019              	.LVL60:
 1020              		.loc 1 381 22 is_stmt 1 view .LVU363
 1021              		.loc 1 383 3 view .LVU364
 1022              		.loc 1 383 23 is_stmt 0 view .LVU365
 1023 0308 094B     		ldr	r3, .L104+4
ARM GAS  /tmp/ccfgf64Q.s 			page 19


 1024              		.loc 1 385 22 view .LVU366
 1025 030a 0A48     		ldr	r0, .L104+8
 1026              		.loc 1 383 23 view .LVU367
 1027 030c 5968     		ldr	r1, [r3, #4]
 1028              		.loc 1 385 22 view .LVU368
 1029 030e 426E     		ldr	r2, [r0, #100]
 1030              		.loc 1 383 9 view .LVU369
 1031 0310 01F03D01 		and	r1, r1, #61
 1032              	.LVL61:
 1033              		.loc 1 384 3 is_stmt 1 view .LVU370
 1034              		.loc 1 384 15 is_stmt 0 view .LVU371
 1035 0314 D960     		str	r1, [r3, #12]
 1036              		.loc 1 385 3 is_stmt 1 view .LVU372
 1037              		.loc 1 385 6 is_stmt 0 view .LVU373
 1038 0316 0AB1     		cbz	r2, .L99
 1039              		.loc 1 386 5 is_stmt 1 view .LVU374
 1040 0318 806E     		ldr	r0, [r0, #104]
 1041 031a 9047     		blx	r2
 1042              	.LVL62:
 1043              	.L99:
 1044              		.loc 1 388 3 view .LVU375
 1045              		.loc 1 388 3 view .LVU376
 1046 031c 0348     		ldr	r0, .L104
 1047 031e FFF7FEFF 		bl	_trace_isr_leave
 1048              	.LVL63:
 1049              		.loc 1 388 3 view .LVU377
 1050              		.loc 1 388 3 view .LVU378
 1051              		.loc 1 388 3 view .LVU379
 1052              		.loc 1 389 1 is_stmt 0 view .LVU380
 1053 0322 BDE80840 		pop	{r3, lr}
 1054              		.cfi_restore 14
 1055              		.cfi_restore 3
 1056              		.cfi_def_cfa_offset 0
 1057              		.loc 1 388 3 view .LVU381
 1058 0326 FFF7FEBF 		b	_port_irq_epilogue
 1059              	.LVL64:
 1060              	.L105:
 1061 032a 00BF     		.align	2
 1062              	.L104:
 1063 032c 90000000 		.word	.LANCHOR0+144
 1064 0330 00040240 		.word	1073873920
 1065 0334 00000000 		.word	.LANCHOR1
 1066              		.cfi_endproc
 1067              	.LFE374:
 1068              		.size	Vector130, .-Vector130
 1069              		.align	1
 1070 0338 AFF30080 		.p2align 4,,15
 1070      AFF30080 
 1071              		.global	Vector150
 1072              		.syntax unified
 1073              		.thumb
 1074              		.thumb_func
 1075              		.fpu fpv4-sp-d16
 1076              		.type	Vector150, %function
 1077              	Vector150:
 1078              	.LFB375:
 1079              		.loc 1 396 42 is_stmt 1 view -0
ARM GAS  /tmp/ccfgf64Q.s 			page 20


 1080              		.cfi_startproc
 1081              		@ args = 0, pretend = 0, frame = 0
 1082              		@ frame_needed = 0, uses_anonymous_args = 0
 1083              		.loc 1 397 3 view .LVU383
 1084              		.loc 1 399 3 view .LVU384
 1085              		.loc 1 399 3 view .LVU385
 1086              		.loc 1 399 3 view .LVU386
 1087              		.loc 1 399 3 view .LVU387
 1088              		.loc 1 399 3 view .LVU388
 1089              		.loc 1 396 42 is_stmt 0 view .LVU389
 1090 0340 10B5     		push	{r4, lr}
 1091              		.cfi_def_cfa_offset 8
 1092              		.cfi_offset 4, -8
 1093              		.cfi_offset 14, -4
 1094              		.loc 1 399 3 view .LVU390
 1095 0342 0B48     		ldr	r0, .L112
 1096 0344 FFF7FEFF 		bl	_trace_isr_enter
 1097              	.LVL65:
 1098              		.loc 1 399 22 is_stmt 1 view .LVU391
 1099              		.loc 1 401 3 view .LVU392
 1100              		.loc 1 401 16 is_stmt 0 view .LVU393
 1101 0348 0A4B     		ldr	r3, .L112+4
 1102              		.loc 1 403 22 view .LVU394
 1103 034a 0B48     		ldr	r0, .L112+8
 1104              		.loc 1 401 16 view .LVU395
 1105 034c 5968     		ldr	r1, [r3, #4]
 1106              		.loc 1 403 22 view .LVU396
 1107 034e C26E     		ldr	r2, [r0, #108]
 1108              		.loc 1 401 23 view .LVU397
 1109 0350 8909     		lsrs	r1, r1, #6
 1110              		.loc 1 401 9 view .LVU398
 1111 0352 01F03D01 		and	r1, r1, #61
 1112              	.LVL66:
 1113              		.loc 1 402 3 is_stmt 1 view .LVU399
 1114              		.loc 1 402 23 is_stmt 0 view .LVU400
 1115 0356 8C01     		lsls	r4, r1, #6
 1116              		.loc 1 402 15 view .LVU401
 1117 0358 DC60     		str	r4, [r3, #12]
 1118              		.loc 1 403 3 is_stmt 1 view .LVU402
 1119              		.loc 1 403 6 is_stmt 0 view .LVU403
 1120 035a 0AB1     		cbz	r2, .L107
 1121              		.loc 1 404 5 is_stmt 1 view .LVU404
 1122 035c 006F     		ldr	r0, [r0, #112]
 1123 035e 9047     		blx	r2
 1124              	.LVL67:
 1125              	.L107:
 1126              		.loc 1 406 3 view .LVU405
 1127              		.loc 1 406 3 view .LVU406
 1128 0360 0348     		ldr	r0, .L112
 1129 0362 FFF7FEFF 		bl	_trace_isr_leave
 1130              	.LVL68:
 1131              		.loc 1 406 3 view .LVU407
 1132              		.loc 1 406 3 view .LVU408
 1133              		.loc 1 406 3 view .LVU409
 1134              		.loc 1 407 1 is_stmt 0 view .LVU410
 1135 0366 BDE81040 		pop	{r4, lr}
 1136              		.cfi_restore 14
ARM GAS  /tmp/ccfgf64Q.s 			page 21


 1137              		.cfi_restore 4
 1138              		.cfi_def_cfa_offset 0
 1139              		.loc 1 406 3 view .LVU411
 1140 036a FFF7FEBF 		b	_port_irq_epilogue
 1141              	.LVL69:
 1142              	.L113:
 1143 036e 00BF     		.align	2
 1144              	.L112:
 1145 0370 9C000000 		.word	.LANCHOR0+156
 1146 0374 00040240 		.word	1073873920
 1147 0378 00000000 		.word	.LANCHOR1
 1148              		.cfi_endproc
 1149              	.LFE375:
 1150              		.size	Vector150, .-Vector150
 1151              		.align	1
 1152 037c AFF30080 		.p2align 4,,15
 1153              		.global	Vector154
 1154              		.syntax unified
 1155              		.thumb
 1156              		.thumb_func
 1157              		.fpu fpv4-sp-d16
 1158              		.type	Vector154, %function
 1159              	Vector154:
 1160              	.LFB376:
 1161              		.loc 1 414 42 is_stmt 1 view -0
 1162              		.cfi_startproc
 1163              		@ args = 0, pretend = 0, frame = 0
 1164              		@ frame_needed = 0, uses_anonymous_args = 0
 1165              		.loc 1 415 3 view .LVU413
 1166              		.loc 1 417 3 view .LVU414
 1167              		.loc 1 417 3 view .LVU415
 1168              		.loc 1 417 3 view .LVU416
 1169              		.loc 1 417 3 view .LVU417
 1170              		.loc 1 417 3 view .LVU418
 1171              		.loc 1 414 42 is_stmt 0 view .LVU419
 1172 0380 10B5     		push	{r4, lr}
 1173              		.cfi_def_cfa_offset 8
 1174              		.cfi_offset 4, -8
 1175              		.cfi_offset 14, -4
 1176              		.loc 1 417 3 view .LVU420
 1177 0382 0B48     		ldr	r0, .L120
 1178 0384 FFF7FEFF 		bl	_trace_isr_enter
 1179              	.LVL70:
 1180              		.loc 1 417 22 is_stmt 1 view .LVU421
 1181              		.loc 1 419 3 view .LVU422
 1182              		.loc 1 419 16 is_stmt 0 view .LVU423
 1183 0388 0A4B     		ldr	r3, .L120+4
 1184              		.loc 1 421 22 view .LVU424
 1185 038a 0B48     		ldr	r0, .L120+8
 1186              		.loc 1 419 16 view .LVU425
 1187 038c 5968     		ldr	r1, [r3, #4]
 1188              		.loc 1 421 22 view .LVU426
 1189 038e 426F     		ldr	r2, [r0, #116]
 1190              		.loc 1 419 23 view .LVU427
 1191 0390 090C     		lsrs	r1, r1, #16
 1192              		.loc 1 419 9 view .LVU428
 1193 0392 01F03D01 		and	r1, r1, #61
ARM GAS  /tmp/ccfgf64Q.s 			page 22


 1194              	.LVL71:
 1195              		.loc 1 420 3 is_stmt 1 view .LVU429
 1196              		.loc 1 420 23 is_stmt 0 view .LVU430
 1197 0396 0C04     		lsls	r4, r1, #16
 1198              		.loc 1 420 15 view .LVU431
 1199 0398 DC60     		str	r4, [r3, #12]
 1200              		.loc 1 421 3 is_stmt 1 view .LVU432
 1201              		.loc 1 421 6 is_stmt 0 view .LVU433
 1202 039a 0AB1     		cbz	r2, .L115
 1203              		.loc 1 422 5 is_stmt 1 view .LVU434
 1204 039c 806F     		ldr	r0, [r0, #120]
 1205 039e 9047     		blx	r2
 1206              	.LVL72:
 1207              	.L115:
 1208              		.loc 1 424 3 view .LVU435
 1209              		.loc 1 424 3 view .LVU436
 1210 03a0 0348     		ldr	r0, .L120
 1211 03a2 FFF7FEFF 		bl	_trace_isr_leave
 1212              	.LVL73:
 1213              		.loc 1 424 3 view .LVU437
 1214              		.loc 1 424 3 view .LVU438
 1215              		.loc 1 424 3 view .LVU439
 1216              		.loc 1 425 1 is_stmt 0 view .LVU440
 1217 03a6 BDE81040 		pop	{r4, lr}
 1218              		.cfi_restore 14
 1219              		.cfi_restore 4
 1220              		.cfi_def_cfa_offset 0
 1221              		.loc 1 424 3 view .LVU441
 1222 03aa FFF7FEBF 		b	_port_irq_epilogue
 1223              	.LVL74:
 1224              	.L121:
 1225 03ae 00BF     		.align	2
 1226              	.L120:
 1227 03b0 A8000000 		.word	.LANCHOR0+168
 1228 03b4 00040240 		.word	1073873920
 1229 03b8 00000000 		.word	.LANCHOR1
 1230              		.cfi_endproc
 1231              	.LFE376:
 1232              		.size	Vector154, .-Vector154
 1233              		.align	1
 1234 03bc AFF30080 		.p2align 4,,15
 1235              		.global	Vector158
 1236              		.syntax unified
 1237              		.thumb
 1238              		.thumb_func
 1239              		.fpu fpv4-sp-d16
 1240              		.type	Vector158, %function
 1241              	Vector158:
 1242              	.LFB377:
 1243              		.loc 1 432 42 is_stmt 1 view -0
 1244              		.cfi_startproc
 1245              		@ args = 0, pretend = 0, frame = 0
 1246              		@ frame_needed = 0, uses_anonymous_args = 0
 1247              		.loc 1 433 3 view .LVU443
 1248              		.loc 1 435 3 view .LVU444
 1249              		.loc 1 435 3 view .LVU445
 1250              		.loc 1 435 3 view .LVU446
ARM GAS  /tmp/ccfgf64Q.s 			page 23


 1251              		.loc 1 435 3 view .LVU447
 1252              		.loc 1 435 3 view .LVU448
 1253              		.loc 1 432 42 is_stmt 0 view .LVU449
 1254 03c0 10B5     		push	{r4, lr}
 1255              		.cfi_def_cfa_offset 8
 1256              		.cfi_offset 4, -8
 1257              		.cfi_offset 14, -4
 1258              		.loc 1 435 3 view .LVU450
 1259 03c2 0B48     		ldr	r0, .L128
 1260 03c4 FFF7FEFF 		bl	_trace_isr_enter
 1261              	.LVL75:
 1262              		.loc 1 435 22 is_stmt 1 view .LVU451
 1263              		.loc 1 437 3 view .LVU452
 1264              		.loc 1 437 16 is_stmt 0 view .LVU453
 1265 03c8 0A4B     		ldr	r3, .L128+4
 1266              		.loc 1 439 22 view .LVU454
 1267 03ca 0B48     		ldr	r0, .L128+8
 1268              		.loc 1 437 16 view .LVU455
 1269 03cc 5968     		ldr	r1, [r3, #4]
 1270              		.loc 1 439 22 view .LVU456
 1271 03ce C26F     		ldr	r2, [r0, #124]
 1272              		.loc 1 437 23 view .LVU457
 1273 03d0 890D     		lsrs	r1, r1, #22
 1274              		.loc 1 437 9 view .LVU458
 1275 03d2 01F03D01 		and	r1, r1, #61
 1276              	.LVL76:
 1277              		.loc 1 438 3 is_stmt 1 view .LVU459
 1278              		.loc 1 438 23 is_stmt 0 view .LVU460
 1279 03d6 8C05     		lsls	r4, r1, #22
 1280              		.loc 1 438 15 view .LVU461
 1281 03d8 DC60     		str	r4, [r3, #12]
 1282              		.loc 1 439 3 is_stmt 1 view .LVU462
 1283              		.loc 1 439 6 is_stmt 0 view .LVU463
 1284 03da 12B1     		cbz	r2, .L123
 1285              		.loc 1 440 5 is_stmt 1 view .LVU464
 1286 03dc D0F88000 		ldr	r0, [r0, #128]
 1287 03e0 9047     		blx	r2
 1288              	.LVL77:
 1289              	.L123:
 1290              		.loc 1 442 3 view .LVU465
 1291              		.loc 1 442 3 view .LVU466
 1292 03e2 0348     		ldr	r0, .L128
 1293 03e4 FFF7FEFF 		bl	_trace_isr_leave
 1294              	.LVL78:
 1295              		.loc 1 442 3 view .LVU467
 1296              		.loc 1 442 3 view .LVU468
 1297              		.loc 1 442 3 view .LVU469
 1298              		.loc 1 443 1 is_stmt 0 view .LVU470
 1299 03e8 BDE81040 		pop	{r4, lr}
 1300              		.cfi_restore 14
 1301              		.cfi_restore 4
 1302              		.cfi_def_cfa_offset 0
 1303              		.loc 1 442 3 view .LVU471
 1304 03ec FFF7FEBF 		b	_port_irq_epilogue
 1305              	.LVL79:
 1306              	.L129:
 1307              		.align	2
ARM GAS  /tmp/ccfgf64Q.s 			page 24


 1308              	.L128:
 1309 03f0 B4000000 		.word	.LANCHOR0+180
 1310 03f4 00040240 		.word	1073873920
 1311 03f8 00000000 		.word	.LANCHOR1
 1312              		.cfi_endproc
 1313              	.LFE377:
 1314              		.size	Vector158, .-Vector158
 1315              		.align	1
 1316 03fc AFF30080 		.p2align 4,,15
 1317              		.global	dmaInit
 1318              		.syntax unified
 1319              		.thumb
 1320              		.thumb_func
 1321              		.fpu fpv4-sp-d16
 1322              		.type	dmaInit, %function
 1323              	dmaInit:
 1324              	.LFB378:
 1325              		.loc 1 454 20 is_stmt 1 view -0
 1326              		.cfi_startproc
 1327              		@ args = 0, pretend = 0, frame = 0
 1328              		@ frame_needed = 0, uses_anonymous_args = 0
 1329              		@ link register save eliminated.
 1330              		.loc 1 455 3 view .LVU473
 1331              		.loc 1 457 3 view .LVU474
 1332              		.loc 1 454 20 is_stmt 0 view .LVU475
 1333 0400 30B4     		push	{r4, r5}
 1334              		.cfi_def_cfa_offset 8
 1335              		.cfi_offset 4, -8
 1336              		.cfi_offset 5, -4
 1337              		.loc 1 457 22 view .LVU476
 1338 0402 0E4C     		ldr	r4, .L136
 1339 0404 0025     		movs	r5, #0
 1340 0406 0E4A     		ldr	r2, .L136+4
 1341 0408 2346     		mov	r3, r4
 1342 040a 2560     		str	r5, [r4]
 1343              		.loc 1 458 3 is_stmt 1 view .LVU477
 1344              	.LVL80:
 1345              		.loc 1 459 38 is_stmt 0 view .LVU478
 1346 040c 2946     		mov	r1, r5
 1347              		.loc 1 457 22 view .LVU479
 1348 040e 0D48     		ldr	r0, .L136+8
 1349 0410 8034     		adds	r4, r4, #128
 1350 0412 01E0     		b	.L132
 1351              	.LVL81:
 1352              	.L135:
 1353              		.loc 1 457 22 view .LVU480
 1354 0414 52F8100C 		ldr	r0, [r2, #-16]
 1355              	.L132:
 1356              		.loc 1 459 5 is_stmt 1 discriminator 3 view .LVU481
 1357              		.loc 1 459 38 is_stmt 0 discriminator 3 view .LVU482
 1358 0418 0160     		str	r1, [r0]
 1359              		.loc 1 460 5 is_stmt 1 discriminator 3 view .LVU483
 1360 041a 0833     		adds	r3, r3, #8
 1361              		.loc 1 460 25 is_stmt 0 discriminator 3 view .LVU484
 1362 041c 43F8041C 		str	r1, [r3, #-4]
 1363              		.loc 1 460 25 discriminator 3 view .LVU485
 1364 0420 1032     		adds	r2, r2, #16
ARM GAS  /tmp/ccfgf64Q.s 			page 25


 1365              		.loc 1 458 3 discriminator 3 view .LVU486
 1366 0422 A342     		cmp	r3, r4
 1367 0424 F6D1     		bne	.L135
 1368              		.loc 1 462 3 is_stmt 1 view .LVU487
 1369              		.loc 1 462 15 is_stmt 0 view .LVU488
 1370 0426 4FF0FF33 		mov	r3, #-1
 1371 042a 0749     		ldr	r1, .L136+12
 1372              		.loc 1 464 15 view .LVU489
 1373 042c 074A     		ldr	r2, .L136+16
 1374              		.loc 1 462 15 view .LVU490
 1375 042e 8B60     		str	r3, [r1, #8]
 1376              		.loc 1 463 3 is_stmt 1 view .LVU491
 1377              		.loc 1 463 15 is_stmt 0 view .LVU492
 1378 0430 CB60     		str	r3, [r1, #12]
 1379              		.loc 1 464 3 is_stmt 1 view .LVU493
 1380              		.loc 1 464 15 is_stmt 0 view .LVU494
 1381 0432 9360     		str	r3, [r2, #8]
 1382              		.loc 1 465 3 is_stmt 1 view .LVU495
 1383              		.loc 1 465 15 is_stmt 0 view .LVU496
 1384 0434 D360     		str	r3, [r2, #12]
 1385              		.loc 1 466 1 view .LVU497
 1386 0436 30BC     		pop	{r4, r5}
 1387              		.cfi_restore 5
 1388              		.cfi_restore 4
 1389              		.cfi_def_cfa_offset 0
 1390 0438 7047     		bx	lr
 1391              	.L137:
 1392 043a 00BF     		.align	2
 1393              	.L136:
 1394 043c 00000000 		.word	.LANCHOR1
 1395 0440 D0000000 		.word	.LANCHOR0+208
 1396 0444 10000240 		.word	1073872912
 1397 0448 00000240 		.word	1073872896
 1398 044c 00040240 		.word	1073873920
 1399              		.cfi_endproc
 1400              	.LFE378:
 1401              		.size	dmaInit, .-dmaInit
 1402              		.align	1
 1403              		.p2align 4,,15
 1404              		.global	dmaStreamAllocI
 1405              		.syntax unified
 1406              		.thumb
 1407              		.thumb_func
 1408              		.fpu fpv4-sp-d16
 1409              		.type	dmaStreamAllocI, %function
 1410              	dmaStreamAllocI:
 1411              	.LVL82:
 1412              	.LFB379:
 1413              		.loc 1 493 56 is_stmt 1 view -0
 1414              		.cfi_startproc
 1415              		@ args = 0, pretend = 0, frame = 0
 1416              		@ frame_needed = 0, uses_anonymous_args = 0
 1417              		.loc 1 494 3 view .LVU499
 1418              		.loc 1 496 23 view .LVU500
 1419              		.loc 1 498 3 view .LVU501
 1420              		.loc 1 498 6 is_stmt 0 view .LVU502
 1421 0450 0F28     		cmp	r0, #15
ARM GAS  /tmp/ccfgf64Q.s 			page 26


 1422              		.loc 1 493 56 view .LVU503
 1423 0452 F8B5     		push	{r3, r4, r5, r6, r7, lr}
 1424              		.cfi_def_cfa_offset 24
 1425              		.cfi_offset 3, -24
 1426              		.cfi_offset 4, -20
 1427              		.cfi_offset 5, -16
 1428              		.cfi_offset 6, -12
 1429              		.cfi_offset 7, -8
 1430              		.cfi_offset 14, -4
 1431              		.loc 1 498 6 view .LVU504
 1432 0454 09D9     		bls	.L139
 1433              		.loc 1 503 8 is_stmt 1 view .LVU505
 1434              		.loc 1 503 11 is_stmt 0 view .LVU506
 1435 0456 1028     		cmp	r0, #16
 1436 0458 5CD0     		beq	.L151
 1437              		.loc 1 507 8 is_stmt 1 view .LVU507
 1438              		.loc 1 507 11 is_stmt 0 view .LVU508
 1439 045a 1128     		cmp	r0, #17
 1440 045c 7DD0     		beq	.L152
 1441              		.loc 1 511 8 is_stmt 1 view .LVU509
 1442              		.loc 1 511 11 is_stmt 0 view .LVU510
 1443 045e 1228     		cmp	r0, #18
 1444 0460 15D1     		bne	.L169
 1445 0462 8024     		movs	r4, #128
 1446              		.loc 1 513 13 view .LVU511
 1447 0464 0F26     		movs	r6, #15
 1448              		.loc 1 512 13 view .LVU512
 1449 0466 0720     		movs	r0, #7
 1450              	.LVL83:
 1451              		.loc 1 512 13 view .LVU513
 1452 0468 57E0     		b	.L140
 1453              	.LVL84:
 1454              	.L139:
 1455              		.loc 1 512 13 view .LVU514
 1456 046a 0124     		movs	r4, #1
 1457              	.LBB50:
 1458              		.loc 1 523 13 view .LVU515
 1459 046c DFF800C1 		ldr	ip, .L170+12
 1460 0470 8440     		lsls	r4, r4, r0
 1461              	.LVL85:
 1462              		.loc 1 523 13 view .LVU516
 1463              	.LBE50:
 1464              		.loc 1 521 3 is_stmt 1 view .LVU517
 1465              	.LBB53:
 1466              		.loc 1 522 5 view .LVU518
 1467              		.loc 1 523 5 view .LVU519
 1468              		.loc 1 523 13 is_stmt 0 view .LVU520
 1469 0472 DCF80050 		ldr	r5, [ip]
 1470              		.loc 1 523 8 view .LVU521
 1471 0476 2542     		tst	r5, r4
 1472 0478 0CD0     		beq	.L147
 1473 047a 0646     		mov	r6, r0
 1474              	.LVL86:
 1475              	.L148:
 1476              		.loc 1 522 14 view .LVU522
 1477 047c 0127     		movs	r7, #1
 1478 047e 01E0     		b	.L142
ARM GAS  /tmp/ccfgf64Q.s 			page 27


 1479              	.LVL87:
 1480              	.L146:
 1481              		.loc 1 523 8 view .LVU523
 1482 0480 2C42     		tst	r4, r5
 1483 0482 07D0     		beq	.L147
 1484              	.LVL88:
 1485              	.L142:
 1486              		.loc 1 523 8 view .LVU524
 1487              	.LBE53:
 1488              		.loc 1 521 34 discriminator 2 view .LVU525
 1489 0484 0130     		adds	r0, r0, #1
 1490              	.LVL89:
 1491              	.LBB54:
 1492              		.loc 1 522 5 is_stmt 1 discriminator 2 view .LVU526
 1493              		.loc 1 522 5 is_stmt 0 discriminator 2 view .LVU527
 1494              	.LBE54:
 1495              		.loc 1 521 3 discriminator 2 view .LVU528
 1496 0486 B042     		cmp	r0, r6
 1497              	.LBB55:
 1498              		.loc 1 522 14 discriminator 2 view .LVU529
 1499 0488 07FA00F4 		lsl	r4, r7, r0
 1500              	.LVL90:
 1501              		.loc 1 523 5 is_stmt 1 discriminator 2 view .LVU530
 1502              	.LBE55:
 1503              		.loc 1 521 3 is_stmt 0 discriminator 2 view .LVU531
 1504 048c F8D9     		bls	.L146
 1505              	.LVL91:
 1506              	.L169:
 1507              		.loc 1 518 12 view .LVU532
 1508 048e 0026     		movs	r6, #0
 1509              	.LVL92:
 1510              	.L138:
 1511              		.loc 1 561 1 view .LVU533
 1512 0490 3046     		mov	r0, r6
 1513 0492 F8BD     		pop	{r3, r4, r5, r6, r7, pc}
 1514              	.LVL93:
 1515              	.L147:
 1516              	.LBB56:
 1517              	.LBB51:
 1518              		.loc 1 524 7 is_stmt 1 view .LVU534
 1519              		.loc 1 527 28 is_stmt 0 view .LVU535
 1520 0494 0CEBC007 		add	r7, ip, r0, lsl #3
 1521              		.loc 1 529 27 view .LVU536
 1522 0498 2543     		orrs	r5, r5, r4
 1523              		.loc 1 524 33 view .LVU537
 1524 049a 0001     		lsls	r0, r0, #4
 1525              	.LVL94:
 1526              		.loc 1 524 33 view .LVU538
 1527 049c 314E     		ldr	r6, .L170
 1528              		.loc 1 532 10 view .LVU539
 1529 049e 14F0FF0F 		tst	r4, #255
 1530              		.loc 1 529 27 view .LVU540
 1531 04a2 CCF80050 		str	r5, [ip]
 1532              		.loc 1 527 28 view .LVU541
 1533 04a6 7A60     		str	r2, [r7, #4]
 1534              		.loc 1 524 33 view .LVU542
 1535 04a8 0644     		add	r6, r6, r0
ARM GAS  /tmp/ccfgf64Q.s 			page 28


 1536              	.LVL95:
 1537              		.loc 1 527 7 is_stmt 1 view .LVU543
 1538              		.loc 1 528 7 view .LVU544
 1539              		.loc 1 528 28 is_stmt 0 view .LVU545
 1540 04aa BB60     		str	r3, [r7, #8]
 1541              		.loc 1 529 7 is_stmt 1 view .LVU546
 1542              		.loc 1 532 7 view .LVU547
 1543              		.loc 1 532 10 is_stmt 0 view .LVU548
 1544 04ac 45D1     		bne	.L149
 1545              	.LVL96:
 1546              	.L143:
 1547              		.loc 1 533 28 is_stmt 1 discriminator 5 view .LVU549
 1548              		.loc 1 535 7 discriminator 5 view .LVU550
 1549              		.loc 1 535 10 is_stmt 0 discriminator 5 view .LVU551
 1550 04ae 14F47F4F 		tst	r4, #65280
 1551 04b2 0ED0     		beq	.L144
 1552              		.loc 1 536 9 is_stmt 1 view .LVU552
 1553 04b4 2C4B     		ldr	r3, .L170+4
 1554 04b6 D3F8D840 		ldr	r4, [r3, #216]
 1555 04ba 44F00204 		orr	r4, r4, #2
 1556 04be C3F8D840 		str	r4, [r3, #216]
 1557              		.loc 1 536 9 view .LVU553
 1558              		.loc 1 536 9 view .LVU554
 1559 04c2 D3F80041 		ldr	r4, [r3, #256]
 1560 04c6 44F00204 		orr	r4, r4, #2
 1561 04ca C3F80041 		str	r4, [r3, #256]
 1562              		.loc 1 536 9 view .LVU555
 1563 04ce D3F80031 		ldr	r3, [r3, #256]
 1564              	.L144:
 1565              		.loc 1 536 28 discriminator 5 view .LVU556
 1566              		.loc 1 547 7 discriminator 5 view .LVU557
 1567 04d2 264D     		ldr	r5, .L170+8
 1568 04d4 2B18     		adds	r3, r5, r0
 1569 04d6 D3F8C040 		ldr	r4, [r3, #192]
 1570 04da 2368     		ldr	r3, [r4]
 1571 04dc 23F01F03 		bic	r3, r3, #31
 1572 04e0 2360     		str	r3, [r4]
 1573              		.loc 1 547 7 discriminator 5 view .LVU558
 1574              	.L145:
 1575              		.loc 1 547 7 discriminator 2 view .LVU559
 1576 04e2 2368     		ldr	r3, [r4]
 1577 04e4 13F00103 		ands	r3, r3, #1
 1578 04e8 FBD1     		bne	.L145
 1579              		.loc 1 547 7 discriminator 3 view .LVU560
 1580 04ea 2844     		add	r0, r0, r5
 1581 04ec 3D25     		movs	r5, #61
 1582              		.loc 1 549 27 is_stmt 0 discriminator 3 view .LVU561
 1583 04ee 4FF0210C 		mov	ip, #33
 1584              		.loc 1 547 7 discriminator 3 view .LVU562
 1585 04f2 90F8CC70 		ldrb	r7, [r0, #204]	@ zero_extendqisi2
 1586 04f6 BD40     		lsls	r5, r5, r7
 1587 04f8 D0F8C470 		ldr	r7, [r0, #196]
 1588 04fc 3D60     		str	r5, [r7]
 1589              		.loc 1 547 7 is_stmt 1 discriminator 3 view .LVU563
 1590              		.loc 1 547 31 discriminator 3 view .LVU564
 1591              		.loc 1 548 7 discriminator 3 view .LVU565
 1592              		.loc 1 548 26 is_stmt 0 discriminator 3 view .LVU566
ARM GAS  /tmp/ccfgf64Q.s 			page 29


 1593 04fe 2360     		str	r3, [r4]
 1594              		.loc 1 549 7 is_stmt 1 discriminator 3 view .LVU567
 1595              		.loc 1 549 27 is_stmt 0 discriminator 3 view .LVU568
 1596 0500 C4F814C0 		str	ip, [r4, #20]
 1597              		.loc 1 552 7 is_stmt 1 discriminator 3 view .LVU569
 1598              		.loc 1 552 10 is_stmt 0 discriminator 3 view .LVU570
 1599 0504 002A     		cmp	r2, #0
 1600 0506 C3D0     		beq	.L138
 1601              		.loc 1 553 9 is_stmt 1 view .LVU571
 1602 0508 90F8CE00 		ldrb	r0, [r0, #206]	@ zero_extendqisi2
 1603 050c FFF7FEFF 		bl	nvicEnableVector
 1604              	.LVL97:
 1605              		.loc 1 553 9 is_stmt 0 view .LVU572
 1606              	.LBE51:
 1607              	.LBE56:
 1608              		.loc 1 561 1 view .LVU573
 1609 0510 3046     		mov	r0, r6
 1610 0512 F8BD     		pop	{r3, r4, r5, r6, r7, pc}
 1611              	.LVL98:
 1612              	.L151:
 1613              		.loc 1 561 1 view .LVU574
 1614 0514 0124     		movs	r4, #1
 1615              		.loc 1 505 13 view .LVU575
 1616 0516 0F26     		movs	r6, #15
 1617              		.loc 1 504 13 view .LVU576
 1618 0518 0020     		movs	r0, #0
 1619              	.LVL99:
 1620              	.L140:
 1621              		.loc 1 521 3 is_stmt 1 view .LVU577
 1622              	.LBB57:
 1623              		.loc 1 522 5 view .LVU578
 1624              		.loc 1 523 5 view .LVU579
 1625              		.loc 1 523 13 is_stmt 0 view .LVU580
 1626 051a DFF854C0 		ldr	ip, .L170+12
 1627 051e DCF80050 		ldr	r5, [ip]
 1628              		.loc 1 523 8 view .LVU581
 1629 0522 2C42     		tst	r4, r5
 1630 0524 AAD1     		bne	.L148
 1631              	.LBB52:
 1632              		.loc 1 524 7 is_stmt 1 view .LVU582
 1633              		.loc 1 527 28 is_stmt 0 view .LVU583
 1634 0526 0CEBC007 		add	r7, ip, r0, lsl #3
 1635              		.loc 1 524 33 view .LVU584
 1636 052a 0E4E     		ldr	r6, .L170
 1637              	.LVL100:
 1638              		.loc 1 524 33 view .LVU585
 1639 052c 0001     		lsls	r0, r0, #4
 1640              	.LVL101:
 1641              		.loc 1 529 27 view .LVU586
 1642 052e 2543     		orrs	r5, r5, r4
 1643              		.loc 1 527 28 view .LVU587
 1644 0530 7A60     		str	r2, [r7, #4]
 1645              		.loc 1 524 33 view .LVU588
 1646 0532 0644     		add	r6, r6, r0
 1647              	.LVL102:
 1648              		.loc 1 527 7 is_stmt 1 view .LVU589
 1649              		.loc 1 528 7 view .LVU590
ARM GAS  /tmp/ccfgf64Q.s 			page 30


 1650              		.loc 1 529 27 is_stmt 0 view .LVU591
 1651 0534 CCF80050 		str	r5, [ip]
 1652              		.loc 1 528 28 view .LVU592
 1653 0538 BB60     		str	r3, [r7, #8]
 1654              		.loc 1 529 7 is_stmt 1 view .LVU593
 1655              		.loc 1 532 7 view .LVU594
 1656              	.L149:
 1657              		.loc 1 533 9 view .LVU595
 1658 053a 0B4B     		ldr	r3, .L170+4
 1659              	.LVL103:
 1660              		.loc 1 533 9 is_stmt 0 view .LVU596
 1661 053c D3F8D850 		ldr	r5, [r3, #216]
 1662 0540 45F00105 		orr	r5, r5, #1
 1663 0544 C3F8D850 		str	r5, [r3, #216]
 1664              		.loc 1 533 9 is_stmt 1 view .LVU597
 1665              		.loc 1 533 9 view .LVU598
 1666 0548 D3F80051 		ldr	r5, [r3, #256]
 1667 054c 45F00105 		orr	r5, r5, #1
 1668 0550 C3F80051 		str	r5, [r3, #256]
 1669              		.loc 1 533 9 view .LVU599
 1670 0554 D3F80031 		ldr	r3, [r3, #256]
 1671 0558 A9E7     		b	.L143
 1672              	.LVL104:
 1673              	.L152:
 1674              		.loc 1 533 9 is_stmt 0 view .LVU600
 1675              	.LBE52:
 1676              	.LBE57:
 1677 055a 0124     		movs	r4, #1
 1678              		.loc 1 509 13 view .LVU601
 1679 055c 0726     		movs	r6, #7
 1680              		.loc 1 508 13 view .LVU602
 1681 055e 0020     		movs	r0, #0
 1682              	.LVL105:
 1683              		.loc 1 508 13 view .LVU603
 1684 0560 DBE7     		b	.L140
 1685              	.L171:
 1686 0562 00BF     		.align	2
 1687              	.L170:
 1688 0564 C0000000 		.word	.LANCHOR0+192
 1689 0568 00440258 		.word	1476543488
 1690 056c 00000000 		.word	.LANCHOR0
 1691 0570 00000000 		.word	.LANCHOR1
 1692              		.cfi_endproc
 1693              	.LFE379:
 1694              		.size	dmaStreamAllocI, .-dmaStreamAllocI
 1695              		.align	1
 1696 0574 AFF30080 		.p2align 4,,15
 1696      AFF30080 
 1696      AFF30080 
 1697              		.global	dmaStreamAlloc
 1698              		.syntax unified
 1699              		.thumb
 1700              		.thumb_func
 1701              		.fpu fpv4-sp-d16
 1702              		.type	dmaStreamAlloc, %function
 1703              	dmaStreamAlloc:
 1704              	.LVL106:
ARM GAS  /tmp/ccfgf64Q.s 			page 31


 1705              	.LFB380:
 1706              		.loc 1 588 55 is_stmt 1 view -0
 1707              		.cfi_startproc
 1708              		@ args = 0, pretend = 0, frame = 0
 1709              		@ frame_needed = 0, uses_anonymous_args = 0
 1710              		.loc 1 589 3 view .LVU605
 1711              		.loc 1 591 3 view .LVU606
 1712              	.LBB58:
 1713              	.LBI58:
 1714              		.file 2 "../../../external/ChibiOS/os/hal/osal/rt-nil/osal.h"
 1715              		.loc 2 509 20 view .LVU607
 1716              	.LBE58:
 1717              		.loc 2 511 3 view .LVU608
 1718              	.LBB70:
 1719              	.LBB59:
 1720              	.LBI59:
 1721              		.file 3 "../../../external/ChibiOS/os/rt/include/chsys.h"
 1722              		.loc 3 353 20 view .LVU609
 1723              	.LBE59:
 1724              	.LBE70:
 1725              		.loc 3 355 3 view .LVU610
 1726              	.LBB71:
 1727              	.LBB67:
 1728              	.LBB60:
 1729              	.LBI60:
 1730              		.file 4 "../../../external/ChibiOS/os/common/ports/ARMCMx/chcore_v7m.h"
 1731              		.loc 4 669 27 view .LVU611
 1732              	.LBE60:
 1733              	.LBE67:
 1734              	.LBE71:
 1735              		.loc 4 677 3 view .LVU612
 1736              	.LBB72:
 1737              	.LBB68:
 1738              	.LBB65:
 1739              	.LBB61:
 1740              	.LBI61:
 1741              		.file 5 "../../../external/ChibiOS/os/common/ext/ARM/CMSIS/Core/Include/cmsis_gcc.h"
 1742              		.loc 5 491 27 view .LVU613
 1743              	.LBB62:
 1744              		.loc 5 493 3 view .LVU614
 1745              	.LBE62:
 1746              	.LBE61:
 1747              	.LBE65:
 1748              	.LBE68:
 1749              	.LBE72:
 1750              		.loc 1 588 55 is_stmt 0 view .LVU615
 1751 0580 10B5     		push	{r4, lr}
 1752              		.cfi_def_cfa_offset 8
 1753              		.cfi_offset 4, -8
 1754              		.cfi_offset 14, -4
 1755              	.LBB73:
 1756              	.LBB69:
 1757              	.LBB66:
 1758              	.LBB64:
 1759              	.LBB63:
 1760              		.loc 5 493 3 view .LVU616
 1761 0582 2024     		movs	r4, #32
ARM GAS  /tmp/ccfgf64Q.s 			page 32


 1762              		.syntax unified
 1763              	@ 493 "../../../external/ChibiOS/os/common/ext/ARM/CMSIS/Core/Include/cmsis_gcc.h" 1
 1764 0584 84F31188 		MSR basepri, r4
 1765              	@ 0 "" 2
 1766              	.LVL107:
 1767              		.loc 5 493 3 view .LVU617
 1768              		.thumb
 1769              		.syntax unified
 1770              	.LBE63:
 1771              	.LBE64:
 1772              	.LBE66:
 1773              	.LBE69:
 1774              	.LBE73:
 1775              		.loc 3 356 34 is_stmt 1 view .LVU618
 1776              		.loc 3 357 20 view .LVU619
 1777              		.loc 1 592 3 view .LVU620
 1778              		.loc 1 592 12 is_stmt 0 view .LVU621
 1779 0588 FFF7FEFF 		bl	dmaStreamAllocI
 1780              	.LVL108:
 1781              		.loc 1 593 3 is_stmt 1 view .LVU622
 1782              	.LBB74:
 1783              	.LBI74:
 1784              		.loc 2 520 20 view .LVU623
 1785              	.LBE74:
 1786              		.loc 2 522 3 view .LVU624
 1787              	.LBB83:
 1788              	.LBB75:
 1789              	.LBI75:
 1790              		.loc 3 365 20 view .LVU625
 1791              	.LBB76:
 1792              		.loc 3 367 22 view .LVU626
 1793              		.loc 3 368 33 view .LVU627
 1794              		.loc 3 374 3 view .LVU628
 1795              		.loc 3 374 3 view .LVU629
 1796              		.loc 3 378 3 view .LVU630
 1797              	.LBB77:
 1798              	.LBI77:
 1799              		.loc 4 693 27 view .LVU631
 1800              	.LBE77:
 1801              	.LBE76:
 1802              	.LBE75:
 1803              	.LBE83:
 1804              		.loc 4 696 3 view .LVU632
 1805              	.LBB84:
 1806              	.LBB82:
 1807              	.LBB81:
 1808              	.LBB80:
 1809              	.LBB78:
 1810              	.LBI78:
 1811              		.loc 5 491 27 view .LVU633
 1812              	.LBB79:
 1813              		.loc 5 493 3 view .LVU634
 1814 058c 0023     		movs	r3, #0
 1815              		.syntax unified
 1816              	@ 493 "../../../external/ChibiOS/os/common/ext/ARM/CMSIS/Core/Include/cmsis_gcc.h" 1
 1817 058e 83F31188 		MSR basepri, r3
 1818              	@ 0 "" 2
ARM GAS  /tmp/ccfgf64Q.s 			page 33


 1819              	.LVL109:
 1820              		.loc 5 493 3 is_stmt 0 view .LVU635
 1821              		.thumb
 1822              		.syntax unified
 1823              	.LBE79:
 1824              	.LBE78:
 1825              	.LBE80:
 1826              	.LBE81:
 1827              	.LBE82:
 1828              	.LBE84:
 1829              		.loc 1 595 3 is_stmt 1 view .LVU636
 1830              		.loc 1 596 1 is_stmt 0 view .LVU637
 1831 0592 10BD     		pop	{r4, pc}
 1832              		.cfi_endproc
 1833              	.LFE380:
 1834              		.size	dmaStreamAlloc, .-dmaStreamAlloc
 1835              		.align	1
 1836 0594 AFF30080 		.p2align 4,,15
 1836      AFF30080 
 1836      AFF30080 
 1837              		.global	dmaStreamFreeI
 1838              		.syntax unified
 1839              		.thumb
 1840              		.thumb_func
 1841              		.fpu fpv4-sp-d16
 1842              		.type	dmaStreamFreeI, %function
 1843              	dmaStreamFreeI:
 1844              	.LVL110:
 1845              	.LFB381:
 1846              		.loc 1 608 55 is_stmt 1 view -0
 1847              		.cfi_startproc
 1848              		@ args = 0, pretend = 0, frame = 0
 1849              		@ frame_needed = 0, uses_anonymous_args = 0
 1850              		.loc 1 610 3 view .LVU639
 1851              		.loc 1 610 3 view .LVU640
 1852              		.loc 1 613 3 view .LVU641
 1853              		.loc 1 613 3 view .LVU642
 1854              		.loc 1 617 3 view .LVU643
 1855              		.loc 1 608 55 is_stmt 0 view .LVU644
 1856 05a0 10B5     		push	{r4, lr}
 1857              		.cfi_def_cfa_offset 8
 1858              		.cfi_offset 4, -8
 1859              		.cfi_offset 14, -4
 1860              		.loc 1 608 55 view .LVU645
 1861 05a2 0446     		mov	r4, r0
 1862              		.loc 1 617 3 view .LVU646
 1863 05a4 807B     		ldrb	r0, [r0, #14]	@ zero_extendqisi2
 1864              	.LVL111:
 1865              		.loc 1 617 3 view .LVU647
 1866 05a6 FFF7FEFF 		bl	nvicDisableVector
 1867              	.LVL112:
 1868              		.loc 1 620 3 is_stmt 1 view .LVU648
 1869              		.loc 1 620 30 is_stmt 0 view .LVU649
 1870 05aa 0123     		movs	r3, #1
 1871              		.loc 1 620 22 view .LVU650
 1872 05ac 1649     		ldr	r1, .L178
 1873              		.loc 1 620 39 view .LVU651
ARM GAS  /tmp/ccfgf64Q.s 			page 34


 1874 05ae 627B     		ldrb	r2, [r4, #13]	@ zero_extendqisi2
 1875              		.loc 1 620 30 view .LVU652
 1876 05b0 03FA02F2 		lsl	r2, r3, r2
 1877              		.loc 1 620 22 view .LVU653
 1878 05b4 0B68     		ldr	r3, [r1]
 1879 05b6 23EA0203 		bic	r3, r3, r2
 1880              		.loc 1 623 6 view .LVU654
 1881 05ba 13F0FF0F 		tst	r3, #255
 1882              		.loc 1 620 22 view .LVU655
 1883 05be 0B60     		str	r3, [r1]
 1884              		.loc 1 623 3 is_stmt 1 view .LVU656
 1885              		.loc 1 623 6 is_stmt 0 view .LVU657
 1886 05c0 0ED1     		bne	.L175
 1887              		.loc 1 624 5 is_stmt 1 view .LVU658
 1888 05c2 124A     		ldr	r2, .L178+4
 1889 05c4 D2F8D810 		ldr	r1, [r2, #216]
 1890 05c8 21F00101 		bic	r1, r1, #1
 1891 05cc C2F8D810 		str	r1, [r2, #216]
 1892              		.loc 1 624 5 view .LVU659
 1893 05d0 D2F80011 		ldr	r1, [r2, #256]
 1894 05d4 21F00101 		bic	r1, r1, #1
 1895 05d8 C2F80011 		str	r1, [r2, #256]
 1896              		.loc 1 624 5 view .LVU660
 1897 05dc D2F80021 		ldr	r2, [r2, #256]
 1898              	.L175:
 1899              		.loc 1 624 21 discriminator 1 view .LVU661
 1900              		.loc 1 626 3 discriminator 1 view .LVU662
 1901              		.loc 1 626 6 is_stmt 0 discriminator 1 view .LVU663
 1902 05e0 13F47F4F 		tst	r3, #65280
 1903 05e4 0ED1     		bne	.L174
 1904              	.LBB87:
 1905              	.LBI87:
 1906              		.loc 1 608 6 is_stmt 1 view .LVU664
 1907              	.LVL113:
 1908              	.LBB88:
 1909              		.loc 1 627 5 view .LVU665
 1910 05e6 094B     		ldr	r3, .L178+4
 1911 05e8 D3F8D820 		ldr	r2, [r3, #216]
 1912 05ec 22F00202 		bic	r2, r2, #2
 1913 05f0 C3F8D820 		str	r2, [r3, #216]
 1914              		.loc 1 627 5 view .LVU666
 1915 05f4 D3F80021 		ldr	r2, [r3, #256]
 1916 05f8 22F00202 		bic	r2, r2, #2
 1917 05fc C3F80021 		str	r2, [r3, #256]
 1918              		.loc 1 627 5 view .LVU667
 1919 0600 D3F80031 		ldr	r3, [r3, #256]
 1920              		.loc 1 627 21 view .LVU668
 1921              	.LBE88:
 1922              	.LBE87:
 1923              		.loc 1 627 21 view .LVU669
 1924              	.LVL114:
 1925              	.L174:
 1926              		.loc 1 636 1 is_stmt 0 view .LVU670
 1927 0604 10BD     		pop	{r4, pc}
 1928              	.LVL115:
 1929              	.L179:
 1930              		.loc 1 636 1 view .LVU671
ARM GAS  /tmp/ccfgf64Q.s 			page 35


 1931 0606 00BF     		.align	2
 1932              	.L178:
 1933 0608 00000000 		.word	.LANCHOR1
 1934 060c 00440258 		.word	1476543488
 1935              		.cfi_endproc
 1936              	.LFE381:
 1937              		.size	dmaStreamFreeI, .-dmaStreamFreeI
 1938              		.align	1
 1939              		.p2align 4,,15
 1940              		.global	dmaStreamFree
 1941              		.syntax unified
 1942              		.thumb
 1943              		.thumb_func
 1944              		.fpu fpv4-sp-d16
 1945              		.type	dmaStreamFree, %function
 1946              	dmaStreamFree:
 1947              	.LVL116:
 1948              	.LFB382:
 1949              		.loc 1 648 54 is_stmt 1 view -0
 1950              		.cfi_startproc
 1951              		@ args = 0, pretend = 0, frame = 0
 1952              		@ frame_needed = 0, uses_anonymous_args = 0
 1953              		.loc 1 650 3 view .LVU673
 1954              	.LBB89:
 1955              	.LBI89:
 1956              		.loc 2 509 20 view .LVU674
 1957              	.LBE89:
 1958              		.loc 2 511 3 view .LVU675
 1959              	.LBB101:
 1960              	.LBB90:
 1961              	.LBI90:
 1962              		.loc 3 353 20 view .LVU676
 1963              	.LBE90:
 1964              	.LBE101:
 1965              		.loc 3 355 3 view .LVU677
 1966              	.LBB102:
 1967              	.LBB98:
 1968              	.LBB91:
 1969              	.LBI91:
 1970              		.loc 4 669 27 view .LVU678
 1971              	.LBE91:
 1972              	.LBE98:
 1973              	.LBE102:
 1974              		.loc 4 677 3 view .LVU679
 1975              	.LBB103:
 1976              	.LBB99:
 1977              	.LBB96:
 1978              	.LBB92:
 1979              	.LBI92:
 1980              		.loc 5 491 27 view .LVU680
 1981              	.LBB93:
 1982              		.loc 5 493 3 view .LVU681
 1983              	.LBE93:
 1984              	.LBE92:
 1985              	.LBE96:
 1986              	.LBE99:
 1987              	.LBE103:
ARM GAS  /tmp/ccfgf64Q.s 			page 36


 1988              		.loc 1 648 54 is_stmt 0 view .LVU682
 1989 0610 08B5     		push	{r3, lr}
 1990              		.cfi_def_cfa_offset 8
 1991              		.cfi_offset 3, -8
 1992              		.cfi_offset 14, -4
 1993              	.LBB104:
 1994              	.LBB100:
 1995              	.LBB97:
 1996              	.LBB95:
 1997              	.LBB94:
 1998              		.loc 5 493 3 view .LVU683
 1999 0612 2023     		movs	r3, #32
 2000              		.syntax unified
 2001              	@ 493 "../../../external/ChibiOS/os/common/ext/ARM/CMSIS/Core/Include/cmsis_gcc.h" 1
 2002 0614 83F31188 		MSR basepri, r3
 2003              	@ 0 "" 2
 2004              	.LVL117:
 2005              		.loc 5 493 3 view .LVU684
 2006              		.thumb
 2007              		.syntax unified
 2008              	.LBE94:
 2009              	.LBE95:
 2010              	.LBE97:
 2011              	.LBE100:
 2012              	.LBE104:
 2013              		.loc 3 356 34 is_stmt 1 view .LVU685
 2014              		.loc 3 357 20 view .LVU686
 2015              		.loc 1 651 3 view .LVU687
 2016 0618 FFF7FEFF 		bl	dmaStreamFreeI
 2017              	.LVL118:
 2018              		.loc 1 652 3 view .LVU688
 2019              	.LBB105:
 2020              	.LBI105:
 2021              		.loc 2 520 20 view .LVU689
 2022              	.LBE105:
 2023              		.loc 2 522 3 view .LVU690
 2024              	.LBB114:
 2025              	.LBB106:
 2026              	.LBI106:
 2027              		.loc 3 365 20 view .LVU691
 2028              	.LBB107:
 2029              		.loc 3 367 22 view .LVU692
 2030              		.loc 3 368 33 view .LVU693
 2031              		.loc 3 374 3 view .LVU694
 2032              		.loc 3 374 3 view .LVU695
 2033              		.loc 3 378 3 view .LVU696
 2034              	.LBB108:
 2035              	.LBI108:
 2036              		.loc 4 693 27 view .LVU697
 2037              	.LBE108:
 2038              	.LBE107:
 2039              	.LBE106:
 2040              	.LBE114:
 2041              		.loc 4 696 3 view .LVU698
 2042              	.LBB115:
 2043              	.LBB113:
 2044              	.LBB112:
ARM GAS  /tmp/ccfgf64Q.s 			page 37


 2045              	.LBB111:
 2046              	.LBB109:
 2047              	.LBI109:
 2048              		.loc 5 491 27 view .LVU699
 2049              	.LBB110:
 2050              		.loc 5 493 3 view .LVU700
 2051 061c 0023     		movs	r3, #0
 2052              		.syntax unified
 2053              	@ 493 "../../../external/ChibiOS/os/common/ext/ARM/CMSIS/Core/Include/cmsis_gcc.h" 1
 2054 061e 83F31188 		MSR basepri, r3
 2055              	@ 0 "" 2
 2056              	.LVL119:
 2057              		.loc 5 493 3 is_stmt 0 view .LVU701
 2058              		.thumb
 2059              		.syntax unified
 2060              	.LBE110:
 2061              	.LBE109:
 2062              	.LBE111:
 2063              	.LBE112:
 2064              	.LBE113:
 2065              	.LBE115:
 2066              		.loc 1 653 1 view .LVU702
 2067 0622 08BD     		pop	{r3, pc}
 2068              		.cfi_endproc
 2069              	.LFE382:
 2070              		.size	dmaStreamFree, .-dmaStreamFree
 2071              		.align	1
 2072 0624 AFF30080 		.p2align 4,,15
 2072      AFF30080 
 2072      AFF30080 
 2073              		.global	dmaSetRequestSource
 2074              		.syntax unified
 2075              		.thumb
 2076              		.thumb_func
 2077              		.fpu fpv4-sp-d16
 2078              		.type	dmaSetRequestSource, %function
 2079              	dmaSetRequestSource:
 2080              	.LVL120:
 2081              	.LFB383:
 2082              		.loc 1 665 74 is_stmt 1 view -0
 2083              		.cfi_startproc
 2084              		@ args = 0, pretend = 0, frame = 0
 2085              		@ frame_needed = 0, uses_anonymous_args = 0
 2086              		@ link register save eliminated.
 2087              		.loc 1 667 3 view .LVU704
 2088              		.loc 1 667 3 view .LVU705
 2089              		.loc 1 669 3 view .LVU706
 2090              		.loc 1 669 9 is_stmt 0 view .LVU707
 2091 0630 8368     		ldr	r3, [r0, #8]
 2092              		.loc 1 669 20 view .LVU708
 2093 0632 1960     		str	r1, [r3]
 2094              		.loc 1 670 1 view .LVU709
 2095 0634 7047     		bx	lr
 2096              		.cfi_endproc
 2097              	.LFE383:
 2098              		.size	dmaSetRequestSource, .-dmaSetRequestSource
 2099              		.global	_stm32_dma_streams
ARM GAS  /tmp/ccfgf64Q.s 			page 38


 2100              		.section	.rodata
 2101              		.align	2
 2102              		.set	.LANCHOR0,. + 0
 2103              		.type	__func__.11752, %object
 2104              		.size	__func__.11752, 9
 2105              	__func__.11752:
 2106 0000 56656374 		.ascii	"Vector6C\000"
 2106      6F723643 
 2106      00
 2107 0009 000000   		.space	3
 2108              		.type	__func__.11757, %object
 2109              		.size	__func__.11757, 9
 2110              	__func__.11757:
 2111 000c 56656374 		.ascii	"Vector70\000"
 2111      6F723730 
 2111      00
 2112 0015 000000   		.space	3
 2113              		.type	__func__.11762, %object
 2114              		.size	__func__.11762, 9
 2115              	__func__.11762:
 2116 0018 56656374 		.ascii	"Vector74\000"
 2116      6F723734 
 2116      00
 2117 0021 000000   		.space	3
 2118              		.type	__func__.11767, %object
 2119              		.size	__func__.11767, 9
 2120              	__func__.11767:
 2121 0024 56656374 		.ascii	"Vector78\000"
 2121      6F723738 
 2121      00
 2122 002d 000000   		.space	3
 2123              		.type	__func__.11772, %object
 2124              		.size	__func__.11772, 9
 2125              	__func__.11772:
 2126 0030 56656374 		.ascii	"Vector7C\000"
 2126      6F723743 
 2126      00
 2127 0039 000000   		.space	3
 2128              		.type	__func__.11777, %object
 2129              		.size	__func__.11777, 9
 2130              	__func__.11777:
 2131 003c 56656374 		.ascii	"Vector80\000"
 2131      6F723830 
 2131      00
 2132 0045 000000   		.space	3
 2133              		.type	__func__.11782, %object
 2134              		.size	__func__.11782, 9
 2135              	__func__.11782:
 2136 0048 56656374 		.ascii	"Vector84\000"
 2136      6F723834 
 2136      00
 2137 0051 000000   		.space	3
 2138              		.type	__func__.11787, %object
 2139              		.size	__func__.11787, 9
 2140              	__func__.11787:
 2141 0054 56656374 		.ascii	"VectorFC\000"
 2141      6F724643 
ARM GAS  /tmp/ccfgf64Q.s 			page 39


 2141      00
 2142 005d 000000   		.space	3
 2143              		.type	__func__.11792, %object
 2144              		.size	__func__.11792, 10
 2145              	__func__.11792:
 2146 0060 56656374 		.ascii	"Vector120\000"
 2146      6F723132 
 2146      3000
 2147 006a 0000     		.space	2
 2148              		.type	__func__.11797, %object
 2149              		.size	__func__.11797, 10
 2150              	__func__.11797:
 2151 006c 56656374 		.ascii	"Vector124\000"
 2151      6F723132 
 2151      3400
 2152 0076 0000     		.space	2
 2153              		.type	__func__.11802, %object
 2154              		.size	__func__.11802, 10
 2155              	__func__.11802:
 2156 0078 56656374 		.ascii	"Vector128\000"
 2156      6F723132 
 2156      3800
 2157 0082 0000     		.space	2
 2158              		.type	__func__.11807, %object
 2159              		.size	__func__.11807, 10
 2160              	__func__.11807:
 2161 0084 56656374 		.ascii	"Vector12C\000"
 2161      6F723132 
 2161      4300
 2162 008e 0000     		.space	2
 2163              		.type	__func__.11812, %object
 2164              		.size	__func__.11812, 10
 2165              	__func__.11812:
 2166 0090 56656374 		.ascii	"Vector130\000"
 2166      6F723133 
 2166      3000
 2167 009a 0000     		.space	2
 2168              		.type	__func__.11817, %object
 2169              		.size	__func__.11817, 10
 2170              	__func__.11817:
 2171 009c 56656374 		.ascii	"Vector150\000"
 2171      6F723135 
 2171      3000
 2172 00a6 0000     		.space	2
 2173              		.type	__func__.11822, %object
 2174              		.size	__func__.11822, 10
 2175              	__func__.11822:
 2176 00a8 56656374 		.ascii	"Vector154\000"
 2176      6F723135 
 2176      3400
 2177 00b2 0000     		.space	2
 2178              		.type	__func__.11827, %object
 2179              		.size	__func__.11827, 10
 2180              	__func__.11827:
 2181 00b4 56656374 		.ascii	"Vector158\000"
 2181      6F723135 
 2181      3800
ARM GAS  /tmp/ccfgf64Q.s 			page 40


 2182 00be 0000     		.space	2
 2183              		.type	_stm32_dma_streams, %object
 2184              		.size	_stm32_dma_streams, 256
 2185              	_stm32_dma_streams:
 2186 00c0 10000240 		.word	1073872912
 2187 00c4 08000240 		.word	1073872904
 2188 00c8 00080240 		.word	1073874944
 2189 00cc 00       		.byte	0
 2190 00cd 00       		.byte	0
 2191 00ce 0B       		.byte	11
 2192 00cf 00       		.space	1
 2193 00d0 28000240 		.word	1073872936
 2194 00d4 08000240 		.word	1073872904
 2195 00d8 04080240 		.word	1073874948
 2196 00dc 06       		.byte	6
 2197 00dd 01       		.byte	1
 2198 00de 0C       		.byte	12
 2199 00df 00       		.space	1
 2200 00e0 40000240 		.word	1073872960
 2201 00e4 08000240 		.word	1073872904
 2202 00e8 08080240 		.word	1073874952
 2203 00ec 10       		.byte	16
 2204 00ed 02       		.byte	2
 2205 00ee 0D       		.byte	13
 2206 00ef 00       		.space	1
 2207 00f0 58000240 		.word	1073872984
 2208 00f4 08000240 		.word	1073872904
 2209 00f8 0C080240 		.word	1073874956
 2210 00fc 16       		.byte	22
 2211 00fd 03       		.byte	3
 2212 00fe 0E       		.byte	14
 2213 00ff 00       		.space	1
 2214 0100 70000240 		.word	1073873008
 2215 0104 0C000240 		.word	1073872908
 2216 0108 10080240 		.word	1073874960
 2217 010c 00       		.byte	0
 2218 010d 04       		.byte	4
 2219 010e 0F       		.byte	15
 2220 010f 00       		.space	1
 2221 0110 88000240 		.word	1073873032
 2222 0114 0C000240 		.word	1073872908
 2223 0118 14080240 		.word	1073874964
 2224 011c 06       		.byte	6
 2225 011d 05       		.byte	5
 2226 011e 10       		.byte	16
 2227 011f 00       		.space	1
 2228 0120 A0000240 		.word	1073873056
 2229 0124 0C000240 		.word	1073872908
 2230 0128 18080240 		.word	1073874968
 2231 012c 10       		.byte	16
 2232 012d 06       		.byte	6
 2233 012e 11       		.byte	17
 2234 012f 00       		.space	1
 2235 0130 B8000240 		.word	1073873080
 2236 0134 0C000240 		.word	1073872908
 2237 0138 1C080240 		.word	1073874972
 2238 013c 16       		.byte	22
ARM GAS  /tmp/ccfgf64Q.s 			page 41


 2239 013d 07       		.byte	7
 2240 013e 2F       		.byte	47
 2241 013f 00       		.space	1
 2242 0140 10040240 		.word	1073873936
 2243 0144 08040240 		.word	1073873928
 2244 0148 20080240 		.word	1073874976
 2245 014c 00       		.byte	0
 2246 014d 08       		.byte	8
 2247 014e 38       		.byte	56
 2248 014f 00       		.space	1
 2249 0150 28040240 		.word	1073873960
 2250 0154 08040240 		.word	1073873928
 2251 0158 24080240 		.word	1073874980
 2252 015c 06       		.byte	6
 2253 015d 09       		.byte	9
 2254 015e 39       		.byte	57
 2255 015f 00       		.space	1
 2256 0160 40040240 		.word	1073873984
 2257 0164 08040240 		.word	1073873928
 2258 0168 28080240 		.word	1073874984
 2259 016c 10       		.byte	16
 2260 016d 0A       		.byte	10
 2261 016e 3A       		.byte	58
 2262 016f 00       		.space	1
 2263 0170 58040240 		.word	1073874008
 2264 0174 08040240 		.word	1073873928
 2265 0178 2C080240 		.word	1073874988
 2266 017c 16       		.byte	22
 2267 017d 0B       		.byte	11
 2268 017e 3B       		.byte	59
 2269 017f 00       		.space	1
 2270 0180 70040240 		.word	1073874032
 2271 0184 0C040240 		.word	1073873932
 2272 0188 30080240 		.word	1073874992
 2273 018c 00       		.byte	0
 2274 018d 0C       		.byte	12
 2275 018e 3C       		.byte	60
 2276 018f 00       		.space	1
 2277 0190 88040240 		.word	1073874056
 2278 0194 0C040240 		.word	1073873932
 2279 0198 34080240 		.word	1073874996
 2280 019c 06       		.byte	6
 2281 019d 0D       		.byte	13
 2282 019e 44       		.byte	68
 2283 019f 00       		.space	1
 2284 01a0 A0040240 		.word	1073874080
 2285 01a4 0C040240 		.word	1073873932
 2286 01a8 38080240 		.word	1073875000
 2287 01ac 10       		.byte	16
 2288 01ad 0E       		.byte	14
 2289 01ae 45       		.byte	69
 2290 01af 00       		.space	1
 2291 01b0 B8040240 		.word	1073874104
 2292 01b4 0C040240 		.word	1073873932
 2293 01b8 3C080240 		.word	1073875004
 2294 01bc 16       		.byte	22
 2295 01bd 0F       		.byte	15
ARM GAS  /tmp/ccfgf64Q.s 			page 42


 2296 01be 46       		.byte	70
 2297 01bf 00       		.space	1
 2298              		.bss
 2299              		.align	2
 2300              		.set	.LANCHOR1,. + 0
 2301              		.type	dma, %object
 2302              		.size	dma, 132
 2303              	dma:
 2304 0000 00000000 		.space	132
 2304      00000000 
 2304      00000000 
 2304      00000000 
 2304      00000000 
 2305              		.text
 2306              	.Letext0:
 2307              		.file 6 "/home/nicolas/arm/gcc-arm-none-eabi-8-2019-q3-update/lib/gcc/arm-none-eabi/8.3.1/include/
 2308              		.file 7 "/home/nicolas/arm/gcc-arm-none-eabi-8-2019-q3-update/arm-none-eabi/include/machine/_defau
 2309              		.file 8 "/home/nicolas/arm/gcc-arm-none-eabi-8-2019-q3-update/arm-none-eabi/include/sys/_stdint.h"
 2310              		.file 9 "/home/nicolas/arm/gcc-arm-none-eabi-8-2019-q3-update/arm-none-eabi/include/stdint.h"
 2311              		.file 10 "../../../external/ChibiOS/os/common/ports/ARMCMx/compilers/GCC/chtypes.h"
 2312              		.file 11 "../../../external/ChibiOS/os/rt/include/chsystypes.h"
 2313              		.file 12 "../../../external/ChibiOS/os/rt/include/chschd.h"
 2314              		.file 13 "../../../external/ChibiOS/os/rt/include/chtime.h"
 2315              		.file 14 "../../../external/ChibiOS/os/common/ext/ARM/CMSIS/Core/Include/core_cm7.h"
 2316              		.file 15 "../../../external/ChibiOS/os/common/ext/ST/STM32H7xx/system_stm32h7xx.h"
 2317              		.file 16 "../../../external/ChibiOS/os/common/ext/ST/STM32H7xx/stm32h753xx.h"
 2318              		.file 17 "../../../external/ChibiOS/os/common/ports/ARMCMx/chcore.h"
 2319              		.file 18 "../../../external/ChibiOS/os/rt/include/chtrace.h"
 2320              		.file 19 "../../../external/ChibiOS/os/rt/include/chtm.h"
 2321              		.file 20 "../../../external/ChibiOS/os/rt/include/chsem.h"
 2322              		.file 21 "../../../external/ChibiOS/os/rt/include/chmtx.h"
 2323              		.file 22 "../../../external/ChibiOS/os/rt/include/chregistry.h"
 2324              		.file 23 "../../../external/ChibiOS/os/rt/include/chevents.h"
 2325              		.file 24 "../../../external/ChibiOS/os/oslib/include/chmemcore.h"
 2326              		.file 25 "../../../external/ChibiOS/os/oslib/include/chmempools.h"
 2327              		.file 26 "../../../external/ChibiOS/os/oslib/include/chfactory.h"
 2328              		.file 27 "../../../external/ChibiOS/os/hal/ports/STM32/LLD/DMAv2/stm32_dma.h"
 2329              		.file 28 "../../../external/ChibiOS/os/hal/ports/STM32/LLD/BDMAv1/stm32_bdma.h"
 2330              		.file 29 "../../../external/ChibiOS/os/hal/ports/STM32/LLD/TIMv1/stm32_tim.h"
 2331              		.file 30 "../../../external/ChibiOS/os/hal/include/hal_ioblock.h"
 2332              		.file 31 "../../../external/ChibiOS/os/hal/include/hal_queues.h"
 2333              		.file 32 "../../../external/ChibiOS/os/hal/ports/STM32/LLD/GPIOv2/stm32_gpio.h"
 2334              		.file 33 "../../../external/ChibiOS/os/hal/ports/STM32/LLD/GPIOv2/hal_pal_lld.h"
 2335              		.file 34 "../../../external/ChibiOS/os/hal/include/hal_adc.h"
 2336              		.file 35 "../../../external/ChibiOS/os/hal/ports/STM32/LLD/ADCv4/hal_adc_lld.h"
 2337              		.file 36 "../../../external/ChibiOS/os/hal/include/hal_i2c.h"
 2338              		.file 37 "../../../external/ChibiOS/os/hal/ports/STM32/LLD/I2Cv3/hal_i2c_lld.h"
 2339              		.file 38 "../../../external/ChibiOS/os/hal/include/hal_pwm.h"
 2340              		.file 39 "../../../external/ChibiOS/os/hal/ports/STM32/LLD/TIMv1/hal_pwm_lld.h"
 2341              		.file 40 "../../../external/ChibiOS/os/hal/include/hal_serial.h"
 2342              		.file 41 "../../../external/ChibiOS/os/hal/ports/STM32/LLD/USARTv2/hal_serial_lld.h"
 2343              		.file 42 "../../../external/ChibiOS/os/hal/include/hal_sdc.h"
 2344              		.file 43 "../../../external/ChibiOS/os/hal/ports/STM32/LLD/SDMMCv2/hal_sdc_lld.h"
 2345              		.file 44 "../../../external/ChibiOS/os/hal/include/hal_spi.h"
 2346              		.file 45 "../../../external/ChibiOS/os/hal/ports/STM32/LLD/SPIv3/hal_spi_lld.h"
 2347              		.file 46 "../../../external/ChibiOS/os/hal/include/hal_trng.h"
 2348              		.file 47 "../../../external/ChibiOS/os/hal/ports/STM32/LLD/RNGv1/hal_trng_lld.h"
ARM GAS  /tmp/ccfgf64Q.s 			page 43


 2349              		.file 48 "../../../external/ChibiOS/os/hal/include/hal_usb.h"
 2350              		.file 49 "../../../external/ChibiOS/os/hal/ports/STM32/LLD/OTGv1/hal_usb_lld.h"
 2351              		.file 50 "../../../external/ChibiOS/os/hal/ports/STM32/LLD/OTGv1/stm32_otg.h"
 2352              		.file 51 "../../../external/ChibiOS-Contrib/os/hal/include/hal_fsmc.h"
 2353              		.file 52 "../../../external/ChibiOS-Contrib/os/hal/include/hal_sdram.h"
 2354              		.file 53 "../../../external/ChibiOS/os/hal/ports/common/ARMCMx/nvic.h"