ARM GAS  /tmp/ccPLs8VZ.s 			page 1


   1              		.cpu cortex-m7
   2              		.eabi_attribute 27, 1
   3              		.eabi_attribute 28, 1
   4              		.eabi_attribute 20, 1
   5              		.eabi_attribute 21, 1
   6              		.eabi_attribute 23, 3
   7              		.eabi_attribute 24, 1
   8              		.eabi_attribute 25, 1
   9              		.eabi_attribute 26, 1
  10              		.eabi_attribute 30, 2
  11              		.eabi_attribute 34, 1
  12              		.eabi_attribute 18, 4
  13              		.file	"stm32h7xx_hal_flash_ex.c"
  14              		.text
  15              	.Ltext0:
  16              		.cfi_sections	.debug_frame
  17              		.align	1
  18              		.p2align 4,,15
  19              		.arch armv7e-m
  20              		.syntax unified
  21              		.thumb
  22              		.thumb_func
  23              		.fpu fpv4-sp-d16
  24              		.type	FLASH_MassErase, %function
  25              	FLASH_MassErase:
  26              	.LVL0:
  27              	.LFB150:
  28              		.file 1 "../../../external/STM32H7xx_HAL_Driver/Src/stm32h7xx_hal_flash_ex.c"
  29              		.loc 1 781 1 view -0
  30              		.cfi_startproc
  31              		@ args = 0, pretend = 0, frame = 0
  32              		@ frame_needed = 0, uses_anonymous_args = 0
  33              		@ link register save eliminated.
  34              		.loc 1 784 3 view .LVU1
  35              		.loc 1 788 3 view .LVU2
  36              		.loc 1 791 3 view .LVU3
  37              		.loc 1 791 13 is_stmt 0 view .LVU4
  38 0000 01F00303 		and	r3, r1, #3
  39              		.loc 1 791 5 view .LVU5
  40 0004 032B     		cmp	r3, #3
  41 0006 22D0     		beq	.L12
  42              		.loc 1 809 5 is_stmt 1 view .LVU6
  43              		.loc 1 809 7 is_stmt 0 view .LVU7
  44 0008 CA07     		lsls	r2, r1, #31
  45 000a 0BD5     		bpl	.L4
  46              		.loc 1 813 7 is_stmt 1 view .LVU8
  47              		.loc 1 813 18 is_stmt 0 view .LVU9
  48 000c 1C4B     		ldr	r3, .L13
  49 000e DA68     		ldr	r2, [r3, #12]
  50 0010 22F03002 		bic	r2, r2, #48
  51 0014 DA60     		str	r2, [r3, #12]
  52              		.loc 1 814 7 is_stmt 1 view .LVU10
  53              		.loc 1 814 18 is_stmt 0 view .LVU11
  54 0016 DA68     		ldr	r2, [r3, #12]
  55 0018 0243     		orrs	r2, r2, r0
  56 001a DA60     		str	r2, [r3, #12]
  57              		.loc 1 818 7 is_stmt 1 view .LVU12
ARM GAS  /tmp/ccPLs8VZ.s 			page 2


  58              		.loc 1 818 18 is_stmt 0 view .LVU13
  59 001c DA68     		ldr	r2, [r3, #12]
  60 001e 42F08802 		orr	r2, r2, #136
  61 0022 DA60     		str	r2, [r3, #12]
  62              	.L4:
  63              		.loc 1 820 5 is_stmt 1 view .LVU14
  64              		.loc 1 820 7 is_stmt 0 view .LVU15
  65 0024 8B07     		lsls	r3, r1, #30
  66 0026 11D5     		bpl	.L1
  67              	.LVL1:
  68              	.LBB36:
  69              	.LBI36:
  70              		.loc 1 780 13 is_stmt 1 view .LVU16
  71              	.LBB37:
  72              		.loc 1 824 7 view .LVU17
  73              		.loc 1 824 18 is_stmt 0 view .LVU18
  74 0028 154B     		ldr	r3, .L13
  75 002a D3F80C21 		ldr	r2, [r3, #268]
  76 002e 22F03002 		bic	r2, r2, #48
  77 0032 C3F80C21 		str	r2, [r3, #268]
  78              		.loc 1 825 7 is_stmt 1 view .LVU19
  79              		.loc 1 825 18 is_stmt 0 view .LVU20
  80 0036 D3F80C21 		ldr	r2, [r3, #268]
  81 003a 1043     		orrs	r0, r0, r2
  82              	.LVL2:
  83              		.loc 1 825 18 view .LVU21
  84 003c C3F80C01 		str	r0, [r3, #268]
  85              		.loc 1 829 7 is_stmt 1 view .LVU22
  86              		.loc 1 829 18 is_stmt 0 view .LVU23
  87 0040 D3F80C21 		ldr	r2, [r3, #268]
  88 0044 42F08802 		orr	r2, r2, #136
  89 0048 C3F80C21 		str	r2, [r3, #268]
  90              	.LVL3:
  91              	.L1:
  92              		.loc 1 829 18 view .LVU24
  93              	.LBE37:
  94              	.LBE36:
  95              		.loc 1 832 1 view .LVU25
  96 004c 7047     		bx	lr
  97              	.LVL4:
  98              	.L12:
  99              		.loc 1 795 5 is_stmt 1 view .LVU26
 100              		.loc 1 795 16 is_stmt 0 view .LVU27
 101 004e 0C4B     		ldr	r3, .L13
 102 0050 DA68     		ldr	r2, [r3, #12]
 103 0052 22F03002 		bic	r2, r2, #48
 104 0056 DA60     		str	r2, [r3, #12]
 105              		.loc 1 796 5 is_stmt 1 view .LVU28
 106              		.loc 1 796 16 is_stmt 0 view .LVU29
 107 0058 D3F80C21 		ldr	r2, [r3, #268]
 108 005c 22F03002 		bic	r2, r2, #48
 109 0060 C3F80C21 		str	r2, [r3, #268]
 110              		.loc 1 799 5 is_stmt 1 view .LVU30
 111              		.loc 1 799 16 is_stmt 0 view .LVU31
 112 0064 DA68     		ldr	r2, [r3, #12]
 113 0066 0243     		orrs	r2, r2, r0
 114 0068 DA60     		str	r2, [r3, #12]
ARM GAS  /tmp/ccPLs8VZ.s 			page 3


 115              		.loc 1 800 5 is_stmt 1 view .LVU32
 116              		.loc 1 800 16 is_stmt 0 view .LVU33
 117 006a D3F80C21 		ldr	r2, [r3, #268]
 118 006e 1043     		orrs	r0, r0, r2
 119              	.LVL5:
 120              		.loc 1 800 16 view .LVU34
 121 0070 C3F80C01 		str	r0, [r3, #268]
 122              		.loc 1 804 5 is_stmt 1 view .LVU35
 123              		.loc 1 804 18 is_stmt 0 view .LVU36
 124 0074 9A69     		ldr	r2, [r3, #24]
 125 0076 42F01002 		orr	r2, r2, #16
 126 007a 9A61     		str	r2, [r3, #24]
 127 007c 7047     		bx	lr
 128              	.L14:
 129 007e 00BF     		.align	2
 130              	.L13:
 131 0080 00200052 		.word	1375739904
 132              		.cfi_endproc
 133              	.LFE150:
 134              		.size	FLASH_MassErase, .-FLASH_MassErase
 135              		.align	1
 136 0084 AFF30080 		.p2align 4,,15
 136      AFF30080 
 136      AFF30080 
 137              		.global	HAL_FLASHEx_OBProgram
 138              		.syntax unified
 139              		.thumb
 140              		.thumb_func
 141              		.fpu fpv4-sp-d16
 142              		.type	HAL_FLASHEx_OBProgram, %function
 143              	HAL_FLASHEx_OBProgram:
 144              	.LVL6:
 145              	.LFB143:
 146              		.loc 1 387 1 is_stmt 1 view -0
 147              		.cfi_startproc
 148              		@ args = 0, pretend = 0, frame = 0
 149              		@ frame_needed = 0, uses_anonymous_args = 0
 150              		.loc 1 388 3 view .LVU38
 151              		.loc 1 391 3 view .LVU39
 152              		.loc 1 394 3 view .LVU40
 153              		.loc 1 394 3 view .LVU41
 154              		.loc 1 387 1 is_stmt 0 view .LVU42
 155 0090 2DE9F041 		push	{r4, r5, r6, r7, r8, lr}
 156              		.cfi_def_cfa_offset 24
 157              		.cfi_offset 4, -24
 158              		.cfi_offset 5, -20
 159              		.cfi_offset 6, -16
 160              		.cfi_offset 7, -12
 161              		.cfi_offset 8, -8
 162              		.cfi_offset 14, -4
 163              		.loc 1 394 3 view .LVU43
 164 0094 914C     		ldr	r4, .L118
 165 0096 237D     		ldrb	r3, [r4, #20]	@ zero_extendqisi2
 166 0098 012B     		cmp	r3, #1
 167 009a 00F08A80 		beq	.L49
 168              		.loc 1 394 3 is_stmt 1 discriminator 2 view .LVU44
 169 009e 0123     		movs	r3, #1
ARM GAS  /tmp/ccPLs8VZ.s 			page 4


 170              		.loc 1 397 20 is_stmt 0 discriminator 2 view .LVU45
 171 00a0 0022     		movs	r2, #0
 172 00a2 0546     		mov	r5, r0
 173              		.loc 1 400 6 discriminator 2 view .LVU46
 174 00a4 4CF25030 		movw	r0, #50000
 175              	.LVL7:
 176              		.loc 1 400 6 discriminator 2 view .LVU47
 177 00a8 1946     		mov	r1, r3
 178              		.loc 1 394 3 discriminator 2 view .LVU48
 179 00aa 2375     		strb	r3, [r4, #20]
 180              		.loc 1 397 3 is_stmt 1 discriminator 2 view .LVU49
 181              		.loc 1 397 20 is_stmt 0 discriminator 2 view .LVU50
 182 00ac A261     		str	r2, [r4, #24]
 183              		.loc 1 400 3 is_stmt 1 discriminator 2 view .LVU51
 184              		.loc 1 400 6 is_stmt 0 discriminator 2 view .LVU52
 185 00ae FFF7FEFF 		bl	FLASH_WaitForLastOperation
 186              	.LVL8:
 187              		.loc 1 400 5 discriminator 2 view .LVU53
 188 00b2 20B1     		cbz	r0, .L17
 189              	.L19:
 190              		.loc 1 402 12 view .LVU54
 191 00b4 0120     		movs	r0, #1
 192              	.LVL9:
 193              	.L18:
 194              		.loc 1 497 3 is_stmt 1 view .LVU55
 195              		.loc 1 497 3 view .LVU56
 196 00b6 0023     		movs	r3, #0
 197 00b8 2375     		strb	r3, [r4, #20]
 198              		.loc 1 499 3 view .LVU57
 199              		.loc 1 500 1 is_stmt 0 view .LVU58
 200 00ba BDE8F081 		pop	{r4, r5, r6, r7, r8, pc}
 201              	.LVL10:
 202              	.L17:
 203              		.loc 1 404 8 is_stmt 1 view .LVU59
 204              		.loc 1 404 11 is_stmt 0 view .LVU60
 205 00be 0221     		movs	r1, #2
 206 00c0 4CF25030 		movw	r0, #50000
 207 00c4 FFF7FEFF 		bl	FLASH_WaitForLastOperation
 208              	.LVL11:
 209              		.loc 1 404 10 view .LVU61
 210 00c8 0028     		cmp	r0, #0
 211 00ca F3D1     		bne	.L19
 212              		.loc 1 410 5 is_stmt 1 view .LVU62
 213              	.LVL12:
 214              		.loc 1 413 3 view .LVU63
 215              		.loc 1 416 5 view .LVU64
 216              		.loc 1 416 16 is_stmt 0 view .LVU65
 217 00cc 2B68     		ldr	r3, [r5]
 218              		.loc 1 416 7 view .LVU66
 219 00ce DA07     		lsls	r2, r3, #31
 220 00d0 17D5     		bpl	.L21
 221              		.loc 1 418 7 is_stmt 1 view .LVU67
 222              		.loc 1 420 7 view .LVU68
 223              		.loc 1 420 9 is_stmt 0 view .LVU69
 224 00d2 6E68     		ldr	r6, [r5, #4]
 225 00d4 E969     		ldr	r1, [r5, #28]
 226 00d6 012E     		cmp	r6, #1
ARM GAS  /tmp/ccPLs8VZ.s 			page 5


 227 00d8 AA68     		ldr	r2, [r5, #8]
 228 00da 01F00107 		and	r7, r1, #1
 229 00de 6BD0     		beq	.L115
 230              		.loc 1 428 9 is_stmt 1 view .LVU70
 231              	.LVL13:
 232              	.LBB54:
 233              	.LBI54:
 234              		.loc 1 940 13 view .LVU71
 235              	.LBB55:
 236              		.loc 1 943 3 view .LVU72
 237              		.loc 1 944 3 view .LVU73
 238              		.loc 1 946 3 view .LVU74
 239              		.loc 1 946 5 is_stmt 0 view .LVU75
 240 00e0 37B1     		cbz	r7, .L25
 241              		.loc 1 949 5 is_stmt 1 view .LVU76
 242              		.loc 1 949 22 is_stmt 0 view .LVU77
 243 00e2 7F4F     		ldr	r7, .L118+4
 244              		.loc 1 949 36 view .LVU78
 245 00e4 D6B2     		uxtb	r6, r2
 246              		.loc 1 949 22 view .LVU79
 247 00e6 D7F83CC0 		ldr	ip, [r7, #60]
 248 00ea 46EA0C06 		orr	r6, r6, ip
 249 00ee FE63     		str	r6, [r7, #60]
 250              	.L25:
 251              		.loc 1 952 3 is_stmt 1 view .LVU80
 252              		.loc 1 952 5 is_stmt 0 view .LVU81
 253 00f0 8E07     		lsls	r6, r1, #30
 254 00f2 06D5     		bpl	.L21
 255              		.loc 1 955 5 is_stmt 1 view .LVU82
 256              		.loc 1 955 22 is_stmt 0 view .LVU83
 257 00f4 7A49     		ldr	r1, .L118+4
 258              	.LVL14:
 259              		.loc 1 955 36 view .LVU84
 260 00f6 D2B2     		uxtb	r2, r2
 261              	.LVL15:
 262              		.loc 1 955 22 view .LVU85
 263 00f8 D1F83C61 		ldr	r6, [r1, #316]
 264 00fc 3243     		orrs	r2, r2, r6
 265 00fe C1F83C21 		str	r2, [r1, #316]
 266              	.L21:
 267              		.loc 1 955 22 view .LVU86
 268              	.LBE55:
 269              	.LBE54:
 270              		.loc 1 433 5 is_stmt 1 view .LVU87
 271              		.loc 1 433 7 is_stmt 0 view .LVU88
 272 0102 9907     		lsls	r1, r3, #30
 273 0104 06D5     		bpl	.L26
 274              		.loc 1 436 7 is_stmt 1 view .LVU89
 275              	.LVL16:
 276              	.LBB56:
 277              	.LBI56:
 278              		.loc 1 1021 13 view .LVU90
 279              	.LBB57:
 280              		.loc 1 1024 3 view .LVU91
 281              		.loc 1 1027 3 view .LVU92
 282 0106 7649     		ldr	r1, .L118+4
 283 0108 EE68     		ldr	r6, [r5, #12]
ARM GAS  /tmp/ccPLs8VZ.s 			page 6


 284 010a 0A6A     		ldr	r2, [r1, #32]
 285 010c 22F47F42 		bic	r2, r2, #65280
 286 0110 3243     		orrs	r2, r2, r6
 287 0112 0A62     		str	r2, [r1, #32]
 288              	.LVL17:
 289              	.L26:
 290              		.loc 1 1027 3 is_stmt 0 view .LVU93
 291              	.LBE57:
 292              	.LBE56:
 293              		.loc 1 440 5 is_stmt 1 view .LVU94
 294              		.loc 1 440 7 is_stmt 0 view .LVU95
 295 0114 5A07     		lsls	r2, r3, #29
 296 0116 00F18A80 		bmi	.L116
 297              	.L27:
 298              		.loc 1 447 5 is_stmt 1 view .LVU96
 299              		.loc 1 447 7 is_stmt 0 view .LVU97
 300 011a 1A07     		lsls	r2, r3, #28
 301 011c 61D4     		bmi	.L117
 302              	.L38:
 303              		.loc 1 456 5 is_stmt 1 view .LVU98
 304              		.loc 1 456 7 is_stmt 0 view .LVU99
 305 011e DE06     		lsls	r6, r3, #27
 306 0120 06D5     		bpl	.L41
 307              		.loc 1 458 7 is_stmt 1 view .LVU100
 308              	.LVL18:
 309              	.LBB58:
 310              	.LBI58:
 311              		.loc 1 1392 13 view .LVU101
 312              	.LBB59:
 313              		.loc 1 1394 3 view .LVU102
 314              		.loc 1 1397 3 view .LVU103
 315 0122 6F49     		ldr	r1, .L118+4
 316 0124 2E69     		ldr	r6, [r5, #16]
 317 0126 0A6A     		ldr	r2, [r1, #32]
 318 0128 22F00C02 		bic	r2, r2, #12
 319 012c 3243     		orrs	r2, r2, r6
 320 012e 0A62     		str	r2, [r1, #32]
 321              	.LVL19:
 322              	.L41:
 323              		.loc 1 1397 3 is_stmt 0 view .LVU104
 324              	.LBE59:
 325              	.LBE58:
 326              		.loc 1 475 5 is_stmt 1 view .LVU105
 327              		.loc 1 475 7 is_stmt 0 view .LVU106
 328 0130 5906     		lsls	r1, r3, #25
 329 0132 15D5     		bpl	.L43
 330              		.loc 1 477 7 is_stmt 1 view .LVU107
 331 0134 E96A     		ldr	r1, [r5, #44]
 332 0136 D5F834C0 		ldr	ip, [r5, #52]
 333              	.LVL20:
 334              	.LBB60:
 335              	.LBI60:
 336              		.loc 1 1424 13 view .LVU108
 337              	.LBB61:
 338              		.loc 1 1427 3 view .LVU109
 339              		.loc 1 1429 3 view .LVU110
 340              		.loc 1 1429 5 is_stmt 0 view .LVU111
ARM GAS  /tmp/ccPLs8VZ.s 			page 7


 341 013a CA07     		lsls	r2, r1, #31
 342 013c 08D5     		bpl	.L44
 343              		.loc 1 1432 5 is_stmt 1 view .LVU112
 344              		.loc 1 1438 5 view .LVU113
 345 013e 684A     		ldr	r2, .L118+4
 346 0140 684F     		ldr	r7, .L118+8
 347 0142 D2F844E0 		ldr	lr, [r2, #68]
 348 0146 6E8E     		ldrh	r6, [r5, #50]
 349 0148 0EEA0707 		and	r7, lr, r7
 350 014c 3E43     		orrs	r6, r6, r7
 351 014e 5664     		str	r6, [r2, #68]
 352              	.LVL21:
 353              	.L44:
 354              		.loc 1 1442 3 view .LVU114
 355              		.loc 1 1442 5 is_stmt 0 view .LVU115
 356 0150 8F07     		lsls	r7, r1, #30
 357 0152 05D5     		bpl	.L43
 358              		.loc 1 1445 5 is_stmt 1 view .LVU116
 359              		.loc 1 1451 5 view .LVU117
 360 0154 6249     		ldr	r1, .L118+4
 361              	.LVL22:
 362              		.loc 1 1451 5 is_stmt 0 view .LVU118
 363 0156 4A6C     		ldr	r2, [r1, #68]
 364 0158 92B2     		uxth	r2, r2
 365 015a 42EA0C02 		orr	r2, r2, ip
 366 015e 4A64     		str	r2, [r1, #68]
 367              	.LVL23:
 368              	.L43:
 369              		.loc 1 1451 5 view .LVU119
 370              	.LBE61:
 371              	.LBE60:
 372              		.loc 1 482 5 is_stmt 1 view .LVU120
 373              		.loc 1 482 7 is_stmt 0 view .LVU121
 374 0160 9E06     		lsls	r6, r3, #26
 375 0162 A8D5     		bpl	.L18
 376              		.loc 1 484 7 is_stmt 1 view .LVU122
 377 0164 EF69     		ldr	r7, [r5, #28]
 378 0166 2A6C     		ldr	r2, [r5, #64]
 379 0168 D5E90E36 		ldrd	r3, r6, [r5, #56]
 380              	.LVL24:
 381              	.LBB62:
 382              	.LBI62:
 383              		.loc 1 1546 13 view .LVU123
 384              	.LBB63:
 385              		.loc 1 1549 3 view .LVU124
 386              		.loc 1 1550 3 view .LVU125
 387              		.loc 1 1552 3 view .LVU126
 388              		.loc 1 1552 5 is_stmt 0 view .LVU127
 389 016c FD07     		lsls	r5, r7, #31
 390              	.LVL25:
 391              		.loc 1 1552 5 view .LVU128
 392 016e 0FD5     		bpl	.L47
 393              		.loc 1 1555 5 is_stmt 1 view .LVU129
 394              		.loc 1 1556 5 view .LVU130
 395              		.loc 1 1559 5 view .LVU131
 396              		.loc 1 1559 46 is_stmt 0 view .LVU132
 397 0170 06F1784E 		add	lr, r6, #-134217728
ARM GAS  /tmp/ccPLs8VZ.s 			page 8


 398              		.loc 1 1561 42 view .LVU133
 399 0174 03F00041 		and	r1, r3, #-2147483648
 400              		.loc 1 1560 65 view .LVU134
 401 0178 4FEA022C 		lsl	ip, r2, #8
 402              		.loc 1 1560 71 view .LVU135
 403 017c 594D     		ldr	r5, .L118+8
 404              		.loc 1 1560 103 view .LVU136
 405 017e 41EA1E21 		orr	r1, r1, lr, lsr #8
 406              		.loc 1 1559 22 view .LVU137
 407 0182 DFF85CE1 		ldr	lr, .L118+4
 408              		.loc 1 1560 71 view .LVU138
 409 0186 0CEA0505 		and	r5, ip, r5
 410              		.loc 1 1560 103 view .LVU139
 411 018a 2943     		orrs	r1, r1, r5
 412              		.loc 1 1559 22 view .LVU140
 413 018c CEF83410 		str	r1, [lr, #52]
 414              	.L47:
 415              		.loc 1 1564 3 is_stmt 1 view .LVU141
 416              		.loc 1 1564 5 is_stmt 0 view .LVU142
 417 0190 B907     		lsls	r1, r7, #30
 418 0192 90D5     		bpl	.L18
 419              		.loc 1 1567 5 is_stmt 1 view .LVU143
 420              		.loc 1 1568 5 view .LVU144
 421              		.loc 1 1571 5 view .LVU145
 422              		.loc 1 1571 46 is_stmt 0 view .LVU146
 423 0194 A6F10166 		sub	r6, r6, #135266304
 424              	.LVL26:
 425              		.loc 1 1573 42 view .LVU147
 426 0198 03F00043 		and	r3, r3, #-2147483648
 427              		.loc 1 1572 45 view .LVU148
 428 019c A2F10162 		sub	r2, r2, #135266304
 429              	.LVL27:
 430              		.loc 1 1571 22 view .LVU149
 431 01a0 4F49     		ldr	r1, .L118+4
 432              		.loc 1 1572 103 view .LVU150
 433 01a2 43EA1623 		orr	r3, r3, r6, lsr #8
 434              		.loc 1 1572 65 view .LVU151
 435 01a6 120A     		lsrs	r2, r2, #8
 436              	.LVL28:
 437              		.loc 1 1572 103 view .LVU152
 438 01a8 43EA0243 		orr	r3, r3, r2, lsl #16
 439              		.loc 1 1571 22 view .LVU153
 440 01ac C1F83431 		str	r3, [r1, #308]
 441 01b0 81E7     		b	.L18
 442              	.LVL29:
 443              	.L49:
 444              		.loc 1 1571 22 view .LVU154
 445              	.LBE63:
 446              	.LBE62:
 447              		.loc 1 394 3 view .LVU155
 448 01b2 0220     		movs	r0, #2
 449              	.LVL30:
 450              		.loc 1 500 1 view .LVU156
 451 01b4 BDE8F081 		pop	{r4, r5, r6, r7, r8, pc}
 452              	.LVL31:
 453              	.L115:
 454              		.loc 1 423 9 is_stmt 1 view .LVU157
ARM GAS  /tmp/ccPLs8VZ.s 			page 9


 455              	.LBB64:
 456              	.LBI64:
 457              		.loc 1 907 13 view .LVU158
 458              	.LBB65:
 459              		.loc 1 910 3 view .LVU159
 460              		.loc 1 911 3 view .LVU160
 461              		.loc 1 913 3 view .LVU161
 462              		.loc 1 913 5 is_stmt 0 view .LVU162
 463 01b8 47B1     		cbz	r7, .L23
 464              		.loc 1 916 5 is_stmt 1 view .LVU163
 465              		.loc 1 916 22 is_stmt 0 view .LVU164
 466 01ba DFF824C1 		ldr	ip, .L118+4
 467              		.loc 1 916 38 view .LVU165
 468 01be D6B2     		uxtb	r6, r2
 469              		.loc 1 916 22 view .LVU166
 470 01c0 DCF83C70 		ldr	r7, [ip, #60]
 471 01c4 27EA0606 		bic	r6, r7, r6
 472 01c8 CCF83C60 		str	r6, [ip, #60]
 473              	.LVL32:
 474              	.L23:
 475              		.loc 1 919 3 is_stmt 1 view .LVU167
 476              		.loc 1 919 5 is_stmt 0 view .LVU168
 477 01cc 8F07     		lsls	r7, r1, #30
 478 01ce 98D5     		bpl	.L21
 479              		.loc 1 922 5 is_stmt 1 view .LVU169
 480              		.loc 1 922 22 is_stmt 0 view .LVU170
 481 01d0 4349     		ldr	r1, .L118+4
 482              		.loc 1 922 38 view .LVU171
 483 01d2 D6B2     		uxtb	r6, r2
 484              		.loc 1 922 22 view .LVU172
 485 01d4 D1F83C21 		ldr	r2, [r1, #316]
 486 01d8 22EA0602 		bic	r2, r2, r6
 487 01dc C1F83C21 		str	r2, [r1, #316]
 488 01e0 8FE7     		b	.L21
 489              	.L117:
 490              		.loc 1 922 22 view .LVU173
 491              	.LBE65:
 492              	.LBE64:
 493              		.loc 1 449 7 is_stmt 1 view .LVU174
 494              		.loc 1 452 7 view .LVU175
 495 01e2 D5E90772 		ldrd	r7, r2, [r5, #28]
 496              	.LVL33:
 497              		.loc 1 452 7 is_stmt 0 view .LVU176
 498 01e6 D5E90961 		ldrd	r6, r1, [r5, #36]
 499              	.LVL34:
 500              	.LBB66:
 501              	.LBI66:
 502              		.loc 1 1311 13 is_stmt 1 view .LVU177
 503              	.LBB67:
 504              		.loc 1 1314 3 view .LVU178
 505              		.loc 1 1315 3 view .LVU179
 506              		.loc 1 1317 3 view .LVU180
 507              		.loc 1 1317 5 is_stmt 0 view .LVU181
 508 01ea 17F0010F 		tst	r7, #1
 509 01ee 0FD0     		beq	.L39
 510              		.loc 1 1319 5 is_stmt 1 view .LVU182
 511              		.loc 1 1320 5 view .LVU183
ARM GAS  /tmp/ccPLs8VZ.s 			page 10


 512              		.loc 1 1323 5 view .LVU184
 513              		.loc 1 1324 60 is_stmt 0 view .LVU185
 514 01f0 4FEA0128 		lsl	r8, r1, #8
 515              		.loc 1 1324 66 view .LVU186
 516 01f4 DFF8ECC0 		ldr	ip, .L118+8
 517              		.loc 1 1323 41 view .LVU187
 518 01f8 06F1784E 		add	lr, r6, #-134217728
 519              		.loc 1 1324 66 view .LVU188
 520 01fc 08EA0C0C 		and	ip, r8, ip
 521              		.loc 1 1323 22 view .LVU189
 522 0200 DFF8DC80 		ldr	r8, .L118+4
 523              		.loc 1 1324 99 view .LVU190
 524 0204 42EA1E2E 		orr	lr, r2, lr, lsr #8
 525 0208 4CEA0E0C 		orr	ip, ip, lr
 526              		.loc 1 1323 22 view .LVU191
 527 020c C8F82CC0 		str	ip, [r8, #44]
 528              	.L39:
 529              		.loc 1 1328 3 is_stmt 1 view .LVU192
 530              		.loc 1 1328 5 is_stmt 0 view .LVU193
 531 0210 BF07     		lsls	r7, r7, #30
 532              	.LVL35:
 533              		.loc 1 1328 5 view .LVU194
 534 0212 84D5     		bpl	.L38
 535              		.loc 1 1330 5 is_stmt 1 view .LVU195
 536              		.loc 1 1331 5 view .LVU196
 537              		.loc 1 1334 5 view .LVU197
 538              		.loc 1 1335 40 is_stmt 0 view .LVU198
 539 0214 A1F10161 		sub	r1, r1, #135266304
 540              	.LVL36:
 541              		.loc 1 1334 41 view .LVU199
 542 0218 A6F10166 		sub	r6, r6, #135266304
 543              		.loc 1 1334 22 view .LVU200
 544 021c 304F     		ldr	r7, .L118+4
 545              		.loc 1 1335 60 view .LVU201
 546 021e 090A     		lsrs	r1, r1, #8
 547              	.LVL37:
 548              		.loc 1 1335 99 view .LVU202
 549 0220 42EA1622 		orr	r2, r2, r6, lsr #8
 550              	.LVL38:
 551              		.loc 1 1335 99 view .LVU203
 552 0224 42EA0142 		orr	r2, r2, r1, lsl #16
 553              		.loc 1 1334 22 view .LVU204
 554 0228 C7F82C21 		str	r2, [r7, #300]
 555 022c 77E7     		b	.L38
 556              	.L116:
 557              		.loc 1 1334 22 view .LVU205
 558              	.LBE67:
 559              	.LBE66:
 560              		.loc 1 443 7 is_stmt 1 view .LVU206
 561 022e D5E90517 		ldrd	r1, r7, [r5, #20]
 562              	.LVL39:
 563              	.LBB68:
 564              	.LBI68:
 565              		.loc 1 1094 13 view .LVU207
 566              	.LBB69:
 567              		.loc 1 1096 3 view .LVU208
 568              		.loc 1 1097 3 view .LVU209
ARM GAS  /tmp/ccPLs8VZ.s 			page 11


 569              		.loc 1 1100 3 view .LVU210
 570              		.loc 1 1102 3 view .LVU211
 571              		.loc 1 1102 5 is_stmt 0 view .LVU212
 572 0232 11F00102 		ands	r2, r1, #1
 573 0236 4FD0     		beq	.L50
 574              		.loc 1 1105 5 is_stmt 1 view .LVU213
 575              		.loc 1 1108 5 view .LVU214
 576              		.loc 1 1108 33 is_stmt 0 view .LVU215
 577 0238 07F01002 		and	r2, r7, #16
 578              	.LVL40:
 579              		.loc 1 1109 5 is_stmt 1 view .LVU216
 580              		.loc 1 1109 19 is_stmt 0 view .LVU217
 581 023c 1026     		movs	r6, #16
 582              	.LVL41:
 583              	.L28:
 584              		.loc 1 1122 3 is_stmt 1 view .LVU218
 585              		.loc 1 1122 5 is_stmt 0 view .LVU219
 586 023e 11F0020F 		tst	r1, #2
 587 0242 05D0     		beq	.L29
 588              		.loc 1 1125 5 is_stmt 1 view .LVU220
 589              		.loc 1 1128 5 view .LVU221
 590              		.loc 1 1128 33 is_stmt 0 view .LVU222
 591 0244 07F0400C 		and	ip, r7, #64
 592              		.loc 1 1129 19 view .LVU223
 593 0248 46F04006 		orr	r6, r6, #64
 594              	.LVL42:
 595              		.loc 1 1128 18 view .LVU224
 596 024c 42EA0C02 		orr	r2, r2, ip
 597              	.LVL43:
 598              		.loc 1 1129 5 is_stmt 1 view .LVU225
 599              	.L29:
 600              		.loc 1 1132 3 view .LVU226
 601              		.loc 1 1132 5 is_stmt 0 view .LVU227
 602 0250 11F0040F 		tst	r1, #4
 603 0254 05D0     		beq	.L30
 604              		.loc 1 1135 5 is_stmt 1 view .LVU228
 605              		.loc 1 1138 5 view .LVU229
 606              		.loc 1 1138 33 is_stmt 0 view .LVU230
 607 0256 07F0800C 		and	ip, r7, #128
 608              		.loc 1 1139 19 view .LVU231
 609 025a 46F08006 		orr	r6, r6, #128
 610              	.LVL44:
 611              		.loc 1 1138 18 view .LVU232
 612 025e 42EA0C02 		orr	r2, r2, ip
 613              	.LVL45:
 614              		.loc 1 1139 5 is_stmt 1 view .LVU233
 615              	.L30:
 616              		.loc 1 1142 3 view .LVU234
 617              		.loc 1 1142 5 is_stmt 0 view .LVU235
 618 0262 11F0080F 		tst	r1, #8
 619 0266 05D0     		beq	.L31
 620              		.loc 1 1145 5 is_stmt 1 view .LVU236
 621              		.loc 1 1148 5 view .LVU237
 622              		.loc 1 1148 33 is_stmt 0 view .LVU238
 623 0268 07F4003C 		and	ip, r7, #131072
 624              		.loc 1 1149 19 view .LVU239
 625 026c 46F40036 		orr	r6, r6, #131072
ARM GAS  /tmp/ccPLs8VZ.s 			page 12


 626              	.LVL46:
 627              		.loc 1 1148 18 view .LVU240
 628 0270 42EA0C02 		orr	r2, r2, ip
 629              	.LVL47:
 630              		.loc 1 1149 5 is_stmt 1 view .LVU241
 631              	.L31:
 632              		.loc 1 1152 3 view .LVU242
 633              		.loc 1 1152 5 is_stmt 0 view .LVU243
 634 0274 11F0100F 		tst	r1, #16
 635 0278 05D0     		beq	.L32
 636              		.loc 1 1155 5 is_stmt 1 view .LVU244
 637              		.loc 1 1158 5 view .LVU245
 638              		.loc 1 1158 33 is_stmt 0 view .LVU246
 639 027a 07F4802C 		and	ip, r7, #262144
 640              		.loc 1 1159 19 view .LVU247
 641 027e 46F48026 		orr	r6, r6, #262144
 642              	.LVL48:
 643              		.loc 1 1158 18 view .LVU248
 644 0282 42EA0C02 		orr	r2, r2, ip
 645              	.LVL49:
 646              		.loc 1 1159 5 is_stmt 1 view .LVU249
 647              	.L32:
 648              		.loc 1 1162 3 view .LVU250
 649              		.loc 1 1162 5 is_stmt 0 view .LVU251
 650 0286 11F0200F 		tst	r1, #32
 651 028a 05D0     		beq	.L33
 652              		.loc 1 1165 5 is_stmt 1 view .LVU252
 653              		.loc 1 1168 5 view .LVU253
 654              		.loc 1 1168 33 is_stmt 0 view .LVU254
 655 028c 07F4C01C 		and	ip, r7, #1572864
 656              		.loc 1 1169 19 view .LVU255
 657 0290 46F4C016 		orr	r6, r6, #1572864
 658              	.LVL50:
 659              		.loc 1 1168 18 view .LVU256
 660 0294 42EA0C02 		orr	r2, r2, ip
 661              	.LVL51:
 662              		.loc 1 1169 5 is_stmt 1 view .LVU257
 663              	.L33:
 664              		.loc 1 1172 3 view .LVU258
 665              		.loc 1 1172 5 is_stmt 0 view .LVU259
 666 0298 11F0400F 		tst	r1, #64
 667 029c 05D0     		beq	.L34
 668              		.loc 1 1175 5 is_stmt 1 view .LVU260
 669              		.loc 1 1178 5 view .LVU261
 670              		.loc 1 1178 33 is_stmt 0 view .LVU262
 671 029e 07F4001C 		and	ip, r7, #2097152
 672              		.loc 1 1179 19 view .LVU263
 673 02a2 46F40016 		orr	r6, r6, #2097152
 674              	.LVL52:
 675              		.loc 1 1178 18 view .LVU264
 676 02a6 42EA0C02 		orr	r2, r2, ip
 677              	.LVL53:
 678              		.loc 1 1179 5 is_stmt 1 view .LVU265
 679              	.L34:
 680              		.loc 1 1223 3 view .LVU266
 681              		.loc 1 1223 5 is_stmt 0 view .LVU267
 682 02aa 11F4807F 		tst	r1, #256
ARM GAS  /tmp/ccPLs8VZ.s 			page 13


 683 02ae 05D0     		beq	.L35
 684              		.loc 1 1226 5 is_stmt 1 view .LVU268
 685              		.loc 1 1229 5 view .LVU269
 686              		.loc 1 1229 33 is_stmt 0 view .LVU270
 687 02b0 07F0004C 		and	ip, r7, #-2147483648
 688              		.loc 1 1230 19 view .LVU271
 689 02b4 46F00046 		orr	r6, r6, #-2147483648
 690              	.LVL54:
 691              		.loc 1 1229 18 view .LVU272
 692 02b8 42EA0C02 		orr	r2, r2, ip
 693              	.LVL55:
 694              		.loc 1 1230 5 is_stmt 1 view .LVU273
 695              	.L35:
 696              		.loc 1 1233 3 view .LVU274
 697              		.loc 1 1233 5 is_stmt 0 view .LVU275
 698 02bc 0906     		lsls	r1, r1, #24
 699              	.LVL56:
 700              		.loc 1 1233 5 view .LVU276
 701 02be 04D5     		bpl	.L36
 702              		.loc 1 1236 5 is_stmt 1 view .LVU277
 703              		.loc 1 1239 5 view .LVU278
 704              		.loc 1 1239 33 is_stmt 0 view .LVU279
 705 02c0 07F00057 		and	r7, r7, #536870912
 706              	.LVL57:
 707              		.loc 1 1240 19 view .LVU280
 708 02c4 46F00056 		orr	r6, r6, #536870912
 709              	.LVL58:
 710              		.loc 1 1239 18 view .LVU281
 711 02c8 3A43     		orrs	r2, r2, r7
 712              	.LVL59:
 713              		.loc 1 1240 5 is_stmt 1 view .LVU282
 714              	.L36:
 715              		.loc 1 1256 3 view .LVU283
 716 02ca 054F     		ldr	r7, .L118+4
 717 02cc 396A     		ldr	r1, [r7, #32]
 718 02ce 21EA0606 		bic	r6, r1, r6
 719              	.LVL60:
 720              		.loc 1 1256 3 is_stmt 0 view .LVU284
 721 02d2 3243     		orrs	r2, r2, r6
 722              	.LVL61:
 723              		.loc 1 1256 3 view .LVU285
 724 02d4 3A62     		str	r2, [r7, #32]
 725              	.LVL62:
 726              		.loc 1 1256 3 view .LVU286
 727 02d6 20E7     		b	.L27
 728              	.LVL63:
 729              	.L50:
 730              		.loc 1 1097 12 view .LVU287
 731 02d8 1646     		mov	r6, r2
 732 02da B0E7     		b	.L28
 733              	.L119:
 734              		.align	2
 735              	.L118:
 736 02dc 00000000 		.word	pFlash
 737 02e0 00200052 		.word	1375739904
 738 02e4 0000FFFF 		.word	-65536
 739              	.LBE69:
ARM GAS  /tmp/ccPLs8VZ.s 			page 14


 740              	.LBE68:
 741              		.cfi_endproc
 742              	.LFE143:
 743              		.size	HAL_FLASHEx_OBProgram, .-HAL_FLASHEx_OBProgram
 744              		.align	1
 745 02e8 AFF30080 		.p2align 4,,15
 745      AFF30080 
 746              		.global	HAL_FLASHEx_OBGetConfig
 747              		.syntax unified
 748              		.thumb
 749              		.thumb_func
 750              		.fpu fpv4-sp-d16
 751              		.type	HAL_FLASHEx_OBGetConfig, %function
 752              	HAL_FLASHEx_OBGetConfig:
 753              	.LVL64:
 754              	.LFB144:
 755              		.loc 1 512 1 is_stmt 1 view -0
 756              		.cfi_startproc
 757              		@ args = 0, pretend = 0, frame = 0
 758              		@ frame_needed = 0, uses_anonymous_args = 0
 759              		@ link register save eliminated.
 760              		.loc 1 513 3 view .LVU289
 761              		.loc 1 513 23 is_stmt 0 view .LVU290
 762 02f0 1622     		movs	r2, #22
 763              	.LBB70:
 764              	.LBB71:
 765              		.loc 1 1040 24 view .LVU291
 766 02f2 364B     		ldr	r3, .L135
 767              	.LBE71:
 768              	.LBE70:
 769              		.loc 1 513 23 view .LVU292
 770 02f4 0260     		str	r2, [r0]
 771              		.loc 1 516 3 is_stmt 1 view .LVU293
 772              	.LBB74:
 773              	.LBI70:
 774              		.loc 1 1038 17 view .LVU294
 775              	.LBB72:
 776              		.loc 1 1040 3 view .LVU295
 777              		.loc 1 1040 24 is_stmt 0 view .LVU296
 778 02f6 DB69     		ldr	r3, [r3, #28]
 779              		.loc 1 1040 12 view .LVU297
 780 02f8 03F47F43 		and	r3, r3, #65280
 781              	.LVL65:
 782              		.loc 1 1042 3 is_stmt 1 view .LVU298
 783              		.loc 1 1042 6 is_stmt 0 view .LVU299
 784 02fc B3F52A4F 		cmp	r3, #43520
 785              	.LBE72:
 786              	.LBE74:
 787              		.loc 1 512 1 view .LVU300
 788 0300 30B4     		push	{r4, r5}
 789              		.cfi_def_cfa_offset 8
 790              		.cfi_offset 4, -8
 791              		.cfi_offset 5, -4
 792              	.LBB75:
 793              	.LBB73:
 794              		.loc 1 1042 6 view .LVU301
 795 0302 04D0     		beq	.L121
ARM GAS  /tmp/ccPLs8VZ.s 			page 15


 796              		.loc 1 1044 12 view .LVU302
 797 0304 B3F54C4F 		cmp	r3, #52224
 798 0308 18BF     		it	ne
 799 030a 4FF4AA43 		movne	r3, #21760
 800              	.LVL66:
 801              	.L121:
 802              		.loc 1 1044 12 view .LVU303
 803              	.LBE73:
 804              	.LBE75:
 805              	.LBB76:
 806              	.LBB77:
 807              		.loc 1 1279 12 view .LVU304
 808 030e 2F4A     		ldr	r2, .L135
 809              	.LBE77:
 810              	.LBE76:
 811              		.loc 1 516 21 view .LVU305
 812 0310 C360     		str	r3, [r0, #12]
 813              		.loc 1 519 3 is_stmt 1 view .LVU306
 814              	.LBB80:
 815              	.LBI76:
 816              		.loc 1 1277 17 view .LVU307
 817              	.LBB78:
 818              		.loc 1 1279 3 view .LVU308
 819              		.loc 1 1280 14 is_stmt 0 view .LVU309
 820 0312 2F4B     		ldr	r3, .L135+4
 821              		.loc 1 1279 12 view .LVU310
 822 0314 D469     		ldr	r4, [r2, #28]
 823              	.LVL67:
 824              		.loc 1 1280 3 is_stmt 1 view .LVU311
 825              		.loc 1 1282 3 view .LVU312
 826              		.loc 1 1282 3 is_stmt 0 view .LVU313
 827              	.LBE78:
 828              	.LBE80:
 829              		.loc 1 524 15 view .LVU314
 830 0316 C169     		ldr	r1, [r0, #28]
 831              	.LBB81:
 832              	.LBB79:
 833              		.loc 1 1280 14 view .LVU315
 834 0318 2340     		ands	r3, r3, r4
 835              	.LBE79:
 836              	.LBE81:
 837              		.loc 1 524 40 view .LVU316
 838 031a 4C1E     		subs	r4, r1, #1
 839              		.loc 1 519 23 view .LVU317
 840 031c 8361     		str	r3, [r0, #24]
 841              		.loc 1 522 3 is_stmt 1 view .LVU318
 842              	.LBB82:
 843              	.LBI82:
 844              		.loc 1 1409 17 view .LVU319
 845              	.LBB83:
 846              		.loc 1 1411 3 view .LVU320
 847              		.loc 1 1411 16 is_stmt 0 view .LVU321
 848 031e D369     		ldr	r3, [r2, #28]
 849              	.LBE83:
 850              	.LBE82:
 851              		.loc 1 524 6 view .LVU322
 852 0320 012C     		cmp	r4, #1
ARM GAS  /tmp/ccPLs8VZ.s 			page 16


 853              	.LBB85:
 854              	.LBB84:
 855              		.loc 1 1411 28 view .LVU323
 856 0322 03F00C03 		and	r3, r3, #12
 857              	.LBE84:
 858              	.LBE85:
 859              		.loc 1 522 21 view .LVU324
 860 0326 0361     		str	r3, [r0, #16]
 861              		.loc 1 524 3 is_stmt 1 view .LVU325
 862              		.loc 1 524 6 is_stmt 0 view .LVU326
 863 0328 0AD9     		bls	.L133
 864 032a 5621     		movs	r1, #86
 865              	.L123:
 866              		.loc 1 539 3 is_stmt 1 view .LVU327
 867              	.LVL68:
 868              	.LBB86:
 869              	.LBI86:
 870              		.loc 1 1462 13 view .LVU328
 871              	.LBB87:
 872              		.loc 1 1464 3 view .LVU329
 873              		.loc 1 1472 3 view .LVU330
 874              		.loc 1 1472 12 is_stmt 0 view .LVU331
 875 032c 274A     		ldr	r2, .L135
 876              		.loc 1 1475 31 view .LVU332
 877 032e 294B     		ldr	r3, .L135+8
 878              		.loc 1 1472 12 view .LVU333
 879 0330 126C     		ldr	r2, [r2, #64]
 880              	.LVL69:
 881              		.loc 1 1474 3 is_stmt 1 view .LVU334
 882              	.LBE87:
 883              	.LBE86:
 884              		.loc 1 546 23 is_stmt 0 view .LVU335
 885 0332 0160     		str	r1, [r0]
 886              	.LBB90:
 887              	.LBB88:
 888              		.loc 1 1475 31 view .LVU336
 889 0334 1340     		ands	r3, r3, r2
 890              		.loc 1 1474 50 view .LVU337
 891 0336 1104     		lsls	r1, r2, #16
 892              	.LBE88:
 893              	.LBE90:
 894              		.loc 1 555 1 view .LVU338
 895 0338 30BC     		pop	{r4, r5}
 896              		.cfi_remember_state
 897              		.cfi_restore 5
 898              		.cfi_restore 4
 899              		.cfi_def_cfa_offset 0
 900              	.LBB91:
 901              	.LBB89:
 902              		.loc 1 1475 19 view .LVU339
 903 033a C0E90C13 		strd	r1, r3, [r0, #48]
 904              	.LVL70:
 905              		.loc 1 1475 19 view .LVU340
 906              	.LBE89:
 907              	.LBE91:
 908              		.loc 1 546 3 is_stmt 1 view .LVU341
 909              		.loc 1 555 1 is_stmt 0 view .LVU342
ARM GAS  /tmp/ccPLs8VZ.s 			page 17


 910 033e 7047     		bx	lr
 911              	.L133:
 912              		.cfi_restore_state
 913              		.loc 1 526 5 is_stmt 1 view .LVU343
 914              		.loc 1 526 25 is_stmt 0 view .LVU344
 915 0340 3F23     		movs	r3, #63
 916              	.LBB92:
 917              	.LBB93:
 918              		.loc 1 981 5 view .LVU345
 919 0342 0129     		cmp	r1, #1
 920              	.LBE93:
 921              	.LBE92:
 922              		.loc 1 526 25 view .LVU346
 923 0344 0360     		str	r3, [r0]
 924              		.loc 1 529 5 is_stmt 1 view .LVU347
 925              	.LVL71:
 926              	.LBB98:
 927              	.LBI92:
 928              		.loc 1 977 13 view .LVU348
 929              	.LBB94:
 930              		.loc 1 979 3 view .LVU349
 931              		.loc 1 981 3 view .LVU350
 932              		.loc 1 981 5 is_stmt 0 view .LVU351
 933 0346 28D0     		beq	.L134
 934              		.loc 1 986 3 is_stmt 1 view .LVU352
 935              		.loc 1 988 5 view .LVU353
 936              		.loc 1 988 14 is_stmt 0 view .LVU354
 937 0348 D2F83811 		ldr	r1, [r2, #312]
 938              	.LVL72:
 939              		.loc 1 991 3 is_stmt 1 view .LVU355
 940              	.LBE94:
 941              	.LBE98:
 942              	.LBB99:
 943              	.LBB100:
 944              		.loc 1 1372 14 is_stmt 0 view .LVU356
 945 034c 4FF00164 		mov	r4, #135266304
 946              		.loc 1 1377 64 view .LVU357
 947 0350 214B     		ldr	r3, .L135+12
 948              	.LBE100:
 949              	.LBE99:
 950              	.LBB104:
 951              	.LBB95:
 952              		.loc 1 991 19 view .LVU358
 953 0352 C943     		mvns	r1, r1
 954              	.LVL73:
 955              		.loc 1 991 30 view .LVU359
 956 0354 C9B2     		uxtb	r1, r1
 957              	.LVL74:
 958              		.loc 1 993 5 view .LVU360
 959 0356 0D1C     		adds	r5, r1, #0
 960 0358 18BF     		it	ne
 961 035a 0125     		movne	r5, #1
 962 035c C0E90151 		strd	r5, r1, [r0, #4]
 963              	.LVL75:
 964              		.loc 1 993 5 view .LVU361
 965              	.LBE95:
 966              	.LBE104:
ARM GAS  /tmp/ccPLs8VZ.s 			page 18


 967              		.loc 1 532 5 is_stmt 1 view .LVU362
 968              	.LBB105:
 969              	.LBI99:
 970              		.loc 1 1358 13 view .LVU363
 971              	.LBB101:
 972              		.loc 1 1360 3 view .LVU364
 973              		.loc 1 1361 3 view .LVU365
 974              		.loc 1 1363 3 view .LVU366
 975              		.loc 1 1369 3 view .LVU367
 976              		.loc 1 1371 5 view .LVU368
 977              		.loc 1 1371 14 is_stmt 0 view .LVU369
 978 0360 D2F82811 		ldr	r1, [r2, #296]
 979              	.LVL76:
 980              		.loc 1 1372 5 is_stmt 1 view .LVU370
 981              		.loc 1 1375 3 view .LVU371
 982              		.loc 1 1377 64 is_stmt 0 view .LVU372
 983 0364 03EA0125 		and	r5, r3, r1, lsl #8
 984              		.loc 1 1379 38 view .LVU373
 985 0368 03EA1123 		and	r3, r3, r1, lsr #8
 986              		.loc 1 1375 31 view .LVU374
 987 036c 01F00041 		and	r1, r1, #-2147483648
 988              	.LVL77:
 989              		.loc 1 1377 70 view .LVU375
 990 0370 2544     		add	r5, r5, r4
 991              		.loc 1 1379 44 view .LVU376
 992 0372 2344     		add	r3, r3, r4
 993              		.loc 1 1377 21 view .LVU377
 994 0374 C0E90815 		strd	r1, r5, [r0, #32]
 995              		.loc 1 1378 3 is_stmt 1 view .LVU378
 996              		.loc 1 1379 3 view .LVU379
 997              		.loc 1 1379 19 is_stmt 0 view .LVU380
 998 0378 8362     		str	r3, [r0, #40]
 999              	.LVL78:
 1000              		.loc 1 1379 19 view .LVU381
 1001              	.LBE101:
 1002              	.LBE105:
 1003              		.loc 1 535 5 is_stmt 1 view .LVU382
 1004              	.LBB106:
 1005              	.LBI106:
 1006              		.loc 1 1586 13 view .LVU383
 1007              	.LBB107:
 1008              		.loc 1 1588 3 view .LVU384
 1009              		.loc 1 1589 3 view .LVU385
 1010              		.loc 1 1592 3 view .LVU386
 1011              		.loc 1 1598 3 view .LVU387
 1012              		.loc 1 1600 5 view .LVU388
 1013              		.loc 1 1600 14 is_stmt 0 view .LVU389
 1014 037a D2F83011 		ldr	r1, [r2, #304]
 1015              	.LVL79:
 1016              		.loc 1 1601 5 is_stmt 1 view .LVU390
 1017              	.L125:
 1018              		.loc 1 1605 3 view .LVU391
 1019              		.loc 1 1606 68 is_stmt 0 view .LVU392
 1020 037e 164B     		ldr	r3, .L135+12
 1021              		.loc 1 1605 35 view .LVU393
 1022 0380 01F00045 		and	r5, r1, #-2147483648
 1023              		.loc 1 1606 68 view .LVU394
ARM GAS  /tmp/ccPLs8VZ.s 			page 19


 1024 0384 03EA0122 		and	r2, r3, r1, lsl #8
 1025              		.loc 1 1605 23 view .LVU395
 1026 0388 8563     		str	r5, [r0, #56]
 1027              		.loc 1 1606 3 is_stmt 1 view .LVU396
 1028              		.loc 1 1608 48 is_stmt 0 view .LVU397
 1029 038a 03EA1123 		and	r3, r3, r1, lsr #8
 1030              		.loc 1 1608 24 view .LVU398
 1031 038e 7F21     		movs	r1, #127
 1032              	.LVL80:
 1033              		.loc 1 1606 74 view .LVU399
 1034 0390 2244     		add	r2, r2, r4
 1035              		.loc 1 1608 54 view .LVU400
 1036 0392 2344     		add	r3, r3, r4
 1037              		.loc 1 1608 24 view .LVU401
 1038 0394 C0E90F23 		strd	r2, r3, [r0, #60]
 1039 0398 C8E7     		b	.L123
 1040              	.LVL81:
 1041              	.L134:
 1042              		.loc 1 1608 24 view .LVU402
 1043              	.LBE107:
 1044              	.LBE106:
 1045              	.LBB109:
 1046              	.LBB96:
 1047              		.loc 1 983 5 is_stmt 1 view .LVU403
 1048              		.loc 1 983 14 is_stmt 0 view .LVU404
 1049 039a 916B     		ldr	r1, [r2, #56]
 1050              	.LVL82:
 1051              		.loc 1 986 3 is_stmt 1 view .LVU405
 1052              		.loc 1 991 3 view .LVU406
 1053              	.LBE96:
 1054              	.LBE109:
 1055              	.LBB110:
 1056              	.LBB102:
 1057              		.loc 1 1366 14 is_stmt 0 view .LVU407
 1058 039c 4FF00064 		mov	r4, #134217728
 1059              		.loc 1 1377 64 view .LVU408
 1060 03a0 0D4B     		ldr	r3, .L135+12
 1061              	.LBE102:
 1062              	.LBE110:
 1063              	.LBB111:
 1064              	.LBB97:
 1065              		.loc 1 991 19 view .LVU409
 1066 03a2 C943     		mvns	r1, r1
 1067              	.LVL83:
 1068              		.loc 1 991 30 view .LVU410
 1069 03a4 C9B2     		uxtb	r1, r1
 1070              	.LVL84:
 1071              		.loc 1 993 5 view .LVU411
 1072 03a6 0D1C     		adds	r5, r1, #0
 1073 03a8 18BF     		it	ne
 1074 03aa 0125     		movne	r5, #1
 1075 03ac C0E90151 		strd	r5, r1, [r0, #4]
 1076              	.LVL85:
 1077              		.loc 1 993 5 view .LVU412
 1078              	.LBE97:
 1079              	.LBE111:
 1080              		.loc 1 532 5 is_stmt 1 view .LVU413
ARM GAS  /tmp/ccPLs8VZ.s 			page 20


 1081              	.LBB112:
 1082              		.loc 1 1358 13 view .LVU414
 1083              	.LBB103:
 1084              		.loc 1 1360 3 view .LVU415
 1085              		.loc 1 1361 3 view .LVU416
 1086              		.loc 1 1363 3 view .LVU417
 1087              		.loc 1 1365 5 view .LVU418
 1088              		.loc 1 1365 14 is_stmt 0 view .LVU419
 1089 03b0 916A     		ldr	r1, [r2, #40]
 1090              	.LVL86:
 1091              		.loc 1 1366 5 is_stmt 1 view .LVU420
 1092              		.loc 1 1369 3 view .LVU421
 1093              		.loc 1 1375 3 view .LVU422
 1094              		.loc 1 1377 64 is_stmt 0 view .LVU423
 1095 03b2 03EA0125 		and	r5, r3, r1, lsl #8
 1096              		.loc 1 1379 38 view .LVU424
 1097 03b6 03EA1123 		and	r3, r3, r1, lsr #8
 1098              		.loc 1 1375 31 view .LVU425
 1099 03ba 01F00041 		and	r1, r1, #-2147483648
 1100              	.LVL87:
 1101              		.loc 1 1377 70 view .LVU426
 1102 03be 2544     		add	r5, r5, r4
 1103              		.loc 1 1379 44 view .LVU427
 1104 03c0 2344     		add	r3, r3, r4
 1105              		.loc 1 1377 21 view .LVU428
 1106 03c2 C0E90815 		strd	r1, r5, [r0, #32]
 1107              		.loc 1 1378 3 is_stmt 1 view .LVU429
 1108              		.loc 1 1379 3 view .LVU430
 1109              		.loc 1 1379 19 is_stmt 0 view .LVU431
 1110 03c6 8362     		str	r3, [r0, #40]
 1111              	.LVL88:
 1112              		.loc 1 1379 19 view .LVU432
 1113              	.LBE103:
 1114              	.LBE112:
 1115              		.loc 1 535 5 is_stmt 1 view .LVU433
 1116              	.LBB113:
 1117              		.loc 1 1586 13 view .LVU434
 1118              	.LBB108:
 1119              		.loc 1 1588 3 view .LVU435
 1120              		.loc 1 1589 3 view .LVU436
 1121              		.loc 1 1592 3 view .LVU437
 1122              		.loc 1 1594 5 view .LVU438
 1123              		.loc 1 1594 14 is_stmt 0 view .LVU439
 1124 03c8 116B     		ldr	r1, [r2, #48]
 1125              	.LVL89:
 1126              		.loc 1 1595 5 is_stmt 1 view .LVU440
 1127              		.loc 1 1598 3 view .LVU441
 1128 03ca D8E7     		b	.L125
 1129              	.L136:
 1130              		.align	2
 1131              	.L135:
 1132 03cc 00200052 		.word	1375739904
 1133 03d0 F300FFFF 		.word	-65293
 1134 03d4 0000FFFF 		.word	-65536
 1135 03d8 00FF0F00 		.word	1048320
 1136              	.LBE108:
 1137              	.LBE113:
ARM GAS  /tmp/ccPLs8VZ.s 			page 21


 1138              		.cfi_endproc
 1139              	.LFE144:
 1140              		.size	HAL_FLASHEx_OBGetConfig, .-HAL_FLASHEx_OBGetConfig
 1141              		.align	1
 1142 03dc AFF30080 		.p2align 4,,15
 1143              		.global	HAL_FLASHEx_Unlock_Bank1
 1144              		.syntax unified
 1145              		.thumb
 1146              		.thumb_func
 1147              		.fpu fpv4-sp-d16
 1148              		.type	HAL_FLASHEx_Unlock_Bank1, %function
 1149              	HAL_FLASHEx_Unlock_Bank1:
 1150              	.LFB145:
 1151              		.loc 1 562 1 view -0
 1152              		.cfi_startproc
 1153              		@ args = 0, pretend = 0, frame = 0
 1154              		@ frame_needed = 0, uses_anonymous_args = 0
 1155              		@ link register save eliminated.
 1156              		.loc 1 563 3 view .LVU443
 1157              		.loc 1 563 6 is_stmt 0 view .LVU444
 1158 03e0 064B     		ldr	r3, .L140
 1159 03e2 D868     		ldr	r0, [r3, #12]
 1160              		.loc 1 563 5 view .LVU445
 1161 03e4 10F00100 		ands	r0, r0, #1
 1162 03e8 06D0     		beq	.L138
 1163              		.loc 1 566 5 is_stmt 1 view .LVU446
 1164 03ea 0549     		ldr	r1, .L140+4
 1165              		.loc 1 567 5 is_stmt 0 view .LVU447
 1166 03ec 054A     		ldr	r2, .L140+8
 1167              		.loc 1 566 5 view .LVU448
 1168 03ee 5960     		str	r1, [r3, #4]
 1169              		.loc 1 567 5 is_stmt 1 view .LVU449
 1170 03f0 5A60     		str	r2, [r3, #4]
 1171              		.loc 1 570 5 view .LVU450
 1172              		.loc 1 570 9 is_stmt 0 view .LVU451
 1173 03f2 D868     		ldr	r0, [r3, #12]
 1174              		.loc 1 572 14 view .LVU452
 1175 03f4 00F00100 		and	r0, r0, #1
 1176              	.L138:
 1177              		.loc 1 577 1 view .LVU453
 1178 03f8 7047     		bx	lr
 1179              	.L141:
 1180 03fa 00BF     		.align	2
 1181              	.L140:
 1182 03fc 00200052 		.word	1375739904
 1183 0400 23016745 		.word	1164378403
 1184 0404 AB89EFCD 		.word	-839939669
 1185              		.cfi_endproc
 1186              	.LFE145:
 1187              		.size	HAL_FLASHEx_Unlock_Bank1, .-HAL_FLASHEx_Unlock_Bank1
 1188              		.align	1
 1189 0408 AFF30080 		.p2align 4,,15
 1189      AFF30080 
 1190              		.global	HAL_FLASHEx_Lock_Bank1
 1191              		.syntax unified
 1192              		.thumb
 1193              		.thumb_func
ARM GAS  /tmp/ccPLs8VZ.s 			page 22


 1194              		.fpu fpv4-sp-d16
 1195              		.type	HAL_FLASHEx_Lock_Bank1, %function
 1196              	HAL_FLASHEx_Lock_Bank1:
 1197              	.LFB146:
 1198              		.loc 1 584 1 is_stmt 1 view -0
 1199              		.cfi_startproc
 1200              		@ args = 0, pretend = 0, frame = 0
 1201              		@ frame_needed = 0, uses_anonymous_args = 0
 1202              		@ link register save eliminated.
 1203              		.loc 1 586 3 view .LVU455
 1204 0410 034A     		ldr	r2, .L143
 1205              		.loc 1 588 1 is_stmt 0 view .LVU456
 1206 0412 0020     		movs	r0, #0
 1207              		.loc 1 586 3 view .LVU457
 1208 0414 D368     		ldr	r3, [r2, #12]
 1209 0416 43F00103 		orr	r3, r3, #1
 1210 041a D360     		str	r3, [r2, #12]
 1211              		.loc 1 587 3 is_stmt 1 view .LVU458
 1212              		.loc 1 588 1 is_stmt 0 view .LVU459
 1213 041c 7047     		bx	lr
 1214              	.L144:
 1215 041e 00BF     		.align	2
 1216              	.L143:
 1217 0420 00200052 		.word	1375739904
 1218              		.cfi_endproc
 1219              	.LFE146:
 1220              		.size	HAL_FLASHEx_Lock_Bank1, .-HAL_FLASHEx_Lock_Bank1
 1221              		.align	1
 1222 0424 AFF30080 		.p2align 4,,15
 1222      AFF30080 
 1222      AFF30080 
 1223              		.global	HAL_FLASHEx_Unlock_Bank2
 1224              		.syntax unified
 1225              		.thumb
 1226              		.thumb_func
 1227              		.fpu fpv4-sp-d16
 1228              		.type	HAL_FLASHEx_Unlock_Bank2, %function
 1229              	HAL_FLASHEx_Unlock_Bank2:
 1230              	.LFB147:
 1231              		.loc 1 595 1 is_stmt 1 view -0
 1232              		.cfi_startproc
 1233              		@ args = 0, pretend = 0, frame = 0
 1234              		@ frame_needed = 0, uses_anonymous_args = 0
 1235              		@ link register save eliminated.
 1236              		.loc 1 596 3 view .LVU461
 1237              		.loc 1 596 6 is_stmt 0 view .LVU462
 1238 0430 084B     		ldr	r3, .L148
 1239 0432 D3F80C01 		ldr	r0, [r3, #268]
 1240              		.loc 1 596 5 view .LVU463
 1241 0436 10F00100 		ands	r0, r0, #1
 1242 043a 09D0     		beq	.L146
 1243              		.loc 1 599 5 is_stmt 1 view .LVU464
 1244 043c 0649     		ldr	r1, .L148+4
 1245              		.loc 1 600 5 is_stmt 0 view .LVU465
 1246 043e 074A     		ldr	r2, .L148+8
 1247              		.loc 1 599 5 view .LVU466
 1248 0440 C3F80411 		str	r1, [r3, #260]
ARM GAS  /tmp/ccPLs8VZ.s 			page 23


 1249              		.loc 1 600 5 is_stmt 1 view .LVU467
 1250 0444 C3F80421 		str	r2, [r3, #260]
 1251              		.loc 1 603 5 view .LVU468
 1252              		.loc 1 603 9 is_stmt 0 view .LVU469
 1253 0448 D3F80C01 		ldr	r0, [r3, #268]
 1254              		.loc 1 605 14 view .LVU470
 1255 044c 00F00100 		and	r0, r0, #1
 1256              	.L146:
 1257              		.loc 1 610 1 view .LVU471
 1258 0450 7047     		bx	lr
 1259              	.L149:
 1260 0452 00BF     		.align	2
 1261              	.L148:
 1262 0454 00200052 		.word	1375739904
 1263 0458 23016745 		.word	1164378403
 1264 045c AB89EFCD 		.word	-839939669
 1265              		.cfi_endproc
 1266              	.LFE147:
 1267              		.size	HAL_FLASHEx_Unlock_Bank2, .-HAL_FLASHEx_Unlock_Bank2
 1268              		.align	1
 1269              		.p2align 4,,15
 1270              		.global	HAL_FLASHEx_Lock_Bank2
 1271              		.syntax unified
 1272              		.thumb
 1273              		.thumb_func
 1274              		.fpu fpv4-sp-d16
 1275              		.type	HAL_FLASHEx_Lock_Bank2, %function
 1276              	HAL_FLASHEx_Lock_Bank2:
 1277              	.LFB148:
 1278              		.loc 1 617 1 is_stmt 1 view -0
 1279              		.cfi_startproc
 1280              		@ args = 0, pretend = 0, frame = 0
 1281              		@ frame_needed = 0, uses_anonymous_args = 0
 1282              		@ link register save eliminated.
 1283              		.loc 1 619 3 view .LVU473
 1284 0460 044A     		ldr	r2, .L151
 1285              		.loc 1 621 1 is_stmt 0 view .LVU474
 1286 0462 0020     		movs	r0, #0
 1287              		.loc 1 619 3 view .LVU475
 1288 0464 D2F80C31 		ldr	r3, [r2, #268]
 1289 0468 43F00103 		orr	r3, r3, #1
 1290 046c C2F80C31 		str	r3, [r2, #268]
 1291              		.loc 1 620 3 is_stmt 1 view .LVU476
 1292              		.loc 1 621 1 is_stmt 0 view .LVU477
 1293 0470 7047     		bx	lr
 1294              	.L152:
 1295 0472 00BF     		.align	2
 1296              	.L151:
 1297 0474 00200052 		.word	1375739904
 1298              		.cfi_endproc
 1299              	.LFE148:
 1300              		.size	HAL_FLASHEx_Lock_Bank2, .-HAL_FLASHEx_Lock_Bank2
 1301              		.align	1
 1302 0478 AFF30080 		.p2align 4,,15
 1302      AFF30080 
 1303              		.global	HAL_FLASHEx_ComputeCRC
 1304              		.syntax unified
ARM GAS  /tmp/ccPLs8VZ.s 			page 24


 1305              		.thumb
 1306              		.thumb_func
 1307              		.fpu fpv4-sp-d16
 1308              		.type	HAL_FLASHEx_ComputeCRC, %function
 1309              	HAL_FLASHEx_ComputeCRC:
 1310              	.LVL90:
 1311              	.LFB149:
 1312              		.loc 1 635 1 is_stmt 1 view -0
 1313              		.cfi_startproc
 1314              		@ args = 0, pretend = 0, frame = 0
 1315              		@ frame_needed = 0, uses_anonymous_args = 0
 1316              		.loc 1 636 3 view .LVU479
 1317              		.loc 1 637 3 view .LVU480
 1318              		.loc 1 640 3 view .LVU481
 1319              		.loc 1 641 3 view .LVU482
 1320              		.loc 1 644 3 view .LVU483
 1321              		.loc 1 635 1 is_stmt 0 view .LVU484
 1322 0480 38B5     		push	{r3, r4, r5, lr}
 1323              		.cfi_def_cfa_offset 16
 1324              		.cfi_offset 3, -16
 1325              		.cfi_offset 4, -12
 1326              		.cfi_offset 5, -8
 1327              		.cfi_offset 14, -4
 1328              		.loc 1 635 1 view .LVU485
 1329 0482 0546     		mov	r5, r0
 1330              		.loc 1 644 12 view .LVU486
 1331 0484 4CF25030 		movw	r0, #50000
 1332              	.LVL91:
 1333              		.loc 1 635 1 view .LVU487
 1334 0488 0C46     		mov	r4, r1
 1335              		.loc 1 644 12 view .LVU488
 1336 048a FFF7FEFF 		bl	FLASH_OB_WaitForLastOperation
 1337              	.LVL92:
 1338              		.loc 1 646 3 is_stmt 1 view .LVU489
 1339              		.loc 1 646 6 is_stmt 0 view .LVU490
 1340 048e 0028     		cmp	r0, #0
 1341 0490 3FD1     		bne	.L154
 1342              		.loc 1 648 5 is_stmt 1 view .LVU491
 1343              		.loc 1 648 8 is_stmt 0 view .LVU492
 1344 0492 A968     		ldr	r1, [r5, #8]
 1345 0494 D5E90023 		ldrd	r2, r3, [r5]
 1346 0498 0129     		cmp	r1, #1
 1347              		.loc 1 651 18 view .LVU493
 1348 049a 5349     		ldr	r1, .L176
 1349 049c 43EA0203 		orr	r3, r3, r2
 1350              		.loc 1 648 8 view .LVU494
 1351 04a0 38D0     		beq	.L171
 1352              		.loc 1 699 7 is_stmt 1 view .LVU495
 1353              		.loc 1 699 18 is_stmt 0 view .LVU496
 1354 04a2 D1F80C01 		ldr	r0, [r1, #268]
 1355              	.LVL93:
 1356              		.loc 1 707 10 view .LVU497
 1357 04a6 B2F5807F 		cmp	r2, #256
 1358              		.loc 1 699 18 view .LVU498
 1359 04aa 40F40040 		orr	r0, r0, #32768
 1360 04ae C1F80C01 		str	r0, [r1, #268]
 1361              		.loc 1 702 7 is_stmt 1 view .LVU499
ARM GAS  /tmp/ccPLs8VZ.s 			page 25


 1362              		.loc 1 702 19 is_stmt 0 view .LVU500
 1363 04b2 D1F81401 		ldr	r0, [r1, #276]
 1364 04b6 40F0C050 		orr	r0, r0, #402653184
 1365 04ba C1F81401 		str	r0, [r1, #276]
 1366              		.loc 1 705 7 is_stmt 1 view .LVU501
 1367              		.loc 1 705 21 is_stmt 0 view .LVU502
 1368 04be D1F85001 		ldr	r0, [r1, #336]
 1369 04c2 43EA0003 		orr	r3, r3, r0
 1370 04c6 43F40033 		orr	r3, r3, #131072
 1371 04ca C1F85031 		str	r3, [r1, #336]
 1372              		.loc 1 707 7 is_stmt 1 view .LVU503
 1373              		.loc 1 707 10 is_stmt 0 view .LVU504
 1374 04ce 54D0     		beq	.L172
 1375              		.loc 1 718 12 is_stmt 1 view .LVU505
 1376              		.loc 1 718 15 is_stmt 0 view .LVU506
 1377 04d0 464B     		ldr	r3, .L176+4
 1378 04d2 9A42     		cmp	r2, r3
 1379 04d4 4AD0     		beq	.L173
 1380              		.loc 1 726 9 is_stmt 1 view .LVU507
 1381 04d6 D5E90523 		ldrd	r2, r3, [r5, #20]
 1382              	.LVL94:
 1383              	.LBB124:
 1384              	.LBI124:
 1385              		.loc 1 1647 13 view .LVU508
 1386              	.LBB125:
 1387              		.loc 1 1649 3 view .LVU509
 1388              		.loc 1 1660 5 view .LVU510
 1389              		.loc 1 1661 5 view .LVU511
 1390              		.loc 1 1664 5 view .LVU512
 1391              		.loc 1 1664 21 is_stmt 0 view .LVU513
 1392 04da C1F85421 		str	r2, [r1, #340]
 1393              		.loc 1 1665 5 is_stmt 1 view .LVU514
 1394              		.loc 1 1665 21 is_stmt 0 view .LVU515
 1395 04de C1F85831 		str	r3, [r1, #344]
 1396              	.LVL95:
 1397              	.L163:
 1398              		.loc 1 1665 21 view .LVU516
 1399              	.LBE125:
 1400              	.LBE124:
 1401              		.loc 1 730 7 is_stmt 1 view .LVU517
 1402              		.loc 1 730 21 is_stmt 0 view .LVU518
 1403 04e2 414D     		ldr	r5, .L176
 1404              	.LVL96:
 1405              		.loc 1 733 16 view .LVU519
 1406 04e4 0221     		movs	r1, #2
 1407 04e6 4CF25030 		movw	r0, #50000
 1408              		.loc 1 730 21 view .LVU520
 1409 04ea D5F85031 		ldr	r3, [r5, #336]
 1410 04ee 43F48033 		orr	r3, r3, #65536
 1411 04f2 C5F85031 		str	r3, [r5, #336]
 1412              		.loc 1 733 7 is_stmt 1 view .LVU521
 1413              		.loc 1 733 16 is_stmt 0 view .LVU522
 1414 04f6 FFF7FEFF 		bl	FLASH_CRC_WaitForLastOperation
 1415              	.LVL97:
 1416              		.loc 1 736 7 is_stmt 1 view .LVU523
 1417              		.loc 1 736 28 is_stmt 0 view .LVU524
 1418 04fa EB6D     		ldr	r3, [r5, #92]
ARM GAS  /tmp/ccPLs8VZ.s 			page 26


 1419              		.loc 1 742 7 view .LVU525
 1420 04fc 4FF0C052 		mov	r2, #402653184
 1421              		.loc 1 736 21 view .LVU526
 1422 0500 2360     		str	r3, [r4]
 1423              		.loc 1 739 7 is_stmt 1 view .LVU527
 1424              		.loc 1 739 18 is_stmt 0 view .LVU528
 1425 0502 D5F80C31 		ldr	r3, [r5, #268]
 1426 0506 23F40043 		bic	r3, r3, #32768
 1427 050a C5F80C31 		str	r3, [r5, #268]
 1428              		.loc 1 742 7 is_stmt 1 view .LVU529
 1429 050e C5F81421 		str	r2, [r5, #276]
 1430              	.L154:
 1431              		.loc 1 746 3 view .LVU530
 1432              		.loc 1 747 1 is_stmt 0 view .LVU531
 1433 0512 38BD     		pop	{r3, r4, r5, pc}
 1434              	.LVL98:
 1435              	.L171:
 1436              		.loc 1 651 7 is_stmt 1 view .LVU532
 1437              		.loc 1 651 18 is_stmt 0 view .LVU533
 1438 0514 C868     		ldr	r0, [r1, #12]
 1439              	.LVL99:
 1440              		.loc 1 659 10 view .LVU534
 1441 0516 B2F5807F 		cmp	r2, #256
 1442              		.loc 1 651 18 view .LVU535
 1443 051a 40F40040 		orr	r0, r0, #32768
 1444 051e C860     		str	r0, [r1, #12]
 1445              		.loc 1 654 7 is_stmt 1 view .LVU536
 1446              		.loc 1 654 19 is_stmt 0 view .LVU537
 1447 0520 4869     		ldr	r0, [r1, #20]
 1448 0522 40F0C050 		orr	r0, r0, #402653184
 1449 0526 4861     		str	r0, [r1, #20]
 1450              		.loc 1 657 7 is_stmt 1 view .LVU538
 1451              		.loc 1 657 21 is_stmt 0 view .LVU539
 1452 0528 086D     		ldr	r0, [r1, #80]
 1453 052a 43EA0003 		orr	r3, r3, r0
 1454 052e 43F40033 		orr	r3, r3, #131072
 1455 0532 0B65     		str	r3, [r1, #80]
 1456              		.loc 1 659 7 is_stmt 1 view .LVU540
 1457              		.loc 1 659 10 is_stmt 0 view .LVU541
 1458 0534 3DD0     		beq	.L174
 1459              		.loc 1 670 12 is_stmt 1 view .LVU542
 1460              		.loc 1 670 15 is_stmt 0 view .LVU543
 1461 0536 2D4B     		ldr	r3, .L176+4
 1462 0538 9A42     		cmp	r2, r3
 1463 053a 50D0     		beq	.L175
 1464              		.loc 1 678 9 is_stmt 1 view .LVU544
 1465 053c D5E90523 		ldrd	r2, r3, [r5, #20]
 1466              	.LVL100:
 1467              	.LBB126:
 1468              	.LBI126:
 1469              		.loc 1 1647 13 view .LVU545
 1470              	.LBB127:
 1471              		.loc 1 1649 3 view .LVU546
 1472              		.loc 1 1651 5 view .LVU547
 1473              		.loc 1 1652 5 view .LVU548
 1474              		.loc 1 1655 5 view .LVU549
 1475              		.loc 1 1655 21 is_stmt 0 view .LVU550
ARM GAS  /tmp/ccPLs8VZ.s 			page 27


 1476 0540 4A65     		str	r2, [r1, #84]
 1477              		.loc 1 1656 5 is_stmt 1 view .LVU551
 1478              		.loc 1 1656 21 is_stmt 0 view .LVU552
 1479 0542 8B65     		str	r3, [r1, #88]
 1480              	.LVL101:
 1481              	.L158:
 1482              		.loc 1 1656 21 view .LVU553
 1483              	.LBE127:
 1484              	.LBE126:
 1485              		.loc 1 682 7 is_stmt 1 view .LVU554
 1486              		.loc 1 682 21 is_stmt 0 view .LVU555
 1487 0544 284D     		ldr	r5, .L176
 1488              	.LVL102:
 1489              		.loc 1 685 16 view .LVU556
 1490 0546 0121     		movs	r1, #1
 1491 0548 4CF25030 		movw	r0, #50000
 1492              		.loc 1 682 21 view .LVU557
 1493 054c 2B6D     		ldr	r3, [r5, #80]
 1494 054e 43F48033 		orr	r3, r3, #65536
 1495 0552 2B65     		str	r3, [r5, #80]
 1496              		.loc 1 685 7 is_stmt 1 view .LVU558
 1497              		.loc 1 685 16 is_stmt 0 view .LVU559
 1498 0554 FFF7FEFF 		bl	FLASH_CRC_WaitForLastOperation
 1499              	.LVL103:
 1500              		.loc 1 688 7 is_stmt 1 view .LVU560
 1501              		.loc 1 688 28 is_stmt 0 view .LVU561
 1502 0558 EB6D     		ldr	r3, [r5, #92]
 1503              		.loc 1 694 7 view .LVU562
 1504 055a 4FF0C052 		mov	r2, #402653184
 1505              		.loc 1 688 21 view .LVU563
 1506 055e 2360     		str	r3, [r4]
 1507              		.loc 1 691 7 is_stmt 1 view .LVU564
 1508              		.loc 1 691 18 is_stmt 0 view .LVU565
 1509 0560 EB68     		ldr	r3, [r5, #12]
 1510 0562 23F40043 		bic	r3, r3, #32768
 1511 0566 EB60     		str	r3, [r5, #12]
 1512              		.loc 1 694 7 is_stmt 1 view .LVU566
 1513 0568 6A61     		str	r2, [r5, #20]
 1514              		.loc 1 746 3 view .LVU567
 1515              		.loc 1 747 1 is_stmt 0 view .LVU568
 1516 056a 38BD     		pop	{r3, r4, r5, pc}
 1517              	.LVL104:
 1518              	.L173:
 1519              		.loc 1 721 9 is_stmt 1 view .LVU569
 1520              		.loc 1 721 23 is_stmt 0 view .LVU570
 1521 056c D1F85031 		ldr	r3, [r1, #336]
 1522 0570 43F48003 		orr	r3, r3, #4194304
 1523 0574 C1F85031 		str	r3, [r1, #336]
 1524 0578 B3E7     		b	.L163
 1525              	.L172:
 1526              		.loc 1 710 9 is_stmt 1 view .LVU571
 1527              		.loc 1 710 23 is_stmt 0 view .LVU572
 1528 057a D1F85031 		ldr	r3, [r1, #336]
 1529 057e 43F48063 		orr	r3, r3, #1024
 1530 0582 C1F85031 		str	r3, [r1, #336]
 1531              		.loc 1 713 9 is_stmt 1 view .LVU573
 1532              		.loc 1 713 82 is_stmt 0 view .LVU574
ARM GAS  /tmp/ccPLs8VZ.s 			page 28


 1533 0586 D5E90320 		ldrd	r2, r0, [r5, #12]
 1534 058a 1044     		add	r0, r0, r2
 1535              		.loc 1 713 9 view .LVU575
 1536 058c 8242     		cmp	r2, r0
 1537 058e A8D2     		bcs	.L163
 1538              	.L162:
 1539              	.LVL105:
 1540              		.loc 1 715 11 is_stmt 1 view .LVU576
 1541              	.LBB128:
 1542              	.LBI128:
 1543              		.loc 1 1617 13 view .LVU577
 1544              	.LBB129:
 1545              		.loc 1 1620 3 view .LVU578
 1546              		.loc 1 1622 3 view .LVU579
 1547              		.loc 1 1633 5 view .LVU580
 1548              		.loc 1 1633 19 is_stmt 0 view .LVU581
 1549 0590 D1F85031 		ldr	r3, [r1, #336]
 1550 0594 23F00703 		bic	r3, r3, #7
 1551 0598 C1F85031 		str	r3, [r1, #336]
 1552              		.loc 1 1636 5 is_stmt 1 view .LVU582
 1553              		.loc 1 1636 19 is_stmt 0 view .LVU583
 1554 059c D1F85031 		ldr	r3, [r1, #336]
 1555 05a0 1343     		orrs	r3, r3, r2
 1556              	.LBE129:
 1557              	.LBE128:
 1558              		.loc 1 713 115 view .LVU584
 1559 05a2 0132     		adds	r2, r2, #1
 1560              	.LVL106:
 1561              	.LBB132:
 1562              	.LBB130:
 1563              		.loc 1 1636 19 view .LVU585
 1564 05a4 43F40073 		orr	r3, r3, #512
 1565              	.LBE130:
 1566              	.LBE132:
 1567              		.loc 1 713 9 view .LVU586
 1568 05a8 8242     		cmp	r2, r0
 1569              	.LBB133:
 1570              	.LBB131:
 1571              		.loc 1 1636 19 view .LVU587
 1572 05aa C1F85031 		str	r3, [r1, #336]
 1573              	.LVL107:
 1574              		.loc 1 1636 19 view .LVU588
 1575              	.LBE131:
 1576              	.LBE133:
 1577              		.loc 1 713 9 view .LVU589
 1578 05ae EFD1     		bne	.L162
 1579 05b0 97E7     		b	.L163
 1580              	.LVL108:
 1581              	.L174:
 1582              		.loc 1 662 9 is_stmt 1 view .LVU590
 1583              		.loc 1 662 23 is_stmt 0 view .LVU591
 1584 05b2 0B6D     		ldr	r3, [r1, #80]
 1585 05b4 43F48063 		orr	r3, r3, #1024
 1586 05b8 0B65     		str	r3, [r1, #80]
 1587              		.loc 1 665 9 is_stmt 1 view .LVU592
 1588              		.loc 1 665 82 is_stmt 0 view .LVU593
 1589 05ba D5E90320 		ldrd	r2, r0, [r5, #12]
ARM GAS  /tmp/ccPLs8VZ.s 			page 29


 1590 05be 1044     		add	r0, r0, r2
 1591              		.loc 1 665 9 view .LVU594
 1592 05c0 8242     		cmp	r2, r0
 1593 05c2 BFD2     		bcs	.L158
 1594              	.L157:
 1595              	.LVL109:
 1596              		.loc 1 667 11 is_stmt 1 view .LVU595
 1597              	.LBB134:
 1598              	.LBI134:
 1599              		.loc 1 1617 13 view .LVU596
 1600              	.LBE134:
 1601              		.loc 1 1620 3 view .LVU597
 1602              		.loc 1 1622 3 view .LVU598
 1603              	.LBB141:
 1604              	.LBB135:
 1605              	.LBI135:
 1606              		.loc 1 1617 13 view .LVU599
 1607              	.LBB136:
 1608              		.loc 1 1625 5 view .LVU600
 1609              		.loc 1 1625 19 is_stmt 0 view .LVU601
 1610 05c4 0B6D     		ldr	r3, [r1, #80]
 1611 05c6 23F00703 		bic	r3, r3, #7
 1612 05ca 0B65     		str	r3, [r1, #80]
 1613              		.loc 1 1628 5 is_stmt 1 view .LVU602
 1614              		.loc 1 1628 19 is_stmt 0 view .LVU603
 1615 05cc 0B6D     		ldr	r3, [r1, #80]
 1616 05ce 1343     		orrs	r3, r3, r2
 1617              	.LBE136:
 1618              	.LBE135:
 1619              	.LBE141:
 1620              		.loc 1 665 115 view .LVU604
 1621 05d0 0132     		adds	r2, r2, #1
 1622              	.LVL110:
 1623              	.LBB142:
 1624              	.LBB139:
 1625              	.LBB137:
 1626              		.loc 1 1628 19 view .LVU605
 1627 05d2 43F40073 		orr	r3, r3, #512
 1628              	.LBE137:
 1629              	.LBE139:
 1630              	.LBE142:
 1631              		.loc 1 665 9 view .LVU606
 1632 05d6 8242     		cmp	r2, r0
 1633              	.LBB143:
 1634              	.LBB140:
 1635              	.LBB138:
 1636              		.loc 1 1628 19 view .LVU607
 1637 05d8 0B65     		str	r3, [r1, #80]
 1638              	.LVL111:
 1639              		.loc 1 1628 19 view .LVU608
 1640              	.LBE138:
 1641              	.LBE140:
 1642              	.LBE143:
 1643              		.loc 1 665 9 view .LVU609
 1644 05da F3D1     		bne	.L157
 1645 05dc B2E7     		b	.L158
 1646              	.LVL112:
ARM GAS  /tmp/ccPLs8VZ.s 			page 30


 1647              	.L175:
 1648              		.loc 1 673 9 is_stmt 1 view .LVU610
 1649              		.loc 1 673 23 is_stmt 0 view .LVU611
 1650 05de 0B6D     		ldr	r3, [r1, #80]
 1651 05e0 43F48003 		orr	r3, r3, #4194304
 1652 05e4 0B65     		str	r3, [r1, #80]
 1653 05e6 ADE7     		b	.L158
 1654              	.L177:
 1655              		.align	2
 1656              	.L176:
 1657 05e8 00200052 		.word	1375739904
 1658 05ec 00014000 		.word	4194560
 1659              		.cfi_endproc
 1660              	.LFE149:
 1661              		.size	HAL_FLASHEx_ComputeCRC, .-HAL_FLASHEx_ComputeCRC
 1662              		.align	1
 1663              		.p2align 4,,15
 1664              		.global	FLASH_Erase_Sector
 1665              		.syntax unified
 1666              		.thumb
 1667              		.thumb_func
 1668              		.fpu fpv4-sp-d16
 1669              		.type	FLASH_Erase_Sector, %function
 1670              	FLASH_Erase_Sector:
 1671              	.LVL113:
 1672              	.LFB151:
 1673              		.loc 1 853 1 is_stmt 1 view -0
 1674              		.cfi_startproc
 1675              		@ args = 0, pretend = 0, frame = 0
 1676              		@ frame_needed = 0, uses_anonymous_args = 0
 1677              		@ link register save eliminated.
 1678              		.loc 1 854 3 view .LVU613
 1679              		.loc 1 855 3 view .LVU614
 1680              		.loc 1 857 3 view .LVU615
 1681              		.loc 1 862 3 view .LVU616
 1682              		.loc 1 853 1 is_stmt 0 view .LVU617
 1683 05f0 30B4     		push	{r4, r5}
 1684              		.cfi_def_cfa_offset 8
 1685              		.cfi_offset 4, -8
 1686              		.cfi_offset 5, -4
 1687              		.loc 1 862 5 view .LVU618
 1688 05f2 CC07     		lsls	r4, r1, #31
 1689 05f4 0BD5     		bpl	.L179
 1690              		.loc 1 866 5 is_stmt 1 view .LVU619
 1691              		.loc 1 866 16 is_stmt 0 view .LVU620
 1692 05f6 104D     		ldr	r5, .L188
 1693 05f8 EB68     		ldr	r3, [r5, #12]
 1694 05fa 23F4E663 		bic	r3, r3, #1840
 1695 05fe EB60     		str	r3, [r5, #12]
 1696              		.loc 1 868 5 is_stmt 1 view .LVU621
 1697              		.loc 1 868 16 is_stmt 0 view .LVU622
 1698 0600 EC68     		ldr	r4, [r5, #12]
 1699 0602 44EA0024 		orr	r4, r4, r0, lsl #8
 1700 0606 1443     		orrs	r4, r4, r2
 1701 0608 44F08404 		orr	r4, r4, #132
 1702 060c EC60     		str	r4, [r5, #12]
 1703              	.L179:
ARM GAS  /tmp/ccPLs8VZ.s 			page 31


 1704              		.loc 1 877 3 is_stmt 1 view .LVU623
 1705              		.loc 1 877 5 is_stmt 0 view .LVU624
 1706 060e 8B07     		lsls	r3, r1, #30
 1707 0610 0FD5     		bpl	.L178
 1708              	.LVL114:
 1709              	.LBB146:
 1710              	.LBI146:
 1711              		.loc 1 852 6 is_stmt 1 view .LVU625
 1712              	.LBB147:
 1713              		.loc 1 881 5 view .LVU626
 1714              		.loc 1 881 16 is_stmt 0 view .LVU627
 1715 0612 0949     		ldr	r1, .L188
 1716              	.LVL115:
 1717              		.loc 1 881 16 view .LVU628
 1718 0614 D1F80C31 		ldr	r3, [r1, #268]
 1719 0618 23F4E663 		bic	r3, r3, #1840
 1720 061c C1F80C31 		str	r3, [r1, #268]
 1721              		.loc 1 883 5 is_stmt 1 view .LVU629
 1722              		.loc 1 883 16 is_stmt 0 view .LVU630
 1723 0620 D1F80C31 		ldr	r3, [r1, #268]
 1724 0624 43EA0023 		orr	r3, r3, r0, lsl #8
 1725 0628 1343     		orrs	r3, r3, r2
 1726 062a 43F08403 		orr	r3, r3, #132
 1727 062e C1F80C31 		str	r3, [r1, #268]
 1728              	.LVL116:
 1729              	.L178:
 1730              		.loc 1 883 16 view .LVU631
 1731              	.LBE147:
 1732              	.LBE146:
 1733              		.loc 1 891 1 view .LVU632
 1734 0632 30BC     		pop	{r4, r5}
 1735              		.cfi_restore 5
 1736              		.cfi_restore 4
 1737              		.cfi_def_cfa_offset 0
 1738 0634 7047     		bx	lr
 1739              	.L189:
 1740 0636 00BF     		.align	2
 1741              	.L188:
 1742 0638 00200052 		.word	1375739904
 1743              		.cfi_endproc
 1744              	.LFE151:
 1745              		.size	FLASH_Erase_Sector, .-FLASH_Erase_Sector
 1746              		.align	1
 1747 063c AFF30080 		.p2align 4,,15
 1748              		.global	HAL_FLASHEx_Erase
 1749              		.syntax unified
 1750              		.thumb
 1751              		.thumb_func
 1752              		.fpu fpv4-sp-d16
 1753              		.type	HAL_FLASHEx_Erase, %function
 1754              	HAL_FLASHEx_Erase:
 1755              	.LVL117:
 1756              	.LFB141:
 1757              		.loc 1 167 1 is_stmt 1 view -0
 1758              		.cfi_startproc
 1759              		@ args = 0, pretend = 0, frame = 8
 1760              		@ frame_needed = 0, uses_anonymous_args = 0
ARM GAS  /tmp/ccPLs8VZ.s 			page 32


 1761              		.loc 1 168 3 view .LVU634
 1762              		.loc 1 169 3 view .LVU635
 1763              		.loc 1 172 3 view .LVU636
 1764              		.loc 1 173 3 view .LVU637
 1765              		.loc 1 176 3 view .LVU638
 1766              		.loc 1 176 3 view .LVU639
 1767              		.loc 1 167 1 is_stmt 0 view .LVU640
 1768 0640 2DE9F043 		push	{r4, r5, r6, r7, r8, r9, lr}
 1769              		.cfi_def_cfa_offset 28
 1770              		.cfi_offset 4, -28
 1771              		.cfi_offset 5, -24
 1772              		.cfi_offset 6, -20
 1773              		.cfi_offset 7, -16
 1774              		.cfi_offset 8, -12
 1775              		.cfi_offset 9, -8
 1776              		.cfi_offset 14, -4
 1777              		.loc 1 176 3 view .LVU641
 1778 0644 504E     		ldr	r6, .L236
 1779              		.loc 1 167 1 view .LVU642
 1780 0646 83B0     		sub	sp, sp, #12
 1781              		.cfi_def_cfa_offset 40
 1782              		.loc 1 176 3 view .LVU643
 1783 0648 337D     		ldrb	r3, [r6, #20]	@ zero_extendqisi2
 1784 064a 012B     		cmp	r3, #1
 1785 064c 00F08880 		beq	.L208
 1786              		.loc 1 176 3 is_stmt 1 discriminator 2 view .LVU644
 1787              		.loc 1 182 17 is_stmt 0 discriminator 2 view .LVU645
 1788 0650 4268     		ldr	r2, [r0, #4]
 1789 0652 0446     		mov	r4, r0
 1790              		.loc 1 176 3 discriminator 2 view .LVU646
 1791 0654 0125     		movs	r5, #1
 1792              		.loc 1 179 20 discriminator 2 view .LVU647
 1793 0656 0023     		movs	r3, #0
 1794              		.loc 1 182 5 discriminator 2 view .LVU648
 1795 0658 D007     		lsls	r0, r2, #31
 1796              	.LVL118:
 1797              		.loc 1 182 5 discriminator 2 view .LVU649
 1798 065a 8846     		mov	r8, r1
 1799              		.loc 1 176 3 discriminator 2 view .LVU650
 1800 065c 3575     		strb	r5, [r6, #20]
 1801              		.loc 1 179 3 is_stmt 1 discriminator 2 view .LVU651
 1802              		.loc 1 179 20 is_stmt 0 discriminator 2 view .LVU652
 1803 065e B361     		str	r3, [r6, #24]
 1804              		.loc 1 182 3 is_stmt 1 discriminator 2 view .LVU653
 1805              		.loc 1 182 5 is_stmt 0 discriminator 2 view .LVU654
 1806 0660 4DD4     		bmi	.L231
 1807              	.LVL119:
 1808              	.L192:
 1809              		.loc 1 191 3 is_stmt 1 view .LVU655
 1810              		.loc 1 191 5 is_stmt 0 view .LVU656
 1811 0662 9207     		lsls	r2, r2, #30
 1812 0664 0CD5     		bpl	.L195
 1813              		.loc 1 193 5 is_stmt 1 view .LVU657
 1814              		.loc 1 193 8 is_stmt 0 view .LVU658
 1815 0666 0221     		movs	r1, #2
 1816 0668 4CF25030 		movw	r0, #50000
 1817 066c FFF7FEFF 		bl	FLASH_WaitForLastOperation
ARM GAS  /tmp/ccPLs8VZ.s 			page 33


 1818              	.LVL120:
 1819              		.loc 1 193 7 view .LVU659
 1820 0670 30B1     		cbz	r0, .L195
 1821              	.LVL121:
 1822              	.L207:
 1823              		.loc 1 195 14 view .LVU660
 1824 0672 0123     		movs	r3, #1
 1825              	.L194:
 1826              	.LVL122:
 1827              		.loc 1 264 3 is_stmt 1 view .LVU661
 1828              		.loc 1 264 3 view .LVU662
 1829 0674 0022     		movs	r2, #0
 1830              		.loc 1 267 1 is_stmt 0 view .LVU663
 1831 0676 1846     		mov	r0, r3
 1832              		.loc 1 264 3 view .LVU664
 1833 0678 3275     		strb	r2, [r6, #20]
 1834              		.loc 1 266 3 is_stmt 1 view .LVU665
 1835              		.loc 1 267 1 is_stmt 0 view .LVU666
 1836 067a 03B0     		add	sp, sp, #12
 1837              		.cfi_remember_state
 1838              		.cfi_def_cfa_offset 28
 1839              		@ sp needed
 1840 067c BDE8F083 		pop	{r4, r5, r6, r7, r8, r9, pc}
 1841              	.LVL123:
 1842              	.L195:
 1843              		.cfi_restore_state
 1844              		.loc 1 201 5 is_stmt 1 view .LVU667
 1845              		.loc 1 201 7 is_stmt 0 view .LVU668
 1846 0680 2568     		ldr	r5, [r4]
 1847 0682 012D     		cmp	r5, #1
 1848 0684 4ED0     		beq	.L232
 1849              		.loc 1 229 7 is_stmt 1 view .LVU669
 1850              		.loc 1 229 20 is_stmt 0 view .LVU670
 1851 0686 4FF0FF33 		mov	r3, #-1
 1852 068a C8F80030 		str	r3, [r8]
 1853              		.loc 1 232 7 is_stmt 1 view .LVU671
 1854              		.loc 1 232 84 is_stmt 0 view .LVU672
 1855 068e D4E90253 		ldrd	r5, r3, [r4, #8]
 1856 0692 2B44     		add	r3, r3, r5
 1857              		.loc 1 232 7 view .LVU673
 1858 0694 9D42     		cmp	r5, r3
 1859 0696 61D2     		bcs	.L204
 1860              		.loc 1 242 22 view .LVU674
 1861 0698 3C4F     		ldr	r7, .L236+4
 1862 069a DFF8F490 		ldr	r9, .L236+8
 1863 069e 07E0     		b	.L199
 1864              	.LVL124:
 1865              	.L233:
 1866              		.loc 1 244 11 view .LVU675
 1867 06a0 9807     		lsls	r0, r3, #30
 1868              	.LVL125:
 1869              		.loc 1 244 11 view .LVU676
 1870 06a2 1FD4     		bmi	.L203
 1871              	.LVL126:
 1872              	.L201:
 1873              		.loc 1 232 84 view .LVU677
 1874 06a4 E368     		ldr	r3, [r4, #12]
ARM GAS  /tmp/ccPLs8VZ.s 			page 34


 1875              		.loc 1 232 119 view .LVU678
 1876 06a6 0135     		adds	r5, r5, #1
 1877              	.LVL127:
 1878              		.loc 1 232 84 view .LVU679
 1879 06a8 A268     		ldr	r2, [r4, #8]
 1880 06aa 1344     		add	r3, r3, r2
 1881              		.loc 1 232 7 view .LVU680
 1882 06ac AB42     		cmp	r3, r5
 1883 06ae 55D9     		bls	.L204
 1884              	.LVL128:
 1885              	.L199:
 1886              		.loc 1 234 9 is_stmt 1 view .LVU681
 1887 06b0 2269     		ldr	r2, [r4, #16]
 1888 06b2 2846     		mov	r0, r5
 1889 06b4 6168     		ldr	r1, [r4, #4]
 1890 06b6 FFF7FEFF 		bl	FLASH_Erase_Sector
 1891              	.LVL129:
 1892              		.loc 1 236 9 view .LVU682
 1893              		.loc 1 244 9 view .LVU683
 1894              		.loc 1 236 23 is_stmt 0 view .LVU684
 1895 06ba 6368     		ldr	r3, [r4, #4]
 1896              		.loc 1 236 11 view .LVU685
 1897 06bc DA07     		lsls	r2, r3, #31
 1898 06be EFD5     		bpl	.L233
 1899              		.loc 1 239 11 is_stmt 1 view .LVU686
 1900              		.loc 1 239 20 is_stmt 0 view .LVU687
 1901 06c0 0121     		movs	r1, #1
 1902 06c2 4CF25030 		movw	r0, #50000
 1903 06c6 FFF7FEFF 		bl	FLASH_WaitForLastOperation
 1904              	.LVL130:
 1905              		.loc 1 242 22 view .LVU688
 1906 06ca FA68     		ldr	r2, [r7, #12]
 1907              		.loc 1 239 20 view .LVU689
 1908 06cc 0346     		mov	r3, r0
 1909              	.LVL131:
 1910              		.loc 1 242 11 is_stmt 1 view .LVU690
 1911              		.loc 1 242 22 is_stmt 0 view .LVU691
 1912 06ce 02EA0902 		and	r2, r2, r9
 1913 06d2 FA60     		str	r2, [r7, #12]
 1914              		.loc 1 244 9 is_stmt 1 view .LVU692
 1915              		.loc 1 244 31 is_stmt 0 view .LVU693
 1916 06d4 6268     		ldr	r2, [r4, #4]
 1917              		.loc 1 244 11 view .LVU694
 1918 06d6 9107     		lsls	r1, r2, #30
 1919 06d8 04D4     		bmi	.L203
 1920              	.L202:
 1921              		.loc 1 253 9 is_stmt 1 view .LVU695
 1922              		.loc 1 253 11 is_stmt 0 view .LVU696
 1923 06da 002B     		cmp	r3, #0
 1924 06dc E2D0     		beq	.L201
 1925              		.loc 1 256 11 is_stmt 1 view .LVU697
 1926              		.loc 1 256 24 is_stmt 0 view .LVU698
 1927 06de C8F80050 		str	r5, [r8]
 1928              		.loc 1 257 11 is_stmt 1 view .LVU699
 1929 06e2 C7E7     		b	.L194
 1930              	.LVL132:
 1931              	.L203:
ARM GAS  /tmp/ccPLs8VZ.s 			page 35


 1932              		.loc 1 247 11 view .LVU700
 1933              		.loc 1 247 20 is_stmt 0 view .LVU701
 1934 06e4 0221     		movs	r1, #2
 1935 06e6 4CF25030 		movw	r0, #50000
 1936 06ea FFF7FEFF 		bl	FLASH_WaitForLastOperation
 1937              	.LVL133:
 1938              		.loc 1 250 22 view .LVU702
 1939 06ee D7F80C21 		ldr	r2, [r7, #268]
 1940              		.loc 1 247 20 view .LVU703
 1941 06f2 0346     		mov	r3, r0
 1942              	.LVL134:
 1943              		.loc 1 250 11 is_stmt 1 view .LVU704
 1944              		.loc 1 250 22 is_stmt 0 view .LVU705
 1945 06f4 02EA0902 		and	r2, r2, r9
 1946 06f8 C7F80C21 		str	r2, [r7, #268]
 1947 06fc EDE7     		b	.L202
 1948              	.LVL135:
 1949              	.L231:
 1950              		.loc 1 184 5 is_stmt 1 view .LVU706
 1951              		.loc 1 184 8 is_stmt 0 view .LVU707
 1952 06fe 2946     		mov	r1, r5
 1953              	.LVL136:
 1954              		.loc 1 184 8 view .LVU708
 1955 0700 4CF25030 		movw	r0, #50000
 1956 0704 FFF7FEFF 		bl	FLASH_WaitForLastOperation
 1957              	.LVL137:
 1958              		.loc 1 184 7 view .LVU709
 1959 0708 50B1     		cbz	r0, .L234
 1960              		.loc 1 186 7 is_stmt 1 view .LVU710
 1961              	.LVL138:
 1962              		.loc 1 191 3 view .LVU711
 1963              		.loc 1 191 25 is_stmt 0 view .LVU712
 1964 070a 6368     		ldr	r3, [r4, #4]
 1965              		.loc 1 191 5 view .LVU713
 1966 070c 9B07     		lsls	r3, r3, #30
 1967 070e B0D5     		bpl	.L207
 1968              		.loc 1 193 5 is_stmt 1 view .LVU714
 1969              		.loc 1 193 8 is_stmt 0 view .LVU715
 1970 0710 0221     		movs	r1, #2
 1971 0712 4CF25030 		movw	r0, #50000
 1972              		.loc 1 195 14 view .LVU716
 1973 0716 0195     		str	r5, [sp, #4]
 1974              		.loc 1 193 8 view .LVU717
 1975 0718 FFF7FEFF 		bl	FLASH_WaitForLastOperation
 1976              	.LVL139:
 1977 071c 019B     		ldr	r3, [sp, #4]
 1978 071e A9E7     		b	.L194
 1979              	.LVL140:
 1980              	.L234:
 1981              		.loc 1 193 8 view .LVU718
 1982 0720 6268     		ldr	r2, [r4, #4]
 1983 0722 9EE7     		b	.L192
 1984              	.LVL141:
 1985              	.L232:
 1986              		.loc 1 204 7 is_stmt 1 view .LVU719
 1987 0724 6168     		ldr	r1, [r4, #4]
 1988 0726 2069     		ldr	r0, [r4, #16]
ARM GAS  /tmp/ccPLs8VZ.s 			page 36


 1989 0728 FFF76AFC 		bl	FLASH_MassErase
 1990              	.LVL142:
 1991              		.loc 1 207 7 view .LVU720
 1992              		.loc 1 207 21 is_stmt 0 view .LVU721
 1993 072c 6268     		ldr	r2, [r4, #4]
 1994              		.loc 1 207 9 view .LVU722
 1995 072e 12F00103 		ands	r3, r2, #1
 1996 0732 1AD1     		bne	.L235
 1997              	.L197:
 1998              	.LVL143:
 1999              		.loc 1 216 7 is_stmt 1 view .LVU723
 2000              		.loc 1 216 9 is_stmt 0 view .LVU724
 2001 0734 9107     		lsls	r1, r2, #30
 2002 0736 9DD5     		bpl	.L194
 2003              		.loc 1 218 9 is_stmt 1 view .LVU725
 2004              		.loc 1 218 12 is_stmt 0 view .LVU726
 2005 0738 0221     		movs	r1, #2
 2006 073a 4CF25030 		movw	r0, #50000
 2007 073e 0193     		str	r3, [sp, #4]
 2008 0740 FFF7FEFF 		bl	FLASH_WaitForLastOperation
 2009              	.LVL144:
 2010              		.loc 1 223 20 view .LVU727
 2011 0744 1149     		ldr	r1, .L236+4
 2012              		.loc 1 220 18 view .LVU728
 2013 0746 0028     		cmp	r0, #0
 2014 0748 019B     		ldr	r3, [sp, #4]
 2015              		.loc 1 223 20 view .LVU729
 2016 074a D1F80C21 		ldr	r2, [r1, #268]
 2017              		.loc 1 220 18 view .LVU730
 2018 074e 18BF     		it	ne
 2019 0750 0123     		movne	r3, #1
 2020              	.LVL145:
 2021              		.loc 1 223 9 is_stmt 1 view .LVU731
 2022              		.loc 1 223 20 is_stmt 0 view .LVU732
 2023 0752 22F00802 		bic	r2, r2, #8
 2024 0756 C1F80C21 		str	r2, [r1, #268]
 2025 075a 8BE7     		b	.L194
 2026              	.LVL146:
 2027              	.L204:
 2028              		.loc 1 195 14 view .LVU733
 2029 075c 0023     		movs	r3, #0
 2030 075e 89E7     		b	.L194
 2031              	.LVL147:
 2032              	.L208:
 2033              		.loc 1 176 3 view .LVU734
 2034 0760 0223     		movs	r3, #2
 2035              		.loc 1 267 1 view .LVU735
 2036 0762 1846     		mov	r0, r3
 2037              	.LVL148:
 2038              		.loc 1 267 1 view .LVU736
 2039 0764 03B0     		add	sp, sp, #12
 2040              		.cfi_remember_state
 2041              		.cfi_def_cfa_offset 28
 2042              		@ sp needed
 2043 0766 BDE8F083 		pop	{r4, r5, r6, r7, r8, r9, pc}
 2044              	.LVL149:
 2045              	.L235:
ARM GAS  /tmp/ccPLs8VZ.s 			page 37


 2046              		.cfi_restore_state
 2047              		.loc 1 209 9 is_stmt 1 view .LVU737
 2048              		.loc 1 209 12 is_stmt 0 view .LVU738
 2049 076a 2946     		mov	r1, r5
 2050 076c 4CF25030 		movw	r0, #50000
 2051 0770 FFF7FEFF 		bl	FLASH_WaitForLastOperation
 2052              	.LVL150:
 2053              		.loc 1 214 20 view .LVU739
 2054 0774 0549     		ldr	r1, .L236+4
 2055              		.loc 1 211 18 view .LVU740
 2056 0776 031C     		adds	r3, r0, #0
 2057              		.loc 1 214 20 view .LVU741
 2058 0778 CA68     		ldr	r2, [r1, #12]
 2059              		.loc 1 211 18 view .LVU742
 2060 077a 18BF     		it	ne
 2061 077c 0123     		movne	r3, #1
 2062              	.LVL151:
 2063              		.loc 1 214 9 is_stmt 1 view .LVU743
 2064              		.loc 1 214 20 is_stmt 0 view .LVU744
 2065 077e 22F00802 		bic	r2, r2, #8
 2066 0782 CA60     		str	r2, [r1, #12]
 2067 0784 6268     		ldr	r2, [r4, #4]
 2068 0786 D5E7     		b	.L197
 2069              	.L237:
 2070              		.align	2
 2071              	.L236:
 2072 0788 00000000 		.word	pFlash
 2073 078c 00200052 		.word	1375739904
 2074 0790 FBF8FFFF 		.word	-1797
 2075              		.cfi_endproc
 2076              	.LFE141:
 2077              		.size	HAL_FLASHEx_Erase, .-HAL_FLASHEx_Erase
 2078              		.align	1
 2079 0794 AFF30080 		.p2align 4,,15
 2079      AFF30080 
 2079      AFF30080 
 2080              		.global	HAL_FLASHEx_Erase_IT
 2081              		.syntax unified
 2082              		.thumb
 2083              		.thumb_func
 2084              		.fpu fpv4-sp-d16
 2085              		.type	HAL_FLASHEx_Erase_IT, %function
 2086              	HAL_FLASHEx_Erase_IT:
 2087              	.LVL152:
 2088              	.LFB142:
 2089              		.loc 1 277 1 is_stmt 1 view -0
 2090              		.cfi_startproc
 2091              		@ args = 0, pretend = 0, frame = 0
 2092              		@ frame_needed = 0, uses_anonymous_args = 0
 2093              		.loc 1 278 3 view .LVU746
 2094              		.loc 1 281 3 view .LVU747
 2095              		.loc 1 282 3 view .LVU748
 2096              		.loc 1 285 3 view .LVU749
 2097              		.loc 1 285 3 view .LVU750
 2098              		.loc 1 277 1 is_stmt 0 view .LVU751
 2099 07a0 70B5     		push	{r4, r5, r6, lr}
 2100              		.cfi_def_cfa_offset 16
ARM GAS  /tmp/ccPLs8VZ.s 			page 38


 2101              		.cfi_offset 4, -16
 2102              		.cfi_offset 5, -12
 2103              		.cfi_offset 6, -8
 2104              		.cfi_offset 14, -4
 2105              		.loc 1 285 3 view .LVU752
 2106 07a2 384D     		ldr	r5, .L276
 2107 07a4 2B7D     		ldrb	r3, [r5, #20]	@ zero_extendqisi2
 2108 07a6 012B     		cmp	r3, #1
 2109 07a8 60D0     		beq	.L256
 2110              		.loc 1 285 3 is_stmt 1 discriminator 2 view .LVU753
 2111              		.loc 1 291 17 is_stmt 0 discriminator 2 view .LVU754
 2112 07aa 4168     		ldr	r1, [r0, #4]
 2113              		.loc 1 288 20 discriminator 2 view .LVU755
 2114 07ac 0022     		movs	r2, #0
 2115 07ae 0446     		mov	r4, r0
 2116              		.loc 1 285 3 discriminator 2 view .LVU756
 2117 07b0 0123     		movs	r3, #1
 2118              		.loc 1 291 5 discriminator 2 view .LVU757
 2119 07b2 C807     		lsls	r0, r1, #31
 2120              	.LVL153:
 2121              		.loc 1 288 20 discriminator 2 view .LVU758
 2122 07b4 AA61     		str	r2, [r5, #24]
 2123              		.loc 1 285 3 discriminator 2 view .LVU759
 2124 07b6 2B75     		strb	r3, [r5, #20]
 2125              		.loc 1 288 3 is_stmt 1 discriminator 2 view .LVU760
 2126              		.loc 1 291 3 discriminator 2 view .LVU761
 2127              		.loc 1 291 17 is_stmt 0 discriminator 2 view .LVU762
 2128 07b8 0A46     		mov	r2, r1
 2129              		.loc 1 291 5 discriminator 2 view .LVU763
 2130 07ba 2DD4     		bmi	.L270
 2131              		.loc 1 299 3 is_stmt 1 view .LVU764
 2132              		.loc 1 299 5 is_stmt 0 view .LVU765
 2133 07bc 8B07     		lsls	r3, r1, #30
 2134 07be 18D5     		bpl	.L247
 2135              	.L242:
 2136              		.loc 1 301 5 is_stmt 1 view .LVU766
 2137              		.loc 1 301 8 is_stmt 0 view .LVU767
 2138 07c0 0221     		movs	r1, #2
 2139 07c2 4CF25030 		movw	r0, #50000
 2140 07c6 FFF7FEFF 		bl	FLASH_WaitForLastOperation
 2141              	.LVL154:
 2142              		.loc 1 301 7 view .LVU768
 2143 07ca 70BB     		cbnz	r0, .L244
 2144              	.LVL155:
 2145              		.loc 1 314 5 is_stmt 1 view .LVU769
 2146              		.loc 1 314 19 is_stmt 0 view .LVU770
 2147 07cc 6268     		ldr	r2, [r4, #4]
 2148              		.loc 1 314 7 view .LVU771
 2149 07ce D607     		lsls	r6, r2, #31
 2150 07d0 02F00200 		and	r0, r2, #2
 2151 07d4 04D5     		bpl	.L246
 2152              		.loc 1 318 7 is_stmt 1 view .LVU772
 2153 07d6 2C49     		ldr	r1, .L276+4
 2154 07d8 CB68     		ldr	r3, [r1, #12]
 2155 07da 43F4DE03 		orr	r3, r3, #7274496
 2156 07de CB60     		str	r3, [r1, #12]
 2157              	.L246:
ARM GAS  /tmp/ccPLs8VZ.s 			page 39


 2158              		.loc 1 325 5 view .LVU773
 2159              		.loc 1 325 7 is_stmt 0 view .LVU774
 2160 07e0 30B1     		cbz	r0, .L269
 2161              		.loc 1 329 7 is_stmt 1 view .LVU775
 2162 07e2 2949     		ldr	r1, .L276+4
 2163 07e4 D1F80C31 		ldr	r3, [r1, #268]
 2164 07e8 43F4DE03 		orr	r3, r3, #7274496
 2165 07ec C1F80C31 		str	r3, [r1, #268]
 2166              	.L269:
 2167 07f0 6168     		ldr	r1, [r4, #4]
 2168              	.L247:
 2169              		.loc 1 337 5 view .LVU776
 2170              		.loc 1 337 7 is_stmt 0 view .LVU777
 2171 07f2 2368     		ldr	r3, [r4]
 2172 07f4 012B     		cmp	r3, #1
 2173 07f6 2BD0     		beq	.L271
 2174              	.L248:
 2175              		.loc 1 358 7 is_stmt 1 view .LVU778
 2176              		.loc 1 358 9 is_stmt 0 view .LVU779
 2177 07f8 012A     		cmp	r2, #1
 2178 07fa 35D0     		beq	.L272
 2179              		.loc 1 364 9 is_stmt 1 view .LVU780
 2180              		.loc 1 364 33 is_stmt 0 view .LVU781
 2181 07fc 0423     		movs	r3, #4
 2182 07fe 2B70     		strb	r3, [r5]
 2183              	.L253:
 2184              		.loc 1 367 7 is_stmt 1 view .LVU782
 2185              		.loc 1 368 33 is_stmt 0 view .LVU783
 2186 0800 A668     		ldr	r6, [r4, #8]
 2187              		.loc 1 367 43 view .LVU784
 2188 0802 D4E90343 		ldrd	r4, r3, [r4, #12]
 2189              	.LVL156:
 2190              		.loc 1 372 7 view .LVU785
 2191 0806 3046     		mov	r0, r6
 2192 0808 1A46     		mov	r2, r3
 2193              		.loc 1 367 31 view .LVU786
 2194 080a 6C60     		str	r4, [r5, #4]
 2195              		.loc 1 368 7 is_stmt 1 view .LVU787
 2196              		.loc 1 368 21 is_stmt 0 view .LVU788
 2197 080c EE60     		str	r6, [r5, #12]
 2198              		.loc 1 369 7 is_stmt 1 view .LVU789
 2199              		.loc 1 369 30 is_stmt 0 view .LVU790
 2200 080e AB60     		str	r3, [r5, #8]
 2201              		.loc 1 372 7 is_stmt 1 view .LVU791
 2202 0810 FFF7FEFF 		bl	FLASH_Erase_Sector
 2203              	.LVL157:
 2204 0814 0020     		movs	r0, #0
 2205              		.loc 1 377 1 is_stmt 0 view .LVU792
 2206 0816 70BD     		pop	{r4, r5, r6, pc}
 2207              	.LVL158:
 2208              	.L270:
 2209              		.loc 1 293 5 is_stmt 1 view .LVU793
 2210              		.loc 1 293 8 is_stmt 0 view .LVU794
 2211 0818 1946     		mov	r1, r3
 2212 081a 4CF25030 		movw	r0, #50000
 2213 081e FFF7FEFF 		bl	FLASH_WaitForLastOperation
 2214              	.LVL159:
ARM GAS  /tmp/ccPLs8VZ.s 			page 40


 2215              		.loc 1 293 7 view .LVU795
 2216 0822 30B1     		cbz	r0, .L273
 2217              		.loc 1 295 7 is_stmt 1 view .LVU796
 2218              	.LVL160:
 2219              		.loc 1 299 3 view .LVU797
 2220              		.loc 1 299 25 is_stmt 0 view .LVU798
 2221 0824 6368     		ldr	r3, [r4, #4]
 2222              		.loc 1 299 5 view .LVU799
 2223 0826 9C07     		lsls	r4, r3, #30
 2224              	.LVL161:
 2225              		.loc 1 299 5 view .LVU800
 2226 0828 25D4     		bmi	.L274
 2227              	.LVL162:
 2228              	.L244:
 2229              		.loc 1 310 5 is_stmt 1 view .LVU801
 2230              		.loc 1 310 5 view .LVU802
 2231 082a 0023     		movs	r3, #0
 2232 082c 0120     		movs	r0, #1
 2233 082e 2B75     		strb	r3, [r5, #20]
 2234              		.loc 1 377 1 is_stmt 0 view .LVU803
 2235 0830 70BD     		pop	{r4, r5, r6, pc}
 2236              	.LVL163:
 2237              	.L273:
 2238              		.loc 1 377 1 view .LVU804
 2239 0832 6168     		ldr	r1, [r4, #4]
 2240              		.loc 1 299 5 view .LVU805
 2241 0834 8B07     		lsls	r3, r1, #30
 2242 0836 0A46     		mov	r2, r1
 2243              		.loc 1 299 3 is_stmt 1 view .LVU806
 2244              		.loc 1 299 5 is_stmt 0 view .LVU807
 2245 0838 C2D4     		bmi	.L242
 2246              	.LVL164:
 2247              		.loc 1 314 5 is_stmt 1 view .LVU808
 2248              		.loc 1 314 7 is_stmt 0 view .LVU809
 2249 083a C807     		lsls	r0, r1, #31
 2250 083c D9D5     		bpl	.L247
 2251              		.loc 1 318 7 is_stmt 1 view .LVU810
 2252 083e 1249     		ldr	r1, .L276+4
 2253 0840 CB68     		ldr	r3, [r1, #12]
 2254 0842 43F4DE03 		orr	r3, r3, #7274496
 2255 0846 CB60     		str	r3, [r1, #12]
 2256              		.loc 1 325 5 view .LVU811
 2257              		.loc 1 337 7 is_stmt 0 view .LVU812
 2258 0848 2368     		ldr	r3, [r4]
 2259 084a 6168     		ldr	r1, [r4, #4]
 2260              		.loc 1 337 5 is_stmt 1 view .LVU813
 2261              		.loc 1 337 7 is_stmt 0 view .LVU814
 2262 084c 012B     		cmp	r3, #1
 2263 084e D3D1     		bne	.L248
 2264              	.L271:
 2265              		.loc 1 340 7 is_stmt 1 view .LVU815
 2266              		.loc 1 340 9 is_stmt 0 view .LVU816
 2267 0850 012A     		cmp	r2, #1
 2268 0852 0DD0     		beq	.L275
 2269              		.loc 1 344 12 is_stmt 1 view .LVU817
 2270              		.loc 1 344 14 is_stmt 0 view .LVU818
 2271 0854 022A     		cmp	r2, #2
ARM GAS  /tmp/ccPLs8VZ.s 			page 41


 2272              		.loc 1 346 9 is_stmt 1 view .LVU819
 2273              		.loc 1 346 33 is_stmt 0 view .LVU820
 2274 0856 0CBF     		ite	eq
 2275 0858 0523     		moveq	r3, #5
 2276              		.loc 1 350 9 is_stmt 1 view .LVU821
 2277              		.loc 1 350 33 is_stmt 0 view .LVU822
 2278 085a 0723     		movne	r3, #7
 2279 085c 2B70     		strb	r3, [r5]
 2280              	.L250:
 2281              		.loc 1 353 7 is_stmt 1 view .LVU823
 2282 085e 2069     		ldr	r0, [r4, #16]
 2283 0860 FFF7CEFB 		bl	FLASH_MassErase
 2284              	.LVL165:
 2285 0864 0020     		movs	r0, #0
 2286              		.loc 1 377 1 is_stmt 0 view .LVU824
 2287 0866 70BD     		pop	{r4, r5, r6, pc}
 2288              	.LVL166:
 2289              	.L272:
 2290              		.loc 1 360 9 is_stmt 1 view .LVU825
 2291              		.loc 1 360 33 is_stmt 0 view .LVU826
 2292 0868 2A70     		strb	r2, [r5]
 2293 086a C9E7     		b	.L253
 2294              	.LVL167:
 2295              	.L256:
 2296              		.loc 1 285 3 view .LVU827
 2297 086c 0220     		movs	r0, #2
 2298              	.LVL168:
 2299              		.loc 1 377 1 view .LVU828
 2300 086e 70BD     		pop	{r4, r5, r6, pc}
 2301              	.LVL169:
 2302              	.L275:
 2303              		.loc 1 342 9 is_stmt 1 view .LVU829
 2304              		.loc 1 342 33 is_stmt 0 view .LVU830
 2305 0870 0223     		movs	r3, #2
 2306 0872 2B70     		strb	r3, [r5]
 2307 0874 F3E7     		b	.L250
 2308              	.LVL170:
 2309              	.L274:
 2310              		.loc 1 301 5 is_stmt 1 view .LVU831
 2311              		.loc 1 301 8 is_stmt 0 view .LVU832
 2312 0876 0221     		movs	r1, #2
 2313 0878 4CF25030 		movw	r0, #50000
 2314 087c FFF7FEFF 		bl	FLASH_WaitForLastOperation
 2315              	.LVL171:
 2316 0880 D3E7     		b	.L244
 2317              	.L277:
 2318 0882 00BF     		.align	2
 2319              	.L276:
 2320 0884 00000000 		.word	pFlash
 2321 0888 00200052 		.word	1375739904
 2322              		.cfi_endproc
 2323              	.LFE142:
 2324              		.size	HAL_FLASHEx_Erase_IT, .-HAL_FLASHEx_Erase_IT
 2325              	.Letext0:
 2326              		.file 2 "/home/nicolas/arm/gcc-arm-none-eabi-8-2019-q3-update/arm-none-eabi/include/machine/_defau
 2327              		.file 3 "/home/nicolas/arm/gcc-arm-none-eabi-8-2019-q3-update/arm-none-eabi/include/sys/_stdint.h"
 2328              		.file 4 "../../../external/ChibiOS/os/common/ext/ARM/CMSIS/Core/Include/core_cm7.h"
ARM GAS  /tmp/ccPLs8VZ.s 			page 42


 2329              		.file 5 "../../../external/ChibiOS/os/common/ext/ST/STM32H7xx/system_stm32h7xx.h"
 2330              		.file 6 "../../../external/ChibiOS/os/common/ext/ST/STM32H7xx/stm32h753xx.h"
 2331              		.file 7 "/home/nicolas/arm/gcc-arm-none-eabi-8-2019-q3-update/lib/gcc/arm-none-eabi/8.3.1/include/
 2332              		.file 8 "/home/nicolas/arm/gcc-arm-none-eabi-8-2019-q3-update/arm-none-eabi/include/sys/_types.h"
 2333              		.file 9 "/home/nicolas/arm/gcc-arm-none-eabi-8-2019-q3-update/arm-none-eabi/include/sys/reent.h"
 2334              		.file 10 "/home/nicolas/arm/gcc-arm-none-eabi-8-2019-q3-update/arm-none-eabi/include/sys/lock.h"
 2335              		.file 11 "/home/nicolas/arm/gcc-arm-none-eabi-8-2019-q3-update/arm-none-eabi/include/math.h"
 2336              		.file 12 "../../../external/STM32H7xx_HAL_Driver/Inc/stm32h7xx_hal_def.h"
 2337              		.file 13 "../../../external/STM32H7xx_HAL_Driver/Inc/stm32h7xx_hal_flash.h"
 2338              		.file 14 "../../../external/STM32H7xx_HAL_Driver/Inc/stm32h7xx_hal_flash_ex.h"
 2339              		.file 15 "../../../external/STM32H7xx_HAL_Driver/Inc/stm32h7xx_hal.h"