ARM GAS  /tmp/ccFaP3PF.s 			page 1


   1              		.cpu cortex-m7
   2              		.eabi_attribute 27, 1
   3              		.eabi_attribute 28, 1
   4              		.eabi_attribute 20, 1
   5              		.eabi_attribute 21, 1
   6              		.eabi_attribute 23, 3
   7              		.eabi_attribute 24, 1
   8              		.eabi_attribute 25, 1
   9              		.eabi_attribute 26, 1
  10              		.eabi_attribute 30, 2
  11              		.eabi_attribute 34, 1
  12              		.eabi_attribute 18, 4
  13              		.file	"stm32_isr.c"
  14              		.text
  15              	.Ltext0:
  16              		.cfi_sections	.debug_frame
  17              		.align	1
  18              		.p2align 4,,15
  19              		.global	Vector104
  20              		.arch armv7e-m
  21              		.syntax unified
  22              		.thumb
  23              		.thumb_func
  24              		.fpu fpv4-sp-d16
  25              		.type	Vector104, %function
  26              	Vector104:
  27              	.LFB394:
  28              		.file 1 "../../../external/ChibiOS/os/hal/ports/STM32/LLD/SDMMCv2/stm32_sdmmc1.inc"
  29              		.loc 1 92 40 view -0
  30              		.cfi_startproc
  31              		@ args = 0, pretend = 0, frame = 0
  32              		@ frame_needed = 0, uses_anonymous_args = 0
  33              		.loc 1 94 3 view .LVU1
  34              		.loc 1 94 3 view .LVU2
  35              		.loc 1 94 3 view .LVU3
  36              		.loc 1 94 3 view .LVU4
  37              		.loc 1 94 3 view .LVU5
  38              		.loc 1 92 40 is_stmt 0 view .LVU6
  39 0000 10B5     		push	{r4, lr}
  40              		.cfi_def_cfa_offset 8
  41              		.cfi_offset 4, -8
  42              		.cfi_offset 14, -4
  43              		.loc 1 94 3 view .LVU7
  44 0002 074C     		ldr	r4, .L4
  45 0004 2046     		mov	r0, r4
  46 0006 FFF7FEFF 		bl	_trace_isr_enter
  47              	.LVL0:
  48              		.loc 1 94 22 is_stmt 1 view .LVU8
  49              		.loc 1 98 3 view .LVU9
  50 000a 0648     		ldr	r0, .L4+4
  51 000c FFF7FEFF 		bl	sdc_lld_serve_interrupt
  52              	.LVL1:
  53              		.loc 1 102 3 view .LVU10
  54              		.loc 1 102 3 view .LVU11
  55 0010 2046     		mov	r0, r4
  56 0012 FFF7FEFF 		bl	_trace_isr_leave
  57              	.LVL2:
ARM GAS  /tmp/ccFaP3PF.s 			page 2


  58              		.loc 1 102 3 view .LVU12
  59              		.loc 1 102 3 view .LVU13
  60              		.loc 1 102 3 view .LVU14
  61              		.loc 1 103 1 is_stmt 0 view .LVU15
  62 0016 BDE81040 		pop	{r4, lr}
  63              		.cfi_restore 14
  64              		.cfi_restore 4
  65              		.cfi_def_cfa_offset 0
  66              		.loc 1 102 3 view .LVU16
  67 001a FFF7FEBF 		b	_port_irq_epilogue
  68              	.LVL3:
  69              	.L5:
  70 001e 00BF     		.align	2
  71              	.L4:
  72 0020 00000000 		.word	.LANCHOR0
  73 0024 00000000 		.word	SDCD1
  74              		.cfi_endproc
  75              	.LFE394:
  76              		.size	Vector104, .-Vector104
  77              		.align	1
  78 0028 AFF30080 		.p2align 4,,15
  78      AFF30080 
  79              		.global	VectorD4
  80              		.syntax unified
  81              		.thumb
  82              		.thumb_func
  83              		.fpu fpv4-sp-d16
  84              		.type	VectorD4, %function
  85              	VectorD4:
  86              	.LFB399:
  87              		.file 2 "../../../external/ChibiOS/os/hal/ports/STM32/LLD/USARTv2/stm32_usart1.inc"
  88              		.loc 2 98 40 is_stmt 1 view -0
  89              		.cfi_startproc
  90              		@ args = 0, pretend = 0, frame = 0
  91              		@ frame_needed = 0, uses_anonymous_args = 0
  92              		.loc 2 100 3 view .LVU18
  93              		.loc 2 100 3 view .LVU19
  94              		.loc 2 100 3 view .LVU20
  95              		.loc 2 100 3 view .LVU21
  96              		.loc 2 100 3 view .LVU22
  97              		.loc 2 98 40 is_stmt 0 view .LVU23
  98 0030 10B5     		push	{r4, lr}
  99              		.cfi_def_cfa_offset 8
 100              		.cfi_offset 4, -8
 101              		.cfi_offset 14, -4
 102              		.loc 2 100 3 view .LVU24
 103 0032 074C     		ldr	r4, .L8
 104 0034 2046     		mov	r0, r4
 105 0036 FFF7FEFF 		bl	_trace_isr_enter
 106              	.LVL4:
 107              		.loc 2 100 22 is_stmt 1 view .LVU25
 108              		.loc 2 104 3 view .LVU26
 109 003a 0648     		ldr	r0, .L8+4
 110 003c FFF7FEFF 		bl	sd_lld_serve_interrupt
 111              	.LVL5:
 112              		.loc 2 113 3 view .LVU27
 113              		.loc 2 113 3 view .LVU28
ARM GAS  /tmp/ccFaP3PF.s 			page 3


 114 0040 2046     		mov	r0, r4
 115 0042 FFF7FEFF 		bl	_trace_isr_leave
 116              	.LVL6:
 117              		.loc 2 113 3 view .LVU29
 118              		.loc 2 113 3 view .LVU30
 119              		.loc 2 113 3 view .LVU31
 120              		.loc 2 114 1 is_stmt 0 view .LVU32
 121 0046 BDE81040 		pop	{r4, lr}
 122              		.cfi_restore 14
 123              		.cfi_restore 4
 124              		.cfi_def_cfa_offset 0
 125              		.loc 2 113 3 view .LVU33
 126 004a FFF7FEBF 		b	_port_irq_epilogue
 127              	.LVL7:
 128              	.L9:
 129 004e 00BF     		.align	2
 130              	.L8:
 131 0050 0C000000 		.word	.LANCHOR0+12
 132 0054 00000000 		.word	SD1
 133              		.cfi_endproc
 134              	.LFE399:
 135              		.size	VectorD4, .-VectorD4
 136              		.align	1
 137 0058 AFF30080 		.p2align 4,,15
 137      AFF30080 
 138              		.global	VectorD8
 139              		.syntax unified
 140              		.thumb
 141              		.thumb_func
 142              		.fpu fpv4-sp-d16
 143              		.type	VectorD8, %function
 144              	VectorD8:
 145              	.LFB402:
 146              		.file 3 "../../../external/ChibiOS/os/hal/ports/STM32/LLD/USARTv2/stm32_usart2.inc"
 147              		.loc 3 98 40 is_stmt 1 view -0
 148              		.cfi_startproc
 149              		@ args = 0, pretend = 0, frame = 0
 150              		@ frame_needed = 0, uses_anonymous_args = 0
 151              		.loc 3 100 3 view .LVU35
 152              		.loc 3 100 3 view .LVU36
 153              		.loc 3 100 3 view .LVU37
 154              		.loc 3 100 3 view .LVU38
 155              		.loc 3 100 3 view .LVU39
 156              		.loc 3 98 40 is_stmt 0 view .LVU40
 157 0060 10B5     		push	{r4, lr}
 158              		.cfi_def_cfa_offset 8
 159              		.cfi_offset 4, -8
 160              		.cfi_offset 14, -4
 161              		.loc 3 100 3 view .LVU41
 162 0062 074C     		ldr	r4, .L12
 163 0064 2046     		mov	r0, r4
 164 0066 FFF7FEFF 		bl	_trace_isr_enter
 165              	.LVL8:
 166              		.loc 3 100 22 is_stmt 1 view .LVU42
 167              		.loc 3 104 3 view .LVU43
 168 006a 0648     		ldr	r0, .L12+4
 169 006c FFF7FEFF 		bl	sd_lld_serve_interrupt
ARM GAS  /tmp/ccFaP3PF.s 			page 4


 170              	.LVL9:
 171              		.loc 3 113 3 view .LVU44
 172              		.loc 3 113 3 view .LVU45
 173 0070 2046     		mov	r0, r4
 174 0072 FFF7FEFF 		bl	_trace_isr_leave
 175              	.LVL10:
 176              		.loc 3 113 3 view .LVU46
 177              		.loc 3 113 3 view .LVU47
 178              		.loc 3 113 3 view .LVU48
 179              		.loc 3 114 1 is_stmt 0 view .LVU49
 180 0076 BDE81040 		pop	{r4, lr}
 181              		.cfi_restore 14
 182              		.cfi_restore 4
 183              		.cfi_def_cfa_offset 0
 184              		.loc 3 113 3 view .LVU50
 185 007a FFF7FEBF 		b	_port_irq_epilogue
 186              	.LVL11:
 187              	.L13:
 188 007e 00BF     		.align	2
 189              	.L12:
 190 0080 18000000 		.word	.LANCHOR0+24
 191 0084 00000000 		.word	SD2
 192              		.cfi_endproc
 193              	.LFE402:
 194              		.size	VectorD8, .-VectorD8
 195              		.align	1
 196 0088 AFF30080 		.p2align 4,,15
 196      AFF30080 
 197              		.global	VectorDC
 198              		.syntax unified
 199              		.thumb
 200              		.thumb_func
 201              		.fpu fpv4-sp-d16
 202              		.type	VectorDC, %function
 203              	VectorDC:
 204              	.LFB405:
 205              		.file 4 "../../../external/ChibiOS/os/hal/ports/STM32/LLD/USARTv2/stm32_usart3.inc"
 206              		.loc 4 98 40 is_stmt 1 view -0
 207              		.cfi_startproc
 208              		@ args = 0, pretend = 0, frame = 0
 209              		@ frame_needed = 0, uses_anonymous_args = 0
 210              		.loc 4 100 3 view .LVU52
 211              		.loc 4 100 3 view .LVU53
 212              		.loc 4 100 3 view .LVU54
 213              		.loc 4 100 3 view .LVU55
 214              		.loc 4 100 3 view .LVU56
 215              		.loc 4 98 40 is_stmt 0 view .LVU57
 216 0090 10B5     		push	{r4, lr}
 217              		.cfi_def_cfa_offset 8
 218              		.cfi_offset 4, -8
 219              		.cfi_offset 14, -4
 220              		.loc 4 100 3 view .LVU58
 221 0092 074C     		ldr	r4, .L16
 222 0094 2046     		mov	r0, r4
 223 0096 FFF7FEFF 		bl	_trace_isr_enter
 224              	.LVL12:
 225              		.loc 4 100 22 is_stmt 1 view .LVU59
ARM GAS  /tmp/ccFaP3PF.s 			page 5


 226              		.loc 4 104 3 view .LVU60
 227 009a 0648     		ldr	r0, .L16+4
 228 009c FFF7FEFF 		bl	sd_lld_serve_interrupt
 229              	.LVL13:
 230              		.loc 4 113 3 view .LVU61
 231              		.loc 4 113 3 view .LVU62
 232 00a0 2046     		mov	r0, r4
 233 00a2 FFF7FEFF 		bl	_trace_isr_leave
 234              	.LVL14:
 235              		.loc 4 113 3 view .LVU63
 236              		.loc 4 113 3 view .LVU64
 237              		.loc 4 113 3 view .LVU65
 238              		.loc 4 114 1 is_stmt 0 view .LVU66
 239 00a6 BDE81040 		pop	{r4, lr}
 240              		.cfi_restore 14
 241              		.cfi_restore 4
 242              		.cfi_def_cfa_offset 0
 243              		.loc 4 113 3 view .LVU67
 244 00aa FFF7FEBF 		b	_port_irq_epilogue
 245              	.LVL15:
 246              	.L17:
 247 00ae 00BF     		.align	2
 248              	.L16:
 249 00b0 24000000 		.word	.LANCHOR0+36
 250 00b4 00000000 		.word	SD3
 251              		.cfi_endproc
 252              	.LFE405:
 253              		.size	VectorDC, .-VectorDC
 254              		.align	1
 255 00b8 AFF30080 		.p2align 4,,15
 255      AFF30080 
 256              		.global	Vector15C
 257              		.syntax unified
 258              		.thumb
 259              		.thumb_func
 260              		.fpu fpv4-sp-d16
 261              		.type	Vector15C, %function
 262              	Vector15C:
 263              	.LFB412:
 264              		.file 5 "../../../external/ChibiOS/os/hal/ports/STM32/LLD/USARTv2/stm32_usart6.inc"
 265              		.loc 5 98 40 is_stmt 1 view -0
 266              		.cfi_startproc
 267              		@ args = 0, pretend = 0, frame = 0
 268              		@ frame_needed = 0, uses_anonymous_args = 0
 269              		.loc 5 100 3 view .LVU69
 270              		.loc 5 100 3 view .LVU70
 271              		.loc 5 100 3 view .LVU71
 272              		.loc 5 100 3 view .LVU72
 273              		.loc 5 100 3 view .LVU73
 274              		.loc 5 98 40 is_stmt 0 view .LVU74
 275 00c0 10B5     		push	{r4, lr}
 276              		.cfi_def_cfa_offset 8
 277              		.cfi_offset 4, -8
 278              		.cfi_offset 14, -4
 279              		.loc 5 100 3 view .LVU75
 280 00c2 074C     		ldr	r4, .L20
 281 00c4 2046     		mov	r0, r4
ARM GAS  /tmp/ccFaP3PF.s 			page 6


 282 00c6 FFF7FEFF 		bl	_trace_isr_enter
 283              	.LVL16:
 284              		.loc 5 100 22 is_stmt 1 view .LVU76
 285              		.loc 5 104 3 view .LVU77
 286 00ca 0648     		ldr	r0, .L20+4
 287 00cc FFF7FEFF 		bl	sd_lld_serve_interrupt
 288              	.LVL17:
 289              		.loc 5 113 3 view .LVU78
 290              		.loc 5 113 3 view .LVU79
 291 00d0 2046     		mov	r0, r4
 292 00d2 FFF7FEFF 		bl	_trace_isr_leave
 293              	.LVL18:
 294              		.loc 5 113 3 view .LVU80
 295              		.loc 5 113 3 view .LVU81
 296              		.loc 5 113 3 view .LVU82
 297              		.loc 5 114 1 is_stmt 0 view .LVU83
 298 00d6 BDE81040 		pop	{r4, lr}
 299              		.cfi_restore 14
 300              		.cfi_restore 4
 301              		.cfi_def_cfa_offset 0
 302              		.loc 5 113 3 view .LVU84
 303 00da FFF7FEBF 		b	_port_irq_epilogue
 304              	.LVL19:
 305              	.L21:
 306 00de 00BF     		.align	2
 307              	.L20:
 308 00e0 30000000 		.word	.LANCHOR0+48
 309 00e4 00000000 		.word	SD6
 310              		.cfi_endproc
 311              	.LFE412:
 312              		.size	Vector15C, .-Vector15C
 313              		.align	1
 314 00e8 AFF30080 		.p2align 4,,15
 314      AFF30080 
 315              		.global	VectorA4
 316              		.syntax unified
 317              		.thumb
 318              		.thumb_func
 319              		.fpu fpv4-sp-d16
 320              		.type	VectorA4, %function
 321              	VectorA4:
 322              	.LFB421:
 323              		.file 6 "../../../external/ChibiOS/os/hal/ports/STM32/LLD/TIMv1/stm32_tim1.inc"
 324              		.loc 6 110 41 is_stmt 1 view -0
 325              		.cfi_startproc
 326              		@ args = 0, pretend = 0, frame = 0
 327              		@ frame_needed = 0, uses_anonymous_args = 0
 328              		.loc 6 112 3 view .LVU86
 329              		.loc 6 112 3 view .LVU87
 330              		.loc 6 112 3 view .LVU88
 331              		.loc 6 112 3 view .LVU89
 332              		.loc 6 112 3 view .LVU90
 333              		.loc 6 110 41 is_stmt 0 view .LVU91
 334 00f0 10B5     		push	{r4, lr}
 335              		.cfi_def_cfa_offset 8
 336              		.cfi_offset 4, -8
 337              		.cfi_offset 14, -4
ARM GAS  /tmp/ccFaP3PF.s 			page 7


 338              		.loc 6 112 3 view .LVU92
 339 00f2 074C     		ldr	r4, .L24
 340 00f4 2046     		mov	r0, r4
 341 00f6 FFF7FEFF 		bl	_trace_isr_enter
 342              	.LVL20:
 343              		.loc 6 112 22 is_stmt 1 view .LVU93
 344              		.loc 6 126 3 view .LVU94
 345 00fa 0648     		ldr	r0, .L24+4
 346 00fc FFF7FEFF 		bl	pwm_lld_serve_interrupt
 347              	.LVL21:
 348              		.loc 6 135 3 view .LVU95
 349              		.loc 6 135 3 view .LVU96
 350 0100 2046     		mov	r0, r4
 351 0102 FFF7FEFF 		bl	_trace_isr_leave
 352              	.LVL22:
 353              		.loc 6 135 3 view .LVU97
 354              		.loc 6 135 3 view .LVU98
 355              		.loc 6 135 3 view .LVU99
 356              		.loc 6 136 1 is_stmt 0 view .LVU100
 357 0106 BDE81040 		pop	{r4, lr}
 358              		.cfi_restore 14
 359              		.cfi_restore 4
 360              		.cfi_def_cfa_offset 0
 361              		.loc 6 135 3 view .LVU101
 362 010a FFF7FEBF 		b	_port_irq_epilogue
 363              	.LVL23:
 364              	.L25:
 365 010e 00BF     		.align	2
 366              	.L24:
 367 0110 3C000000 		.word	.LANCHOR0+60
 368 0114 00000000 		.word	PWMD1
 369              		.cfi_endproc
 370              	.LFE421:
 371              		.size	VectorA4, .-VectorA4
 372              		.align	1
 373 0118 AFF30080 		.p2align 4,,15
 373      AFF30080 
 374              		.global	VectorAC
 375              		.syntax unified
 376              		.thumb
 377              		.thumb_func
 378              		.fpu fpv4-sp-d16
 379              		.type	VectorAC, %function
 380              	VectorAC:
 381              	.LFB422:
 382              		.loc 6 143 41 is_stmt 1 view -0
 383              		.cfi_startproc
 384              		@ args = 0, pretend = 0, frame = 0
 385              		@ frame_needed = 0, uses_anonymous_args = 0
 386              		.loc 6 145 3 view .LVU103
 387              		.loc 6 145 3 view .LVU104
 388              		.loc 6 145 3 view .LVU105
 389              		.loc 6 145 3 view .LVU106
 390              		.loc 6 145 3 view .LVU107
 391              		.loc 6 143 41 is_stmt 0 view .LVU108
 392 0120 10B5     		push	{r4, lr}
 393              		.cfi_def_cfa_offset 8
ARM GAS  /tmp/ccFaP3PF.s 			page 8


 394              		.cfi_offset 4, -8
 395              		.cfi_offset 14, -4
 396              		.loc 6 145 3 view .LVU109
 397 0122 074C     		ldr	r4, .L28
 398 0124 2046     		mov	r0, r4
 399 0126 FFF7FEFF 		bl	_trace_isr_enter
 400              	.LVL24:
 401              		.loc 6 145 22 is_stmt 1 view .LVU110
 402              		.loc 6 157 3 view .LVU111
 403 012a 0648     		ldr	r0, .L28+4
 404 012c FFF7FEFF 		bl	pwm_lld_serve_interrupt
 405              	.LVL25:
 406              		.loc 6 164 3 view .LVU112
 407              		.loc 6 164 3 view .LVU113
 408 0130 2046     		mov	r0, r4
 409 0132 FFF7FEFF 		bl	_trace_isr_leave
 410              	.LVL26:
 411              		.loc 6 164 3 view .LVU114
 412              		.loc 6 164 3 view .LVU115
 413              		.loc 6 164 3 view .LVU116
 414              		.loc 6 165 1 is_stmt 0 view .LVU117
 415 0136 BDE81040 		pop	{r4, lr}
 416              		.cfi_restore 14
 417              		.cfi_restore 4
 418              		.cfi_def_cfa_offset 0
 419              		.loc 6 164 3 view .LVU118
 420 013a FFF7FEBF 		b	_port_irq_epilogue
 421              	.LVL27:
 422              	.L29:
 423 013e 00BF     		.align	2
 424              	.L28:
 425 0140 48000000 		.word	.LANCHOR0+72
 426 0144 00000000 		.word	PWMD1
 427              		.cfi_endproc
 428              	.LFE422:
 429              		.size	VectorAC, .-VectorAC
 430              		.align	1
 431 0148 AFF30080 		.p2align 4,,15
 431      AFF30080 
 432              		.global	VectorB0
 433              		.syntax unified
 434              		.thumb
 435              		.thumb_func
 436              		.fpu fpv4-sp-d16
 437              		.type	VectorB0, %function
 438              	VectorB0:
 439              	.LFB425:
 440              		.file 7 "../../../external/ChibiOS/os/hal/ports/STM32/LLD/TIMv1/stm32_tim2.inc"
 441              		.loc 7 100 38 is_stmt 1 view -0
 442              		.cfi_startproc
 443              		@ args = 0, pretend = 0, frame = 0
 444              		@ frame_needed = 0, uses_anonymous_args = 0
 445              		.loc 7 102 3 view .LVU120
 446              		.loc 7 102 3 view .LVU121
 447              		.loc 7 102 3 view .LVU122
 448              		.loc 7 102 3 view .LVU123
 449              		.loc 7 102 3 view .LVU124
ARM GAS  /tmp/ccFaP3PF.s 			page 9


 450              		.loc 7 100 38 is_stmt 0 view .LVU125
 451 0150 10B5     		push	{r4, lr}
 452              		.cfi_def_cfa_offset 8
 453              		.cfi_offset 4, -8
 454              		.cfi_offset 14, -4
 455              		.loc 7 102 3 view .LVU126
 456 0152 064C     		ldr	r4, .L32
 457 0154 2046     		mov	r0, r4
 458 0156 FFF7FEFF 		bl	_trace_isr_enter
 459              	.LVL28:
 460              		.loc 7 102 22 is_stmt 1 view .LVU127
 461              		.loc 7 121 3 view .LVU128
 462 015a FFF7FEFF 		bl	st_lld_serve_interrupt
 463              	.LVL29:
 464              		.loc 7 125 3 view .LVU129
 465              		.loc 7 125 3 view .LVU130
 466 015e 2046     		mov	r0, r4
 467 0160 FFF7FEFF 		bl	_trace_isr_leave
 468              	.LVL30:
 469              		.loc 7 125 3 view .LVU131
 470              		.loc 7 125 3 view .LVU132
 471              		.loc 7 125 3 view .LVU133
 472              		.loc 7 126 1 is_stmt 0 view .LVU134
 473 0164 BDE81040 		pop	{r4, lr}
 474              		.cfi_restore 14
 475              		.cfi_restore 4
 476              		.cfi_def_cfa_offset 0
 477              		.loc 7 125 3 view .LVU135
 478 0168 FFF7FEBF 		b	_port_irq_epilogue
 479              	.LVL31:
 480              	.L33:
 481              		.align	2
 482              	.L32:
 483 016c 54000000 		.word	.LANCHOR0+84
 484              		.cfi_endproc
 485              	.LFE425:
 486              		.size	VectorB0, .-VectorB0
 487              		.align	1
 488              		.p2align 4,,15
 489              		.global	VectorB4
 490              		.syntax unified
 491              		.thumb
 492              		.thumb_func
 493              		.fpu fpv4-sp-d16
 494              		.type	VectorB4, %function
 495              	VectorB4:
 496              	.LFB428:
 497              		.file 8 "../../../external/ChibiOS/os/hal/ports/STM32/LLD/TIMv1/stm32_tim3.inc"
 498              		.loc 8 100 38 is_stmt 1 view -0
 499              		.cfi_startproc
 500              		@ args = 0, pretend = 0, frame = 0
 501              		@ frame_needed = 0, uses_anonymous_args = 0
 502              		.loc 8 102 3 view .LVU137
 503              		.loc 8 102 3 view .LVU138
 504              		.loc 8 102 3 view .LVU139
 505              		.loc 8 102 3 view .LVU140
 506              		.loc 8 102 3 view .LVU141
ARM GAS  /tmp/ccFaP3PF.s 			page 10


 507              		.loc 8 100 38 is_stmt 0 view .LVU142
 508 0170 10B5     		push	{r4, lr}
 509              		.cfi_def_cfa_offset 8
 510              		.cfi_offset 4, -8
 511              		.cfi_offset 14, -4
 512              		.loc 8 102 3 view .LVU143
 513 0172 074C     		ldr	r4, .L36
 514 0174 2046     		mov	r0, r4
 515 0176 FFF7FEFF 		bl	_trace_isr_enter
 516              	.LVL32:
 517              		.loc 8 102 22 is_stmt 1 view .LVU144
 518              		.loc 8 116 3 view .LVU145
 519 017a 0648     		ldr	r0, .L36+4
 520 017c FFF7FEFF 		bl	pwm_lld_serve_interrupt
 521              	.LVL33:
 522              		.loc 8 125 3 view .LVU146
 523              		.loc 8 125 3 view .LVU147
 524 0180 2046     		mov	r0, r4
 525 0182 FFF7FEFF 		bl	_trace_isr_leave
 526              	.LVL34:
 527              		.loc 8 125 3 view .LVU148
 528              		.loc 8 125 3 view .LVU149
 529              		.loc 8 125 3 view .LVU150
 530              		.loc 8 126 1 is_stmt 0 view .LVU151
 531 0186 BDE81040 		pop	{r4, lr}
 532              		.cfi_restore 14
 533              		.cfi_restore 4
 534              		.cfi_def_cfa_offset 0
 535              		.loc 8 125 3 view .LVU152
 536 018a FFF7FEBF 		b	_port_irq_epilogue
 537              	.LVL35:
 538              	.L37:
 539 018e 00BF     		.align	2
 540              	.L36:
 541 0190 60000000 		.word	.LANCHOR0+96
 542 0194 00000000 		.word	PWMD3
 543              		.cfi_endproc
 544              	.LFE428:
 545              		.size	VectorB4, .-VectorB4
 546              		.align	1
 547 0198 AFF30080 		.p2align 4,,15
 547      AFF30080 
 548              		.global	VectorB8
 549              		.syntax unified
 550              		.thumb
 551              		.thumb_func
 552              		.fpu fpv4-sp-d16
 553              		.type	VectorB8, %function
 554              	VectorB8:
 555              	.LFB431:
 556              		.file 9 "../../../external/ChibiOS/os/hal/ports/STM32/LLD/TIMv1/stm32_tim4.inc"
 557              		.loc 9 100 38 is_stmt 1 view -0
 558              		.cfi_startproc
 559              		@ args = 0, pretend = 0, frame = 0
 560              		@ frame_needed = 0, uses_anonymous_args = 0
 561              		.loc 9 102 3 view .LVU154
 562              		.loc 9 102 3 view .LVU155
ARM GAS  /tmp/ccFaP3PF.s 			page 11


 563              		.loc 9 102 3 view .LVU156
 564              		.loc 9 102 3 view .LVU157
 565              		.loc 9 102 3 view .LVU158
 566              		.loc 9 100 38 is_stmt 0 view .LVU159
 567 01a0 10B5     		push	{r4, lr}
 568              		.cfi_def_cfa_offset 8
 569              		.cfi_offset 4, -8
 570              		.cfi_offset 14, -4
 571              		.loc 9 102 3 view .LVU160
 572 01a2 074C     		ldr	r4, .L40
 573 01a4 2046     		mov	r0, r4
 574 01a6 FFF7FEFF 		bl	_trace_isr_enter
 575              	.LVL36:
 576              		.loc 9 102 22 is_stmt 1 view .LVU161
 577              		.loc 9 116 3 view .LVU162
 578 01aa 0648     		ldr	r0, .L40+4
 579 01ac FFF7FEFF 		bl	pwm_lld_serve_interrupt
 580              	.LVL37:
 581              		.loc 9 125 3 view .LVU163
 582              		.loc 9 125 3 view .LVU164
 583 01b0 2046     		mov	r0, r4
 584 01b2 FFF7FEFF 		bl	_trace_isr_leave
 585              	.LVL38:
 586              		.loc 9 125 3 view .LVU165
 587              		.loc 9 125 3 view .LVU166
 588              		.loc 9 125 3 view .LVU167
 589              		.loc 9 126 1 is_stmt 0 view .LVU168
 590 01b6 BDE81040 		pop	{r4, lr}
 591              		.cfi_restore 14
 592              		.cfi_restore 4
 593              		.cfi_def_cfa_offset 0
 594              		.loc 9 125 3 view .LVU169
 595 01ba FFF7FEBF 		b	_port_irq_epilogue
 596              	.LVL39:
 597              	.L41:
 598 01be 00BF     		.align	2
 599              	.L40:
 600 01c0 6C000000 		.word	.LANCHOR0+108
 601 01c4 00000000 		.word	PWMD4
 602              		.cfi_endproc
 603              	.LFE431:
 604              		.size	VectorB8, .-VectorB8
 605              		.align	1
 606 01c8 AFF30080 		.p2align 4,,15
 606      AFF30080 
 607              		.global	Vector108
 608              		.syntax unified
 609              		.thumb
 610              		.thumb_func
 611              		.fpu fpv4-sp-d16
 612              		.type	Vector108, %function
 613              	Vector108:
 614              	.LFB434:
 615              		.file 10 "../../../external/ChibiOS/os/hal/ports/STM32/LLD/TIMv1/stm32_tim5.inc"
 616              		.loc 10 100 38 is_stmt 1 view -0
 617              		.cfi_startproc
 618              		@ args = 0, pretend = 0, frame = 0
ARM GAS  /tmp/ccFaP3PF.s 			page 12


 619              		@ frame_needed = 0, uses_anonymous_args = 0
 620              		.loc 10 102 3 view .LVU171
 621              		.loc 10 102 3 view .LVU172
 622              		.loc 10 102 3 view .LVU173
 623              		.loc 10 102 3 view .LVU174
 624              		.loc 10 102 3 view .LVU175
 625              		.loc 10 100 38 is_stmt 0 view .LVU176
 626 01d0 10B5     		push	{r4, lr}
 627              		.cfi_def_cfa_offset 8
 628              		.cfi_offset 4, -8
 629              		.cfi_offset 14, -4
 630              		.loc 10 102 3 view .LVU177
 631 01d2 074C     		ldr	r4, .L44
 632 01d4 2046     		mov	r0, r4
 633 01d6 FFF7FEFF 		bl	_trace_isr_enter
 634              	.LVL40:
 635              		.loc 10 102 22 is_stmt 1 view .LVU178
 636              		.loc 10 116 3 view .LVU179
 637 01da 0648     		ldr	r0, .L44+4
 638 01dc FFF7FEFF 		bl	pwm_lld_serve_interrupt
 639              	.LVL41:
 640              		.loc 10 125 3 view .LVU180
 641              		.loc 10 125 3 view .LVU181
 642 01e0 2046     		mov	r0, r4
 643 01e2 FFF7FEFF 		bl	_trace_isr_leave
 644              	.LVL42:
 645              		.loc 10 125 3 view .LVU182
 646              		.loc 10 125 3 view .LVU183
 647              		.loc 10 125 3 view .LVU184
 648              		.loc 10 126 1 is_stmt 0 view .LVU185
 649 01e6 BDE81040 		pop	{r4, lr}
 650              		.cfi_restore 14
 651              		.cfi_restore 4
 652              		.cfi_def_cfa_offset 0
 653              		.loc 10 125 3 view .LVU186
 654 01ea FFF7FEBF 		b	_port_irq_epilogue
 655              	.LVL43:
 656              	.L45:
 657 01ee 00BF     		.align	2
 658              	.L44:
 659 01f0 78000000 		.word	.LANCHOR0+120
 660 01f4 00000000 		.word	PWMD5
 661              		.cfi_endproc
 662              	.LFE434:
 663              		.size	Vector108, .-Vector108
 664              		.align	1
 665 01f8 AFF30080 		.p2align 4,,15
 665      AFF30080 
 666              		.global	VectorEC
 667              		.syntax unified
 668              		.thumb
 669              		.thumb_func
 670              		.fpu fpv4-sp-d16
 671              		.type	VectorEC, %function
 672              	VectorEC:
 673              	.LFB441:
 674              		.file 11 "../../../external/ChibiOS/os/hal/ports/STM32/LLD/TIMv1/stm32_tim8_12_13_14.inc"
ARM GAS  /tmp/ccFaP3PF.s 			page 13


 675              		.loc 11 198 48 is_stmt 1 view -0
 676              		.cfi_startproc
 677              		@ args = 0, pretend = 0, frame = 0
 678              		@ frame_needed = 0, uses_anonymous_args = 0
 679              		.loc 11 200 3 view .LVU188
 680              		.loc 11 200 3 view .LVU189
 681              		.loc 11 200 3 view .LVU190
 682              		.loc 11 200 3 view .LVU191
 683              		.loc 11 200 3 view .LVU192
 684              		.loc 11 198 48 is_stmt 0 view .LVU193
 685 0200 10B5     		push	{r4, lr}
 686              		.cfi_def_cfa_offset 8
 687              		.cfi_offset 4, -8
 688              		.cfi_offset 14, -4
 689              		.loc 11 200 3 view .LVU194
 690 0202 054C     		ldr	r4, .L48
 691 0204 2046     		mov	r0, r4
 692 0206 FFF7FEFF 		bl	_trace_isr_enter
 693              	.LVL44:
 694              		.loc 11 200 22 is_stmt 1 view .LVU195
 695              		.loc 11 223 3 view .LVU196
 696              		.loc 11 223 3 view .LVU197
 697 020a 2046     		mov	r0, r4
 698 020c FFF7FEFF 		bl	_trace_isr_leave
 699              	.LVL45:
 700              		.loc 11 223 3 view .LVU198
 701              		.loc 11 223 3 view .LVU199
 702              		.loc 11 223 3 view .LVU200
 703              		.loc 11 224 1 is_stmt 0 view .LVU201
 704 0210 BDE81040 		pop	{r4, lr}
 705              		.cfi_restore 14
 706              		.cfi_restore 4
 707              		.cfi_def_cfa_offset 0
 708              		.loc 11 223 3 view .LVU202
 709 0214 FFF7FEBF 		b	_port_irq_epilogue
 710              	.LVL46:
 711              	.L49:
 712              		.align	2
 713              	.L48:
 714 0218 84000000 		.word	.LANCHOR0+132
 715              		.cfi_endproc
 716              	.LFE441:
 717              		.size	VectorEC, .-VectorEC
 718              		.align	1
 719 021c AFF30080 		.p2align 4,,15
 720              		.global	VectorF0
 721              		.syntax unified
 722              		.thumb
 723              		.thumb_func
 724              		.fpu fpv4-sp-d16
 725              		.type	VectorF0, %function
 726              	VectorF0:
 727              	.LFB442:
 728              		.loc 11 234 47 is_stmt 1 view -0
 729              		.cfi_startproc
 730              		@ args = 0, pretend = 0, frame = 0
 731              		@ frame_needed = 0, uses_anonymous_args = 0
ARM GAS  /tmp/ccFaP3PF.s 			page 14


 732              		.loc 11 236 3 view .LVU204
 733              		.loc 11 236 3 view .LVU205
 734              		.loc 11 236 3 view .LVU206
 735              		.loc 11 236 3 view .LVU207
 736              		.loc 11 236 3 view .LVU208
 737              		.loc 11 234 47 is_stmt 0 view .LVU209
 738 0220 10B5     		push	{r4, lr}
 739              		.cfi_def_cfa_offset 8
 740              		.cfi_offset 4, -8
 741              		.cfi_offset 14, -4
 742              		.loc 11 236 3 view .LVU210
 743 0222 074C     		ldr	r4, .L52
 744 0224 2046     		mov	r0, r4
 745 0226 FFF7FEFF 		bl	_trace_isr_enter
 746              	.LVL47:
 747              		.loc 11 236 22 is_stmt 1 view .LVU211
 748              		.loc 11 256 3 view .LVU212
 749 022a 0648     		ldr	r0, .L52+4
 750 022c FFF7FEFF 		bl	pwm_lld_serve_interrupt
 751              	.LVL48:
 752              		.loc 11 271 3 view .LVU213
 753              		.loc 11 271 3 view .LVU214
 754 0230 2046     		mov	r0, r4
 755 0232 FFF7FEFF 		bl	_trace_isr_leave
 756              	.LVL49:
 757              		.loc 11 271 3 view .LVU215
 758              		.loc 11 271 3 view .LVU216
 759              		.loc 11 271 3 view .LVU217
 760              		.loc 11 272 1 is_stmt 0 view .LVU218
 761 0236 BDE81040 		pop	{r4, lr}
 762              		.cfi_restore 14
 763              		.cfi_restore 4
 764              		.cfi_def_cfa_offset 0
 765              		.loc 11 271 3 view .LVU219
 766 023a FFF7FEBF 		b	_port_irq_epilogue
 767              	.LVL50:
 768              	.L53:
 769 023e 00BF     		.align	2
 770              	.L52:
 771 0240 90000000 		.word	.LANCHOR0+144
 772 0244 00000000 		.word	PWMD8
 773              		.cfi_endproc
 774              	.LFE442:
 775              		.size	VectorF0, .-VectorF0
 776              		.align	1
 777 0248 AFF30080 		.p2align 4,,15
 777      AFF30080 
 778              		.global	VectorF4
 779              		.syntax unified
 780              		.thumb
 781              		.thumb_func
 782              		.fpu fpv4-sp-d16
 783              		.type	VectorF4, %function
 784              	VectorF4:
 785              	.LFB443:
 786              		.loc 11 282 50 is_stmt 1 view -0
 787              		.cfi_startproc
ARM GAS  /tmp/ccFaP3PF.s 			page 15


 788              		@ args = 0, pretend = 0, frame = 0
 789              		@ frame_needed = 0, uses_anonymous_args = 0
 790              		.loc 11 284 3 view .LVU221
 791              		.loc 11 284 3 view .LVU222
 792              		.loc 11 284 3 view .LVU223
 793              		.loc 11 284 3 view .LVU224
 794              		.loc 11 284 3 view .LVU225
 795              		.loc 11 282 50 is_stmt 0 view .LVU226
 796 0250 10B5     		push	{r4, lr}
 797              		.cfi_def_cfa_offset 8
 798              		.cfi_offset 4, -8
 799              		.cfi_offset 14, -4
 800              		.loc 11 284 3 view .LVU227
 801 0252 054C     		ldr	r4, .L56
 802 0254 2046     		mov	r0, r4
 803 0256 FFF7FEFF 		bl	_trace_isr_enter
 804              	.LVL51:
 805              		.loc 11 284 22 is_stmt 1 view .LVU228
 806              		.loc 11 307 3 view .LVU229
 807              		.loc 11 307 3 view .LVU230
 808 025a 2046     		mov	r0, r4
 809 025c FFF7FEFF 		bl	_trace_isr_leave
 810              	.LVL52:
 811              		.loc 11 307 3 view .LVU231
 812              		.loc 11 307 3 view .LVU232
 813              		.loc 11 307 3 view .LVU233
 814              		.loc 11 308 1 is_stmt 0 view .LVU234
 815 0260 BDE81040 		pop	{r4, lr}
 816              		.cfi_restore 14
 817              		.cfi_restore 4
 818              		.cfi_def_cfa_offset 0
 819              		.loc 11 307 3 view .LVU235
 820 0264 FFF7FEBF 		b	_port_irq_epilogue
 821              	.LVL53:
 822              	.L57:
 823              		.align	2
 824              	.L56:
 825 0268 9C000000 		.word	.LANCHOR0+156
 826              		.cfi_endproc
 827              	.LFE443:
 828              		.size	VectorF4, .-VectorF4
 829              		.align	1
 830 026c AFF30080 		.p2align 4,,15
 831              		.global	VectorF8
 832              		.syntax unified
 833              		.thumb
 834              		.thumb_func
 835              		.fpu fpv4-sp-d16
 836              		.type	VectorF8, %function
 837              	VectorF8:
 838              	.LFB444:
 839              		.loc 11 317 41 is_stmt 1 view -0
 840              		.cfi_startproc
 841              		@ args = 0, pretend = 0, frame = 0
 842              		@ frame_needed = 0, uses_anonymous_args = 0
 843              		.loc 11 319 3 view .LVU237
 844              		.loc 11 319 3 view .LVU238
ARM GAS  /tmp/ccFaP3PF.s 			page 16


 845              		.loc 11 319 3 view .LVU239
 846              		.loc 11 319 3 view .LVU240
 847              		.loc 11 319 3 view .LVU241
 848              		.loc 11 317 41 is_stmt 0 view .LVU242
 849 0270 10B5     		push	{r4, lr}
 850              		.cfi_def_cfa_offset 8
 851              		.cfi_offset 4, -8
 852              		.cfi_offset 14, -4
 853              		.loc 11 319 3 view .LVU243
 854 0272 074C     		ldr	r4, .L60
 855 0274 2046     		mov	r0, r4
 856 0276 FFF7FEFF 		bl	_trace_isr_enter
 857              	.LVL54:
 858              		.loc 11 319 22 is_stmt 1 view .LVU244
 859              		.loc 11 331 3 view .LVU245
 860 027a 0648     		ldr	r0, .L60+4
 861 027c FFF7FEFF 		bl	pwm_lld_serve_interrupt
 862              	.LVL55:
 863              		.loc 11 335 3 view .LVU246
 864              		.loc 11 335 3 view .LVU247
 865 0280 2046     		mov	r0, r4
 866 0282 FFF7FEFF 		bl	_trace_isr_leave
 867              	.LVL56:
 868              		.loc 11 335 3 view .LVU248
 869              		.loc 11 335 3 view .LVU249
 870              		.loc 11 335 3 view .LVU250
 871              		.loc 11 336 1 is_stmt 0 view .LVU251
 872 0286 BDE81040 		pop	{r4, lr}
 873              		.cfi_restore 14
 874              		.cfi_restore 4
 875              		.cfi_def_cfa_offset 0
 876              		.loc 11 335 3 view .LVU252
 877 028a FFF7FEBF 		b	_port_irq_epilogue
 878              	.LVL57:
 879              	.L61:
 880 028e 00BF     		.align	2
 881              	.L60:
 882 0290 A8000000 		.word	.LANCHOR0+168
 883 0294 00000000 		.word	PWMD8
 884              		.cfi_endproc
 885              	.LFE444:
 886              		.size	VectorF8, .-VectorF8
 887              		.align	1
 888 0298 AFF30080 		.p2align 4,,15
 888      AFF30080 
 889              		.global	irqInit
 890              		.syntax unified
 891              		.thumb
 892              		.thumb_func
 893              		.fpu fpv4-sp-d16
 894              		.type	irqInit, %function
 895              	irqInit:
 896              	.LFB445:
 897              		.file 12 "../../../external/ChibiOS/os/hal/ports/STM32/STM32H7xx/stm32_isr.c"
 898              		.loc 12 103 20 is_stmt 1 view -0
 899              		.cfi_startproc
 900              		@ args = 0, pretend = 0, frame = 0
ARM GAS  /tmp/ccFaP3PF.s 			page 17


 901              		@ frame_needed = 0, uses_anonymous_args = 0
 902              		.loc 12 105 3 view .LVU254
 903              		.file 13 "../../../external/ChibiOS/os/hal/ports/STM32/LLD/EXTIv1/stm32_exti0.inc"
 904              		.loc 13 58 1 view .LVU255
 905              		.loc 12 106 3 view .LVU256
 906              		.file 14 "../../../external/ChibiOS/os/hal/ports/STM32/LLD/EXTIv1/stm32_exti1.inc"
 907              		.loc 14 58 1 view .LVU257
 908              		.loc 12 107 3 view .LVU258
 909              		.file 15 "../../../external/ChibiOS/os/hal/ports/STM32/LLD/EXTIv1/stm32_exti2.inc"
 910              		.loc 15 58 1 view .LVU259
 911              		.loc 12 108 3 view .LVU260
 912              		.file 16 "../../../external/ChibiOS/os/hal/ports/STM32/LLD/EXTIv1/stm32_exti3.inc"
 913              		.loc 16 58 1 view .LVU261
 914              		.loc 12 109 3 view .LVU262
 915              		.file 17 "../../../external/ChibiOS/os/hal/ports/STM32/LLD/EXTIv1/stm32_exti4.inc"
 916              		.loc 17 58 1 view .LVU263
 917              		.loc 12 110 3 view .LVU264
 918              		.file 18 "../../../external/ChibiOS/os/hal/ports/STM32/LLD/EXTIv1/stm32_exti5_9.inc"
 919              		.loc 18 58 1 view .LVU265
 920              		.loc 12 111 3 view .LVU266
 921              		.file 19 "../../../external/ChibiOS/os/hal/ports/STM32/LLD/EXTIv1/stm32_exti10_15.inc"
 922              		.loc 19 58 1 view .LVU267
 923              		.loc 12 112 3 view .LVU268
 924              		.file 20 "../../../external/ChibiOS/os/hal/ports/STM32/LLD/EXTIv1/stm32_exti16.inc"
 925              		.loc 20 58 1 view .LVU269
 926              		.loc 12 113 3 view .LVU270
 927              		.file 21 "../../../external/ChibiOS/os/hal/ports/STM32/LLD/EXTIv1/stm32_exti17.inc"
 928              		.loc 21 58 1 view .LVU271
 929              		.loc 12 114 3 view .LVU272
 930              		.file 22 "../../../external/ChibiOS/os/hal/ports/STM32/LLD/EXTIv1/stm32_exti18.inc"
 931              		.loc 22 58 1 view .LVU273
 932              		.loc 12 115 3 view .LVU274
 933              		.file 23 "../../../external/ChibiOS/os/hal/ports/STM32/LLD/EXTIv1/stm32_exti19.inc"
 934              		.loc 23 58 1 view .LVU275
 935              		.loc 12 116 3 view .LVU276
 936              		.file 24 "../../../external/ChibiOS/os/hal/ports/STM32/LLD/EXTIv1/stm32_exti20_21.inc"
 937              		.loc 24 58 1 view .LVU277
 938              		.loc 12 118 3 view .LVU278
 939              		.file 25 "../../../external/ChibiOS/os/hal/ports/STM32/LLD/FDCANv1/stm32_fdcan1.inc"
 940              		.loc 25 74 1 view .LVU279
 941              		.loc 12 119 3 view .LVU280
 942              		.file 26 "../../../external/ChibiOS/os/hal/ports/STM32/LLD/FDCANv1/stm32_fdcan2.inc"
 943              		.loc 26 74 1 view .LVU281
 944              		.loc 12 121 3 view .LVU282
 945              		.loc 12 103 20 is_stmt 0 view .LVU283
 946 02a0 08B5     		push	{r3, lr}
 947              		.cfi_def_cfa_offset 8
 948              		.cfi_offset 3, -8
 949              		.cfi_offset 14, -4
 950              		.loc 12 121 3 view .LVU284
 951 02a2 0921     		movs	r1, #9
 952 02a4 7A20     		movs	r0, #122
 953 02a6 FFF7FEFF 		bl	nvicEnableVector
 954              	.LVL58:
 955              		.loc 12 123 3 is_stmt 1 view .LVU285
 956              		.file 27 "../../../external/ChibiOS/os/hal/ports/STM32/LLD/QUADSPIv2/stm32_quadspi1.inc"
 957              		.loc 27 74 1 view .LVU286
ARM GAS  /tmp/ccFaP3PF.s 			page 18


 958              		.loc 12 125 3 view .LVU287
 959              	.LBB154:
 960              	.LBI154:
 961              		.loc 1 70 20 view .LVU288
 962              	.LBB155:
 963              		.loc 1 72 3 view .LVU289
 964 02aa 0921     		movs	r1, #9
 965 02ac 3120     		movs	r0, #49
 966 02ae FFF7FEFF 		bl	nvicEnableVector
 967              	.LVL59:
 968              	.LBE155:
 969              	.LBE154:
 970              		.loc 12 126 3 view .LVU290
 971              		.file 28 "../../../external/ChibiOS/os/hal/ports/STM32/LLD/SDMMCv2/stm32_sdmmc2.inc"
 972              		.loc 28 74 1 view .LVU291
 973              		.loc 12 128 3 view .LVU292
 974              	.LBB156:
 975              	.LBI156:
 976              		.loc 6 86 20 view .LVU293
 977              	.LBB157:
 978              		.loc 6 88 3 view .LVU294
 979 02b2 0721     		movs	r1, #7
 980 02b4 1920     		movs	r0, #25
 981 02b6 FFF7FEFF 		bl	nvicEnableVector
 982              	.LVL60:
 983              		.loc 6 89 3 view .LVU295
 984 02ba 0721     		movs	r1, #7
 985 02bc 1B20     		movs	r0, #27
 986 02be FFF7FEFF 		bl	nvicEnableVector
 987              	.LVL61:
 988              	.LBE157:
 989              	.LBE156:
 990              		.loc 12 129 3 view .LVU296
 991              	.LBB158:
 992              	.LBI158:
 993              		.loc 7 78 20 view .LVU297
 994              	.LBB159:
 995              		.loc 7 80 3 view .LVU298
 996 02c2 0721     		movs	r1, #7
 997 02c4 1C20     		movs	r0, #28
 998 02c6 FFF7FEFF 		bl	nvicEnableVector
 999              	.LVL62:
 1000              	.LBE159:
 1001              	.LBE158:
 1002              		.loc 12 130 3 view .LVU299
 1003              	.LBB160:
 1004              	.LBI160:
 1005              		.loc 8 78 20 view .LVU300
 1006              	.LBB161:
 1007              		.loc 8 80 3 view .LVU301
 1008 02ca 0721     		movs	r1, #7
 1009 02cc 1D20     		movs	r0, #29
 1010 02ce FFF7FEFF 		bl	nvicEnableVector
 1011              	.LVL63:
 1012              	.LBE161:
 1013              	.LBE160:
 1014              		.loc 12 131 3 view .LVU302
ARM GAS  /tmp/ccFaP3PF.s 			page 19


 1015              	.LBB162:
 1016              	.LBI162:
 1017              		.loc 9 78 20 view .LVU303
 1018              	.LBB163:
 1019              		.loc 9 80 3 view .LVU304
 1020 02d2 0721     		movs	r1, #7
 1021 02d4 1E20     		movs	r0, #30
 1022 02d6 FFF7FEFF 		bl	nvicEnableVector
 1023              	.LVL64:
 1024              	.LBE163:
 1025              	.LBE162:
 1026              		.loc 12 132 3 view .LVU305
 1027              	.LBB164:
 1028              	.LBI164:
 1029              		.loc 10 78 20 view .LVU306
 1030              	.LBB165:
 1031              		.loc 10 80 3 view .LVU307
 1032 02da 0721     		movs	r1, #7
 1033 02dc 3220     		movs	r0, #50
 1034 02de FFF7FEFF 		bl	nvicEnableVector
 1035              	.LVL65:
 1036              	.LBE165:
 1037              	.LBE164:
 1038              		.loc 12 133 3 view .LVU308
 1039              		.file 29 "../../../external/ChibiOS/os/hal/ports/STM32/LLD/TIMv1/stm32_tim6.inc"
 1040              		.loc 29 82 1 view .LVU309
 1041              		.loc 12 134 3 view .LVU310
 1042              		.file 30 "../../../external/ChibiOS/os/hal/ports/STM32/LLD/TIMv1/stm32_tim7.inc"
 1043              		.loc 30 82 1 view .LVU311
 1044              		.loc 12 135 3 view .LVU312
 1045              	.LBB166:
 1046              	.LBI166:
 1047              		.loc 11 153 20 view .LVU313
 1048              	.LBB167:
 1049              		.loc 11 155 3 view .LVU314
 1050 02e2 0721     		movs	r1, #7
 1051 02e4 2B20     		movs	r0, #43
 1052 02e6 FFF7FEFF 		bl	nvicEnableVector
 1053              	.LVL66:
 1054              		.loc 11 159 3 view .LVU315
 1055 02ea 0721     		movs	r1, #7
 1056 02ec 2C20     		movs	r0, #44
 1057 02ee FFF7FEFF 		bl	nvicEnableVector
 1058              	.LVL67:
 1059              		.loc 11 163 3 view .LVU316
 1060 02f2 0721     		movs	r1, #7
 1061 02f4 2D20     		movs	r0, #45
 1062 02f6 FFF7FEFF 		bl	nvicEnableVector
 1063              	.LVL68:
 1064              		.loc 11 167 3 view .LVU317
 1065 02fa 0721     		movs	r1, #7
 1066 02fc 2E20     		movs	r0, #46
 1067 02fe FFF7FEFF 		bl	nvicEnableVector
 1068              	.LVL69:
 1069              	.LBE167:
 1070              	.LBE166:
 1071              		.loc 12 137 3 view .LVU318
ARM GAS  /tmp/ccFaP3PF.s 			page 20


 1072              	.LBB168:
 1073              	.LBI168:
 1074              		.loc 2 76 20 view .LVU319
 1075              	.LBB169:
 1076              		.loc 2 78 3 view .LVU320
 1077 0302 0C21     		movs	r1, #12
 1078 0304 2520     		movs	r0, #37
 1079 0306 FFF7FEFF 		bl	nvicEnableVector
 1080              	.LVL70:
 1081              	.LBE169:
 1082              	.LBE168:
 1083              		.loc 12 138 3 view .LVU321
 1084              	.LBB170:
 1085              	.LBI170:
 1086              		.loc 3 76 20 view .LVU322
 1087              	.LBB171:
 1088              		.loc 3 78 3 view .LVU323
 1089 030a 0C21     		movs	r1, #12
 1090 030c 2620     		movs	r0, #38
 1091 030e FFF7FEFF 		bl	nvicEnableVector
 1092              	.LVL71:
 1093              	.LBE171:
 1094              	.LBE170:
 1095              		.loc 12 139 3 view .LVU324
 1096              	.LBB172:
 1097              	.LBI172:
 1098              		.loc 4 76 20 view .LVU325
 1099              	.LBB173:
 1100              		.loc 4 78 3 view .LVU326
 1101 0312 0C21     		movs	r1, #12
 1102 0314 2720     		movs	r0, #39
 1103 0316 FFF7FEFF 		bl	nvicEnableVector
 1104              	.LVL72:
 1105              	.LBE173:
 1106              	.LBE172:
 1107              		.loc 12 140 3 view .LVU327
 1108              		.file 31 "../../../external/ChibiOS/os/hal/ports/STM32/LLD/USARTv2/stm32_uart4.inc"
 1109              		.loc 31 80 1 view .LVU328
 1110              		.loc 12 141 3 view .LVU329
 1111              		.file 32 "../../../external/ChibiOS/os/hal/ports/STM32/LLD/USARTv2/stm32_uart5.inc"
 1112              		.loc 32 80 1 view .LVU330
 1113              		.loc 12 142 3 view .LVU331
 1114              	.LBB174:
 1115              	.LBI174:
 1116              		.loc 5 76 20 view .LVU332
 1117              	.LBB175:
 1118              		.loc 5 78 3 view .LVU333
 1119 031a 0C21     		movs	r1, #12
 1120 031c 4720     		movs	r0, #71
 1121              	.LBE175:
 1122              	.LBE174:
 1123              		.loc 12 146 1 is_stmt 0 view .LVU334
 1124 031e BDE80840 		pop	{r3, lr}
 1125              		.cfi_restore 14
 1126              		.cfi_restore 3
 1127              		.cfi_def_cfa_offset 0
 1128              	.LBB177:
ARM GAS  /tmp/ccFaP3PF.s 			page 21


 1129              	.LBB176:
 1130              		.loc 5 78 3 view .LVU335
 1131 0322 FFF7FEBF 		b	nvicEnableVector
 1132              	.LVL73:
 1133              	.LBE176:
 1134              	.LBE177:
 1135              		.cfi_endproc
 1136              	.LFE445:
 1137              		.size	irqInit, .-irqInit
 1138              		.align	1
 1139 0326 00BFAFF3 		.p2align 4,,15
 1139      0080AFF3 
 1139      0080
 1140              		.global	irqDeinit
 1141              		.syntax unified
 1142              		.thumb
 1143              		.thumb_func
 1144              		.fpu fpv4-sp-d16
 1145              		.type	irqDeinit, %function
 1146              	irqDeinit:
 1147              	.LFB446:
 1148              		.loc 12 153 22 is_stmt 1 view -0
 1149              		.cfi_startproc
 1150              		@ args = 0, pretend = 0, frame = 0
 1151              		@ frame_needed = 0, uses_anonymous_args = 0
 1152              		.loc 12 155 3 view .LVU337
 1153              		.loc 13 64 1 view .LVU338
 1154              		.loc 12 156 3 view .LVU339
 1155              		.loc 14 64 1 view .LVU340
 1156              		.loc 12 157 3 view .LVU341
 1157              		.loc 15 64 1 view .LVU342
 1158              		.loc 12 158 3 view .LVU343
 1159              		.loc 16 64 1 view .LVU344
 1160              		.loc 12 159 3 view .LVU345
 1161              		.loc 17 64 1 view .LVU346
 1162              		.loc 12 160 3 view .LVU347
 1163              		.loc 18 64 1 view .LVU348
 1164              		.loc 12 161 3 view .LVU349
 1165              		.loc 19 64 1 view .LVU350
 1166              		.loc 12 162 3 view .LVU351
 1167              		.loc 20 64 1 view .LVU352
 1168              		.loc 12 163 3 view .LVU353
 1169              		.loc 21 64 1 view .LVU354
 1170              		.loc 12 164 3 view .LVU355
 1171              		.loc 22 64 1 view .LVU356
 1172              		.loc 12 165 3 view .LVU357
 1173              		.loc 23 64 1 view .LVU358
 1174              		.loc 12 166 3 view .LVU359
 1175              		.loc 24 64 1 view .LVU360
 1176              		.loc 12 168 3 view .LVU361
 1177              		.loc 25 80 1 view .LVU362
 1178              		.loc 12 169 3 view .LVU363
 1179              		.loc 26 80 1 view .LVU364
 1180              		.loc 12 171 3 view .LVU365
 1181              		.loc 12 153 22 is_stmt 0 view .LVU366
 1182 0330 08B5     		push	{r3, lr}
 1183              		.cfi_def_cfa_offset 8
ARM GAS  /tmp/ccFaP3PF.s 			page 22


 1184              		.cfi_offset 3, -8
 1185              		.cfi_offset 14, -4
 1186              		.loc 12 171 3 view .LVU367
 1187 0332 7A20     		movs	r0, #122
 1188 0334 FFF7FEFF 		bl	nvicDisableVector
 1189              	.LVL74:
 1190              		.loc 12 173 3 is_stmt 1 view .LVU368
 1191              		.loc 27 80 1 view .LVU369
 1192              		.loc 12 175 3 view .LVU370
 1193              	.LBB200:
 1194              	.LBI200:
 1195              		.loc 1 76 20 view .LVU371
 1196              	.LBB201:
 1197              		.loc 1 78 3 view .LVU372
 1198 0338 3120     		movs	r0, #49
 1199 033a FFF7FEFF 		bl	nvicDisableVector
 1200              	.LVL75:
 1201              	.LBE201:
 1202              	.LBE200:
 1203              		.loc 12 176 3 view .LVU373
 1204              		.loc 28 80 1 view .LVU374
 1205              		.loc 12 178 3 view .LVU375
 1206              	.LBB202:
 1207              	.LBI202:
 1208              		.loc 6 93 20 view .LVU376
 1209              	.LBB203:
 1210              		.loc 6 95 3 view .LVU377
 1211 033e 1920     		movs	r0, #25
 1212 0340 FFF7FEFF 		bl	nvicDisableVector
 1213              	.LVL76:
 1214              		.loc 6 96 3 view .LVU378
 1215 0344 1B20     		movs	r0, #27
 1216 0346 FFF7FEFF 		bl	nvicDisableVector
 1217              	.LVL77:
 1218              	.LBE203:
 1219              	.LBE202:
 1220              		.loc 12 179 3 view .LVU379
 1221              	.LBB204:
 1222              	.LBI204:
 1223              		.loc 7 84 20 view .LVU380
 1224              	.LBB205:
 1225              		.loc 7 86 3 view .LVU381
 1226 034a 1C20     		movs	r0, #28
 1227 034c FFF7FEFF 		bl	nvicDisableVector
 1228              	.LVL78:
 1229              	.LBE205:
 1230              	.LBE204:
 1231              		.loc 12 180 3 view .LVU382
 1232              	.LBB206:
 1233              	.LBI206:
 1234              		.loc 8 84 20 view .LVU383
 1235              	.LBB207:
 1236              		.loc 8 86 3 view .LVU384
 1237 0350 1D20     		movs	r0, #29
 1238 0352 FFF7FEFF 		bl	nvicDisableVector
 1239              	.LVL79:
 1240              	.LBE207:
ARM GAS  /tmp/ccFaP3PF.s 			page 23


 1241              	.LBE206:
 1242              		.loc 12 181 3 view .LVU385
 1243              	.LBB208:
 1244              	.LBI208:
 1245              		.loc 9 84 20 view .LVU386
 1246              	.LBB209:
 1247              		.loc 9 86 3 view .LVU387
 1248 0356 1E20     		movs	r0, #30
 1249 0358 FFF7FEFF 		bl	nvicDisableVector
 1250              	.LVL80:
 1251              	.LBE209:
 1252              	.LBE208:
 1253              		.loc 12 182 3 view .LVU388
 1254              	.LBB210:
 1255              	.LBI210:
 1256              		.loc 10 84 20 view .LVU389
 1257              	.LBB211:
 1258              		.loc 10 86 3 view .LVU390
 1259 035c 3220     		movs	r0, #50
 1260 035e FFF7FEFF 		bl	nvicDisableVector
 1261              	.LVL81:
 1262              	.LBE211:
 1263              	.LBE210:
 1264              		.loc 12 183 3 view .LVU391
 1265              		.loc 29 88 1 view .LVU392
 1266              		.loc 12 184 3 view .LVU393
 1267              		.loc 30 88 1 view .LVU394
 1268              		.loc 12 185 3 view .LVU395
 1269              	.LBB212:
 1270              	.LBI212:
 1271              		.loc 11 172 20 view .LVU396
 1272              	.LBB213:
 1273              		.loc 11 174 3 view .LVU397
 1274 0362 2B20     		movs	r0, #43
 1275 0364 FFF7FEFF 		bl	nvicDisableVector
 1276              	.LVL82:
 1277              		.loc 11 177 3 view .LVU398
 1278 0368 2C20     		movs	r0, #44
 1279 036a FFF7FEFF 		bl	nvicDisableVector
 1280              	.LVL83:
 1281              		.loc 11 180 3 view .LVU399
 1282 036e 2D20     		movs	r0, #45
 1283 0370 FFF7FEFF 		bl	nvicDisableVector
 1284              	.LVL84:
 1285              		.loc 11 183 3 view .LVU400
 1286 0374 2E20     		movs	r0, #46
 1287 0376 FFF7FEFF 		bl	nvicDisableVector
 1288              	.LVL85:
 1289              	.LBE213:
 1290              	.LBE212:
 1291              		.loc 12 187 3 view .LVU401
 1292              	.LBB214:
 1293              	.LBI214:
 1294              		.loc 2 82 20 view .LVU402
 1295              	.LBB215:
 1296              		.loc 2 84 3 view .LVU403
 1297 037a 2520     		movs	r0, #37
ARM GAS  /tmp/ccFaP3PF.s 			page 24


 1298 037c FFF7FEFF 		bl	nvicDisableVector
 1299              	.LVL86:
 1300              	.LBE215:
 1301              	.LBE214:
 1302              		.loc 12 188 3 view .LVU404
 1303              	.LBB216:
 1304              	.LBI216:
 1305              		.loc 3 82 20 view .LVU405
 1306              	.LBB217:
 1307              		.loc 3 84 3 view .LVU406
 1308 0380 2620     		movs	r0, #38
 1309 0382 FFF7FEFF 		bl	nvicDisableVector
 1310              	.LVL87:
 1311              	.LBE217:
 1312              	.LBE216:
 1313              		.loc 12 189 3 view .LVU407
 1314              	.LBB218:
 1315              	.LBI218:
 1316              		.loc 4 82 20 view .LVU408
 1317              	.LBB219:
 1318              		.loc 4 84 3 view .LVU409
 1319 0386 2720     		movs	r0, #39
 1320 0388 FFF7FEFF 		bl	nvicDisableVector
 1321              	.LVL88:
 1322              	.LBE219:
 1323              	.LBE218:
 1324              		.loc 12 190 3 view .LVU410
 1325              		.loc 31 86 1 view .LVU411
 1326              		.loc 12 191 3 view .LVU412
 1327              		.loc 32 86 1 view .LVU413
 1328              		.loc 12 192 3 view .LVU414
 1329              	.LBB220:
 1330              	.LBI220:
 1331              		.loc 5 82 20 view .LVU415
 1332              	.LBB221:
 1333              		.loc 5 84 3 view .LVU416
 1334 038c 4720     		movs	r0, #71
 1335              	.LBE221:
 1336              	.LBE220:
 1337              		.loc 12 196 1 is_stmt 0 view .LVU417
 1338 038e BDE80840 		pop	{r3, lr}
 1339              		.cfi_restore 14
 1340              		.cfi_restore 3
 1341              		.cfi_def_cfa_offset 0
 1342              	.LBB223:
 1343              	.LBB222:
 1344              		.loc 5 84 3 view .LVU418
 1345 0392 FFF7FEBF 		b	nvicDisableVector
 1346              	.LVL89:
 1347              	.LBE222:
 1348              	.LBE223:
 1349              		.cfi_endproc
 1350              	.LFE446:
 1351              		.size	irqDeinit, .-irqDeinit
 1352              		.section	.rodata
 1353              		.align	2
 1354              		.set	.LANCHOR0,. + 0
ARM GAS  /tmp/ccFaP3PF.s 			page 25


 1355              		.type	__func__.11839, %object
 1356              		.size	__func__.11839, 10
 1357              	__func__.11839:
 1358 0000 56656374 		.ascii	"Vector104\000"
 1358      6F723130 
 1358      3400
 1359 000a 0000     		.space	2
 1360              		.type	__func__.11855, %object
 1361              		.size	__func__.11855, 9
 1362              	__func__.11855:
 1363 000c 56656374 		.ascii	"VectorD4\000"
 1363      6F724434 
 1363      00
 1364 0015 000000   		.space	3
 1365              		.type	__func__.11865, %object
 1366              		.size	__func__.11865, 9
 1367              	__func__.11865:
 1368 0018 56656374 		.ascii	"VectorD8\000"
 1368      6F724438 
 1368      00
 1369 0021 000000   		.space	3
 1370              		.type	__func__.11875, %object
 1371              		.size	__func__.11875, 9
 1372              	__func__.11875:
 1373 0024 56656374 		.ascii	"VectorDC\000"
 1373      6F724443 
 1373      00
 1374 002d 000000   		.space	3
 1375              		.type	__func__.11897, %object
 1376              		.size	__func__.11897, 10
 1377              	__func__.11897:
 1378 0030 56656374 		.ascii	"Vector15C\000"
 1378      6F723135 
 1378      4300
 1379 003a 0000     		.space	2
 1380              		.type	__func__.11925, %object
 1381              		.size	__func__.11925, 9
 1382              	__func__.11925:
 1383 003c 56656374 		.ascii	"VectorA4\000"
 1383      6F724134 
 1383      00
 1384 0045 000000   		.space	3
 1385              		.type	__func__.11929, %object
 1386              		.size	__func__.11929, 9
 1387              	__func__.11929:
 1388 0048 56656374 		.ascii	"VectorAC\000"
 1388      6F724143 
 1388      00
 1389 0051 000000   		.space	3
 1390              		.type	__func__.11939, %object
 1391              		.size	__func__.11939, 9
 1392              	__func__.11939:
 1393 0054 56656374 		.ascii	"VectorB0\000"
 1393      6F724230 
 1393      00
 1394 005d 000000   		.space	3
 1395              		.type	__func__.11949, %object
ARM GAS  /tmp/ccFaP3PF.s 			page 26


 1396              		.size	__func__.11949, 9
 1397              	__func__.11949:
 1398 0060 56656374 		.ascii	"VectorB4\000"
 1398      6F724234 
 1398      00
 1399 0069 000000   		.space	3
 1400              		.type	__func__.11959, %object
 1401              		.size	__func__.11959, 9
 1402              	__func__.11959:
 1403 006c 56656374 		.ascii	"VectorB8\000"
 1403      6F724238 
 1403      00
 1404 0075 000000   		.space	3
 1405              		.type	__func__.11969, %object
 1406              		.size	__func__.11969, 10
 1407              	__func__.11969:
 1408 0078 56656374 		.ascii	"Vector108\000"
 1408      6F723130 
 1408      3800
 1409 0082 0000     		.space	2
 1410              		.type	__func__.11991, %object
 1411              		.size	__func__.11991, 9
 1412              	__func__.11991:
 1413 0084 56656374 		.ascii	"VectorEC\000"
 1413      6F724543 
 1413      00
 1414 008d 000000   		.space	3
 1415              		.type	__func__.11995, %object
 1416              		.size	__func__.11995, 9
 1417              	__func__.11995:
 1418 0090 56656374 		.ascii	"VectorF0\000"
 1418      6F724630 
 1418      00
 1419 0099 000000   		.space	3
 1420              		.type	__func__.11999, %object
 1421              		.size	__func__.11999, 9
 1422              	__func__.11999:
 1423 009c 56656374 		.ascii	"VectorF4\000"
 1423      6F724634 
 1423      00
 1424 00a5 000000   		.space	3
 1425              		.type	__func__.12003, %object
 1426              		.size	__func__.12003, 9
 1427              	__func__.12003:
 1428 00a8 56656374 		.ascii	"VectorF8\000"
 1428      6F724638 
 1428      00
 1429              		.text
 1430              	.Letext0:
 1431              		.file 33 "/home/nicolas/arm/gcc-arm-none-eabi-8-2019-q3-update/lib/gcc/arm-none-eabi/8.3.1/include
 1432              		.file 34 "/home/nicolas/arm/gcc-arm-none-eabi-8-2019-q3-update/arm-none-eabi/include/machine/_defa
 1433              		.file 35 "/home/nicolas/arm/gcc-arm-none-eabi-8-2019-q3-update/arm-none-eabi/include/sys/_stdint.h
 1434              		.file 36 "/home/nicolas/arm/gcc-arm-none-eabi-8-2019-q3-update/arm-none-eabi/include/stdint.h"
 1435              		.file 37 "../../../external/ChibiOS/os/common/ports/ARMCMx/compilers/GCC/chtypes.h"
 1436              		.file 38 "../../../external/ChibiOS/os/rt/include/chsystypes.h"
 1437              		.file 39 "../../../external/ChibiOS/os/rt/include/chschd.h"
 1438              		.file 40 "../../../external/ChibiOS/os/rt/include/chtime.h"
ARM GAS  /tmp/ccFaP3PF.s 			page 27


 1439              		.file 41 "../../../external/ChibiOS/os/common/ext/ARM/CMSIS/Core/Include/core_cm7.h"
 1440              		.file 42 "../../../external/ChibiOS/os/common/ext/ST/STM32H7xx/system_stm32h7xx.h"
 1441              		.file 43 "../../../external/ChibiOS/os/common/ext/ST/STM32H7xx/stm32h753xx.h"
 1442              		.file 44 "../../../external/ChibiOS/os/common/ports/ARMCMx/chcore.h"
 1443              		.file 45 "../../../external/ChibiOS/os/common/ports/ARMCMx/chcore_v7m.h"
 1444              		.file 46 "../../../external/ChibiOS/os/rt/include/chtrace.h"
 1445              		.file 47 "../../../external/ChibiOS/os/rt/include/chtm.h"
 1446              		.file 48 "../../../external/ChibiOS/os/rt/include/chsem.h"
 1447              		.file 49 "../../../external/ChibiOS/os/rt/include/chmtx.h"
 1448              		.file 50 "../../../external/ChibiOS/os/rt/include/chsys.h"
 1449              		.file 51 "../../../external/ChibiOS/os/rt/include/chregistry.h"
 1450              		.file 52 "../../../external/ChibiOS/os/rt/include/chevents.h"
 1451              		.file 53 "../../../external/ChibiOS/os/oslib/include/chmemcore.h"
 1452              		.file 54 "../../../external/ChibiOS/os/oslib/include/chmempools.h"
 1453              		.file 55 "../../../external/ChibiOS/os/oslib/include/chfactory.h"
 1454              		.file 56 "../../../external/ChibiOS/os/hal/ports/STM32/LLD/DMAv2/stm32_dma.h"
 1455              		.file 57 "../../../external/ChibiOS/os/hal/ports/STM32/LLD/BDMAv1/stm32_bdma.h"
 1456              		.file 58 "../../../external/ChibiOS/os/hal/ports/STM32/LLD/TIMv1/stm32_tim.h"
 1457              		.file 59 "../../../external/ChibiOS/os/hal/include/hal_ioblock.h"
 1458              		.file 60 "../../../external/ChibiOS/os/hal/include/hal_queues.h"
 1459              		.file 61 "../../../external/ChibiOS/os/hal/ports/STM32/LLD/GPIOv2/stm32_gpio.h"
 1460              		.file 62 "../../../external/ChibiOS/os/hal/ports/STM32/LLD/GPIOv2/hal_pal_lld.h"
 1461              		.file 63 "../../../external/ChibiOS/os/hal/include/hal_adc.h"
 1462              		.file 64 "../../../external/ChibiOS/os/hal/ports/STM32/LLD/ADCv4/hal_adc_lld.h"
 1463              		.file 65 "../../../external/ChibiOS/os/hal/include/hal_i2c.h"
 1464              		.file 66 "../../../external/ChibiOS/os/hal/ports/STM32/LLD/I2Cv3/hal_i2c_lld.h"
 1465              		.file 67 "../../../external/ChibiOS/os/hal/include/hal_pwm.h"
 1466              		.file 68 "../../../external/ChibiOS/os/hal/ports/STM32/LLD/TIMv1/hal_pwm_lld.h"
 1467              		.file 69 "../../../external/ChibiOS/os/hal/include/hal_serial.h"
 1468              		.file 70 "../../../external/ChibiOS/os/hal/ports/STM32/LLD/USARTv2/hal_serial_lld.h"
 1469              		.file 71 "../../../external/ChibiOS/os/hal/include/hal_sdc.h"
 1470              		.file 72 "../../../external/ChibiOS/os/hal/ports/STM32/LLD/SDMMCv2/hal_sdc_lld.h"
 1471              		.file 73 "../../../external/ChibiOS/os/hal/include/hal_spi.h"
 1472              		.file 74 "../../../external/ChibiOS/os/hal/ports/STM32/LLD/SPIv3/hal_spi_lld.h"
 1473              		.file 75 "../../../external/ChibiOS/os/hal/include/hal_trng.h"
 1474              		.file 76 "../../../external/ChibiOS/os/hal/ports/STM32/LLD/RNGv1/hal_trng_lld.h"
 1475              		.file 77 "../../../external/ChibiOS/os/hal/include/hal_usb.h"
 1476              		.file 78 "../../../external/ChibiOS/os/hal/ports/STM32/LLD/OTGv1/hal_usb_lld.h"
 1477              		.file 79 "../../../external/ChibiOS/os/hal/ports/STM32/LLD/OTGv1/stm32_otg.h"
 1478              		.file 80 "../../../external/ChibiOS-Contrib/os/hal/include/hal_fsmc.h"
 1479              		.file 81 "../../../external/ChibiOS-Contrib/os/hal/include/hal_sdram.h"
 1480              		.file 82 "../../../external/ChibiOS/os/hal/ports/STM32/LLD/USARTv2/stm32_lpuart1.inc"
 1481              		.file 83 "../../../external/ChibiOS/os/hal/ports/STM32/LLD/USARTv2/stm32_uart8.inc"
 1482              		.file 84 "../../../external/ChibiOS/os/hal/ports/STM32/LLD/USARTv2/stm32_uart7.inc"
 1483              		.file 85 "../../../external/ChibiOS/os/hal/ports/common/ARMCMx/nvic.h"
 1484              		.file 86 "../../../external/ChibiOS/os/hal/ports/STM32/LLD/TIMv1/hal_st_lld.h"